
VGAnuS_Software-Ontwikkeling.elf:     file format elf32-littlearm

Sections:
Idx Name          Size      VMA       LMA       File off  Algn
  0 .isr_vector   00000188  08000000  08000000  00010000  2**0
                  CONTENTS, ALLOC, LOAD, READONLY, DATA
  1 .text         00003158  08000188  08000188  00010188  2**2
                  CONTENTS, ALLOC, LOAD, READONLY, CODE
  2 .rodata       00000018  080032e0  080032e0  000132e0  2**2
                  CONTENTS, ALLOC, LOAD, READONLY, DATA
  3 .ARM.extab    00000000  080032f8  080032f8  0002000c  2**0
                  CONTENTS
  4 .ARM          00000008  080032f8  080032f8  000132f8  2**2
                  CONTENTS, ALLOC, LOAD, READONLY, DATA
  5 .preinit_array 00000000  08003300  08003300  0002000c  2**0
                  CONTENTS, ALLOC, LOAD, DATA
  6 .init_array   00000004  08003300  08003300  00013300  2**2
                  CONTENTS, ALLOC, LOAD, DATA
  7 .fini_array   00000004  08003304  08003304  00013304  2**2
                  CONTENTS, ALLOC, LOAD, DATA
  8 .data         0000000c  20000000  08003308  00020000  2**2
                  CONTENTS, ALLOC, LOAD, DATA
  9 .bss          00012dfc  2000000c  08003314  0002000c  2**2
                  ALLOC
 10 ._user_heap_stack 00000600  20012e08  08003314  00022e08  2**0
                  ALLOC
 11 .ARM.attributes 00000030  00000000  00000000  0002000c  2**0
                  CONTENTS, READONLY
 12 .debug_info   0000ae5d  00000000  00000000  0002003c  2**0
                  CONTENTS, READONLY, DEBUGGING, OCTETS
 13 .debug_abbrev 00001dcb  00000000  00000000  0002ae99  2**0
                  CONTENTS, READONLY, DEBUGGING, OCTETS
 14 .debug_aranges 00000a40  00000000  00000000  0002cc68  2**3
                  CONTENTS, READONLY, DEBUGGING, OCTETS
 15 .debug_ranges 00000948  00000000  00000000  0002d6a8  2**3
                  CONTENTS, READONLY, DEBUGGING, OCTETS
 16 .debug_macro  0002039e  00000000  00000000  0002dff0  2**0
                  CONTENTS, READONLY, DEBUGGING, OCTETS
 17 .debug_line   0000b516  00000000  00000000  0004e38e  2**0
                  CONTENTS, READONLY, DEBUGGING, OCTETS
 18 .debug_str    000c35b7  00000000  00000000  000598a4  2**0
                  CONTENTS, READONLY, DEBUGGING, OCTETS
 19 .comment      00000053  00000000  00000000  0011ce5b  2**0
                  CONTENTS, READONLY
 20 .debug_frame  00002924  00000000  00000000  0011ceb0  2**2
                  CONTENTS, READONLY, DEBUGGING, OCTETS

Disassembly of section .text:

08000188 <__do_global_dtors_aux>:
 8000188:	b510      	push	{r4, lr}
 800018a:	4c05      	ldr	r4, [pc, #20]	; (80001a0 <__do_global_dtors_aux+0x18>)
 800018c:	7823      	ldrb	r3, [r4, #0]
 800018e:	b933      	cbnz	r3, 800019e <__do_global_dtors_aux+0x16>
 8000190:	4b04      	ldr	r3, [pc, #16]	; (80001a4 <__do_global_dtors_aux+0x1c>)
 8000192:	b113      	cbz	r3, 800019a <__do_global_dtors_aux+0x12>
 8000194:	4804      	ldr	r0, [pc, #16]	; (80001a8 <__do_global_dtors_aux+0x20>)
 8000196:	f3af 8000 	nop.w
 800019a:	2301      	movs	r3, #1
 800019c:	7023      	strb	r3, [r4, #0]
 800019e:	bd10      	pop	{r4, pc}
 80001a0:	2000000c 	.word	0x2000000c
 80001a4:	00000000 	.word	0x00000000
 80001a8:	080032c8 	.word	0x080032c8

080001ac <frame_dummy>:
 80001ac:	b508      	push	{r3, lr}
 80001ae:	4b03      	ldr	r3, [pc, #12]	; (80001bc <frame_dummy+0x10>)
 80001b0:	b11b      	cbz	r3, 80001ba <frame_dummy+0xe>
 80001b2:	4903      	ldr	r1, [pc, #12]	; (80001c0 <frame_dummy+0x14>)
 80001b4:	4803      	ldr	r0, [pc, #12]	; (80001c4 <frame_dummy+0x18>)
 80001b6:	f3af 8000 	nop.w
 80001ba:	bd08      	pop	{r3, pc}
 80001bc:	00000000 	.word	0x00000000
 80001c0:	20000010 	.word	0x20000010
 80001c4:	080032c8 	.word	0x080032c8

080001c8 <__aeabi_uldivmod>:
 80001c8:	b953      	cbnz	r3, 80001e0 <__aeabi_uldivmod+0x18>
 80001ca:	b94a      	cbnz	r2, 80001e0 <__aeabi_uldivmod+0x18>
 80001cc:	2900      	cmp	r1, #0
 80001ce:	bf08      	it	eq
 80001d0:	2800      	cmpeq	r0, #0
 80001d2:	bf1c      	itt	ne
 80001d4:	f04f 31ff 	movne.w	r1, #4294967295
 80001d8:	f04f 30ff 	movne.w	r0, #4294967295
 80001dc:	f000 b96e 	b.w	80004bc <__aeabi_idiv0>
 80001e0:	f1ad 0c08 	sub.w	ip, sp, #8
 80001e4:	e96d ce04 	strd	ip, lr, [sp, #-16]!
 80001e8:	f000 f806 	bl	80001f8 <__udivmoddi4>
 80001ec:	f8dd e004 	ldr.w	lr, [sp, #4]
 80001f0:	e9dd 2302 	ldrd	r2, r3, [sp, #8]
 80001f4:	b004      	add	sp, #16
 80001f6:	4770      	bx	lr

080001f8 <__udivmoddi4>:
 80001f8:	e92d 47f0 	stmdb	sp!, {r4, r5, r6, r7, r8, r9, sl, lr}
 80001fc:	9d08      	ldr	r5, [sp, #32]
 80001fe:	4604      	mov	r4, r0
 8000200:	468c      	mov	ip, r1
 8000202:	2b00      	cmp	r3, #0
 8000204:	f040 8083 	bne.w	800030e <__udivmoddi4+0x116>
 8000208:	428a      	cmp	r2, r1
 800020a:	4617      	mov	r7, r2
 800020c:	d947      	bls.n	800029e <__udivmoddi4+0xa6>
 800020e:	fab2 f282 	clz	r2, r2
 8000212:	b142      	cbz	r2, 8000226 <__udivmoddi4+0x2e>
 8000214:	f1c2 0020 	rsb	r0, r2, #32
 8000218:	fa24 f000 	lsr.w	r0, r4, r0
 800021c:	4091      	lsls	r1, r2
 800021e:	4097      	lsls	r7, r2
 8000220:	ea40 0c01 	orr.w	ip, r0, r1
 8000224:	4094      	lsls	r4, r2
 8000226:	ea4f 4817 	mov.w	r8, r7, lsr #16
 800022a:	0c23      	lsrs	r3, r4, #16
 800022c:	fbbc f6f8 	udiv	r6, ip, r8
 8000230:	fa1f fe87 	uxth.w	lr, r7
 8000234:	fb08 c116 	mls	r1, r8, r6, ip
 8000238:	ea43 4301 	orr.w	r3, r3, r1, lsl #16
 800023c:	fb06 f10e 	mul.w	r1, r6, lr
 8000240:	4299      	cmp	r1, r3
 8000242:	d909      	bls.n	8000258 <__udivmoddi4+0x60>
 8000244:	18fb      	adds	r3, r7, r3
 8000246:	f106 30ff 	add.w	r0, r6, #4294967295
 800024a:	f080 8119 	bcs.w	8000480 <__udivmoddi4+0x288>
 800024e:	4299      	cmp	r1, r3
 8000250:	f240 8116 	bls.w	8000480 <__udivmoddi4+0x288>
 8000254:	3e02      	subs	r6, #2
 8000256:	443b      	add	r3, r7
 8000258:	1a5b      	subs	r3, r3, r1
 800025a:	b2a4      	uxth	r4, r4
 800025c:	fbb3 f0f8 	udiv	r0, r3, r8
 8000260:	fb08 3310 	mls	r3, r8, r0, r3
 8000264:	ea44 4403 	orr.w	r4, r4, r3, lsl #16
 8000268:	fb00 fe0e 	mul.w	lr, r0, lr
 800026c:	45a6      	cmp	lr, r4
 800026e:	d909      	bls.n	8000284 <__udivmoddi4+0x8c>
 8000270:	193c      	adds	r4, r7, r4
 8000272:	f100 33ff 	add.w	r3, r0, #4294967295
 8000276:	f080 8105 	bcs.w	8000484 <__udivmoddi4+0x28c>
 800027a:	45a6      	cmp	lr, r4
 800027c:	f240 8102 	bls.w	8000484 <__udivmoddi4+0x28c>
 8000280:	3802      	subs	r0, #2
 8000282:	443c      	add	r4, r7
 8000284:	ea40 4006 	orr.w	r0, r0, r6, lsl #16
 8000288:	eba4 040e 	sub.w	r4, r4, lr
 800028c:	2600      	movs	r6, #0
 800028e:	b11d      	cbz	r5, 8000298 <__udivmoddi4+0xa0>
 8000290:	40d4      	lsrs	r4, r2
 8000292:	2300      	movs	r3, #0
 8000294:	e9c5 4300 	strd	r4, r3, [r5]
 8000298:	4631      	mov	r1, r6
 800029a:	e8bd 87f0 	ldmia.w	sp!, {r4, r5, r6, r7, r8, r9, sl, pc}
 800029e:	b902      	cbnz	r2, 80002a2 <__udivmoddi4+0xaa>
 80002a0:	deff      	udf	#255	; 0xff
 80002a2:	fab2 f282 	clz	r2, r2
 80002a6:	2a00      	cmp	r2, #0
 80002a8:	d150      	bne.n	800034c <__udivmoddi4+0x154>
 80002aa:	1bcb      	subs	r3, r1, r7
 80002ac:	ea4f 4e17 	mov.w	lr, r7, lsr #16
 80002b0:	fa1f f887 	uxth.w	r8, r7
 80002b4:	2601      	movs	r6, #1
 80002b6:	fbb3 fcfe 	udiv	ip, r3, lr
 80002ba:	0c21      	lsrs	r1, r4, #16
 80002bc:	fb0e 331c 	mls	r3, lr, ip, r3
 80002c0:	ea41 4103 	orr.w	r1, r1, r3, lsl #16
 80002c4:	fb08 f30c 	mul.w	r3, r8, ip
 80002c8:	428b      	cmp	r3, r1
 80002ca:	d907      	bls.n	80002dc <__udivmoddi4+0xe4>
 80002cc:	1879      	adds	r1, r7, r1
 80002ce:	f10c 30ff 	add.w	r0, ip, #4294967295
 80002d2:	d202      	bcs.n	80002da <__udivmoddi4+0xe2>
 80002d4:	428b      	cmp	r3, r1
 80002d6:	f200 80e9 	bhi.w	80004ac <__udivmoddi4+0x2b4>
 80002da:	4684      	mov	ip, r0
 80002dc:	1ac9      	subs	r1, r1, r3
 80002de:	b2a3      	uxth	r3, r4
 80002e0:	fbb1 f0fe 	udiv	r0, r1, lr
 80002e4:	fb0e 1110 	mls	r1, lr, r0, r1
 80002e8:	ea43 4401 	orr.w	r4, r3, r1, lsl #16
 80002ec:	fb08 f800 	mul.w	r8, r8, r0
 80002f0:	45a0      	cmp	r8, r4
 80002f2:	d907      	bls.n	8000304 <__udivmoddi4+0x10c>
 80002f4:	193c      	adds	r4, r7, r4
 80002f6:	f100 33ff 	add.w	r3, r0, #4294967295
 80002fa:	d202      	bcs.n	8000302 <__udivmoddi4+0x10a>
 80002fc:	45a0      	cmp	r8, r4
 80002fe:	f200 80d9 	bhi.w	80004b4 <__udivmoddi4+0x2bc>
 8000302:	4618      	mov	r0, r3
 8000304:	eba4 0408 	sub.w	r4, r4, r8
 8000308:	ea40 400c 	orr.w	r0, r0, ip, lsl #16
 800030c:	e7bf      	b.n	800028e <__udivmoddi4+0x96>
 800030e:	428b      	cmp	r3, r1
 8000310:	d909      	bls.n	8000326 <__udivmoddi4+0x12e>
 8000312:	2d00      	cmp	r5, #0
 8000314:	f000 80b1 	beq.w	800047a <__udivmoddi4+0x282>
 8000318:	2600      	movs	r6, #0
 800031a:	e9c5 0100 	strd	r0, r1, [r5]
 800031e:	4630      	mov	r0, r6
 8000320:	4631      	mov	r1, r6
 8000322:	e8bd 87f0 	ldmia.w	sp!, {r4, r5, r6, r7, r8, r9, sl, pc}
 8000326:	fab3 f683 	clz	r6, r3
 800032a:	2e00      	cmp	r6, #0
 800032c:	d14a      	bne.n	80003c4 <__udivmoddi4+0x1cc>
 800032e:	428b      	cmp	r3, r1
 8000330:	d302      	bcc.n	8000338 <__udivmoddi4+0x140>
 8000332:	4282      	cmp	r2, r0
 8000334:	f200 80b8 	bhi.w	80004a8 <__udivmoddi4+0x2b0>
 8000338:	1a84      	subs	r4, r0, r2
 800033a:	eb61 0103 	sbc.w	r1, r1, r3
 800033e:	2001      	movs	r0, #1
 8000340:	468c      	mov	ip, r1
 8000342:	2d00      	cmp	r5, #0
 8000344:	d0a8      	beq.n	8000298 <__udivmoddi4+0xa0>
 8000346:	e9c5 4c00 	strd	r4, ip, [r5]
 800034a:	e7a5      	b.n	8000298 <__udivmoddi4+0xa0>
 800034c:	f1c2 0320 	rsb	r3, r2, #32
 8000350:	fa20 f603 	lsr.w	r6, r0, r3
 8000354:	4097      	lsls	r7, r2
 8000356:	fa01 f002 	lsl.w	r0, r1, r2
 800035a:	ea4f 4e17 	mov.w	lr, r7, lsr #16
 800035e:	40d9      	lsrs	r1, r3
 8000360:	4330      	orrs	r0, r6
 8000362:	0c03      	lsrs	r3, r0, #16
 8000364:	fbb1 f6fe 	udiv	r6, r1, lr
 8000368:	fa1f f887 	uxth.w	r8, r7
 800036c:	fb0e 1116 	mls	r1, lr, r6, r1
 8000370:	ea43 4301 	orr.w	r3, r3, r1, lsl #16
 8000374:	fb06 f108 	mul.w	r1, r6, r8
 8000378:	4299      	cmp	r1, r3
 800037a:	fa04 f402 	lsl.w	r4, r4, r2
 800037e:	d909      	bls.n	8000394 <__udivmoddi4+0x19c>
 8000380:	18fb      	adds	r3, r7, r3
 8000382:	f106 3cff 	add.w	ip, r6, #4294967295
 8000386:	f080 808d 	bcs.w	80004a4 <__udivmoddi4+0x2ac>
 800038a:	4299      	cmp	r1, r3
 800038c:	f240 808a 	bls.w	80004a4 <__udivmoddi4+0x2ac>
 8000390:	3e02      	subs	r6, #2
 8000392:	443b      	add	r3, r7
 8000394:	1a5b      	subs	r3, r3, r1
 8000396:	b281      	uxth	r1, r0
 8000398:	fbb3 f0fe 	udiv	r0, r3, lr
 800039c:	fb0e 3310 	mls	r3, lr, r0, r3
 80003a0:	ea41 4103 	orr.w	r1, r1, r3, lsl #16
 80003a4:	fb00 f308 	mul.w	r3, r0, r8
 80003a8:	428b      	cmp	r3, r1
 80003aa:	d907      	bls.n	80003bc <__udivmoddi4+0x1c4>
 80003ac:	1879      	adds	r1, r7, r1
 80003ae:	f100 3cff 	add.w	ip, r0, #4294967295
 80003b2:	d273      	bcs.n	800049c <__udivmoddi4+0x2a4>
 80003b4:	428b      	cmp	r3, r1
 80003b6:	d971      	bls.n	800049c <__udivmoddi4+0x2a4>
 80003b8:	3802      	subs	r0, #2
 80003ba:	4439      	add	r1, r7
 80003bc:	1acb      	subs	r3, r1, r3
 80003be:	ea40 4606 	orr.w	r6, r0, r6, lsl #16
 80003c2:	e778      	b.n	80002b6 <__udivmoddi4+0xbe>
 80003c4:	f1c6 0c20 	rsb	ip, r6, #32
 80003c8:	fa03 f406 	lsl.w	r4, r3, r6
 80003cc:	fa22 f30c 	lsr.w	r3, r2, ip
 80003d0:	431c      	orrs	r4, r3
 80003d2:	fa20 f70c 	lsr.w	r7, r0, ip
 80003d6:	fa01 f306 	lsl.w	r3, r1, r6
 80003da:	ea4f 4e14 	mov.w	lr, r4, lsr #16
 80003de:	fa21 f10c 	lsr.w	r1, r1, ip
 80003e2:	431f      	orrs	r7, r3
 80003e4:	0c3b      	lsrs	r3, r7, #16
 80003e6:	fbb1 f9fe 	udiv	r9, r1, lr
 80003ea:	fa1f f884 	uxth.w	r8, r4
 80003ee:	fb0e 1119 	mls	r1, lr, r9, r1
 80003f2:	ea43 4101 	orr.w	r1, r3, r1, lsl #16
 80003f6:	fb09 fa08 	mul.w	sl, r9, r8
 80003fa:	458a      	cmp	sl, r1
 80003fc:	fa02 f206 	lsl.w	r2, r2, r6
 8000400:	fa00 f306 	lsl.w	r3, r0, r6
 8000404:	d908      	bls.n	8000418 <__udivmoddi4+0x220>
 8000406:	1861      	adds	r1, r4, r1
 8000408:	f109 30ff 	add.w	r0, r9, #4294967295
 800040c:	d248      	bcs.n	80004a0 <__udivmoddi4+0x2a8>
 800040e:	458a      	cmp	sl, r1
 8000410:	d946      	bls.n	80004a0 <__udivmoddi4+0x2a8>
 8000412:	f1a9 0902 	sub.w	r9, r9, #2
 8000416:	4421      	add	r1, r4
 8000418:	eba1 010a 	sub.w	r1, r1, sl
 800041c:	b2bf      	uxth	r7, r7
 800041e:	fbb1 f0fe 	udiv	r0, r1, lr
 8000422:	fb0e 1110 	mls	r1, lr, r0, r1
 8000426:	ea47 4701 	orr.w	r7, r7, r1, lsl #16
 800042a:	fb00 f808 	mul.w	r8, r0, r8
 800042e:	45b8      	cmp	r8, r7
 8000430:	d907      	bls.n	8000442 <__udivmoddi4+0x24a>
 8000432:	19e7      	adds	r7, r4, r7
 8000434:	f100 31ff 	add.w	r1, r0, #4294967295
 8000438:	d22e      	bcs.n	8000498 <__udivmoddi4+0x2a0>
 800043a:	45b8      	cmp	r8, r7
 800043c:	d92c      	bls.n	8000498 <__udivmoddi4+0x2a0>
 800043e:	3802      	subs	r0, #2
 8000440:	4427      	add	r7, r4
 8000442:	ea40 4009 	orr.w	r0, r0, r9, lsl #16
 8000446:	eba7 0708 	sub.w	r7, r7, r8
 800044a:	fba0 8902 	umull	r8, r9, r0, r2
 800044e:	454f      	cmp	r7, r9
 8000450:	46c6      	mov	lr, r8
 8000452:	4649      	mov	r1, r9
 8000454:	d31a      	bcc.n	800048c <__udivmoddi4+0x294>
 8000456:	d017      	beq.n	8000488 <__udivmoddi4+0x290>
 8000458:	b15d      	cbz	r5, 8000472 <__udivmoddi4+0x27a>
 800045a:	ebb3 020e 	subs.w	r2, r3, lr
 800045e:	eb67 0701 	sbc.w	r7, r7, r1
 8000462:	fa07 fc0c 	lsl.w	ip, r7, ip
 8000466:	40f2      	lsrs	r2, r6
 8000468:	ea4c 0202 	orr.w	r2, ip, r2
 800046c:	40f7      	lsrs	r7, r6
 800046e:	e9c5 2700 	strd	r2, r7, [r5]
 8000472:	2600      	movs	r6, #0
 8000474:	4631      	mov	r1, r6
 8000476:	e8bd 87f0 	ldmia.w	sp!, {r4, r5, r6, r7, r8, r9, sl, pc}
 800047a:	462e      	mov	r6, r5
 800047c:	4628      	mov	r0, r5
 800047e:	e70b      	b.n	8000298 <__udivmoddi4+0xa0>
 8000480:	4606      	mov	r6, r0
 8000482:	e6e9      	b.n	8000258 <__udivmoddi4+0x60>
 8000484:	4618      	mov	r0, r3
 8000486:	e6fd      	b.n	8000284 <__udivmoddi4+0x8c>
 8000488:	4543      	cmp	r3, r8
 800048a:	d2e5      	bcs.n	8000458 <__udivmoddi4+0x260>
 800048c:	ebb8 0e02 	subs.w	lr, r8, r2
 8000490:	eb69 0104 	sbc.w	r1, r9, r4
 8000494:	3801      	subs	r0, #1
 8000496:	e7df      	b.n	8000458 <__udivmoddi4+0x260>
 8000498:	4608      	mov	r0, r1
 800049a:	e7d2      	b.n	8000442 <__udivmoddi4+0x24a>
 800049c:	4660      	mov	r0, ip
 800049e:	e78d      	b.n	80003bc <__udivmoddi4+0x1c4>
 80004a0:	4681      	mov	r9, r0
 80004a2:	e7b9      	b.n	8000418 <__udivmoddi4+0x220>
 80004a4:	4666      	mov	r6, ip
 80004a6:	e775      	b.n	8000394 <__udivmoddi4+0x19c>
 80004a8:	4630      	mov	r0, r6
 80004aa:	e74a      	b.n	8000342 <__udivmoddi4+0x14a>
 80004ac:	f1ac 0c02 	sub.w	ip, ip, #2
 80004b0:	4439      	add	r1, r7
 80004b2:	e713      	b.n	80002dc <__udivmoddi4+0xe4>
 80004b4:	3802      	subs	r0, #2
 80004b6:	443c      	add	r4, r7
 80004b8:	e724      	b.n	8000304 <__udivmoddi4+0x10c>
 80004ba:	bf00      	nop

080004bc <__aeabi_idiv0>:
 80004bc:	4770      	bx	lr
 80004be:	bf00      	nop

080004c0 <MX_DMA_Init>:

/** 
  * Enable DMA controller clock
  */
void MX_DMA_Init(void) 
{
 80004c0:	b580      	push	{r7, lr}
 80004c2:	b082      	sub	sp, #8
 80004c4:	af00      	add	r7, sp, #0

  /* DMA controller clock enable */
  __HAL_RCC_DMA2_CLK_ENABLE();
 80004c6:	2300      	movs	r3, #0
 80004c8:	607b      	str	r3, [r7, #4]
 80004ca:	4b0c      	ldr	r3, [pc, #48]	; (80004fc <MX_DMA_Init+0x3c>)
 80004cc:	6b1b      	ldr	r3, [r3, #48]	; 0x30
 80004ce:	4a0b      	ldr	r2, [pc, #44]	; (80004fc <MX_DMA_Init+0x3c>)
 80004d0:	f443 0380 	orr.w	r3, r3, #4194304	; 0x400000
 80004d4:	6313      	str	r3, [r2, #48]	; 0x30
 80004d6:	4b09      	ldr	r3, [pc, #36]	; (80004fc <MX_DMA_Init+0x3c>)
 80004d8:	6b1b      	ldr	r3, [r3, #48]	; 0x30
 80004da:	f403 0380 	and.w	r3, r3, #4194304	; 0x400000
 80004de:	607b      	str	r3, [r7, #4]
 80004e0:	687b      	ldr	r3, [r7, #4]

  /* DMA interrupt init */
  /* DMA2_Stream5_IRQn interrupt configuration */
  HAL_NVIC_SetPriority(DMA2_Stream5_IRQn, 0, 0);
 80004e2:	2200      	movs	r2, #0
 80004e4:	2100      	movs	r1, #0
 80004e6:	2044      	movs	r0, #68	; 0x44
 80004e8:	f000 fd8d 	bl	8001006 <HAL_NVIC_SetPriority>
  HAL_NVIC_EnableIRQ(DMA2_Stream5_IRQn);
 80004ec:	2044      	movs	r0, #68	; 0x44
 80004ee:	f000 fda6 	bl	800103e <HAL_NVIC_EnableIRQ>

}
 80004f2:	bf00      	nop
 80004f4:	3708      	adds	r7, #8
 80004f6:	46bd      	mov	sp, r7
 80004f8:	bd80      	pop	{r7, pc}
 80004fa:	bf00      	nop
 80004fc:	40023800 	.word	0x40023800

08000500 <MX_GPIO_Init>:
        * Output
        * EVENT_OUT
        * EXTI
*/
void MX_GPIO_Init(void)
{
 8000500:	b580      	push	{r7, lr}
 8000502:	b08a      	sub	sp, #40	; 0x28
 8000504:	af00      	add	r7, sp, #0

  GPIO_InitTypeDef GPIO_InitStruct = {0};
 8000506:	f107 0314 	add.w	r3, r7, #20
 800050a:	2200      	movs	r2, #0
 800050c:	601a      	str	r2, [r3, #0]
 800050e:	605a      	str	r2, [r3, #4]
 8000510:	609a      	str	r2, [r3, #8]
 8000512:	60da      	str	r2, [r3, #12]
 8000514:	611a      	str	r2, [r3, #16]

  /* GPIO Ports Clock Enable */
  __HAL_RCC_GPIOH_CLK_ENABLE();
 8000516:	2300      	movs	r3, #0
 8000518:	613b      	str	r3, [r7, #16]
 800051a:	4b32      	ldr	r3, [pc, #200]	; (80005e4 <MX_GPIO_Init+0xe4>)
 800051c:	6b1b      	ldr	r3, [r3, #48]	; 0x30
 800051e:	4a31      	ldr	r2, [pc, #196]	; (80005e4 <MX_GPIO_Init+0xe4>)
 8000520:	f043 0380 	orr.w	r3, r3, #128	; 0x80
 8000524:	6313      	str	r3, [r2, #48]	; 0x30
 8000526:	4b2f      	ldr	r3, [pc, #188]	; (80005e4 <MX_GPIO_Init+0xe4>)
 8000528:	6b1b      	ldr	r3, [r3, #48]	; 0x30
 800052a:	f003 0380 	and.w	r3, r3, #128	; 0x80
 800052e:	613b      	str	r3, [r7, #16]
 8000530:	693b      	ldr	r3, [r7, #16]
  __HAL_RCC_GPIOE_CLK_ENABLE();
 8000532:	2300      	movs	r3, #0
 8000534:	60fb      	str	r3, [r7, #12]
 8000536:	4b2b      	ldr	r3, [pc, #172]	; (80005e4 <MX_GPIO_Init+0xe4>)
 8000538:	6b1b      	ldr	r3, [r3, #48]	; 0x30
 800053a:	4a2a      	ldr	r2, [pc, #168]	; (80005e4 <MX_GPIO_Init+0xe4>)
 800053c:	f043 0310 	orr.w	r3, r3, #16
 8000540:	6313      	str	r3, [r2, #48]	; 0x30
 8000542:	4b28      	ldr	r3, [pc, #160]	; (80005e4 <MX_GPIO_Init+0xe4>)
 8000544:	6b1b      	ldr	r3, [r3, #48]	; 0x30
 8000546:	f003 0310 	and.w	r3, r3, #16
 800054a:	60fb      	str	r3, [r7, #12]
 800054c:	68fb      	ldr	r3, [r7, #12]
  __HAL_RCC_GPIOB_CLK_ENABLE();
 800054e:	2300      	movs	r3, #0
 8000550:	60bb      	str	r3, [r7, #8]
 8000552:	4b24      	ldr	r3, [pc, #144]	; (80005e4 <MX_GPIO_Init+0xe4>)
 8000554:	6b1b      	ldr	r3, [r3, #48]	; 0x30
 8000556:	4a23      	ldr	r2, [pc, #140]	; (80005e4 <MX_GPIO_Init+0xe4>)
 8000558:	f043 0302 	orr.w	r3, r3, #2
 800055c:	6313      	str	r3, [r2, #48]	; 0x30
 800055e:	4b21      	ldr	r3, [pc, #132]	; (80005e4 <MX_GPIO_Init+0xe4>)
 8000560:	6b1b      	ldr	r3, [r3, #48]	; 0x30
 8000562:	f003 0302 	and.w	r3, r3, #2
 8000566:	60bb      	str	r3, [r7, #8]
 8000568:	68bb      	ldr	r3, [r7, #8]
  __HAL_RCC_GPIOA_CLK_ENABLE();
 800056a:	2300      	movs	r3, #0
 800056c:	607b      	str	r3, [r7, #4]
 800056e:	4b1d      	ldr	r3, [pc, #116]	; (80005e4 <MX_GPIO_Init+0xe4>)
 8000570:	6b1b      	ldr	r3, [r3, #48]	; 0x30
 8000572:	4a1c      	ldr	r2, [pc, #112]	; (80005e4 <MX_GPIO_Init+0xe4>)
 8000574:	f043 0301 	orr.w	r3, r3, #1
 8000578:	6313      	str	r3, [r2, #48]	; 0x30
 800057a:	4b1a      	ldr	r3, [pc, #104]	; (80005e4 <MX_GPIO_Init+0xe4>)
 800057c:	6b1b      	ldr	r3, [r3, #48]	; 0x30
 800057e:	f003 0301 	and.w	r3, r3, #1
 8000582:	607b      	str	r3, [r7, #4]
 8000584:	687b      	ldr	r3, [r7, #4]

  /*Configure GPIO pin Output Level */
  HAL_GPIO_WritePin(GPIOE, VGA_BLUE0_Pin|VGA_BLUE1_Pin|VGA_GREEN0_Pin|VGA_GREEN1_Pin 
 8000586:	2200      	movs	r2, #0
 8000588:	f44f 417f 	mov.w	r1, #65280	; 0xff00
 800058c:	4816      	ldr	r0, [pc, #88]	; (80005e8 <MX_GPIO_Init+0xe8>)
 800058e:	f001 fa7d 	bl	8001a8c <HAL_GPIO_WritePin>
                          |VGA_GREEN2_Pin|VGA_RED0_Pin|VGA_RED1_Pin|VGA_RED2_Pin, GPIO_PIN_RESET);

  /*Configure GPIO pin Output Level */
  HAL_GPIO_WritePin(VGA_VSYNC_GPIO_Port, VGA_VSYNC_Pin, GPIO_PIN_RESET);
 8000592:	2200      	movs	r2, #0
 8000594:	f44f 5180 	mov.w	r1, #4096	; 0x1000
 8000598:	4814      	ldr	r0, [pc, #80]	; (80005ec <MX_GPIO_Init+0xec>)
 800059a:	f001 fa77 	bl	8001a8c <HAL_GPIO_WritePin>

  /*Configure GPIO pins : PEPin PEPin PEPin PEPin 
                           PEPin PEPin PEPin PEPin */
  GPIO_InitStruct.Pin = VGA_BLUE0_Pin|VGA_BLUE1_Pin|VGA_GREEN0_Pin|VGA_GREEN1_Pin 
 800059e:	f44f 437f 	mov.w	r3, #65280	; 0xff00
 80005a2:	617b      	str	r3, [r7, #20]
                          |VGA_GREEN2_Pin|VGA_RED0_Pin|VGA_RED1_Pin|VGA_RED2_Pin;
  GPIO_InitStruct.Mode = GPIO_MODE_OUTPUT_PP;
 80005a4:	2301      	movs	r3, #1
 80005a6:	61bb      	str	r3, [r7, #24]
  GPIO_InitStruct.Pull = GPIO_NOPULL;
 80005a8:	2300      	movs	r3, #0
 80005aa:	61fb      	str	r3, [r7, #28]
  GPIO_InitStruct.Speed = GPIO_SPEED_FREQ_VERY_HIGH;
 80005ac:	2303      	movs	r3, #3
 80005ae:	623b      	str	r3, [r7, #32]
  HAL_GPIO_Init(GPIOE, &GPIO_InitStruct);
 80005b0:	f107 0314 	add.w	r3, r7, #20
 80005b4:	4619      	mov	r1, r3
 80005b6:	480c      	ldr	r0, [pc, #48]	; (80005e8 <MX_GPIO_Init+0xe8>)
 80005b8:	f001 f8cc 	bl	8001754 <HAL_GPIO_Init>

  /*Configure GPIO pin : PtPin */
  GPIO_InitStruct.Pin = VGA_VSYNC_Pin;
 80005bc:	f44f 5380 	mov.w	r3, #4096	; 0x1000
 80005c0:	617b      	str	r3, [r7, #20]
  GPIO_InitStruct.Mode = GPIO_MODE_OUTPUT_PP;
 80005c2:	2301      	movs	r3, #1
 80005c4:	61bb      	str	r3, [r7, #24]
  GPIO_InitStruct.Pull = GPIO_NOPULL;
 80005c6:	2300      	movs	r3, #0
 80005c8:	61fb      	str	r3, [r7, #28]
  GPIO_InitStruct.Speed = GPIO_SPEED_FREQ_VERY_HIGH;
 80005ca:	2303      	movs	r3, #3
 80005cc:	623b      	str	r3, [r7, #32]
  HAL_GPIO_Init(VGA_VSYNC_GPIO_Port, &GPIO_InitStruct);
 80005ce:	f107 0314 	add.w	r3, r7, #20
 80005d2:	4619      	mov	r1, r3
 80005d4:	4805      	ldr	r0, [pc, #20]	; (80005ec <MX_GPIO_Init+0xec>)
 80005d6:	f001 f8bd 	bl	8001754 <HAL_GPIO_Init>

}
 80005da:	bf00      	nop
 80005dc:	3728      	adds	r7, #40	; 0x28
 80005de:	46bd      	mov	sp, r7
 80005e0:	bd80      	pop	{r7, pc}
 80005e2:	bf00      	nop
 80005e4:	40023800 	.word	0x40023800
 80005e8:	40021000 	.word	0x40021000
 80005ec:	40020400 	.word	0x40020400

080005f0 <main>:
/**
  * @brief  The application entry point.
  * @retval int
  */
int main(void)
{
 80005f0:	b580      	push	{r7, lr}
 80005f2:	af00      	add	r7, sp, #0
  /* USER CODE END 1 */

  /* MCU Configuration--------------------------------------------------------*/

  /* Reset of all peripherals, Initializes the Flash interface and the Systick. */
  HAL_Init();
 80005f4:	f000 fbba 	bl	8000d6c <HAL_Init>
  /* USER CODE BEGIN Init */

  /* USER CODE END Init */

  /* Configure the system clock */
  SystemClock_Config();
 80005f8:	f000 f81e 	bl	8000638 <SystemClock_Config>
  /* USER CODE BEGIN SysInit */

  /* USER CODE END SysInit */

  /* Initialize all configured peripherals */
  MX_GPIO_Init();
 80005fc:	f7ff ff80 	bl	8000500 <MX_GPIO_Init>
  MX_DMA_Init();
 8000600:	f7ff ff5e 	bl	80004c0 <MX_DMA_Init>
  MX_TIM1_Init();
 8000604:	f000 f982 	bl	800090c <MX_TIM1_Init>
  MX_TIM2_Init();
 8000608:	f000 f9d0 	bl	80009ac <MX_TIM2_Init>
  /* USER CODE BEGIN 2 */

  UB_VGA_Screen_Init(); // Init VGA-Screen
 800060c:	f000 fb10 	bl	8000c30 <UB_VGA_Screen_Init>

  UB_VGA_FillScreen(VGA_COL_WHITE);
 8000610:	20ff      	movs	r0, #255	; 0xff
 8000612:	f000 fb5f 	bl	8000cd4 <UB_VGA_FillScreen>
  UB_VGA_SetPixel(10,10,10);
 8000616:	220a      	movs	r2, #10
 8000618:	210a      	movs	r1, #10
 800061a:	200a      	movs	r0, #10
 800061c:	f000 fb7e 	bl	8000d1c <UB_VGA_SetPixel>
  UB_VGA_SetPixel(0,0,10);
 8000620:	220a      	movs	r2, #10
 8000622:	2100      	movs	r1, #0
 8000624:	2000      	movs	r0, #0
 8000626:	f000 fb79 	bl	8000d1c <UB_VGA_SetPixel>
  UB_VGA_SetPixel(319,0,10);
 800062a:	220a      	movs	r2, #10
 800062c:	2100      	movs	r1, #0
 800062e:	f240 103f 	movw	r0, #319	; 0x13f
 8000632:	f000 fb73 	bl	8000d1c <UB_VGA_SetPixel>

  /* USER CODE END 2 */

  /* Infinite loop */
  /* USER CODE BEGIN WHILE */
  while (1)
 8000636:	e7fe      	b.n	8000636 <main+0x46>

08000638 <SystemClock_Config>:
/**
  * @brief System Clock Configuration
  * @retval None
  */
void SystemClock_Config(void)
{
 8000638:	b580      	push	{r7, lr}
 800063a:	b094      	sub	sp, #80	; 0x50
 800063c:	af00      	add	r7, sp, #0
  RCC_OscInitTypeDef RCC_OscInitStruct = {0};
 800063e:	f107 0320 	add.w	r3, r7, #32
 8000642:	2230      	movs	r2, #48	; 0x30
 8000644:	2100      	movs	r1, #0
 8000646:	4618      	mov	r0, r3
 8000648:	f002 fe36 	bl	80032b8 <memset>
  RCC_ClkInitTypeDef RCC_ClkInitStruct = {0};
 800064c:	f107 030c 	add.w	r3, r7, #12
 8000650:	2200      	movs	r2, #0
 8000652:	601a      	str	r2, [r3, #0]
 8000654:	605a      	str	r2, [r3, #4]
 8000656:	609a      	str	r2, [r3, #8]
 8000658:	60da      	str	r2, [r3, #12]
 800065a:	611a      	str	r2, [r3, #16]

  /** Configure the main internal regulator output voltage 
  */
  __HAL_RCC_PWR_CLK_ENABLE();
 800065c:	2300      	movs	r3, #0
 800065e:	60bb      	str	r3, [r7, #8]
 8000660:	4b28      	ldr	r3, [pc, #160]	; (8000704 <SystemClock_Config+0xcc>)
 8000662:	6c1b      	ldr	r3, [r3, #64]	; 0x40
 8000664:	4a27      	ldr	r2, [pc, #156]	; (8000704 <SystemClock_Config+0xcc>)
 8000666:	f043 5380 	orr.w	r3, r3, #268435456	; 0x10000000
 800066a:	6413      	str	r3, [r2, #64]	; 0x40
 800066c:	4b25      	ldr	r3, [pc, #148]	; (8000704 <SystemClock_Config+0xcc>)
 800066e:	6c1b      	ldr	r3, [r3, #64]	; 0x40
 8000670:	f003 5380 	and.w	r3, r3, #268435456	; 0x10000000
 8000674:	60bb      	str	r3, [r7, #8]
 8000676:	68bb      	ldr	r3, [r7, #8]
  __HAL_PWR_VOLTAGESCALING_CONFIG(PWR_REGULATOR_VOLTAGE_SCALE1);
 8000678:	2300      	movs	r3, #0
 800067a:	607b      	str	r3, [r7, #4]
 800067c:	4b22      	ldr	r3, [pc, #136]	; (8000708 <SystemClock_Config+0xd0>)
 800067e:	681b      	ldr	r3, [r3, #0]
 8000680:	4a21      	ldr	r2, [pc, #132]	; (8000708 <SystemClock_Config+0xd0>)
 8000682:	f443 4380 	orr.w	r3, r3, #16384	; 0x4000
 8000686:	6013      	str	r3, [r2, #0]
 8000688:	4b1f      	ldr	r3, [pc, #124]	; (8000708 <SystemClock_Config+0xd0>)
 800068a:	681b      	ldr	r3, [r3, #0]
 800068c:	f403 4380 	and.w	r3, r3, #16384	; 0x4000
 8000690:	607b      	str	r3, [r7, #4]
 8000692:	687b      	ldr	r3, [r7, #4]
  /** Initializes the CPU, AHB and APB busses clocks 
  */
  RCC_OscInitStruct.OscillatorType = RCC_OSCILLATORTYPE_HSE;
 8000694:	2301      	movs	r3, #1
 8000696:	623b      	str	r3, [r7, #32]
  RCC_OscInitStruct.HSEState = RCC_HSE_ON;
 8000698:	f44f 3380 	mov.w	r3, #65536	; 0x10000
 800069c:	627b      	str	r3, [r7, #36]	; 0x24
  RCC_OscInitStruct.PLL.PLLState = RCC_PLL_ON;
 800069e:	2302      	movs	r3, #2
 80006a0:	63bb      	str	r3, [r7, #56]	; 0x38
  RCC_OscInitStruct.PLL.PLLSource = RCC_PLLSOURCE_HSE;
 80006a2:	f44f 0380 	mov.w	r3, #4194304	; 0x400000
 80006a6:	63fb      	str	r3, [r7, #60]	; 0x3c
  RCC_OscInitStruct.PLL.PLLM = 4;
 80006a8:	2304      	movs	r3, #4
 80006aa:	643b      	str	r3, [r7, #64]	; 0x40
  RCC_OscInitStruct.PLL.PLLN = 168;
 80006ac:	23a8      	movs	r3, #168	; 0xa8
 80006ae:	647b      	str	r3, [r7, #68]	; 0x44
  RCC_OscInitStruct.PLL.PLLP = RCC_PLLP_DIV2;
 80006b0:	2302      	movs	r3, #2
 80006b2:	64bb      	str	r3, [r7, #72]	; 0x48
  RCC_OscInitStruct.PLL.PLLQ = 4;
 80006b4:	2304      	movs	r3, #4
 80006b6:	64fb      	str	r3, [r7, #76]	; 0x4c
  if (HAL_RCC_OscConfig(&RCC_OscInitStruct) != HAL_OK)
 80006b8:	f107 0320 	add.w	r3, r7, #32
 80006bc:	4618      	mov	r0, r3
 80006be:	f001 f9ff 	bl	8001ac0 <HAL_RCC_OscConfig>
 80006c2:	4603      	mov	r3, r0
 80006c4:	2b00      	cmp	r3, #0
 80006c6:	d001      	beq.n	80006cc <SystemClock_Config+0x94>
  {
    Error_Handler();
 80006c8:	f000 f820 	bl	800070c <Error_Handler>
  }
  /** Initializes the CPU, AHB and APB busses clocks 
  */
  RCC_ClkInitStruct.ClockType = RCC_CLOCKTYPE_HCLK|RCC_CLOCKTYPE_SYSCLK
 80006cc:	230f      	movs	r3, #15
 80006ce:	60fb      	str	r3, [r7, #12]
                              |RCC_CLOCKTYPE_PCLK1|RCC_CLOCKTYPE_PCLK2;
  RCC_ClkInitStruct.SYSCLKSource = RCC_SYSCLKSOURCE_PLLCLK;
 80006d0:	2302      	movs	r3, #2
 80006d2:	613b      	str	r3, [r7, #16]
  RCC_ClkInitStruct.AHBCLKDivider = RCC_SYSCLK_DIV1;
 80006d4:	2300      	movs	r3, #0
 80006d6:	617b      	str	r3, [r7, #20]
  RCC_ClkInitStruct.APB1CLKDivider = RCC_HCLK_DIV4;
 80006d8:	f44f 53a0 	mov.w	r3, #5120	; 0x1400
 80006dc:	61bb      	str	r3, [r7, #24]
  RCC_ClkInitStruct.APB2CLKDivider = RCC_HCLK_DIV2;
 80006de:	f44f 5380 	mov.w	r3, #4096	; 0x1000
 80006e2:	61fb      	str	r3, [r7, #28]

  if (HAL_RCC_ClockConfig(&RCC_ClkInitStruct, FLASH_LATENCY_5) != HAL_OK)
 80006e4:	f107 030c 	add.w	r3, r7, #12
 80006e8:	2105      	movs	r1, #5
 80006ea:	4618      	mov	r0, r3
 80006ec:	f001 fc58 	bl	8001fa0 <HAL_RCC_ClockConfig>
 80006f0:	4603      	mov	r3, r0
 80006f2:	2b00      	cmp	r3, #0
 80006f4:	d001      	beq.n	80006fa <SystemClock_Config+0xc2>
  {
    Error_Handler();
 80006f6:	f000 f809 	bl	800070c <Error_Handler>
  }
}
 80006fa:	bf00      	nop
 80006fc:	3750      	adds	r7, #80	; 0x50
 80006fe:	46bd      	mov	sp, r7
 8000700:	bd80      	pop	{r7, pc}
 8000702:	bf00      	nop
 8000704:	40023800 	.word	0x40023800
 8000708:	40007000 	.word	0x40007000

0800070c <Error_Handler>:
/**
  * @brief  This function is executed in case of error occurrence.
  * @retval None
  */
void Error_Handler(void)
{
 800070c:	b480      	push	{r7}
 800070e:	af00      	add	r7, sp, #0
  /* USER CODE BEGIN Error_Handler_Debug */
  /* User can add his own implementation to report the HAL error return state */

  /* USER CODE END Error_Handler_Debug */
}
 8000710:	bf00      	nop
 8000712:	46bd      	mov	sp, r7
 8000714:	f85d 7b04 	ldr.w	r7, [sp], #4
 8000718:	4770      	bx	lr
	...

0800071c <HAL_MspInit>:
/* USER CODE END 0 */
/**
  * Initializes the Global MSP.
  */
void HAL_MspInit(void)
{
 800071c:	b480      	push	{r7}
 800071e:	b083      	sub	sp, #12
 8000720:	af00      	add	r7, sp, #0
  /* USER CODE BEGIN MspInit 0 */

  /* USER CODE END MspInit 0 */

  __HAL_RCC_SYSCFG_CLK_ENABLE();
 8000722:	2300      	movs	r3, #0
 8000724:	607b      	str	r3, [r7, #4]
 8000726:	4b10      	ldr	r3, [pc, #64]	; (8000768 <HAL_MspInit+0x4c>)
 8000728:	6c5b      	ldr	r3, [r3, #68]	; 0x44
 800072a:	4a0f      	ldr	r2, [pc, #60]	; (8000768 <HAL_MspInit+0x4c>)
 800072c:	f443 4380 	orr.w	r3, r3, #16384	; 0x4000
 8000730:	6453      	str	r3, [r2, #68]	; 0x44
 8000732:	4b0d      	ldr	r3, [pc, #52]	; (8000768 <HAL_MspInit+0x4c>)
 8000734:	6c5b      	ldr	r3, [r3, #68]	; 0x44
 8000736:	f403 4380 	and.w	r3, r3, #16384	; 0x4000
 800073a:	607b      	str	r3, [r7, #4]
 800073c:	687b      	ldr	r3, [r7, #4]
  __HAL_RCC_PWR_CLK_ENABLE();
 800073e:	2300      	movs	r3, #0
 8000740:	603b      	str	r3, [r7, #0]
 8000742:	4b09      	ldr	r3, [pc, #36]	; (8000768 <HAL_MspInit+0x4c>)
 8000744:	6c1b      	ldr	r3, [r3, #64]	; 0x40
 8000746:	4a08      	ldr	r2, [pc, #32]	; (8000768 <HAL_MspInit+0x4c>)
 8000748:	f043 5380 	orr.w	r3, r3, #268435456	; 0x10000000
 800074c:	6413      	str	r3, [r2, #64]	; 0x40
 800074e:	4b06      	ldr	r3, [pc, #24]	; (8000768 <HAL_MspInit+0x4c>)
 8000750:	6c1b      	ldr	r3, [r3, #64]	; 0x40
 8000752:	f003 5380 	and.w	r3, r3, #268435456	; 0x10000000
 8000756:	603b      	str	r3, [r7, #0]
 8000758:	683b      	ldr	r3, [r7, #0]
  /* System interrupt init*/

  /* USER CODE BEGIN MspInit 1 */

  /* USER CODE END MspInit 1 */
}
 800075a:	bf00      	nop
 800075c:	370c      	adds	r7, #12
 800075e:	46bd      	mov	sp, r7
 8000760:	f85d 7b04 	ldr.w	r7, [sp], #4
 8000764:	4770      	bx	lr
 8000766:	bf00      	nop
 8000768:	40023800 	.word	0x40023800

0800076c <NMI_Handler>:
/******************************************************************************/
/**
  * @brief This function handles Non maskable interrupt.
  */
void NMI_Handler(void)
{
 800076c:	b480      	push	{r7}
 800076e:	af00      	add	r7, sp, #0

  /* USER CODE END NonMaskableInt_IRQn 0 */
  /* USER CODE BEGIN NonMaskableInt_IRQn 1 */

  /* USER CODE END NonMaskableInt_IRQn 1 */
}
 8000770:	bf00      	nop
 8000772:	46bd      	mov	sp, r7
 8000774:	f85d 7b04 	ldr.w	r7, [sp], #4
 8000778:	4770      	bx	lr

0800077a <HardFault_Handler>:

/**
  * @brief This function handles Hard fault interrupt.
  */
void HardFault_Handler(void)
{
 800077a:	b480      	push	{r7}
 800077c:	af00      	add	r7, sp, #0
  /* USER CODE BEGIN HardFault_IRQn 0 */

  /* USER CODE END HardFault_IRQn 0 */
  while (1)
 800077e:	e7fe      	b.n	800077e <HardFault_Handler+0x4>

08000780 <MemManage_Handler>:

/**
  * @brief This function handles Memory management fault.
  */
void MemManage_Handler(void)
{
 8000780:	b480      	push	{r7}
 8000782:	af00      	add	r7, sp, #0
  /* USER CODE BEGIN MemoryManagement_IRQn 0 */

  /* USER CODE END MemoryManagement_IRQn 0 */
  while (1)
 8000784:	e7fe      	b.n	8000784 <MemManage_Handler+0x4>

08000786 <BusFault_Handler>:

/**
  * @brief This function handles Pre-fetch fault, memory access fault.
  */
void BusFault_Handler(void)
{
 8000786:	b480      	push	{r7}
 8000788:	af00      	add	r7, sp, #0
  /* USER CODE BEGIN BusFault_IRQn 0 */

  /* USER CODE END BusFault_IRQn 0 */
  while (1)
 800078a:	e7fe      	b.n	800078a <BusFault_Handler+0x4>

0800078c <UsageFault_Handler>:

/**
  * @brief This function handles Undefined instruction or illegal state.
  */
void UsageFault_Handler(void)
{
 800078c:	b480      	push	{r7}
 800078e:	af00      	add	r7, sp, #0
  /* USER CODE BEGIN UsageFault_IRQn 0 */

  /* USER CODE END UsageFault_IRQn 0 */
  while (1)
 8000790:	e7fe      	b.n	8000790 <UsageFault_Handler+0x4>

08000792 <SVC_Handler>:

/**
  * @brief This function handles System service call via SWI instruction.
  */
void SVC_Handler(void)
{
 8000792:	b480      	push	{r7}
 8000794:	af00      	add	r7, sp, #0

  /* USER CODE END SVCall_IRQn 0 */
  /* USER CODE BEGIN SVCall_IRQn 1 */

  /* USER CODE END SVCall_IRQn 1 */
}
 8000796:	bf00      	nop
 8000798:	46bd      	mov	sp, r7
 800079a:	f85d 7b04 	ldr.w	r7, [sp], #4
 800079e:	4770      	bx	lr

080007a0 <DebugMon_Handler>:

/**
  * @brief This function handles Debug monitor.
  */
void DebugMon_Handler(void)
{
 80007a0:	b480      	push	{r7}
 80007a2:	af00      	add	r7, sp, #0

  /* USER CODE END DebugMonitor_IRQn 0 */
  /* USER CODE BEGIN DebugMonitor_IRQn 1 */

  /* USER CODE END DebugMonitor_IRQn 1 */
}
 80007a4:	bf00      	nop
 80007a6:	46bd      	mov	sp, r7
 80007a8:	f85d 7b04 	ldr.w	r7, [sp], #4
 80007ac:	4770      	bx	lr

080007ae <PendSV_Handler>:

/**
  * @brief This function handles Pendable request for system service.
  */
void PendSV_Handler(void)
{
 80007ae:	b480      	push	{r7}
 80007b0:	af00      	add	r7, sp, #0

  /* USER CODE END PendSV_IRQn 0 */
  /* USER CODE BEGIN PendSV_IRQn 1 */

  /* USER CODE END PendSV_IRQn 1 */
}
 80007b2:	bf00      	nop
 80007b4:	46bd      	mov	sp, r7
 80007b6:	f85d 7b04 	ldr.w	r7, [sp], #4
 80007ba:	4770      	bx	lr

080007bc <SysTick_Handler>:

/**
  * @brief This function handles System tick timer.
  */
void SysTick_Handler(void)
{
 80007bc:	b580      	push	{r7, lr}
 80007be:	af00      	add	r7, sp, #0
  /* USER CODE BEGIN SysTick_IRQn 0 */

  /* USER CODE END SysTick_IRQn 0 */
  HAL_IncTick();
 80007c0:	f000 fb26 	bl	8000e10 <HAL_IncTick>
  /* USER CODE BEGIN SysTick_IRQn 1 */

  /* USER CODE END SysTick_IRQn 1 */
}
 80007c4:	bf00      	nop
 80007c6:	bd80      	pop	{r7, pc}

080007c8 <TIM2_IRQHandler>:

/**
  * @brief This function handles TIM2 global interrupt.
  */
void TIM2_IRQHandler(void)
{
 80007c8:	b580      	push	{r7, lr}
 80007ca:	af00      	add	r7, sp, #0
  /* USER CODE BEGIN TIM2_IRQn 0 */

  /* USER CODE END TIM2_IRQn 0 */
  HAL_TIM_IRQHandler(&htim2);
 80007cc:	4828      	ldr	r0, [pc, #160]	; (8000870 <TIM2_IRQHandler+0xa8>)
 80007ce:	f001 feeb 	bl	80025a8 <HAL_TIM_IRQHandler>
  /* USER CODE BEGIN TIM2_IRQn 1 */
  __HAL_TIM_CLEAR_IT(&htim2, TIM_IT_CC3); // uncomment HAL_TIM_IRQHandler(&htim2); ^^
 80007d2:	4b27      	ldr	r3, [pc, #156]	; (8000870 <TIM2_IRQHandler+0xa8>)
 80007d4:	681b      	ldr	r3, [r3, #0]
 80007d6:	f06f 0208 	mvn.w	r2, #8
 80007da:	611a      	str	r2, [r3, #16]

  VGA.hsync_cnt++;
 80007dc:	4b25      	ldr	r3, [pc, #148]	; (8000874 <TIM2_IRQHandler+0xac>)
 80007de:	881b      	ldrh	r3, [r3, #0]
 80007e0:	3301      	adds	r3, #1
 80007e2:	b29a      	uxth	r2, r3
 80007e4:	4b23      	ldr	r3, [pc, #140]	; (8000874 <TIM2_IRQHandler+0xac>)
 80007e6:	801a      	strh	r2, [r3, #0]
  if (VGA.hsync_cnt >= VGA_VSYNC_PERIODE)
 80007e8:	4b22      	ldr	r3, [pc, #136]	; (8000874 <TIM2_IRQHandler+0xac>)
 80007ea:	881b      	ldrh	r3, [r3, #0]
 80007ec:	f5b3 7f03 	cmp.w	r3, #524	; 0x20c
 80007f0:	d905      	bls.n	80007fe <TIM2_IRQHandler+0x36>
  {
    // -----------
    VGA.hsync_cnt = 0;
 80007f2:	4b20      	ldr	r3, [pc, #128]	; (8000874 <TIM2_IRQHandler+0xac>)
 80007f4:	2200      	movs	r2, #0
 80007f6:	801a      	strh	r2, [r3, #0]
    // Adresspointer first dot
    VGA.start_adr = (uint32_t)(&VGA_RAM1[0]);
 80007f8:	4a1f      	ldr	r2, [pc, #124]	; (8000878 <TIM2_IRQHandler+0xb0>)
 80007fa:	4b1e      	ldr	r3, [pc, #120]	; (8000874 <TIM2_IRQHandler+0xac>)
 80007fc:	605a      	str	r2, [r3, #4]
  }

  // HSync-Pixel
  GPIOB->BSRR = (VGA.hsync_cnt < VGA_VSYNC_IMP) ? VGA_VSYNC_Pin << 16u: VGA_VSYNC_Pin;
 80007fe:	4b1d      	ldr	r3, [pc, #116]	; (8000874 <TIM2_IRQHandler+0xac>)
 8000800:	881b      	ldrh	r3, [r3, #0]
 8000802:	2b01      	cmp	r3, #1
 8000804:	d802      	bhi.n	800080c <TIM2_IRQHandler+0x44>
 8000806:	f04f 5380 	mov.w	r3, #268435456	; 0x10000000
 800080a:	e001      	b.n	8000810 <TIM2_IRQHandler+0x48>
 800080c:	f44f 5380 	mov.w	r3, #4096	; 0x1000
 8000810:	4a1a      	ldr	r2, [pc, #104]	; (800087c <TIM2_IRQHandler+0xb4>)
 8000812:	6193      	str	r3, [r2, #24]

  // Test for DMA start
  if((VGA.hsync_cnt >= VGA_VSYNC_BILD_START) && (VGA.hsync_cnt <= VGA_VSYNC_BILD_STOP))
 8000814:	4b17      	ldr	r3, [pc, #92]	; (8000874 <TIM2_IRQHandler+0xac>)
 8000816:	881b      	ldrh	r3, [r3, #0]
 8000818:	2b23      	cmp	r3, #35	; 0x23
 800081a:	d927      	bls.n	800086c <TIM2_IRQHandler+0xa4>
 800081c:	4b15      	ldr	r3, [pc, #84]	; (8000874 <TIM2_IRQHandler+0xac>)
 800081e:	881b      	ldrh	r3, [r3, #0]
 8000820:	f240 2202 	movw	r2, #514	; 0x202
 8000824:	4293      	cmp	r3, r2
 8000826:	d821      	bhi.n	800086c <TIM2_IRQHandler+0xa4>
  {
    // after FP start => DMA Transfer

    // DMA2 init
	  DMA2_Stream5->CR = VGA.dma2_cr_reg;
 8000828:	4a15      	ldr	r2, [pc, #84]	; (8000880 <TIM2_IRQHandler+0xb8>)
 800082a:	4b12      	ldr	r3, [pc, #72]	; (8000874 <TIM2_IRQHandler+0xac>)
 800082c:	689b      	ldr	r3, [r3, #8]
 800082e:	6013      	str	r3, [r2, #0]
    // set adress
    DMA2_Stream5->M0AR = VGA.start_adr;
 8000830:	4a13      	ldr	r2, [pc, #76]	; (8000880 <TIM2_IRQHandler+0xb8>)
 8000832:	4b10      	ldr	r3, [pc, #64]	; (8000874 <TIM2_IRQHandler+0xac>)
 8000834:	685b      	ldr	r3, [r3, #4]
 8000836:	60d3      	str	r3, [r2, #12]
    // Timer1 start
    TIM1->CR1 |= TIM_CR1_CEN; // __HAL_TIM_ENABLE(&htim1); // too slow?
 8000838:	4b12      	ldr	r3, [pc, #72]	; (8000884 <TIM2_IRQHandler+0xbc>)
 800083a:	681b      	ldr	r3, [r3, #0]
 800083c:	4a11      	ldr	r2, [pc, #68]	; (8000884 <TIM2_IRQHandler+0xbc>)
 800083e:	f043 0301 	orr.w	r3, r3, #1
 8000842:	6013      	str	r3, [r2, #0]
    // DMA2 enable
    __HAL_DMA_ENABLE(&hdma_tim1_up);
 8000844:	4b10      	ldr	r3, [pc, #64]	; (8000888 <TIM2_IRQHandler+0xc0>)
 8000846:	681b      	ldr	r3, [r3, #0]
 8000848:	681a      	ldr	r2, [r3, #0]
 800084a:	4b0f      	ldr	r3, [pc, #60]	; (8000888 <TIM2_IRQHandler+0xc0>)
 800084c:	681b      	ldr	r3, [r3, #0]
 800084e:	f042 0201 	orr.w	r2, r2, #1
 8000852:	601a      	str	r2, [r3, #0]
    // Test Adrespointer for high
    if(VGA.hsync_cnt & 0x01)
 8000854:	4b07      	ldr	r3, [pc, #28]	; (8000874 <TIM2_IRQHandler+0xac>)
 8000856:	881b      	ldrh	r3, [r3, #0]
 8000858:	f003 0301 	and.w	r3, r3, #1
 800085c:	2b00      	cmp	r3, #0
 800085e:	d005      	beq.n	800086c <TIM2_IRQHandler+0xa4>
      VGA.start_adr += (VGA_DISPLAY_X + 1); // inc after Hsync
 8000860:	4b04      	ldr	r3, [pc, #16]	; (8000874 <TIM2_IRQHandler+0xac>)
 8000862:	685b      	ldr	r3, [r3, #4]
 8000864:	f203 1341 	addw	r3, r3, #321	; 0x141
 8000868:	4a02      	ldr	r2, [pc, #8]	; (8000874 <TIM2_IRQHandler+0xac>)
 800086a:	6053      	str	r3, [r2, #4]
  }
  /* USER CODE END TIM2_IRQn 1 */
}
 800086c:	bf00      	nop
 800086e:	bd80      	pop	{r7, pc}
 8000870:	20012dc4 	.word	0x20012dc4
 8000874:	20000028 	.word	0x20000028
 8000878:	20000034 	.word	0x20000034
 800087c:	40020400 	.word	0x40020400
 8000880:	40026488 	.word	0x40026488
 8000884:	40010000 	.word	0x40010000
 8000888:	20012d64 	.word	0x20012d64

0800088c <DMA2_Stream5_IRQHandler>:

/**
  * @brief This function handles DMA2 stream5 global interrupt.
  */
void DMA2_Stream5_IRQHandler(void)
{
 800088c:	b580      	push	{r7, lr}
 800088e:	af00      	add	r7, sp, #0
  /* USER CODE BEGIN DMA2_Stream5_IRQn 0 */

  // if (__HAL_DMA_GET_IT_SOURCE(&hdma_tim1_up, DMA_IT_TC)) // not needed?
  // {
    // Timer1 stop
    __HAL_TIM_DISABLE(&htim1);
 8000890:	4b10      	ldr	r3, [pc, #64]	; (80008d4 <DMA2_Stream5_IRQHandler+0x48>)
 8000892:	681b      	ldr	r3, [r3, #0]
 8000894:	6a1a      	ldr	r2, [r3, #32]
 8000896:	f241 1311 	movw	r3, #4369	; 0x1111
 800089a:	4013      	ands	r3, r2
 800089c:	2b00      	cmp	r3, #0
 800089e:	d10f      	bne.n	80008c0 <DMA2_Stream5_IRQHandler+0x34>
 80008a0:	4b0c      	ldr	r3, [pc, #48]	; (80008d4 <DMA2_Stream5_IRQHandler+0x48>)
 80008a2:	681b      	ldr	r3, [r3, #0]
 80008a4:	6a1a      	ldr	r2, [r3, #32]
 80008a6:	f240 4344 	movw	r3, #1092	; 0x444
 80008aa:	4013      	ands	r3, r2
 80008ac:	2b00      	cmp	r3, #0
 80008ae:	d107      	bne.n	80008c0 <DMA2_Stream5_IRQHandler+0x34>
 80008b0:	4b08      	ldr	r3, [pc, #32]	; (80008d4 <DMA2_Stream5_IRQHandler+0x48>)
 80008b2:	681b      	ldr	r3, [r3, #0]
 80008b4:	681a      	ldr	r2, [r3, #0]
 80008b6:	4b07      	ldr	r3, [pc, #28]	; (80008d4 <DMA2_Stream5_IRQHandler+0x48>)
 80008b8:	681b      	ldr	r3, [r3, #0]
 80008ba:	f022 0201 	bic.w	r2, r2, #1
 80008be:	601a      	str	r2, [r3, #0]
    // DMA2 disable
    // __HAL_DMA_DISABLE(&hdma_tim1_up); // not needed?
    // switch on black
    GPIOE->BSRR = VGA_GPIO_HINIBBLE << 16u;
 80008c0:	4b05      	ldr	r3, [pc, #20]	; (80008d8 <DMA2_Stream5_IRQHandler+0x4c>)
 80008c2:	f04f 427f 	mov.w	r2, #4278190080	; 0xff000000
 80008c6:	619a      	str	r2, [r3, #24]
  // }

  /* USER CODE END DMA2_Stream5_IRQn 0 */
  HAL_DMA_IRQHandler(&hdma_tim1_up);
 80008c8:	4804      	ldr	r0, [pc, #16]	; (80008dc <DMA2_Stream5_IRQHandler+0x50>)
 80008ca:	f000 fcd9 	bl	8001280 <HAL_DMA_IRQHandler>
  /* USER CODE BEGIN DMA2_Stream5_IRQn 1 */

  /* USER CODE END DMA2_Stream5_IRQn 1 */
}
 80008ce:	bf00      	nop
 80008d0:	bd80      	pop	{r7, pc}
 80008d2:	bf00      	nop
 80008d4:	20012d24 	.word	0x20012d24
 80008d8:	40021000 	.word	0x40021000
 80008dc:	20012d64 	.word	0x20012d64

080008e0 <SystemInit>:
  *         configuration.
  * @param  None
  * @retval None
  */
void SystemInit(void)
{
 80008e0:	b480      	push	{r7}
 80008e2:	af00      	add	r7, sp, #0
  /* FPU settings ------------------------------------------------------------*/
  #if (__FPU_PRESENT == 1) && (__FPU_USED == 1)
    SCB->CPACR |= ((3UL << 10*2)|(3UL << 11*2));  /* set CP10 and CP11 Full Access */
 80008e4:	4b08      	ldr	r3, [pc, #32]	; (8000908 <SystemInit+0x28>)
 80008e6:	f8d3 3088 	ldr.w	r3, [r3, #136]	; 0x88
 80008ea:	4a07      	ldr	r2, [pc, #28]	; (8000908 <SystemInit+0x28>)
 80008ec:	f443 0370 	orr.w	r3, r3, #15728640	; 0xf00000
 80008f0:	f8c2 3088 	str.w	r3, [r2, #136]	; 0x88

  /* Configure the Vector Table location add offset address ------------------*/
#ifdef VECT_TAB_SRAM
  SCB->VTOR = SRAM_BASE | VECT_TAB_OFFSET; /* Vector Table Relocation in Internal SRAM */
#else
  SCB->VTOR = FLASH_BASE | VECT_TAB_OFFSET; /* Vector Table Relocation in Internal FLASH */
 80008f4:	4b04      	ldr	r3, [pc, #16]	; (8000908 <SystemInit+0x28>)
 80008f6:	f04f 6200 	mov.w	r2, #134217728	; 0x8000000
 80008fa:	609a      	str	r2, [r3, #8]
#endif
}
 80008fc:	bf00      	nop
 80008fe:	46bd      	mov	sp, r7
 8000900:	f85d 7b04 	ldr.w	r7, [sp], #4
 8000904:	4770      	bx	lr
 8000906:	bf00      	nop
 8000908:	e000ed00 	.word	0xe000ed00

0800090c <MX_TIM1_Init>:
TIM_HandleTypeDef htim2;
DMA_HandleTypeDef hdma_tim1_up;

/* TIM1 init function */
void MX_TIM1_Init(void)
{
 800090c:	b580      	push	{r7, lr}
 800090e:	b086      	sub	sp, #24
 8000910:	af00      	add	r7, sp, #0
  TIM_ClockConfigTypeDef sClockSourceConfig = {0};
 8000912:	f107 0308 	add.w	r3, r7, #8
 8000916:	2200      	movs	r2, #0
 8000918:	601a      	str	r2, [r3, #0]
 800091a:	605a      	str	r2, [r3, #4]
 800091c:	609a      	str	r2, [r3, #8]
 800091e:	60da      	str	r2, [r3, #12]
  TIM_MasterConfigTypeDef sMasterConfig = {0};
 8000920:	463b      	mov	r3, r7
 8000922:	2200      	movs	r2, #0
 8000924:	601a      	str	r2, [r3, #0]
 8000926:	605a      	str	r2, [r3, #4]

  htim1.Instance = TIM1;
 8000928:	4b1e      	ldr	r3, [pc, #120]	; (80009a4 <MX_TIM1_Init+0x98>)
 800092a:	4a1f      	ldr	r2, [pc, #124]	; (80009a8 <MX_TIM1_Init+0x9c>)
 800092c:	601a      	str	r2, [r3, #0]
  htim1.Init.Prescaler = VGA_TIM1_PRESCALE;
 800092e:	4b1d      	ldr	r3, [pc, #116]	; (80009a4 <MX_TIM1_Init+0x98>)
 8000930:	2200      	movs	r2, #0
 8000932:	605a      	str	r2, [r3, #4]
  htim1.Init.CounterMode = TIM_COUNTERMODE_UP;
 8000934:	4b1b      	ldr	r3, [pc, #108]	; (80009a4 <MX_TIM1_Init+0x98>)
 8000936:	2200      	movs	r2, #0
 8000938:	609a      	str	r2, [r3, #8]
  htim1.Init.Period = VGA_TIM1_PERIODE;
 800093a:	4b1a      	ldr	r3, [pc, #104]	; (80009a4 <MX_TIM1_Init+0x98>)
 800093c:	220b      	movs	r2, #11
 800093e:	60da      	str	r2, [r3, #12]
  htim1.Init.ClockDivision = TIM_CLOCKDIVISION_DIV1;
 8000940:	4b18      	ldr	r3, [pc, #96]	; (80009a4 <MX_TIM1_Init+0x98>)
 8000942:	2200      	movs	r2, #0
 8000944:	611a      	str	r2, [r3, #16]
  htim1.Init.RepetitionCounter = 0;
 8000946:	4b17      	ldr	r3, [pc, #92]	; (80009a4 <MX_TIM1_Init+0x98>)
 8000948:	2200      	movs	r2, #0
 800094a:	615a      	str	r2, [r3, #20]
  htim1.Init.AutoReloadPreload = TIM_AUTORELOAD_PRELOAD_DISABLE;
 800094c:	4b15      	ldr	r3, [pc, #84]	; (80009a4 <MX_TIM1_Init+0x98>)
 800094e:	2200      	movs	r2, #0
 8000950:	619a      	str	r2, [r3, #24]
  if (HAL_TIM_Base_Init(&htim1) != HAL_OK)
 8000952:	4814      	ldr	r0, [pc, #80]	; (80009a4 <MX_TIM1_Init+0x98>)
 8000954:	f001 fcec 	bl	8002330 <HAL_TIM_Base_Init>
 8000958:	4603      	mov	r3, r0
 800095a:	2b00      	cmp	r3, #0
 800095c:	d001      	beq.n	8000962 <MX_TIM1_Init+0x56>
  {
    Error_Handler();
 800095e:	f7ff fed5 	bl	800070c <Error_Handler>
  }
  sClockSourceConfig.ClockSource = TIM_CLOCKSOURCE_INTERNAL;
 8000962:	f44f 5380 	mov.w	r3, #4096	; 0x1000
 8000966:	60bb      	str	r3, [r7, #8]
  if (HAL_TIM_ConfigClockSource(&htim1, &sClockSourceConfig) != HAL_OK)
 8000968:	f107 0308 	add.w	r3, r7, #8
 800096c:	4619      	mov	r1, r3
 800096e:	480d      	ldr	r0, [pc, #52]	; (80009a4 <MX_TIM1_Init+0x98>)
 8000970:	f001 ffe8 	bl	8002944 <HAL_TIM_ConfigClockSource>
 8000974:	4603      	mov	r3, r0
 8000976:	2b00      	cmp	r3, #0
 8000978:	d001      	beq.n	800097e <MX_TIM1_Init+0x72>
  {
    Error_Handler();
 800097a:	f7ff fec7 	bl	800070c <Error_Handler>
  }
  sMasterConfig.MasterOutputTrigger = TIM_TRGO_RESET;
 800097e:	2300      	movs	r3, #0
 8000980:	603b      	str	r3, [r7, #0]
  sMasterConfig.MasterSlaveMode = TIM_MASTERSLAVEMODE_DISABLE;
 8000982:	2300      	movs	r3, #0
 8000984:	607b      	str	r3, [r7, #4]
  if (HAL_TIMEx_MasterConfigSynchronization(&htim1, &sMasterConfig) != HAL_OK)
 8000986:	463b      	mov	r3, r7
 8000988:	4619      	mov	r1, r3
 800098a:	4806      	ldr	r0, [pc, #24]	; (80009a4 <MX_TIM1_Init+0x98>)
 800098c:	f002 fbe0 	bl	8003150 <HAL_TIMEx_MasterConfigSynchronization>
 8000990:	4603      	mov	r3, r0
 8000992:	2b00      	cmp	r3, #0
 8000994:	d001      	beq.n	800099a <MX_TIM1_Init+0x8e>
  {
    Error_Handler();
 8000996:	f7ff feb9 	bl	800070c <Error_Handler>
  }

}
 800099a:	bf00      	nop
 800099c:	3718      	adds	r7, #24
 800099e:	46bd      	mov	sp, r7
 80009a0:	bd80      	pop	{r7, pc}
 80009a2:	bf00      	nop
 80009a4:	20012d24 	.word	0x20012d24
 80009a8:	40010000 	.word	0x40010000

080009ac <MX_TIM2_Init>:
/* TIM2 init function */
void MX_TIM2_Init(void)
{
 80009ac:	b580      	push	{r7, lr}
 80009ae:	b08a      	sub	sp, #40	; 0x28
 80009b0:	af00      	add	r7, sp, #0
  TIM_MasterConfigTypeDef sMasterConfig = {0};
 80009b2:	f107 0320 	add.w	r3, r7, #32
 80009b6:	2200      	movs	r2, #0
 80009b8:	601a      	str	r2, [r3, #0]
 80009ba:	605a      	str	r2, [r3, #4]
  TIM_OC_InitTypeDef sConfigOC = {0};
 80009bc:	1d3b      	adds	r3, r7, #4
 80009be:	2200      	movs	r2, #0
 80009c0:	601a      	str	r2, [r3, #0]
 80009c2:	605a      	str	r2, [r3, #4]
 80009c4:	609a      	str	r2, [r3, #8]
 80009c6:	60da      	str	r2, [r3, #12]
 80009c8:	611a      	str	r2, [r3, #16]
 80009ca:	615a      	str	r2, [r3, #20]
 80009cc:	619a      	str	r2, [r3, #24]

  htim2.Instance = TIM2;
 80009ce:	4b2a      	ldr	r3, [pc, #168]	; (8000a78 <MX_TIM2_Init+0xcc>)
 80009d0:	f04f 4280 	mov.w	r2, #1073741824	; 0x40000000
 80009d4:	601a      	str	r2, [r3, #0]
  htim2.Init.Prescaler = VGA_TIM2_HSYNC_PRESCALE;
 80009d6:	4b28      	ldr	r3, [pc, #160]	; (8000a78 <MX_TIM2_Init+0xcc>)
 80009d8:	2200      	movs	r2, #0
 80009da:	605a      	str	r2, [r3, #4]
  htim2.Init.CounterMode = TIM_COUNTERMODE_UP;
 80009dc:	4b26      	ldr	r3, [pc, #152]	; (8000a78 <MX_TIM2_Init+0xcc>)
 80009de:	2200      	movs	r2, #0
 80009e0:	609a      	str	r2, [r3, #8]
  htim2.Init.Period = VGA_TIM2_HSYNC_PERIODE;
 80009e2:	4b25      	ldr	r3, [pc, #148]	; (8000a78 <MX_TIM2_Init+0xcc>)
 80009e4:	f640 226b 	movw	r2, #2667	; 0xa6b
 80009e8:	60da      	str	r2, [r3, #12]
  htim2.Init.ClockDivision = TIM_CLOCKDIVISION_DIV1;
 80009ea:	4b23      	ldr	r3, [pc, #140]	; (8000a78 <MX_TIM2_Init+0xcc>)
 80009ec:	2200      	movs	r2, #0
 80009ee:	611a      	str	r2, [r3, #16]
  htim2.Init.AutoReloadPreload = TIM_AUTORELOAD_PRELOAD_DISABLE;
 80009f0:	4b21      	ldr	r3, [pc, #132]	; (8000a78 <MX_TIM2_Init+0xcc>)
 80009f2:	2200      	movs	r2, #0
 80009f4:	619a      	str	r2, [r3, #24]
  if (HAL_TIM_PWM_Init(&htim2) != HAL_OK)
 80009f6:	4820      	ldr	r0, [pc, #128]	; (8000a78 <MX_TIM2_Init+0xcc>)
 80009f8:	f001 fce9 	bl	80023ce <HAL_TIM_PWM_Init>
 80009fc:	4603      	mov	r3, r0
 80009fe:	2b00      	cmp	r3, #0
 8000a00:	d001      	beq.n	8000a06 <MX_TIM2_Init+0x5a>
  {
    Error_Handler();
 8000a02:	f7ff fe83 	bl	800070c <Error_Handler>
  }
  sMasterConfig.MasterOutputTrigger = TIM_TRGO_RESET;
 8000a06:	2300      	movs	r3, #0
 8000a08:	623b      	str	r3, [r7, #32]
  sMasterConfig.MasterSlaveMode = TIM_MASTERSLAVEMODE_DISABLE;
 8000a0a:	2300      	movs	r3, #0
 8000a0c:	627b      	str	r3, [r7, #36]	; 0x24
  if (HAL_TIMEx_MasterConfigSynchronization(&htim2, &sMasterConfig) != HAL_OK)
 8000a0e:	f107 0320 	add.w	r3, r7, #32
 8000a12:	4619      	mov	r1, r3
 8000a14:	4818      	ldr	r0, [pc, #96]	; (8000a78 <MX_TIM2_Init+0xcc>)
 8000a16:	f002 fb9b 	bl	8003150 <HAL_TIMEx_MasterConfigSynchronization>
 8000a1a:	4603      	mov	r3, r0
 8000a1c:	2b00      	cmp	r3, #0
 8000a1e:	d001      	beq.n	8000a24 <MX_TIM2_Init+0x78>
  {
    Error_Handler();
 8000a20:	f7ff fe74 	bl	800070c <Error_Handler>
  }
  sConfigOC.OCMode = TIM_OCMODE_PWM1;
 8000a24:	2360      	movs	r3, #96	; 0x60
 8000a26:	607b      	str	r3, [r7, #4]
  sConfigOC.Pulse = VGA_TIM2_HTRIGGER_START - VGA_TIM2_DMA_DELAY;
 8000a28:	f240 13bb 	movw	r3, #443	; 0x1bb
 8000a2c:	60bb      	str	r3, [r7, #8]
  sConfigOC.OCPolarity = TIM_OCPOLARITY_LOW;
 8000a2e:	2302      	movs	r3, #2
 8000a30:	60fb      	str	r3, [r7, #12]
  sConfigOC.OCFastMode = TIM_OCFAST_DISABLE;
 8000a32:	2300      	movs	r3, #0
 8000a34:	617b      	str	r3, [r7, #20]
  if (HAL_TIM_PWM_ConfigChannel(&htim2, &sConfigOC, TIM_CHANNEL_3) != HAL_OK)
 8000a36:	1d3b      	adds	r3, r7, #4
 8000a38:	2208      	movs	r2, #8
 8000a3a:	4619      	mov	r1, r3
 8000a3c:	480e      	ldr	r0, [pc, #56]	; (8000a78 <MX_TIM2_Init+0xcc>)
 8000a3e:	f001 febb 	bl	80027b8 <HAL_TIM_PWM_ConfigChannel>
 8000a42:	4603      	mov	r3, r0
 8000a44:	2b00      	cmp	r3, #0
 8000a46:	d001      	beq.n	8000a4c <MX_TIM2_Init+0xa0>
  {
    Error_Handler();
 8000a48:	f7ff fe60 	bl	800070c <Error_Handler>
  }
  sConfigOC.Pulse = VGA_TIM2_HSYNC_IMP;
 8000a4c:	f44f 73a0 	mov.w	r3, #320	; 0x140
 8000a50:	60bb      	str	r3, [r7, #8]
  if (HAL_TIM_PWM_ConfigChannel(&htim2, &sConfigOC, TIM_CHANNEL_4) != HAL_OK)
 8000a52:	1d3b      	adds	r3, r7, #4
 8000a54:	220c      	movs	r2, #12
 8000a56:	4619      	mov	r1, r3
 8000a58:	4807      	ldr	r0, [pc, #28]	; (8000a78 <MX_TIM2_Init+0xcc>)
 8000a5a:	f001 fead 	bl	80027b8 <HAL_TIM_PWM_ConfigChannel>
 8000a5e:	4603      	mov	r3, r0
 8000a60:	2b00      	cmp	r3, #0
 8000a62:	d001      	beq.n	8000a68 <MX_TIM2_Init+0xbc>
  {
    Error_Handler();
 8000a64:	f7ff fe52 	bl	800070c <Error_Handler>
  }
  HAL_TIM_MspPostInit(&htim2);
 8000a68:	4803      	ldr	r0, [pc, #12]	; (8000a78 <MX_TIM2_Init+0xcc>)
 8000a6a:	f000 f87f 	bl	8000b6c <HAL_TIM_MspPostInit>

}
 8000a6e:	bf00      	nop
 8000a70:	3728      	adds	r7, #40	; 0x28
 8000a72:	46bd      	mov	sp, r7
 8000a74:	bd80      	pop	{r7, pc}
 8000a76:	bf00      	nop
 8000a78:	20012dc4 	.word	0x20012dc4

08000a7c <HAL_TIM_Base_MspInit>:

void HAL_TIM_Base_MspInit(TIM_HandleTypeDef* tim_baseHandle)
{
 8000a7c:	b580      	push	{r7, lr}
 8000a7e:	b084      	sub	sp, #16
 8000a80:	af00      	add	r7, sp, #0
 8000a82:	6078      	str	r0, [r7, #4]

  if(tim_baseHandle->Instance==TIM1)
 8000a84:	687b      	ldr	r3, [r7, #4]
 8000a86:	681b      	ldr	r3, [r3, #0]
 8000a88:	4a21      	ldr	r2, [pc, #132]	; (8000b10 <HAL_TIM_Base_MspInit+0x94>)
 8000a8a:	4293      	cmp	r3, r2
 8000a8c:	d13c      	bne.n	8000b08 <HAL_TIM_Base_MspInit+0x8c>
  {
  /* USER CODE BEGIN TIM1_MspInit 0 */

  /* USER CODE END TIM1_MspInit 0 */
    /* TIM1 clock enable */
    __HAL_RCC_TIM1_CLK_ENABLE();
 8000a8e:	2300      	movs	r3, #0
 8000a90:	60fb      	str	r3, [r7, #12]
 8000a92:	4b20      	ldr	r3, [pc, #128]	; (8000b14 <HAL_TIM_Base_MspInit+0x98>)
 8000a94:	6c5b      	ldr	r3, [r3, #68]	; 0x44
 8000a96:	4a1f      	ldr	r2, [pc, #124]	; (8000b14 <HAL_TIM_Base_MspInit+0x98>)
 8000a98:	f043 0301 	orr.w	r3, r3, #1
 8000a9c:	6453      	str	r3, [r2, #68]	; 0x44
 8000a9e:	4b1d      	ldr	r3, [pc, #116]	; (8000b14 <HAL_TIM_Base_MspInit+0x98>)
 8000aa0:	6c5b      	ldr	r3, [r3, #68]	; 0x44
 8000aa2:	f003 0301 	and.w	r3, r3, #1
 8000aa6:	60fb      	str	r3, [r7, #12]
 8000aa8:	68fb      	ldr	r3, [r7, #12]
  
    /* TIM1 DMA Init */
    /* TIM1_UP Init */
    hdma_tim1_up.Instance = DMA2_Stream5;
 8000aaa:	4b1b      	ldr	r3, [pc, #108]	; (8000b18 <HAL_TIM_Base_MspInit+0x9c>)
 8000aac:	4a1b      	ldr	r2, [pc, #108]	; (8000b1c <HAL_TIM_Base_MspInit+0xa0>)
 8000aae:	601a      	str	r2, [r3, #0]
    hdma_tim1_up.Init.Channel = DMA_CHANNEL_6;
 8000ab0:	4b19      	ldr	r3, [pc, #100]	; (8000b18 <HAL_TIM_Base_MspInit+0x9c>)
 8000ab2:	f04f 6240 	mov.w	r2, #201326592	; 0xc000000
 8000ab6:	605a      	str	r2, [r3, #4]
    hdma_tim1_up.Init.Direction = DMA_MEMORY_TO_PERIPH;
 8000ab8:	4b17      	ldr	r3, [pc, #92]	; (8000b18 <HAL_TIM_Base_MspInit+0x9c>)
 8000aba:	2240      	movs	r2, #64	; 0x40
 8000abc:	609a      	str	r2, [r3, #8]
    hdma_tim1_up.Init.PeriphInc = DMA_PINC_DISABLE;
 8000abe:	4b16      	ldr	r3, [pc, #88]	; (8000b18 <HAL_TIM_Base_MspInit+0x9c>)
 8000ac0:	2200      	movs	r2, #0
 8000ac2:	60da      	str	r2, [r3, #12]
    hdma_tim1_up.Init.MemInc = DMA_MINC_ENABLE;
 8000ac4:	4b14      	ldr	r3, [pc, #80]	; (8000b18 <HAL_TIM_Base_MspInit+0x9c>)
 8000ac6:	f44f 6280 	mov.w	r2, #1024	; 0x400
 8000aca:	611a      	str	r2, [r3, #16]
    hdma_tim1_up.Init.PeriphDataAlignment = DMA_PDATAALIGN_BYTE;
 8000acc:	4b12      	ldr	r3, [pc, #72]	; (8000b18 <HAL_TIM_Base_MspInit+0x9c>)
 8000ace:	2200      	movs	r2, #0
 8000ad0:	615a      	str	r2, [r3, #20]
    hdma_tim1_up.Init.MemDataAlignment = DMA_MDATAALIGN_BYTE;
 8000ad2:	4b11      	ldr	r3, [pc, #68]	; (8000b18 <HAL_TIM_Base_MspInit+0x9c>)
 8000ad4:	2200      	movs	r2, #0
 8000ad6:	619a      	str	r2, [r3, #24]
    hdma_tim1_up.Init.Mode = DMA_NORMAL;
 8000ad8:	4b0f      	ldr	r3, [pc, #60]	; (8000b18 <HAL_TIM_Base_MspInit+0x9c>)
 8000ada:	2200      	movs	r2, #0
 8000adc:	61da      	str	r2, [r3, #28]
    hdma_tim1_up.Init.Priority = DMA_PRIORITY_VERY_HIGH;
 8000ade:	4b0e      	ldr	r3, [pc, #56]	; (8000b18 <HAL_TIM_Base_MspInit+0x9c>)
 8000ae0:	f44f 3240 	mov.w	r2, #196608	; 0x30000
 8000ae4:	621a      	str	r2, [r3, #32]
    hdma_tim1_up.Init.FIFOMode = DMA_FIFOMODE_DISABLE;
 8000ae6:	4b0c      	ldr	r3, [pc, #48]	; (8000b18 <HAL_TIM_Base_MspInit+0x9c>)
 8000ae8:	2200      	movs	r2, #0
 8000aea:	625a      	str	r2, [r3, #36]	; 0x24
    if (HAL_DMA_Init(&hdma_tim1_up) != HAL_OK)
 8000aec:	480a      	ldr	r0, [pc, #40]	; (8000b18 <HAL_TIM_Base_MspInit+0x9c>)
 8000aee:	f000 fac1 	bl	8001074 <HAL_DMA_Init>
 8000af2:	4603      	mov	r3, r0
 8000af4:	2b00      	cmp	r3, #0
 8000af6:	d001      	beq.n	8000afc <HAL_TIM_Base_MspInit+0x80>
    {
      Error_Handler();
 8000af8:	f7ff fe08 	bl	800070c <Error_Handler>
    }

    __HAL_LINKDMA(tim_baseHandle,hdma[TIM_DMA_ID_UPDATE],hdma_tim1_up);
 8000afc:	687b      	ldr	r3, [r7, #4]
 8000afe:	4a06      	ldr	r2, [pc, #24]	; (8000b18 <HAL_TIM_Base_MspInit+0x9c>)
 8000b00:	621a      	str	r2, [r3, #32]
 8000b02:	4a05      	ldr	r2, [pc, #20]	; (8000b18 <HAL_TIM_Base_MspInit+0x9c>)
 8000b04:	687b      	ldr	r3, [r7, #4]
 8000b06:	6393      	str	r3, [r2, #56]	; 0x38

  /* USER CODE BEGIN TIM1_MspInit 1 */

  /* USER CODE END TIM1_MspInit 1 */
  }
}
 8000b08:	bf00      	nop
 8000b0a:	3710      	adds	r7, #16
 8000b0c:	46bd      	mov	sp, r7
 8000b0e:	bd80      	pop	{r7, pc}
 8000b10:	40010000 	.word	0x40010000
 8000b14:	40023800 	.word	0x40023800
 8000b18:	20012d64 	.word	0x20012d64
 8000b1c:	40026488 	.word	0x40026488

08000b20 <HAL_TIM_PWM_MspInit>:

void HAL_TIM_PWM_MspInit(TIM_HandleTypeDef* tim_pwmHandle)
{
 8000b20:	b580      	push	{r7, lr}
 8000b22:	b084      	sub	sp, #16
 8000b24:	af00      	add	r7, sp, #0
 8000b26:	6078      	str	r0, [r7, #4]

  if(tim_pwmHandle->Instance==TIM2)
 8000b28:	687b      	ldr	r3, [r7, #4]
 8000b2a:	681b      	ldr	r3, [r3, #0]
 8000b2c:	f1b3 4f80 	cmp.w	r3, #1073741824	; 0x40000000
 8000b30:	d115      	bne.n	8000b5e <HAL_TIM_PWM_MspInit+0x3e>
  {
  /* USER CODE BEGIN TIM2_MspInit 0 */

  /* USER CODE END TIM2_MspInit 0 */
    /* TIM2 clock enable */
    __HAL_RCC_TIM2_CLK_ENABLE();
 8000b32:	2300      	movs	r3, #0
 8000b34:	60fb      	str	r3, [r7, #12]
 8000b36:	4b0c      	ldr	r3, [pc, #48]	; (8000b68 <HAL_TIM_PWM_MspInit+0x48>)
 8000b38:	6c1b      	ldr	r3, [r3, #64]	; 0x40
 8000b3a:	4a0b      	ldr	r2, [pc, #44]	; (8000b68 <HAL_TIM_PWM_MspInit+0x48>)
 8000b3c:	f043 0301 	orr.w	r3, r3, #1
 8000b40:	6413      	str	r3, [r2, #64]	; 0x40
 8000b42:	4b09      	ldr	r3, [pc, #36]	; (8000b68 <HAL_TIM_PWM_MspInit+0x48>)
 8000b44:	6c1b      	ldr	r3, [r3, #64]	; 0x40
 8000b46:	f003 0301 	and.w	r3, r3, #1
 8000b4a:	60fb      	str	r3, [r7, #12]
 8000b4c:	68fb      	ldr	r3, [r7, #12]

    /* TIM2 interrupt Init */
    HAL_NVIC_SetPriority(TIM2_IRQn, 0, 0);
 8000b4e:	2200      	movs	r2, #0
 8000b50:	2100      	movs	r1, #0
 8000b52:	201c      	movs	r0, #28
 8000b54:	f000 fa57 	bl	8001006 <HAL_NVIC_SetPriority>
    HAL_NVIC_EnableIRQ(TIM2_IRQn);
 8000b58:	201c      	movs	r0, #28
 8000b5a:	f000 fa70 	bl	800103e <HAL_NVIC_EnableIRQ>
  /* USER CODE BEGIN TIM2_MspInit 1 */

  /* USER CODE END TIM2_MspInit 1 */
  }
}
 8000b5e:	bf00      	nop
 8000b60:	3710      	adds	r7, #16
 8000b62:	46bd      	mov	sp, r7
 8000b64:	bd80      	pop	{r7, pc}
 8000b66:	bf00      	nop
 8000b68:	40023800 	.word	0x40023800

08000b6c <HAL_TIM_MspPostInit>:
void HAL_TIM_MspPostInit(TIM_HandleTypeDef* timHandle)
{
 8000b6c:	b580      	push	{r7, lr}
 8000b6e:	b088      	sub	sp, #32
 8000b70:	af00      	add	r7, sp, #0
 8000b72:	6078      	str	r0, [r7, #4]

  GPIO_InitTypeDef GPIO_InitStruct = {0};
 8000b74:	f107 030c 	add.w	r3, r7, #12
 8000b78:	2200      	movs	r2, #0
 8000b7a:	601a      	str	r2, [r3, #0]
 8000b7c:	605a      	str	r2, [r3, #4]
 8000b7e:	609a      	str	r2, [r3, #8]
 8000b80:	60da      	str	r2, [r3, #12]
 8000b82:	611a      	str	r2, [r3, #16]
  if(timHandle->Instance==TIM2)
 8000b84:	687b      	ldr	r3, [r7, #4]
 8000b86:	681b      	ldr	r3, [r3, #0]
 8000b88:	f1b3 4f80 	cmp.w	r3, #1073741824	; 0x40000000
 8000b8c:	d11e      	bne.n	8000bcc <HAL_TIM_MspPostInit+0x60>
  {
  /* USER CODE BEGIN TIM2_MspPostInit 0 */

  /* USER CODE END TIM2_MspPostInit 0 */
  
    __HAL_RCC_GPIOB_CLK_ENABLE();
 8000b8e:	2300      	movs	r3, #0
 8000b90:	60bb      	str	r3, [r7, #8]
 8000b92:	4b10      	ldr	r3, [pc, #64]	; (8000bd4 <HAL_TIM_MspPostInit+0x68>)
 8000b94:	6b1b      	ldr	r3, [r3, #48]	; 0x30
 8000b96:	4a0f      	ldr	r2, [pc, #60]	; (8000bd4 <HAL_TIM_MspPostInit+0x68>)
 8000b98:	f043 0302 	orr.w	r3, r3, #2
 8000b9c:	6313      	str	r3, [r2, #48]	; 0x30
 8000b9e:	4b0d      	ldr	r3, [pc, #52]	; (8000bd4 <HAL_TIM_MspPostInit+0x68>)
 8000ba0:	6b1b      	ldr	r3, [r3, #48]	; 0x30
 8000ba2:	f003 0302 	and.w	r3, r3, #2
 8000ba6:	60bb      	str	r3, [r7, #8]
 8000ba8:	68bb      	ldr	r3, [r7, #8]
    /**TIM2 GPIO Configuration    
    PB11     ------> TIM2_CH4 
    */
    GPIO_InitStruct.Pin = VGA_HSYNC_Pin;
 8000baa:	f44f 6300 	mov.w	r3, #2048	; 0x800
 8000bae:	60fb      	str	r3, [r7, #12]
    GPIO_InitStruct.Mode = GPIO_MODE_AF_PP;
 8000bb0:	2302      	movs	r3, #2
 8000bb2:	613b      	str	r3, [r7, #16]
    GPIO_InitStruct.Pull = GPIO_NOPULL;
 8000bb4:	2300      	movs	r3, #0
 8000bb6:	617b      	str	r3, [r7, #20]
    GPIO_InitStruct.Speed = GPIO_SPEED_FREQ_VERY_HIGH;
 8000bb8:	2303      	movs	r3, #3
 8000bba:	61bb      	str	r3, [r7, #24]
    GPIO_InitStruct.Alternate = GPIO_AF1_TIM2;
 8000bbc:	2301      	movs	r3, #1
 8000bbe:	61fb      	str	r3, [r7, #28]
    HAL_GPIO_Init(VGA_HSYNC_GPIO_Port, &GPIO_InitStruct);
 8000bc0:	f107 030c 	add.w	r3, r7, #12
 8000bc4:	4619      	mov	r1, r3
 8000bc6:	4804      	ldr	r0, [pc, #16]	; (8000bd8 <HAL_TIM_MspPostInit+0x6c>)
 8000bc8:	f000 fdc4 	bl	8001754 <HAL_GPIO_Init>
  /* USER CODE BEGIN TIM2_MspPostInit 1 */

  /* USER CODE END TIM2_MspPostInit 1 */
  }

}
 8000bcc:	bf00      	nop
 8000bce:	3720      	adds	r7, #32
 8000bd0:	46bd      	mov	sp, r7
 8000bd2:	bd80      	pop	{r7, pc}
 8000bd4:	40023800 	.word	0x40023800
 8000bd8:	40020400 	.word	0x40020400

08000bdc <Reset_Handler>:

    .section  .text.Reset_Handler
  .weak  Reset_Handler
  .type  Reset_Handler, %function
Reset_Handler:  
  ldr   sp, =_estack     /* set stack pointer */
 8000bdc:	f8df d034 	ldr.w	sp, [pc, #52]	; 8000c14 <LoopFillZerobss+0x14>

/* Copy the data segment initializers from flash to SRAM */  
  movs  r1, #0
 8000be0:	2100      	movs	r1, #0
  b  LoopCopyDataInit
 8000be2:	e003      	b.n	8000bec <LoopCopyDataInit>

08000be4 <CopyDataInit>:

CopyDataInit:
  ldr  r3, =_sidata
 8000be4:	4b0c      	ldr	r3, [pc, #48]	; (8000c18 <LoopFillZerobss+0x18>)
  ldr  r3, [r3, r1]
 8000be6:	585b      	ldr	r3, [r3, r1]
  str  r3, [r0, r1]
 8000be8:	5043      	str	r3, [r0, r1]
  adds  r1, r1, #4
 8000bea:	3104      	adds	r1, #4

08000bec <LoopCopyDataInit>:
    
LoopCopyDataInit:
  ldr  r0, =_sdata
 8000bec:	480b      	ldr	r0, [pc, #44]	; (8000c1c <LoopFillZerobss+0x1c>)
  ldr  r3, =_edata
 8000bee:	4b0c      	ldr	r3, [pc, #48]	; (8000c20 <LoopFillZerobss+0x20>)
  adds  r2, r0, r1
 8000bf0:	1842      	adds	r2, r0, r1
  cmp  r2, r3
 8000bf2:	429a      	cmp	r2, r3
  bcc  CopyDataInit
 8000bf4:	d3f6      	bcc.n	8000be4 <CopyDataInit>
  ldr  r2, =_sbss
 8000bf6:	4a0b      	ldr	r2, [pc, #44]	; (8000c24 <LoopFillZerobss+0x24>)
  b  LoopFillZerobss
 8000bf8:	e002      	b.n	8000c00 <LoopFillZerobss>

08000bfa <FillZerobss>:
/* Zero fill the bss segment. */  
FillZerobss:
  movs  r3, #0
 8000bfa:	2300      	movs	r3, #0
  str  r3, [r2], #4
 8000bfc:	f842 3b04 	str.w	r3, [r2], #4

08000c00 <LoopFillZerobss>:
    
LoopFillZerobss:
  ldr  r3, = _ebss
 8000c00:	4b09      	ldr	r3, [pc, #36]	; (8000c28 <LoopFillZerobss+0x28>)
  cmp  r2, r3
 8000c02:	429a      	cmp	r2, r3
  bcc  FillZerobss
 8000c04:	d3f9      	bcc.n	8000bfa <FillZerobss>

/* Call the clock system intitialization function.*/
  bl  SystemInit   
 8000c06:	f7ff fe6b 	bl	80008e0 <SystemInit>
/* Call static constructors */
    bl __libc_init_array
 8000c0a:	f002 fb31 	bl	8003270 <__libc_init_array>
/* Call the application's entry point.*/
  bl  main
 8000c0e:	f7ff fcef 	bl	80005f0 <main>
  bx  lr    
 8000c12:	4770      	bx	lr
  ldr   sp, =_estack     /* set stack pointer */
 8000c14:	20020000 	.word	0x20020000
  ldr  r3, =_sidata
 8000c18:	08003308 	.word	0x08003308
  ldr  r0, =_sdata
 8000c1c:	20000000 	.word	0x20000000
  ldr  r3, =_edata
 8000c20:	2000000c 	.word	0x2000000c
  ldr  r2, =_sbss
 8000c24:	2000000c 	.word	0x2000000c
  ldr  r3, = _ebss
 8000c28:	20012e08 	.word	0x20012e08

08000c2c <ADC_IRQHandler>:
 * @retval None       
*/
    .section  .text.Default_Handler,"ax",%progbits
Default_Handler:
Infinite_Loop:
  b  Infinite_Loop
 8000c2c:	e7fe      	b.n	8000c2c <ADC_IRQHandler>
	...

08000c30 <UB_VGA_Screen_Init>:

//--------------------------------------------------------------
// Init VGA-Module
//--------------------------------------------------------------
void UB_VGA_Screen_Init(void)
{
 8000c30:	b580      	push	{r7, lr}
 8000c32:	af00      	add	r7, sp, #0
  VGA.hsync_cnt = 0;
 8000c34:	4b1f      	ldr	r3, [pc, #124]	; (8000cb4 <UB_VGA_Screen_Init+0x84>)
 8000c36:	2200      	movs	r2, #0
 8000c38:	801a      	strh	r2, [r3, #0]
  VGA.start_adr = 0;
 8000c3a:	4b1e      	ldr	r3, [pc, #120]	; (8000cb4 <UB_VGA_Screen_Init+0x84>)
 8000c3c:	2200      	movs	r2, #0
 8000c3e:	605a      	str	r2, [r3, #4]
  VGA.dma2_cr_reg = 0;
 8000c40:	4b1c      	ldr	r3, [pc, #112]	; (8000cb4 <UB_VGA_Screen_Init+0x84>)
 8000c42:	2200      	movs	r2, #0
 8000c44:	609a      	str	r2, [r3, #8]

  GPIOB->BSRR = VGA_VSYNC_Pin;
 8000c46:	4b1c      	ldr	r3, [pc, #112]	; (8000cb8 <UB_VGA_Screen_Init+0x88>)
 8000c48:	f44f 5280 	mov.w	r2, #4096	; 0x1000
 8000c4c:	619a      	str	r2, [r3, #24]

  // TIM2
  HAL_TIM_Base_Start(&htim2);
 8000c4e:	481b      	ldr	r0, [pc, #108]	; (8000cbc <UB_VGA_Screen_Init+0x8c>)
 8000c50:	f001 fb99 	bl	8002386 <HAL_TIM_Base_Start>
  HAL_TIM_PWM_Start(&htim2, TIM_CHANNEL_4);
 8000c54:	210c      	movs	r1, #12
 8000c56:	4819      	ldr	r0, [pc, #100]	; (8000cbc <UB_VGA_Screen_Init+0x8c>)
 8000c58:	f001 fbe4 	bl	8002424 <HAL_TIM_PWM_Start>
  HAL_TIM_PWM_Start_IT(&htim2, TIM_CHANNEL_3);
 8000c5c:	2108      	movs	r1, #8
 8000c5e:	4817      	ldr	r0, [pc, #92]	; (8000cbc <UB_VGA_Screen_Init+0x8c>)
 8000c60:	f001 fc1e 	bl	80024a0 <HAL_TIM_PWM_Start_IT>

  // TIM1
  __HAL_TIM_ENABLE_DMA(&htim1, TIM_DMA_UPDATE);
 8000c64:	4b16      	ldr	r3, [pc, #88]	; (8000cc0 <UB_VGA_Screen_Init+0x90>)
 8000c66:	681b      	ldr	r3, [r3, #0]
 8000c68:	68da      	ldr	r2, [r3, #12]
 8000c6a:	4b15      	ldr	r3, [pc, #84]	; (8000cc0 <UB_VGA_Screen_Init+0x90>)
 8000c6c:	681b      	ldr	r3, [r3, #0]
 8000c6e:	f442 7280 	orr.w	r2, r2, #256	; 0x100
 8000c72:	60da      	str	r2, [r3, #12]
  __HAL_TIM_ENABLE(&htim1);
 8000c74:	4b12      	ldr	r3, [pc, #72]	; (8000cc0 <UB_VGA_Screen_Init+0x90>)
 8000c76:	681b      	ldr	r3, [r3, #0]
 8000c78:	681a      	ldr	r2, [r3, #0]
 8000c7a:	4b11      	ldr	r3, [pc, #68]	; (8000cc0 <UB_VGA_Screen_Init+0x90>)
 8000c7c:	681b      	ldr	r3, [r3, #0]
 8000c7e:	f042 0201 	orr.w	r2, r2, #1
 8000c82:	601a      	str	r2, [r3, #0]
  HAL_DMA_Start_IT(&hdma_tim1_up, (uint32_t)&VGA_RAM1[0], VGA_GPIOE_ODR_ADDRESS, VGA_DISPLAY_X + 1);
 8000c84:	490f      	ldr	r1, [pc, #60]	; (8000cc4 <UB_VGA_Screen_Init+0x94>)
 8000c86:	f240 1341 	movw	r3, #321	; 0x141
 8000c8a:	4a0f      	ldr	r2, [pc, #60]	; (8000cc8 <UB_VGA_Screen_Init+0x98>)
 8000c8c:	480f      	ldr	r0, [pc, #60]	; (8000ccc <UB_VGA_Screen_Init+0x9c>)
 8000c8e:	f000 fa9f 	bl	80011d0 <HAL_DMA_Start_IT>

  HAL_DMA_Init(&hdma_tim1_up);
 8000c92:	480e      	ldr	r0, [pc, #56]	; (8000ccc <UB_VGA_Screen_Init+0x9c>)
 8000c94:	f000 f9ee 	bl	8001074 <HAL_DMA_Init>
  __HAL_DMA_ENABLE_IT(&hdma_tim1_up, DMA_IT_TC);
 8000c98:	4b0c      	ldr	r3, [pc, #48]	; (8000ccc <UB_VGA_Screen_Init+0x9c>)
 8000c9a:	681b      	ldr	r3, [r3, #0]
 8000c9c:	681a      	ldr	r2, [r3, #0]
 8000c9e:	4b0b      	ldr	r3, [pc, #44]	; (8000ccc <UB_VGA_Screen_Init+0x9c>)
 8000ca0:	681b      	ldr	r3, [r3, #0]
 8000ca2:	f042 0210 	orr.w	r2, r2, #16
 8000ca6:	601a      	str	r2, [r3, #0]

  //-----------------------
  // Register swap and safe
  //-----------------------
  // content of CR-Register read and save
  VGA.dma2_cr_reg = DMA2_Stream5->CR;
 8000ca8:	4b09      	ldr	r3, [pc, #36]	; (8000cd0 <UB_VGA_Screen_Init+0xa0>)
 8000caa:	681b      	ldr	r3, [r3, #0]
 8000cac:	4a01      	ldr	r2, [pc, #4]	; (8000cb4 <UB_VGA_Screen_Init+0x84>)
 8000cae:	6093      	str	r3, [r2, #8]
}
 8000cb0:	bf00      	nop
 8000cb2:	bd80      	pop	{r7, pc}
 8000cb4:	20000028 	.word	0x20000028
 8000cb8:	40020400 	.word	0x40020400
 8000cbc:	20012dc4 	.word	0x20012dc4
 8000cc0:	20012d24 	.word	0x20012d24
 8000cc4:	20000034 	.word	0x20000034
 8000cc8:	40021015 	.word	0x40021015
 8000ccc:	20012d64 	.word	0x20012d64
 8000cd0:	40026488 	.word	0x40026488

08000cd4 <UB_VGA_FillScreen>:

//--------------------------------------------------------------
// fill the DMA RAM buffer with one color
//--------------------------------------------------------------
void UB_VGA_FillScreen(uint8_t color)
{
 8000cd4:	b580      	push	{r7, lr}
 8000cd6:	b084      	sub	sp, #16
 8000cd8:	af00      	add	r7, sp, #0
 8000cda:	4603      	mov	r3, r0
 8000cdc:	71fb      	strb	r3, [r7, #7]
  uint16_t xp,yp;

  for(yp = 0; yp < VGA_DISPLAY_Y; yp++) {
 8000cde:	2300      	movs	r3, #0
 8000ce0:	81bb      	strh	r3, [r7, #12]
 8000ce2:	e012      	b.n	8000d0a <UB_VGA_FillScreen+0x36>
    for(xp = 0; xp < VGA_DISPLAY_X; xp++) {
 8000ce4:	2300      	movs	r3, #0
 8000ce6:	81fb      	strh	r3, [r7, #14]
 8000ce8:	e008      	b.n	8000cfc <UB_VGA_FillScreen+0x28>
      UB_VGA_SetPixel(xp, yp, color);
 8000cea:	79fa      	ldrb	r2, [r7, #7]
 8000cec:	89b9      	ldrh	r1, [r7, #12]
 8000cee:	89fb      	ldrh	r3, [r7, #14]
 8000cf0:	4618      	mov	r0, r3
 8000cf2:	f000 f813 	bl	8000d1c <UB_VGA_SetPixel>
    for(xp = 0; xp < VGA_DISPLAY_X; xp++) {
 8000cf6:	89fb      	ldrh	r3, [r7, #14]
 8000cf8:	3301      	adds	r3, #1
 8000cfa:	81fb      	strh	r3, [r7, #14]
 8000cfc:	89fb      	ldrh	r3, [r7, #14]
 8000cfe:	f5b3 7fa0 	cmp.w	r3, #320	; 0x140
 8000d02:	d3f2      	bcc.n	8000cea <UB_VGA_FillScreen+0x16>
  for(yp = 0; yp < VGA_DISPLAY_Y; yp++) {
 8000d04:	89bb      	ldrh	r3, [r7, #12]
 8000d06:	3301      	adds	r3, #1
 8000d08:	81bb      	strh	r3, [r7, #12]
 8000d0a:	89bb      	ldrh	r3, [r7, #12]
 8000d0c:	2bef      	cmp	r3, #239	; 0xef
 8000d0e:	d9e9      	bls.n	8000ce4 <UB_VGA_FillScreen+0x10>
    }
  }
}
 8000d10:	bf00      	nop
 8000d12:	bf00      	nop
 8000d14:	3710      	adds	r7, #16
 8000d16:	46bd      	mov	sp, r7
 8000d18:	bd80      	pop	{r7, pc}
	...

08000d1c <UB_VGA_SetPixel>:
//--------------------------------------------------------------
// put one Pixel on the screen with one color
// Important : the last Pixel+1 from every line must be black (don't know why??)
//--------------------------------------------------------------
void UB_VGA_SetPixel(uint16_t xp, uint16_t yp, uint8_t color)
{
 8000d1c:	b480      	push	{r7}
 8000d1e:	b083      	sub	sp, #12
 8000d20:	af00      	add	r7, sp, #0
 8000d22:	4603      	mov	r3, r0
 8000d24:	80fb      	strh	r3, [r7, #6]
 8000d26:	460b      	mov	r3, r1
 8000d28:	80bb      	strh	r3, [r7, #4]
 8000d2a:	4613      	mov	r3, r2
 8000d2c:	70fb      	strb	r3, [r7, #3]
  if(xp >= VGA_DISPLAY_X)
 8000d2e:	88fb      	ldrh	r3, [r7, #6]
 8000d30:	f5b3 7fa0 	cmp.w	r3, #320	; 0x140
 8000d34:	d301      	bcc.n	8000d3a <UB_VGA_SetPixel+0x1e>
    xp = 0;
 8000d36:	2300      	movs	r3, #0
 8000d38:	80fb      	strh	r3, [r7, #6]
  if(yp >= VGA_DISPLAY_Y)
 8000d3a:	88bb      	ldrh	r3, [r7, #4]
 8000d3c:	2bef      	cmp	r3, #239	; 0xef
 8000d3e:	d901      	bls.n	8000d44 <UB_VGA_SetPixel+0x28>
    yp = 0;
 8000d40:	2300      	movs	r3, #0
 8000d42:	80bb      	strh	r3, [r7, #4]

  // Write pixel to ram
  VGA_RAM1[(yp * (VGA_DISPLAY_X + 1)) + xp] = color;
 8000d44:	88ba      	ldrh	r2, [r7, #4]
 8000d46:	4613      	mov	r3, r2
 8000d48:	009b      	lsls	r3, r3, #2
 8000d4a:	4413      	add	r3, r2
 8000d4c:	019b      	lsls	r3, r3, #6
 8000d4e:	441a      	add	r2, r3
 8000d50:	88fb      	ldrh	r3, [r7, #6]
 8000d52:	4413      	add	r3, r2
 8000d54:	4904      	ldr	r1, [pc, #16]	; (8000d68 <UB_VGA_SetPixel+0x4c>)
 8000d56:	78fa      	ldrb	r2, [r7, #3]
 8000d58:	54ca      	strb	r2, [r1, r3]
}
 8000d5a:	bf00      	nop
 8000d5c:	370c      	adds	r7, #12
 8000d5e:	46bd      	mov	sp, r7
 8000d60:	f85d 7b04 	ldr.w	r7, [sp], #4
 8000d64:	4770      	bx	lr
 8000d66:	bf00      	nop
 8000d68:	20000034 	.word	0x20000034

08000d6c <HAL_Init>:
  *         need to ensure that the SysTick time base is always set to 1 millisecond
  *         to have correct HAL operation.
  * @retval HAL status
  */
HAL_StatusTypeDef HAL_Init(void)
{
 8000d6c:	b580      	push	{r7, lr}
 8000d6e:	af00      	add	r7, sp, #0
  /* Configure Flash prefetch, Instruction cache, Data cache */ 
#if (INSTRUCTION_CACHE_ENABLE != 0U)
  __HAL_FLASH_INSTRUCTION_CACHE_ENABLE();
 8000d70:	4b0e      	ldr	r3, [pc, #56]	; (8000dac <HAL_Init+0x40>)
 8000d72:	681b      	ldr	r3, [r3, #0]
 8000d74:	4a0d      	ldr	r2, [pc, #52]	; (8000dac <HAL_Init+0x40>)
 8000d76:	f443 7300 	orr.w	r3, r3, #512	; 0x200
 8000d7a:	6013      	str	r3, [r2, #0]
#endif /* INSTRUCTION_CACHE_ENABLE */

#if (DATA_CACHE_ENABLE != 0U)
  __HAL_FLASH_DATA_CACHE_ENABLE();
 8000d7c:	4b0b      	ldr	r3, [pc, #44]	; (8000dac <HAL_Init+0x40>)
 8000d7e:	681b      	ldr	r3, [r3, #0]
 8000d80:	4a0a      	ldr	r2, [pc, #40]	; (8000dac <HAL_Init+0x40>)
 8000d82:	f443 6380 	orr.w	r3, r3, #1024	; 0x400
 8000d86:	6013      	str	r3, [r2, #0]
#endif /* DATA_CACHE_ENABLE */

#if (PREFETCH_ENABLE != 0U)
  __HAL_FLASH_PREFETCH_BUFFER_ENABLE();
 8000d88:	4b08      	ldr	r3, [pc, #32]	; (8000dac <HAL_Init+0x40>)
 8000d8a:	681b      	ldr	r3, [r3, #0]
 8000d8c:	4a07      	ldr	r2, [pc, #28]	; (8000dac <HAL_Init+0x40>)
 8000d8e:	f443 7380 	orr.w	r3, r3, #256	; 0x100
 8000d92:	6013      	str	r3, [r2, #0]
#endif /* PREFETCH_ENABLE */

  /* Set Interrupt Group Priority */
  HAL_NVIC_SetPriorityGrouping(NVIC_PRIORITYGROUP_4);
 8000d94:	2003      	movs	r0, #3
 8000d96:	f000 f92b 	bl	8000ff0 <HAL_NVIC_SetPriorityGrouping>

  /* Use systick as time base source and configure 1ms tick (default clock after Reset is HSI) */
  HAL_InitTick(TICK_INT_PRIORITY);
 8000d9a:	2000      	movs	r0, #0
 8000d9c:	f000 f808 	bl	8000db0 <HAL_InitTick>

  /* Init the low level hardware */
  HAL_MspInit();
 8000da0:	f7ff fcbc 	bl	800071c <HAL_MspInit>

  /* Return function status */
  return HAL_OK;
 8000da4:	2300      	movs	r3, #0
}
 8000da6:	4618      	mov	r0, r3
 8000da8:	bd80      	pop	{r7, pc}
 8000daa:	bf00      	nop
 8000dac:	40023c00 	.word	0x40023c00

08000db0 <HAL_InitTick>:
  *       implementation  in user file.
  * @param TickPriority Tick interrupt priority.
  * @retval HAL status
  */
__weak HAL_StatusTypeDef HAL_InitTick(uint32_t TickPriority)
{
 8000db0:	b580      	push	{r7, lr}
 8000db2:	b082      	sub	sp, #8
 8000db4:	af00      	add	r7, sp, #0
 8000db6:	6078      	str	r0, [r7, #4]
  /* Configure the SysTick to have interrupt in 1ms time basis*/
  if (HAL_SYSTICK_Config(SystemCoreClock / (1000U / uwTickFreq)) > 0U)
 8000db8:	4b12      	ldr	r3, [pc, #72]	; (8000e04 <HAL_InitTick+0x54>)
 8000dba:	681a      	ldr	r2, [r3, #0]
 8000dbc:	4b12      	ldr	r3, [pc, #72]	; (8000e08 <HAL_InitTick+0x58>)
 8000dbe:	781b      	ldrb	r3, [r3, #0]
 8000dc0:	4619      	mov	r1, r3
 8000dc2:	f44f 737a 	mov.w	r3, #1000	; 0x3e8
 8000dc6:	fbb3 f3f1 	udiv	r3, r3, r1
 8000dca:	fbb2 f3f3 	udiv	r3, r2, r3
 8000dce:	4618      	mov	r0, r3
 8000dd0:	f000 f943 	bl	800105a <HAL_SYSTICK_Config>
 8000dd4:	4603      	mov	r3, r0
 8000dd6:	2b00      	cmp	r3, #0
 8000dd8:	d001      	beq.n	8000dde <HAL_InitTick+0x2e>
  {
    return HAL_ERROR;
 8000dda:	2301      	movs	r3, #1
 8000ddc:	e00e      	b.n	8000dfc <HAL_InitTick+0x4c>
  }

  /* Configure the SysTick IRQ priority */
  if (TickPriority < (1UL << __NVIC_PRIO_BITS))
 8000dde:	687b      	ldr	r3, [r7, #4]
 8000de0:	2b0f      	cmp	r3, #15
 8000de2:	d80a      	bhi.n	8000dfa <HAL_InitTick+0x4a>
  {
    HAL_NVIC_SetPriority(SysTick_IRQn, TickPriority, 0U);
 8000de4:	2200      	movs	r2, #0
 8000de6:	6879      	ldr	r1, [r7, #4]
 8000de8:	f04f 30ff 	mov.w	r0, #4294967295
 8000dec:	f000 f90b 	bl	8001006 <HAL_NVIC_SetPriority>
    uwTickPrio = TickPriority;
 8000df0:	4a06      	ldr	r2, [pc, #24]	; (8000e0c <HAL_InitTick+0x5c>)
 8000df2:	687b      	ldr	r3, [r7, #4]
 8000df4:	6013      	str	r3, [r2, #0]
  {
    return HAL_ERROR;
  }

  /* Return function status */
  return HAL_OK;
 8000df6:	2300      	movs	r3, #0
 8000df8:	e000      	b.n	8000dfc <HAL_InitTick+0x4c>
    return HAL_ERROR;
 8000dfa:	2301      	movs	r3, #1
}
 8000dfc:	4618      	mov	r0, r3
 8000dfe:	3708      	adds	r7, #8
 8000e00:	46bd      	mov	sp, r7
 8000e02:	bd80      	pop	{r7, pc}
 8000e04:	20000000 	.word	0x20000000
 8000e08:	20000008 	.word	0x20000008
 8000e0c:	20000004 	.word	0x20000004

08000e10 <HAL_IncTick>:
 * @note This function is declared as __weak to be overwritten in case of other 
  *      implementations in user file.
  * @retval None
  */
__weak void HAL_IncTick(void)
{
 8000e10:	b480      	push	{r7}
 8000e12:	af00      	add	r7, sp, #0
  uwTick += uwTickFreq;
 8000e14:	4b06      	ldr	r3, [pc, #24]	; (8000e30 <HAL_IncTick+0x20>)
 8000e16:	781b      	ldrb	r3, [r3, #0]
 8000e18:	461a      	mov	r2, r3
 8000e1a:	4b06      	ldr	r3, [pc, #24]	; (8000e34 <HAL_IncTick+0x24>)
 8000e1c:	681b      	ldr	r3, [r3, #0]
 8000e1e:	4413      	add	r3, r2
 8000e20:	4a04      	ldr	r2, [pc, #16]	; (8000e34 <HAL_IncTick+0x24>)
 8000e22:	6013      	str	r3, [r2, #0]
}
 8000e24:	bf00      	nop
 8000e26:	46bd      	mov	sp, r7
 8000e28:	f85d 7b04 	ldr.w	r7, [sp], #4
 8000e2c:	4770      	bx	lr
 8000e2e:	bf00      	nop
 8000e30:	20000008 	.word	0x20000008
 8000e34:	20012e04 	.word	0x20012e04

08000e38 <HAL_GetTick>:
  * @note This function is declared as __weak to be overwritten in case of other 
  *       implementations in user file.
  * @retval tick value
  */
__weak uint32_t HAL_GetTick(void)
{
 8000e38:	b480      	push	{r7}
 8000e3a:	af00      	add	r7, sp, #0
  return uwTick;
 8000e3c:	4b03      	ldr	r3, [pc, #12]	; (8000e4c <HAL_GetTick+0x14>)
 8000e3e:	681b      	ldr	r3, [r3, #0]
}
 8000e40:	4618      	mov	r0, r3
 8000e42:	46bd      	mov	sp, r7
 8000e44:	f85d 7b04 	ldr.w	r7, [sp], #4
 8000e48:	4770      	bx	lr
 8000e4a:	bf00      	nop
 8000e4c:	20012e04 	.word	0x20012e04

08000e50 <__NVIC_SetPriorityGrouping>:
           In case of a conflict between priority grouping and available
           priority bits (__NVIC_PRIO_BITS), the smallest possible priority group is set.
  \param [in]      PriorityGroup  Priority grouping field.
 */
__STATIC_INLINE void __NVIC_SetPriorityGrouping(uint32_t PriorityGroup)
{
 8000e50:	b480      	push	{r7}
 8000e52:	b085      	sub	sp, #20
 8000e54:	af00      	add	r7, sp, #0
 8000e56:	6078      	str	r0, [r7, #4]
  uint32_t reg_value;
  uint32_t PriorityGroupTmp = (PriorityGroup & (uint32_t)0x07UL);             /* only values 0..7 are used          */
 8000e58:	687b      	ldr	r3, [r7, #4]
 8000e5a:	f003 0307 	and.w	r3, r3, #7
 8000e5e:	60fb      	str	r3, [r7, #12]

  reg_value  =  SCB->AIRCR;                                                   /* read old register configuration    */
 8000e60:	4b0c      	ldr	r3, [pc, #48]	; (8000e94 <__NVIC_SetPriorityGrouping+0x44>)
 8000e62:	68db      	ldr	r3, [r3, #12]
 8000e64:	60bb      	str	r3, [r7, #8]
  reg_value &= ~((uint32_t)(SCB_AIRCR_VECTKEY_Msk | SCB_AIRCR_PRIGROUP_Msk)); /* clear bits to change               */
 8000e66:	68ba      	ldr	r2, [r7, #8]
 8000e68:	f64f 03ff 	movw	r3, #63743	; 0xf8ff
 8000e6c:	4013      	ands	r3, r2
 8000e6e:	60bb      	str	r3, [r7, #8]
  reg_value  =  (reg_value                                   |
                ((uint32_t)0x5FAUL << SCB_AIRCR_VECTKEY_Pos) |
                (PriorityGroupTmp << SCB_AIRCR_PRIGROUP_Pos)  );              /* Insert write key and priority group */
 8000e70:	68fb      	ldr	r3, [r7, #12]
 8000e72:	021a      	lsls	r2, r3, #8
                ((uint32_t)0x5FAUL << SCB_AIRCR_VECTKEY_Pos) |
 8000e74:	68bb      	ldr	r3, [r7, #8]
 8000e76:	4313      	orrs	r3, r2
  reg_value  =  (reg_value                                   |
 8000e78:	f043 63bf 	orr.w	r3, r3, #100139008	; 0x5f80000
 8000e7c:	f443 3300 	orr.w	r3, r3, #131072	; 0x20000
 8000e80:	60bb      	str	r3, [r7, #8]
  SCB->AIRCR =  reg_value;
 8000e82:	4a04      	ldr	r2, [pc, #16]	; (8000e94 <__NVIC_SetPriorityGrouping+0x44>)
 8000e84:	68bb      	ldr	r3, [r7, #8]
 8000e86:	60d3      	str	r3, [r2, #12]
}
 8000e88:	bf00      	nop
 8000e8a:	3714      	adds	r7, #20
 8000e8c:	46bd      	mov	sp, r7
 8000e8e:	f85d 7b04 	ldr.w	r7, [sp], #4
 8000e92:	4770      	bx	lr
 8000e94:	e000ed00 	.word	0xe000ed00

08000e98 <__NVIC_GetPriorityGrouping>:
  \brief   Get Priority Grouping
  \details Reads the priority grouping field from the NVIC Interrupt Controller.
  \return                Priority grouping field (SCB->AIRCR [10:8] PRIGROUP field).
 */
__STATIC_INLINE uint32_t __NVIC_GetPriorityGrouping(void)
{
 8000e98:	b480      	push	{r7}
 8000e9a:	af00      	add	r7, sp, #0
  return ((uint32_t)((SCB->AIRCR & SCB_AIRCR_PRIGROUP_Msk) >> SCB_AIRCR_PRIGROUP_Pos));
 8000e9c:	4b04      	ldr	r3, [pc, #16]	; (8000eb0 <__NVIC_GetPriorityGrouping+0x18>)
 8000e9e:	68db      	ldr	r3, [r3, #12]
 8000ea0:	0a1b      	lsrs	r3, r3, #8
 8000ea2:	f003 0307 	and.w	r3, r3, #7
}
 8000ea6:	4618      	mov	r0, r3
 8000ea8:	46bd      	mov	sp, r7
 8000eaa:	f85d 7b04 	ldr.w	r7, [sp], #4
 8000eae:	4770      	bx	lr
 8000eb0:	e000ed00 	.word	0xe000ed00

08000eb4 <__NVIC_EnableIRQ>:
  \details Enables a device specific interrupt in the NVIC interrupt controller.
  \param [in]      IRQn  Device specific interrupt number.
  \note    IRQn must not be negative.
 */
__STATIC_INLINE void __NVIC_EnableIRQ(IRQn_Type IRQn)
{
 8000eb4:	b480      	push	{r7}
 8000eb6:	b083      	sub	sp, #12
 8000eb8:	af00      	add	r7, sp, #0
 8000eba:	4603      	mov	r3, r0
 8000ebc:	71fb      	strb	r3, [r7, #7]
  if ((int32_t)(IRQn) >= 0)
 8000ebe:	f997 3007 	ldrsb.w	r3, [r7, #7]
 8000ec2:	2b00      	cmp	r3, #0
 8000ec4:	db0b      	blt.n	8000ede <__NVIC_EnableIRQ+0x2a>
  {
    NVIC->ISER[(((uint32_t)IRQn) >> 5UL)] = (uint32_t)(1UL << (((uint32_t)IRQn) & 0x1FUL));
 8000ec6:	79fb      	ldrb	r3, [r7, #7]
 8000ec8:	f003 021f 	and.w	r2, r3, #31
 8000ecc:	4907      	ldr	r1, [pc, #28]	; (8000eec <__NVIC_EnableIRQ+0x38>)
 8000ece:	f997 3007 	ldrsb.w	r3, [r7, #7]
 8000ed2:	095b      	lsrs	r3, r3, #5
 8000ed4:	2001      	movs	r0, #1
 8000ed6:	fa00 f202 	lsl.w	r2, r0, r2
 8000eda:	f841 2023 	str.w	r2, [r1, r3, lsl #2]
  }
}
 8000ede:	bf00      	nop
 8000ee0:	370c      	adds	r7, #12
 8000ee2:	46bd      	mov	sp, r7
 8000ee4:	f85d 7b04 	ldr.w	r7, [sp], #4
 8000ee8:	4770      	bx	lr
 8000eea:	bf00      	nop
 8000eec:	e000e100 	.word	0xe000e100

08000ef0 <__NVIC_SetPriority>:
  \param [in]      IRQn  Interrupt number.
  \param [in]  priority  Priority to set.
  \note    The priority cannot be set for every processor exception.
 */
__STATIC_INLINE void __NVIC_SetPriority(IRQn_Type IRQn, uint32_t priority)
{
 8000ef0:	b480      	push	{r7}
 8000ef2:	b083      	sub	sp, #12
 8000ef4:	af00      	add	r7, sp, #0
 8000ef6:	4603      	mov	r3, r0
 8000ef8:	6039      	str	r1, [r7, #0]
 8000efa:	71fb      	strb	r3, [r7, #7]
  if ((int32_t)(IRQn) >= 0)
 8000efc:	f997 3007 	ldrsb.w	r3, [r7, #7]
 8000f00:	2b00      	cmp	r3, #0
 8000f02:	db0a      	blt.n	8000f1a <__NVIC_SetPriority+0x2a>
  {
    NVIC->IP[((uint32_t)IRQn)]               = (uint8_t)((priority << (8U - __NVIC_PRIO_BITS)) & (uint32_t)0xFFUL);
 8000f04:	683b      	ldr	r3, [r7, #0]
 8000f06:	b2da      	uxtb	r2, r3
 8000f08:	490c      	ldr	r1, [pc, #48]	; (8000f3c <__NVIC_SetPriority+0x4c>)
 8000f0a:	f997 3007 	ldrsb.w	r3, [r7, #7]
 8000f0e:	0112      	lsls	r2, r2, #4
 8000f10:	b2d2      	uxtb	r2, r2
 8000f12:	440b      	add	r3, r1
 8000f14:	f883 2300 	strb.w	r2, [r3, #768]	; 0x300
  }
  else
  {
    SCB->SHP[(((uint32_t)IRQn) & 0xFUL)-4UL] = (uint8_t)((priority << (8U - __NVIC_PRIO_BITS)) & (uint32_t)0xFFUL);
  }
}
 8000f18:	e00a      	b.n	8000f30 <__NVIC_SetPriority+0x40>
    SCB->SHP[(((uint32_t)IRQn) & 0xFUL)-4UL] = (uint8_t)((priority << (8U - __NVIC_PRIO_BITS)) & (uint32_t)0xFFUL);
 8000f1a:	683b      	ldr	r3, [r7, #0]
 8000f1c:	b2da      	uxtb	r2, r3
 8000f1e:	4908      	ldr	r1, [pc, #32]	; (8000f40 <__NVIC_SetPriority+0x50>)
 8000f20:	79fb      	ldrb	r3, [r7, #7]
 8000f22:	f003 030f 	and.w	r3, r3, #15
 8000f26:	3b04      	subs	r3, #4
 8000f28:	0112      	lsls	r2, r2, #4
 8000f2a:	b2d2      	uxtb	r2, r2
 8000f2c:	440b      	add	r3, r1
 8000f2e:	761a      	strb	r2, [r3, #24]
}
 8000f30:	bf00      	nop
 8000f32:	370c      	adds	r7, #12
 8000f34:	46bd      	mov	sp, r7
 8000f36:	f85d 7b04 	ldr.w	r7, [sp], #4
 8000f3a:	4770      	bx	lr
 8000f3c:	e000e100 	.word	0xe000e100
 8000f40:	e000ed00 	.word	0xe000ed00

08000f44 <NVIC_EncodePriority>:
  \param [in]   PreemptPriority  Preemptive priority value (starting from 0).
  \param [in]       SubPriority  Subpriority value (starting from 0).
  \return                        Encoded priority. Value can be used in the function \ref NVIC_SetPriority().
 */
__STATIC_INLINE uint32_t NVIC_EncodePriority (uint32_t PriorityGroup, uint32_t PreemptPriority, uint32_t SubPriority)
{
 8000f44:	b480      	push	{r7}
 8000f46:	b089      	sub	sp, #36	; 0x24
 8000f48:	af00      	add	r7, sp, #0
 8000f4a:	60f8      	str	r0, [r7, #12]
 8000f4c:	60b9      	str	r1, [r7, #8]
 8000f4e:	607a      	str	r2, [r7, #4]
  uint32_t PriorityGroupTmp = (PriorityGroup & (uint32_t)0x07UL);   /* only values 0..7 are used          */
 8000f50:	68fb      	ldr	r3, [r7, #12]
 8000f52:	f003 0307 	and.w	r3, r3, #7
 8000f56:	61fb      	str	r3, [r7, #28]
  uint32_t PreemptPriorityBits;
  uint32_t SubPriorityBits;

  PreemptPriorityBits = ((7UL - PriorityGroupTmp) > (uint32_t)(__NVIC_PRIO_BITS)) ? (uint32_t)(__NVIC_PRIO_BITS) : (uint32_t)(7UL - PriorityGroupTmp);
 8000f58:	69fb      	ldr	r3, [r7, #28]
 8000f5a:	f1c3 0307 	rsb	r3, r3, #7
 8000f5e:	2b04      	cmp	r3, #4
 8000f60:	bf28      	it	cs
 8000f62:	2304      	movcs	r3, #4
 8000f64:	61bb      	str	r3, [r7, #24]
  SubPriorityBits     = ((PriorityGroupTmp + (uint32_t)(__NVIC_PRIO_BITS)) < (uint32_t)7UL) ? (uint32_t)0UL : (uint32_t)((PriorityGroupTmp - 7UL) + (uint32_t)(__NVIC_PRIO_BITS));
 8000f66:	69fb      	ldr	r3, [r7, #28]
 8000f68:	3304      	adds	r3, #4
 8000f6a:	2b06      	cmp	r3, #6
 8000f6c:	d902      	bls.n	8000f74 <NVIC_EncodePriority+0x30>
 8000f6e:	69fb      	ldr	r3, [r7, #28]
 8000f70:	3b03      	subs	r3, #3
 8000f72:	e000      	b.n	8000f76 <NVIC_EncodePriority+0x32>
 8000f74:	2300      	movs	r3, #0
 8000f76:	617b      	str	r3, [r7, #20]

  return (
           ((PreemptPriority & (uint32_t)((1UL << (PreemptPriorityBits)) - 1UL)) << SubPriorityBits) |
 8000f78:	f04f 32ff 	mov.w	r2, #4294967295
 8000f7c:	69bb      	ldr	r3, [r7, #24]
 8000f7e:	fa02 f303 	lsl.w	r3, r2, r3
 8000f82:	43da      	mvns	r2, r3
 8000f84:	68bb      	ldr	r3, [r7, #8]
 8000f86:	401a      	ands	r2, r3
 8000f88:	697b      	ldr	r3, [r7, #20]
 8000f8a:	409a      	lsls	r2, r3
           ((SubPriority     & (uint32_t)((1UL << (SubPriorityBits    )) - 1UL)))
 8000f8c:	f04f 31ff 	mov.w	r1, #4294967295
 8000f90:	697b      	ldr	r3, [r7, #20]
 8000f92:	fa01 f303 	lsl.w	r3, r1, r3
 8000f96:	43d9      	mvns	r1, r3
 8000f98:	687b      	ldr	r3, [r7, #4]
 8000f9a:	400b      	ands	r3, r1
           ((PreemptPriority & (uint32_t)((1UL << (PreemptPriorityBits)) - 1UL)) << SubPriorityBits) |
 8000f9c:	4313      	orrs	r3, r2
         );
}
 8000f9e:	4618      	mov	r0, r3
 8000fa0:	3724      	adds	r7, #36	; 0x24
 8000fa2:	46bd      	mov	sp, r7
 8000fa4:	f85d 7b04 	ldr.w	r7, [sp], #4
 8000fa8:	4770      	bx	lr
	...

08000fac <SysTick_Config>:
  \note    When the variable <b>__Vendor_SysTickConfig</b> is set to 1, then the
           function <b>SysTick_Config</b> is not included. In this case, the file <b><i>device</i>.h</b>
           must contain a vendor-specific implementation of this function.
 */
__STATIC_INLINE uint32_t SysTick_Config(uint32_t ticks)
{
 8000fac:	b580      	push	{r7, lr}
 8000fae:	b082      	sub	sp, #8
 8000fb0:	af00      	add	r7, sp, #0
 8000fb2:	6078      	str	r0, [r7, #4]
  if ((ticks - 1UL) > SysTick_LOAD_RELOAD_Msk)
 8000fb4:	687b      	ldr	r3, [r7, #4]
 8000fb6:	3b01      	subs	r3, #1
 8000fb8:	f1b3 7f80 	cmp.w	r3, #16777216	; 0x1000000
 8000fbc:	d301      	bcc.n	8000fc2 <SysTick_Config+0x16>
  {
    return (1UL);                                                   /* Reload value impossible */
 8000fbe:	2301      	movs	r3, #1
 8000fc0:	e00f      	b.n	8000fe2 <SysTick_Config+0x36>
  }

  SysTick->LOAD  = (uint32_t)(ticks - 1UL);                         /* set reload register */
 8000fc2:	4a0a      	ldr	r2, [pc, #40]	; (8000fec <SysTick_Config+0x40>)
 8000fc4:	687b      	ldr	r3, [r7, #4]
 8000fc6:	3b01      	subs	r3, #1
 8000fc8:	6053      	str	r3, [r2, #4]
  NVIC_SetPriority (SysTick_IRQn, (1UL << __NVIC_PRIO_BITS) - 1UL); /* set Priority for Systick Interrupt */
 8000fca:	210f      	movs	r1, #15
 8000fcc:	f04f 30ff 	mov.w	r0, #4294967295
 8000fd0:	f7ff ff8e 	bl	8000ef0 <__NVIC_SetPriority>
  SysTick->VAL   = 0UL;                                             /* Load the SysTick Counter Value */
 8000fd4:	4b05      	ldr	r3, [pc, #20]	; (8000fec <SysTick_Config+0x40>)
 8000fd6:	2200      	movs	r2, #0
 8000fd8:	609a      	str	r2, [r3, #8]
  SysTick->CTRL  = SysTick_CTRL_CLKSOURCE_Msk |
 8000fda:	4b04      	ldr	r3, [pc, #16]	; (8000fec <SysTick_Config+0x40>)
 8000fdc:	2207      	movs	r2, #7
 8000fde:	601a      	str	r2, [r3, #0]
                   SysTick_CTRL_TICKINT_Msk   |
                   SysTick_CTRL_ENABLE_Msk;                         /* Enable SysTick IRQ and SysTick Timer */
  return (0UL);                                                     /* Function successful */
 8000fe0:	2300      	movs	r3, #0
}
 8000fe2:	4618      	mov	r0, r3
 8000fe4:	3708      	adds	r7, #8
 8000fe6:	46bd      	mov	sp, r7
 8000fe8:	bd80      	pop	{r7, pc}
 8000fea:	bf00      	nop
 8000fec:	e000e010 	.word	0xe000e010

08000ff0 <HAL_NVIC_SetPriorityGrouping>:
  * @note   When the NVIC_PriorityGroup_0 is selected, IRQ preemption is no more possible. 
  *         The pending IRQ priority will be managed only by the subpriority. 
  * @retval None
  */
void HAL_NVIC_SetPriorityGrouping(uint32_t PriorityGroup)
{
 8000ff0:	b580      	push	{r7, lr}
 8000ff2:	b082      	sub	sp, #8
 8000ff4:	af00      	add	r7, sp, #0
 8000ff6:	6078      	str	r0, [r7, #4]
  /* Check the parameters */
  assert_param(IS_NVIC_PRIORITY_GROUP(PriorityGroup));
  
  /* Set the PRIGROUP[10:8] bits according to the PriorityGroup parameter value */
  NVIC_SetPriorityGrouping(PriorityGroup);
 8000ff8:	6878      	ldr	r0, [r7, #4]
 8000ffa:	f7ff ff29 	bl	8000e50 <__NVIC_SetPriorityGrouping>
}
 8000ffe:	bf00      	nop
 8001000:	3708      	adds	r7, #8
 8001002:	46bd      	mov	sp, r7
 8001004:	bd80      	pop	{r7, pc}

08001006 <HAL_NVIC_SetPriority>:
  *         This parameter can be a value between 0 and 15
  *         A lower priority value indicates a higher priority.          
  * @retval None
  */
void HAL_NVIC_SetPriority(IRQn_Type IRQn, uint32_t PreemptPriority, uint32_t SubPriority)
{ 
 8001006:	b580      	push	{r7, lr}
 8001008:	b086      	sub	sp, #24
 800100a:	af00      	add	r7, sp, #0
 800100c:	4603      	mov	r3, r0
 800100e:	60b9      	str	r1, [r7, #8]
 8001010:	607a      	str	r2, [r7, #4]
 8001012:	73fb      	strb	r3, [r7, #15]
  uint32_t prioritygroup = 0x00U;
 8001014:	2300      	movs	r3, #0
 8001016:	617b      	str	r3, [r7, #20]
  
  /* Check the parameters */
  assert_param(IS_NVIC_SUB_PRIORITY(SubPriority));
  assert_param(IS_NVIC_PREEMPTION_PRIORITY(PreemptPriority));
  
  prioritygroup = NVIC_GetPriorityGrouping();
 8001018:	f7ff ff3e 	bl	8000e98 <__NVIC_GetPriorityGrouping>
 800101c:	6178      	str	r0, [r7, #20]
  
  NVIC_SetPriority(IRQn, NVIC_EncodePriority(prioritygroup, PreemptPriority, SubPriority));
 800101e:	687a      	ldr	r2, [r7, #4]
 8001020:	68b9      	ldr	r1, [r7, #8]
 8001022:	6978      	ldr	r0, [r7, #20]
 8001024:	f7ff ff8e 	bl	8000f44 <NVIC_EncodePriority>
 8001028:	4602      	mov	r2, r0
 800102a:	f997 300f 	ldrsb.w	r3, [r7, #15]
 800102e:	4611      	mov	r1, r2
 8001030:	4618      	mov	r0, r3
 8001032:	f7ff ff5d 	bl	8000ef0 <__NVIC_SetPriority>
}
 8001036:	bf00      	nop
 8001038:	3718      	adds	r7, #24
 800103a:	46bd      	mov	sp, r7
 800103c:	bd80      	pop	{r7, pc}

0800103e <HAL_NVIC_EnableIRQ>:
  *         This parameter can be an enumerator of IRQn_Type enumeration
  *         (For the complete STM32 Devices IRQ Channels list, please refer to the appropriate CMSIS device file (stm32f4xxxx.h))
  * @retval None
  */
void HAL_NVIC_EnableIRQ(IRQn_Type IRQn)
{
 800103e:	b580      	push	{r7, lr}
 8001040:	b082      	sub	sp, #8
 8001042:	af00      	add	r7, sp, #0
 8001044:	4603      	mov	r3, r0
 8001046:	71fb      	strb	r3, [r7, #7]
  /* Check the parameters */
  assert_param(IS_NVIC_DEVICE_IRQ(IRQn));
  
  /* Enable interrupt */
  NVIC_EnableIRQ(IRQn);
 8001048:	f997 3007 	ldrsb.w	r3, [r7, #7]
 800104c:	4618      	mov	r0, r3
 800104e:	f7ff ff31 	bl	8000eb4 <__NVIC_EnableIRQ>
}
 8001052:	bf00      	nop
 8001054:	3708      	adds	r7, #8
 8001056:	46bd      	mov	sp, r7
 8001058:	bd80      	pop	{r7, pc}

0800105a <HAL_SYSTICK_Config>:
  * @param  TicksNumb Specifies the ticks Number of ticks between two interrupts.
  * @retval status:  - 0  Function succeeded.
  *                  - 1  Function failed.
  */
uint32_t HAL_SYSTICK_Config(uint32_t TicksNumb)
{
 800105a:	b580      	push	{r7, lr}
 800105c:	b082      	sub	sp, #8
 800105e:	af00      	add	r7, sp, #0
 8001060:	6078      	str	r0, [r7, #4]
   return SysTick_Config(TicksNumb);
 8001062:	6878      	ldr	r0, [r7, #4]
 8001064:	f7ff ffa2 	bl	8000fac <SysTick_Config>
 8001068:	4603      	mov	r3, r0
}
 800106a:	4618      	mov	r0, r3
 800106c:	3708      	adds	r7, #8
 800106e:	46bd      	mov	sp, r7
 8001070:	bd80      	pop	{r7, pc}
	...

08001074 <HAL_DMA_Init>:
  * @param  hdma Pointer to a DMA_HandleTypeDef structure that contains
  *               the configuration information for the specified DMA Stream.  
  * @retval HAL status
  */
HAL_StatusTypeDef HAL_DMA_Init(DMA_HandleTypeDef *hdma)
{
 8001074:	b580      	push	{r7, lr}
 8001076:	b086      	sub	sp, #24
 8001078:	af00      	add	r7, sp, #0
 800107a:	6078      	str	r0, [r7, #4]
  uint32_t tmp = 0U;
 800107c:	2300      	movs	r3, #0
 800107e:	617b      	str	r3, [r7, #20]
  uint32_t tickstart = HAL_GetTick();
 8001080:	f7ff feda 	bl	8000e38 <HAL_GetTick>
 8001084:	6138      	str	r0, [r7, #16]
  DMA_Base_Registers *regs;

  /* Check the DMA peripheral state */
  if(hdma == NULL)
 8001086:	687b      	ldr	r3, [r7, #4]
 8001088:	2b00      	cmp	r3, #0
 800108a:	d101      	bne.n	8001090 <HAL_DMA_Init+0x1c>
  {
    return HAL_ERROR;
 800108c:	2301      	movs	r3, #1
 800108e:	e099      	b.n	80011c4 <HAL_DMA_Init+0x150>
    assert_param(IS_DMA_MEMORY_BURST(hdma->Init.MemBurst));
    assert_param(IS_DMA_PERIPHERAL_BURST(hdma->Init.PeriphBurst));
  }
  
  /* Allocate lock resource */
  __HAL_UNLOCK(hdma);
 8001090:	687b      	ldr	r3, [r7, #4]
 8001092:	2200      	movs	r2, #0
 8001094:	f883 2034 	strb.w	r2, [r3, #52]	; 0x34

  /* Change DMA peripheral state */
  hdma->State = HAL_DMA_STATE_BUSY;
 8001098:	687b      	ldr	r3, [r7, #4]
 800109a:	2202      	movs	r2, #2
 800109c:	f883 2035 	strb.w	r2, [r3, #53]	; 0x35
  
  /* Disable the peripheral */
  __HAL_DMA_DISABLE(hdma);
 80010a0:	687b      	ldr	r3, [r7, #4]
 80010a2:	681b      	ldr	r3, [r3, #0]
 80010a4:	681a      	ldr	r2, [r3, #0]
 80010a6:	687b      	ldr	r3, [r7, #4]
 80010a8:	681b      	ldr	r3, [r3, #0]
 80010aa:	f022 0201 	bic.w	r2, r2, #1
 80010ae:	601a      	str	r2, [r3, #0]
  
  /* Check if the DMA Stream is effectively disabled */
  while((hdma->Instance->CR & DMA_SxCR_EN) != RESET)
 80010b0:	e00f      	b.n	80010d2 <HAL_DMA_Init+0x5e>
  {
    /* Check for the Timeout */
    if((HAL_GetTick() - tickstart ) > HAL_TIMEOUT_DMA_ABORT)
 80010b2:	f7ff fec1 	bl	8000e38 <HAL_GetTick>
 80010b6:	4602      	mov	r2, r0
 80010b8:	693b      	ldr	r3, [r7, #16]
 80010ba:	1ad3      	subs	r3, r2, r3
 80010bc:	2b05      	cmp	r3, #5
 80010be:	d908      	bls.n	80010d2 <HAL_DMA_Init+0x5e>
    {
      /* Update error code */
      hdma->ErrorCode = HAL_DMA_ERROR_TIMEOUT;
 80010c0:	687b      	ldr	r3, [r7, #4]
 80010c2:	2220      	movs	r2, #32
 80010c4:	655a      	str	r2, [r3, #84]	; 0x54
      
      /* Change the DMA state */
      hdma->State = HAL_DMA_STATE_TIMEOUT;
 80010c6:	687b      	ldr	r3, [r7, #4]
 80010c8:	2203      	movs	r2, #3
 80010ca:	f883 2035 	strb.w	r2, [r3, #53]	; 0x35
      
      return HAL_TIMEOUT;
 80010ce:	2303      	movs	r3, #3
 80010d0:	e078      	b.n	80011c4 <HAL_DMA_Init+0x150>
  while((hdma->Instance->CR & DMA_SxCR_EN) != RESET)
 80010d2:	687b      	ldr	r3, [r7, #4]
 80010d4:	681b      	ldr	r3, [r3, #0]
 80010d6:	681b      	ldr	r3, [r3, #0]
 80010d8:	f003 0301 	and.w	r3, r3, #1
 80010dc:	2b00      	cmp	r3, #0
 80010de:	d1e8      	bne.n	80010b2 <HAL_DMA_Init+0x3e>
    }
  }
  
  /* Get the CR register value */
  tmp = hdma->Instance->CR;
 80010e0:	687b      	ldr	r3, [r7, #4]
 80010e2:	681b      	ldr	r3, [r3, #0]
 80010e4:	681b      	ldr	r3, [r3, #0]
 80010e6:	617b      	str	r3, [r7, #20]

  /* Clear CHSEL, MBURST, PBURST, PL, MSIZE, PSIZE, MINC, PINC, CIRC, DIR, CT and DBM bits */
  tmp &= ((uint32_t)~(DMA_SxCR_CHSEL | DMA_SxCR_MBURST | DMA_SxCR_PBURST | \
 80010e8:	697a      	ldr	r2, [r7, #20]
 80010ea:	4b38      	ldr	r3, [pc, #224]	; (80011cc <HAL_DMA_Init+0x158>)
 80010ec:	4013      	ands	r3, r2
 80010ee:	617b      	str	r3, [r7, #20]
                      DMA_SxCR_PL    | DMA_SxCR_MSIZE  | DMA_SxCR_PSIZE  | \
                      DMA_SxCR_MINC  | DMA_SxCR_PINC   | DMA_SxCR_CIRC   | \
                      DMA_SxCR_DIR   | DMA_SxCR_CT     | DMA_SxCR_DBM));

  /* Prepare the DMA Stream configuration */
  tmp |=  hdma->Init.Channel             | hdma->Init.Direction        |
 80010f0:	687b      	ldr	r3, [r7, #4]
 80010f2:	685a      	ldr	r2, [r3, #4]
 80010f4:	687b      	ldr	r3, [r7, #4]
 80010f6:	689b      	ldr	r3, [r3, #8]
 80010f8:	431a      	orrs	r2, r3
          hdma->Init.PeriphInc           | hdma->Init.MemInc           |
 80010fa:	687b      	ldr	r3, [r7, #4]
 80010fc:	68db      	ldr	r3, [r3, #12]
  tmp |=  hdma->Init.Channel             | hdma->Init.Direction        |
 80010fe:	431a      	orrs	r2, r3
          hdma->Init.PeriphInc           | hdma->Init.MemInc           |
 8001100:	687b      	ldr	r3, [r7, #4]
 8001102:	691b      	ldr	r3, [r3, #16]
 8001104:	431a      	orrs	r2, r3
          hdma->Init.PeriphDataAlignment | hdma->Init.MemDataAlignment |
 8001106:	687b      	ldr	r3, [r7, #4]
 8001108:	695b      	ldr	r3, [r3, #20]
          hdma->Init.PeriphInc           | hdma->Init.MemInc           |
 800110a:	431a      	orrs	r2, r3
          hdma->Init.PeriphDataAlignment | hdma->Init.MemDataAlignment |
 800110c:	687b      	ldr	r3, [r7, #4]
 800110e:	699b      	ldr	r3, [r3, #24]
 8001110:	431a      	orrs	r2, r3
          hdma->Init.Mode                | hdma->Init.Priority;
 8001112:	687b      	ldr	r3, [r7, #4]
 8001114:	69db      	ldr	r3, [r3, #28]
          hdma->Init.PeriphDataAlignment | hdma->Init.MemDataAlignment |
 8001116:	431a      	orrs	r2, r3
          hdma->Init.Mode                | hdma->Init.Priority;
 8001118:	687b      	ldr	r3, [r7, #4]
 800111a:	6a1b      	ldr	r3, [r3, #32]
 800111c:	4313      	orrs	r3, r2
  tmp |=  hdma->Init.Channel             | hdma->Init.Direction        |
 800111e:	697a      	ldr	r2, [r7, #20]
 8001120:	4313      	orrs	r3, r2
 8001122:	617b      	str	r3, [r7, #20]

  /* the Memory burst and peripheral burst are not used when the FIFO is disabled */
  if(hdma->Init.FIFOMode == DMA_FIFOMODE_ENABLE)
 8001124:	687b      	ldr	r3, [r7, #4]
 8001126:	6a5b      	ldr	r3, [r3, #36]	; 0x24
 8001128:	2b04      	cmp	r3, #4
 800112a:	d107      	bne.n	800113c <HAL_DMA_Init+0xc8>
  {
    /* Get memory burst and peripheral burst */
    tmp |=  hdma->Init.MemBurst | hdma->Init.PeriphBurst;
 800112c:	687b      	ldr	r3, [r7, #4]
 800112e:	6ada      	ldr	r2, [r3, #44]	; 0x2c
 8001130:	687b      	ldr	r3, [r7, #4]
 8001132:	6b1b      	ldr	r3, [r3, #48]	; 0x30
 8001134:	4313      	orrs	r3, r2
 8001136:	697a      	ldr	r2, [r7, #20]
 8001138:	4313      	orrs	r3, r2
 800113a:	617b      	str	r3, [r7, #20]
  }
  
  /* Write to DMA Stream CR register */
  hdma->Instance->CR = tmp;  
 800113c:	687b      	ldr	r3, [r7, #4]
 800113e:	681b      	ldr	r3, [r3, #0]
 8001140:	697a      	ldr	r2, [r7, #20]
 8001142:	601a      	str	r2, [r3, #0]

  /* Get the FCR register value */
  tmp = hdma->Instance->FCR;
 8001144:	687b      	ldr	r3, [r7, #4]
 8001146:	681b      	ldr	r3, [r3, #0]
 8001148:	695b      	ldr	r3, [r3, #20]
 800114a:	617b      	str	r3, [r7, #20]

  /* Clear Direct mode and FIFO threshold bits */
  tmp &= (uint32_t)~(DMA_SxFCR_DMDIS | DMA_SxFCR_FTH);
 800114c:	697b      	ldr	r3, [r7, #20]
 800114e:	f023 0307 	bic.w	r3, r3, #7
 8001152:	617b      	str	r3, [r7, #20]

  /* Prepare the DMA Stream FIFO configuration */
  tmp |= hdma->Init.FIFOMode;
 8001154:	687b      	ldr	r3, [r7, #4]
 8001156:	6a5b      	ldr	r3, [r3, #36]	; 0x24
 8001158:	697a      	ldr	r2, [r7, #20]
 800115a:	4313      	orrs	r3, r2
 800115c:	617b      	str	r3, [r7, #20]

  /* The FIFO threshold is not used when the FIFO mode is disabled */
  if(hdma->Init.FIFOMode == DMA_FIFOMODE_ENABLE)
 800115e:	687b      	ldr	r3, [r7, #4]
 8001160:	6a5b      	ldr	r3, [r3, #36]	; 0x24
 8001162:	2b04      	cmp	r3, #4
 8001164:	d117      	bne.n	8001196 <HAL_DMA_Init+0x122>
  {
    /* Get the FIFO threshold */
    tmp |= hdma->Init.FIFOThreshold;
 8001166:	687b      	ldr	r3, [r7, #4]
 8001168:	6a9b      	ldr	r3, [r3, #40]	; 0x28
 800116a:	697a      	ldr	r2, [r7, #20]
 800116c:	4313      	orrs	r3, r2
 800116e:	617b      	str	r3, [r7, #20]
    
    /* Check compatibility between FIFO threshold level and size of the memory burst */
    /* for INCR4, INCR8, INCR16 bursts */
    if (hdma->Init.MemBurst != DMA_MBURST_SINGLE)
 8001170:	687b      	ldr	r3, [r7, #4]
 8001172:	6adb      	ldr	r3, [r3, #44]	; 0x2c
 8001174:	2b00      	cmp	r3, #0
 8001176:	d00e      	beq.n	8001196 <HAL_DMA_Init+0x122>
    {
      if (DMA_CheckFifoParam(hdma) != HAL_OK)
 8001178:	6878      	ldr	r0, [r7, #4]
 800117a:	f000 fa6f 	bl	800165c <DMA_CheckFifoParam>
 800117e:	4603      	mov	r3, r0
 8001180:	2b00      	cmp	r3, #0
 8001182:	d008      	beq.n	8001196 <HAL_DMA_Init+0x122>
      {
        /* Update error code */
        hdma->ErrorCode = HAL_DMA_ERROR_PARAM;
 8001184:	687b      	ldr	r3, [r7, #4]
 8001186:	2240      	movs	r2, #64	; 0x40
 8001188:	655a      	str	r2, [r3, #84]	; 0x54
        
        /* Change the DMA state */
        hdma->State = HAL_DMA_STATE_READY;
 800118a:	687b      	ldr	r3, [r7, #4]
 800118c:	2201      	movs	r2, #1
 800118e:	f883 2035 	strb.w	r2, [r3, #53]	; 0x35
        
        return HAL_ERROR; 
 8001192:	2301      	movs	r3, #1
 8001194:	e016      	b.n	80011c4 <HAL_DMA_Init+0x150>
      }
    }
  }
  
  /* Write to DMA Stream FCR */
  hdma->Instance->FCR = tmp;
 8001196:	687b      	ldr	r3, [r7, #4]
 8001198:	681b      	ldr	r3, [r3, #0]
 800119a:	697a      	ldr	r2, [r7, #20]
 800119c:	615a      	str	r2, [r3, #20]

  /* Initialize StreamBaseAddress and StreamIndex parameters to be used to calculate
     DMA steam Base Address needed by HAL_DMA_IRQHandler() and HAL_DMA_PollForTransfer() */
  regs = (DMA_Base_Registers *)DMA_CalcBaseAndBitshift(hdma);
 800119e:	6878      	ldr	r0, [r7, #4]
 80011a0:	f000 fa26 	bl	80015f0 <DMA_CalcBaseAndBitshift>
 80011a4:	4603      	mov	r3, r0
 80011a6:	60fb      	str	r3, [r7, #12]
  
  /* Clear all interrupt flags */
  regs->IFCR = 0x3FU << hdma->StreamIndex;
 80011a8:	687b      	ldr	r3, [r7, #4]
 80011aa:	6ddb      	ldr	r3, [r3, #92]	; 0x5c
 80011ac:	223f      	movs	r2, #63	; 0x3f
 80011ae:	409a      	lsls	r2, r3
 80011b0:	68fb      	ldr	r3, [r7, #12]
 80011b2:	609a      	str	r2, [r3, #8]

  /* Initialize the error code */
  hdma->ErrorCode = HAL_DMA_ERROR_NONE;
 80011b4:	687b      	ldr	r3, [r7, #4]
 80011b6:	2200      	movs	r2, #0
 80011b8:	655a      	str	r2, [r3, #84]	; 0x54
                                                                                     
  /* Initialize the DMA state */
  hdma->State = HAL_DMA_STATE_READY;
 80011ba:	687b      	ldr	r3, [r7, #4]
 80011bc:	2201      	movs	r2, #1
 80011be:	f883 2035 	strb.w	r2, [r3, #53]	; 0x35

  return HAL_OK;
 80011c2:	2300      	movs	r3, #0
}
 80011c4:	4618      	mov	r0, r3
 80011c6:	3718      	adds	r7, #24
 80011c8:	46bd      	mov	sp, r7
 80011ca:	bd80      	pop	{r7, pc}
 80011cc:	f010803f 	.word	0xf010803f

080011d0 <HAL_DMA_Start_IT>:
  * @param  DstAddress The destination memory Buffer address
  * @param  DataLength The length of data to be transferred from source to destination
  * @retval HAL status
  */
HAL_StatusTypeDef HAL_DMA_Start_IT(DMA_HandleTypeDef *hdma, uint32_t SrcAddress, uint32_t DstAddress, uint32_t DataLength)
{
 80011d0:	b580      	push	{r7, lr}
 80011d2:	b086      	sub	sp, #24
 80011d4:	af00      	add	r7, sp, #0
 80011d6:	60f8      	str	r0, [r7, #12]
 80011d8:	60b9      	str	r1, [r7, #8]
 80011da:	607a      	str	r2, [r7, #4]
 80011dc:	603b      	str	r3, [r7, #0]
  HAL_StatusTypeDef status = HAL_OK;
 80011de:	2300      	movs	r3, #0
 80011e0:	75fb      	strb	r3, [r7, #23]

  /* calculate DMA base and stream number */
  DMA_Base_Registers *regs = (DMA_Base_Registers *)hdma->StreamBaseAddress;
 80011e2:	68fb      	ldr	r3, [r7, #12]
 80011e4:	6d9b      	ldr	r3, [r3, #88]	; 0x58
 80011e6:	613b      	str	r3, [r7, #16]
  
  /* Check the parameters */
  assert_param(IS_DMA_BUFFER_SIZE(DataLength));
 
  /* Process locked */
  __HAL_LOCK(hdma);
 80011e8:	68fb      	ldr	r3, [r7, #12]
 80011ea:	f893 3034 	ldrb.w	r3, [r3, #52]	; 0x34
 80011ee:	2b01      	cmp	r3, #1
 80011f0:	d101      	bne.n	80011f6 <HAL_DMA_Start_IT+0x26>
 80011f2:	2302      	movs	r3, #2
 80011f4:	e040      	b.n	8001278 <HAL_DMA_Start_IT+0xa8>
 80011f6:	68fb      	ldr	r3, [r7, #12]
 80011f8:	2201      	movs	r2, #1
 80011fa:	f883 2034 	strb.w	r2, [r3, #52]	; 0x34
  
  if(HAL_DMA_STATE_READY == hdma->State)
 80011fe:	68fb      	ldr	r3, [r7, #12]
 8001200:	f893 3035 	ldrb.w	r3, [r3, #53]	; 0x35
 8001204:	b2db      	uxtb	r3, r3
 8001206:	2b01      	cmp	r3, #1
 8001208:	d12f      	bne.n	800126a <HAL_DMA_Start_IT+0x9a>
  {
    /* Change DMA peripheral state */
    hdma->State = HAL_DMA_STATE_BUSY;
 800120a:	68fb      	ldr	r3, [r7, #12]
 800120c:	2202      	movs	r2, #2
 800120e:	f883 2035 	strb.w	r2, [r3, #53]	; 0x35
    
    /* Initialize the error code */
    hdma->ErrorCode = HAL_DMA_ERROR_NONE;
 8001212:	68fb      	ldr	r3, [r7, #12]
 8001214:	2200      	movs	r2, #0
 8001216:	655a      	str	r2, [r3, #84]	; 0x54
    
    /* Configure the source, destination address and the data length */
    DMA_SetConfig(hdma, SrcAddress, DstAddress, DataLength);
 8001218:	683b      	ldr	r3, [r7, #0]
 800121a:	687a      	ldr	r2, [r7, #4]
 800121c:	68b9      	ldr	r1, [r7, #8]
 800121e:	68f8      	ldr	r0, [r7, #12]
 8001220:	f000 f9b8 	bl	8001594 <DMA_SetConfig>
    
    /* Clear all interrupt flags at correct offset within the register */
    regs->IFCR = 0x3FU << hdma->StreamIndex;
 8001224:	68fb      	ldr	r3, [r7, #12]
 8001226:	6ddb      	ldr	r3, [r3, #92]	; 0x5c
 8001228:	223f      	movs	r2, #63	; 0x3f
 800122a:	409a      	lsls	r2, r3
 800122c:	693b      	ldr	r3, [r7, #16]
 800122e:	609a      	str	r2, [r3, #8]
    
    /* Enable Common interrupts*/
    hdma->Instance->CR  |= DMA_IT_TC | DMA_IT_TE | DMA_IT_DME;
 8001230:	68fb      	ldr	r3, [r7, #12]
 8001232:	681b      	ldr	r3, [r3, #0]
 8001234:	681a      	ldr	r2, [r3, #0]
 8001236:	68fb      	ldr	r3, [r7, #12]
 8001238:	681b      	ldr	r3, [r3, #0]
 800123a:	f042 0216 	orr.w	r2, r2, #22
 800123e:	601a      	str	r2, [r3, #0]
    
    if(hdma->XferHalfCpltCallback != NULL)
 8001240:	68fb      	ldr	r3, [r7, #12]
 8001242:	6c1b      	ldr	r3, [r3, #64]	; 0x40
 8001244:	2b00      	cmp	r3, #0
 8001246:	d007      	beq.n	8001258 <HAL_DMA_Start_IT+0x88>
    {
      hdma->Instance->CR  |= DMA_IT_HT;
 8001248:	68fb      	ldr	r3, [r7, #12]
 800124a:	681b      	ldr	r3, [r3, #0]
 800124c:	681a      	ldr	r2, [r3, #0]
 800124e:	68fb      	ldr	r3, [r7, #12]
 8001250:	681b      	ldr	r3, [r3, #0]
 8001252:	f042 0208 	orr.w	r2, r2, #8
 8001256:	601a      	str	r2, [r3, #0]
    }
    
    /* Enable the Peripheral */
    __HAL_DMA_ENABLE(hdma);
 8001258:	68fb      	ldr	r3, [r7, #12]
 800125a:	681b      	ldr	r3, [r3, #0]
 800125c:	681a      	ldr	r2, [r3, #0]
 800125e:	68fb      	ldr	r3, [r7, #12]
 8001260:	681b      	ldr	r3, [r3, #0]
 8001262:	f042 0201 	orr.w	r2, r2, #1
 8001266:	601a      	str	r2, [r3, #0]
 8001268:	e005      	b.n	8001276 <HAL_DMA_Start_IT+0xa6>
  }
  else
  {
    /* Process unlocked */
    __HAL_UNLOCK(hdma);	  
 800126a:	68fb      	ldr	r3, [r7, #12]
 800126c:	2200      	movs	r2, #0
 800126e:	f883 2034 	strb.w	r2, [r3, #52]	; 0x34
    
    /* Return error status */
    status = HAL_BUSY;
 8001272:	2302      	movs	r3, #2
 8001274:	75fb      	strb	r3, [r7, #23]
  }
  
  return status;
 8001276:	7dfb      	ldrb	r3, [r7, #23]
}
 8001278:	4618      	mov	r0, r3
 800127a:	3718      	adds	r7, #24
 800127c:	46bd      	mov	sp, r7
 800127e:	bd80      	pop	{r7, pc}

08001280 <HAL_DMA_IRQHandler>:
  * @param  hdma pointer to a DMA_HandleTypeDef structure that contains
  *               the configuration information for the specified DMA Stream.  
  * @retval None
  */
void HAL_DMA_IRQHandler(DMA_HandleTypeDef *hdma)
{
 8001280:	b580      	push	{r7, lr}
 8001282:	b086      	sub	sp, #24
 8001284:	af00      	add	r7, sp, #0
 8001286:	6078      	str	r0, [r7, #4]
  uint32_t tmpisr;
  __IO uint32_t count = 0U;
 8001288:	2300      	movs	r3, #0
 800128a:	60bb      	str	r3, [r7, #8]
  uint32_t timeout = SystemCoreClock / 9600U;
 800128c:	4b92      	ldr	r3, [pc, #584]	; (80014d8 <HAL_DMA_IRQHandler+0x258>)
 800128e:	681b      	ldr	r3, [r3, #0]
 8001290:	4a92      	ldr	r2, [pc, #584]	; (80014dc <HAL_DMA_IRQHandler+0x25c>)
 8001292:	fba2 2303 	umull	r2, r3, r2, r3
 8001296:	0a9b      	lsrs	r3, r3, #10
 8001298:	617b      	str	r3, [r7, #20]

  /* calculate DMA base and stream number */
  DMA_Base_Registers *regs = (DMA_Base_Registers *)hdma->StreamBaseAddress;
 800129a:	687b      	ldr	r3, [r7, #4]
 800129c:	6d9b      	ldr	r3, [r3, #88]	; 0x58
 800129e:	613b      	str	r3, [r7, #16]

  tmpisr = regs->ISR;
 80012a0:	693b      	ldr	r3, [r7, #16]
 80012a2:	681b      	ldr	r3, [r3, #0]
 80012a4:	60fb      	str	r3, [r7, #12]

  /* Transfer Error Interrupt management ***************************************/
  if ((tmpisr & (DMA_FLAG_TEIF0_4 << hdma->StreamIndex)) != RESET)
 80012a6:	687b      	ldr	r3, [r7, #4]
 80012a8:	6ddb      	ldr	r3, [r3, #92]	; 0x5c
 80012aa:	2208      	movs	r2, #8
 80012ac:	409a      	lsls	r2, r3
 80012ae:	68fb      	ldr	r3, [r7, #12]
 80012b0:	4013      	ands	r3, r2
 80012b2:	2b00      	cmp	r3, #0
 80012b4:	d01a      	beq.n	80012ec <HAL_DMA_IRQHandler+0x6c>
  {
    if(__HAL_DMA_GET_IT_SOURCE(hdma, DMA_IT_TE) != RESET)
 80012b6:	687b      	ldr	r3, [r7, #4]
 80012b8:	681b      	ldr	r3, [r3, #0]
 80012ba:	681b      	ldr	r3, [r3, #0]
 80012bc:	f003 0304 	and.w	r3, r3, #4
 80012c0:	2b00      	cmp	r3, #0
 80012c2:	d013      	beq.n	80012ec <HAL_DMA_IRQHandler+0x6c>
    {
      /* Disable the transfer error interrupt */
      hdma->Instance->CR  &= ~(DMA_IT_TE);
 80012c4:	687b      	ldr	r3, [r7, #4]
 80012c6:	681b      	ldr	r3, [r3, #0]
 80012c8:	681a      	ldr	r2, [r3, #0]
 80012ca:	687b      	ldr	r3, [r7, #4]
 80012cc:	681b      	ldr	r3, [r3, #0]
 80012ce:	f022 0204 	bic.w	r2, r2, #4
 80012d2:	601a      	str	r2, [r3, #0]
      
      /* Clear the transfer error flag */
      regs->IFCR = DMA_FLAG_TEIF0_4 << hdma->StreamIndex;
 80012d4:	687b      	ldr	r3, [r7, #4]
 80012d6:	6ddb      	ldr	r3, [r3, #92]	; 0x5c
 80012d8:	2208      	movs	r2, #8
 80012da:	409a      	lsls	r2, r3
 80012dc:	693b      	ldr	r3, [r7, #16]
 80012de:	609a      	str	r2, [r3, #8]
      
      /* Update error code */
      hdma->ErrorCode |= HAL_DMA_ERROR_TE;
 80012e0:	687b      	ldr	r3, [r7, #4]
 80012e2:	6d5b      	ldr	r3, [r3, #84]	; 0x54
 80012e4:	f043 0201 	orr.w	r2, r3, #1
 80012e8:	687b      	ldr	r3, [r7, #4]
 80012ea:	655a      	str	r2, [r3, #84]	; 0x54
    }
  }
  /* FIFO Error Interrupt management ******************************************/
  if ((tmpisr & (DMA_FLAG_FEIF0_4 << hdma->StreamIndex)) != RESET)
 80012ec:	687b      	ldr	r3, [r7, #4]
 80012ee:	6ddb      	ldr	r3, [r3, #92]	; 0x5c
 80012f0:	2201      	movs	r2, #1
 80012f2:	409a      	lsls	r2, r3
 80012f4:	68fb      	ldr	r3, [r7, #12]
 80012f6:	4013      	ands	r3, r2
 80012f8:	2b00      	cmp	r3, #0
 80012fa:	d012      	beq.n	8001322 <HAL_DMA_IRQHandler+0xa2>
  {
    if(__HAL_DMA_GET_IT_SOURCE(hdma, DMA_IT_FE) != RESET)
 80012fc:	687b      	ldr	r3, [r7, #4]
 80012fe:	681b      	ldr	r3, [r3, #0]
 8001300:	695b      	ldr	r3, [r3, #20]
 8001302:	f003 0380 	and.w	r3, r3, #128	; 0x80
 8001306:	2b00      	cmp	r3, #0
 8001308:	d00b      	beq.n	8001322 <HAL_DMA_IRQHandler+0xa2>
    {
      /* Clear the FIFO error flag */
      regs->IFCR = DMA_FLAG_FEIF0_4 << hdma->StreamIndex;
 800130a:	687b      	ldr	r3, [r7, #4]
 800130c:	6ddb      	ldr	r3, [r3, #92]	; 0x5c
 800130e:	2201      	movs	r2, #1
 8001310:	409a      	lsls	r2, r3
 8001312:	693b      	ldr	r3, [r7, #16]
 8001314:	609a      	str	r2, [r3, #8]

      /* Update error code */
      hdma->ErrorCode |= HAL_DMA_ERROR_FE;
 8001316:	687b      	ldr	r3, [r7, #4]
 8001318:	6d5b      	ldr	r3, [r3, #84]	; 0x54
 800131a:	f043 0202 	orr.w	r2, r3, #2
 800131e:	687b      	ldr	r3, [r7, #4]
 8001320:	655a      	str	r2, [r3, #84]	; 0x54
    }
  }
  /* Direct Mode Error Interrupt management ***********************************/
  if ((tmpisr & (DMA_FLAG_DMEIF0_4 << hdma->StreamIndex)) != RESET)
 8001322:	687b      	ldr	r3, [r7, #4]
 8001324:	6ddb      	ldr	r3, [r3, #92]	; 0x5c
 8001326:	2204      	movs	r2, #4
 8001328:	409a      	lsls	r2, r3
 800132a:	68fb      	ldr	r3, [r7, #12]
 800132c:	4013      	ands	r3, r2
 800132e:	2b00      	cmp	r3, #0
 8001330:	d012      	beq.n	8001358 <HAL_DMA_IRQHandler+0xd8>
  {
    if(__HAL_DMA_GET_IT_SOURCE(hdma, DMA_IT_DME) != RESET)
 8001332:	687b      	ldr	r3, [r7, #4]
 8001334:	681b      	ldr	r3, [r3, #0]
 8001336:	681b      	ldr	r3, [r3, #0]
 8001338:	f003 0302 	and.w	r3, r3, #2
 800133c:	2b00      	cmp	r3, #0
 800133e:	d00b      	beq.n	8001358 <HAL_DMA_IRQHandler+0xd8>
    {
      /* Clear the direct mode error flag */
      regs->IFCR = DMA_FLAG_DMEIF0_4 << hdma->StreamIndex;
 8001340:	687b      	ldr	r3, [r7, #4]
 8001342:	6ddb      	ldr	r3, [r3, #92]	; 0x5c
 8001344:	2204      	movs	r2, #4
 8001346:	409a      	lsls	r2, r3
 8001348:	693b      	ldr	r3, [r7, #16]
 800134a:	609a      	str	r2, [r3, #8]

      /* Update error code */
      hdma->ErrorCode |= HAL_DMA_ERROR_DME;
 800134c:	687b      	ldr	r3, [r7, #4]
 800134e:	6d5b      	ldr	r3, [r3, #84]	; 0x54
 8001350:	f043 0204 	orr.w	r2, r3, #4
 8001354:	687b      	ldr	r3, [r7, #4]
 8001356:	655a      	str	r2, [r3, #84]	; 0x54
    }
  }
  /* Half Transfer Complete Interrupt management ******************************/
  if ((tmpisr & (DMA_FLAG_HTIF0_4 << hdma->StreamIndex)) != RESET)
 8001358:	687b      	ldr	r3, [r7, #4]
 800135a:	6ddb      	ldr	r3, [r3, #92]	; 0x5c
 800135c:	2210      	movs	r2, #16
 800135e:	409a      	lsls	r2, r3
 8001360:	68fb      	ldr	r3, [r7, #12]
 8001362:	4013      	ands	r3, r2
 8001364:	2b00      	cmp	r3, #0
 8001366:	d043      	beq.n	80013f0 <HAL_DMA_IRQHandler+0x170>
  {
    if(__HAL_DMA_GET_IT_SOURCE(hdma, DMA_IT_HT) != RESET)
 8001368:	687b      	ldr	r3, [r7, #4]
 800136a:	681b      	ldr	r3, [r3, #0]
 800136c:	681b      	ldr	r3, [r3, #0]
 800136e:	f003 0308 	and.w	r3, r3, #8
 8001372:	2b00      	cmp	r3, #0
 8001374:	d03c      	beq.n	80013f0 <HAL_DMA_IRQHandler+0x170>
    {
      /* Clear the half transfer complete flag */
      regs->IFCR = DMA_FLAG_HTIF0_4 << hdma->StreamIndex;
 8001376:	687b      	ldr	r3, [r7, #4]
 8001378:	6ddb      	ldr	r3, [r3, #92]	; 0x5c
 800137a:	2210      	movs	r2, #16
 800137c:	409a      	lsls	r2, r3
 800137e:	693b      	ldr	r3, [r7, #16]
 8001380:	609a      	str	r2, [r3, #8]
      
      /* Multi_Buffering mode enabled */
      if(((hdma->Instance->CR) & (uint32_t)(DMA_SxCR_DBM)) != RESET)
 8001382:	687b      	ldr	r3, [r7, #4]
 8001384:	681b      	ldr	r3, [r3, #0]
 8001386:	681b      	ldr	r3, [r3, #0]
 8001388:	f403 2380 	and.w	r3, r3, #262144	; 0x40000
 800138c:	2b00      	cmp	r3, #0
 800138e:	d018      	beq.n	80013c2 <HAL_DMA_IRQHandler+0x142>
      {
        /* Current memory buffer used is Memory 0 */
        if((hdma->Instance->CR & DMA_SxCR_CT) == RESET)
 8001390:	687b      	ldr	r3, [r7, #4]
 8001392:	681b      	ldr	r3, [r3, #0]
 8001394:	681b      	ldr	r3, [r3, #0]
 8001396:	f403 2300 	and.w	r3, r3, #524288	; 0x80000
 800139a:	2b00      	cmp	r3, #0
 800139c:	d108      	bne.n	80013b0 <HAL_DMA_IRQHandler+0x130>
        {
          if(hdma->XferHalfCpltCallback != NULL)
 800139e:	687b      	ldr	r3, [r7, #4]
 80013a0:	6c1b      	ldr	r3, [r3, #64]	; 0x40
 80013a2:	2b00      	cmp	r3, #0
 80013a4:	d024      	beq.n	80013f0 <HAL_DMA_IRQHandler+0x170>
          {
            /* Half transfer callback */
            hdma->XferHalfCpltCallback(hdma);
 80013a6:	687b      	ldr	r3, [r7, #4]
 80013a8:	6c1b      	ldr	r3, [r3, #64]	; 0x40
 80013aa:	6878      	ldr	r0, [r7, #4]
 80013ac:	4798      	blx	r3
 80013ae:	e01f      	b.n	80013f0 <HAL_DMA_IRQHandler+0x170>
          }
        }
        /* Current memory buffer used is Memory 1 */
        else
        {
          if(hdma->XferM1HalfCpltCallback != NULL)
 80013b0:	687b      	ldr	r3, [r7, #4]
 80013b2:	6c9b      	ldr	r3, [r3, #72]	; 0x48
 80013b4:	2b00      	cmp	r3, #0
 80013b6:	d01b      	beq.n	80013f0 <HAL_DMA_IRQHandler+0x170>
          {
            /* Half transfer callback */
            hdma->XferM1HalfCpltCallback(hdma);
 80013b8:	687b      	ldr	r3, [r7, #4]
 80013ba:	6c9b      	ldr	r3, [r3, #72]	; 0x48
 80013bc:	6878      	ldr	r0, [r7, #4]
 80013be:	4798      	blx	r3
 80013c0:	e016      	b.n	80013f0 <HAL_DMA_IRQHandler+0x170>
        }
      }
      else
      {
        /* Disable the half transfer interrupt if the DMA mode is not CIRCULAR */
        if((hdma->Instance->CR & DMA_SxCR_CIRC) == RESET)
 80013c2:	687b      	ldr	r3, [r7, #4]
 80013c4:	681b      	ldr	r3, [r3, #0]
 80013c6:	681b      	ldr	r3, [r3, #0]
 80013c8:	f403 7380 	and.w	r3, r3, #256	; 0x100
 80013cc:	2b00      	cmp	r3, #0
 80013ce:	d107      	bne.n	80013e0 <HAL_DMA_IRQHandler+0x160>
        {
          /* Disable the half transfer interrupt */
          hdma->Instance->CR  &= ~(DMA_IT_HT);
 80013d0:	687b      	ldr	r3, [r7, #4]
 80013d2:	681b      	ldr	r3, [r3, #0]
 80013d4:	681a      	ldr	r2, [r3, #0]
 80013d6:	687b      	ldr	r3, [r7, #4]
 80013d8:	681b      	ldr	r3, [r3, #0]
 80013da:	f022 0208 	bic.w	r2, r2, #8
 80013de:	601a      	str	r2, [r3, #0]
        }
        
        if(hdma->XferHalfCpltCallback != NULL)
 80013e0:	687b      	ldr	r3, [r7, #4]
 80013e2:	6c1b      	ldr	r3, [r3, #64]	; 0x40
 80013e4:	2b00      	cmp	r3, #0
 80013e6:	d003      	beq.n	80013f0 <HAL_DMA_IRQHandler+0x170>
        {
          /* Half transfer callback */
          hdma->XferHalfCpltCallback(hdma);
 80013e8:	687b      	ldr	r3, [r7, #4]
 80013ea:	6c1b      	ldr	r3, [r3, #64]	; 0x40
 80013ec:	6878      	ldr	r0, [r7, #4]
 80013ee:	4798      	blx	r3
        }
      }
    }
  }
  /* Transfer Complete Interrupt management ***********************************/
  if ((tmpisr & (DMA_FLAG_TCIF0_4 << hdma->StreamIndex)) != RESET)
 80013f0:	687b      	ldr	r3, [r7, #4]
 80013f2:	6ddb      	ldr	r3, [r3, #92]	; 0x5c
 80013f4:	2220      	movs	r2, #32
 80013f6:	409a      	lsls	r2, r3
 80013f8:	68fb      	ldr	r3, [r7, #12]
 80013fa:	4013      	ands	r3, r2
 80013fc:	2b00      	cmp	r3, #0
 80013fe:	f000 808e 	beq.w	800151e <HAL_DMA_IRQHandler+0x29e>
  {
    if(__HAL_DMA_GET_IT_SOURCE(hdma, DMA_IT_TC) != RESET)
 8001402:	687b      	ldr	r3, [r7, #4]
 8001404:	681b      	ldr	r3, [r3, #0]
 8001406:	681b      	ldr	r3, [r3, #0]
 8001408:	f003 0310 	and.w	r3, r3, #16
 800140c:	2b00      	cmp	r3, #0
 800140e:	f000 8086 	beq.w	800151e <HAL_DMA_IRQHandler+0x29e>
    {
      /* Clear the transfer complete flag */
      regs->IFCR = DMA_FLAG_TCIF0_4 << hdma->StreamIndex;
 8001412:	687b      	ldr	r3, [r7, #4]
 8001414:	6ddb      	ldr	r3, [r3, #92]	; 0x5c
 8001416:	2220      	movs	r2, #32
 8001418:	409a      	lsls	r2, r3
 800141a:	693b      	ldr	r3, [r7, #16]
 800141c:	609a      	str	r2, [r3, #8]
      
      if(HAL_DMA_STATE_ABORT == hdma->State)
 800141e:	687b      	ldr	r3, [r7, #4]
 8001420:	f893 3035 	ldrb.w	r3, [r3, #53]	; 0x35
 8001424:	b2db      	uxtb	r3, r3
 8001426:	2b05      	cmp	r3, #5
 8001428:	d136      	bne.n	8001498 <HAL_DMA_IRQHandler+0x218>
      {
        /* Disable all the transfer interrupts */
        hdma->Instance->CR  &= ~(DMA_IT_TC | DMA_IT_TE | DMA_IT_DME);
 800142a:	687b      	ldr	r3, [r7, #4]
 800142c:	681b      	ldr	r3, [r3, #0]
 800142e:	681a      	ldr	r2, [r3, #0]
 8001430:	687b      	ldr	r3, [r7, #4]
 8001432:	681b      	ldr	r3, [r3, #0]
 8001434:	f022 0216 	bic.w	r2, r2, #22
 8001438:	601a      	str	r2, [r3, #0]
        hdma->Instance->FCR &= ~(DMA_IT_FE);
 800143a:	687b      	ldr	r3, [r7, #4]
 800143c:	681b      	ldr	r3, [r3, #0]
 800143e:	695a      	ldr	r2, [r3, #20]
 8001440:	687b      	ldr	r3, [r7, #4]
 8001442:	681b      	ldr	r3, [r3, #0]
 8001444:	f022 0280 	bic.w	r2, r2, #128	; 0x80
 8001448:	615a      	str	r2, [r3, #20]
        
        if((hdma->XferHalfCpltCallback != NULL) || (hdma->XferM1HalfCpltCallback != NULL))
 800144a:	687b      	ldr	r3, [r7, #4]
 800144c:	6c1b      	ldr	r3, [r3, #64]	; 0x40
 800144e:	2b00      	cmp	r3, #0
 8001450:	d103      	bne.n	800145a <HAL_DMA_IRQHandler+0x1da>
 8001452:	687b      	ldr	r3, [r7, #4]
 8001454:	6c9b      	ldr	r3, [r3, #72]	; 0x48
 8001456:	2b00      	cmp	r3, #0
 8001458:	d007      	beq.n	800146a <HAL_DMA_IRQHandler+0x1ea>
        {
          hdma->Instance->CR  &= ~(DMA_IT_HT);
 800145a:	687b      	ldr	r3, [r7, #4]
 800145c:	681b      	ldr	r3, [r3, #0]
 800145e:	681a      	ldr	r2, [r3, #0]
 8001460:	687b      	ldr	r3, [r7, #4]
 8001462:	681b      	ldr	r3, [r3, #0]
 8001464:	f022 0208 	bic.w	r2, r2, #8
 8001468:	601a      	str	r2, [r3, #0]
        }

        /* Clear all interrupt flags at correct offset within the register */
        regs->IFCR = 0x3FU << hdma->StreamIndex;
 800146a:	687b      	ldr	r3, [r7, #4]
 800146c:	6ddb      	ldr	r3, [r3, #92]	; 0x5c
 800146e:	223f      	movs	r2, #63	; 0x3f
 8001470:	409a      	lsls	r2, r3
 8001472:	693b      	ldr	r3, [r7, #16]
 8001474:	609a      	str	r2, [r3, #8]

        /* Process Unlocked */
        __HAL_UNLOCK(hdma);
 8001476:	687b      	ldr	r3, [r7, #4]
 8001478:	2200      	movs	r2, #0
 800147a:	f883 2034 	strb.w	r2, [r3, #52]	; 0x34

        /* Change the DMA state */
        hdma->State = HAL_DMA_STATE_READY;
 800147e:	687b      	ldr	r3, [r7, #4]
 8001480:	2201      	movs	r2, #1
 8001482:	f883 2035 	strb.w	r2, [r3, #53]	; 0x35

        if(hdma->XferAbortCallback != NULL)
 8001486:	687b      	ldr	r3, [r7, #4]
 8001488:	6d1b      	ldr	r3, [r3, #80]	; 0x50
 800148a:	2b00      	cmp	r3, #0
 800148c:	d07d      	beq.n	800158a <HAL_DMA_IRQHandler+0x30a>
        {
          hdma->XferAbortCallback(hdma);
 800148e:	687b      	ldr	r3, [r7, #4]
 8001490:	6d1b      	ldr	r3, [r3, #80]	; 0x50
 8001492:	6878      	ldr	r0, [r7, #4]
 8001494:	4798      	blx	r3
        }
        return;
 8001496:	e078      	b.n	800158a <HAL_DMA_IRQHandler+0x30a>
      }

      if(((hdma->Instance->CR) & (uint32_t)(DMA_SxCR_DBM)) != RESET)
 8001498:	687b      	ldr	r3, [r7, #4]
 800149a:	681b      	ldr	r3, [r3, #0]
 800149c:	681b      	ldr	r3, [r3, #0]
 800149e:	f403 2380 	and.w	r3, r3, #262144	; 0x40000
 80014a2:	2b00      	cmp	r3, #0
 80014a4:	d01c      	beq.n	80014e0 <HAL_DMA_IRQHandler+0x260>
      {
        /* Current memory buffer used is Memory 0 */
        if((hdma->Instance->CR & DMA_SxCR_CT) == RESET)
 80014a6:	687b      	ldr	r3, [r7, #4]
 80014a8:	681b      	ldr	r3, [r3, #0]
 80014aa:	681b      	ldr	r3, [r3, #0]
 80014ac:	f403 2300 	and.w	r3, r3, #524288	; 0x80000
 80014b0:	2b00      	cmp	r3, #0
 80014b2:	d108      	bne.n	80014c6 <HAL_DMA_IRQHandler+0x246>
        {
          if(hdma->XferM1CpltCallback != NULL)
 80014b4:	687b      	ldr	r3, [r7, #4]
 80014b6:	6c5b      	ldr	r3, [r3, #68]	; 0x44
 80014b8:	2b00      	cmp	r3, #0
 80014ba:	d030      	beq.n	800151e <HAL_DMA_IRQHandler+0x29e>
          {
            /* Transfer complete Callback for memory1 */
            hdma->XferM1CpltCallback(hdma);
 80014bc:	687b      	ldr	r3, [r7, #4]
 80014be:	6c5b      	ldr	r3, [r3, #68]	; 0x44
 80014c0:	6878      	ldr	r0, [r7, #4]
 80014c2:	4798      	blx	r3
 80014c4:	e02b      	b.n	800151e <HAL_DMA_IRQHandler+0x29e>
          }
        }
        /* Current memory buffer used is Memory 1 */
        else
        {
          if(hdma->XferCpltCallback != NULL)
 80014c6:	687b      	ldr	r3, [r7, #4]
 80014c8:	6bdb      	ldr	r3, [r3, #60]	; 0x3c
 80014ca:	2b00      	cmp	r3, #0
 80014cc:	d027      	beq.n	800151e <HAL_DMA_IRQHandler+0x29e>
          {
            /* Transfer complete Callback for memory0 */
            hdma->XferCpltCallback(hdma);
 80014ce:	687b      	ldr	r3, [r7, #4]
 80014d0:	6bdb      	ldr	r3, [r3, #60]	; 0x3c
 80014d2:	6878      	ldr	r0, [r7, #4]
 80014d4:	4798      	blx	r3
 80014d6:	e022      	b.n	800151e <HAL_DMA_IRQHandler+0x29e>
 80014d8:	20000000 	.word	0x20000000
 80014dc:	1b4e81b5 	.word	0x1b4e81b5
        }
      }
      /* Disable the transfer complete interrupt if the DMA mode is not CIRCULAR */
      else
      {
        if((hdma->Instance->CR & DMA_SxCR_CIRC) == RESET)
 80014e0:	687b      	ldr	r3, [r7, #4]
 80014e2:	681b      	ldr	r3, [r3, #0]
 80014e4:	681b      	ldr	r3, [r3, #0]
 80014e6:	f403 7380 	and.w	r3, r3, #256	; 0x100
 80014ea:	2b00      	cmp	r3, #0
 80014ec:	d10f      	bne.n	800150e <HAL_DMA_IRQHandler+0x28e>
        {
          /* Disable the transfer complete interrupt */
          hdma->Instance->CR  &= ~(DMA_IT_TC);
 80014ee:	687b      	ldr	r3, [r7, #4]
 80014f0:	681b      	ldr	r3, [r3, #0]
 80014f2:	681a      	ldr	r2, [r3, #0]
 80014f4:	687b      	ldr	r3, [r7, #4]
 80014f6:	681b      	ldr	r3, [r3, #0]
 80014f8:	f022 0210 	bic.w	r2, r2, #16
 80014fc:	601a      	str	r2, [r3, #0]

          /* Process Unlocked */
          __HAL_UNLOCK(hdma);
 80014fe:	687b      	ldr	r3, [r7, #4]
 8001500:	2200      	movs	r2, #0
 8001502:	f883 2034 	strb.w	r2, [r3, #52]	; 0x34

          /* Change the DMA state */
          hdma->State = HAL_DMA_STATE_READY;
 8001506:	687b      	ldr	r3, [r7, #4]
 8001508:	2201      	movs	r2, #1
 800150a:	f883 2035 	strb.w	r2, [r3, #53]	; 0x35
        }

        if(hdma->XferCpltCallback != NULL)
 800150e:	687b      	ldr	r3, [r7, #4]
 8001510:	6bdb      	ldr	r3, [r3, #60]	; 0x3c
 8001512:	2b00      	cmp	r3, #0
 8001514:	d003      	beq.n	800151e <HAL_DMA_IRQHandler+0x29e>
        {
          /* Transfer complete callback */
          hdma->XferCpltCallback(hdma);
 8001516:	687b      	ldr	r3, [r7, #4]
 8001518:	6bdb      	ldr	r3, [r3, #60]	; 0x3c
 800151a:	6878      	ldr	r0, [r7, #4]
 800151c:	4798      	blx	r3
      }
    }
  }
  
  /* manage error case */
  if(hdma->ErrorCode != HAL_DMA_ERROR_NONE)
 800151e:	687b      	ldr	r3, [r7, #4]
 8001520:	6d5b      	ldr	r3, [r3, #84]	; 0x54
 8001522:	2b00      	cmp	r3, #0
 8001524:	d032      	beq.n	800158c <HAL_DMA_IRQHandler+0x30c>
  {
    if((hdma->ErrorCode & HAL_DMA_ERROR_TE) != RESET)
 8001526:	687b      	ldr	r3, [r7, #4]
 8001528:	6d5b      	ldr	r3, [r3, #84]	; 0x54
 800152a:	f003 0301 	and.w	r3, r3, #1
 800152e:	2b00      	cmp	r3, #0
 8001530:	d022      	beq.n	8001578 <HAL_DMA_IRQHandler+0x2f8>
    {
      hdma->State = HAL_DMA_STATE_ABORT;
 8001532:	687b      	ldr	r3, [r7, #4]
 8001534:	2205      	movs	r2, #5
 8001536:	f883 2035 	strb.w	r2, [r3, #53]	; 0x35

      /* Disable the stream */
      __HAL_DMA_DISABLE(hdma);
 800153a:	687b      	ldr	r3, [r7, #4]
 800153c:	681b      	ldr	r3, [r3, #0]
 800153e:	681a      	ldr	r2, [r3, #0]
 8001540:	687b      	ldr	r3, [r7, #4]
 8001542:	681b      	ldr	r3, [r3, #0]
 8001544:	f022 0201 	bic.w	r2, r2, #1
 8001548:	601a      	str	r2, [r3, #0]

      do
      {
        if (++count > timeout)
 800154a:	68bb      	ldr	r3, [r7, #8]
 800154c:	3301      	adds	r3, #1
 800154e:	60bb      	str	r3, [r7, #8]
 8001550:	697a      	ldr	r2, [r7, #20]
 8001552:	429a      	cmp	r2, r3
 8001554:	d307      	bcc.n	8001566 <HAL_DMA_IRQHandler+0x2e6>
        {
          break;
        }
      }
      while((hdma->Instance->CR & DMA_SxCR_EN) != RESET);
 8001556:	687b      	ldr	r3, [r7, #4]
 8001558:	681b      	ldr	r3, [r3, #0]
 800155a:	681b      	ldr	r3, [r3, #0]
 800155c:	f003 0301 	and.w	r3, r3, #1
 8001560:	2b00      	cmp	r3, #0
 8001562:	d1f2      	bne.n	800154a <HAL_DMA_IRQHandler+0x2ca>
 8001564:	e000      	b.n	8001568 <HAL_DMA_IRQHandler+0x2e8>
          break;
 8001566:	bf00      	nop

      /* Process Unlocked */
      __HAL_UNLOCK(hdma);
 8001568:	687b      	ldr	r3, [r7, #4]
 800156a:	2200      	movs	r2, #0
 800156c:	f883 2034 	strb.w	r2, [r3, #52]	; 0x34

      /* Change the DMA state */
      hdma->State = HAL_DMA_STATE_READY;
 8001570:	687b      	ldr	r3, [r7, #4]
 8001572:	2201      	movs	r2, #1
 8001574:	f883 2035 	strb.w	r2, [r3, #53]	; 0x35
    }

    if(hdma->XferErrorCallback != NULL)
 8001578:	687b      	ldr	r3, [r7, #4]
 800157a:	6cdb      	ldr	r3, [r3, #76]	; 0x4c
 800157c:	2b00      	cmp	r3, #0
 800157e:	d005      	beq.n	800158c <HAL_DMA_IRQHandler+0x30c>
    {
      /* Transfer error callback */
      hdma->XferErrorCallback(hdma);
 8001580:	687b      	ldr	r3, [r7, #4]
 8001582:	6cdb      	ldr	r3, [r3, #76]	; 0x4c
 8001584:	6878      	ldr	r0, [r7, #4]
 8001586:	4798      	blx	r3
 8001588:	e000      	b.n	800158c <HAL_DMA_IRQHandler+0x30c>
        return;
 800158a:	bf00      	nop
    }
  }
}
 800158c:	3718      	adds	r7, #24
 800158e:	46bd      	mov	sp, r7
 8001590:	bd80      	pop	{r7, pc}
 8001592:	bf00      	nop

08001594 <DMA_SetConfig>:
  * @param  DstAddress The destination memory Buffer address
  * @param  DataLength The length of data to be transferred from source to destination
  * @retval HAL status
  */
static void DMA_SetConfig(DMA_HandleTypeDef *hdma, uint32_t SrcAddress, uint32_t DstAddress, uint32_t DataLength)
{
 8001594:	b480      	push	{r7}
 8001596:	b085      	sub	sp, #20
 8001598:	af00      	add	r7, sp, #0
 800159a:	60f8      	str	r0, [r7, #12]
 800159c:	60b9      	str	r1, [r7, #8]
 800159e:	607a      	str	r2, [r7, #4]
 80015a0:	603b      	str	r3, [r7, #0]
  /* Clear DBM bit */
  hdma->Instance->CR &= (uint32_t)(~DMA_SxCR_DBM);
 80015a2:	68fb      	ldr	r3, [r7, #12]
 80015a4:	681b      	ldr	r3, [r3, #0]
 80015a6:	681a      	ldr	r2, [r3, #0]
 80015a8:	68fb      	ldr	r3, [r7, #12]
 80015aa:	681b      	ldr	r3, [r3, #0]
 80015ac:	f422 2280 	bic.w	r2, r2, #262144	; 0x40000
 80015b0:	601a      	str	r2, [r3, #0]

  /* Configure DMA Stream data length */
  hdma->Instance->NDTR = DataLength;
 80015b2:	68fb      	ldr	r3, [r7, #12]
 80015b4:	681b      	ldr	r3, [r3, #0]
 80015b6:	683a      	ldr	r2, [r7, #0]
 80015b8:	605a      	str	r2, [r3, #4]

  /* Memory to Peripheral */
  if((hdma->Init.Direction) == DMA_MEMORY_TO_PERIPH)
 80015ba:	68fb      	ldr	r3, [r7, #12]
 80015bc:	689b      	ldr	r3, [r3, #8]
 80015be:	2b40      	cmp	r3, #64	; 0x40
 80015c0:	d108      	bne.n	80015d4 <DMA_SetConfig+0x40>
  {
    /* Configure DMA Stream destination address */
    hdma->Instance->PAR = DstAddress;
 80015c2:	68fb      	ldr	r3, [r7, #12]
 80015c4:	681b      	ldr	r3, [r3, #0]
 80015c6:	687a      	ldr	r2, [r7, #4]
 80015c8:	609a      	str	r2, [r3, #8]

    /* Configure DMA Stream source address */
    hdma->Instance->M0AR = SrcAddress;
 80015ca:	68fb      	ldr	r3, [r7, #12]
 80015cc:	681b      	ldr	r3, [r3, #0]
 80015ce:	68ba      	ldr	r2, [r7, #8]
 80015d0:	60da      	str	r2, [r3, #12]
    hdma->Instance->PAR = SrcAddress;

    /* Configure DMA Stream destination address */
    hdma->Instance->M0AR = DstAddress;
  }
}
 80015d2:	e007      	b.n	80015e4 <DMA_SetConfig+0x50>
    hdma->Instance->PAR = SrcAddress;
 80015d4:	68fb      	ldr	r3, [r7, #12]
 80015d6:	681b      	ldr	r3, [r3, #0]
 80015d8:	68ba      	ldr	r2, [r7, #8]
 80015da:	609a      	str	r2, [r3, #8]
    hdma->Instance->M0AR = DstAddress;
 80015dc:	68fb      	ldr	r3, [r7, #12]
 80015de:	681b      	ldr	r3, [r3, #0]
 80015e0:	687a      	ldr	r2, [r7, #4]
 80015e2:	60da      	str	r2, [r3, #12]
}
 80015e4:	bf00      	nop
 80015e6:	3714      	adds	r7, #20
 80015e8:	46bd      	mov	sp, r7
 80015ea:	f85d 7b04 	ldr.w	r7, [sp], #4
 80015ee:	4770      	bx	lr

080015f0 <DMA_CalcBaseAndBitshift>:
  * @param  hdma       pointer to a DMA_HandleTypeDef structure that contains
  *                     the configuration information for the specified DMA Stream. 
  * @retval Stream base address
  */
static uint32_t DMA_CalcBaseAndBitshift(DMA_HandleTypeDef *hdma)
{
 80015f0:	b480      	push	{r7}
 80015f2:	b085      	sub	sp, #20
 80015f4:	af00      	add	r7, sp, #0
 80015f6:	6078      	str	r0, [r7, #4]
  uint32_t stream_number = (((uint32_t)hdma->Instance & 0xFFU) - 16U) / 24U;
 80015f8:	687b      	ldr	r3, [r7, #4]
 80015fa:	681b      	ldr	r3, [r3, #0]
 80015fc:	b2db      	uxtb	r3, r3
 80015fe:	3b10      	subs	r3, #16
 8001600:	4a14      	ldr	r2, [pc, #80]	; (8001654 <DMA_CalcBaseAndBitshift+0x64>)
 8001602:	fba2 2303 	umull	r2, r3, r2, r3
 8001606:	091b      	lsrs	r3, r3, #4
 8001608:	60fb      	str	r3, [r7, #12]
  
  /* lookup table for necessary bitshift of flags within status registers */
  static const uint8_t flagBitshiftOffset[8U] = {0U, 6U, 16U, 22U, 0U, 6U, 16U, 22U};
  hdma->StreamIndex = flagBitshiftOffset[stream_number];
 800160a:	4a13      	ldr	r2, [pc, #76]	; (8001658 <DMA_CalcBaseAndBitshift+0x68>)
 800160c:	68fb      	ldr	r3, [r7, #12]
 800160e:	4413      	add	r3, r2
 8001610:	781b      	ldrb	r3, [r3, #0]
 8001612:	461a      	mov	r2, r3
 8001614:	687b      	ldr	r3, [r7, #4]
 8001616:	65da      	str	r2, [r3, #92]	; 0x5c
  
  if (stream_number > 3U)
 8001618:	68fb      	ldr	r3, [r7, #12]
 800161a:	2b03      	cmp	r3, #3
 800161c:	d909      	bls.n	8001632 <DMA_CalcBaseAndBitshift+0x42>
  {
    /* return pointer to HISR and HIFCR */
    hdma->StreamBaseAddress = (((uint32_t)hdma->Instance & (uint32_t)(~0x3FFU)) + 4U);
 800161e:	687b      	ldr	r3, [r7, #4]
 8001620:	681b      	ldr	r3, [r3, #0]
 8001622:	f423 737f 	bic.w	r3, r3, #1020	; 0x3fc
 8001626:	f023 0303 	bic.w	r3, r3, #3
 800162a:	1d1a      	adds	r2, r3, #4
 800162c:	687b      	ldr	r3, [r7, #4]
 800162e:	659a      	str	r2, [r3, #88]	; 0x58
 8001630:	e007      	b.n	8001642 <DMA_CalcBaseAndBitshift+0x52>
  }
  else
  {
    /* return pointer to LISR and LIFCR */
    hdma->StreamBaseAddress = ((uint32_t)hdma->Instance & (uint32_t)(~0x3FFU));
 8001632:	687b      	ldr	r3, [r7, #4]
 8001634:	681b      	ldr	r3, [r3, #0]
 8001636:	f423 737f 	bic.w	r3, r3, #1020	; 0x3fc
 800163a:	f023 0303 	bic.w	r3, r3, #3
 800163e:	687a      	ldr	r2, [r7, #4]
 8001640:	6593      	str	r3, [r2, #88]	; 0x58
  }
  
  return hdma->StreamBaseAddress;
 8001642:	687b      	ldr	r3, [r7, #4]
 8001644:	6d9b      	ldr	r3, [r3, #88]	; 0x58
}
 8001646:	4618      	mov	r0, r3
 8001648:	3714      	adds	r7, #20
 800164a:	46bd      	mov	sp, r7
 800164c:	f85d 7b04 	ldr.w	r7, [sp], #4
 8001650:	4770      	bx	lr
 8001652:	bf00      	nop
 8001654:	aaaaaaab 	.word	0xaaaaaaab
 8001658:	080032f0 	.word	0x080032f0

0800165c <DMA_CheckFifoParam>:
  * @param  hdma       pointer to a DMA_HandleTypeDef structure that contains
  *                     the configuration information for the specified DMA Stream. 
  * @retval HAL status
  */
static HAL_StatusTypeDef DMA_CheckFifoParam(DMA_HandleTypeDef *hdma)
{
 800165c:	b480      	push	{r7}
 800165e:	b085      	sub	sp, #20
 8001660:	af00      	add	r7, sp, #0
 8001662:	6078      	str	r0, [r7, #4]
  HAL_StatusTypeDef status = HAL_OK;
 8001664:	2300      	movs	r3, #0
 8001666:	73fb      	strb	r3, [r7, #15]
  uint32_t tmp = hdma->Init.FIFOThreshold;
 8001668:	687b      	ldr	r3, [r7, #4]
 800166a:	6a9b      	ldr	r3, [r3, #40]	; 0x28
 800166c:	60bb      	str	r3, [r7, #8]
  
  /* Memory Data size equal to Byte */
  if(hdma->Init.MemDataAlignment == DMA_MDATAALIGN_BYTE)
 800166e:	687b      	ldr	r3, [r7, #4]
 8001670:	699b      	ldr	r3, [r3, #24]
 8001672:	2b00      	cmp	r3, #0
 8001674:	d11f      	bne.n	80016b6 <DMA_CheckFifoParam+0x5a>
 8001676:	68bb      	ldr	r3, [r7, #8]
 8001678:	2b03      	cmp	r3, #3
 800167a:	d856      	bhi.n	800172a <DMA_CheckFifoParam+0xce>
 800167c:	a201      	add	r2, pc, #4	; (adr r2, 8001684 <DMA_CheckFifoParam+0x28>)
 800167e:	f852 f023 	ldr.w	pc, [r2, r3, lsl #2]
 8001682:	bf00      	nop
 8001684:	08001695 	.word	0x08001695
 8001688:	080016a7 	.word	0x080016a7
 800168c:	08001695 	.word	0x08001695
 8001690:	0800172b 	.word	0x0800172b
  {
    switch (tmp)
    {
    case DMA_FIFO_THRESHOLD_1QUARTERFULL:
    case DMA_FIFO_THRESHOLD_3QUARTERSFULL:
      if ((hdma->Init.MemBurst & DMA_SxCR_MBURST_1) == DMA_SxCR_MBURST_1)
 8001694:	687b      	ldr	r3, [r7, #4]
 8001696:	6adb      	ldr	r3, [r3, #44]	; 0x2c
 8001698:	f003 7380 	and.w	r3, r3, #16777216	; 0x1000000
 800169c:	2b00      	cmp	r3, #0
 800169e:	d046      	beq.n	800172e <DMA_CheckFifoParam+0xd2>
      {
        status = HAL_ERROR;
 80016a0:	2301      	movs	r3, #1
 80016a2:	73fb      	strb	r3, [r7, #15]
      }
      break;
 80016a4:	e043      	b.n	800172e <DMA_CheckFifoParam+0xd2>
    case DMA_FIFO_THRESHOLD_HALFFULL:
      if (hdma->Init.MemBurst == DMA_MBURST_INC16)
 80016a6:	687b      	ldr	r3, [r7, #4]
 80016a8:	6adb      	ldr	r3, [r3, #44]	; 0x2c
 80016aa:	f1b3 7fc0 	cmp.w	r3, #25165824	; 0x1800000
 80016ae:	d140      	bne.n	8001732 <DMA_CheckFifoParam+0xd6>
      {
        status = HAL_ERROR;
 80016b0:	2301      	movs	r3, #1
 80016b2:	73fb      	strb	r3, [r7, #15]
      }
      break;
 80016b4:	e03d      	b.n	8001732 <DMA_CheckFifoParam+0xd6>
      break;
    }
  }
  
  /* Memory Data size equal to Half-Word */
  else if (hdma->Init.MemDataAlignment == DMA_MDATAALIGN_HALFWORD)
 80016b6:	687b      	ldr	r3, [r7, #4]
 80016b8:	699b      	ldr	r3, [r3, #24]
 80016ba:	f5b3 5f00 	cmp.w	r3, #8192	; 0x2000
 80016be:	d121      	bne.n	8001704 <DMA_CheckFifoParam+0xa8>
 80016c0:	68bb      	ldr	r3, [r7, #8]
 80016c2:	2b03      	cmp	r3, #3
 80016c4:	d837      	bhi.n	8001736 <DMA_CheckFifoParam+0xda>
 80016c6:	a201      	add	r2, pc, #4	; (adr r2, 80016cc <DMA_CheckFifoParam+0x70>)
 80016c8:	f852 f023 	ldr.w	pc, [r2, r3, lsl #2]
 80016cc:	080016dd 	.word	0x080016dd
 80016d0:	080016e3 	.word	0x080016e3
 80016d4:	080016dd 	.word	0x080016dd
 80016d8:	080016f5 	.word	0x080016f5
  {
    switch (tmp)
    {
    case DMA_FIFO_THRESHOLD_1QUARTERFULL:
    case DMA_FIFO_THRESHOLD_3QUARTERSFULL:
      status = HAL_ERROR;
 80016dc:	2301      	movs	r3, #1
 80016de:	73fb      	strb	r3, [r7, #15]
      break;
 80016e0:	e030      	b.n	8001744 <DMA_CheckFifoParam+0xe8>
    case DMA_FIFO_THRESHOLD_HALFFULL:
      if ((hdma->Init.MemBurst & DMA_SxCR_MBURST_1) == DMA_SxCR_MBURST_1)
 80016e2:	687b      	ldr	r3, [r7, #4]
 80016e4:	6adb      	ldr	r3, [r3, #44]	; 0x2c
 80016e6:	f003 7380 	and.w	r3, r3, #16777216	; 0x1000000
 80016ea:	2b00      	cmp	r3, #0
 80016ec:	d025      	beq.n	800173a <DMA_CheckFifoParam+0xde>
      {
        status = HAL_ERROR;
 80016ee:	2301      	movs	r3, #1
 80016f0:	73fb      	strb	r3, [r7, #15]
      }
      break;
 80016f2:	e022      	b.n	800173a <DMA_CheckFifoParam+0xde>
    case DMA_FIFO_THRESHOLD_FULL:
      if (hdma->Init.MemBurst == DMA_MBURST_INC16)
 80016f4:	687b      	ldr	r3, [r7, #4]
 80016f6:	6adb      	ldr	r3, [r3, #44]	; 0x2c
 80016f8:	f1b3 7fc0 	cmp.w	r3, #25165824	; 0x1800000
 80016fc:	d11f      	bne.n	800173e <DMA_CheckFifoParam+0xe2>
      {
        status = HAL_ERROR;
 80016fe:	2301      	movs	r3, #1
 8001700:	73fb      	strb	r3, [r7, #15]
      }
      break;   
 8001702:	e01c      	b.n	800173e <DMA_CheckFifoParam+0xe2>
  }
  
  /* Memory Data size equal to Word */
  else
  {
    switch (tmp)
 8001704:	68bb      	ldr	r3, [r7, #8]
 8001706:	2b02      	cmp	r3, #2
 8001708:	d903      	bls.n	8001712 <DMA_CheckFifoParam+0xb6>
 800170a:	68bb      	ldr	r3, [r7, #8]
 800170c:	2b03      	cmp	r3, #3
 800170e:	d003      	beq.n	8001718 <DMA_CheckFifoParam+0xbc>
      {
        status = HAL_ERROR;
      }
      break;
    default:
      break;
 8001710:	e018      	b.n	8001744 <DMA_CheckFifoParam+0xe8>
      status = HAL_ERROR;
 8001712:	2301      	movs	r3, #1
 8001714:	73fb      	strb	r3, [r7, #15]
      break;
 8001716:	e015      	b.n	8001744 <DMA_CheckFifoParam+0xe8>
      if ((hdma->Init.MemBurst & DMA_SxCR_MBURST_1) == DMA_SxCR_MBURST_1)
 8001718:	687b      	ldr	r3, [r7, #4]
 800171a:	6adb      	ldr	r3, [r3, #44]	; 0x2c
 800171c:	f003 7380 	and.w	r3, r3, #16777216	; 0x1000000
 8001720:	2b00      	cmp	r3, #0
 8001722:	d00e      	beq.n	8001742 <DMA_CheckFifoParam+0xe6>
        status = HAL_ERROR;
 8001724:	2301      	movs	r3, #1
 8001726:	73fb      	strb	r3, [r7, #15]
      break;
 8001728:	e00b      	b.n	8001742 <DMA_CheckFifoParam+0xe6>
      break;
 800172a:	bf00      	nop
 800172c:	e00a      	b.n	8001744 <DMA_CheckFifoParam+0xe8>
      break;
 800172e:	bf00      	nop
 8001730:	e008      	b.n	8001744 <DMA_CheckFifoParam+0xe8>
      break;
 8001732:	bf00      	nop
 8001734:	e006      	b.n	8001744 <DMA_CheckFifoParam+0xe8>
      break;
 8001736:	bf00      	nop
 8001738:	e004      	b.n	8001744 <DMA_CheckFifoParam+0xe8>
      break;
 800173a:	bf00      	nop
 800173c:	e002      	b.n	8001744 <DMA_CheckFifoParam+0xe8>
      break;   
 800173e:	bf00      	nop
 8001740:	e000      	b.n	8001744 <DMA_CheckFifoParam+0xe8>
      break;
 8001742:	bf00      	nop
    }
  } 
  
  return status; 
 8001744:	7bfb      	ldrb	r3, [r7, #15]
}
 8001746:	4618      	mov	r0, r3
 8001748:	3714      	adds	r7, #20
 800174a:	46bd      	mov	sp, r7
 800174c:	f85d 7b04 	ldr.w	r7, [sp], #4
 8001750:	4770      	bx	lr
 8001752:	bf00      	nop

08001754 <HAL_GPIO_Init>:
  * @param  GPIO_Init pointer to a GPIO_InitTypeDef structure that contains
  *         the configuration information for the specified GPIO peripheral.
  * @retval None
  */
void HAL_GPIO_Init(GPIO_TypeDef  *GPIOx, GPIO_InitTypeDef *GPIO_Init)
{
 8001754:	b480      	push	{r7}
 8001756:	b089      	sub	sp, #36	; 0x24
 8001758:	af00      	add	r7, sp, #0
 800175a:	6078      	str	r0, [r7, #4]
 800175c:	6039      	str	r1, [r7, #0]
  uint32_t position;
  uint32_t ioposition = 0x00U;
 800175e:	2300      	movs	r3, #0
 8001760:	617b      	str	r3, [r7, #20]
  uint32_t iocurrent = 0x00U;
 8001762:	2300      	movs	r3, #0
 8001764:	613b      	str	r3, [r7, #16]
  uint32_t temp = 0x00U;
 8001766:	2300      	movs	r3, #0
 8001768:	61bb      	str	r3, [r7, #24]
  assert_param(IS_GPIO_PIN(GPIO_Init->Pin));
  assert_param(IS_GPIO_MODE(GPIO_Init->Mode));
  assert_param(IS_GPIO_PULL(GPIO_Init->Pull));

  /* Configure the port pins */
  for(position = 0U; position < GPIO_NUMBER; position++)
 800176a:	2300      	movs	r3, #0
 800176c:	61fb      	str	r3, [r7, #28]
 800176e:	e16b      	b.n	8001a48 <HAL_GPIO_Init+0x2f4>
  {
    /* Get the IO position */
    ioposition = 0x01U << position;
 8001770:	2201      	movs	r2, #1
 8001772:	69fb      	ldr	r3, [r7, #28]
 8001774:	fa02 f303 	lsl.w	r3, r2, r3
 8001778:	617b      	str	r3, [r7, #20]
    /* Get the current IO position */
    iocurrent = (uint32_t)(GPIO_Init->Pin) & ioposition;
 800177a:	683b      	ldr	r3, [r7, #0]
 800177c:	681b      	ldr	r3, [r3, #0]
 800177e:	697a      	ldr	r2, [r7, #20]
 8001780:	4013      	ands	r3, r2
 8001782:	613b      	str	r3, [r7, #16]

    if(iocurrent == ioposition)
 8001784:	693a      	ldr	r2, [r7, #16]
 8001786:	697b      	ldr	r3, [r7, #20]
 8001788:	429a      	cmp	r2, r3
 800178a:	f040 815a 	bne.w	8001a42 <HAL_GPIO_Init+0x2ee>
    {
      /*--------------------- GPIO Mode Configuration ------------------------*/
      /* In case of Output or Alternate function mode selection */
      if((GPIO_Init->Mode == GPIO_MODE_OUTPUT_PP) || (GPIO_Init->Mode == GPIO_MODE_AF_PP) ||
 800178e:	683b      	ldr	r3, [r7, #0]
 8001790:	685b      	ldr	r3, [r3, #4]
 8001792:	2b01      	cmp	r3, #1
 8001794:	d00b      	beq.n	80017ae <HAL_GPIO_Init+0x5a>
 8001796:	683b      	ldr	r3, [r7, #0]
 8001798:	685b      	ldr	r3, [r3, #4]
 800179a:	2b02      	cmp	r3, #2
 800179c:	d007      	beq.n	80017ae <HAL_GPIO_Init+0x5a>
         (GPIO_Init->Mode == GPIO_MODE_OUTPUT_OD) || (GPIO_Init->Mode == GPIO_MODE_AF_OD))
 800179e:	683b      	ldr	r3, [r7, #0]
 80017a0:	685b      	ldr	r3, [r3, #4]
      if((GPIO_Init->Mode == GPIO_MODE_OUTPUT_PP) || (GPIO_Init->Mode == GPIO_MODE_AF_PP) ||
 80017a2:	2b11      	cmp	r3, #17
 80017a4:	d003      	beq.n	80017ae <HAL_GPIO_Init+0x5a>
         (GPIO_Init->Mode == GPIO_MODE_OUTPUT_OD) || (GPIO_Init->Mode == GPIO_MODE_AF_OD))
 80017a6:	683b      	ldr	r3, [r7, #0]
 80017a8:	685b      	ldr	r3, [r3, #4]
 80017aa:	2b12      	cmp	r3, #18
 80017ac:	d130      	bne.n	8001810 <HAL_GPIO_Init+0xbc>
      {
        /* Check the Speed parameter */
        assert_param(IS_GPIO_SPEED(GPIO_Init->Speed));
        /* Configure the IO Speed */
        temp = GPIOx->OSPEEDR; 
 80017ae:	687b      	ldr	r3, [r7, #4]
 80017b0:	689b      	ldr	r3, [r3, #8]
 80017b2:	61bb      	str	r3, [r7, #24]
        temp &= ~(GPIO_OSPEEDER_OSPEEDR0 << (position * 2U));
 80017b4:	69fb      	ldr	r3, [r7, #28]
 80017b6:	005b      	lsls	r3, r3, #1
 80017b8:	2203      	movs	r2, #3
 80017ba:	fa02 f303 	lsl.w	r3, r2, r3
 80017be:	43db      	mvns	r3, r3
 80017c0:	69ba      	ldr	r2, [r7, #24]
 80017c2:	4013      	ands	r3, r2
 80017c4:	61bb      	str	r3, [r7, #24]
        temp |= (GPIO_Init->Speed << (position * 2U));
 80017c6:	683b      	ldr	r3, [r7, #0]
 80017c8:	68da      	ldr	r2, [r3, #12]
 80017ca:	69fb      	ldr	r3, [r7, #28]
 80017cc:	005b      	lsls	r3, r3, #1
 80017ce:	fa02 f303 	lsl.w	r3, r2, r3
 80017d2:	69ba      	ldr	r2, [r7, #24]
 80017d4:	4313      	orrs	r3, r2
 80017d6:	61bb      	str	r3, [r7, #24]
        GPIOx->OSPEEDR = temp;
 80017d8:	687b      	ldr	r3, [r7, #4]
 80017da:	69ba      	ldr	r2, [r7, #24]
 80017dc:	609a      	str	r2, [r3, #8]

        /* Configure the IO Output Type */
        temp = GPIOx->OTYPER;
 80017de:	687b      	ldr	r3, [r7, #4]
 80017e0:	685b      	ldr	r3, [r3, #4]
 80017e2:	61bb      	str	r3, [r7, #24]
        temp &= ~(GPIO_OTYPER_OT_0 << position) ;
 80017e4:	2201      	movs	r2, #1
 80017e6:	69fb      	ldr	r3, [r7, #28]
 80017e8:	fa02 f303 	lsl.w	r3, r2, r3
 80017ec:	43db      	mvns	r3, r3
 80017ee:	69ba      	ldr	r2, [r7, #24]
 80017f0:	4013      	ands	r3, r2
 80017f2:	61bb      	str	r3, [r7, #24]
        temp |= (((GPIO_Init->Mode & GPIO_OUTPUT_TYPE) >> 4U) << position);
 80017f4:	683b      	ldr	r3, [r7, #0]
 80017f6:	685b      	ldr	r3, [r3, #4]
 80017f8:	091b      	lsrs	r3, r3, #4
 80017fa:	f003 0201 	and.w	r2, r3, #1
 80017fe:	69fb      	ldr	r3, [r7, #28]
 8001800:	fa02 f303 	lsl.w	r3, r2, r3
 8001804:	69ba      	ldr	r2, [r7, #24]
 8001806:	4313      	orrs	r3, r2
 8001808:	61bb      	str	r3, [r7, #24]
        GPIOx->OTYPER = temp;
 800180a:	687b      	ldr	r3, [r7, #4]
 800180c:	69ba      	ldr	r2, [r7, #24]
 800180e:	605a      	str	r2, [r3, #4]
       }

      /* Activate the Pull-up or Pull down resistor for the current IO */
      temp = GPIOx->PUPDR;
 8001810:	687b      	ldr	r3, [r7, #4]
 8001812:	68db      	ldr	r3, [r3, #12]
 8001814:	61bb      	str	r3, [r7, #24]
      temp &= ~(GPIO_PUPDR_PUPDR0 << (position * 2U));
 8001816:	69fb      	ldr	r3, [r7, #28]
 8001818:	005b      	lsls	r3, r3, #1
 800181a:	2203      	movs	r2, #3
 800181c:	fa02 f303 	lsl.w	r3, r2, r3
 8001820:	43db      	mvns	r3, r3
 8001822:	69ba      	ldr	r2, [r7, #24]
 8001824:	4013      	ands	r3, r2
 8001826:	61bb      	str	r3, [r7, #24]
      temp |= ((GPIO_Init->Pull) << (position * 2U));
 8001828:	683b      	ldr	r3, [r7, #0]
 800182a:	689a      	ldr	r2, [r3, #8]
 800182c:	69fb      	ldr	r3, [r7, #28]
 800182e:	005b      	lsls	r3, r3, #1
 8001830:	fa02 f303 	lsl.w	r3, r2, r3
 8001834:	69ba      	ldr	r2, [r7, #24]
 8001836:	4313      	orrs	r3, r2
 8001838:	61bb      	str	r3, [r7, #24]
      GPIOx->PUPDR = temp;
 800183a:	687b      	ldr	r3, [r7, #4]
 800183c:	69ba      	ldr	r2, [r7, #24]
 800183e:	60da      	str	r2, [r3, #12]

      /* In case of Alternate function mode selection */
      if((GPIO_Init->Mode == GPIO_MODE_AF_PP) || (GPIO_Init->Mode == GPIO_MODE_AF_OD))
 8001840:	683b      	ldr	r3, [r7, #0]
 8001842:	685b      	ldr	r3, [r3, #4]
 8001844:	2b02      	cmp	r3, #2
 8001846:	d003      	beq.n	8001850 <HAL_GPIO_Init+0xfc>
 8001848:	683b      	ldr	r3, [r7, #0]
 800184a:	685b      	ldr	r3, [r3, #4]
 800184c:	2b12      	cmp	r3, #18
 800184e:	d123      	bne.n	8001898 <HAL_GPIO_Init+0x144>
      {
        /* Check the Alternate function parameter */
        assert_param(IS_GPIO_AF(GPIO_Init->Alternate));
        /* Configure Alternate function mapped with the current IO */
        temp = GPIOx->AFR[position >> 3U];
 8001850:	69fb      	ldr	r3, [r7, #28]
 8001852:	08da      	lsrs	r2, r3, #3
 8001854:	687b      	ldr	r3, [r7, #4]
 8001856:	3208      	adds	r2, #8
 8001858:	f853 3022 	ldr.w	r3, [r3, r2, lsl #2]
 800185c:	61bb      	str	r3, [r7, #24]
        temp &= ~(0xFU << ((uint32_t)(position & 0x07U) * 4U)) ;
 800185e:	69fb      	ldr	r3, [r7, #28]
 8001860:	f003 0307 	and.w	r3, r3, #7
 8001864:	009b      	lsls	r3, r3, #2
 8001866:	220f      	movs	r2, #15
 8001868:	fa02 f303 	lsl.w	r3, r2, r3
 800186c:	43db      	mvns	r3, r3
 800186e:	69ba      	ldr	r2, [r7, #24]
 8001870:	4013      	ands	r3, r2
 8001872:	61bb      	str	r3, [r7, #24]
        temp |= ((uint32_t)(GPIO_Init->Alternate) << (((uint32_t)position & 0x07U) * 4U));
 8001874:	683b      	ldr	r3, [r7, #0]
 8001876:	691a      	ldr	r2, [r3, #16]
 8001878:	69fb      	ldr	r3, [r7, #28]
 800187a:	f003 0307 	and.w	r3, r3, #7
 800187e:	009b      	lsls	r3, r3, #2
 8001880:	fa02 f303 	lsl.w	r3, r2, r3
 8001884:	69ba      	ldr	r2, [r7, #24]
 8001886:	4313      	orrs	r3, r2
 8001888:	61bb      	str	r3, [r7, #24]
        GPIOx->AFR[position >> 3U] = temp;
 800188a:	69fb      	ldr	r3, [r7, #28]
 800188c:	08da      	lsrs	r2, r3, #3
 800188e:	687b      	ldr	r3, [r7, #4]
 8001890:	3208      	adds	r2, #8
 8001892:	69b9      	ldr	r1, [r7, #24]
 8001894:	f843 1022 	str.w	r1, [r3, r2, lsl #2]
      }

      /* Configure IO Direction mode (Input, Output, Alternate or Analog) */
      temp = GPIOx->MODER;
 8001898:	687b      	ldr	r3, [r7, #4]
 800189a:	681b      	ldr	r3, [r3, #0]
 800189c:	61bb      	str	r3, [r7, #24]
      temp &= ~(GPIO_MODER_MODER0 << (position * 2U));
 800189e:	69fb      	ldr	r3, [r7, #28]
 80018a0:	005b      	lsls	r3, r3, #1
 80018a2:	2203      	movs	r2, #3
 80018a4:	fa02 f303 	lsl.w	r3, r2, r3
 80018a8:	43db      	mvns	r3, r3
 80018aa:	69ba      	ldr	r2, [r7, #24]
 80018ac:	4013      	ands	r3, r2
 80018ae:	61bb      	str	r3, [r7, #24]
      temp |= ((GPIO_Init->Mode & GPIO_MODE) << (position * 2U));
 80018b0:	683b      	ldr	r3, [r7, #0]
 80018b2:	685b      	ldr	r3, [r3, #4]
 80018b4:	f003 0203 	and.w	r2, r3, #3
 80018b8:	69fb      	ldr	r3, [r7, #28]
 80018ba:	005b      	lsls	r3, r3, #1
 80018bc:	fa02 f303 	lsl.w	r3, r2, r3
 80018c0:	69ba      	ldr	r2, [r7, #24]
 80018c2:	4313      	orrs	r3, r2
 80018c4:	61bb      	str	r3, [r7, #24]
      GPIOx->MODER = temp;
 80018c6:	687b      	ldr	r3, [r7, #4]
 80018c8:	69ba      	ldr	r2, [r7, #24]
 80018ca:	601a      	str	r2, [r3, #0]

      /*--------------------- EXTI Mode Configuration ------------------------*/
      /* Configure the External Interrupt or event for the current IO */
      if((GPIO_Init->Mode & EXTI_MODE) == EXTI_MODE)
 80018cc:	683b      	ldr	r3, [r7, #0]
 80018ce:	685b      	ldr	r3, [r3, #4]
 80018d0:	f003 5380 	and.w	r3, r3, #268435456	; 0x10000000
 80018d4:	2b00      	cmp	r3, #0
 80018d6:	f000 80b4 	beq.w	8001a42 <HAL_GPIO_Init+0x2ee>
      {
        /* Enable SYSCFG Clock */
        __HAL_RCC_SYSCFG_CLK_ENABLE();
 80018da:	2300      	movs	r3, #0
 80018dc:	60fb      	str	r3, [r7, #12]
 80018de:	4b60      	ldr	r3, [pc, #384]	; (8001a60 <HAL_GPIO_Init+0x30c>)
 80018e0:	6c5b      	ldr	r3, [r3, #68]	; 0x44
 80018e2:	4a5f      	ldr	r2, [pc, #380]	; (8001a60 <HAL_GPIO_Init+0x30c>)
 80018e4:	f443 4380 	orr.w	r3, r3, #16384	; 0x4000
 80018e8:	6453      	str	r3, [r2, #68]	; 0x44
 80018ea:	4b5d      	ldr	r3, [pc, #372]	; (8001a60 <HAL_GPIO_Init+0x30c>)
 80018ec:	6c5b      	ldr	r3, [r3, #68]	; 0x44
 80018ee:	f403 4380 	and.w	r3, r3, #16384	; 0x4000
 80018f2:	60fb      	str	r3, [r7, #12]
 80018f4:	68fb      	ldr	r3, [r7, #12]

        temp = SYSCFG->EXTICR[position >> 2U];
 80018f6:	4a5b      	ldr	r2, [pc, #364]	; (8001a64 <HAL_GPIO_Init+0x310>)
 80018f8:	69fb      	ldr	r3, [r7, #28]
 80018fa:	089b      	lsrs	r3, r3, #2
 80018fc:	3302      	adds	r3, #2
 80018fe:	f852 3023 	ldr.w	r3, [r2, r3, lsl #2]
 8001902:	61bb      	str	r3, [r7, #24]
        temp &= ~(0x0FU << (4U * (position & 0x03U)));
 8001904:	69fb      	ldr	r3, [r7, #28]
 8001906:	f003 0303 	and.w	r3, r3, #3
 800190a:	009b      	lsls	r3, r3, #2
 800190c:	220f      	movs	r2, #15
 800190e:	fa02 f303 	lsl.w	r3, r2, r3
 8001912:	43db      	mvns	r3, r3
 8001914:	69ba      	ldr	r2, [r7, #24]
 8001916:	4013      	ands	r3, r2
 8001918:	61bb      	str	r3, [r7, #24]
        temp |= ((uint32_t)(GPIO_GET_INDEX(GPIOx)) << (4U * (position & 0x03U)));
 800191a:	687b      	ldr	r3, [r7, #4]
 800191c:	4a52      	ldr	r2, [pc, #328]	; (8001a68 <HAL_GPIO_Init+0x314>)
 800191e:	4293      	cmp	r3, r2
 8001920:	d02b      	beq.n	800197a <HAL_GPIO_Init+0x226>
 8001922:	687b      	ldr	r3, [r7, #4]
 8001924:	4a51      	ldr	r2, [pc, #324]	; (8001a6c <HAL_GPIO_Init+0x318>)
 8001926:	4293      	cmp	r3, r2
 8001928:	d025      	beq.n	8001976 <HAL_GPIO_Init+0x222>
 800192a:	687b      	ldr	r3, [r7, #4]
 800192c:	4a50      	ldr	r2, [pc, #320]	; (8001a70 <HAL_GPIO_Init+0x31c>)
 800192e:	4293      	cmp	r3, r2
 8001930:	d01f      	beq.n	8001972 <HAL_GPIO_Init+0x21e>
 8001932:	687b      	ldr	r3, [r7, #4]
 8001934:	4a4f      	ldr	r2, [pc, #316]	; (8001a74 <HAL_GPIO_Init+0x320>)
 8001936:	4293      	cmp	r3, r2
 8001938:	d019      	beq.n	800196e <HAL_GPIO_Init+0x21a>
 800193a:	687b      	ldr	r3, [r7, #4]
 800193c:	4a4e      	ldr	r2, [pc, #312]	; (8001a78 <HAL_GPIO_Init+0x324>)
 800193e:	4293      	cmp	r3, r2
 8001940:	d013      	beq.n	800196a <HAL_GPIO_Init+0x216>
 8001942:	687b      	ldr	r3, [r7, #4]
 8001944:	4a4d      	ldr	r2, [pc, #308]	; (8001a7c <HAL_GPIO_Init+0x328>)
 8001946:	4293      	cmp	r3, r2
 8001948:	d00d      	beq.n	8001966 <HAL_GPIO_Init+0x212>
 800194a:	687b      	ldr	r3, [r7, #4]
 800194c:	4a4c      	ldr	r2, [pc, #304]	; (8001a80 <HAL_GPIO_Init+0x32c>)
 800194e:	4293      	cmp	r3, r2
 8001950:	d007      	beq.n	8001962 <HAL_GPIO_Init+0x20e>
 8001952:	687b      	ldr	r3, [r7, #4]
 8001954:	4a4b      	ldr	r2, [pc, #300]	; (8001a84 <HAL_GPIO_Init+0x330>)
 8001956:	4293      	cmp	r3, r2
 8001958:	d101      	bne.n	800195e <HAL_GPIO_Init+0x20a>
 800195a:	2307      	movs	r3, #7
 800195c:	e00e      	b.n	800197c <HAL_GPIO_Init+0x228>
 800195e:	2308      	movs	r3, #8
 8001960:	e00c      	b.n	800197c <HAL_GPIO_Init+0x228>
 8001962:	2306      	movs	r3, #6
 8001964:	e00a      	b.n	800197c <HAL_GPIO_Init+0x228>
 8001966:	2305      	movs	r3, #5
 8001968:	e008      	b.n	800197c <HAL_GPIO_Init+0x228>
 800196a:	2304      	movs	r3, #4
 800196c:	e006      	b.n	800197c <HAL_GPIO_Init+0x228>
 800196e:	2303      	movs	r3, #3
 8001970:	e004      	b.n	800197c <HAL_GPIO_Init+0x228>
 8001972:	2302      	movs	r3, #2
 8001974:	e002      	b.n	800197c <HAL_GPIO_Init+0x228>
 8001976:	2301      	movs	r3, #1
 8001978:	e000      	b.n	800197c <HAL_GPIO_Init+0x228>
 800197a:	2300      	movs	r3, #0
 800197c:	69fa      	ldr	r2, [r7, #28]
 800197e:	f002 0203 	and.w	r2, r2, #3
 8001982:	0092      	lsls	r2, r2, #2
 8001984:	4093      	lsls	r3, r2
 8001986:	69ba      	ldr	r2, [r7, #24]
 8001988:	4313      	orrs	r3, r2
 800198a:	61bb      	str	r3, [r7, #24]
        SYSCFG->EXTICR[position >> 2U] = temp;
 800198c:	4935      	ldr	r1, [pc, #212]	; (8001a64 <HAL_GPIO_Init+0x310>)
 800198e:	69fb      	ldr	r3, [r7, #28]
 8001990:	089b      	lsrs	r3, r3, #2
 8001992:	3302      	adds	r3, #2
 8001994:	69ba      	ldr	r2, [r7, #24]
 8001996:	f841 2023 	str.w	r2, [r1, r3, lsl #2]

        /* Clear EXTI line configuration */
        temp = EXTI->IMR;
 800199a:	4b3b      	ldr	r3, [pc, #236]	; (8001a88 <HAL_GPIO_Init+0x334>)
 800199c:	681b      	ldr	r3, [r3, #0]
 800199e:	61bb      	str	r3, [r7, #24]
        temp &= ~((uint32_t)iocurrent);
 80019a0:	693b      	ldr	r3, [r7, #16]
 80019a2:	43db      	mvns	r3, r3
 80019a4:	69ba      	ldr	r2, [r7, #24]
 80019a6:	4013      	ands	r3, r2
 80019a8:	61bb      	str	r3, [r7, #24]
        if((GPIO_Init->Mode & GPIO_MODE_IT) == GPIO_MODE_IT)
 80019aa:	683b      	ldr	r3, [r7, #0]
 80019ac:	685b      	ldr	r3, [r3, #4]
 80019ae:	f403 3380 	and.w	r3, r3, #65536	; 0x10000
 80019b2:	2b00      	cmp	r3, #0
 80019b4:	d003      	beq.n	80019be <HAL_GPIO_Init+0x26a>
        {
          temp |= iocurrent;
 80019b6:	69ba      	ldr	r2, [r7, #24]
 80019b8:	693b      	ldr	r3, [r7, #16]
 80019ba:	4313      	orrs	r3, r2
 80019bc:	61bb      	str	r3, [r7, #24]
        }
        EXTI->IMR = temp;
 80019be:	4a32      	ldr	r2, [pc, #200]	; (8001a88 <HAL_GPIO_Init+0x334>)
 80019c0:	69bb      	ldr	r3, [r7, #24]
 80019c2:	6013      	str	r3, [r2, #0]

        temp = EXTI->EMR;
 80019c4:	4b30      	ldr	r3, [pc, #192]	; (8001a88 <HAL_GPIO_Init+0x334>)
 80019c6:	685b      	ldr	r3, [r3, #4]
 80019c8:	61bb      	str	r3, [r7, #24]
        temp &= ~((uint32_t)iocurrent);
 80019ca:	693b      	ldr	r3, [r7, #16]
 80019cc:	43db      	mvns	r3, r3
 80019ce:	69ba      	ldr	r2, [r7, #24]
 80019d0:	4013      	ands	r3, r2
 80019d2:	61bb      	str	r3, [r7, #24]
        if((GPIO_Init->Mode & GPIO_MODE_EVT) == GPIO_MODE_EVT)
 80019d4:	683b      	ldr	r3, [r7, #0]
 80019d6:	685b      	ldr	r3, [r3, #4]
 80019d8:	f403 3300 	and.w	r3, r3, #131072	; 0x20000
 80019dc:	2b00      	cmp	r3, #0
 80019de:	d003      	beq.n	80019e8 <HAL_GPIO_Init+0x294>
        {
          temp |= iocurrent;
 80019e0:	69ba      	ldr	r2, [r7, #24]
 80019e2:	693b      	ldr	r3, [r7, #16]
 80019e4:	4313      	orrs	r3, r2
 80019e6:	61bb      	str	r3, [r7, #24]
        }
        EXTI->EMR = temp;
 80019e8:	4a27      	ldr	r2, [pc, #156]	; (8001a88 <HAL_GPIO_Init+0x334>)
 80019ea:	69bb      	ldr	r3, [r7, #24]
 80019ec:	6053      	str	r3, [r2, #4]

        /* Clear Rising Falling edge configuration */
        temp = EXTI->RTSR;
 80019ee:	4b26      	ldr	r3, [pc, #152]	; (8001a88 <HAL_GPIO_Init+0x334>)
 80019f0:	689b      	ldr	r3, [r3, #8]
 80019f2:	61bb      	str	r3, [r7, #24]
        temp &= ~((uint32_t)iocurrent);
 80019f4:	693b      	ldr	r3, [r7, #16]
 80019f6:	43db      	mvns	r3, r3
 80019f8:	69ba      	ldr	r2, [r7, #24]
 80019fa:	4013      	ands	r3, r2
 80019fc:	61bb      	str	r3, [r7, #24]
        if((GPIO_Init->Mode & RISING_EDGE) == RISING_EDGE)
 80019fe:	683b      	ldr	r3, [r7, #0]
 8001a00:	685b      	ldr	r3, [r3, #4]
 8001a02:	f403 1380 	and.w	r3, r3, #1048576	; 0x100000
 8001a06:	2b00      	cmp	r3, #0
 8001a08:	d003      	beq.n	8001a12 <HAL_GPIO_Init+0x2be>
        {
          temp |= iocurrent;
 8001a0a:	69ba      	ldr	r2, [r7, #24]
 8001a0c:	693b      	ldr	r3, [r7, #16]
 8001a0e:	4313      	orrs	r3, r2
 8001a10:	61bb      	str	r3, [r7, #24]
        }
        EXTI->RTSR = temp;
 8001a12:	4a1d      	ldr	r2, [pc, #116]	; (8001a88 <HAL_GPIO_Init+0x334>)
 8001a14:	69bb      	ldr	r3, [r7, #24]
 8001a16:	6093      	str	r3, [r2, #8]

        temp = EXTI->FTSR;
 8001a18:	4b1b      	ldr	r3, [pc, #108]	; (8001a88 <HAL_GPIO_Init+0x334>)
 8001a1a:	68db      	ldr	r3, [r3, #12]
 8001a1c:	61bb      	str	r3, [r7, #24]
        temp &= ~((uint32_t)iocurrent);
 8001a1e:	693b      	ldr	r3, [r7, #16]
 8001a20:	43db      	mvns	r3, r3
 8001a22:	69ba      	ldr	r2, [r7, #24]
 8001a24:	4013      	ands	r3, r2
 8001a26:	61bb      	str	r3, [r7, #24]
        if((GPIO_Init->Mode & FALLING_EDGE) == FALLING_EDGE)
 8001a28:	683b      	ldr	r3, [r7, #0]
 8001a2a:	685b      	ldr	r3, [r3, #4]
 8001a2c:	f403 1300 	and.w	r3, r3, #2097152	; 0x200000
 8001a30:	2b00      	cmp	r3, #0
 8001a32:	d003      	beq.n	8001a3c <HAL_GPIO_Init+0x2e8>
        {
          temp |= iocurrent;
 8001a34:	69ba      	ldr	r2, [r7, #24]
 8001a36:	693b      	ldr	r3, [r7, #16]
 8001a38:	4313      	orrs	r3, r2
 8001a3a:	61bb      	str	r3, [r7, #24]
        }
        EXTI->FTSR = temp;
 8001a3c:	4a12      	ldr	r2, [pc, #72]	; (8001a88 <HAL_GPIO_Init+0x334>)
 8001a3e:	69bb      	ldr	r3, [r7, #24]
 8001a40:	60d3      	str	r3, [r2, #12]
  for(position = 0U; position < GPIO_NUMBER; position++)
 8001a42:	69fb      	ldr	r3, [r7, #28]
 8001a44:	3301      	adds	r3, #1
 8001a46:	61fb      	str	r3, [r7, #28]
 8001a48:	69fb      	ldr	r3, [r7, #28]
 8001a4a:	2b0f      	cmp	r3, #15
 8001a4c:	f67f ae90 	bls.w	8001770 <HAL_GPIO_Init+0x1c>
      }
    }
  }
}
 8001a50:	bf00      	nop
 8001a52:	bf00      	nop
 8001a54:	3724      	adds	r7, #36	; 0x24
 8001a56:	46bd      	mov	sp, r7
 8001a58:	f85d 7b04 	ldr.w	r7, [sp], #4
 8001a5c:	4770      	bx	lr
 8001a5e:	bf00      	nop
 8001a60:	40023800 	.word	0x40023800
 8001a64:	40013800 	.word	0x40013800
 8001a68:	40020000 	.word	0x40020000
 8001a6c:	40020400 	.word	0x40020400
 8001a70:	40020800 	.word	0x40020800
 8001a74:	40020c00 	.word	0x40020c00
 8001a78:	40021000 	.word	0x40021000
 8001a7c:	40021400 	.word	0x40021400
 8001a80:	40021800 	.word	0x40021800
 8001a84:	40021c00 	.word	0x40021c00
 8001a88:	40013c00 	.word	0x40013c00

08001a8c <HAL_GPIO_WritePin>:
  *            @arg GPIO_PIN_RESET: to clear the port pin
  *            @arg GPIO_PIN_SET: to set the port pin
  * @retval None
  */
void HAL_GPIO_WritePin(GPIO_TypeDef* GPIOx, uint16_t GPIO_Pin, GPIO_PinState PinState)
{
 8001a8c:	b480      	push	{r7}
 8001a8e:	b083      	sub	sp, #12
 8001a90:	af00      	add	r7, sp, #0
 8001a92:	6078      	str	r0, [r7, #4]
 8001a94:	460b      	mov	r3, r1
 8001a96:	807b      	strh	r3, [r7, #2]
 8001a98:	4613      	mov	r3, r2
 8001a9a:	707b      	strb	r3, [r7, #1]
  /* Check the parameters */
  assert_param(IS_GPIO_PIN(GPIO_Pin));
  assert_param(IS_GPIO_PIN_ACTION(PinState));

  if(PinState != GPIO_PIN_RESET)
 8001a9c:	787b      	ldrb	r3, [r7, #1]
 8001a9e:	2b00      	cmp	r3, #0
 8001aa0:	d003      	beq.n	8001aaa <HAL_GPIO_WritePin+0x1e>
  {
    GPIOx->BSRR = GPIO_Pin;
 8001aa2:	887a      	ldrh	r2, [r7, #2]
 8001aa4:	687b      	ldr	r3, [r7, #4]
 8001aa6:	619a      	str	r2, [r3, #24]
  }
  else
  {
    GPIOx->BSRR = (uint32_t)GPIO_Pin << 16U;
  }
}
 8001aa8:	e003      	b.n	8001ab2 <HAL_GPIO_WritePin+0x26>
    GPIOx->BSRR = (uint32_t)GPIO_Pin << 16U;
 8001aaa:	887b      	ldrh	r3, [r7, #2]
 8001aac:	041a      	lsls	r2, r3, #16
 8001aae:	687b      	ldr	r3, [r7, #4]
 8001ab0:	619a      	str	r2, [r3, #24]
}
 8001ab2:	bf00      	nop
 8001ab4:	370c      	adds	r7, #12
 8001ab6:	46bd      	mov	sp, r7
 8001ab8:	f85d 7b04 	ldr.w	r7, [sp], #4
 8001abc:	4770      	bx	lr
	...

08001ac0 <HAL_RCC_OscConfig>:
  *         supported by this API. User should request a transition to HSE Off
  *         first and then HSE On or HSE Bypass.
  * @retval HAL status
  */
__weak HAL_StatusTypeDef HAL_RCC_OscConfig(RCC_OscInitTypeDef  *RCC_OscInitStruct)
{
 8001ac0:	b580      	push	{r7, lr}
 8001ac2:	b086      	sub	sp, #24
 8001ac4:	af00      	add	r7, sp, #0
 8001ac6:	6078      	str	r0, [r7, #4]
  uint32_t tickstart, pll_config;

  /* Check Null pointer */
  if(RCC_OscInitStruct == NULL)
 8001ac8:	687b      	ldr	r3, [r7, #4]
 8001aca:	2b00      	cmp	r3, #0
 8001acc:	d101      	bne.n	8001ad2 <HAL_RCC_OscConfig+0x12>
  {
    return HAL_ERROR;
 8001ace:	2301      	movs	r3, #1
 8001ad0:	e25b      	b.n	8001f8a <HAL_RCC_OscConfig+0x4ca>
  }

  /* Check the parameters */
  assert_param(IS_RCC_OSCILLATORTYPE(RCC_OscInitStruct->OscillatorType));
  /*------------------------------- HSE Configuration ------------------------*/
  if(((RCC_OscInitStruct->OscillatorType) & RCC_OSCILLATORTYPE_HSE) == RCC_OSCILLATORTYPE_HSE)
 8001ad2:	687b      	ldr	r3, [r7, #4]
 8001ad4:	681b      	ldr	r3, [r3, #0]
 8001ad6:	f003 0301 	and.w	r3, r3, #1
 8001ada:	2b00      	cmp	r3, #0
 8001adc:	d075      	beq.n	8001bca <HAL_RCC_OscConfig+0x10a>
  {
    /* Check the parameters */
    assert_param(IS_RCC_HSE(RCC_OscInitStruct->HSEState));
    /* When the HSE is used as system clock or clock source for PLL in these cases HSE will not disabled */
    if((__HAL_RCC_GET_SYSCLK_SOURCE() == RCC_CFGR_SWS_HSE) ||\
 8001ade:	4ba3      	ldr	r3, [pc, #652]	; (8001d6c <HAL_RCC_OscConfig+0x2ac>)
 8001ae0:	689b      	ldr	r3, [r3, #8]
 8001ae2:	f003 030c 	and.w	r3, r3, #12
 8001ae6:	2b04      	cmp	r3, #4
 8001ae8:	d00c      	beq.n	8001b04 <HAL_RCC_OscConfig+0x44>
      ((__HAL_RCC_GET_SYSCLK_SOURCE() == RCC_CFGR_SWS_PLL) && ((RCC->PLLCFGR & RCC_PLLCFGR_PLLSRC) == RCC_PLLCFGR_PLLSRC_HSE)))
 8001aea:	4ba0      	ldr	r3, [pc, #640]	; (8001d6c <HAL_RCC_OscConfig+0x2ac>)
 8001aec:	689b      	ldr	r3, [r3, #8]
 8001aee:	f003 030c 	and.w	r3, r3, #12
    if((__HAL_RCC_GET_SYSCLK_SOURCE() == RCC_CFGR_SWS_HSE) ||\
 8001af2:	2b08      	cmp	r3, #8
 8001af4:	d112      	bne.n	8001b1c <HAL_RCC_OscConfig+0x5c>
      ((__HAL_RCC_GET_SYSCLK_SOURCE() == RCC_CFGR_SWS_PLL) && ((RCC->PLLCFGR & RCC_PLLCFGR_PLLSRC) == RCC_PLLCFGR_PLLSRC_HSE)))
 8001af6:	4b9d      	ldr	r3, [pc, #628]	; (8001d6c <HAL_RCC_OscConfig+0x2ac>)
 8001af8:	685b      	ldr	r3, [r3, #4]
 8001afa:	f403 0380 	and.w	r3, r3, #4194304	; 0x400000
 8001afe:	f5b3 0f80 	cmp.w	r3, #4194304	; 0x400000
 8001b02:	d10b      	bne.n	8001b1c <HAL_RCC_OscConfig+0x5c>
    {
      if((__HAL_RCC_GET_FLAG(RCC_FLAG_HSERDY) != RESET) && (RCC_OscInitStruct->HSEState == RCC_HSE_OFF))
 8001b04:	4b99      	ldr	r3, [pc, #612]	; (8001d6c <HAL_RCC_OscConfig+0x2ac>)
 8001b06:	681b      	ldr	r3, [r3, #0]
 8001b08:	f403 3300 	and.w	r3, r3, #131072	; 0x20000
 8001b0c:	2b00      	cmp	r3, #0
 8001b0e:	d05b      	beq.n	8001bc8 <HAL_RCC_OscConfig+0x108>
 8001b10:	687b      	ldr	r3, [r7, #4]
 8001b12:	685b      	ldr	r3, [r3, #4]
 8001b14:	2b00      	cmp	r3, #0
 8001b16:	d157      	bne.n	8001bc8 <HAL_RCC_OscConfig+0x108>
      {
        return HAL_ERROR;
 8001b18:	2301      	movs	r3, #1
 8001b1a:	e236      	b.n	8001f8a <HAL_RCC_OscConfig+0x4ca>
      }
    }
    else
    {
      /* Set the new HSE configuration ---------------------------------------*/
      __HAL_RCC_HSE_CONFIG(RCC_OscInitStruct->HSEState);
 8001b1c:	687b      	ldr	r3, [r7, #4]
 8001b1e:	685b      	ldr	r3, [r3, #4]
 8001b20:	f5b3 3f80 	cmp.w	r3, #65536	; 0x10000
 8001b24:	d106      	bne.n	8001b34 <HAL_RCC_OscConfig+0x74>
 8001b26:	4b91      	ldr	r3, [pc, #580]	; (8001d6c <HAL_RCC_OscConfig+0x2ac>)
 8001b28:	681b      	ldr	r3, [r3, #0]
 8001b2a:	4a90      	ldr	r2, [pc, #576]	; (8001d6c <HAL_RCC_OscConfig+0x2ac>)
 8001b2c:	f443 3380 	orr.w	r3, r3, #65536	; 0x10000
 8001b30:	6013      	str	r3, [r2, #0]
 8001b32:	e01d      	b.n	8001b70 <HAL_RCC_OscConfig+0xb0>
 8001b34:	687b      	ldr	r3, [r7, #4]
 8001b36:	685b      	ldr	r3, [r3, #4]
 8001b38:	f5b3 2fa0 	cmp.w	r3, #327680	; 0x50000
 8001b3c:	d10c      	bne.n	8001b58 <HAL_RCC_OscConfig+0x98>
 8001b3e:	4b8b      	ldr	r3, [pc, #556]	; (8001d6c <HAL_RCC_OscConfig+0x2ac>)
 8001b40:	681b      	ldr	r3, [r3, #0]
 8001b42:	4a8a      	ldr	r2, [pc, #552]	; (8001d6c <HAL_RCC_OscConfig+0x2ac>)
 8001b44:	f443 2380 	orr.w	r3, r3, #262144	; 0x40000
 8001b48:	6013      	str	r3, [r2, #0]
 8001b4a:	4b88      	ldr	r3, [pc, #544]	; (8001d6c <HAL_RCC_OscConfig+0x2ac>)
 8001b4c:	681b      	ldr	r3, [r3, #0]
 8001b4e:	4a87      	ldr	r2, [pc, #540]	; (8001d6c <HAL_RCC_OscConfig+0x2ac>)
 8001b50:	f443 3380 	orr.w	r3, r3, #65536	; 0x10000
 8001b54:	6013      	str	r3, [r2, #0]
 8001b56:	e00b      	b.n	8001b70 <HAL_RCC_OscConfig+0xb0>
 8001b58:	4b84      	ldr	r3, [pc, #528]	; (8001d6c <HAL_RCC_OscConfig+0x2ac>)
 8001b5a:	681b      	ldr	r3, [r3, #0]
 8001b5c:	4a83      	ldr	r2, [pc, #524]	; (8001d6c <HAL_RCC_OscConfig+0x2ac>)
 8001b5e:	f423 3380 	bic.w	r3, r3, #65536	; 0x10000
 8001b62:	6013      	str	r3, [r2, #0]
 8001b64:	4b81      	ldr	r3, [pc, #516]	; (8001d6c <HAL_RCC_OscConfig+0x2ac>)
 8001b66:	681b      	ldr	r3, [r3, #0]
 8001b68:	4a80      	ldr	r2, [pc, #512]	; (8001d6c <HAL_RCC_OscConfig+0x2ac>)
 8001b6a:	f423 2380 	bic.w	r3, r3, #262144	; 0x40000
 8001b6e:	6013      	str	r3, [r2, #0]

      /* Check the HSE State */
      if((RCC_OscInitStruct->HSEState) != RCC_HSE_OFF)
 8001b70:	687b      	ldr	r3, [r7, #4]
 8001b72:	685b      	ldr	r3, [r3, #4]
 8001b74:	2b00      	cmp	r3, #0
 8001b76:	d013      	beq.n	8001ba0 <HAL_RCC_OscConfig+0xe0>
      {
        /* Get Start Tick */
        tickstart = HAL_GetTick();
 8001b78:	f7ff f95e 	bl	8000e38 <HAL_GetTick>
 8001b7c:	6138      	str	r0, [r7, #16]

        /* Wait till HSE is ready */
        while(__HAL_RCC_GET_FLAG(RCC_FLAG_HSERDY) == RESET)
 8001b7e:	e008      	b.n	8001b92 <HAL_RCC_OscConfig+0xd2>
        {
          if((HAL_GetTick() - tickstart ) > HSE_TIMEOUT_VALUE)
 8001b80:	f7ff f95a 	bl	8000e38 <HAL_GetTick>
 8001b84:	4602      	mov	r2, r0
 8001b86:	693b      	ldr	r3, [r7, #16]
 8001b88:	1ad3      	subs	r3, r2, r3
 8001b8a:	2b64      	cmp	r3, #100	; 0x64
 8001b8c:	d901      	bls.n	8001b92 <HAL_RCC_OscConfig+0xd2>
          {
            return HAL_TIMEOUT;
 8001b8e:	2303      	movs	r3, #3
 8001b90:	e1fb      	b.n	8001f8a <HAL_RCC_OscConfig+0x4ca>
        while(__HAL_RCC_GET_FLAG(RCC_FLAG_HSERDY) == RESET)
 8001b92:	4b76      	ldr	r3, [pc, #472]	; (8001d6c <HAL_RCC_OscConfig+0x2ac>)
 8001b94:	681b      	ldr	r3, [r3, #0]
 8001b96:	f403 3300 	and.w	r3, r3, #131072	; 0x20000
 8001b9a:	2b00      	cmp	r3, #0
 8001b9c:	d0f0      	beq.n	8001b80 <HAL_RCC_OscConfig+0xc0>
 8001b9e:	e014      	b.n	8001bca <HAL_RCC_OscConfig+0x10a>
        }
      }
      else
      {
        /* Get Start Tick */
        tickstart = HAL_GetTick();
 8001ba0:	f7ff f94a 	bl	8000e38 <HAL_GetTick>
 8001ba4:	6138      	str	r0, [r7, #16]

        /* Wait till HSE is bypassed or disabled */
        while(__HAL_RCC_GET_FLAG(RCC_FLAG_HSERDY) != RESET)
 8001ba6:	e008      	b.n	8001bba <HAL_RCC_OscConfig+0xfa>
        {
          if((HAL_GetTick() - tickstart ) > HSE_TIMEOUT_VALUE)
 8001ba8:	f7ff f946 	bl	8000e38 <HAL_GetTick>
 8001bac:	4602      	mov	r2, r0
 8001bae:	693b      	ldr	r3, [r7, #16]
 8001bb0:	1ad3      	subs	r3, r2, r3
 8001bb2:	2b64      	cmp	r3, #100	; 0x64
 8001bb4:	d901      	bls.n	8001bba <HAL_RCC_OscConfig+0xfa>
          {
            return HAL_TIMEOUT;
 8001bb6:	2303      	movs	r3, #3
 8001bb8:	e1e7      	b.n	8001f8a <HAL_RCC_OscConfig+0x4ca>
        while(__HAL_RCC_GET_FLAG(RCC_FLAG_HSERDY) != RESET)
 8001bba:	4b6c      	ldr	r3, [pc, #432]	; (8001d6c <HAL_RCC_OscConfig+0x2ac>)
 8001bbc:	681b      	ldr	r3, [r3, #0]
 8001bbe:	f403 3300 	and.w	r3, r3, #131072	; 0x20000
 8001bc2:	2b00      	cmp	r3, #0
 8001bc4:	d1f0      	bne.n	8001ba8 <HAL_RCC_OscConfig+0xe8>
 8001bc6:	e000      	b.n	8001bca <HAL_RCC_OscConfig+0x10a>
      if((__HAL_RCC_GET_FLAG(RCC_FLAG_HSERDY) != RESET) && (RCC_OscInitStruct->HSEState == RCC_HSE_OFF))
 8001bc8:	bf00      	nop
        }
      }
    }
  }
  /*----------------------------- HSI Configuration --------------------------*/
  if(((RCC_OscInitStruct->OscillatorType) & RCC_OSCILLATORTYPE_HSI) == RCC_OSCILLATORTYPE_HSI)
 8001bca:	687b      	ldr	r3, [r7, #4]
 8001bcc:	681b      	ldr	r3, [r3, #0]
 8001bce:	f003 0302 	and.w	r3, r3, #2
 8001bd2:	2b00      	cmp	r3, #0
 8001bd4:	d063      	beq.n	8001c9e <HAL_RCC_OscConfig+0x1de>
    /* Check the parameters */
    assert_param(IS_RCC_HSI(RCC_OscInitStruct->HSIState));
    assert_param(IS_RCC_CALIBRATION_VALUE(RCC_OscInitStruct->HSICalibrationValue));

    /* Check if HSI is used as system clock or as PLL source when PLL is selected as system clock */
    if((__HAL_RCC_GET_SYSCLK_SOURCE() == RCC_CFGR_SWS_HSI) ||\
 8001bd6:	4b65      	ldr	r3, [pc, #404]	; (8001d6c <HAL_RCC_OscConfig+0x2ac>)
 8001bd8:	689b      	ldr	r3, [r3, #8]
 8001bda:	f003 030c 	and.w	r3, r3, #12
 8001bde:	2b00      	cmp	r3, #0
 8001be0:	d00b      	beq.n	8001bfa <HAL_RCC_OscConfig+0x13a>
      ((__HAL_RCC_GET_SYSCLK_SOURCE() == RCC_CFGR_SWS_PLL) && ((RCC->PLLCFGR & RCC_PLLCFGR_PLLSRC) == RCC_PLLCFGR_PLLSRC_HSI)))
 8001be2:	4b62      	ldr	r3, [pc, #392]	; (8001d6c <HAL_RCC_OscConfig+0x2ac>)
 8001be4:	689b      	ldr	r3, [r3, #8]
 8001be6:	f003 030c 	and.w	r3, r3, #12
    if((__HAL_RCC_GET_SYSCLK_SOURCE() == RCC_CFGR_SWS_HSI) ||\
 8001bea:	2b08      	cmp	r3, #8
 8001bec:	d11c      	bne.n	8001c28 <HAL_RCC_OscConfig+0x168>
      ((__HAL_RCC_GET_SYSCLK_SOURCE() == RCC_CFGR_SWS_PLL) && ((RCC->PLLCFGR & RCC_PLLCFGR_PLLSRC) == RCC_PLLCFGR_PLLSRC_HSI)))
 8001bee:	4b5f      	ldr	r3, [pc, #380]	; (8001d6c <HAL_RCC_OscConfig+0x2ac>)
 8001bf0:	685b      	ldr	r3, [r3, #4]
 8001bf2:	f403 0380 	and.w	r3, r3, #4194304	; 0x400000
 8001bf6:	2b00      	cmp	r3, #0
 8001bf8:	d116      	bne.n	8001c28 <HAL_RCC_OscConfig+0x168>
    {
      /* When HSI is used as system clock it will not disabled */
      if((__HAL_RCC_GET_FLAG(RCC_FLAG_HSIRDY) != RESET) && (RCC_OscInitStruct->HSIState != RCC_HSI_ON))
 8001bfa:	4b5c      	ldr	r3, [pc, #368]	; (8001d6c <HAL_RCC_OscConfig+0x2ac>)
 8001bfc:	681b      	ldr	r3, [r3, #0]
 8001bfe:	f003 0302 	and.w	r3, r3, #2
 8001c02:	2b00      	cmp	r3, #0
 8001c04:	d005      	beq.n	8001c12 <HAL_RCC_OscConfig+0x152>
 8001c06:	687b      	ldr	r3, [r7, #4]
 8001c08:	68db      	ldr	r3, [r3, #12]
 8001c0a:	2b01      	cmp	r3, #1
 8001c0c:	d001      	beq.n	8001c12 <HAL_RCC_OscConfig+0x152>
      {
        return HAL_ERROR;
 8001c0e:	2301      	movs	r3, #1
 8001c10:	e1bb      	b.n	8001f8a <HAL_RCC_OscConfig+0x4ca>
      }
      /* Otherwise, just the calibration is allowed */
      else
      {
        /* Adjusts the Internal High Speed oscillator (HSI) calibration value.*/
        __HAL_RCC_HSI_CALIBRATIONVALUE_ADJUST(RCC_OscInitStruct->HSICalibrationValue);
 8001c12:	4b56      	ldr	r3, [pc, #344]	; (8001d6c <HAL_RCC_OscConfig+0x2ac>)
 8001c14:	681b      	ldr	r3, [r3, #0]
 8001c16:	f023 02f8 	bic.w	r2, r3, #248	; 0xf8
 8001c1a:	687b      	ldr	r3, [r7, #4]
 8001c1c:	691b      	ldr	r3, [r3, #16]
 8001c1e:	00db      	lsls	r3, r3, #3
 8001c20:	4952      	ldr	r1, [pc, #328]	; (8001d6c <HAL_RCC_OscConfig+0x2ac>)
 8001c22:	4313      	orrs	r3, r2
 8001c24:	600b      	str	r3, [r1, #0]
      if((__HAL_RCC_GET_FLAG(RCC_FLAG_HSIRDY) != RESET) && (RCC_OscInitStruct->HSIState != RCC_HSI_ON))
 8001c26:	e03a      	b.n	8001c9e <HAL_RCC_OscConfig+0x1de>
      }
    }
    else
    {
      /* Check the HSI State */
      if((RCC_OscInitStruct->HSIState)!= RCC_HSI_OFF)
 8001c28:	687b      	ldr	r3, [r7, #4]
 8001c2a:	68db      	ldr	r3, [r3, #12]
 8001c2c:	2b00      	cmp	r3, #0
 8001c2e:	d020      	beq.n	8001c72 <HAL_RCC_OscConfig+0x1b2>
      {
        /* Enable the Internal High Speed oscillator (HSI). */
        __HAL_RCC_HSI_ENABLE();
 8001c30:	4b4f      	ldr	r3, [pc, #316]	; (8001d70 <HAL_RCC_OscConfig+0x2b0>)
 8001c32:	2201      	movs	r2, #1
 8001c34:	601a      	str	r2, [r3, #0]

        /* Get Start Tick*/
        tickstart = HAL_GetTick();
 8001c36:	f7ff f8ff 	bl	8000e38 <HAL_GetTick>
 8001c3a:	6138      	str	r0, [r7, #16]

        /* Wait till HSI is ready */
        while(__HAL_RCC_GET_FLAG(RCC_FLAG_HSIRDY) == RESET)
 8001c3c:	e008      	b.n	8001c50 <HAL_RCC_OscConfig+0x190>
        {
          if((HAL_GetTick() - tickstart ) > HSI_TIMEOUT_VALUE)
 8001c3e:	f7ff f8fb 	bl	8000e38 <HAL_GetTick>
 8001c42:	4602      	mov	r2, r0
 8001c44:	693b      	ldr	r3, [r7, #16]
 8001c46:	1ad3      	subs	r3, r2, r3
 8001c48:	2b02      	cmp	r3, #2
 8001c4a:	d901      	bls.n	8001c50 <HAL_RCC_OscConfig+0x190>
          {
            return HAL_TIMEOUT;
 8001c4c:	2303      	movs	r3, #3
 8001c4e:	e19c      	b.n	8001f8a <HAL_RCC_OscConfig+0x4ca>
        while(__HAL_RCC_GET_FLAG(RCC_FLAG_HSIRDY) == RESET)
 8001c50:	4b46      	ldr	r3, [pc, #280]	; (8001d6c <HAL_RCC_OscConfig+0x2ac>)
 8001c52:	681b      	ldr	r3, [r3, #0]
 8001c54:	f003 0302 	and.w	r3, r3, #2
 8001c58:	2b00      	cmp	r3, #0
 8001c5a:	d0f0      	beq.n	8001c3e <HAL_RCC_OscConfig+0x17e>
          }
        }

        /* Adjusts the Internal High Speed oscillator (HSI) calibration value. */
        __HAL_RCC_HSI_CALIBRATIONVALUE_ADJUST(RCC_OscInitStruct->HSICalibrationValue);
 8001c5c:	4b43      	ldr	r3, [pc, #268]	; (8001d6c <HAL_RCC_OscConfig+0x2ac>)
 8001c5e:	681b      	ldr	r3, [r3, #0]
 8001c60:	f023 02f8 	bic.w	r2, r3, #248	; 0xf8
 8001c64:	687b      	ldr	r3, [r7, #4]
 8001c66:	691b      	ldr	r3, [r3, #16]
 8001c68:	00db      	lsls	r3, r3, #3
 8001c6a:	4940      	ldr	r1, [pc, #256]	; (8001d6c <HAL_RCC_OscConfig+0x2ac>)
 8001c6c:	4313      	orrs	r3, r2
 8001c6e:	600b      	str	r3, [r1, #0]
 8001c70:	e015      	b.n	8001c9e <HAL_RCC_OscConfig+0x1de>
      }
      else
      {
        /* Disable the Internal High Speed oscillator (HSI). */
        __HAL_RCC_HSI_DISABLE();
 8001c72:	4b3f      	ldr	r3, [pc, #252]	; (8001d70 <HAL_RCC_OscConfig+0x2b0>)
 8001c74:	2200      	movs	r2, #0
 8001c76:	601a      	str	r2, [r3, #0]

        /* Get Start Tick*/
        tickstart = HAL_GetTick();
 8001c78:	f7ff f8de 	bl	8000e38 <HAL_GetTick>
 8001c7c:	6138      	str	r0, [r7, #16]

        /* Wait till HSI is ready */
        while(__HAL_RCC_GET_FLAG(RCC_FLAG_HSIRDY) != RESET)
 8001c7e:	e008      	b.n	8001c92 <HAL_RCC_OscConfig+0x1d2>
        {
          if((HAL_GetTick() - tickstart ) > HSI_TIMEOUT_VALUE)
 8001c80:	f7ff f8da 	bl	8000e38 <HAL_GetTick>
 8001c84:	4602      	mov	r2, r0
 8001c86:	693b      	ldr	r3, [r7, #16]
 8001c88:	1ad3      	subs	r3, r2, r3
 8001c8a:	2b02      	cmp	r3, #2
 8001c8c:	d901      	bls.n	8001c92 <HAL_RCC_OscConfig+0x1d2>
          {
            return HAL_TIMEOUT;
 8001c8e:	2303      	movs	r3, #3
 8001c90:	e17b      	b.n	8001f8a <HAL_RCC_OscConfig+0x4ca>
        while(__HAL_RCC_GET_FLAG(RCC_FLAG_HSIRDY) != RESET)
 8001c92:	4b36      	ldr	r3, [pc, #216]	; (8001d6c <HAL_RCC_OscConfig+0x2ac>)
 8001c94:	681b      	ldr	r3, [r3, #0]
 8001c96:	f003 0302 	and.w	r3, r3, #2
 8001c9a:	2b00      	cmp	r3, #0
 8001c9c:	d1f0      	bne.n	8001c80 <HAL_RCC_OscConfig+0x1c0>
        }
      }
    }
  }
  /*------------------------------ LSI Configuration -------------------------*/
  if(((RCC_OscInitStruct->OscillatorType) & RCC_OSCILLATORTYPE_LSI) == RCC_OSCILLATORTYPE_LSI)
 8001c9e:	687b      	ldr	r3, [r7, #4]
 8001ca0:	681b      	ldr	r3, [r3, #0]
 8001ca2:	f003 0308 	and.w	r3, r3, #8
 8001ca6:	2b00      	cmp	r3, #0
 8001ca8:	d030      	beq.n	8001d0c <HAL_RCC_OscConfig+0x24c>
  {
    /* Check the parameters */
    assert_param(IS_RCC_LSI(RCC_OscInitStruct->LSIState));

    /* Check the LSI State */
    if((RCC_OscInitStruct->LSIState)!= RCC_LSI_OFF)
 8001caa:	687b      	ldr	r3, [r7, #4]
 8001cac:	695b      	ldr	r3, [r3, #20]
 8001cae:	2b00      	cmp	r3, #0
 8001cb0:	d016      	beq.n	8001ce0 <HAL_RCC_OscConfig+0x220>
    {
      /* Enable the Internal Low Speed oscillator (LSI). */
      __HAL_RCC_LSI_ENABLE();
 8001cb2:	4b30      	ldr	r3, [pc, #192]	; (8001d74 <HAL_RCC_OscConfig+0x2b4>)
 8001cb4:	2201      	movs	r2, #1
 8001cb6:	601a      	str	r2, [r3, #0]

      /* Get Start Tick*/
      tickstart = HAL_GetTick();
 8001cb8:	f7ff f8be 	bl	8000e38 <HAL_GetTick>
 8001cbc:	6138      	str	r0, [r7, #16]

      /* Wait till LSI is ready */
      while(__HAL_RCC_GET_FLAG(RCC_FLAG_LSIRDY) == RESET)
 8001cbe:	e008      	b.n	8001cd2 <HAL_RCC_OscConfig+0x212>
      {
        if((HAL_GetTick() - tickstart ) > LSI_TIMEOUT_VALUE)
 8001cc0:	f7ff f8ba 	bl	8000e38 <HAL_GetTick>
 8001cc4:	4602      	mov	r2, r0
 8001cc6:	693b      	ldr	r3, [r7, #16]
 8001cc8:	1ad3      	subs	r3, r2, r3
 8001cca:	2b02      	cmp	r3, #2
 8001ccc:	d901      	bls.n	8001cd2 <HAL_RCC_OscConfig+0x212>
        {
          return HAL_TIMEOUT;
 8001cce:	2303      	movs	r3, #3
 8001cd0:	e15b      	b.n	8001f8a <HAL_RCC_OscConfig+0x4ca>
      while(__HAL_RCC_GET_FLAG(RCC_FLAG_LSIRDY) == RESET)
 8001cd2:	4b26      	ldr	r3, [pc, #152]	; (8001d6c <HAL_RCC_OscConfig+0x2ac>)
 8001cd4:	6f5b      	ldr	r3, [r3, #116]	; 0x74
 8001cd6:	f003 0302 	and.w	r3, r3, #2
 8001cda:	2b00      	cmp	r3, #0
 8001cdc:	d0f0      	beq.n	8001cc0 <HAL_RCC_OscConfig+0x200>
 8001cde:	e015      	b.n	8001d0c <HAL_RCC_OscConfig+0x24c>
      }
    }
    else
    {
      /* Disable the Internal Low Speed oscillator (LSI). */
      __HAL_RCC_LSI_DISABLE();
 8001ce0:	4b24      	ldr	r3, [pc, #144]	; (8001d74 <HAL_RCC_OscConfig+0x2b4>)
 8001ce2:	2200      	movs	r2, #0
 8001ce4:	601a      	str	r2, [r3, #0]

      /* Get Start Tick */
      tickstart = HAL_GetTick();
 8001ce6:	f7ff f8a7 	bl	8000e38 <HAL_GetTick>
 8001cea:	6138      	str	r0, [r7, #16]

      /* Wait till LSI is ready */
      while(__HAL_RCC_GET_FLAG(RCC_FLAG_LSIRDY) != RESET)
 8001cec:	e008      	b.n	8001d00 <HAL_RCC_OscConfig+0x240>
      {
        if((HAL_GetTick() - tickstart ) > LSI_TIMEOUT_VALUE)
 8001cee:	f7ff f8a3 	bl	8000e38 <HAL_GetTick>
 8001cf2:	4602      	mov	r2, r0
 8001cf4:	693b      	ldr	r3, [r7, #16]
 8001cf6:	1ad3      	subs	r3, r2, r3
 8001cf8:	2b02      	cmp	r3, #2
 8001cfa:	d901      	bls.n	8001d00 <HAL_RCC_OscConfig+0x240>
        {
          return HAL_TIMEOUT;
 8001cfc:	2303      	movs	r3, #3
 8001cfe:	e144      	b.n	8001f8a <HAL_RCC_OscConfig+0x4ca>
      while(__HAL_RCC_GET_FLAG(RCC_FLAG_LSIRDY) != RESET)
 8001d00:	4b1a      	ldr	r3, [pc, #104]	; (8001d6c <HAL_RCC_OscConfig+0x2ac>)
 8001d02:	6f5b      	ldr	r3, [r3, #116]	; 0x74
 8001d04:	f003 0302 	and.w	r3, r3, #2
 8001d08:	2b00      	cmp	r3, #0
 8001d0a:	d1f0      	bne.n	8001cee <HAL_RCC_OscConfig+0x22e>
        }
      }
    }
  }
  /*------------------------------ LSE Configuration -------------------------*/
  if(((RCC_OscInitStruct->OscillatorType) & RCC_OSCILLATORTYPE_LSE) == RCC_OSCILLATORTYPE_LSE)
 8001d0c:	687b      	ldr	r3, [r7, #4]
 8001d0e:	681b      	ldr	r3, [r3, #0]
 8001d10:	f003 0304 	and.w	r3, r3, #4
 8001d14:	2b00      	cmp	r3, #0
 8001d16:	f000 80a0 	beq.w	8001e5a <HAL_RCC_OscConfig+0x39a>
  {
    FlagStatus       pwrclkchanged = RESET;
 8001d1a:	2300      	movs	r3, #0
 8001d1c:	75fb      	strb	r3, [r7, #23]
    /* Check the parameters */
    assert_param(IS_RCC_LSE(RCC_OscInitStruct->LSEState));

    /* Update LSE configuration in Backup Domain control register    */
    /* Requires to enable write access to Backup Domain of necessary */
    if(__HAL_RCC_PWR_IS_CLK_DISABLED())
 8001d1e:	4b13      	ldr	r3, [pc, #76]	; (8001d6c <HAL_RCC_OscConfig+0x2ac>)
 8001d20:	6c1b      	ldr	r3, [r3, #64]	; 0x40
 8001d22:	f003 5380 	and.w	r3, r3, #268435456	; 0x10000000
 8001d26:	2b00      	cmp	r3, #0
 8001d28:	d10f      	bne.n	8001d4a <HAL_RCC_OscConfig+0x28a>
    {
      __HAL_RCC_PWR_CLK_ENABLE();
 8001d2a:	2300      	movs	r3, #0
 8001d2c:	60bb      	str	r3, [r7, #8]
 8001d2e:	4b0f      	ldr	r3, [pc, #60]	; (8001d6c <HAL_RCC_OscConfig+0x2ac>)
 8001d30:	6c1b      	ldr	r3, [r3, #64]	; 0x40
 8001d32:	4a0e      	ldr	r2, [pc, #56]	; (8001d6c <HAL_RCC_OscConfig+0x2ac>)
 8001d34:	f043 5380 	orr.w	r3, r3, #268435456	; 0x10000000
 8001d38:	6413      	str	r3, [r2, #64]	; 0x40
 8001d3a:	4b0c      	ldr	r3, [pc, #48]	; (8001d6c <HAL_RCC_OscConfig+0x2ac>)
 8001d3c:	6c1b      	ldr	r3, [r3, #64]	; 0x40
 8001d3e:	f003 5380 	and.w	r3, r3, #268435456	; 0x10000000
 8001d42:	60bb      	str	r3, [r7, #8]
 8001d44:	68bb      	ldr	r3, [r7, #8]
      pwrclkchanged = SET;
 8001d46:	2301      	movs	r3, #1
 8001d48:	75fb      	strb	r3, [r7, #23]
    }

    if(HAL_IS_BIT_CLR(PWR->CR, PWR_CR_DBP))
 8001d4a:	4b0b      	ldr	r3, [pc, #44]	; (8001d78 <HAL_RCC_OscConfig+0x2b8>)
 8001d4c:	681b      	ldr	r3, [r3, #0]
 8001d4e:	f403 7380 	and.w	r3, r3, #256	; 0x100
 8001d52:	2b00      	cmp	r3, #0
 8001d54:	d121      	bne.n	8001d9a <HAL_RCC_OscConfig+0x2da>
    {
      /* Enable write access to Backup domain */
      SET_BIT(PWR->CR, PWR_CR_DBP);
 8001d56:	4b08      	ldr	r3, [pc, #32]	; (8001d78 <HAL_RCC_OscConfig+0x2b8>)
 8001d58:	681b      	ldr	r3, [r3, #0]
 8001d5a:	4a07      	ldr	r2, [pc, #28]	; (8001d78 <HAL_RCC_OscConfig+0x2b8>)
 8001d5c:	f443 7380 	orr.w	r3, r3, #256	; 0x100
 8001d60:	6013      	str	r3, [r2, #0]

      /* Wait for Backup domain Write protection disable */
      tickstart = HAL_GetTick();
 8001d62:	f7ff f869 	bl	8000e38 <HAL_GetTick>
 8001d66:	6138      	str	r0, [r7, #16]

      while(HAL_IS_BIT_CLR(PWR->CR, PWR_CR_DBP))
 8001d68:	e011      	b.n	8001d8e <HAL_RCC_OscConfig+0x2ce>
 8001d6a:	bf00      	nop
 8001d6c:	40023800 	.word	0x40023800
 8001d70:	42470000 	.word	0x42470000
 8001d74:	42470e80 	.word	0x42470e80
 8001d78:	40007000 	.word	0x40007000
      {
        if((HAL_GetTick() - tickstart) > RCC_DBP_TIMEOUT_VALUE)
 8001d7c:	f7ff f85c 	bl	8000e38 <HAL_GetTick>
 8001d80:	4602      	mov	r2, r0
 8001d82:	693b      	ldr	r3, [r7, #16]
 8001d84:	1ad3      	subs	r3, r2, r3
 8001d86:	2b02      	cmp	r3, #2
 8001d88:	d901      	bls.n	8001d8e <HAL_RCC_OscConfig+0x2ce>
        {
          return HAL_TIMEOUT;
 8001d8a:	2303      	movs	r3, #3
 8001d8c:	e0fd      	b.n	8001f8a <HAL_RCC_OscConfig+0x4ca>
      while(HAL_IS_BIT_CLR(PWR->CR, PWR_CR_DBP))
 8001d8e:	4b81      	ldr	r3, [pc, #516]	; (8001f94 <HAL_RCC_OscConfig+0x4d4>)
 8001d90:	681b      	ldr	r3, [r3, #0]
 8001d92:	f403 7380 	and.w	r3, r3, #256	; 0x100
 8001d96:	2b00      	cmp	r3, #0
 8001d98:	d0f0      	beq.n	8001d7c <HAL_RCC_OscConfig+0x2bc>
        }
      }
    }

    /* Set the new LSE configuration -----------------------------------------*/
    __HAL_RCC_LSE_CONFIG(RCC_OscInitStruct->LSEState);
 8001d9a:	687b      	ldr	r3, [r7, #4]
 8001d9c:	689b      	ldr	r3, [r3, #8]
 8001d9e:	2b01      	cmp	r3, #1
 8001da0:	d106      	bne.n	8001db0 <HAL_RCC_OscConfig+0x2f0>
 8001da2:	4b7d      	ldr	r3, [pc, #500]	; (8001f98 <HAL_RCC_OscConfig+0x4d8>)
 8001da4:	6f1b      	ldr	r3, [r3, #112]	; 0x70
 8001da6:	4a7c      	ldr	r2, [pc, #496]	; (8001f98 <HAL_RCC_OscConfig+0x4d8>)
 8001da8:	f043 0301 	orr.w	r3, r3, #1
 8001dac:	6713      	str	r3, [r2, #112]	; 0x70
 8001dae:	e01c      	b.n	8001dea <HAL_RCC_OscConfig+0x32a>
 8001db0:	687b      	ldr	r3, [r7, #4]
 8001db2:	689b      	ldr	r3, [r3, #8]
 8001db4:	2b05      	cmp	r3, #5
 8001db6:	d10c      	bne.n	8001dd2 <HAL_RCC_OscConfig+0x312>
 8001db8:	4b77      	ldr	r3, [pc, #476]	; (8001f98 <HAL_RCC_OscConfig+0x4d8>)
 8001dba:	6f1b      	ldr	r3, [r3, #112]	; 0x70
 8001dbc:	4a76      	ldr	r2, [pc, #472]	; (8001f98 <HAL_RCC_OscConfig+0x4d8>)
 8001dbe:	f043 0304 	orr.w	r3, r3, #4
 8001dc2:	6713      	str	r3, [r2, #112]	; 0x70
 8001dc4:	4b74      	ldr	r3, [pc, #464]	; (8001f98 <HAL_RCC_OscConfig+0x4d8>)
 8001dc6:	6f1b      	ldr	r3, [r3, #112]	; 0x70
 8001dc8:	4a73      	ldr	r2, [pc, #460]	; (8001f98 <HAL_RCC_OscConfig+0x4d8>)
 8001dca:	f043 0301 	orr.w	r3, r3, #1
 8001dce:	6713      	str	r3, [r2, #112]	; 0x70
 8001dd0:	e00b      	b.n	8001dea <HAL_RCC_OscConfig+0x32a>
 8001dd2:	4b71      	ldr	r3, [pc, #452]	; (8001f98 <HAL_RCC_OscConfig+0x4d8>)
 8001dd4:	6f1b      	ldr	r3, [r3, #112]	; 0x70
 8001dd6:	4a70      	ldr	r2, [pc, #448]	; (8001f98 <HAL_RCC_OscConfig+0x4d8>)
 8001dd8:	f023 0301 	bic.w	r3, r3, #1
 8001ddc:	6713      	str	r3, [r2, #112]	; 0x70
 8001dde:	4b6e      	ldr	r3, [pc, #440]	; (8001f98 <HAL_RCC_OscConfig+0x4d8>)
 8001de0:	6f1b      	ldr	r3, [r3, #112]	; 0x70
 8001de2:	4a6d      	ldr	r2, [pc, #436]	; (8001f98 <HAL_RCC_OscConfig+0x4d8>)
 8001de4:	f023 0304 	bic.w	r3, r3, #4
 8001de8:	6713      	str	r3, [r2, #112]	; 0x70
    /* Check the LSE State */
    if((RCC_OscInitStruct->LSEState) != RCC_LSE_OFF)
 8001dea:	687b      	ldr	r3, [r7, #4]
 8001dec:	689b      	ldr	r3, [r3, #8]
 8001dee:	2b00      	cmp	r3, #0
 8001df0:	d015      	beq.n	8001e1e <HAL_RCC_OscConfig+0x35e>
    {
      /* Get Start Tick*/
      tickstart = HAL_GetTick();
 8001df2:	f7ff f821 	bl	8000e38 <HAL_GetTick>
 8001df6:	6138      	str	r0, [r7, #16]

      /* Wait till LSE is ready */
      while(__HAL_RCC_GET_FLAG(RCC_FLAG_LSERDY) == RESET)
 8001df8:	e00a      	b.n	8001e10 <HAL_RCC_OscConfig+0x350>
      {
        if((HAL_GetTick() - tickstart ) > RCC_LSE_TIMEOUT_VALUE)
 8001dfa:	f7ff f81d 	bl	8000e38 <HAL_GetTick>
 8001dfe:	4602      	mov	r2, r0
 8001e00:	693b      	ldr	r3, [r7, #16]
 8001e02:	1ad3      	subs	r3, r2, r3
 8001e04:	f241 3288 	movw	r2, #5000	; 0x1388
 8001e08:	4293      	cmp	r3, r2
 8001e0a:	d901      	bls.n	8001e10 <HAL_RCC_OscConfig+0x350>
        {
          return HAL_TIMEOUT;
 8001e0c:	2303      	movs	r3, #3
 8001e0e:	e0bc      	b.n	8001f8a <HAL_RCC_OscConfig+0x4ca>
      while(__HAL_RCC_GET_FLAG(RCC_FLAG_LSERDY) == RESET)
 8001e10:	4b61      	ldr	r3, [pc, #388]	; (8001f98 <HAL_RCC_OscConfig+0x4d8>)
 8001e12:	6f1b      	ldr	r3, [r3, #112]	; 0x70
 8001e14:	f003 0302 	and.w	r3, r3, #2
 8001e18:	2b00      	cmp	r3, #0
 8001e1a:	d0ee      	beq.n	8001dfa <HAL_RCC_OscConfig+0x33a>
 8001e1c:	e014      	b.n	8001e48 <HAL_RCC_OscConfig+0x388>
      }
    }
    else
    {
      /* Get Start Tick */
      tickstart = HAL_GetTick();
 8001e1e:	f7ff f80b 	bl	8000e38 <HAL_GetTick>
 8001e22:	6138      	str	r0, [r7, #16]

      /* Wait till LSE is ready */
      while(__HAL_RCC_GET_FLAG(RCC_FLAG_LSERDY) != RESET)
 8001e24:	e00a      	b.n	8001e3c <HAL_RCC_OscConfig+0x37c>
      {
        if((HAL_GetTick() - tickstart ) > RCC_LSE_TIMEOUT_VALUE)
 8001e26:	f7ff f807 	bl	8000e38 <HAL_GetTick>
 8001e2a:	4602      	mov	r2, r0
 8001e2c:	693b      	ldr	r3, [r7, #16]
 8001e2e:	1ad3      	subs	r3, r2, r3
 8001e30:	f241 3288 	movw	r2, #5000	; 0x1388
 8001e34:	4293      	cmp	r3, r2
 8001e36:	d901      	bls.n	8001e3c <HAL_RCC_OscConfig+0x37c>
        {
          return HAL_TIMEOUT;
 8001e38:	2303      	movs	r3, #3
 8001e3a:	e0a6      	b.n	8001f8a <HAL_RCC_OscConfig+0x4ca>
      while(__HAL_RCC_GET_FLAG(RCC_FLAG_LSERDY) != RESET)
 8001e3c:	4b56      	ldr	r3, [pc, #344]	; (8001f98 <HAL_RCC_OscConfig+0x4d8>)
 8001e3e:	6f1b      	ldr	r3, [r3, #112]	; 0x70
 8001e40:	f003 0302 	and.w	r3, r3, #2
 8001e44:	2b00      	cmp	r3, #0
 8001e46:	d1ee      	bne.n	8001e26 <HAL_RCC_OscConfig+0x366>
        }
      }
    }

    /* Restore clock configuration if changed */
    if(pwrclkchanged == SET)
 8001e48:	7dfb      	ldrb	r3, [r7, #23]
 8001e4a:	2b01      	cmp	r3, #1
 8001e4c:	d105      	bne.n	8001e5a <HAL_RCC_OscConfig+0x39a>
    {
      __HAL_RCC_PWR_CLK_DISABLE();
 8001e4e:	4b52      	ldr	r3, [pc, #328]	; (8001f98 <HAL_RCC_OscConfig+0x4d8>)
 8001e50:	6c1b      	ldr	r3, [r3, #64]	; 0x40
 8001e52:	4a51      	ldr	r2, [pc, #324]	; (8001f98 <HAL_RCC_OscConfig+0x4d8>)
 8001e54:	f023 5380 	bic.w	r3, r3, #268435456	; 0x10000000
 8001e58:	6413      	str	r3, [r2, #64]	; 0x40
    }
  }
  /*-------------------------------- PLL Configuration -----------------------*/
  /* Check the parameters */
  assert_param(IS_RCC_PLL(RCC_OscInitStruct->PLL.PLLState));
  if ((RCC_OscInitStruct->PLL.PLLState) != RCC_PLL_NONE)
 8001e5a:	687b      	ldr	r3, [r7, #4]
 8001e5c:	699b      	ldr	r3, [r3, #24]
 8001e5e:	2b00      	cmp	r3, #0
 8001e60:	f000 8092 	beq.w	8001f88 <HAL_RCC_OscConfig+0x4c8>
  {
    /* Check if the PLL is used as system clock or not */
    if(__HAL_RCC_GET_SYSCLK_SOURCE() != RCC_CFGR_SWS_PLL)
 8001e64:	4b4c      	ldr	r3, [pc, #304]	; (8001f98 <HAL_RCC_OscConfig+0x4d8>)
 8001e66:	689b      	ldr	r3, [r3, #8]
 8001e68:	f003 030c 	and.w	r3, r3, #12
 8001e6c:	2b08      	cmp	r3, #8
 8001e6e:	d05c      	beq.n	8001f2a <HAL_RCC_OscConfig+0x46a>
    {
      if((RCC_OscInitStruct->PLL.PLLState) == RCC_PLL_ON)
 8001e70:	687b      	ldr	r3, [r7, #4]
 8001e72:	699b      	ldr	r3, [r3, #24]
 8001e74:	2b02      	cmp	r3, #2
 8001e76:	d141      	bne.n	8001efc <HAL_RCC_OscConfig+0x43c>
        assert_param(IS_RCC_PLLN_VALUE(RCC_OscInitStruct->PLL.PLLN));
        assert_param(IS_RCC_PLLP_VALUE(RCC_OscInitStruct->PLL.PLLP));
        assert_param(IS_RCC_PLLQ_VALUE(RCC_OscInitStruct->PLL.PLLQ));

        /* Disable the main PLL. */
        __HAL_RCC_PLL_DISABLE();
 8001e78:	4b48      	ldr	r3, [pc, #288]	; (8001f9c <HAL_RCC_OscConfig+0x4dc>)
 8001e7a:	2200      	movs	r2, #0
 8001e7c:	601a      	str	r2, [r3, #0]

        /* Get Start Tick */
        tickstart = HAL_GetTick();
 8001e7e:	f7fe ffdb 	bl	8000e38 <HAL_GetTick>
 8001e82:	6138      	str	r0, [r7, #16]

        /* Wait till PLL is ready */
        while(__HAL_RCC_GET_FLAG(RCC_FLAG_PLLRDY) != RESET)
 8001e84:	e008      	b.n	8001e98 <HAL_RCC_OscConfig+0x3d8>
        {
          if((HAL_GetTick() - tickstart ) > PLL_TIMEOUT_VALUE)
 8001e86:	f7fe ffd7 	bl	8000e38 <HAL_GetTick>
 8001e8a:	4602      	mov	r2, r0
 8001e8c:	693b      	ldr	r3, [r7, #16]
 8001e8e:	1ad3      	subs	r3, r2, r3
 8001e90:	2b02      	cmp	r3, #2
 8001e92:	d901      	bls.n	8001e98 <HAL_RCC_OscConfig+0x3d8>
          {
            return HAL_TIMEOUT;
 8001e94:	2303      	movs	r3, #3
 8001e96:	e078      	b.n	8001f8a <HAL_RCC_OscConfig+0x4ca>
        while(__HAL_RCC_GET_FLAG(RCC_FLAG_PLLRDY) != RESET)
 8001e98:	4b3f      	ldr	r3, [pc, #252]	; (8001f98 <HAL_RCC_OscConfig+0x4d8>)
 8001e9a:	681b      	ldr	r3, [r3, #0]
 8001e9c:	f003 7300 	and.w	r3, r3, #33554432	; 0x2000000
 8001ea0:	2b00      	cmp	r3, #0
 8001ea2:	d1f0      	bne.n	8001e86 <HAL_RCC_OscConfig+0x3c6>
          }
        }

        /* Configure the main PLL clock source, multiplication and division factors. */
        WRITE_REG(RCC->PLLCFGR, (RCC_OscInitStruct->PLL.PLLSource                                            | \
 8001ea4:	687b      	ldr	r3, [r7, #4]
 8001ea6:	69da      	ldr	r2, [r3, #28]
 8001ea8:	687b      	ldr	r3, [r7, #4]
 8001eaa:	6a1b      	ldr	r3, [r3, #32]
 8001eac:	431a      	orrs	r2, r3
 8001eae:	687b      	ldr	r3, [r7, #4]
 8001eb0:	6a5b      	ldr	r3, [r3, #36]	; 0x24
 8001eb2:	019b      	lsls	r3, r3, #6
 8001eb4:	431a      	orrs	r2, r3
 8001eb6:	687b      	ldr	r3, [r7, #4]
 8001eb8:	6a9b      	ldr	r3, [r3, #40]	; 0x28
 8001eba:	085b      	lsrs	r3, r3, #1
 8001ebc:	3b01      	subs	r3, #1
 8001ebe:	041b      	lsls	r3, r3, #16
 8001ec0:	431a      	orrs	r2, r3
 8001ec2:	687b      	ldr	r3, [r7, #4]
 8001ec4:	6adb      	ldr	r3, [r3, #44]	; 0x2c
 8001ec6:	061b      	lsls	r3, r3, #24
 8001ec8:	4933      	ldr	r1, [pc, #204]	; (8001f98 <HAL_RCC_OscConfig+0x4d8>)
 8001eca:	4313      	orrs	r3, r2
 8001ecc:	604b      	str	r3, [r1, #4]
                                 RCC_OscInitStruct->PLL.PLLM                                                 | \
                                 (RCC_OscInitStruct->PLL.PLLN << RCC_PLLCFGR_PLLN_Pos)             | \
                                 (((RCC_OscInitStruct->PLL.PLLP >> 1U) - 1U) << RCC_PLLCFGR_PLLP_Pos) | \
                                 (RCC_OscInitStruct->PLL.PLLQ << RCC_PLLCFGR_PLLQ_Pos)));
        /* Enable the main PLL. */
        __HAL_RCC_PLL_ENABLE();
 8001ece:	4b33      	ldr	r3, [pc, #204]	; (8001f9c <HAL_RCC_OscConfig+0x4dc>)
 8001ed0:	2201      	movs	r2, #1
 8001ed2:	601a      	str	r2, [r3, #0]

        /* Get Start Tick */
        tickstart = HAL_GetTick();
 8001ed4:	f7fe ffb0 	bl	8000e38 <HAL_GetTick>
 8001ed8:	6138      	str	r0, [r7, #16]

        /* Wait till PLL is ready */
        while(__HAL_RCC_GET_FLAG(RCC_FLAG_PLLRDY) == RESET)
 8001eda:	e008      	b.n	8001eee <HAL_RCC_OscConfig+0x42e>
        {
          if((HAL_GetTick() - tickstart ) > PLL_TIMEOUT_VALUE)
 8001edc:	f7fe ffac 	bl	8000e38 <HAL_GetTick>
 8001ee0:	4602      	mov	r2, r0
 8001ee2:	693b      	ldr	r3, [r7, #16]
 8001ee4:	1ad3      	subs	r3, r2, r3
 8001ee6:	2b02      	cmp	r3, #2
 8001ee8:	d901      	bls.n	8001eee <HAL_RCC_OscConfig+0x42e>
          {
            return HAL_TIMEOUT;
 8001eea:	2303      	movs	r3, #3
 8001eec:	e04d      	b.n	8001f8a <HAL_RCC_OscConfig+0x4ca>
        while(__HAL_RCC_GET_FLAG(RCC_FLAG_PLLRDY) == RESET)
 8001eee:	4b2a      	ldr	r3, [pc, #168]	; (8001f98 <HAL_RCC_OscConfig+0x4d8>)
 8001ef0:	681b      	ldr	r3, [r3, #0]
 8001ef2:	f003 7300 	and.w	r3, r3, #33554432	; 0x2000000
 8001ef6:	2b00      	cmp	r3, #0
 8001ef8:	d0f0      	beq.n	8001edc <HAL_RCC_OscConfig+0x41c>
 8001efa:	e045      	b.n	8001f88 <HAL_RCC_OscConfig+0x4c8>
        }
      }
      else
      {
        /* Disable the main PLL. */
        __HAL_RCC_PLL_DISABLE();
 8001efc:	4b27      	ldr	r3, [pc, #156]	; (8001f9c <HAL_RCC_OscConfig+0x4dc>)
 8001efe:	2200      	movs	r2, #0
 8001f00:	601a      	str	r2, [r3, #0]

        /* Get Start Tick */
        tickstart = HAL_GetTick();
 8001f02:	f7fe ff99 	bl	8000e38 <HAL_GetTick>
 8001f06:	6138      	str	r0, [r7, #16]

        /* Wait till PLL is ready */
        while(__HAL_RCC_GET_FLAG(RCC_FLAG_PLLRDY) != RESET)
 8001f08:	e008      	b.n	8001f1c <HAL_RCC_OscConfig+0x45c>
        {
          if((HAL_GetTick() - tickstart ) > PLL_TIMEOUT_VALUE)
 8001f0a:	f7fe ff95 	bl	8000e38 <HAL_GetTick>
 8001f0e:	4602      	mov	r2, r0
 8001f10:	693b      	ldr	r3, [r7, #16]
 8001f12:	1ad3      	subs	r3, r2, r3
 8001f14:	2b02      	cmp	r3, #2
 8001f16:	d901      	bls.n	8001f1c <HAL_RCC_OscConfig+0x45c>
          {
            return HAL_TIMEOUT;
 8001f18:	2303      	movs	r3, #3
 8001f1a:	e036      	b.n	8001f8a <HAL_RCC_OscConfig+0x4ca>
        while(__HAL_RCC_GET_FLAG(RCC_FLAG_PLLRDY) != RESET)
 8001f1c:	4b1e      	ldr	r3, [pc, #120]	; (8001f98 <HAL_RCC_OscConfig+0x4d8>)
 8001f1e:	681b      	ldr	r3, [r3, #0]
 8001f20:	f003 7300 	and.w	r3, r3, #33554432	; 0x2000000
 8001f24:	2b00      	cmp	r3, #0
 8001f26:	d1f0      	bne.n	8001f0a <HAL_RCC_OscConfig+0x44a>
 8001f28:	e02e      	b.n	8001f88 <HAL_RCC_OscConfig+0x4c8>
      }
    }
    else
    {
      /* Check if there is a request to disable the PLL used as System clock source */
      if((RCC_OscInitStruct->PLL.PLLState) == RCC_PLL_OFF)
 8001f2a:	687b      	ldr	r3, [r7, #4]
 8001f2c:	699b      	ldr	r3, [r3, #24]
 8001f2e:	2b01      	cmp	r3, #1
 8001f30:	d101      	bne.n	8001f36 <HAL_RCC_OscConfig+0x476>
      {
        return HAL_ERROR;
 8001f32:	2301      	movs	r3, #1
 8001f34:	e029      	b.n	8001f8a <HAL_RCC_OscConfig+0x4ca>
      }
      else
      {
        /* Do not return HAL_ERROR if request repeats the current configuration */
        pll_config = RCC->PLLCFGR;
 8001f36:	4b18      	ldr	r3, [pc, #96]	; (8001f98 <HAL_RCC_OscConfig+0x4d8>)
 8001f38:	685b      	ldr	r3, [r3, #4]
 8001f3a:	60fb      	str	r3, [r7, #12]
        if((READ_BIT(pll_config, RCC_PLLCFGR_PLLSRC) != RCC_OscInitStruct->PLL.PLLSource) ||
 8001f3c:	68fb      	ldr	r3, [r7, #12]
 8001f3e:	f403 0280 	and.w	r2, r3, #4194304	; 0x400000
 8001f42:	687b      	ldr	r3, [r7, #4]
 8001f44:	69db      	ldr	r3, [r3, #28]
 8001f46:	429a      	cmp	r2, r3
 8001f48:	d11c      	bne.n	8001f84 <HAL_RCC_OscConfig+0x4c4>
           (READ_BIT(pll_config, RCC_PLLCFGR_PLLM) != RCC_OscInitStruct->PLL.PLLM) ||
 8001f4a:	68fb      	ldr	r3, [r7, #12]
 8001f4c:	f003 023f 	and.w	r2, r3, #63	; 0x3f
 8001f50:	687b      	ldr	r3, [r7, #4]
 8001f52:	6a1b      	ldr	r3, [r3, #32]
        if((READ_BIT(pll_config, RCC_PLLCFGR_PLLSRC) != RCC_OscInitStruct->PLL.PLLSource) ||
 8001f54:	429a      	cmp	r2, r3
 8001f56:	d115      	bne.n	8001f84 <HAL_RCC_OscConfig+0x4c4>
           (READ_BIT(pll_config, RCC_PLLCFGR_PLLN) != RCC_OscInitStruct->PLL.PLLN) ||
 8001f58:	68fa      	ldr	r2, [r7, #12]
 8001f5a:	f647 73c0 	movw	r3, #32704	; 0x7fc0
 8001f5e:	4013      	ands	r3, r2
 8001f60:	687a      	ldr	r2, [r7, #4]
 8001f62:	6a52      	ldr	r2, [r2, #36]	; 0x24
           (READ_BIT(pll_config, RCC_PLLCFGR_PLLM) != RCC_OscInitStruct->PLL.PLLM) ||
 8001f64:	4293      	cmp	r3, r2
 8001f66:	d10d      	bne.n	8001f84 <HAL_RCC_OscConfig+0x4c4>
           (READ_BIT(pll_config, RCC_PLLCFGR_PLLP) != RCC_OscInitStruct->PLL.PLLP) ||
 8001f68:	68fb      	ldr	r3, [r7, #12]
 8001f6a:	f403 3240 	and.w	r2, r3, #196608	; 0x30000
 8001f6e:	687b      	ldr	r3, [r7, #4]
 8001f70:	6a9b      	ldr	r3, [r3, #40]	; 0x28
           (READ_BIT(pll_config, RCC_PLLCFGR_PLLN) != RCC_OscInitStruct->PLL.PLLN) ||
 8001f72:	429a      	cmp	r2, r3
 8001f74:	d106      	bne.n	8001f84 <HAL_RCC_OscConfig+0x4c4>
           (READ_BIT(pll_config, RCC_PLLCFGR_PLLQ) != RCC_OscInitStruct->PLL.PLLQ))
 8001f76:	68fb      	ldr	r3, [r7, #12]
 8001f78:	f003 6270 	and.w	r2, r3, #251658240	; 0xf000000
 8001f7c:	687b      	ldr	r3, [r7, #4]
 8001f7e:	6adb      	ldr	r3, [r3, #44]	; 0x2c
           (READ_BIT(pll_config, RCC_PLLCFGR_PLLP) != RCC_OscInitStruct->PLL.PLLP) ||
 8001f80:	429a      	cmp	r2, r3
 8001f82:	d001      	beq.n	8001f88 <HAL_RCC_OscConfig+0x4c8>
        {
          return HAL_ERROR;
 8001f84:	2301      	movs	r3, #1
 8001f86:	e000      	b.n	8001f8a <HAL_RCC_OscConfig+0x4ca>
        }
      }
    }
  }
  return HAL_OK;
 8001f88:	2300      	movs	r3, #0
}
 8001f8a:	4618      	mov	r0, r3
 8001f8c:	3718      	adds	r7, #24
 8001f8e:	46bd      	mov	sp, r7
 8001f90:	bd80      	pop	{r7, pc}
 8001f92:	bf00      	nop
 8001f94:	40007000 	.word	0x40007000
 8001f98:	40023800 	.word	0x40023800
 8001f9c:	42470060 	.word	0x42470060

08001fa0 <HAL_RCC_ClockConfig>:
  *         HPRE[3:0] bits to ensure that HCLK not exceed the maximum allowed frequency
  *         (for more details refer to section above "Initialization/de-initialization functions")
  * @retval None
  */
HAL_StatusTypeDef HAL_RCC_ClockConfig(RCC_ClkInitTypeDef  *RCC_ClkInitStruct, uint32_t FLatency)
{
 8001fa0:	b580      	push	{r7, lr}
 8001fa2:	b084      	sub	sp, #16
 8001fa4:	af00      	add	r7, sp, #0
 8001fa6:	6078      	str	r0, [r7, #4]
 8001fa8:	6039      	str	r1, [r7, #0]
  uint32_t tickstart;

  /* Check Null pointer */
  if(RCC_ClkInitStruct == NULL)
 8001faa:	687b      	ldr	r3, [r7, #4]
 8001fac:	2b00      	cmp	r3, #0
 8001fae:	d101      	bne.n	8001fb4 <HAL_RCC_ClockConfig+0x14>
  {
    return HAL_ERROR;
 8001fb0:	2301      	movs	r3, #1
 8001fb2:	e0cc      	b.n	800214e <HAL_RCC_ClockConfig+0x1ae>
  /* To correctly read data from FLASH memory, the number of wait states (LATENCY)
    must be correctly programmed according to the frequency of the CPU clock
    (HCLK) and the supply voltage of the device. */

  /* Increasing the number of wait states because of higher CPU frequency */
  if(FLatency > __HAL_FLASH_GET_LATENCY())
 8001fb4:	4b68      	ldr	r3, [pc, #416]	; (8002158 <HAL_RCC_ClockConfig+0x1b8>)
 8001fb6:	681b      	ldr	r3, [r3, #0]
 8001fb8:	f003 030f 	and.w	r3, r3, #15
 8001fbc:	683a      	ldr	r2, [r7, #0]
 8001fbe:	429a      	cmp	r2, r3
 8001fc0:	d90c      	bls.n	8001fdc <HAL_RCC_ClockConfig+0x3c>
  {
    /* Program the new number of wait states to the LATENCY bits in the FLASH_ACR register */
    __HAL_FLASH_SET_LATENCY(FLatency);
 8001fc2:	4b65      	ldr	r3, [pc, #404]	; (8002158 <HAL_RCC_ClockConfig+0x1b8>)
 8001fc4:	683a      	ldr	r2, [r7, #0]
 8001fc6:	b2d2      	uxtb	r2, r2
 8001fc8:	701a      	strb	r2, [r3, #0]

    /* Check that the new number of wait states is taken into account to access the Flash
    memory by reading the FLASH_ACR register */
    if(__HAL_FLASH_GET_LATENCY() != FLatency)
 8001fca:	4b63      	ldr	r3, [pc, #396]	; (8002158 <HAL_RCC_ClockConfig+0x1b8>)
 8001fcc:	681b      	ldr	r3, [r3, #0]
 8001fce:	f003 030f 	and.w	r3, r3, #15
 8001fd2:	683a      	ldr	r2, [r7, #0]
 8001fd4:	429a      	cmp	r2, r3
 8001fd6:	d001      	beq.n	8001fdc <HAL_RCC_ClockConfig+0x3c>
    {
      return HAL_ERROR;
 8001fd8:	2301      	movs	r3, #1
 8001fda:	e0b8      	b.n	800214e <HAL_RCC_ClockConfig+0x1ae>
    }
  }

  /*-------------------------- HCLK Configuration --------------------------*/
  if(((RCC_ClkInitStruct->ClockType) & RCC_CLOCKTYPE_HCLK) == RCC_CLOCKTYPE_HCLK)
 8001fdc:	687b      	ldr	r3, [r7, #4]
 8001fde:	681b      	ldr	r3, [r3, #0]
 8001fe0:	f003 0302 	and.w	r3, r3, #2
 8001fe4:	2b00      	cmp	r3, #0
 8001fe6:	d020      	beq.n	800202a <HAL_RCC_ClockConfig+0x8a>
  {
    /* Set the highest APBx dividers in order to ensure that we do not go through
       a non-spec phase whatever we decrease or increase HCLK. */
    if(((RCC_ClkInitStruct->ClockType) & RCC_CLOCKTYPE_PCLK1) == RCC_CLOCKTYPE_PCLK1)
 8001fe8:	687b      	ldr	r3, [r7, #4]
 8001fea:	681b      	ldr	r3, [r3, #0]
 8001fec:	f003 0304 	and.w	r3, r3, #4
 8001ff0:	2b00      	cmp	r3, #0
 8001ff2:	d005      	beq.n	8002000 <HAL_RCC_ClockConfig+0x60>
    {
      MODIFY_REG(RCC->CFGR, RCC_CFGR_PPRE1, RCC_HCLK_DIV16);
 8001ff4:	4b59      	ldr	r3, [pc, #356]	; (800215c <HAL_RCC_ClockConfig+0x1bc>)
 8001ff6:	689b      	ldr	r3, [r3, #8]
 8001ff8:	4a58      	ldr	r2, [pc, #352]	; (800215c <HAL_RCC_ClockConfig+0x1bc>)
 8001ffa:	f443 53e0 	orr.w	r3, r3, #7168	; 0x1c00
 8001ffe:	6093      	str	r3, [r2, #8]
    }

    if(((RCC_ClkInitStruct->ClockType) & RCC_CLOCKTYPE_PCLK2) == RCC_CLOCKTYPE_PCLK2)
 8002000:	687b      	ldr	r3, [r7, #4]
 8002002:	681b      	ldr	r3, [r3, #0]
 8002004:	f003 0308 	and.w	r3, r3, #8
 8002008:	2b00      	cmp	r3, #0
 800200a:	d005      	beq.n	8002018 <HAL_RCC_ClockConfig+0x78>
    {
      MODIFY_REG(RCC->CFGR, RCC_CFGR_PPRE2, (RCC_HCLK_DIV16 << 3));
 800200c:	4b53      	ldr	r3, [pc, #332]	; (800215c <HAL_RCC_ClockConfig+0x1bc>)
 800200e:	689b      	ldr	r3, [r3, #8]
 8002010:	4a52      	ldr	r2, [pc, #328]	; (800215c <HAL_RCC_ClockConfig+0x1bc>)
 8002012:	f443 4360 	orr.w	r3, r3, #57344	; 0xe000
 8002016:	6093      	str	r3, [r2, #8]
    }

    assert_param(IS_RCC_HCLK(RCC_ClkInitStruct->AHBCLKDivider));
    MODIFY_REG(RCC->CFGR, RCC_CFGR_HPRE, RCC_ClkInitStruct->AHBCLKDivider);
 8002018:	4b50      	ldr	r3, [pc, #320]	; (800215c <HAL_RCC_ClockConfig+0x1bc>)
 800201a:	689b      	ldr	r3, [r3, #8]
 800201c:	f023 02f0 	bic.w	r2, r3, #240	; 0xf0
 8002020:	687b      	ldr	r3, [r7, #4]
 8002022:	689b      	ldr	r3, [r3, #8]
 8002024:	494d      	ldr	r1, [pc, #308]	; (800215c <HAL_RCC_ClockConfig+0x1bc>)
 8002026:	4313      	orrs	r3, r2
 8002028:	608b      	str	r3, [r1, #8]
  }

  /*------------------------- SYSCLK Configuration ---------------------------*/
  if(((RCC_ClkInitStruct->ClockType) & RCC_CLOCKTYPE_SYSCLK) == RCC_CLOCKTYPE_SYSCLK)
 800202a:	687b      	ldr	r3, [r7, #4]
 800202c:	681b      	ldr	r3, [r3, #0]
 800202e:	f003 0301 	and.w	r3, r3, #1
 8002032:	2b00      	cmp	r3, #0
 8002034:	d044      	beq.n	80020c0 <HAL_RCC_ClockConfig+0x120>
  {
    assert_param(IS_RCC_SYSCLKSOURCE(RCC_ClkInitStruct->SYSCLKSource));

    /* HSE is selected as System Clock Source */
    if(RCC_ClkInitStruct->SYSCLKSource == RCC_SYSCLKSOURCE_HSE)
 8002036:	687b      	ldr	r3, [r7, #4]
 8002038:	685b      	ldr	r3, [r3, #4]
 800203a:	2b01      	cmp	r3, #1
 800203c:	d107      	bne.n	800204e <HAL_RCC_ClockConfig+0xae>
    {
      /* Check the HSE ready flag */
      if(__HAL_RCC_GET_FLAG(RCC_FLAG_HSERDY) == RESET)
 800203e:	4b47      	ldr	r3, [pc, #284]	; (800215c <HAL_RCC_ClockConfig+0x1bc>)
 8002040:	681b      	ldr	r3, [r3, #0]
 8002042:	f403 3300 	and.w	r3, r3, #131072	; 0x20000
 8002046:	2b00      	cmp	r3, #0
 8002048:	d119      	bne.n	800207e <HAL_RCC_ClockConfig+0xde>
      {
        return HAL_ERROR;
 800204a:	2301      	movs	r3, #1
 800204c:	e07f      	b.n	800214e <HAL_RCC_ClockConfig+0x1ae>
      }
    }
    /* PLL is selected as System Clock Source */
    else if((RCC_ClkInitStruct->SYSCLKSource == RCC_SYSCLKSOURCE_PLLCLK)   ||
 800204e:	687b      	ldr	r3, [r7, #4]
 8002050:	685b      	ldr	r3, [r3, #4]
 8002052:	2b02      	cmp	r3, #2
 8002054:	d003      	beq.n	800205e <HAL_RCC_ClockConfig+0xbe>
            (RCC_ClkInitStruct->SYSCLKSource == RCC_SYSCLKSOURCE_PLLRCLK))
 8002056:	687b      	ldr	r3, [r7, #4]
 8002058:	685b      	ldr	r3, [r3, #4]
    else if((RCC_ClkInitStruct->SYSCLKSource == RCC_SYSCLKSOURCE_PLLCLK)   ||
 800205a:	2b03      	cmp	r3, #3
 800205c:	d107      	bne.n	800206e <HAL_RCC_ClockConfig+0xce>
    {
      /* Check the PLL ready flag */
      if(__HAL_RCC_GET_FLAG(RCC_FLAG_PLLRDY) == RESET)
 800205e:	4b3f      	ldr	r3, [pc, #252]	; (800215c <HAL_RCC_ClockConfig+0x1bc>)
 8002060:	681b      	ldr	r3, [r3, #0]
 8002062:	f003 7300 	and.w	r3, r3, #33554432	; 0x2000000
 8002066:	2b00      	cmp	r3, #0
 8002068:	d109      	bne.n	800207e <HAL_RCC_ClockConfig+0xde>
      {
        return HAL_ERROR;
 800206a:	2301      	movs	r3, #1
 800206c:	e06f      	b.n	800214e <HAL_RCC_ClockConfig+0x1ae>
    }
    /* HSI is selected as System Clock Source */
    else
    {
      /* Check the HSI ready flag */
      if(__HAL_RCC_GET_FLAG(RCC_FLAG_HSIRDY) == RESET)
 800206e:	4b3b      	ldr	r3, [pc, #236]	; (800215c <HAL_RCC_ClockConfig+0x1bc>)
 8002070:	681b      	ldr	r3, [r3, #0]
 8002072:	f003 0302 	and.w	r3, r3, #2
 8002076:	2b00      	cmp	r3, #0
 8002078:	d101      	bne.n	800207e <HAL_RCC_ClockConfig+0xde>
      {
        return HAL_ERROR;
 800207a:	2301      	movs	r3, #1
 800207c:	e067      	b.n	800214e <HAL_RCC_ClockConfig+0x1ae>
      }
    }

    __HAL_RCC_SYSCLK_CONFIG(RCC_ClkInitStruct->SYSCLKSource);
 800207e:	4b37      	ldr	r3, [pc, #220]	; (800215c <HAL_RCC_ClockConfig+0x1bc>)
 8002080:	689b      	ldr	r3, [r3, #8]
 8002082:	f023 0203 	bic.w	r2, r3, #3
 8002086:	687b      	ldr	r3, [r7, #4]
 8002088:	685b      	ldr	r3, [r3, #4]
 800208a:	4934      	ldr	r1, [pc, #208]	; (800215c <HAL_RCC_ClockConfig+0x1bc>)
 800208c:	4313      	orrs	r3, r2
 800208e:	608b      	str	r3, [r1, #8]

    /* Get Start Tick */
    tickstart = HAL_GetTick();
 8002090:	f7fe fed2 	bl	8000e38 <HAL_GetTick>
 8002094:	60f8      	str	r0, [r7, #12]

    while (__HAL_RCC_GET_SYSCLK_SOURCE() != (RCC_ClkInitStruct->SYSCLKSource << RCC_CFGR_SWS_Pos))
 8002096:	e00a      	b.n	80020ae <HAL_RCC_ClockConfig+0x10e>
    {
      if ((HAL_GetTick() - tickstart) > CLOCKSWITCH_TIMEOUT_VALUE)
 8002098:	f7fe fece 	bl	8000e38 <HAL_GetTick>
 800209c:	4602      	mov	r2, r0
 800209e:	68fb      	ldr	r3, [r7, #12]
 80020a0:	1ad3      	subs	r3, r2, r3
 80020a2:	f241 3288 	movw	r2, #5000	; 0x1388
 80020a6:	4293      	cmp	r3, r2
 80020a8:	d901      	bls.n	80020ae <HAL_RCC_ClockConfig+0x10e>
      {
        return HAL_TIMEOUT;
 80020aa:	2303      	movs	r3, #3
 80020ac:	e04f      	b.n	800214e <HAL_RCC_ClockConfig+0x1ae>
    while (__HAL_RCC_GET_SYSCLK_SOURCE() != (RCC_ClkInitStruct->SYSCLKSource << RCC_CFGR_SWS_Pos))
 80020ae:	4b2b      	ldr	r3, [pc, #172]	; (800215c <HAL_RCC_ClockConfig+0x1bc>)
 80020b0:	689b      	ldr	r3, [r3, #8]
 80020b2:	f003 020c 	and.w	r2, r3, #12
 80020b6:	687b      	ldr	r3, [r7, #4]
 80020b8:	685b      	ldr	r3, [r3, #4]
 80020ba:	009b      	lsls	r3, r3, #2
 80020bc:	429a      	cmp	r2, r3
 80020be:	d1eb      	bne.n	8002098 <HAL_RCC_ClockConfig+0xf8>
      }
    }
  }

  /* Decreasing the number of wait states because of lower CPU frequency */
  if(FLatency < __HAL_FLASH_GET_LATENCY())
 80020c0:	4b25      	ldr	r3, [pc, #148]	; (8002158 <HAL_RCC_ClockConfig+0x1b8>)
 80020c2:	681b      	ldr	r3, [r3, #0]
 80020c4:	f003 030f 	and.w	r3, r3, #15
 80020c8:	683a      	ldr	r2, [r7, #0]
 80020ca:	429a      	cmp	r2, r3
 80020cc:	d20c      	bcs.n	80020e8 <HAL_RCC_ClockConfig+0x148>
  {
     /* Program the new number of wait states to the LATENCY bits in the FLASH_ACR register */
    __HAL_FLASH_SET_LATENCY(FLatency);
 80020ce:	4b22      	ldr	r3, [pc, #136]	; (8002158 <HAL_RCC_ClockConfig+0x1b8>)
 80020d0:	683a      	ldr	r2, [r7, #0]
 80020d2:	b2d2      	uxtb	r2, r2
 80020d4:	701a      	strb	r2, [r3, #0]

    /* Check that the new number of wait states is taken into account to access the Flash
    memory by reading the FLASH_ACR register */
    if(__HAL_FLASH_GET_LATENCY() != FLatency)
 80020d6:	4b20      	ldr	r3, [pc, #128]	; (8002158 <HAL_RCC_ClockConfig+0x1b8>)
 80020d8:	681b      	ldr	r3, [r3, #0]
 80020da:	f003 030f 	and.w	r3, r3, #15
 80020de:	683a      	ldr	r2, [r7, #0]
 80020e0:	429a      	cmp	r2, r3
 80020e2:	d001      	beq.n	80020e8 <HAL_RCC_ClockConfig+0x148>
    {
      return HAL_ERROR;
 80020e4:	2301      	movs	r3, #1
 80020e6:	e032      	b.n	800214e <HAL_RCC_ClockConfig+0x1ae>
    }
  }

  /*-------------------------- PCLK1 Configuration ---------------------------*/
  if(((RCC_ClkInitStruct->ClockType) & RCC_CLOCKTYPE_PCLK1) == RCC_CLOCKTYPE_PCLK1)
 80020e8:	687b      	ldr	r3, [r7, #4]
 80020ea:	681b      	ldr	r3, [r3, #0]
 80020ec:	f003 0304 	and.w	r3, r3, #4
 80020f0:	2b00      	cmp	r3, #0
 80020f2:	d008      	beq.n	8002106 <HAL_RCC_ClockConfig+0x166>
  {
    assert_param(IS_RCC_PCLK(RCC_ClkInitStruct->APB1CLKDivider));
    MODIFY_REG(RCC->CFGR, RCC_CFGR_PPRE1, RCC_ClkInitStruct->APB1CLKDivider);
 80020f4:	4b19      	ldr	r3, [pc, #100]	; (800215c <HAL_RCC_ClockConfig+0x1bc>)
 80020f6:	689b      	ldr	r3, [r3, #8]
 80020f8:	f423 52e0 	bic.w	r2, r3, #7168	; 0x1c00
 80020fc:	687b      	ldr	r3, [r7, #4]
 80020fe:	68db      	ldr	r3, [r3, #12]
 8002100:	4916      	ldr	r1, [pc, #88]	; (800215c <HAL_RCC_ClockConfig+0x1bc>)
 8002102:	4313      	orrs	r3, r2
 8002104:	608b      	str	r3, [r1, #8]
  }

  /*-------------------------- PCLK2 Configuration ---------------------------*/
  if(((RCC_ClkInitStruct->ClockType) & RCC_CLOCKTYPE_PCLK2) == RCC_CLOCKTYPE_PCLK2)
 8002106:	687b      	ldr	r3, [r7, #4]
 8002108:	681b      	ldr	r3, [r3, #0]
 800210a:	f003 0308 	and.w	r3, r3, #8
 800210e:	2b00      	cmp	r3, #0
 8002110:	d009      	beq.n	8002126 <HAL_RCC_ClockConfig+0x186>
  {
    assert_param(IS_RCC_PCLK(RCC_ClkInitStruct->APB2CLKDivider));
    MODIFY_REG(RCC->CFGR, RCC_CFGR_PPRE2, ((RCC_ClkInitStruct->APB2CLKDivider) << 3U));
 8002112:	4b12      	ldr	r3, [pc, #72]	; (800215c <HAL_RCC_ClockConfig+0x1bc>)
 8002114:	689b      	ldr	r3, [r3, #8]
 8002116:	f423 4260 	bic.w	r2, r3, #57344	; 0xe000
 800211a:	687b      	ldr	r3, [r7, #4]
 800211c:	691b      	ldr	r3, [r3, #16]
 800211e:	00db      	lsls	r3, r3, #3
 8002120:	490e      	ldr	r1, [pc, #56]	; (800215c <HAL_RCC_ClockConfig+0x1bc>)
 8002122:	4313      	orrs	r3, r2
 8002124:	608b      	str	r3, [r1, #8]
  }

  /* Update the SystemCoreClock global variable */
  SystemCoreClock = HAL_RCC_GetSysClockFreq() >> AHBPrescTable[(RCC->CFGR & RCC_CFGR_HPRE)>> RCC_CFGR_HPRE_Pos];
 8002126:	f000 f821 	bl	800216c <HAL_RCC_GetSysClockFreq>
 800212a:	4602      	mov	r2, r0
 800212c:	4b0b      	ldr	r3, [pc, #44]	; (800215c <HAL_RCC_ClockConfig+0x1bc>)
 800212e:	689b      	ldr	r3, [r3, #8]
 8002130:	091b      	lsrs	r3, r3, #4
 8002132:	f003 030f 	and.w	r3, r3, #15
 8002136:	490a      	ldr	r1, [pc, #40]	; (8002160 <HAL_RCC_ClockConfig+0x1c0>)
 8002138:	5ccb      	ldrb	r3, [r1, r3]
 800213a:	fa22 f303 	lsr.w	r3, r2, r3
 800213e:	4a09      	ldr	r2, [pc, #36]	; (8002164 <HAL_RCC_ClockConfig+0x1c4>)
 8002140:	6013      	str	r3, [r2, #0]

  /* Configure the source of time base considering new system clocks settings */
  HAL_InitTick (uwTickPrio);
 8002142:	4b09      	ldr	r3, [pc, #36]	; (8002168 <HAL_RCC_ClockConfig+0x1c8>)
 8002144:	681b      	ldr	r3, [r3, #0]
 8002146:	4618      	mov	r0, r3
 8002148:	f7fe fe32 	bl	8000db0 <HAL_InitTick>

  return HAL_OK;
 800214c:	2300      	movs	r3, #0
}
 800214e:	4618      	mov	r0, r3
 8002150:	3710      	adds	r7, #16
 8002152:	46bd      	mov	sp, r7
 8002154:	bd80      	pop	{r7, pc}
 8002156:	bf00      	nop
 8002158:	40023c00 	.word	0x40023c00
 800215c:	40023800 	.word	0x40023800
 8002160:	080032e0 	.word	0x080032e0
 8002164:	20000000 	.word	0x20000000
 8002168:	20000004 	.word	0x20000004

0800216c <HAL_RCC_GetSysClockFreq>:
  *
  *
  * @retval SYSCLK frequency
  */
__weak uint32_t HAL_RCC_GetSysClockFreq(void)
{
 800216c:	e92d 43b0 	stmdb	sp!, {r4, r5, r7, r8, r9, lr}
 8002170:	b084      	sub	sp, #16
 8002172:	af00      	add	r7, sp, #0
  uint32_t pllm = 0U, pllvco = 0U, pllp = 0U;
 8002174:	2300      	movs	r3, #0
 8002176:	607b      	str	r3, [r7, #4]
 8002178:	2300      	movs	r3, #0
 800217a:	60fb      	str	r3, [r7, #12]
 800217c:	2300      	movs	r3, #0
 800217e:	603b      	str	r3, [r7, #0]
  uint32_t sysclockfreq = 0U;
 8002180:	2300      	movs	r3, #0
 8002182:	60bb      	str	r3, [r7, #8]

  /* Get SYSCLK source -------------------------------------------------------*/
  switch (RCC->CFGR & RCC_CFGR_SWS)
 8002184:	4b67      	ldr	r3, [pc, #412]	; (8002324 <HAL_RCC_GetSysClockFreq+0x1b8>)
 8002186:	689b      	ldr	r3, [r3, #8]
 8002188:	f003 030c 	and.w	r3, r3, #12
 800218c:	2b08      	cmp	r3, #8
 800218e:	d00d      	beq.n	80021ac <HAL_RCC_GetSysClockFreq+0x40>
 8002190:	2b08      	cmp	r3, #8
 8002192:	f200 80bd 	bhi.w	8002310 <HAL_RCC_GetSysClockFreq+0x1a4>
 8002196:	2b00      	cmp	r3, #0
 8002198:	d002      	beq.n	80021a0 <HAL_RCC_GetSysClockFreq+0x34>
 800219a:	2b04      	cmp	r3, #4
 800219c:	d003      	beq.n	80021a6 <HAL_RCC_GetSysClockFreq+0x3a>
 800219e:	e0b7      	b.n	8002310 <HAL_RCC_GetSysClockFreq+0x1a4>
  {
    case RCC_CFGR_SWS_HSI:  /* HSI used as system clock source */
    {
      sysclockfreq = HSI_VALUE;
 80021a0:	4b61      	ldr	r3, [pc, #388]	; (8002328 <HAL_RCC_GetSysClockFreq+0x1bc>)
 80021a2:	60bb      	str	r3, [r7, #8]
       break;
 80021a4:	e0b7      	b.n	8002316 <HAL_RCC_GetSysClockFreq+0x1aa>
    }
    case RCC_CFGR_SWS_HSE:  /* HSE used as system clock  source */
    {
      sysclockfreq = HSE_VALUE;
 80021a6:	4b61      	ldr	r3, [pc, #388]	; (800232c <HAL_RCC_GetSysClockFreq+0x1c0>)
 80021a8:	60bb      	str	r3, [r7, #8]
      break;
 80021aa:	e0b4      	b.n	8002316 <HAL_RCC_GetSysClockFreq+0x1aa>
    }
    case RCC_CFGR_SWS_PLL:  /* PLL used as system clock  source */
    {
      /* PLL_VCO = (HSE_VALUE or HSI_VALUE / PLLM) * PLLN
      SYSCLK = PLL_VCO / PLLP */
      pllm = RCC->PLLCFGR & RCC_PLLCFGR_PLLM;
 80021ac:	4b5d      	ldr	r3, [pc, #372]	; (8002324 <HAL_RCC_GetSysClockFreq+0x1b8>)
 80021ae:	685b      	ldr	r3, [r3, #4]
 80021b0:	f003 033f 	and.w	r3, r3, #63	; 0x3f
 80021b4:	607b      	str	r3, [r7, #4]
      if(__HAL_RCC_GET_PLL_OSCSOURCE() != RCC_PLLSOURCE_HSI)
 80021b6:	4b5b      	ldr	r3, [pc, #364]	; (8002324 <HAL_RCC_GetSysClockFreq+0x1b8>)
 80021b8:	685b      	ldr	r3, [r3, #4]
 80021ba:	f403 0380 	and.w	r3, r3, #4194304	; 0x400000
 80021be:	2b00      	cmp	r3, #0
 80021c0:	d04d      	beq.n	800225e <HAL_RCC_GetSysClockFreq+0xf2>
      {
        /* HSE used as PLL clock source */
        pllvco = (uint32_t) ((((uint64_t) HSE_VALUE * ((uint64_t) ((RCC->PLLCFGR & RCC_PLLCFGR_PLLN) >> RCC_PLLCFGR_PLLN_Pos)))) / (uint64_t)pllm);
 80021c2:	4b58      	ldr	r3, [pc, #352]	; (8002324 <HAL_RCC_GetSysClockFreq+0x1b8>)
 80021c4:	685b      	ldr	r3, [r3, #4]
 80021c6:	099b      	lsrs	r3, r3, #6
 80021c8:	461a      	mov	r2, r3
 80021ca:	f04f 0300 	mov.w	r3, #0
 80021ce:	f240 10ff 	movw	r0, #511	; 0x1ff
 80021d2:	f04f 0100 	mov.w	r1, #0
 80021d6:	ea02 0800 	and.w	r8, r2, r0
 80021da:	ea03 0901 	and.w	r9, r3, r1
 80021de:	4640      	mov	r0, r8
 80021e0:	4649      	mov	r1, r9
 80021e2:	f04f 0200 	mov.w	r2, #0
 80021e6:	f04f 0300 	mov.w	r3, #0
 80021ea:	014b      	lsls	r3, r1, #5
 80021ec:	ea43 63d0 	orr.w	r3, r3, r0, lsr #27
 80021f0:	0142      	lsls	r2, r0, #5
 80021f2:	4610      	mov	r0, r2
 80021f4:	4619      	mov	r1, r3
 80021f6:	ebb0 0008 	subs.w	r0, r0, r8
 80021fa:	eb61 0109 	sbc.w	r1, r1, r9
 80021fe:	f04f 0200 	mov.w	r2, #0
 8002202:	f04f 0300 	mov.w	r3, #0
 8002206:	018b      	lsls	r3, r1, #6
 8002208:	ea43 6390 	orr.w	r3, r3, r0, lsr #26
 800220c:	0182      	lsls	r2, r0, #6
 800220e:	1a12      	subs	r2, r2, r0
 8002210:	eb63 0301 	sbc.w	r3, r3, r1
 8002214:	f04f 0000 	mov.w	r0, #0
 8002218:	f04f 0100 	mov.w	r1, #0
 800221c:	00d9      	lsls	r1, r3, #3
 800221e:	ea41 7152 	orr.w	r1, r1, r2, lsr #29
 8002222:	00d0      	lsls	r0, r2, #3
 8002224:	4602      	mov	r2, r0
 8002226:	460b      	mov	r3, r1
 8002228:	eb12 0208 	adds.w	r2, r2, r8
 800222c:	eb43 0309 	adc.w	r3, r3, r9
 8002230:	f04f 0000 	mov.w	r0, #0
 8002234:	f04f 0100 	mov.w	r1, #0
 8002238:	0259      	lsls	r1, r3, #9
 800223a:	ea41 51d2 	orr.w	r1, r1, r2, lsr #23
 800223e:	0250      	lsls	r0, r2, #9
 8002240:	4602      	mov	r2, r0
 8002242:	460b      	mov	r3, r1
 8002244:	4610      	mov	r0, r2
 8002246:	4619      	mov	r1, r3
 8002248:	687b      	ldr	r3, [r7, #4]
 800224a:	461a      	mov	r2, r3
 800224c:	f04f 0300 	mov.w	r3, #0
 8002250:	f7fd ffba 	bl	80001c8 <__aeabi_uldivmod>
 8002254:	4602      	mov	r2, r0
 8002256:	460b      	mov	r3, r1
 8002258:	4613      	mov	r3, r2
 800225a:	60fb      	str	r3, [r7, #12]
 800225c:	e04a      	b.n	80022f4 <HAL_RCC_GetSysClockFreq+0x188>
      }
      else
      {
        /* HSI used as PLL clock source */
        pllvco = (uint32_t) ((((uint64_t) HSI_VALUE * ((uint64_t) ((RCC->PLLCFGR & RCC_PLLCFGR_PLLN) >> RCC_PLLCFGR_PLLN_Pos)))) / (uint64_t)pllm);
 800225e:	4b31      	ldr	r3, [pc, #196]	; (8002324 <HAL_RCC_GetSysClockFreq+0x1b8>)
 8002260:	685b      	ldr	r3, [r3, #4]
 8002262:	099b      	lsrs	r3, r3, #6
 8002264:	461a      	mov	r2, r3
 8002266:	f04f 0300 	mov.w	r3, #0
 800226a:	f240 10ff 	movw	r0, #511	; 0x1ff
 800226e:	f04f 0100 	mov.w	r1, #0
 8002272:	ea02 0400 	and.w	r4, r2, r0
 8002276:	ea03 0501 	and.w	r5, r3, r1
 800227a:	4620      	mov	r0, r4
 800227c:	4629      	mov	r1, r5
 800227e:	f04f 0200 	mov.w	r2, #0
 8002282:	f04f 0300 	mov.w	r3, #0
 8002286:	014b      	lsls	r3, r1, #5
 8002288:	ea43 63d0 	orr.w	r3, r3, r0, lsr #27
 800228c:	0142      	lsls	r2, r0, #5
 800228e:	4610      	mov	r0, r2
 8002290:	4619      	mov	r1, r3
 8002292:	1b00      	subs	r0, r0, r4
 8002294:	eb61 0105 	sbc.w	r1, r1, r5
 8002298:	f04f 0200 	mov.w	r2, #0
 800229c:	f04f 0300 	mov.w	r3, #0
 80022a0:	018b      	lsls	r3, r1, #6
 80022a2:	ea43 6390 	orr.w	r3, r3, r0, lsr #26
 80022a6:	0182      	lsls	r2, r0, #6
 80022a8:	1a12      	subs	r2, r2, r0
 80022aa:	eb63 0301 	sbc.w	r3, r3, r1
 80022ae:	f04f 0000 	mov.w	r0, #0
 80022b2:	f04f 0100 	mov.w	r1, #0
 80022b6:	00d9      	lsls	r1, r3, #3
 80022b8:	ea41 7152 	orr.w	r1, r1, r2, lsr #29
 80022bc:	00d0      	lsls	r0, r2, #3
 80022be:	4602      	mov	r2, r0
 80022c0:	460b      	mov	r3, r1
 80022c2:	1912      	adds	r2, r2, r4
 80022c4:	eb45 0303 	adc.w	r3, r5, r3
 80022c8:	f04f 0000 	mov.w	r0, #0
 80022cc:	f04f 0100 	mov.w	r1, #0
 80022d0:	0299      	lsls	r1, r3, #10
 80022d2:	ea41 5192 	orr.w	r1, r1, r2, lsr #22
 80022d6:	0290      	lsls	r0, r2, #10
 80022d8:	4602      	mov	r2, r0
 80022da:	460b      	mov	r3, r1
 80022dc:	4610      	mov	r0, r2
 80022de:	4619      	mov	r1, r3
 80022e0:	687b      	ldr	r3, [r7, #4]
 80022e2:	461a      	mov	r2, r3
 80022e4:	f04f 0300 	mov.w	r3, #0
 80022e8:	f7fd ff6e 	bl	80001c8 <__aeabi_uldivmod>
 80022ec:	4602      	mov	r2, r0
 80022ee:	460b      	mov	r3, r1
 80022f0:	4613      	mov	r3, r2
 80022f2:	60fb      	str	r3, [r7, #12]
      }
      pllp = ((((RCC->PLLCFGR & RCC_PLLCFGR_PLLP) >> RCC_PLLCFGR_PLLP_Pos) + 1U) *2U);
 80022f4:	4b0b      	ldr	r3, [pc, #44]	; (8002324 <HAL_RCC_GetSysClockFreq+0x1b8>)
 80022f6:	685b      	ldr	r3, [r3, #4]
 80022f8:	0c1b      	lsrs	r3, r3, #16
 80022fa:	f003 0303 	and.w	r3, r3, #3
 80022fe:	3301      	adds	r3, #1
 8002300:	005b      	lsls	r3, r3, #1
 8002302:	603b      	str	r3, [r7, #0]

      sysclockfreq = pllvco/pllp;
 8002304:	68fa      	ldr	r2, [r7, #12]
 8002306:	683b      	ldr	r3, [r7, #0]
 8002308:	fbb2 f3f3 	udiv	r3, r2, r3
 800230c:	60bb      	str	r3, [r7, #8]
      break;
 800230e:	e002      	b.n	8002316 <HAL_RCC_GetSysClockFreq+0x1aa>
    }
    default:
    {
      sysclockfreq = HSI_VALUE;
 8002310:	4b05      	ldr	r3, [pc, #20]	; (8002328 <HAL_RCC_GetSysClockFreq+0x1bc>)
 8002312:	60bb      	str	r3, [r7, #8]
      break;
 8002314:	bf00      	nop
    }
  }
  return sysclockfreq;
 8002316:	68bb      	ldr	r3, [r7, #8]
}
 8002318:	4618      	mov	r0, r3
 800231a:	3710      	adds	r7, #16
 800231c:	46bd      	mov	sp, r7
 800231e:	e8bd 83b0 	ldmia.w	sp!, {r4, r5, r7, r8, r9, pc}
 8002322:	bf00      	nop
 8002324:	40023800 	.word	0x40023800
 8002328:	00f42400 	.word	0x00f42400
 800232c:	007a1200 	.word	0x007a1200

08002330 <HAL_TIM_Base_Init>:
  *         Ex: call @ref HAL_TIM_Base_DeInit() before HAL_TIM_Base_Init()
  * @param  htim TIM Base handle
  * @retval HAL status
  */
HAL_StatusTypeDef HAL_TIM_Base_Init(TIM_HandleTypeDef *htim)
{
 8002330:	b580      	push	{r7, lr}
 8002332:	b082      	sub	sp, #8
 8002334:	af00      	add	r7, sp, #0
 8002336:	6078      	str	r0, [r7, #4]
  /* Check the TIM handle allocation */
  if (htim == NULL)
 8002338:	687b      	ldr	r3, [r7, #4]
 800233a:	2b00      	cmp	r3, #0
 800233c:	d101      	bne.n	8002342 <HAL_TIM_Base_Init+0x12>
  {
    return HAL_ERROR;
 800233e:	2301      	movs	r3, #1
 8002340:	e01d      	b.n	800237e <HAL_TIM_Base_Init+0x4e>
  assert_param(IS_TIM_INSTANCE(htim->Instance));
  assert_param(IS_TIM_COUNTER_MODE(htim->Init.CounterMode));
  assert_param(IS_TIM_CLOCKDIVISION_DIV(htim->Init.ClockDivision));
  assert_param(IS_TIM_AUTORELOAD_PRELOAD(htim->Init.AutoReloadPreload));

  if (htim->State == HAL_TIM_STATE_RESET)
 8002342:	687b      	ldr	r3, [r7, #4]
 8002344:	f893 303d 	ldrb.w	r3, [r3, #61]	; 0x3d
 8002348:	b2db      	uxtb	r3, r3
 800234a:	2b00      	cmp	r3, #0
 800234c:	d106      	bne.n	800235c <HAL_TIM_Base_Init+0x2c>
  {
    /* Allocate lock resource and initialize it */
    htim->Lock = HAL_UNLOCKED;
 800234e:	687b      	ldr	r3, [r7, #4]
 8002350:	2200      	movs	r2, #0
 8002352:	f883 203c 	strb.w	r2, [r3, #60]	; 0x3c
    }
    /* Init the low level hardware : GPIO, CLOCK, NVIC */
    htim->Base_MspInitCallback(htim);
#else
    /* Init the low level hardware : GPIO, CLOCK, NVIC */
    HAL_TIM_Base_MspInit(htim);
 8002356:	6878      	ldr	r0, [r7, #4]
 8002358:	f7fe fb90 	bl	8000a7c <HAL_TIM_Base_MspInit>
#endif /* USE_HAL_TIM_REGISTER_CALLBACKS */
  }

  /* Set the TIM state */
  htim->State = HAL_TIM_STATE_BUSY;
 800235c:	687b      	ldr	r3, [r7, #4]
 800235e:	2202      	movs	r2, #2
 8002360:	f883 203d 	strb.w	r2, [r3, #61]	; 0x3d

  /* Set the Time Base configuration */
  TIM_Base_SetConfig(htim->Instance, &htim->Init);
 8002364:	687b      	ldr	r3, [r7, #4]
 8002366:	681a      	ldr	r2, [r3, #0]
 8002368:	687b      	ldr	r3, [r7, #4]
 800236a:	3304      	adds	r3, #4
 800236c:	4619      	mov	r1, r3
 800236e:	4610      	mov	r0, r2
 8002370:	f000 fbde 	bl	8002b30 <TIM_Base_SetConfig>

  /* Initialize the TIM state*/
  htim->State = HAL_TIM_STATE_READY;
 8002374:	687b      	ldr	r3, [r7, #4]
 8002376:	2201      	movs	r2, #1
 8002378:	f883 203d 	strb.w	r2, [r3, #61]	; 0x3d

  return HAL_OK;
 800237c:	2300      	movs	r3, #0
}
 800237e:	4618      	mov	r0, r3
 8002380:	3708      	adds	r7, #8
 8002382:	46bd      	mov	sp, r7
 8002384:	bd80      	pop	{r7, pc}

08002386 <HAL_TIM_Base_Start>:
  * @brief  Starts the TIM Base generation.
  * @param  htim TIM Base handle
  * @retval HAL status
  */
HAL_StatusTypeDef HAL_TIM_Base_Start(TIM_HandleTypeDef *htim)
{
 8002386:	b480      	push	{r7}
 8002388:	b085      	sub	sp, #20
 800238a:	af00      	add	r7, sp, #0
 800238c:	6078      	str	r0, [r7, #4]

  /* Check the parameters */
  assert_param(IS_TIM_INSTANCE(htim->Instance));

  /* Set the TIM state */
  htim->State = HAL_TIM_STATE_BUSY;
 800238e:	687b      	ldr	r3, [r7, #4]
 8002390:	2202      	movs	r2, #2
 8002392:	f883 203d 	strb.w	r2, [r3, #61]	; 0x3d

  /* Enable the Peripheral, except in trigger mode where enable is automatically done with trigger */
  tmpsmcr = htim->Instance->SMCR & TIM_SMCR_SMS;
 8002396:	687b      	ldr	r3, [r7, #4]
 8002398:	681b      	ldr	r3, [r3, #0]
 800239a:	689b      	ldr	r3, [r3, #8]
 800239c:	f003 0307 	and.w	r3, r3, #7
 80023a0:	60fb      	str	r3, [r7, #12]
  if (!IS_TIM_SLAVEMODE_TRIGGER_ENABLED(tmpsmcr))
 80023a2:	68fb      	ldr	r3, [r7, #12]
 80023a4:	2b06      	cmp	r3, #6
 80023a6:	d007      	beq.n	80023b8 <HAL_TIM_Base_Start+0x32>
  {
    __HAL_TIM_ENABLE(htim);
 80023a8:	687b      	ldr	r3, [r7, #4]
 80023aa:	681b      	ldr	r3, [r3, #0]
 80023ac:	681a      	ldr	r2, [r3, #0]
 80023ae:	687b      	ldr	r3, [r7, #4]
 80023b0:	681b      	ldr	r3, [r3, #0]
 80023b2:	f042 0201 	orr.w	r2, r2, #1
 80023b6:	601a      	str	r2, [r3, #0]
  }

  /* Change the TIM state*/
  htim->State = HAL_TIM_STATE_READY;
 80023b8:	687b      	ldr	r3, [r7, #4]
 80023ba:	2201      	movs	r2, #1
 80023bc:	f883 203d 	strb.w	r2, [r3, #61]	; 0x3d

  /* Return function status */
  return HAL_OK;
 80023c0:	2300      	movs	r3, #0
}
 80023c2:	4618      	mov	r0, r3
 80023c4:	3714      	adds	r7, #20
 80023c6:	46bd      	mov	sp, r7
 80023c8:	f85d 7b04 	ldr.w	r7, [sp], #4
 80023cc:	4770      	bx	lr

080023ce <HAL_TIM_PWM_Init>:
  *         Ex: call @ref HAL_TIM_PWM_DeInit() before HAL_TIM_PWM_Init()
  * @param  htim TIM PWM handle
  * @retval HAL status
  */
HAL_StatusTypeDef HAL_TIM_PWM_Init(TIM_HandleTypeDef *htim)
{
 80023ce:	b580      	push	{r7, lr}
 80023d0:	b082      	sub	sp, #8
 80023d2:	af00      	add	r7, sp, #0
 80023d4:	6078      	str	r0, [r7, #4]
  /* Check the TIM handle allocation */
  if (htim == NULL)
 80023d6:	687b      	ldr	r3, [r7, #4]
 80023d8:	2b00      	cmp	r3, #0
 80023da:	d101      	bne.n	80023e0 <HAL_TIM_PWM_Init+0x12>
  {
    return HAL_ERROR;
 80023dc:	2301      	movs	r3, #1
 80023de:	e01d      	b.n	800241c <HAL_TIM_PWM_Init+0x4e>
  assert_param(IS_TIM_INSTANCE(htim->Instance));
  assert_param(IS_TIM_COUNTER_MODE(htim->Init.CounterMode));
  assert_param(IS_TIM_CLOCKDIVISION_DIV(htim->Init.ClockDivision));
  assert_param(IS_TIM_AUTORELOAD_PRELOAD(htim->Init.AutoReloadPreload));

  if (htim->State == HAL_TIM_STATE_RESET)
 80023e0:	687b      	ldr	r3, [r7, #4]
 80023e2:	f893 303d 	ldrb.w	r3, [r3, #61]	; 0x3d
 80023e6:	b2db      	uxtb	r3, r3
 80023e8:	2b00      	cmp	r3, #0
 80023ea:	d106      	bne.n	80023fa <HAL_TIM_PWM_Init+0x2c>
  {
    /* Allocate lock resource and initialize it */
    htim->Lock = HAL_UNLOCKED;
 80023ec:	687b      	ldr	r3, [r7, #4]
 80023ee:	2200      	movs	r2, #0
 80023f0:	f883 203c 	strb.w	r2, [r3, #60]	; 0x3c
    }
    /* Init the low level hardware : GPIO, CLOCK, NVIC */
    htim->PWM_MspInitCallback(htim);
#else
    /* Init the low level hardware : GPIO, CLOCK, NVIC and DMA */
    HAL_TIM_PWM_MspInit(htim);
 80023f4:	6878      	ldr	r0, [r7, #4]
 80023f6:	f7fe fb93 	bl	8000b20 <HAL_TIM_PWM_MspInit>
#endif /* USE_HAL_TIM_REGISTER_CALLBACKS */
  }

  /* Set the TIM state */
  htim->State = HAL_TIM_STATE_BUSY;
 80023fa:	687b      	ldr	r3, [r7, #4]
 80023fc:	2202      	movs	r2, #2
 80023fe:	f883 203d 	strb.w	r2, [r3, #61]	; 0x3d

  /* Init the base time for the PWM */
  TIM_Base_SetConfig(htim->Instance, &htim->Init);
 8002402:	687b      	ldr	r3, [r7, #4]
 8002404:	681a      	ldr	r2, [r3, #0]
 8002406:	687b      	ldr	r3, [r7, #4]
 8002408:	3304      	adds	r3, #4
 800240a:	4619      	mov	r1, r3
 800240c:	4610      	mov	r0, r2
 800240e:	f000 fb8f 	bl	8002b30 <TIM_Base_SetConfig>

  /* Initialize the TIM state*/
  htim->State = HAL_TIM_STATE_READY;
 8002412:	687b      	ldr	r3, [r7, #4]
 8002414:	2201      	movs	r2, #1
 8002416:	f883 203d 	strb.w	r2, [r3, #61]	; 0x3d

  return HAL_OK;
 800241a:	2300      	movs	r3, #0
}
 800241c:	4618      	mov	r0, r3
 800241e:	3708      	adds	r7, #8
 8002420:	46bd      	mov	sp, r7
 8002422:	bd80      	pop	{r7, pc}

08002424 <HAL_TIM_PWM_Start>:
  *            @arg TIM_CHANNEL_3: TIM Channel 3 selected
  *            @arg TIM_CHANNEL_4: TIM Channel 4 selected
  * @retval HAL status
  */
HAL_StatusTypeDef HAL_TIM_PWM_Start(TIM_HandleTypeDef *htim, uint32_t Channel)
{
 8002424:	b580      	push	{r7, lr}
 8002426:	b084      	sub	sp, #16
 8002428:	af00      	add	r7, sp, #0
 800242a:	6078      	str	r0, [r7, #4]
 800242c:	6039      	str	r1, [r7, #0]

  /* Check the parameters */
  assert_param(IS_TIM_CCX_INSTANCE(htim->Instance, Channel));

  /* Enable the Capture compare channel */
  TIM_CCxChannelCmd(htim->Instance, Channel, TIM_CCx_ENABLE);
 800242e:	687b      	ldr	r3, [r7, #4]
 8002430:	681b      	ldr	r3, [r3, #0]
 8002432:	2201      	movs	r2, #1
 8002434:	6839      	ldr	r1, [r7, #0]
 8002436:	4618      	mov	r0, r3
 8002438:	f000 fe64 	bl	8003104 <TIM_CCxChannelCmd>

  if (IS_TIM_BREAK_INSTANCE(htim->Instance) != RESET)
 800243c:	687b      	ldr	r3, [r7, #4]
 800243e:	681b      	ldr	r3, [r3, #0]
 8002440:	4a15      	ldr	r2, [pc, #84]	; (8002498 <HAL_TIM_PWM_Start+0x74>)
 8002442:	4293      	cmp	r3, r2
 8002444:	d004      	beq.n	8002450 <HAL_TIM_PWM_Start+0x2c>
 8002446:	687b      	ldr	r3, [r7, #4]
 8002448:	681b      	ldr	r3, [r3, #0]
 800244a:	4a14      	ldr	r2, [pc, #80]	; (800249c <HAL_TIM_PWM_Start+0x78>)
 800244c:	4293      	cmp	r3, r2
 800244e:	d101      	bne.n	8002454 <HAL_TIM_PWM_Start+0x30>
 8002450:	2301      	movs	r3, #1
 8002452:	e000      	b.n	8002456 <HAL_TIM_PWM_Start+0x32>
 8002454:	2300      	movs	r3, #0
 8002456:	2b00      	cmp	r3, #0
 8002458:	d007      	beq.n	800246a <HAL_TIM_PWM_Start+0x46>
  {
    /* Enable the main output */
    __HAL_TIM_MOE_ENABLE(htim);
 800245a:	687b      	ldr	r3, [r7, #4]
 800245c:	681b      	ldr	r3, [r3, #0]
 800245e:	6c5a      	ldr	r2, [r3, #68]	; 0x44
 8002460:	687b      	ldr	r3, [r7, #4]
 8002462:	681b      	ldr	r3, [r3, #0]
 8002464:	f442 4200 	orr.w	r2, r2, #32768	; 0x8000
 8002468:	645a      	str	r2, [r3, #68]	; 0x44
  }

  /* Enable the Peripheral, except in trigger mode where enable is automatically done with trigger */
  tmpsmcr = htim->Instance->SMCR & TIM_SMCR_SMS;
 800246a:	687b      	ldr	r3, [r7, #4]
 800246c:	681b      	ldr	r3, [r3, #0]
 800246e:	689b      	ldr	r3, [r3, #8]
 8002470:	f003 0307 	and.w	r3, r3, #7
 8002474:	60fb      	str	r3, [r7, #12]
  if (!IS_TIM_SLAVEMODE_TRIGGER_ENABLED(tmpsmcr))
 8002476:	68fb      	ldr	r3, [r7, #12]
 8002478:	2b06      	cmp	r3, #6
 800247a:	d007      	beq.n	800248c <HAL_TIM_PWM_Start+0x68>
  {
    __HAL_TIM_ENABLE(htim);
 800247c:	687b      	ldr	r3, [r7, #4]
 800247e:	681b      	ldr	r3, [r3, #0]
 8002480:	681a      	ldr	r2, [r3, #0]
 8002482:	687b      	ldr	r3, [r7, #4]
 8002484:	681b      	ldr	r3, [r3, #0]
 8002486:	f042 0201 	orr.w	r2, r2, #1
 800248a:	601a      	str	r2, [r3, #0]
  }

  /* Return function status */
  return HAL_OK;
 800248c:	2300      	movs	r3, #0
}
 800248e:	4618      	mov	r0, r3
 8002490:	3710      	adds	r7, #16
 8002492:	46bd      	mov	sp, r7
 8002494:	bd80      	pop	{r7, pc}
 8002496:	bf00      	nop
 8002498:	40010000 	.word	0x40010000
 800249c:	40010400 	.word	0x40010400

080024a0 <HAL_TIM_PWM_Start_IT>:
  *            @arg TIM_CHANNEL_3: TIM Channel 3 selected
  *            @arg TIM_CHANNEL_4: TIM Channel 4 selected
  * @retval HAL status
  */
HAL_StatusTypeDef HAL_TIM_PWM_Start_IT(TIM_HandleTypeDef *htim, uint32_t Channel)
{
 80024a0:	b580      	push	{r7, lr}
 80024a2:	b084      	sub	sp, #16
 80024a4:	af00      	add	r7, sp, #0
 80024a6:	6078      	str	r0, [r7, #4]
 80024a8:	6039      	str	r1, [r7, #0]
 80024aa:	683b      	ldr	r3, [r7, #0]
 80024ac:	2b0c      	cmp	r3, #12
 80024ae:	d841      	bhi.n	8002534 <HAL_TIM_PWM_Start_IT+0x94>
 80024b0:	a201      	add	r2, pc, #4	; (adr r2, 80024b8 <HAL_TIM_PWM_Start_IT+0x18>)
 80024b2:	f852 f023 	ldr.w	pc, [r2, r3, lsl #2]
 80024b6:	bf00      	nop
 80024b8:	080024ed 	.word	0x080024ed
 80024bc:	08002535 	.word	0x08002535
 80024c0:	08002535 	.word	0x08002535
 80024c4:	08002535 	.word	0x08002535
 80024c8:	080024ff 	.word	0x080024ff
 80024cc:	08002535 	.word	0x08002535
 80024d0:	08002535 	.word	0x08002535
 80024d4:	08002535 	.word	0x08002535
 80024d8:	08002511 	.word	0x08002511
 80024dc:	08002535 	.word	0x08002535
 80024e0:	08002535 	.word	0x08002535
 80024e4:	08002535 	.word	0x08002535
 80024e8:	08002523 	.word	0x08002523
  switch (Channel)
  {
    case TIM_CHANNEL_1:
    {
      /* Enable the TIM Capture/Compare 1 interrupt */
      __HAL_TIM_ENABLE_IT(htim, TIM_IT_CC1);
 80024ec:	687b      	ldr	r3, [r7, #4]
 80024ee:	681b      	ldr	r3, [r3, #0]
 80024f0:	68da      	ldr	r2, [r3, #12]
 80024f2:	687b      	ldr	r3, [r7, #4]
 80024f4:	681b      	ldr	r3, [r3, #0]
 80024f6:	f042 0202 	orr.w	r2, r2, #2
 80024fa:	60da      	str	r2, [r3, #12]
      break;
 80024fc:	e01b      	b.n	8002536 <HAL_TIM_PWM_Start_IT+0x96>
    }

    case TIM_CHANNEL_2:
    {
      /* Enable the TIM Capture/Compare 2 interrupt */
      __HAL_TIM_ENABLE_IT(htim, TIM_IT_CC2);
 80024fe:	687b      	ldr	r3, [r7, #4]
 8002500:	681b      	ldr	r3, [r3, #0]
 8002502:	68da      	ldr	r2, [r3, #12]
 8002504:	687b      	ldr	r3, [r7, #4]
 8002506:	681b      	ldr	r3, [r3, #0]
 8002508:	f042 0204 	orr.w	r2, r2, #4
 800250c:	60da      	str	r2, [r3, #12]
      break;
 800250e:	e012      	b.n	8002536 <HAL_TIM_PWM_Start_IT+0x96>
    }

    case TIM_CHANNEL_3:
    {
      /* Enable the TIM Capture/Compare 3 interrupt */
      __HAL_TIM_ENABLE_IT(htim, TIM_IT_CC3);
 8002510:	687b      	ldr	r3, [r7, #4]
 8002512:	681b      	ldr	r3, [r3, #0]
 8002514:	68da      	ldr	r2, [r3, #12]
 8002516:	687b      	ldr	r3, [r7, #4]
 8002518:	681b      	ldr	r3, [r3, #0]
 800251a:	f042 0208 	orr.w	r2, r2, #8
 800251e:	60da      	str	r2, [r3, #12]
      break;
 8002520:	e009      	b.n	8002536 <HAL_TIM_PWM_Start_IT+0x96>
    }

    case TIM_CHANNEL_4:
    {
      /* Enable the TIM Capture/Compare 4 interrupt */
      __HAL_TIM_ENABLE_IT(htim, TIM_IT_CC4);
 8002522:	687b      	ldr	r3, [r7, #4]
 8002524:	681b      	ldr	r3, [r3, #0]
 8002526:	68da      	ldr	r2, [r3, #12]
 8002528:	687b      	ldr	r3, [r7, #4]
 800252a:	681b      	ldr	r3, [r3, #0]
 800252c:	f042 0210 	orr.w	r2, r2, #16
 8002530:	60da      	str	r2, [r3, #12]
      break;
 8002532:	e000      	b.n	8002536 <HAL_TIM_PWM_Start_IT+0x96>
    }

    default:
      break;
 8002534:	bf00      	nop
  }

  /* Enable the Capture compare channel */
  TIM_CCxChannelCmd(htim->Instance, Channel, TIM_CCx_ENABLE);
 8002536:	687b      	ldr	r3, [r7, #4]
 8002538:	681b      	ldr	r3, [r3, #0]
 800253a:	2201      	movs	r2, #1
 800253c:	6839      	ldr	r1, [r7, #0]
 800253e:	4618      	mov	r0, r3
 8002540:	f000 fde0 	bl	8003104 <TIM_CCxChannelCmd>

  if (IS_TIM_BREAK_INSTANCE(htim->Instance) != RESET)
 8002544:	687b      	ldr	r3, [r7, #4]
 8002546:	681b      	ldr	r3, [r3, #0]
 8002548:	4a15      	ldr	r2, [pc, #84]	; (80025a0 <HAL_TIM_PWM_Start_IT+0x100>)
 800254a:	4293      	cmp	r3, r2
 800254c:	d004      	beq.n	8002558 <HAL_TIM_PWM_Start_IT+0xb8>
 800254e:	687b      	ldr	r3, [r7, #4]
 8002550:	681b      	ldr	r3, [r3, #0]
 8002552:	4a14      	ldr	r2, [pc, #80]	; (80025a4 <HAL_TIM_PWM_Start_IT+0x104>)
 8002554:	4293      	cmp	r3, r2
 8002556:	d101      	bne.n	800255c <HAL_TIM_PWM_Start_IT+0xbc>
 8002558:	2301      	movs	r3, #1
 800255a:	e000      	b.n	800255e <HAL_TIM_PWM_Start_IT+0xbe>
 800255c:	2300      	movs	r3, #0
 800255e:	2b00      	cmp	r3, #0
 8002560:	d007      	beq.n	8002572 <HAL_TIM_PWM_Start_IT+0xd2>
  {
    /* Enable the main output */
    __HAL_TIM_MOE_ENABLE(htim);
 8002562:	687b      	ldr	r3, [r7, #4]
 8002564:	681b      	ldr	r3, [r3, #0]
 8002566:	6c5a      	ldr	r2, [r3, #68]	; 0x44
 8002568:	687b      	ldr	r3, [r7, #4]
 800256a:	681b      	ldr	r3, [r3, #0]
 800256c:	f442 4200 	orr.w	r2, r2, #32768	; 0x8000
 8002570:	645a      	str	r2, [r3, #68]	; 0x44
  }

  /* Enable the Peripheral, except in trigger mode where enable is automatically done with trigger */
  tmpsmcr = htim->Instance->SMCR & TIM_SMCR_SMS;
 8002572:	687b      	ldr	r3, [r7, #4]
 8002574:	681b      	ldr	r3, [r3, #0]
 8002576:	689b      	ldr	r3, [r3, #8]
 8002578:	f003 0307 	and.w	r3, r3, #7
 800257c:	60fb      	str	r3, [r7, #12]
  if (!IS_TIM_SLAVEMODE_TRIGGER_ENABLED(tmpsmcr))
 800257e:	68fb      	ldr	r3, [r7, #12]
 8002580:	2b06      	cmp	r3, #6
 8002582:	d007      	beq.n	8002594 <HAL_TIM_PWM_Start_IT+0xf4>
  {
    __HAL_TIM_ENABLE(htim);
 8002584:	687b      	ldr	r3, [r7, #4]
 8002586:	681b      	ldr	r3, [r3, #0]
 8002588:	681a      	ldr	r2, [r3, #0]
 800258a:	687b      	ldr	r3, [r7, #4]
 800258c:	681b      	ldr	r3, [r3, #0]
 800258e:	f042 0201 	orr.w	r2, r2, #1
 8002592:	601a      	str	r2, [r3, #0]
  }

  /* Return function status */
  return HAL_OK;
 8002594:	2300      	movs	r3, #0
}
 8002596:	4618      	mov	r0, r3
 8002598:	3710      	adds	r7, #16
 800259a:	46bd      	mov	sp, r7
 800259c:	bd80      	pop	{r7, pc}
 800259e:	bf00      	nop
 80025a0:	40010000 	.word	0x40010000
 80025a4:	40010400 	.word	0x40010400

080025a8 <HAL_TIM_IRQHandler>:
  * @brief  This function handles TIM interrupts requests.
  * @param  htim TIM  handle
  * @retval None
  */
void HAL_TIM_IRQHandler(TIM_HandleTypeDef *htim)
{
 80025a8:	b580      	push	{r7, lr}
 80025aa:	b082      	sub	sp, #8
 80025ac:	af00      	add	r7, sp, #0
 80025ae:	6078      	str	r0, [r7, #4]
  /* Capture compare 1 event */
  if (__HAL_TIM_GET_FLAG(htim, TIM_FLAG_CC1) != RESET)
 80025b0:	687b      	ldr	r3, [r7, #4]
 80025b2:	681b      	ldr	r3, [r3, #0]
 80025b4:	691b      	ldr	r3, [r3, #16]
 80025b6:	f003 0302 	and.w	r3, r3, #2
 80025ba:	2b02      	cmp	r3, #2
 80025bc:	d122      	bne.n	8002604 <HAL_TIM_IRQHandler+0x5c>
  {
    if (__HAL_TIM_GET_IT_SOURCE(htim, TIM_IT_CC1) != RESET)
 80025be:	687b      	ldr	r3, [r7, #4]
 80025c0:	681b      	ldr	r3, [r3, #0]
 80025c2:	68db      	ldr	r3, [r3, #12]
 80025c4:	f003 0302 	and.w	r3, r3, #2
 80025c8:	2b02      	cmp	r3, #2
 80025ca:	d11b      	bne.n	8002604 <HAL_TIM_IRQHandler+0x5c>
    {
      {
        __HAL_TIM_CLEAR_IT(htim, TIM_IT_CC1);
 80025cc:	687b      	ldr	r3, [r7, #4]
 80025ce:	681b      	ldr	r3, [r3, #0]
 80025d0:	f06f 0202 	mvn.w	r2, #2
 80025d4:	611a      	str	r2, [r3, #16]
        htim->Channel = HAL_TIM_ACTIVE_CHANNEL_1;
 80025d6:	687b      	ldr	r3, [r7, #4]
 80025d8:	2201      	movs	r2, #1
 80025da:	771a      	strb	r2, [r3, #28]

        /* Input capture event */
        if ((htim->Instance->CCMR1 & TIM_CCMR1_CC1S) != 0x00U)
 80025dc:	687b      	ldr	r3, [r7, #4]
 80025de:	681b      	ldr	r3, [r3, #0]
 80025e0:	699b      	ldr	r3, [r3, #24]
 80025e2:	f003 0303 	and.w	r3, r3, #3
 80025e6:	2b00      	cmp	r3, #0
 80025e8:	d003      	beq.n	80025f2 <HAL_TIM_IRQHandler+0x4a>
        {
#if (USE_HAL_TIM_REGISTER_CALLBACKS == 1)
          htim->IC_CaptureCallback(htim);
#else
          HAL_TIM_IC_CaptureCallback(htim);
 80025ea:	6878      	ldr	r0, [r7, #4]
 80025ec:	f000 fa82 	bl	8002af4 <HAL_TIM_IC_CaptureCallback>
 80025f0:	e005      	b.n	80025fe <HAL_TIM_IRQHandler+0x56>
        {
#if (USE_HAL_TIM_REGISTER_CALLBACKS == 1)
          htim->OC_DelayElapsedCallback(htim);
          htim->PWM_PulseFinishedCallback(htim);
#else
          HAL_TIM_OC_DelayElapsedCallback(htim);
 80025f2:	6878      	ldr	r0, [r7, #4]
 80025f4:	f000 fa74 	bl	8002ae0 <HAL_TIM_OC_DelayElapsedCallback>
          HAL_TIM_PWM_PulseFinishedCallback(htim);
 80025f8:	6878      	ldr	r0, [r7, #4]
 80025fa:	f000 fa85 	bl	8002b08 <HAL_TIM_PWM_PulseFinishedCallback>
#endif /* USE_HAL_TIM_REGISTER_CALLBACKS */
        }
        htim->Channel = HAL_TIM_ACTIVE_CHANNEL_CLEARED;
 80025fe:	687b      	ldr	r3, [r7, #4]
 8002600:	2200      	movs	r2, #0
 8002602:	771a      	strb	r2, [r3, #28]
      }
    }
  }
  /* Capture compare 2 event */
  if (__HAL_TIM_GET_FLAG(htim, TIM_FLAG_CC2) != RESET)
 8002604:	687b      	ldr	r3, [r7, #4]
 8002606:	681b      	ldr	r3, [r3, #0]
 8002608:	691b      	ldr	r3, [r3, #16]
 800260a:	f003 0304 	and.w	r3, r3, #4
 800260e:	2b04      	cmp	r3, #4
 8002610:	d122      	bne.n	8002658 <HAL_TIM_IRQHandler+0xb0>
  {
    if (__HAL_TIM_GET_IT_SOURCE(htim, TIM_IT_CC2) != RESET)
 8002612:	687b      	ldr	r3, [r7, #4]
 8002614:	681b      	ldr	r3, [r3, #0]
 8002616:	68db      	ldr	r3, [r3, #12]
 8002618:	f003 0304 	and.w	r3, r3, #4
 800261c:	2b04      	cmp	r3, #4
 800261e:	d11b      	bne.n	8002658 <HAL_TIM_IRQHandler+0xb0>
    {
      __HAL_TIM_CLEAR_IT(htim, TIM_IT_CC2);
 8002620:	687b      	ldr	r3, [r7, #4]
 8002622:	681b      	ldr	r3, [r3, #0]
 8002624:	f06f 0204 	mvn.w	r2, #4
 8002628:	611a      	str	r2, [r3, #16]
      htim->Channel = HAL_TIM_ACTIVE_CHANNEL_2;
 800262a:	687b      	ldr	r3, [r7, #4]
 800262c:	2202      	movs	r2, #2
 800262e:	771a      	strb	r2, [r3, #28]
      /* Input capture event */
      if ((htim->Instance->CCMR1 & TIM_CCMR1_CC2S) != 0x00U)
 8002630:	687b      	ldr	r3, [r7, #4]
 8002632:	681b      	ldr	r3, [r3, #0]
 8002634:	699b      	ldr	r3, [r3, #24]
 8002636:	f403 7340 	and.w	r3, r3, #768	; 0x300
 800263a:	2b00      	cmp	r3, #0
 800263c:	d003      	beq.n	8002646 <HAL_TIM_IRQHandler+0x9e>
      {
#if (USE_HAL_TIM_REGISTER_CALLBACKS == 1)
        htim->IC_CaptureCallback(htim);
#else
        HAL_TIM_IC_CaptureCallback(htim);
 800263e:	6878      	ldr	r0, [r7, #4]
 8002640:	f000 fa58 	bl	8002af4 <HAL_TIM_IC_CaptureCallback>
 8002644:	e005      	b.n	8002652 <HAL_TIM_IRQHandler+0xaa>
      {
#if (USE_HAL_TIM_REGISTER_CALLBACKS == 1)
        htim->OC_DelayElapsedCallback(htim);
        htim->PWM_PulseFinishedCallback(htim);
#else
        HAL_TIM_OC_DelayElapsedCallback(htim);
 8002646:	6878      	ldr	r0, [r7, #4]
 8002648:	f000 fa4a 	bl	8002ae0 <HAL_TIM_OC_DelayElapsedCallback>
        HAL_TIM_PWM_PulseFinishedCallback(htim);
 800264c:	6878      	ldr	r0, [r7, #4]
 800264e:	f000 fa5b 	bl	8002b08 <HAL_TIM_PWM_PulseFinishedCallback>
#endif /* USE_HAL_TIM_REGISTER_CALLBACKS */
      }
      htim->Channel = HAL_TIM_ACTIVE_CHANNEL_CLEARED;
 8002652:	687b      	ldr	r3, [r7, #4]
 8002654:	2200      	movs	r2, #0
 8002656:	771a      	strb	r2, [r3, #28]
    }
  }
  /* Capture compare 3 event */
  if (__HAL_TIM_GET_FLAG(htim, TIM_FLAG_CC3) != RESET)
 8002658:	687b      	ldr	r3, [r7, #4]
 800265a:	681b      	ldr	r3, [r3, #0]
 800265c:	691b      	ldr	r3, [r3, #16]
 800265e:	f003 0308 	and.w	r3, r3, #8
 8002662:	2b08      	cmp	r3, #8
 8002664:	d122      	bne.n	80026ac <HAL_TIM_IRQHandler+0x104>
  {
    if (__HAL_TIM_GET_IT_SOURCE(htim, TIM_IT_CC3) != RESET)
 8002666:	687b      	ldr	r3, [r7, #4]
 8002668:	681b      	ldr	r3, [r3, #0]
 800266a:	68db      	ldr	r3, [r3, #12]
 800266c:	f003 0308 	and.w	r3, r3, #8
 8002670:	2b08      	cmp	r3, #8
 8002672:	d11b      	bne.n	80026ac <HAL_TIM_IRQHandler+0x104>
    {
      __HAL_TIM_CLEAR_IT(htim, TIM_IT_CC3);
 8002674:	687b      	ldr	r3, [r7, #4]
 8002676:	681b      	ldr	r3, [r3, #0]
 8002678:	f06f 0208 	mvn.w	r2, #8
 800267c:	611a      	str	r2, [r3, #16]
      htim->Channel = HAL_TIM_ACTIVE_CHANNEL_3;
 800267e:	687b      	ldr	r3, [r7, #4]
 8002680:	2204      	movs	r2, #4
 8002682:	771a      	strb	r2, [r3, #28]
      /* Input capture event */
      if ((htim->Instance->CCMR2 & TIM_CCMR2_CC3S) != 0x00U)
 8002684:	687b      	ldr	r3, [r7, #4]
 8002686:	681b      	ldr	r3, [r3, #0]
 8002688:	69db      	ldr	r3, [r3, #28]
 800268a:	f003 0303 	and.w	r3, r3, #3
 800268e:	2b00      	cmp	r3, #0
 8002690:	d003      	beq.n	800269a <HAL_TIM_IRQHandler+0xf2>
      {
#if (USE_HAL_TIM_REGISTER_CALLBACKS == 1)
        htim->IC_CaptureCallback(htim);
#else
        HAL_TIM_IC_CaptureCallback(htim);
 8002692:	6878      	ldr	r0, [r7, #4]
 8002694:	f000 fa2e 	bl	8002af4 <HAL_TIM_IC_CaptureCallback>
 8002698:	e005      	b.n	80026a6 <HAL_TIM_IRQHandler+0xfe>
      {
#if (USE_HAL_TIM_REGISTER_CALLBACKS == 1)
        htim->OC_DelayElapsedCallback(htim);
        htim->PWM_PulseFinishedCallback(htim);
#else
        HAL_TIM_OC_DelayElapsedCallback(htim);
 800269a:	6878      	ldr	r0, [r7, #4]
 800269c:	f000 fa20 	bl	8002ae0 <HAL_TIM_OC_DelayElapsedCallback>
        HAL_TIM_PWM_PulseFinishedCallback(htim);
 80026a0:	6878      	ldr	r0, [r7, #4]
 80026a2:	f000 fa31 	bl	8002b08 <HAL_TIM_PWM_PulseFinishedCallback>
#endif /* USE_HAL_TIM_REGISTER_CALLBACKS */
      }
      htim->Channel = HAL_TIM_ACTIVE_CHANNEL_CLEARED;
 80026a6:	687b      	ldr	r3, [r7, #4]
 80026a8:	2200      	movs	r2, #0
 80026aa:	771a      	strb	r2, [r3, #28]
    }
  }
  /* Capture compare 4 event */
  if (__HAL_TIM_GET_FLAG(htim, TIM_FLAG_CC4) != RESET)
 80026ac:	687b      	ldr	r3, [r7, #4]
 80026ae:	681b      	ldr	r3, [r3, #0]
 80026b0:	691b      	ldr	r3, [r3, #16]
 80026b2:	f003 0310 	and.w	r3, r3, #16
 80026b6:	2b10      	cmp	r3, #16
 80026b8:	d122      	bne.n	8002700 <HAL_TIM_IRQHandler+0x158>
  {
    if (__HAL_TIM_GET_IT_SOURCE(htim, TIM_IT_CC4) != RESET)
 80026ba:	687b      	ldr	r3, [r7, #4]
 80026bc:	681b      	ldr	r3, [r3, #0]
 80026be:	68db      	ldr	r3, [r3, #12]
 80026c0:	f003 0310 	and.w	r3, r3, #16
 80026c4:	2b10      	cmp	r3, #16
 80026c6:	d11b      	bne.n	8002700 <HAL_TIM_IRQHandler+0x158>
    {
      __HAL_TIM_CLEAR_IT(htim, TIM_IT_CC4);
 80026c8:	687b      	ldr	r3, [r7, #4]
 80026ca:	681b      	ldr	r3, [r3, #0]
 80026cc:	f06f 0210 	mvn.w	r2, #16
 80026d0:	611a      	str	r2, [r3, #16]
      htim->Channel = HAL_TIM_ACTIVE_CHANNEL_4;
 80026d2:	687b      	ldr	r3, [r7, #4]
 80026d4:	2208      	movs	r2, #8
 80026d6:	771a      	strb	r2, [r3, #28]
      /* Input capture event */
      if ((htim->Instance->CCMR2 & TIM_CCMR2_CC4S) != 0x00U)
 80026d8:	687b      	ldr	r3, [r7, #4]
 80026da:	681b      	ldr	r3, [r3, #0]
 80026dc:	69db      	ldr	r3, [r3, #28]
 80026de:	f403 7340 	and.w	r3, r3, #768	; 0x300
 80026e2:	2b00      	cmp	r3, #0
 80026e4:	d003      	beq.n	80026ee <HAL_TIM_IRQHandler+0x146>
      {
#if (USE_HAL_TIM_REGISTER_CALLBACKS == 1)
        htim->IC_CaptureCallback(htim);
#else
        HAL_TIM_IC_CaptureCallback(htim);
 80026e6:	6878      	ldr	r0, [r7, #4]
 80026e8:	f000 fa04 	bl	8002af4 <HAL_TIM_IC_CaptureCallback>
 80026ec:	e005      	b.n	80026fa <HAL_TIM_IRQHandler+0x152>
      {
#if (USE_HAL_TIM_REGISTER_CALLBACKS == 1)
        htim->OC_DelayElapsedCallback(htim);
        htim->PWM_PulseFinishedCallback(htim);
#else
        HAL_TIM_OC_DelayElapsedCallback(htim);
 80026ee:	6878      	ldr	r0, [r7, #4]
 80026f0:	f000 f9f6 	bl	8002ae0 <HAL_TIM_OC_DelayElapsedCallback>
        HAL_TIM_PWM_PulseFinishedCallback(htim);
 80026f4:	6878      	ldr	r0, [r7, #4]
 80026f6:	f000 fa07 	bl	8002b08 <HAL_TIM_PWM_PulseFinishedCallback>
#endif /* USE_HAL_TIM_REGISTER_CALLBACKS */
      }
      htim->Channel = HAL_TIM_ACTIVE_CHANNEL_CLEARED;
 80026fa:	687b      	ldr	r3, [r7, #4]
 80026fc:	2200      	movs	r2, #0
 80026fe:	771a      	strb	r2, [r3, #28]
    }
  }
  /* TIM Update event */
  if (__HAL_TIM_GET_FLAG(htim, TIM_FLAG_UPDATE) != RESET)
 8002700:	687b      	ldr	r3, [r7, #4]
 8002702:	681b      	ldr	r3, [r3, #0]
 8002704:	691b      	ldr	r3, [r3, #16]
 8002706:	f003 0301 	and.w	r3, r3, #1
 800270a:	2b01      	cmp	r3, #1
 800270c:	d10e      	bne.n	800272c <HAL_TIM_IRQHandler+0x184>
  {
    if (__HAL_TIM_GET_IT_SOURCE(htim, TIM_IT_UPDATE) != RESET)
 800270e:	687b      	ldr	r3, [r7, #4]
 8002710:	681b      	ldr	r3, [r3, #0]
 8002712:	68db      	ldr	r3, [r3, #12]
 8002714:	f003 0301 	and.w	r3, r3, #1
 8002718:	2b01      	cmp	r3, #1
 800271a:	d107      	bne.n	800272c <HAL_TIM_IRQHandler+0x184>
    {
      __HAL_TIM_CLEAR_IT(htim, TIM_IT_UPDATE);
 800271c:	687b      	ldr	r3, [r7, #4]
 800271e:	681b      	ldr	r3, [r3, #0]
 8002720:	f06f 0201 	mvn.w	r2, #1
 8002724:	611a      	str	r2, [r3, #16]
#if (USE_HAL_TIM_REGISTER_CALLBACKS == 1)
      htim->PeriodElapsedCallback(htim);
#else
      HAL_TIM_PeriodElapsedCallback(htim);
 8002726:	6878      	ldr	r0, [r7, #4]
 8002728:	f000 f9d0 	bl	8002acc <HAL_TIM_PeriodElapsedCallback>
#endif /* USE_HAL_TIM_REGISTER_CALLBACKS */
    }
  }
  /* TIM Break input event */
  if (__HAL_TIM_GET_FLAG(htim, TIM_FLAG_BREAK) != RESET)
 800272c:	687b      	ldr	r3, [r7, #4]
 800272e:	681b      	ldr	r3, [r3, #0]
 8002730:	691b      	ldr	r3, [r3, #16]
 8002732:	f003 0380 	and.w	r3, r3, #128	; 0x80
 8002736:	2b80      	cmp	r3, #128	; 0x80
 8002738:	d10e      	bne.n	8002758 <HAL_TIM_IRQHandler+0x1b0>
  {
    if (__HAL_TIM_GET_IT_SOURCE(htim, TIM_IT_BREAK) != RESET)
 800273a:	687b      	ldr	r3, [r7, #4]
 800273c:	681b      	ldr	r3, [r3, #0]
 800273e:	68db      	ldr	r3, [r3, #12]
 8002740:	f003 0380 	and.w	r3, r3, #128	; 0x80
 8002744:	2b80      	cmp	r3, #128	; 0x80
 8002746:	d107      	bne.n	8002758 <HAL_TIM_IRQHandler+0x1b0>
    {
      __HAL_TIM_CLEAR_IT(htim, TIM_IT_BREAK);
 8002748:	687b      	ldr	r3, [r7, #4]
 800274a:	681b      	ldr	r3, [r3, #0]
 800274c:	f06f 0280 	mvn.w	r2, #128	; 0x80
 8002750:	611a      	str	r2, [r3, #16]
#if (USE_HAL_TIM_REGISTER_CALLBACKS == 1)
      htim->BreakCallback(htim);
#else
      HAL_TIMEx_BreakCallback(htim);
 8002752:	6878      	ldr	r0, [r7, #4]
 8002754:	f000 fd82 	bl	800325c <HAL_TIMEx_BreakCallback>
#endif /* USE_HAL_TIM_REGISTER_CALLBACKS */
    }
  }
  /* TIM Trigger detection event */
  if (__HAL_TIM_GET_FLAG(htim, TIM_FLAG_TRIGGER) != RESET)
 8002758:	687b      	ldr	r3, [r7, #4]
 800275a:	681b      	ldr	r3, [r3, #0]
 800275c:	691b      	ldr	r3, [r3, #16]
 800275e:	f003 0340 	and.w	r3, r3, #64	; 0x40
 8002762:	2b40      	cmp	r3, #64	; 0x40
 8002764:	d10e      	bne.n	8002784 <HAL_TIM_IRQHandler+0x1dc>
  {
    if (__HAL_TIM_GET_IT_SOURCE(htim, TIM_IT_TRIGGER) != RESET)
 8002766:	687b      	ldr	r3, [r7, #4]
 8002768:	681b      	ldr	r3, [r3, #0]
 800276a:	68db      	ldr	r3, [r3, #12]
 800276c:	f003 0340 	and.w	r3, r3, #64	; 0x40
 8002770:	2b40      	cmp	r3, #64	; 0x40
 8002772:	d107      	bne.n	8002784 <HAL_TIM_IRQHandler+0x1dc>
    {
      __HAL_TIM_CLEAR_IT(htim, TIM_IT_TRIGGER);
 8002774:	687b      	ldr	r3, [r7, #4]
 8002776:	681b      	ldr	r3, [r3, #0]
 8002778:	f06f 0240 	mvn.w	r2, #64	; 0x40
 800277c:	611a      	str	r2, [r3, #16]
#if (USE_HAL_TIM_REGISTER_CALLBACKS == 1)
      htim->TriggerCallback(htim);
#else
      HAL_TIM_TriggerCallback(htim);
 800277e:	6878      	ldr	r0, [r7, #4]
 8002780:	f000 f9cc 	bl	8002b1c <HAL_TIM_TriggerCallback>
#endif /* USE_HAL_TIM_REGISTER_CALLBACKS */
    }
  }
  /* TIM commutation event */
  if (__HAL_TIM_GET_FLAG(htim, TIM_FLAG_COM) != RESET)
 8002784:	687b      	ldr	r3, [r7, #4]
 8002786:	681b      	ldr	r3, [r3, #0]
 8002788:	691b      	ldr	r3, [r3, #16]
 800278a:	f003 0320 	and.w	r3, r3, #32
 800278e:	2b20      	cmp	r3, #32
 8002790:	d10e      	bne.n	80027b0 <HAL_TIM_IRQHandler+0x208>
  {
    if (__HAL_TIM_GET_IT_SOURCE(htim, TIM_IT_COM) != RESET)
 8002792:	687b      	ldr	r3, [r7, #4]
 8002794:	681b      	ldr	r3, [r3, #0]
 8002796:	68db      	ldr	r3, [r3, #12]
 8002798:	f003 0320 	and.w	r3, r3, #32
 800279c:	2b20      	cmp	r3, #32
 800279e:	d107      	bne.n	80027b0 <HAL_TIM_IRQHandler+0x208>
    {
      __HAL_TIM_CLEAR_IT(htim, TIM_FLAG_COM);
 80027a0:	687b      	ldr	r3, [r7, #4]
 80027a2:	681b      	ldr	r3, [r3, #0]
 80027a4:	f06f 0220 	mvn.w	r2, #32
 80027a8:	611a      	str	r2, [r3, #16]
#if (USE_HAL_TIM_REGISTER_CALLBACKS == 1)
      htim->CommutationCallback(htim);
#else
      HAL_TIMEx_CommutCallback(htim);
 80027aa:	6878      	ldr	r0, [r7, #4]
 80027ac:	f000 fd4c 	bl	8003248 <HAL_TIMEx_CommutCallback>
#endif /* USE_HAL_TIM_REGISTER_CALLBACKS */
    }
  }
}
 80027b0:	bf00      	nop
 80027b2:	3708      	adds	r7, #8
 80027b4:	46bd      	mov	sp, r7
 80027b6:	bd80      	pop	{r7, pc}

080027b8 <HAL_TIM_PWM_ConfigChannel>:
  * @retval HAL status
  */
HAL_StatusTypeDef HAL_TIM_PWM_ConfigChannel(TIM_HandleTypeDef *htim,
                                            TIM_OC_InitTypeDef *sConfig,
                                            uint32_t Channel)
{
 80027b8:	b580      	push	{r7, lr}
 80027ba:	b084      	sub	sp, #16
 80027bc:	af00      	add	r7, sp, #0
 80027be:	60f8      	str	r0, [r7, #12]
 80027c0:	60b9      	str	r1, [r7, #8]
 80027c2:	607a      	str	r2, [r7, #4]
  assert_param(IS_TIM_PWM_MODE(sConfig->OCMode));
  assert_param(IS_TIM_OC_POLARITY(sConfig->OCPolarity));
  assert_param(IS_TIM_FAST_STATE(sConfig->OCFastMode));

  /* Process Locked */
  __HAL_LOCK(htim);
 80027c4:	68fb      	ldr	r3, [r7, #12]
 80027c6:	f893 303c 	ldrb.w	r3, [r3, #60]	; 0x3c
 80027ca:	2b01      	cmp	r3, #1
 80027cc:	d101      	bne.n	80027d2 <HAL_TIM_PWM_ConfigChannel+0x1a>
 80027ce:	2302      	movs	r3, #2
 80027d0:	e0b4      	b.n	800293c <HAL_TIM_PWM_ConfigChannel+0x184>
 80027d2:	68fb      	ldr	r3, [r7, #12]
 80027d4:	2201      	movs	r2, #1
 80027d6:	f883 203c 	strb.w	r2, [r3, #60]	; 0x3c

  htim->State = HAL_TIM_STATE_BUSY;
 80027da:	68fb      	ldr	r3, [r7, #12]
 80027dc:	2202      	movs	r2, #2
 80027de:	f883 203d 	strb.w	r2, [r3, #61]	; 0x3d
 80027e2:	687b      	ldr	r3, [r7, #4]
 80027e4:	2b0c      	cmp	r3, #12
 80027e6:	f200 809f 	bhi.w	8002928 <HAL_TIM_PWM_ConfigChannel+0x170>
 80027ea:	a201      	add	r2, pc, #4	; (adr r2, 80027f0 <HAL_TIM_PWM_ConfigChannel+0x38>)
 80027ec:	f852 f023 	ldr.w	pc, [r2, r3, lsl #2]
 80027f0:	08002825 	.word	0x08002825
 80027f4:	08002929 	.word	0x08002929
 80027f8:	08002929 	.word	0x08002929
 80027fc:	08002929 	.word	0x08002929
 8002800:	08002865 	.word	0x08002865
 8002804:	08002929 	.word	0x08002929
 8002808:	08002929 	.word	0x08002929
 800280c:	08002929 	.word	0x08002929
 8002810:	080028a7 	.word	0x080028a7
 8002814:	08002929 	.word	0x08002929
 8002818:	08002929 	.word	0x08002929
 800281c:	08002929 	.word	0x08002929
 8002820:	080028e7 	.word	0x080028e7
    {
      /* Check the parameters */
      assert_param(IS_TIM_CC1_INSTANCE(htim->Instance));

      /* Configure the Channel 1 in PWM mode */
      TIM_OC1_SetConfig(htim->Instance, sConfig);
 8002824:	68fb      	ldr	r3, [r7, #12]
 8002826:	681b      	ldr	r3, [r3, #0]
 8002828:	68b9      	ldr	r1, [r7, #8]
 800282a:	4618      	mov	r0, r3
 800282c:	f000 fa20 	bl	8002c70 <TIM_OC1_SetConfig>

      /* Set the Preload enable bit for channel1 */
      htim->Instance->CCMR1 |= TIM_CCMR1_OC1PE;
 8002830:	68fb      	ldr	r3, [r7, #12]
 8002832:	681b      	ldr	r3, [r3, #0]
 8002834:	699a      	ldr	r2, [r3, #24]
 8002836:	68fb      	ldr	r3, [r7, #12]
 8002838:	681b      	ldr	r3, [r3, #0]
 800283a:	f042 0208 	orr.w	r2, r2, #8
 800283e:	619a      	str	r2, [r3, #24]

      /* Configure the Output Fast mode */
      htim->Instance->CCMR1 &= ~TIM_CCMR1_OC1FE;
 8002840:	68fb      	ldr	r3, [r7, #12]
 8002842:	681b      	ldr	r3, [r3, #0]
 8002844:	699a      	ldr	r2, [r3, #24]
 8002846:	68fb      	ldr	r3, [r7, #12]
 8002848:	681b      	ldr	r3, [r3, #0]
 800284a:	f022 0204 	bic.w	r2, r2, #4
 800284e:	619a      	str	r2, [r3, #24]
      htim->Instance->CCMR1 |= sConfig->OCFastMode;
 8002850:	68fb      	ldr	r3, [r7, #12]
 8002852:	681b      	ldr	r3, [r3, #0]
 8002854:	6999      	ldr	r1, [r3, #24]
 8002856:	68bb      	ldr	r3, [r7, #8]
 8002858:	691a      	ldr	r2, [r3, #16]
 800285a:	68fb      	ldr	r3, [r7, #12]
 800285c:	681b      	ldr	r3, [r3, #0]
 800285e:	430a      	orrs	r2, r1
 8002860:	619a      	str	r2, [r3, #24]
      break;
 8002862:	e062      	b.n	800292a <HAL_TIM_PWM_ConfigChannel+0x172>
    {
      /* Check the parameters */
      assert_param(IS_TIM_CC2_INSTANCE(htim->Instance));

      /* Configure the Channel 2 in PWM mode */
      TIM_OC2_SetConfig(htim->Instance, sConfig);
 8002864:	68fb      	ldr	r3, [r7, #12]
 8002866:	681b      	ldr	r3, [r3, #0]
 8002868:	68b9      	ldr	r1, [r7, #8]
 800286a:	4618      	mov	r0, r3
 800286c:	f000 fa70 	bl	8002d50 <TIM_OC2_SetConfig>

      /* Set the Preload enable bit for channel2 */
      htim->Instance->CCMR1 |= TIM_CCMR1_OC2PE;
 8002870:	68fb      	ldr	r3, [r7, #12]
 8002872:	681b      	ldr	r3, [r3, #0]
 8002874:	699a      	ldr	r2, [r3, #24]
 8002876:	68fb      	ldr	r3, [r7, #12]
 8002878:	681b      	ldr	r3, [r3, #0]
 800287a:	f442 6200 	orr.w	r2, r2, #2048	; 0x800
 800287e:	619a      	str	r2, [r3, #24]

      /* Configure the Output Fast mode */
      htim->Instance->CCMR1 &= ~TIM_CCMR1_OC2FE;
 8002880:	68fb      	ldr	r3, [r7, #12]
 8002882:	681b      	ldr	r3, [r3, #0]
 8002884:	699a      	ldr	r2, [r3, #24]
 8002886:	68fb      	ldr	r3, [r7, #12]
 8002888:	681b      	ldr	r3, [r3, #0]
 800288a:	f422 6280 	bic.w	r2, r2, #1024	; 0x400
 800288e:	619a      	str	r2, [r3, #24]
      htim->Instance->CCMR1 |= sConfig->OCFastMode << 8U;
 8002890:	68fb      	ldr	r3, [r7, #12]
 8002892:	681b      	ldr	r3, [r3, #0]
 8002894:	6999      	ldr	r1, [r3, #24]
 8002896:	68bb      	ldr	r3, [r7, #8]
 8002898:	691b      	ldr	r3, [r3, #16]
 800289a:	021a      	lsls	r2, r3, #8
 800289c:	68fb      	ldr	r3, [r7, #12]
 800289e:	681b      	ldr	r3, [r3, #0]
 80028a0:	430a      	orrs	r2, r1
 80028a2:	619a      	str	r2, [r3, #24]
      break;
 80028a4:	e041      	b.n	800292a <HAL_TIM_PWM_ConfigChannel+0x172>
    {
      /* Check the parameters */
      assert_param(IS_TIM_CC3_INSTANCE(htim->Instance));

      /* Configure the Channel 3 in PWM mode */
      TIM_OC3_SetConfig(htim->Instance, sConfig);
 80028a6:	68fb      	ldr	r3, [r7, #12]
 80028a8:	681b      	ldr	r3, [r3, #0]
 80028aa:	68b9      	ldr	r1, [r7, #8]
 80028ac:	4618      	mov	r0, r3
 80028ae:	f000 fac5 	bl	8002e3c <TIM_OC3_SetConfig>

      /* Set the Preload enable bit for channel3 */
      htim->Instance->CCMR2 |= TIM_CCMR2_OC3PE;
 80028b2:	68fb      	ldr	r3, [r7, #12]
 80028b4:	681b      	ldr	r3, [r3, #0]
 80028b6:	69da      	ldr	r2, [r3, #28]
 80028b8:	68fb      	ldr	r3, [r7, #12]
 80028ba:	681b      	ldr	r3, [r3, #0]
 80028bc:	f042 0208 	orr.w	r2, r2, #8
 80028c0:	61da      	str	r2, [r3, #28]

      /* Configure the Output Fast mode */
      htim->Instance->CCMR2 &= ~TIM_CCMR2_OC3FE;
 80028c2:	68fb      	ldr	r3, [r7, #12]
 80028c4:	681b      	ldr	r3, [r3, #0]
 80028c6:	69da      	ldr	r2, [r3, #28]
 80028c8:	68fb      	ldr	r3, [r7, #12]
 80028ca:	681b      	ldr	r3, [r3, #0]
 80028cc:	f022 0204 	bic.w	r2, r2, #4
 80028d0:	61da      	str	r2, [r3, #28]
      htim->Instance->CCMR2 |= sConfig->OCFastMode;
 80028d2:	68fb      	ldr	r3, [r7, #12]
 80028d4:	681b      	ldr	r3, [r3, #0]
 80028d6:	69d9      	ldr	r1, [r3, #28]
 80028d8:	68bb      	ldr	r3, [r7, #8]
 80028da:	691a      	ldr	r2, [r3, #16]
 80028dc:	68fb      	ldr	r3, [r7, #12]
 80028de:	681b      	ldr	r3, [r3, #0]
 80028e0:	430a      	orrs	r2, r1
 80028e2:	61da      	str	r2, [r3, #28]
      break;
 80028e4:	e021      	b.n	800292a <HAL_TIM_PWM_ConfigChannel+0x172>
    {
      /* Check the parameters */
      assert_param(IS_TIM_CC4_INSTANCE(htim->Instance));

      /* Configure the Channel 4 in PWM mode */
      TIM_OC4_SetConfig(htim->Instance, sConfig);
 80028e6:	68fb      	ldr	r3, [r7, #12]
 80028e8:	681b      	ldr	r3, [r3, #0]
 80028ea:	68b9      	ldr	r1, [r7, #8]
 80028ec:	4618      	mov	r0, r3
 80028ee:	f000 fb19 	bl	8002f24 <TIM_OC4_SetConfig>

      /* Set the Preload enable bit for channel4 */
      htim->Instance->CCMR2 |= TIM_CCMR2_OC4PE;
 80028f2:	68fb      	ldr	r3, [r7, #12]
 80028f4:	681b      	ldr	r3, [r3, #0]
 80028f6:	69da      	ldr	r2, [r3, #28]
 80028f8:	68fb      	ldr	r3, [r7, #12]
 80028fa:	681b      	ldr	r3, [r3, #0]
 80028fc:	f442 6200 	orr.w	r2, r2, #2048	; 0x800
 8002900:	61da      	str	r2, [r3, #28]

      /* Configure the Output Fast mode */
      htim->Instance->CCMR2 &= ~TIM_CCMR2_OC4FE;
 8002902:	68fb      	ldr	r3, [r7, #12]
 8002904:	681b      	ldr	r3, [r3, #0]
 8002906:	69da      	ldr	r2, [r3, #28]
 8002908:	68fb      	ldr	r3, [r7, #12]
 800290a:	681b      	ldr	r3, [r3, #0]
 800290c:	f422 6280 	bic.w	r2, r2, #1024	; 0x400
 8002910:	61da      	str	r2, [r3, #28]
      htim->Instance->CCMR2 |= sConfig->OCFastMode << 8U;
 8002912:	68fb      	ldr	r3, [r7, #12]
 8002914:	681b      	ldr	r3, [r3, #0]
 8002916:	69d9      	ldr	r1, [r3, #28]
 8002918:	68bb      	ldr	r3, [r7, #8]
 800291a:	691b      	ldr	r3, [r3, #16]
 800291c:	021a      	lsls	r2, r3, #8
 800291e:	68fb      	ldr	r3, [r7, #12]
 8002920:	681b      	ldr	r3, [r3, #0]
 8002922:	430a      	orrs	r2, r1
 8002924:	61da      	str	r2, [r3, #28]
      break;
 8002926:	e000      	b.n	800292a <HAL_TIM_PWM_ConfigChannel+0x172>
    }

    default:
      break;
 8002928:	bf00      	nop
  }

  htim->State = HAL_TIM_STATE_READY;
 800292a:	68fb      	ldr	r3, [r7, #12]
 800292c:	2201      	movs	r2, #1
 800292e:	f883 203d 	strb.w	r2, [r3, #61]	; 0x3d

  __HAL_UNLOCK(htim);
 8002932:	68fb      	ldr	r3, [r7, #12]
 8002934:	2200      	movs	r2, #0
 8002936:	f883 203c 	strb.w	r2, [r3, #60]	; 0x3c

  return HAL_OK;
 800293a:	2300      	movs	r3, #0
}
 800293c:	4618      	mov	r0, r3
 800293e:	3710      	adds	r7, #16
 8002940:	46bd      	mov	sp, r7
 8002942:	bd80      	pop	{r7, pc}

08002944 <HAL_TIM_ConfigClockSource>:
  * @param  sClockSourceConfig pointer to a TIM_ClockConfigTypeDef structure that
  *         contains the clock source information for the TIM peripheral.
  * @retval HAL status
  */
HAL_StatusTypeDef HAL_TIM_ConfigClockSource(TIM_HandleTypeDef *htim, TIM_ClockConfigTypeDef *sClockSourceConfig)
{
 8002944:	b580      	push	{r7, lr}
 8002946:	b084      	sub	sp, #16
 8002948:	af00      	add	r7, sp, #0
 800294a:	6078      	str	r0, [r7, #4]
 800294c:	6039      	str	r1, [r7, #0]
  uint32_t tmpsmcr;

  /* Process Locked */
  __HAL_LOCK(htim);
 800294e:	687b      	ldr	r3, [r7, #4]
 8002950:	f893 303c 	ldrb.w	r3, [r3, #60]	; 0x3c
 8002954:	2b01      	cmp	r3, #1
 8002956:	d101      	bne.n	800295c <HAL_TIM_ConfigClockSource+0x18>
 8002958:	2302      	movs	r3, #2
 800295a:	e0b3      	b.n	8002ac4 <HAL_TIM_ConfigClockSource+0x180>
 800295c:	687b      	ldr	r3, [r7, #4]
 800295e:	2201      	movs	r2, #1
 8002960:	f883 203c 	strb.w	r2, [r3, #60]	; 0x3c

  htim->State = HAL_TIM_STATE_BUSY;
 8002964:	687b      	ldr	r3, [r7, #4]
 8002966:	2202      	movs	r2, #2
 8002968:	f883 203d 	strb.w	r2, [r3, #61]	; 0x3d

  /* Check the parameters */
  assert_param(IS_TIM_CLOCKSOURCE(sClockSourceConfig->ClockSource));

  /* Reset the SMS, TS, ECE, ETPS and ETRF bits */
  tmpsmcr = htim->Instance->SMCR;
 800296c:	687b      	ldr	r3, [r7, #4]
 800296e:	681b      	ldr	r3, [r3, #0]
 8002970:	689b      	ldr	r3, [r3, #8]
 8002972:	60fb      	str	r3, [r7, #12]
  tmpsmcr &= ~(TIM_SMCR_SMS | TIM_SMCR_TS);
 8002974:	68fb      	ldr	r3, [r7, #12]
 8002976:	f023 0377 	bic.w	r3, r3, #119	; 0x77
 800297a:	60fb      	str	r3, [r7, #12]
  tmpsmcr &= ~(TIM_SMCR_ETF | TIM_SMCR_ETPS | TIM_SMCR_ECE | TIM_SMCR_ETP);
 800297c:	68fb      	ldr	r3, [r7, #12]
 800297e:	f423 437f 	bic.w	r3, r3, #65280	; 0xff00
 8002982:	60fb      	str	r3, [r7, #12]
  htim->Instance->SMCR = tmpsmcr;
 8002984:	687b      	ldr	r3, [r7, #4]
 8002986:	681b      	ldr	r3, [r3, #0]
 8002988:	68fa      	ldr	r2, [r7, #12]
 800298a:	609a      	str	r2, [r3, #8]

  switch (sClockSourceConfig->ClockSource)
 800298c:	683b      	ldr	r3, [r7, #0]
 800298e:	681b      	ldr	r3, [r3, #0]
 8002990:	f5b3 5f00 	cmp.w	r3, #8192	; 0x2000
 8002994:	d03e      	beq.n	8002a14 <HAL_TIM_ConfigClockSource+0xd0>
 8002996:	f5b3 5f00 	cmp.w	r3, #8192	; 0x2000
 800299a:	f200 8087 	bhi.w	8002aac <HAL_TIM_ConfigClockSource+0x168>
 800299e:	f5b3 5f80 	cmp.w	r3, #4096	; 0x1000
 80029a2:	f000 8085 	beq.w	8002ab0 <HAL_TIM_ConfigClockSource+0x16c>
 80029a6:	f5b3 5f80 	cmp.w	r3, #4096	; 0x1000
 80029aa:	d87f      	bhi.n	8002aac <HAL_TIM_ConfigClockSource+0x168>
 80029ac:	2b70      	cmp	r3, #112	; 0x70
 80029ae:	d01a      	beq.n	80029e6 <HAL_TIM_ConfigClockSource+0xa2>
 80029b0:	2b70      	cmp	r3, #112	; 0x70
 80029b2:	d87b      	bhi.n	8002aac <HAL_TIM_ConfigClockSource+0x168>
 80029b4:	2b60      	cmp	r3, #96	; 0x60
 80029b6:	d050      	beq.n	8002a5a <HAL_TIM_ConfigClockSource+0x116>
 80029b8:	2b60      	cmp	r3, #96	; 0x60
 80029ba:	d877      	bhi.n	8002aac <HAL_TIM_ConfigClockSource+0x168>
 80029bc:	2b50      	cmp	r3, #80	; 0x50
 80029be:	d03c      	beq.n	8002a3a <HAL_TIM_ConfigClockSource+0xf6>
 80029c0:	2b50      	cmp	r3, #80	; 0x50
 80029c2:	d873      	bhi.n	8002aac <HAL_TIM_ConfigClockSource+0x168>
 80029c4:	2b40      	cmp	r3, #64	; 0x40
 80029c6:	d058      	beq.n	8002a7a <HAL_TIM_ConfigClockSource+0x136>
 80029c8:	2b40      	cmp	r3, #64	; 0x40
 80029ca:	d86f      	bhi.n	8002aac <HAL_TIM_ConfigClockSource+0x168>
 80029cc:	2b30      	cmp	r3, #48	; 0x30
 80029ce:	d064      	beq.n	8002a9a <HAL_TIM_ConfigClockSource+0x156>
 80029d0:	2b30      	cmp	r3, #48	; 0x30
 80029d2:	d86b      	bhi.n	8002aac <HAL_TIM_ConfigClockSource+0x168>
 80029d4:	2b20      	cmp	r3, #32
 80029d6:	d060      	beq.n	8002a9a <HAL_TIM_ConfigClockSource+0x156>
 80029d8:	2b20      	cmp	r3, #32
 80029da:	d867      	bhi.n	8002aac <HAL_TIM_ConfigClockSource+0x168>
 80029dc:	2b00      	cmp	r3, #0
 80029de:	d05c      	beq.n	8002a9a <HAL_TIM_ConfigClockSource+0x156>
 80029e0:	2b10      	cmp	r3, #16
 80029e2:	d05a      	beq.n	8002a9a <HAL_TIM_ConfigClockSource+0x156>
      TIM_ITRx_SetConfig(htim->Instance, sClockSourceConfig->ClockSource);
      break;
    }

    default:
      break;
 80029e4:	e062      	b.n	8002aac <HAL_TIM_ConfigClockSource+0x168>
      TIM_ETR_SetConfig(htim->Instance,
 80029e6:	687b      	ldr	r3, [r7, #4]
 80029e8:	6818      	ldr	r0, [r3, #0]
 80029ea:	683b      	ldr	r3, [r7, #0]
 80029ec:	6899      	ldr	r1, [r3, #8]
 80029ee:	683b      	ldr	r3, [r7, #0]
 80029f0:	685a      	ldr	r2, [r3, #4]
 80029f2:	683b      	ldr	r3, [r7, #0]
 80029f4:	68db      	ldr	r3, [r3, #12]
 80029f6:	f000 fb65 	bl	80030c4 <TIM_ETR_SetConfig>
      tmpsmcr = htim->Instance->SMCR;
 80029fa:	687b      	ldr	r3, [r7, #4]
 80029fc:	681b      	ldr	r3, [r3, #0]
 80029fe:	689b      	ldr	r3, [r3, #8]
 8002a00:	60fb      	str	r3, [r7, #12]
      tmpsmcr |= (TIM_SLAVEMODE_EXTERNAL1 | TIM_CLOCKSOURCE_ETRMODE1);
 8002a02:	68fb      	ldr	r3, [r7, #12]
 8002a04:	f043 0377 	orr.w	r3, r3, #119	; 0x77
 8002a08:	60fb      	str	r3, [r7, #12]
      htim->Instance->SMCR = tmpsmcr;
 8002a0a:	687b      	ldr	r3, [r7, #4]
 8002a0c:	681b      	ldr	r3, [r3, #0]
 8002a0e:	68fa      	ldr	r2, [r7, #12]
 8002a10:	609a      	str	r2, [r3, #8]
      break;
 8002a12:	e04e      	b.n	8002ab2 <HAL_TIM_ConfigClockSource+0x16e>
      TIM_ETR_SetConfig(htim->Instance,
 8002a14:	687b      	ldr	r3, [r7, #4]
 8002a16:	6818      	ldr	r0, [r3, #0]
 8002a18:	683b      	ldr	r3, [r7, #0]
 8002a1a:	6899      	ldr	r1, [r3, #8]
 8002a1c:	683b      	ldr	r3, [r7, #0]
 8002a1e:	685a      	ldr	r2, [r3, #4]
 8002a20:	683b      	ldr	r3, [r7, #0]
 8002a22:	68db      	ldr	r3, [r3, #12]
 8002a24:	f000 fb4e 	bl	80030c4 <TIM_ETR_SetConfig>
      htim->Instance->SMCR |= TIM_SMCR_ECE;
 8002a28:	687b      	ldr	r3, [r7, #4]
 8002a2a:	681b      	ldr	r3, [r3, #0]
 8002a2c:	689a      	ldr	r2, [r3, #8]
 8002a2e:	687b      	ldr	r3, [r7, #4]
 8002a30:	681b      	ldr	r3, [r3, #0]
 8002a32:	f442 4280 	orr.w	r2, r2, #16384	; 0x4000
 8002a36:	609a      	str	r2, [r3, #8]
      break;
 8002a38:	e03b      	b.n	8002ab2 <HAL_TIM_ConfigClockSource+0x16e>
      TIM_TI1_ConfigInputStage(htim->Instance,
 8002a3a:	687b      	ldr	r3, [r7, #4]
 8002a3c:	6818      	ldr	r0, [r3, #0]
 8002a3e:	683b      	ldr	r3, [r7, #0]
 8002a40:	6859      	ldr	r1, [r3, #4]
 8002a42:	683b      	ldr	r3, [r7, #0]
 8002a44:	68db      	ldr	r3, [r3, #12]
 8002a46:	461a      	mov	r2, r3
 8002a48:	f000 fac2 	bl	8002fd0 <TIM_TI1_ConfigInputStage>
      TIM_ITRx_SetConfig(htim->Instance, TIM_CLOCKSOURCE_TI1);
 8002a4c:	687b      	ldr	r3, [r7, #4]
 8002a4e:	681b      	ldr	r3, [r3, #0]
 8002a50:	2150      	movs	r1, #80	; 0x50
 8002a52:	4618      	mov	r0, r3
 8002a54:	f000 fb1b 	bl	800308e <TIM_ITRx_SetConfig>
      break;
 8002a58:	e02b      	b.n	8002ab2 <HAL_TIM_ConfigClockSource+0x16e>
      TIM_TI2_ConfigInputStage(htim->Instance,
 8002a5a:	687b      	ldr	r3, [r7, #4]
 8002a5c:	6818      	ldr	r0, [r3, #0]
 8002a5e:	683b      	ldr	r3, [r7, #0]
 8002a60:	6859      	ldr	r1, [r3, #4]
 8002a62:	683b      	ldr	r3, [r7, #0]
 8002a64:	68db      	ldr	r3, [r3, #12]
 8002a66:	461a      	mov	r2, r3
 8002a68:	f000 fae1 	bl	800302e <TIM_TI2_ConfigInputStage>
      TIM_ITRx_SetConfig(htim->Instance, TIM_CLOCKSOURCE_TI2);
 8002a6c:	687b      	ldr	r3, [r7, #4]
 8002a6e:	681b      	ldr	r3, [r3, #0]
 8002a70:	2160      	movs	r1, #96	; 0x60
 8002a72:	4618      	mov	r0, r3
 8002a74:	f000 fb0b 	bl	800308e <TIM_ITRx_SetConfig>
      break;
 8002a78:	e01b      	b.n	8002ab2 <HAL_TIM_ConfigClockSource+0x16e>
      TIM_TI1_ConfigInputStage(htim->Instance,
 8002a7a:	687b      	ldr	r3, [r7, #4]
 8002a7c:	6818      	ldr	r0, [r3, #0]
 8002a7e:	683b      	ldr	r3, [r7, #0]
 8002a80:	6859      	ldr	r1, [r3, #4]
 8002a82:	683b      	ldr	r3, [r7, #0]
 8002a84:	68db      	ldr	r3, [r3, #12]
 8002a86:	461a      	mov	r2, r3
 8002a88:	f000 faa2 	bl	8002fd0 <TIM_TI1_ConfigInputStage>
      TIM_ITRx_SetConfig(htim->Instance, TIM_CLOCKSOURCE_TI1ED);
 8002a8c:	687b      	ldr	r3, [r7, #4]
 8002a8e:	681b      	ldr	r3, [r3, #0]
 8002a90:	2140      	movs	r1, #64	; 0x40
 8002a92:	4618      	mov	r0, r3
 8002a94:	f000 fafb 	bl	800308e <TIM_ITRx_SetConfig>
      break;
 8002a98:	e00b      	b.n	8002ab2 <HAL_TIM_ConfigClockSource+0x16e>
      TIM_ITRx_SetConfig(htim->Instance, sClockSourceConfig->ClockSource);
 8002a9a:	687b      	ldr	r3, [r7, #4]
 8002a9c:	681a      	ldr	r2, [r3, #0]
 8002a9e:	683b      	ldr	r3, [r7, #0]
 8002aa0:	681b      	ldr	r3, [r3, #0]
 8002aa2:	4619      	mov	r1, r3
 8002aa4:	4610      	mov	r0, r2
 8002aa6:	f000 faf2 	bl	800308e <TIM_ITRx_SetConfig>
      break;
 8002aaa:	e002      	b.n	8002ab2 <HAL_TIM_ConfigClockSource+0x16e>
      break;
 8002aac:	bf00      	nop
 8002aae:	e000      	b.n	8002ab2 <HAL_TIM_ConfigClockSource+0x16e>
      break;
 8002ab0:	bf00      	nop
  }
  htim->State = HAL_TIM_STATE_READY;
 8002ab2:	687b      	ldr	r3, [r7, #4]
 8002ab4:	2201      	movs	r2, #1
 8002ab6:	f883 203d 	strb.w	r2, [r3, #61]	; 0x3d

  __HAL_UNLOCK(htim);
 8002aba:	687b      	ldr	r3, [r7, #4]
 8002abc:	2200      	movs	r2, #0
 8002abe:	f883 203c 	strb.w	r2, [r3, #60]	; 0x3c

  return HAL_OK;
 8002ac2:	2300      	movs	r3, #0
}
 8002ac4:	4618      	mov	r0, r3
 8002ac6:	3710      	adds	r7, #16
 8002ac8:	46bd      	mov	sp, r7
 8002aca:	bd80      	pop	{r7, pc}

08002acc <HAL_TIM_PeriodElapsedCallback>:
  * @brief  Period elapsed callback in non-blocking mode
  * @param  htim TIM handle
  * @retval None
  */
__weak void HAL_TIM_PeriodElapsedCallback(TIM_HandleTypeDef *htim)
{
 8002acc:	b480      	push	{r7}
 8002ace:	b083      	sub	sp, #12
 8002ad0:	af00      	add	r7, sp, #0
 8002ad2:	6078      	str	r0, [r7, #4]
  UNUSED(htim);

  /* NOTE : This function should not be modified, when the callback is needed,
            the HAL_TIM_PeriodElapsedCallback could be implemented in the user file
   */
}
 8002ad4:	bf00      	nop
 8002ad6:	370c      	adds	r7, #12
 8002ad8:	46bd      	mov	sp, r7
 8002ada:	f85d 7b04 	ldr.w	r7, [sp], #4
 8002ade:	4770      	bx	lr

08002ae0 <HAL_TIM_OC_DelayElapsedCallback>:
  * @brief  Output Compare callback in non-blocking mode
  * @param  htim TIM OC handle
  * @retval None
  */
__weak void HAL_TIM_OC_DelayElapsedCallback(TIM_HandleTypeDef *htim)
{
 8002ae0:	b480      	push	{r7}
 8002ae2:	b083      	sub	sp, #12
 8002ae4:	af00      	add	r7, sp, #0
 8002ae6:	6078      	str	r0, [r7, #4]
  UNUSED(htim);

  /* NOTE : This function should not be modified, when the callback is needed,
            the HAL_TIM_OC_DelayElapsedCallback could be implemented in the user file
   */
}
 8002ae8:	bf00      	nop
 8002aea:	370c      	adds	r7, #12
 8002aec:	46bd      	mov	sp, r7
 8002aee:	f85d 7b04 	ldr.w	r7, [sp], #4
 8002af2:	4770      	bx	lr

08002af4 <HAL_TIM_IC_CaptureCallback>:
  * @brief  Input Capture callback in non-blocking mode
  * @param  htim TIM IC handle
  * @retval None
  */
__weak void HAL_TIM_IC_CaptureCallback(TIM_HandleTypeDef *htim)
{
 8002af4:	b480      	push	{r7}
 8002af6:	b083      	sub	sp, #12
 8002af8:	af00      	add	r7, sp, #0
 8002afa:	6078      	str	r0, [r7, #4]
  UNUSED(htim);

  /* NOTE : This function should not be modified, when the callback is needed,
            the HAL_TIM_IC_CaptureCallback could be implemented in the user file
   */
}
 8002afc:	bf00      	nop
 8002afe:	370c      	adds	r7, #12
 8002b00:	46bd      	mov	sp, r7
 8002b02:	f85d 7b04 	ldr.w	r7, [sp], #4
 8002b06:	4770      	bx	lr

08002b08 <HAL_TIM_PWM_PulseFinishedCallback>:
  * @brief  PWM Pulse finished callback in non-blocking mode
  * @param  htim TIM handle
  * @retval None
  */
__weak void HAL_TIM_PWM_PulseFinishedCallback(TIM_HandleTypeDef *htim)
{
 8002b08:	b480      	push	{r7}
 8002b0a:	b083      	sub	sp, #12
 8002b0c:	af00      	add	r7, sp, #0
 8002b0e:	6078      	str	r0, [r7, #4]
  UNUSED(htim);

  /* NOTE : This function should not be modified, when the callback is needed,
            the HAL_TIM_PWM_PulseFinishedCallback could be implemented in the user file
   */
}
 8002b10:	bf00      	nop
 8002b12:	370c      	adds	r7, #12
 8002b14:	46bd      	mov	sp, r7
 8002b16:	f85d 7b04 	ldr.w	r7, [sp], #4
 8002b1a:	4770      	bx	lr

08002b1c <HAL_TIM_TriggerCallback>:
  * @brief  Hall Trigger detection callback in non-blocking mode
  * @param  htim TIM handle
  * @retval None
  */
__weak void HAL_TIM_TriggerCallback(TIM_HandleTypeDef *htim)
{
 8002b1c:	b480      	push	{r7}
 8002b1e:	b083      	sub	sp, #12
 8002b20:	af00      	add	r7, sp, #0
 8002b22:	6078      	str	r0, [r7, #4]
  UNUSED(htim);

  /* NOTE : This function should not be modified, when the callback is needed,
            the HAL_TIM_TriggerCallback could be implemented in the user file
   */
}
 8002b24:	bf00      	nop
 8002b26:	370c      	adds	r7, #12
 8002b28:	46bd      	mov	sp, r7
 8002b2a:	f85d 7b04 	ldr.w	r7, [sp], #4
 8002b2e:	4770      	bx	lr

08002b30 <TIM_Base_SetConfig>:
  * @param  TIMx TIM peripheral
  * @param  Structure TIM Base configuration structure
  * @retval None
  */
void TIM_Base_SetConfig(TIM_TypeDef *TIMx, TIM_Base_InitTypeDef *Structure)
{
 8002b30:	b480      	push	{r7}
 8002b32:	b085      	sub	sp, #20
 8002b34:	af00      	add	r7, sp, #0
 8002b36:	6078      	str	r0, [r7, #4]
 8002b38:	6039      	str	r1, [r7, #0]
  uint32_t tmpcr1;
  tmpcr1 = TIMx->CR1;
 8002b3a:	687b      	ldr	r3, [r7, #4]
 8002b3c:	681b      	ldr	r3, [r3, #0]
 8002b3e:	60fb      	str	r3, [r7, #12]

  /* Set TIM Time Base Unit parameters ---------------------------------------*/
  if (IS_TIM_COUNTER_MODE_SELECT_INSTANCE(TIMx))
 8002b40:	687b      	ldr	r3, [r7, #4]
 8002b42:	4a40      	ldr	r2, [pc, #256]	; (8002c44 <TIM_Base_SetConfig+0x114>)
 8002b44:	4293      	cmp	r3, r2
 8002b46:	d013      	beq.n	8002b70 <TIM_Base_SetConfig+0x40>
 8002b48:	687b      	ldr	r3, [r7, #4]
 8002b4a:	f1b3 4f80 	cmp.w	r3, #1073741824	; 0x40000000
 8002b4e:	d00f      	beq.n	8002b70 <TIM_Base_SetConfig+0x40>
 8002b50:	687b      	ldr	r3, [r7, #4]
 8002b52:	4a3d      	ldr	r2, [pc, #244]	; (8002c48 <TIM_Base_SetConfig+0x118>)
 8002b54:	4293      	cmp	r3, r2
 8002b56:	d00b      	beq.n	8002b70 <TIM_Base_SetConfig+0x40>
 8002b58:	687b      	ldr	r3, [r7, #4]
 8002b5a:	4a3c      	ldr	r2, [pc, #240]	; (8002c4c <TIM_Base_SetConfig+0x11c>)
 8002b5c:	4293      	cmp	r3, r2
 8002b5e:	d007      	beq.n	8002b70 <TIM_Base_SetConfig+0x40>
 8002b60:	687b      	ldr	r3, [r7, #4]
 8002b62:	4a3b      	ldr	r2, [pc, #236]	; (8002c50 <TIM_Base_SetConfig+0x120>)
 8002b64:	4293      	cmp	r3, r2
 8002b66:	d003      	beq.n	8002b70 <TIM_Base_SetConfig+0x40>
 8002b68:	687b      	ldr	r3, [r7, #4]
 8002b6a:	4a3a      	ldr	r2, [pc, #232]	; (8002c54 <TIM_Base_SetConfig+0x124>)
 8002b6c:	4293      	cmp	r3, r2
 8002b6e:	d108      	bne.n	8002b82 <TIM_Base_SetConfig+0x52>
  {
    /* Select the Counter Mode */
    tmpcr1 &= ~(TIM_CR1_DIR | TIM_CR1_CMS);
 8002b70:	68fb      	ldr	r3, [r7, #12]
 8002b72:	f023 0370 	bic.w	r3, r3, #112	; 0x70
 8002b76:	60fb      	str	r3, [r7, #12]
    tmpcr1 |= Structure->CounterMode;
 8002b78:	683b      	ldr	r3, [r7, #0]
 8002b7a:	685b      	ldr	r3, [r3, #4]
 8002b7c:	68fa      	ldr	r2, [r7, #12]
 8002b7e:	4313      	orrs	r3, r2
 8002b80:	60fb      	str	r3, [r7, #12]
  }

  if (IS_TIM_CLOCK_DIVISION_INSTANCE(TIMx))
 8002b82:	687b      	ldr	r3, [r7, #4]
 8002b84:	4a2f      	ldr	r2, [pc, #188]	; (8002c44 <TIM_Base_SetConfig+0x114>)
 8002b86:	4293      	cmp	r3, r2
 8002b88:	d02b      	beq.n	8002be2 <TIM_Base_SetConfig+0xb2>
 8002b8a:	687b      	ldr	r3, [r7, #4]
 8002b8c:	f1b3 4f80 	cmp.w	r3, #1073741824	; 0x40000000
 8002b90:	d027      	beq.n	8002be2 <TIM_Base_SetConfig+0xb2>
 8002b92:	687b      	ldr	r3, [r7, #4]
 8002b94:	4a2c      	ldr	r2, [pc, #176]	; (8002c48 <TIM_Base_SetConfig+0x118>)
 8002b96:	4293      	cmp	r3, r2
 8002b98:	d023      	beq.n	8002be2 <TIM_Base_SetConfig+0xb2>
 8002b9a:	687b      	ldr	r3, [r7, #4]
 8002b9c:	4a2b      	ldr	r2, [pc, #172]	; (8002c4c <TIM_Base_SetConfig+0x11c>)
 8002b9e:	4293      	cmp	r3, r2
 8002ba0:	d01f      	beq.n	8002be2 <TIM_Base_SetConfig+0xb2>
 8002ba2:	687b      	ldr	r3, [r7, #4]
 8002ba4:	4a2a      	ldr	r2, [pc, #168]	; (8002c50 <TIM_Base_SetConfig+0x120>)
 8002ba6:	4293      	cmp	r3, r2
 8002ba8:	d01b      	beq.n	8002be2 <TIM_Base_SetConfig+0xb2>
 8002baa:	687b      	ldr	r3, [r7, #4]
 8002bac:	4a29      	ldr	r2, [pc, #164]	; (8002c54 <TIM_Base_SetConfig+0x124>)
 8002bae:	4293      	cmp	r3, r2
 8002bb0:	d017      	beq.n	8002be2 <TIM_Base_SetConfig+0xb2>
 8002bb2:	687b      	ldr	r3, [r7, #4]
 8002bb4:	4a28      	ldr	r2, [pc, #160]	; (8002c58 <TIM_Base_SetConfig+0x128>)
 8002bb6:	4293      	cmp	r3, r2
 8002bb8:	d013      	beq.n	8002be2 <TIM_Base_SetConfig+0xb2>
 8002bba:	687b      	ldr	r3, [r7, #4]
 8002bbc:	4a27      	ldr	r2, [pc, #156]	; (8002c5c <TIM_Base_SetConfig+0x12c>)
 8002bbe:	4293      	cmp	r3, r2
 8002bc0:	d00f      	beq.n	8002be2 <TIM_Base_SetConfig+0xb2>
 8002bc2:	687b      	ldr	r3, [r7, #4]
 8002bc4:	4a26      	ldr	r2, [pc, #152]	; (8002c60 <TIM_Base_SetConfig+0x130>)
 8002bc6:	4293      	cmp	r3, r2
 8002bc8:	d00b      	beq.n	8002be2 <TIM_Base_SetConfig+0xb2>
 8002bca:	687b      	ldr	r3, [r7, #4]
 8002bcc:	4a25      	ldr	r2, [pc, #148]	; (8002c64 <TIM_Base_SetConfig+0x134>)
 8002bce:	4293      	cmp	r3, r2
 8002bd0:	d007      	beq.n	8002be2 <TIM_Base_SetConfig+0xb2>
 8002bd2:	687b      	ldr	r3, [r7, #4]
 8002bd4:	4a24      	ldr	r2, [pc, #144]	; (8002c68 <TIM_Base_SetConfig+0x138>)
 8002bd6:	4293      	cmp	r3, r2
 8002bd8:	d003      	beq.n	8002be2 <TIM_Base_SetConfig+0xb2>
 8002bda:	687b      	ldr	r3, [r7, #4]
 8002bdc:	4a23      	ldr	r2, [pc, #140]	; (8002c6c <TIM_Base_SetConfig+0x13c>)
 8002bde:	4293      	cmp	r3, r2
 8002be0:	d108      	bne.n	8002bf4 <TIM_Base_SetConfig+0xc4>
  {
    /* Set the clock division */
    tmpcr1 &= ~TIM_CR1_CKD;
 8002be2:	68fb      	ldr	r3, [r7, #12]
 8002be4:	f423 7340 	bic.w	r3, r3, #768	; 0x300
 8002be8:	60fb      	str	r3, [r7, #12]
    tmpcr1 |= (uint32_t)Structure->ClockDivision;
 8002bea:	683b      	ldr	r3, [r7, #0]
 8002bec:	68db      	ldr	r3, [r3, #12]
 8002bee:	68fa      	ldr	r2, [r7, #12]
 8002bf0:	4313      	orrs	r3, r2
 8002bf2:	60fb      	str	r3, [r7, #12]
  }

  /* Set the auto-reload preload */
  MODIFY_REG(tmpcr1, TIM_CR1_ARPE, Structure->AutoReloadPreload);
 8002bf4:	68fb      	ldr	r3, [r7, #12]
 8002bf6:	f023 0280 	bic.w	r2, r3, #128	; 0x80
 8002bfa:	683b      	ldr	r3, [r7, #0]
 8002bfc:	695b      	ldr	r3, [r3, #20]
 8002bfe:	4313      	orrs	r3, r2
 8002c00:	60fb      	str	r3, [r7, #12]

  TIMx->CR1 = tmpcr1;
 8002c02:	687b      	ldr	r3, [r7, #4]
 8002c04:	68fa      	ldr	r2, [r7, #12]
 8002c06:	601a      	str	r2, [r3, #0]

  /* Set the Autoreload value */
  TIMx->ARR = (uint32_t)Structure->Period ;
 8002c08:	683b      	ldr	r3, [r7, #0]
 8002c0a:	689a      	ldr	r2, [r3, #8]
 8002c0c:	687b      	ldr	r3, [r7, #4]
 8002c0e:	62da      	str	r2, [r3, #44]	; 0x2c

  /* Set the Prescaler value */
  TIMx->PSC = Structure->Prescaler;
 8002c10:	683b      	ldr	r3, [r7, #0]
 8002c12:	681a      	ldr	r2, [r3, #0]
 8002c14:	687b      	ldr	r3, [r7, #4]
 8002c16:	629a      	str	r2, [r3, #40]	; 0x28

  if (IS_TIM_REPETITION_COUNTER_INSTANCE(TIMx))
 8002c18:	687b      	ldr	r3, [r7, #4]
 8002c1a:	4a0a      	ldr	r2, [pc, #40]	; (8002c44 <TIM_Base_SetConfig+0x114>)
 8002c1c:	4293      	cmp	r3, r2
 8002c1e:	d003      	beq.n	8002c28 <TIM_Base_SetConfig+0xf8>
 8002c20:	687b      	ldr	r3, [r7, #4]
 8002c22:	4a0c      	ldr	r2, [pc, #48]	; (8002c54 <TIM_Base_SetConfig+0x124>)
 8002c24:	4293      	cmp	r3, r2
 8002c26:	d103      	bne.n	8002c30 <TIM_Base_SetConfig+0x100>
  {
    /* Set the Repetition Counter value */
    TIMx->RCR = Structure->RepetitionCounter;
 8002c28:	683b      	ldr	r3, [r7, #0]
 8002c2a:	691a      	ldr	r2, [r3, #16]
 8002c2c:	687b      	ldr	r3, [r7, #4]
 8002c2e:	631a      	str	r2, [r3, #48]	; 0x30
  }

  /* Generate an update event to reload the Prescaler
     and the repetition counter (only for advanced timer) value immediately */
  TIMx->EGR = TIM_EGR_UG;
 8002c30:	687b      	ldr	r3, [r7, #4]
 8002c32:	2201      	movs	r2, #1
 8002c34:	615a      	str	r2, [r3, #20]
}
 8002c36:	bf00      	nop
 8002c38:	3714      	adds	r7, #20
 8002c3a:	46bd      	mov	sp, r7
 8002c3c:	f85d 7b04 	ldr.w	r7, [sp], #4
 8002c40:	4770      	bx	lr
 8002c42:	bf00      	nop
 8002c44:	40010000 	.word	0x40010000
 8002c48:	40000400 	.word	0x40000400
 8002c4c:	40000800 	.word	0x40000800
 8002c50:	40000c00 	.word	0x40000c00
 8002c54:	40010400 	.word	0x40010400
 8002c58:	40014000 	.word	0x40014000
 8002c5c:	40014400 	.word	0x40014400
 8002c60:	40014800 	.word	0x40014800
 8002c64:	40001800 	.word	0x40001800
 8002c68:	40001c00 	.word	0x40001c00
 8002c6c:	40002000 	.word	0x40002000

08002c70 <TIM_OC1_SetConfig>:
  * @param  TIMx to select the TIM peripheral
  * @param  OC_Config The ouput configuration structure
  * @retval None
  */
static void TIM_OC1_SetConfig(TIM_TypeDef *TIMx, TIM_OC_InitTypeDef *OC_Config)
{
 8002c70:	b480      	push	{r7}
 8002c72:	b087      	sub	sp, #28
 8002c74:	af00      	add	r7, sp, #0
 8002c76:	6078      	str	r0, [r7, #4]
 8002c78:	6039      	str	r1, [r7, #0]
  uint32_t tmpccmrx;
  uint32_t tmpccer;
  uint32_t tmpcr2;

  /* Disable the Channel 1: Reset the CC1E Bit */
  TIMx->CCER &= ~TIM_CCER_CC1E;
 8002c7a:	687b      	ldr	r3, [r7, #4]
 8002c7c:	6a1b      	ldr	r3, [r3, #32]
 8002c7e:	f023 0201 	bic.w	r2, r3, #1
 8002c82:	687b      	ldr	r3, [r7, #4]
 8002c84:	621a      	str	r2, [r3, #32]

  /* Get the TIMx CCER register value */
  tmpccer = TIMx->CCER;
 8002c86:	687b      	ldr	r3, [r7, #4]
 8002c88:	6a1b      	ldr	r3, [r3, #32]
 8002c8a:	617b      	str	r3, [r7, #20]
  /* Get the TIMx CR2 register value */
  tmpcr2 =  TIMx->CR2;
 8002c8c:	687b      	ldr	r3, [r7, #4]
 8002c8e:	685b      	ldr	r3, [r3, #4]
 8002c90:	613b      	str	r3, [r7, #16]

  /* Get the TIMx CCMR1 register value */
  tmpccmrx = TIMx->CCMR1;
 8002c92:	687b      	ldr	r3, [r7, #4]
 8002c94:	699b      	ldr	r3, [r3, #24]
 8002c96:	60fb      	str	r3, [r7, #12]

  /* Reset the Output Compare Mode Bits */
  tmpccmrx &= ~TIM_CCMR1_OC1M;
 8002c98:	68fb      	ldr	r3, [r7, #12]
 8002c9a:	f023 0370 	bic.w	r3, r3, #112	; 0x70
 8002c9e:	60fb      	str	r3, [r7, #12]
  tmpccmrx &= ~TIM_CCMR1_CC1S;
 8002ca0:	68fb      	ldr	r3, [r7, #12]
 8002ca2:	f023 0303 	bic.w	r3, r3, #3
 8002ca6:	60fb      	str	r3, [r7, #12]
  /* Select the Output Compare Mode */
  tmpccmrx |= OC_Config->OCMode;
 8002ca8:	683b      	ldr	r3, [r7, #0]
 8002caa:	681b      	ldr	r3, [r3, #0]
 8002cac:	68fa      	ldr	r2, [r7, #12]
 8002cae:	4313      	orrs	r3, r2
 8002cb0:	60fb      	str	r3, [r7, #12]

  /* Reset the Output Polarity level */
  tmpccer &= ~TIM_CCER_CC1P;
 8002cb2:	697b      	ldr	r3, [r7, #20]
 8002cb4:	f023 0302 	bic.w	r3, r3, #2
 8002cb8:	617b      	str	r3, [r7, #20]
  /* Set the Output Compare Polarity */
  tmpccer |= OC_Config->OCPolarity;
 8002cba:	683b      	ldr	r3, [r7, #0]
 8002cbc:	689b      	ldr	r3, [r3, #8]
 8002cbe:	697a      	ldr	r2, [r7, #20]
 8002cc0:	4313      	orrs	r3, r2
 8002cc2:	617b      	str	r3, [r7, #20]

  if (IS_TIM_CCXN_INSTANCE(TIMx, TIM_CHANNEL_1))
 8002cc4:	687b      	ldr	r3, [r7, #4]
 8002cc6:	4a20      	ldr	r2, [pc, #128]	; (8002d48 <TIM_OC1_SetConfig+0xd8>)
 8002cc8:	4293      	cmp	r3, r2
 8002cca:	d003      	beq.n	8002cd4 <TIM_OC1_SetConfig+0x64>
 8002ccc:	687b      	ldr	r3, [r7, #4]
 8002cce:	4a1f      	ldr	r2, [pc, #124]	; (8002d4c <TIM_OC1_SetConfig+0xdc>)
 8002cd0:	4293      	cmp	r3, r2
 8002cd2:	d10c      	bne.n	8002cee <TIM_OC1_SetConfig+0x7e>
  {
    /* Check parameters */
    assert_param(IS_TIM_OCN_POLARITY(OC_Config->OCNPolarity));

    /* Reset the Output N Polarity level */
    tmpccer &= ~TIM_CCER_CC1NP;
 8002cd4:	697b      	ldr	r3, [r7, #20]
 8002cd6:	f023 0308 	bic.w	r3, r3, #8
 8002cda:	617b      	str	r3, [r7, #20]
    /* Set the Output N Polarity */
    tmpccer |= OC_Config->OCNPolarity;
 8002cdc:	683b      	ldr	r3, [r7, #0]
 8002cde:	68db      	ldr	r3, [r3, #12]
 8002ce0:	697a      	ldr	r2, [r7, #20]
 8002ce2:	4313      	orrs	r3, r2
 8002ce4:	617b      	str	r3, [r7, #20]
    /* Reset the Output N State */
    tmpccer &= ~TIM_CCER_CC1NE;
 8002ce6:	697b      	ldr	r3, [r7, #20]
 8002ce8:	f023 0304 	bic.w	r3, r3, #4
 8002cec:	617b      	str	r3, [r7, #20]
  }

  if (IS_TIM_BREAK_INSTANCE(TIMx))
 8002cee:	687b      	ldr	r3, [r7, #4]
 8002cf0:	4a15      	ldr	r2, [pc, #84]	; (8002d48 <TIM_OC1_SetConfig+0xd8>)
 8002cf2:	4293      	cmp	r3, r2
 8002cf4:	d003      	beq.n	8002cfe <TIM_OC1_SetConfig+0x8e>
 8002cf6:	687b      	ldr	r3, [r7, #4]
 8002cf8:	4a14      	ldr	r2, [pc, #80]	; (8002d4c <TIM_OC1_SetConfig+0xdc>)
 8002cfa:	4293      	cmp	r3, r2
 8002cfc:	d111      	bne.n	8002d22 <TIM_OC1_SetConfig+0xb2>
    /* Check parameters */
    assert_param(IS_TIM_OCNIDLE_STATE(OC_Config->OCNIdleState));
    assert_param(IS_TIM_OCIDLE_STATE(OC_Config->OCIdleState));

    /* Reset the Output Compare and Output Compare N IDLE State */
    tmpcr2 &= ~TIM_CR2_OIS1;
 8002cfe:	693b      	ldr	r3, [r7, #16]
 8002d00:	f423 7380 	bic.w	r3, r3, #256	; 0x100
 8002d04:	613b      	str	r3, [r7, #16]
    tmpcr2 &= ~TIM_CR2_OIS1N;
 8002d06:	693b      	ldr	r3, [r7, #16]
 8002d08:	f423 7300 	bic.w	r3, r3, #512	; 0x200
 8002d0c:	613b      	str	r3, [r7, #16]
    /* Set the Output Idle state */
    tmpcr2 |= OC_Config->OCIdleState;
 8002d0e:	683b      	ldr	r3, [r7, #0]
 8002d10:	695b      	ldr	r3, [r3, #20]
 8002d12:	693a      	ldr	r2, [r7, #16]
 8002d14:	4313      	orrs	r3, r2
 8002d16:	613b      	str	r3, [r7, #16]
    /* Set the Output N Idle state */
    tmpcr2 |= OC_Config->OCNIdleState;
 8002d18:	683b      	ldr	r3, [r7, #0]
 8002d1a:	699b      	ldr	r3, [r3, #24]
 8002d1c:	693a      	ldr	r2, [r7, #16]
 8002d1e:	4313      	orrs	r3, r2
 8002d20:	613b      	str	r3, [r7, #16]
  }

  /* Write to TIMx CR2 */
  TIMx->CR2 = tmpcr2;
 8002d22:	687b      	ldr	r3, [r7, #4]
 8002d24:	693a      	ldr	r2, [r7, #16]
 8002d26:	605a      	str	r2, [r3, #4]

  /* Write to TIMx CCMR1 */
  TIMx->CCMR1 = tmpccmrx;
 8002d28:	687b      	ldr	r3, [r7, #4]
 8002d2a:	68fa      	ldr	r2, [r7, #12]
 8002d2c:	619a      	str	r2, [r3, #24]

  /* Set the Capture Compare Register value */
  TIMx->CCR1 = OC_Config->Pulse;
 8002d2e:	683b      	ldr	r3, [r7, #0]
 8002d30:	685a      	ldr	r2, [r3, #4]
 8002d32:	687b      	ldr	r3, [r7, #4]
 8002d34:	635a      	str	r2, [r3, #52]	; 0x34

  /* Write to TIMx CCER */
  TIMx->CCER = tmpccer;
 8002d36:	687b      	ldr	r3, [r7, #4]
 8002d38:	697a      	ldr	r2, [r7, #20]
 8002d3a:	621a      	str	r2, [r3, #32]
}
 8002d3c:	bf00      	nop
 8002d3e:	371c      	adds	r7, #28
 8002d40:	46bd      	mov	sp, r7
 8002d42:	f85d 7b04 	ldr.w	r7, [sp], #4
 8002d46:	4770      	bx	lr
 8002d48:	40010000 	.word	0x40010000
 8002d4c:	40010400 	.word	0x40010400

08002d50 <TIM_OC2_SetConfig>:
  * @param  TIMx to select the TIM peripheral
  * @param  OC_Config The ouput configuration structure
  * @retval None
  */
void TIM_OC2_SetConfig(TIM_TypeDef *TIMx, TIM_OC_InitTypeDef *OC_Config)
{
 8002d50:	b480      	push	{r7}
 8002d52:	b087      	sub	sp, #28
 8002d54:	af00      	add	r7, sp, #0
 8002d56:	6078      	str	r0, [r7, #4]
 8002d58:	6039      	str	r1, [r7, #0]
  uint32_t tmpccmrx;
  uint32_t tmpccer;
  uint32_t tmpcr2;

  /* Disable the Channel 2: Reset the CC2E Bit */
  TIMx->CCER &= ~TIM_CCER_CC2E;
 8002d5a:	687b      	ldr	r3, [r7, #4]
 8002d5c:	6a1b      	ldr	r3, [r3, #32]
 8002d5e:	f023 0210 	bic.w	r2, r3, #16
 8002d62:	687b      	ldr	r3, [r7, #4]
 8002d64:	621a      	str	r2, [r3, #32]

  /* Get the TIMx CCER register value */
  tmpccer = TIMx->CCER;
 8002d66:	687b      	ldr	r3, [r7, #4]
 8002d68:	6a1b      	ldr	r3, [r3, #32]
 8002d6a:	617b      	str	r3, [r7, #20]
  /* Get the TIMx CR2 register value */
  tmpcr2 =  TIMx->CR2;
 8002d6c:	687b      	ldr	r3, [r7, #4]
 8002d6e:	685b      	ldr	r3, [r3, #4]
 8002d70:	613b      	str	r3, [r7, #16]

  /* Get the TIMx CCMR1 register value */
  tmpccmrx = TIMx->CCMR1;
 8002d72:	687b      	ldr	r3, [r7, #4]
 8002d74:	699b      	ldr	r3, [r3, #24]
 8002d76:	60fb      	str	r3, [r7, #12]

  /* Reset the Output Compare mode and Capture/Compare selection Bits */
  tmpccmrx &= ~TIM_CCMR1_OC2M;
 8002d78:	68fb      	ldr	r3, [r7, #12]
 8002d7a:	f423 43e0 	bic.w	r3, r3, #28672	; 0x7000
 8002d7e:	60fb      	str	r3, [r7, #12]
  tmpccmrx &= ~TIM_CCMR1_CC2S;
 8002d80:	68fb      	ldr	r3, [r7, #12]
 8002d82:	f423 7340 	bic.w	r3, r3, #768	; 0x300
 8002d86:	60fb      	str	r3, [r7, #12]

  /* Select the Output Compare Mode */
  tmpccmrx |= (OC_Config->OCMode << 8U);
 8002d88:	683b      	ldr	r3, [r7, #0]
 8002d8a:	681b      	ldr	r3, [r3, #0]
 8002d8c:	021b      	lsls	r3, r3, #8
 8002d8e:	68fa      	ldr	r2, [r7, #12]
 8002d90:	4313      	orrs	r3, r2
 8002d92:	60fb      	str	r3, [r7, #12]

  /* Reset the Output Polarity level */
  tmpccer &= ~TIM_CCER_CC2P;
 8002d94:	697b      	ldr	r3, [r7, #20]
 8002d96:	f023 0320 	bic.w	r3, r3, #32
 8002d9a:	617b      	str	r3, [r7, #20]
  /* Set the Output Compare Polarity */
  tmpccer |= (OC_Config->OCPolarity << 4U);
 8002d9c:	683b      	ldr	r3, [r7, #0]
 8002d9e:	689b      	ldr	r3, [r3, #8]
 8002da0:	011b      	lsls	r3, r3, #4
 8002da2:	697a      	ldr	r2, [r7, #20]
 8002da4:	4313      	orrs	r3, r2
 8002da6:	617b      	str	r3, [r7, #20]

  if (IS_TIM_CCXN_INSTANCE(TIMx, TIM_CHANNEL_2))
 8002da8:	687b      	ldr	r3, [r7, #4]
 8002daa:	4a22      	ldr	r2, [pc, #136]	; (8002e34 <TIM_OC2_SetConfig+0xe4>)
 8002dac:	4293      	cmp	r3, r2
 8002dae:	d003      	beq.n	8002db8 <TIM_OC2_SetConfig+0x68>
 8002db0:	687b      	ldr	r3, [r7, #4]
 8002db2:	4a21      	ldr	r2, [pc, #132]	; (8002e38 <TIM_OC2_SetConfig+0xe8>)
 8002db4:	4293      	cmp	r3, r2
 8002db6:	d10d      	bne.n	8002dd4 <TIM_OC2_SetConfig+0x84>
  {
    assert_param(IS_TIM_OCN_POLARITY(OC_Config->OCNPolarity));

    /* Reset the Output N Polarity level */
    tmpccer &= ~TIM_CCER_CC2NP;
 8002db8:	697b      	ldr	r3, [r7, #20]
 8002dba:	f023 0380 	bic.w	r3, r3, #128	; 0x80
 8002dbe:	617b      	str	r3, [r7, #20]
    /* Set the Output N Polarity */
    tmpccer |= (OC_Config->OCNPolarity << 4U);
 8002dc0:	683b      	ldr	r3, [r7, #0]
 8002dc2:	68db      	ldr	r3, [r3, #12]
 8002dc4:	011b      	lsls	r3, r3, #4
 8002dc6:	697a      	ldr	r2, [r7, #20]
 8002dc8:	4313      	orrs	r3, r2
 8002dca:	617b      	str	r3, [r7, #20]
    /* Reset the Output N State */
    tmpccer &= ~TIM_CCER_CC2NE;
 8002dcc:	697b      	ldr	r3, [r7, #20]
 8002dce:	f023 0340 	bic.w	r3, r3, #64	; 0x40
 8002dd2:	617b      	str	r3, [r7, #20]

  }

  if (IS_TIM_BREAK_INSTANCE(TIMx))
 8002dd4:	687b      	ldr	r3, [r7, #4]
 8002dd6:	4a17      	ldr	r2, [pc, #92]	; (8002e34 <TIM_OC2_SetConfig+0xe4>)
 8002dd8:	4293      	cmp	r3, r2
 8002dda:	d003      	beq.n	8002de4 <TIM_OC2_SetConfig+0x94>
 8002ddc:	687b      	ldr	r3, [r7, #4]
 8002dde:	4a16      	ldr	r2, [pc, #88]	; (8002e38 <TIM_OC2_SetConfig+0xe8>)
 8002de0:	4293      	cmp	r3, r2
 8002de2:	d113      	bne.n	8002e0c <TIM_OC2_SetConfig+0xbc>
    /* Check parameters */
    assert_param(IS_TIM_OCNIDLE_STATE(OC_Config->OCNIdleState));
    assert_param(IS_TIM_OCIDLE_STATE(OC_Config->OCIdleState));

    /* Reset the Output Compare and Output Compare N IDLE State */
    tmpcr2 &= ~TIM_CR2_OIS2;
 8002de4:	693b      	ldr	r3, [r7, #16]
 8002de6:	f423 6380 	bic.w	r3, r3, #1024	; 0x400
 8002dea:	613b      	str	r3, [r7, #16]
    tmpcr2 &= ~TIM_CR2_OIS2N;
 8002dec:	693b      	ldr	r3, [r7, #16]
 8002dee:	f423 6300 	bic.w	r3, r3, #2048	; 0x800
 8002df2:	613b      	str	r3, [r7, #16]
    /* Set the Output Idle state */
    tmpcr2 |= (OC_Config->OCIdleState << 2U);
 8002df4:	683b      	ldr	r3, [r7, #0]
 8002df6:	695b      	ldr	r3, [r3, #20]
 8002df8:	009b      	lsls	r3, r3, #2
 8002dfa:	693a      	ldr	r2, [r7, #16]
 8002dfc:	4313      	orrs	r3, r2
 8002dfe:	613b      	str	r3, [r7, #16]
    /* Set the Output N Idle state */
    tmpcr2 |= (OC_Config->OCNIdleState << 2U);
 8002e00:	683b      	ldr	r3, [r7, #0]
 8002e02:	699b      	ldr	r3, [r3, #24]
 8002e04:	009b      	lsls	r3, r3, #2
 8002e06:	693a      	ldr	r2, [r7, #16]
 8002e08:	4313      	orrs	r3, r2
 8002e0a:	613b      	str	r3, [r7, #16]
  }

  /* Write to TIMx CR2 */
  TIMx->CR2 = tmpcr2;
 8002e0c:	687b      	ldr	r3, [r7, #4]
 8002e0e:	693a      	ldr	r2, [r7, #16]
 8002e10:	605a      	str	r2, [r3, #4]

  /* Write to TIMx CCMR1 */
  TIMx->CCMR1 = tmpccmrx;
 8002e12:	687b      	ldr	r3, [r7, #4]
 8002e14:	68fa      	ldr	r2, [r7, #12]
 8002e16:	619a      	str	r2, [r3, #24]

  /* Set the Capture Compare Register value */
  TIMx->CCR2 = OC_Config->Pulse;
 8002e18:	683b      	ldr	r3, [r7, #0]
 8002e1a:	685a      	ldr	r2, [r3, #4]
 8002e1c:	687b      	ldr	r3, [r7, #4]
 8002e1e:	639a      	str	r2, [r3, #56]	; 0x38

  /* Write to TIMx CCER */
  TIMx->CCER = tmpccer;
 8002e20:	687b      	ldr	r3, [r7, #4]
 8002e22:	697a      	ldr	r2, [r7, #20]
 8002e24:	621a      	str	r2, [r3, #32]
}
 8002e26:	bf00      	nop
 8002e28:	371c      	adds	r7, #28
 8002e2a:	46bd      	mov	sp, r7
 8002e2c:	f85d 7b04 	ldr.w	r7, [sp], #4
 8002e30:	4770      	bx	lr
 8002e32:	bf00      	nop
 8002e34:	40010000 	.word	0x40010000
 8002e38:	40010400 	.word	0x40010400

08002e3c <TIM_OC3_SetConfig>:
  * @param  TIMx to select the TIM peripheral
  * @param  OC_Config The ouput configuration structure
  * @retval None
  */
static void TIM_OC3_SetConfig(TIM_TypeDef *TIMx, TIM_OC_InitTypeDef *OC_Config)
{
 8002e3c:	b480      	push	{r7}
 8002e3e:	b087      	sub	sp, #28
 8002e40:	af00      	add	r7, sp, #0
 8002e42:	6078      	str	r0, [r7, #4]
 8002e44:	6039      	str	r1, [r7, #0]
  uint32_t tmpccmrx;
  uint32_t tmpccer;
  uint32_t tmpcr2;

  /* Disable the Channel 3: Reset the CC2E Bit */
  TIMx->CCER &= ~TIM_CCER_CC3E;
 8002e46:	687b      	ldr	r3, [r7, #4]
 8002e48:	6a1b      	ldr	r3, [r3, #32]
 8002e4a:	f423 7280 	bic.w	r2, r3, #256	; 0x100
 8002e4e:	687b      	ldr	r3, [r7, #4]
 8002e50:	621a      	str	r2, [r3, #32]

  /* Get the TIMx CCER register value */
  tmpccer = TIMx->CCER;
 8002e52:	687b      	ldr	r3, [r7, #4]
 8002e54:	6a1b      	ldr	r3, [r3, #32]
 8002e56:	617b      	str	r3, [r7, #20]
  /* Get the TIMx CR2 register value */
  tmpcr2 =  TIMx->CR2;
 8002e58:	687b      	ldr	r3, [r7, #4]
 8002e5a:	685b      	ldr	r3, [r3, #4]
 8002e5c:	613b      	str	r3, [r7, #16]

  /* Get the TIMx CCMR2 register value */
  tmpccmrx = TIMx->CCMR2;
 8002e5e:	687b      	ldr	r3, [r7, #4]
 8002e60:	69db      	ldr	r3, [r3, #28]
 8002e62:	60fb      	str	r3, [r7, #12]

  /* Reset the Output Compare mode and Capture/Compare selection Bits */
  tmpccmrx &= ~TIM_CCMR2_OC3M;
 8002e64:	68fb      	ldr	r3, [r7, #12]
 8002e66:	f023 0370 	bic.w	r3, r3, #112	; 0x70
 8002e6a:	60fb      	str	r3, [r7, #12]
  tmpccmrx &= ~TIM_CCMR2_CC3S;
 8002e6c:	68fb      	ldr	r3, [r7, #12]
 8002e6e:	f023 0303 	bic.w	r3, r3, #3
 8002e72:	60fb      	str	r3, [r7, #12]
  /* Select the Output Compare Mode */
  tmpccmrx |= OC_Config->OCMode;
 8002e74:	683b      	ldr	r3, [r7, #0]
 8002e76:	681b      	ldr	r3, [r3, #0]
 8002e78:	68fa      	ldr	r2, [r7, #12]
 8002e7a:	4313      	orrs	r3, r2
 8002e7c:	60fb      	str	r3, [r7, #12]

  /* Reset the Output Polarity level */
  tmpccer &= ~TIM_CCER_CC3P;
 8002e7e:	697b      	ldr	r3, [r7, #20]
 8002e80:	f423 7300 	bic.w	r3, r3, #512	; 0x200
 8002e84:	617b      	str	r3, [r7, #20]
  /* Set the Output Compare Polarity */
  tmpccer |= (OC_Config->OCPolarity << 8U);
 8002e86:	683b      	ldr	r3, [r7, #0]
 8002e88:	689b      	ldr	r3, [r3, #8]
 8002e8a:	021b      	lsls	r3, r3, #8
 8002e8c:	697a      	ldr	r2, [r7, #20]
 8002e8e:	4313      	orrs	r3, r2
 8002e90:	617b      	str	r3, [r7, #20]

  if (IS_TIM_CCXN_INSTANCE(TIMx, TIM_CHANNEL_3))
 8002e92:	687b      	ldr	r3, [r7, #4]
 8002e94:	4a21      	ldr	r2, [pc, #132]	; (8002f1c <TIM_OC3_SetConfig+0xe0>)
 8002e96:	4293      	cmp	r3, r2
 8002e98:	d003      	beq.n	8002ea2 <TIM_OC3_SetConfig+0x66>
 8002e9a:	687b      	ldr	r3, [r7, #4]
 8002e9c:	4a20      	ldr	r2, [pc, #128]	; (8002f20 <TIM_OC3_SetConfig+0xe4>)
 8002e9e:	4293      	cmp	r3, r2
 8002ea0:	d10d      	bne.n	8002ebe <TIM_OC3_SetConfig+0x82>
  {
    assert_param(IS_TIM_OCN_POLARITY(OC_Config->OCNPolarity));

    /* Reset the Output N Polarity level */
    tmpccer &= ~TIM_CCER_CC3NP;
 8002ea2:	697b      	ldr	r3, [r7, #20]
 8002ea4:	f423 6300 	bic.w	r3, r3, #2048	; 0x800
 8002ea8:	617b      	str	r3, [r7, #20]
    /* Set the Output N Polarity */
    tmpccer |= (OC_Config->OCNPolarity << 8U);
 8002eaa:	683b      	ldr	r3, [r7, #0]
 8002eac:	68db      	ldr	r3, [r3, #12]
 8002eae:	021b      	lsls	r3, r3, #8
 8002eb0:	697a      	ldr	r2, [r7, #20]
 8002eb2:	4313      	orrs	r3, r2
 8002eb4:	617b      	str	r3, [r7, #20]
    /* Reset the Output N State */
    tmpccer &= ~TIM_CCER_CC3NE;
 8002eb6:	697b      	ldr	r3, [r7, #20]
 8002eb8:	f423 6380 	bic.w	r3, r3, #1024	; 0x400
 8002ebc:	617b      	str	r3, [r7, #20]
  }

  if (IS_TIM_BREAK_INSTANCE(TIMx))
 8002ebe:	687b      	ldr	r3, [r7, #4]
 8002ec0:	4a16      	ldr	r2, [pc, #88]	; (8002f1c <TIM_OC3_SetConfig+0xe0>)
 8002ec2:	4293      	cmp	r3, r2
 8002ec4:	d003      	beq.n	8002ece <TIM_OC3_SetConfig+0x92>
 8002ec6:	687b      	ldr	r3, [r7, #4]
 8002ec8:	4a15      	ldr	r2, [pc, #84]	; (8002f20 <TIM_OC3_SetConfig+0xe4>)
 8002eca:	4293      	cmp	r3, r2
 8002ecc:	d113      	bne.n	8002ef6 <TIM_OC3_SetConfig+0xba>
    /* Check parameters */
    assert_param(IS_TIM_OCNIDLE_STATE(OC_Config->OCNIdleState));
    assert_param(IS_TIM_OCIDLE_STATE(OC_Config->OCIdleState));

    /* Reset the Output Compare and Output Compare N IDLE State */
    tmpcr2 &= ~TIM_CR2_OIS3;
 8002ece:	693b      	ldr	r3, [r7, #16]
 8002ed0:	f423 5380 	bic.w	r3, r3, #4096	; 0x1000
 8002ed4:	613b      	str	r3, [r7, #16]
    tmpcr2 &= ~TIM_CR2_OIS3N;
 8002ed6:	693b      	ldr	r3, [r7, #16]
 8002ed8:	f423 5300 	bic.w	r3, r3, #8192	; 0x2000
 8002edc:	613b      	str	r3, [r7, #16]
    /* Set the Output Idle state */
    tmpcr2 |= (OC_Config->OCIdleState << 4U);
 8002ede:	683b      	ldr	r3, [r7, #0]
 8002ee0:	695b      	ldr	r3, [r3, #20]
 8002ee2:	011b      	lsls	r3, r3, #4
 8002ee4:	693a      	ldr	r2, [r7, #16]
 8002ee6:	4313      	orrs	r3, r2
 8002ee8:	613b      	str	r3, [r7, #16]
    /* Set the Output N Idle state */
    tmpcr2 |= (OC_Config->OCNIdleState << 4U);
 8002eea:	683b      	ldr	r3, [r7, #0]
 8002eec:	699b      	ldr	r3, [r3, #24]
 8002eee:	011b      	lsls	r3, r3, #4
 8002ef0:	693a      	ldr	r2, [r7, #16]
 8002ef2:	4313      	orrs	r3, r2
 8002ef4:	613b      	str	r3, [r7, #16]
  }

  /* Write to TIMx CR2 */
  TIMx->CR2 = tmpcr2;
 8002ef6:	687b      	ldr	r3, [r7, #4]
 8002ef8:	693a      	ldr	r2, [r7, #16]
 8002efa:	605a      	str	r2, [r3, #4]

  /* Write to TIMx CCMR2 */
  TIMx->CCMR2 = tmpccmrx;
 8002efc:	687b      	ldr	r3, [r7, #4]
 8002efe:	68fa      	ldr	r2, [r7, #12]
 8002f00:	61da      	str	r2, [r3, #28]

  /* Set the Capture Compare Register value */
  TIMx->CCR3 = OC_Config->Pulse;
 8002f02:	683b      	ldr	r3, [r7, #0]
 8002f04:	685a      	ldr	r2, [r3, #4]
 8002f06:	687b      	ldr	r3, [r7, #4]
 8002f08:	63da      	str	r2, [r3, #60]	; 0x3c

  /* Write to TIMx CCER */
  TIMx->CCER = tmpccer;
 8002f0a:	687b      	ldr	r3, [r7, #4]
 8002f0c:	697a      	ldr	r2, [r7, #20]
 8002f0e:	621a      	str	r2, [r3, #32]
}
 8002f10:	bf00      	nop
 8002f12:	371c      	adds	r7, #28
 8002f14:	46bd      	mov	sp, r7
 8002f16:	f85d 7b04 	ldr.w	r7, [sp], #4
 8002f1a:	4770      	bx	lr
 8002f1c:	40010000 	.word	0x40010000
 8002f20:	40010400 	.word	0x40010400

08002f24 <TIM_OC4_SetConfig>:
  * @param  TIMx to select the TIM peripheral
  * @param  OC_Config The ouput configuration structure
  * @retval None
  */
static void TIM_OC4_SetConfig(TIM_TypeDef *TIMx, TIM_OC_InitTypeDef *OC_Config)
{
 8002f24:	b480      	push	{r7}
 8002f26:	b087      	sub	sp, #28
 8002f28:	af00      	add	r7, sp, #0
 8002f2a:	6078      	str	r0, [r7, #4]
 8002f2c:	6039      	str	r1, [r7, #0]
  uint32_t tmpccmrx;
  uint32_t tmpccer;
  uint32_t tmpcr2;

  /* Disable the Channel 4: Reset the CC4E Bit */
  TIMx->CCER &= ~TIM_CCER_CC4E;
 8002f2e:	687b      	ldr	r3, [r7, #4]
 8002f30:	6a1b      	ldr	r3, [r3, #32]
 8002f32:	f423 5280 	bic.w	r2, r3, #4096	; 0x1000
 8002f36:	687b      	ldr	r3, [r7, #4]
 8002f38:	621a      	str	r2, [r3, #32]

  /* Get the TIMx CCER register value */
  tmpccer = TIMx->CCER;
 8002f3a:	687b      	ldr	r3, [r7, #4]
 8002f3c:	6a1b      	ldr	r3, [r3, #32]
 8002f3e:	613b      	str	r3, [r7, #16]
  /* Get the TIMx CR2 register value */
  tmpcr2 =  TIMx->CR2;
 8002f40:	687b      	ldr	r3, [r7, #4]
 8002f42:	685b      	ldr	r3, [r3, #4]
 8002f44:	617b      	str	r3, [r7, #20]

  /* Get the TIMx CCMR2 register value */
  tmpccmrx = TIMx->CCMR2;
 8002f46:	687b      	ldr	r3, [r7, #4]
 8002f48:	69db      	ldr	r3, [r3, #28]
 8002f4a:	60fb      	str	r3, [r7, #12]

  /* Reset the Output Compare mode and Capture/Compare selection Bits */
  tmpccmrx &= ~TIM_CCMR2_OC4M;
 8002f4c:	68fb      	ldr	r3, [r7, #12]
 8002f4e:	f423 43e0 	bic.w	r3, r3, #28672	; 0x7000
 8002f52:	60fb      	str	r3, [r7, #12]
  tmpccmrx &= ~TIM_CCMR2_CC4S;
 8002f54:	68fb      	ldr	r3, [r7, #12]
 8002f56:	f423 7340 	bic.w	r3, r3, #768	; 0x300
 8002f5a:	60fb      	str	r3, [r7, #12]

  /* Select the Output Compare Mode */
  tmpccmrx |= (OC_Config->OCMode << 8U);
 8002f5c:	683b      	ldr	r3, [r7, #0]
 8002f5e:	681b      	ldr	r3, [r3, #0]
 8002f60:	021b      	lsls	r3, r3, #8
 8002f62:	68fa      	ldr	r2, [r7, #12]
 8002f64:	4313      	orrs	r3, r2
 8002f66:	60fb      	str	r3, [r7, #12]

  /* Reset the Output Polarity level */
  tmpccer &= ~TIM_CCER_CC4P;
 8002f68:	693b      	ldr	r3, [r7, #16]
 8002f6a:	f423 5300 	bic.w	r3, r3, #8192	; 0x2000
 8002f6e:	613b      	str	r3, [r7, #16]
  /* Set the Output Compare Polarity */
  tmpccer |= (OC_Config->OCPolarity << 12U);
 8002f70:	683b      	ldr	r3, [r7, #0]
 8002f72:	689b      	ldr	r3, [r3, #8]
 8002f74:	031b      	lsls	r3, r3, #12
 8002f76:	693a      	ldr	r2, [r7, #16]
 8002f78:	4313      	orrs	r3, r2
 8002f7a:	613b      	str	r3, [r7, #16]

  if (IS_TIM_BREAK_INSTANCE(TIMx))
 8002f7c:	687b      	ldr	r3, [r7, #4]
 8002f7e:	4a12      	ldr	r2, [pc, #72]	; (8002fc8 <TIM_OC4_SetConfig+0xa4>)
 8002f80:	4293      	cmp	r3, r2
 8002f82:	d003      	beq.n	8002f8c <TIM_OC4_SetConfig+0x68>
 8002f84:	687b      	ldr	r3, [r7, #4]
 8002f86:	4a11      	ldr	r2, [pc, #68]	; (8002fcc <TIM_OC4_SetConfig+0xa8>)
 8002f88:	4293      	cmp	r3, r2
 8002f8a:	d109      	bne.n	8002fa0 <TIM_OC4_SetConfig+0x7c>
  {
    /* Check parameters */
    assert_param(IS_TIM_OCIDLE_STATE(OC_Config->OCIdleState));

    /* Reset the Output Compare IDLE State */
    tmpcr2 &= ~TIM_CR2_OIS4;
 8002f8c:	697b      	ldr	r3, [r7, #20]
 8002f8e:	f423 4380 	bic.w	r3, r3, #16384	; 0x4000
 8002f92:	617b      	str	r3, [r7, #20]

    /* Set the Output Idle state */
    tmpcr2 |= (OC_Config->OCIdleState << 6U);
 8002f94:	683b      	ldr	r3, [r7, #0]
 8002f96:	695b      	ldr	r3, [r3, #20]
 8002f98:	019b      	lsls	r3, r3, #6
 8002f9a:	697a      	ldr	r2, [r7, #20]
 8002f9c:	4313      	orrs	r3, r2
 8002f9e:	617b      	str	r3, [r7, #20]
  }

  /* Write to TIMx CR2 */
  TIMx->CR2 = tmpcr2;
 8002fa0:	687b      	ldr	r3, [r7, #4]
 8002fa2:	697a      	ldr	r2, [r7, #20]
 8002fa4:	605a      	str	r2, [r3, #4]

  /* Write to TIMx CCMR2 */
  TIMx->CCMR2 = tmpccmrx;
 8002fa6:	687b      	ldr	r3, [r7, #4]
 8002fa8:	68fa      	ldr	r2, [r7, #12]
 8002faa:	61da      	str	r2, [r3, #28]

  /* Set the Capture Compare Register value */
  TIMx->CCR4 = OC_Config->Pulse;
 8002fac:	683b      	ldr	r3, [r7, #0]
 8002fae:	685a      	ldr	r2, [r3, #4]
 8002fb0:	687b      	ldr	r3, [r7, #4]
 8002fb2:	641a      	str	r2, [r3, #64]	; 0x40

  /* Write to TIMx CCER */
  TIMx->CCER = tmpccer;
 8002fb4:	687b      	ldr	r3, [r7, #4]
 8002fb6:	693a      	ldr	r2, [r7, #16]
 8002fb8:	621a      	str	r2, [r3, #32]
}
 8002fba:	bf00      	nop
 8002fbc:	371c      	adds	r7, #28
 8002fbe:	46bd      	mov	sp, r7
 8002fc0:	f85d 7b04 	ldr.w	r7, [sp], #4
 8002fc4:	4770      	bx	lr
 8002fc6:	bf00      	nop
 8002fc8:	40010000 	.word	0x40010000
 8002fcc:	40010400 	.word	0x40010400

08002fd0 <TIM_TI1_ConfigInputStage>:
  * @param  TIM_ICFilter Specifies the Input Capture Filter.
  *          This parameter must be a value between 0x00 and 0x0F.
  * @retval None
  */
static void TIM_TI1_ConfigInputStage(TIM_TypeDef *TIMx, uint32_t TIM_ICPolarity, uint32_t TIM_ICFilter)
{
 8002fd0:	b480      	push	{r7}
 8002fd2:	b087      	sub	sp, #28
 8002fd4:	af00      	add	r7, sp, #0
 8002fd6:	60f8      	str	r0, [r7, #12]
 8002fd8:	60b9      	str	r1, [r7, #8]
 8002fda:	607a      	str	r2, [r7, #4]
  uint32_t tmpccmr1;
  uint32_t tmpccer;

  /* Disable the Channel 1: Reset the CC1E Bit */
  tmpccer = TIMx->CCER;
 8002fdc:	68fb      	ldr	r3, [r7, #12]
 8002fde:	6a1b      	ldr	r3, [r3, #32]
 8002fe0:	617b      	str	r3, [r7, #20]
  TIMx->CCER &= ~TIM_CCER_CC1E;
 8002fe2:	68fb      	ldr	r3, [r7, #12]
 8002fe4:	6a1b      	ldr	r3, [r3, #32]
 8002fe6:	f023 0201 	bic.w	r2, r3, #1
 8002fea:	68fb      	ldr	r3, [r7, #12]
 8002fec:	621a      	str	r2, [r3, #32]
  tmpccmr1 = TIMx->CCMR1;
 8002fee:	68fb      	ldr	r3, [r7, #12]
 8002ff0:	699b      	ldr	r3, [r3, #24]
 8002ff2:	613b      	str	r3, [r7, #16]

  /* Set the filter */
  tmpccmr1 &= ~TIM_CCMR1_IC1F;
 8002ff4:	693b      	ldr	r3, [r7, #16]
 8002ff6:	f023 03f0 	bic.w	r3, r3, #240	; 0xf0
 8002ffa:	613b      	str	r3, [r7, #16]
  tmpccmr1 |= (TIM_ICFilter << 4U);
 8002ffc:	687b      	ldr	r3, [r7, #4]
 8002ffe:	011b      	lsls	r3, r3, #4
 8003000:	693a      	ldr	r2, [r7, #16]
 8003002:	4313      	orrs	r3, r2
 8003004:	613b      	str	r3, [r7, #16]

  /* Select the Polarity and set the CC1E Bit */
  tmpccer &= ~(TIM_CCER_CC1P | TIM_CCER_CC1NP);
 8003006:	697b      	ldr	r3, [r7, #20]
 8003008:	f023 030a 	bic.w	r3, r3, #10
 800300c:	617b      	str	r3, [r7, #20]
  tmpccer |= TIM_ICPolarity;
 800300e:	697a      	ldr	r2, [r7, #20]
 8003010:	68bb      	ldr	r3, [r7, #8]
 8003012:	4313      	orrs	r3, r2
 8003014:	617b      	str	r3, [r7, #20]

  /* Write to TIMx CCMR1 and CCER registers */
  TIMx->CCMR1 = tmpccmr1;
 8003016:	68fb      	ldr	r3, [r7, #12]
 8003018:	693a      	ldr	r2, [r7, #16]
 800301a:	619a      	str	r2, [r3, #24]
  TIMx->CCER = tmpccer;
 800301c:	68fb      	ldr	r3, [r7, #12]
 800301e:	697a      	ldr	r2, [r7, #20]
 8003020:	621a      	str	r2, [r3, #32]
}
 8003022:	bf00      	nop
 8003024:	371c      	adds	r7, #28
 8003026:	46bd      	mov	sp, r7
 8003028:	f85d 7b04 	ldr.w	r7, [sp], #4
 800302c:	4770      	bx	lr

0800302e <TIM_TI2_ConfigInputStage>:
  * @param  TIM_ICFilter Specifies the Input Capture Filter.
  *          This parameter must be a value between 0x00 and 0x0F.
  * @retval None
  */
static void TIM_TI2_ConfigInputStage(TIM_TypeDef *TIMx, uint32_t TIM_ICPolarity, uint32_t TIM_ICFilter)
{
 800302e:	b480      	push	{r7}
 8003030:	b087      	sub	sp, #28
 8003032:	af00      	add	r7, sp, #0
 8003034:	60f8      	str	r0, [r7, #12]
 8003036:	60b9      	str	r1, [r7, #8]
 8003038:	607a      	str	r2, [r7, #4]
  uint32_t tmpccmr1;
  uint32_t tmpccer;

  /* Disable the Channel 2: Reset the CC2E Bit */
  TIMx->CCER &= ~TIM_CCER_CC2E;
 800303a:	68fb      	ldr	r3, [r7, #12]
 800303c:	6a1b      	ldr	r3, [r3, #32]
 800303e:	f023 0210 	bic.w	r2, r3, #16
 8003042:	68fb      	ldr	r3, [r7, #12]
 8003044:	621a      	str	r2, [r3, #32]
  tmpccmr1 = TIMx->CCMR1;
 8003046:	68fb      	ldr	r3, [r7, #12]
 8003048:	699b      	ldr	r3, [r3, #24]
 800304a:	617b      	str	r3, [r7, #20]
  tmpccer = TIMx->CCER;
 800304c:	68fb      	ldr	r3, [r7, #12]
 800304e:	6a1b      	ldr	r3, [r3, #32]
 8003050:	613b      	str	r3, [r7, #16]

  /* Set the filter */
  tmpccmr1 &= ~TIM_CCMR1_IC2F;
 8003052:	697b      	ldr	r3, [r7, #20]
 8003054:	f423 4370 	bic.w	r3, r3, #61440	; 0xf000
 8003058:	617b      	str	r3, [r7, #20]
  tmpccmr1 |= (TIM_ICFilter << 12U);
 800305a:	687b      	ldr	r3, [r7, #4]
 800305c:	031b      	lsls	r3, r3, #12
 800305e:	697a      	ldr	r2, [r7, #20]
 8003060:	4313      	orrs	r3, r2
 8003062:	617b      	str	r3, [r7, #20]

  /* Select the Polarity and set the CC2E Bit */
  tmpccer &= ~(TIM_CCER_CC2P | TIM_CCER_CC2NP);
 8003064:	693b      	ldr	r3, [r7, #16]
 8003066:	f023 03a0 	bic.w	r3, r3, #160	; 0xa0
 800306a:	613b      	str	r3, [r7, #16]
  tmpccer |= (TIM_ICPolarity << 4U);
 800306c:	68bb      	ldr	r3, [r7, #8]
 800306e:	011b      	lsls	r3, r3, #4
 8003070:	693a      	ldr	r2, [r7, #16]
 8003072:	4313      	orrs	r3, r2
 8003074:	613b      	str	r3, [r7, #16]

  /* Write to TIMx CCMR1 and CCER registers */
  TIMx->CCMR1 = tmpccmr1 ;
 8003076:	68fb      	ldr	r3, [r7, #12]
 8003078:	697a      	ldr	r2, [r7, #20]
 800307a:	619a      	str	r2, [r3, #24]
  TIMx->CCER = tmpccer;
 800307c:	68fb      	ldr	r3, [r7, #12]
 800307e:	693a      	ldr	r2, [r7, #16]
 8003080:	621a      	str	r2, [r3, #32]
}
 8003082:	bf00      	nop
 8003084:	371c      	adds	r7, #28
 8003086:	46bd      	mov	sp, r7
 8003088:	f85d 7b04 	ldr.w	r7, [sp], #4
 800308c:	4770      	bx	lr

0800308e <TIM_ITRx_SetConfig>:
  *            @arg TIM_TS_TI2FP2: Filtered Timer Input 2
  *            @arg TIM_TS_ETRF: External Trigger input
  * @retval None
  */
static void TIM_ITRx_SetConfig(TIM_TypeDef *TIMx, uint32_t InputTriggerSource)
{
 800308e:	b480      	push	{r7}
 8003090:	b085      	sub	sp, #20
 8003092:	af00      	add	r7, sp, #0
 8003094:	6078      	str	r0, [r7, #4]
 8003096:	6039      	str	r1, [r7, #0]
  uint32_t tmpsmcr;

  /* Get the TIMx SMCR register value */
  tmpsmcr = TIMx->SMCR;
 8003098:	687b      	ldr	r3, [r7, #4]
 800309a:	689b      	ldr	r3, [r3, #8]
 800309c:	60fb      	str	r3, [r7, #12]
  /* Reset the TS Bits */
  tmpsmcr &= ~TIM_SMCR_TS;
 800309e:	68fb      	ldr	r3, [r7, #12]
 80030a0:	f023 0370 	bic.w	r3, r3, #112	; 0x70
 80030a4:	60fb      	str	r3, [r7, #12]
  /* Set the Input Trigger source and the slave mode*/
  tmpsmcr |= (InputTriggerSource | TIM_SLAVEMODE_EXTERNAL1);
 80030a6:	683a      	ldr	r2, [r7, #0]
 80030a8:	68fb      	ldr	r3, [r7, #12]
 80030aa:	4313      	orrs	r3, r2
 80030ac:	f043 0307 	orr.w	r3, r3, #7
 80030b0:	60fb      	str	r3, [r7, #12]
  /* Write to TIMx SMCR */
  TIMx->SMCR = tmpsmcr;
 80030b2:	687b      	ldr	r3, [r7, #4]
 80030b4:	68fa      	ldr	r2, [r7, #12]
 80030b6:	609a      	str	r2, [r3, #8]
}
 80030b8:	bf00      	nop
 80030ba:	3714      	adds	r7, #20
 80030bc:	46bd      	mov	sp, r7
 80030be:	f85d 7b04 	ldr.w	r7, [sp], #4
 80030c2:	4770      	bx	lr

080030c4 <TIM_ETR_SetConfig>:
  *          This parameter must be a value between 0x00 and 0x0F
  * @retval None
  */
void TIM_ETR_SetConfig(TIM_TypeDef *TIMx, uint32_t TIM_ExtTRGPrescaler,
                       uint32_t TIM_ExtTRGPolarity, uint32_t ExtTRGFilter)
{
 80030c4:	b480      	push	{r7}
 80030c6:	b087      	sub	sp, #28
 80030c8:	af00      	add	r7, sp, #0
 80030ca:	60f8      	str	r0, [r7, #12]
 80030cc:	60b9      	str	r1, [r7, #8]
 80030ce:	607a      	str	r2, [r7, #4]
 80030d0:	603b      	str	r3, [r7, #0]
  uint32_t tmpsmcr;

  tmpsmcr = TIMx->SMCR;
 80030d2:	68fb      	ldr	r3, [r7, #12]
 80030d4:	689b      	ldr	r3, [r3, #8]
 80030d6:	617b      	str	r3, [r7, #20]

  /* Reset the ETR Bits */
  tmpsmcr &= ~(TIM_SMCR_ETF | TIM_SMCR_ETPS | TIM_SMCR_ECE | TIM_SMCR_ETP);
 80030d8:	697b      	ldr	r3, [r7, #20]
 80030da:	f423 437f 	bic.w	r3, r3, #65280	; 0xff00
 80030de:	617b      	str	r3, [r7, #20]

  /* Set the Prescaler, the Filter value and the Polarity */
  tmpsmcr |= (uint32_t)(TIM_ExtTRGPrescaler | (TIM_ExtTRGPolarity | (ExtTRGFilter << 8U)));
 80030e0:	683b      	ldr	r3, [r7, #0]
 80030e2:	021a      	lsls	r2, r3, #8
 80030e4:	687b      	ldr	r3, [r7, #4]
 80030e6:	431a      	orrs	r2, r3
 80030e8:	68bb      	ldr	r3, [r7, #8]
 80030ea:	4313      	orrs	r3, r2
 80030ec:	697a      	ldr	r2, [r7, #20]
 80030ee:	4313      	orrs	r3, r2
 80030f0:	617b      	str	r3, [r7, #20]

  /* Write to TIMx SMCR */
  TIMx->SMCR = tmpsmcr;
 80030f2:	68fb      	ldr	r3, [r7, #12]
 80030f4:	697a      	ldr	r2, [r7, #20]
 80030f6:	609a      	str	r2, [r3, #8]
}
 80030f8:	bf00      	nop
 80030fa:	371c      	adds	r7, #28
 80030fc:	46bd      	mov	sp, r7
 80030fe:	f85d 7b04 	ldr.w	r7, [sp], #4
 8003102:	4770      	bx	lr

08003104 <TIM_CCxChannelCmd>:
  * @param  ChannelState specifies the TIM Channel CCxE bit new state.
  *          This parameter can be: TIM_CCx_ENABLE or TIM_CCx_DISABLE.
  * @retval None
  */
void TIM_CCxChannelCmd(TIM_TypeDef *TIMx, uint32_t Channel, uint32_t ChannelState)
{
 8003104:	b480      	push	{r7}
 8003106:	b087      	sub	sp, #28
 8003108:	af00      	add	r7, sp, #0
 800310a:	60f8      	str	r0, [r7, #12]
 800310c:	60b9      	str	r1, [r7, #8]
 800310e:	607a      	str	r2, [r7, #4]

  /* Check the parameters */
  assert_param(IS_TIM_CC1_INSTANCE(TIMx));
  assert_param(IS_TIM_CHANNELS(Channel));

  tmp = TIM_CCER_CC1E << (Channel & 0x1FU); /* 0x1FU = 31 bits max shift */
 8003110:	68bb      	ldr	r3, [r7, #8]
 8003112:	f003 031f 	and.w	r3, r3, #31
 8003116:	2201      	movs	r2, #1
 8003118:	fa02 f303 	lsl.w	r3, r2, r3
 800311c:	617b      	str	r3, [r7, #20]

  /* Reset the CCxE Bit */
  TIMx->CCER &= ~tmp;
 800311e:	68fb      	ldr	r3, [r7, #12]
 8003120:	6a1a      	ldr	r2, [r3, #32]
 8003122:	697b      	ldr	r3, [r7, #20]
 8003124:	43db      	mvns	r3, r3
 8003126:	401a      	ands	r2, r3
 8003128:	68fb      	ldr	r3, [r7, #12]
 800312a:	621a      	str	r2, [r3, #32]

  /* Set or reset the CCxE Bit */
  TIMx->CCER |= (uint32_t)(ChannelState << (Channel & 0x1FU)); /* 0x1FU = 31 bits max shift */
 800312c:	68fb      	ldr	r3, [r7, #12]
 800312e:	6a1a      	ldr	r2, [r3, #32]
 8003130:	68bb      	ldr	r3, [r7, #8]
 8003132:	f003 031f 	and.w	r3, r3, #31
 8003136:	6879      	ldr	r1, [r7, #4]
 8003138:	fa01 f303 	lsl.w	r3, r1, r3
 800313c:	431a      	orrs	r2, r3
 800313e:	68fb      	ldr	r3, [r7, #12]
 8003140:	621a      	str	r2, [r3, #32]
}
 8003142:	bf00      	nop
 8003144:	371c      	adds	r7, #28
 8003146:	46bd      	mov	sp, r7
 8003148:	f85d 7b04 	ldr.w	r7, [sp], #4
 800314c:	4770      	bx	lr
	...

08003150 <HAL_TIMEx_MasterConfigSynchronization>:
  *         mode.
  * @retval HAL status
  */
HAL_StatusTypeDef HAL_TIMEx_MasterConfigSynchronization(TIM_HandleTypeDef *htim,
                                                        TIM_MasterConfigTypeDef *sMasterConfig)
{
 8003150:	b480      	push	{r7}
 8003152:	b085      	sub	sp, #20
 8003154:	af00      	add	r7, sp, #0
 8003156:	6078      	str	r0, [r7, #4]
 8003158:	6039      	str	r1, [r7, #0]
  assert_param(IS_TIM_MASTER_INSTANCE(htim->Instance));
  assert_param(IS_TIM_TRGO_SOURCE(sMasterConfig->MasterOutputTrigger));
  assert_param(IS_TIM_MSM_STATE(sMasterConfig->MasterSlaveMode));

  /* Check input state */
  __HAL_LOCK(htim);
 800315a:	687b      	ldr	r3, [r7, #4]
 800315c:	f893 303c 	ldrb.w	r3, [r3, #60]	; 0x3c
 8003160:	2b01      	cmp	r3, #1
 8003162:	d101      	bne.n	8003168 <HAL_TIMEx_MasterConfigSynchronization+0x18>
 8003164:	2302      	movs	r3, #2
 8003166:	e05a      	b.n	800321e <HAL_TIMEx_MasterConfigSynchronization+0xce>
 8003168:	687b      	ldr	r3, [r7, #4]
 800316a:	2201      	movs	r2, #1
 800316c:	f883 203c 	strb.w	r2, [r3, #60]	; 0x3c

  /* Change the handler state */
  htim->State = HAL_TIM_STATE_BUSY;
 8003170:	687b      	ldr	r3, [r7, #4]
 8003172:	2202      	movs	r2, #2
 8003174:	f883 203d 	strb.w	r2, [r3, #61]	; 0x3d

  /* Get the TIMx CR2 register value */
  tmpcr2 = htim->Instance->CR2;
 8003178:	687b      	ldr	r3, [r7, #4]
 800317a:	681b      	ldr	r3, [r3, #0]
 800317c:	685b      	ldr	r3, [r3, #4]
 800317e:	60fb      	str	r3, [r7, #12]

  /* Get the TIMx SMCR register value */
  tmpsmcr = htim->Instance->SMCR;
 8003180:	687b      	ldr	r3, [r7, #4]
 8003182:	681b      	ldr	r3, [r3, #0]
 8003184:	689b      	ldr	r3, [r3, #8]
 8003186:	60bb      	str	r3, [r7, #8]

  /* Reset the MMS Bits */
  tmpcr2 &= ~TIM_CR2_MMS;
 8003188:	68fb      	ldr	r3, [r7, #12]
 800318a:	f023 0370 	bic.w	r3, r3, #112	; 0x70
 800318e:	60fb      	str	r3, [r7, #12]
  /* Select the TRGO source */
  tmpcr2 |=  sMasterConfig->MasterOutputTrigger;
 8003190:	683b      	ldr	r3, [r7, #0]
 8003192:	681b      	ldr	r3, [r3, #0]
 8003194:	68fa      	ldr	r2, [r7, #12]
 8003196:	4313      	orrs	r3, r2
 8003198:	60fb      	str	r3, [r7, #12]

  /* Update TIMx CR2 */
  htim->Instance->CR2 = tmpcr2;
 800319a:	687b      	ldr	r3, [r7, #4]
 800319c:	681b      	ldr	r3, [r3, #0]
 800319e:	68fa      	ldr	r2, [r7, #12]
 80031a0:	605a      	str	r2, [r3, #4]

  if (IS_TIM_SLAVE_INSTANCE(htim->Instance))
 80031a2:	687b      	ldr	r3, [r7, #4]
 80031a4:	681b      	ldr	r3, [r3, #0]
 80031a6:	4a21      	ldr	r2, [pc, #132]	; (800322c <HAL_TIMEx_MasterConfigSynchronization+0xdc>)
 80031a8:	4293      	cmp	r3, r2
 80031aa:	d022      	beq.n	80031f2 <HAL_TIMEx_MasterConfigSynchronization+0xa2>
 80031ac:	687b      	ldr	r3, [r7, #4]
 80031ae:	681b      	ldr	r3, [r3, #0]
 80031b0:	f1b3 4f80 	cmp.w	r3, #1073741824	; 0x40000000
 80031b4:	d01d      	beq.n	80031f2 <HAL_TIMEx_MasterConfigSynchronization+0xa2>
 80031b6:	687b      	ldr	r3, [r7, #4]
 80031b8:	681b      	ldr	r3, [r3, #0]
 80031ba:	4a1d      	ldr	r2, [pc, #116]	; (8003230 <HAL_TIMEx_MasterConfigSynchronization+0xe0>)
 80031bc:	4293      	cmp	r3, r2
 80031be:	d018      	beq.n	80031f2 <HAL_TIMEx_MasterConfigSynchronization+0xa2>
 80031c0:	687b      	ldr	r3, [r7, #4]
 80031c2:	681b      	ldr	r3, [r3, #0]
 80031c4:	4a1b      	ldr	r2, [pc, #108]	; (8003234 <HAL_TIMEx_MasterConfigSynchronization+0xe4>)
 80031c6:	4293      	cmp	r3, r2
 80031c8:	d013      	beq.n	80031f2 <HAL_TIMEx_MasterConfigSynchronization+0xa2>
 80031ca:	687b      	ldr	r3, [r7, #4]
 80031cc:	681b      	ldr	r3, [r3, #0]
 80031ce:	4a1a      	ldr	r2, [pc, #104]	; (8003238 <HAL_TIMEx_MasterConfigSynchronization+0xe8>)
 80031d0:	4293      	cmp	r3, r2
 80031d2:	d00e      	beq.n	80031f2 <HAL_TIMEx_MasterConfigSynchronization+0xa2>
 80031d4:	687b      	ldr	r3, [r7, #4]
 80031d6:	681b      	ldr	r3, [r3, #0]
 80031d8:	4a18      	ldr	r2, [pc, #96]	; (800323c <HAL_TIMEx_MasterConfigSynchronization+0xec>)
 80031da:	4293      	cmp	r3, r2
 80031dc:	d009      	beq.n	80031f2 <HAL_TIMEx_MasterConfigSynchronization+0xa2>
 80031de:	687b      	ldr	r3, [r7, #4]
 80031e0:	681b      	ldr	r3, [r3, #0]
 80031e2:	4a17      	ldr	r2, [pc, #92]	; (8003240 <HAL_TIMEx_MasterConfigSynchronization+0xf0>)
 80031e4:	4293      	cmp	r3, r2
 80031e6:	d004      	beq.n	80031f2 <HAL_TIMEx_MasterConfigSynchronization+0xa2>
 80031e8:	687b      	ldr	r3, [r7, #4]
 80031ea:	681b      	ldr	r3, [r3, #0]
 80031ec:	4a15      	ldr	r2, [pc, #84]	; (8003244 <HAL_TIMEx_MasterConfigSynchronization+0xf4>)
 80031ee:	4293      	cmp	r3, r2
 80031f0:	d10c      	bne.n	800320c <HAL_TIMEx_MasterConfigSynchronization+0xbc>
  {
    /* Reset the MSM Bit */
    tmpsmcr &= ~TIM_SMCR_MSM;
 80031f2:	68bb      	ldr	r3, [r7, #8]
 80031f4:	f023 0380 	bic.w	r3, r3, #128	; 0x80
 80031f8:	60bb      	str	r3, [r7, #8]
    /* Set master mode */
    tmpsmcr |= sMasterConfig->MasterSlaveMode;
 80031fa:	683b      	ldr	r3, [r7, #0]
 80031fc:	685b      	ldr	r3, [r3, #4]
 80031fe:	68ba      	ldr	r2, [r7, #8]
 8003200:	4313      	orrs	r3, r2
 8003202:	60bb      	str	r3, [r7, #8]

    /* Update TIMx SMCR */
    htim->Instance->SMCR = tmpsmcr;
 8003204:	687b      	ldr	r3, [r7, #4]
 8003206:	681b      	ldr	r3, [r3, #0]
 8003208:	68ba      	ldr	r2, [r7, #8]
 800320a:	609a      	str	r2, [r3, #8]
  }

  /* Change the htim state */
  htim->State = HAL_TIM_STATE_READY;
 800320c:	687b      	ldr	r3, [r7, #4]
 800320e:	2201      	movs	r2, #1
 8003210:	f883 203d 	strb.w	r2, [r3, #61]	; 0x3d

  __HAL_UNLOCK(htim);
 8003214:	687b      	ldr	r3, [r7, #4]
 8003216:	2200      	movs	r2, #0
 8003218:	f883 203c 	strb.w	r2, [r3, #60]	; 0x3c

  return HAL_OK;
 800321c:	2300      	movs	r3, #0
}
 800321e:	4618      	mov	r0, r3
 8003220:	3714      	adds	r7, #20
 8003222:	46bd      	mov	sp, r7
 8003224:	f85d 7b04 	ldr.w	r7, [sp], #4
 8003228:	4770      	bx	lr
 800322a:	bf00      	nop
 800322c:	40010000 	.word	0x40010000
 8003230:	40000400 	.word	0x40000400
 8003234:	40000800 	.word	0x40000800
 8003238:	40000c00 	.word	0x40000c00
 800323c:	40010400 	.word	0x40010400
 8003240:	40014000 	.word	0x40014000
 8003244:	40001800 	.word	0x40001800

08003248 <HAL_TIMEx_CommutCallback>:
  * @brief  Hall commutation changed callback in non-blocking mode
  * @param  htim TIM handle
  * @retval None
  */
__weak void HAL_TIMEx_CommutCallback(TIM_HandleTypeDef *htim)
{
 8003248:	b480      	push	{r7}
 800324a:	b083      	sub	sp, #12
 800324c:	af00      	add	r7, sp, #0
 800324e:	6078      	str	r0, [r7, #4]
  UNUSED(htim);

  /* NOTE : This function should not be modified, when the callback is needed,
            the HAL_TIMEx_CommutCallback could be implemented in the user file
   */
}
 8003250:	bf00      	nop
 8003252:	370c      	adds	r7, #12
 8003254:	46bd      	mov	sp, r7
 8003256:	f85d 7b04 	ldr.w	r7, [sp], #4
 800325a:	4770      	bx	lr

0800325c <HAL_TIMEx_BreakCallback>:
  * @brief  Hall Break detection callback in non-blocking mode
  * @param  htim TIM handle
  * @retval None
  */
__weak void HAL_TIMEx_BreakCallback(TIM_HandleTypeDef *htim)
{
 800325c:	b480      	push	{r7}
 800325e:	b083      	sub	sp, #12
 8003260:	af00      	add	r7, sp, #0
 8003262:	6078      	str	r0, [r7, #4]
  UNUSED(htim);

  /* NOTE : This function should not be modified, when the callback is needed,
            the HAL_TIMEx_BreakCallback could be implemented in the user file
   */
}
 8003264:	bf00      	nop
 8003266:	370c      	adds	r7, #12
 8003268:	46bd      	mov	sp, r7
 800326a:	f85d 7b04 	ldr.w	r7, [sp], #4
 800326e:	4770      	bx	lr

08003270 <__libc_init_array>:
 8003270:	b570      	push	{r4, r5, r6, lr}
 8003272:	4d0d      	ldr	r5, [pc, #52]	; (80032a8 <__libc_init_array+0x38>)
 8003274:	4c0d      	ldr	r4, [pc, #52]	; (80032ac <__libc_init_array+0x3c>)
 8003276:	1b64      	subs	r4, r4, r5
 8003278:	10a4      	asrs	r4, r4, #2
 800327a:	2600      	movs	r6, #0
 800327c:	42a6      	cmp	r6, r4
 800327e:	d109      	bne.n	8003294 <__libc_init_array+0x24>
 8003280:	4d0b      	ldr	r5, [pc, #44]	; (80032b0 <__libc_init_array+0x40>)
 8003282:	4c0c      	ldr	r4, [pc, #48]	; (80032b4 <__libc_init_array+0x44>)
 8003284:	f000 f820 	bl	80032c8 <_init>
 8003288:	1b64      	subs	r4, r4, r5
 800328a:	10a4      	asrs	r4, r4, #2
 800328c:	2600      	movs	r6, #0
 800328e:	42a6      	cmp	r6, r4
 8003290:	d105      	bne.n	800329e <__libc_init_array+0x2e>
 8003292:	bd70      	pop	{r4, r5, r6, pc}
 8003294:	f855 3b04 	ldr.w	r3, [r5], #4
 8003298:	4798      	blx	r3
 800329a:	3601      	adds	r6, #1
 800329c:	e7ee      	b.n	800327c <__libc_init_array+0xc>
 800329e:	f855 3b04 	ldr.w	r3, [r5], #4
 80032a2:	4798      	blx	r3
 80032a4:	3601      	adds	r6, #1
 80032a6:	e7f2      	b.n	800328e <__libc_init_array+0x1e>
 80032a8:	08003300 	.word	0x08003300
 80032ac:	08003300 	.word	0x08003300
 80032b0:	08003300 	.word	0x08003300
 80032b4:	08003304 	.word	0x08003304

080032b8 <memset>:
 80032b8:	4402      	add	r2, r0
 80032ba:	4603      	mov	r3, r0
 80032bc:	4293      	cmp	r3, r2
 80032be:	d100      	bne.n	80032c2 <memset+0xa>
 80032c0:	4770      	bx	lr
 80032c2:	f803 1b01 	strb.w	r1, [r3], #1
 80032c6:	e7f9      	b.n	80032bc <memset+0x4>

080032c8 <_init>:
 80032c8:	b5f8      	push	{r3, r4, r5, r6, r7, lr}
 80032ca:	bf00      	nop
 80032cc:	bcf8      	pop	{r3, r4, r5, r6, r7}
 80032ce:	bc08      	pop	{r3}
 80032d0:	469e      	mov	lr, r3
 80032d2:	4770      	bx	lr

080032d4 <_fini>:
 80032d4:	b5f8      	push	{r3, r4, r5, r6, r7, lr}
 80032d6:	bf00      	nop
 80032d8:	bcf8      	pop	{r3, r4, r5, r6, r7}
 80032da:	bc08      	pop	{r3}
 80032dc:	469e      	mov	lr, r3
 80032de:	4770      	bx	lr
