
VGAnuS_Software-Ontwikkeling.elf:     file format elf32-littlearm

Sections:
Idx Name          Size      VMA       LMA       File off  Algn
  0 .isr_vector   00000188  08000000  08000000  00010000  2**0
                  CONTENTS, ALLOC, LOAD, READONLY, DATA
  1 .text         00002370  08000188  08000188  00010188  2**2
                  CONTENTS, ALLOC, LOAD, READONLY, CODE
  2 .rodata       00000020  080024f8  080024f8  000124f8  2**0
                  CONTENTS, ALLOC, LOAD, READONLY, DATA
  3 .ARM.extab    00000000  08002518  08002518  0002001c  2**0
                  CONTENTS
  4 .ARM          00000008  08002518  08002518  00012518  2**2
                  CONTENTS, ALLOC, LOAD, READONLY, DATA
  5 .preinit_array 00000000  08002520  08002520  0002001c  2**0
                  CONTENTS, ALLOC, LOAD, DATA
  6 .init_array   00000004  08002520  08002520  00012520  2**2
                  CONTENTS, ALLOC, LOAD, DATA
  7 .fini_array   00000004  08002524  08002524  00012524  2**2
                  CONTENTS, ALLOC, LOAD, DATA
  8 .data         0000001c  20000000  08002528  00020000  2**2
                  CONTENTS, ALLOC, LOAD, DATA
  9 .bss          00012ebc  2000001c  08002544  0002001c  2**2
                  ALLOC
 10 ._user_heap_stack 00000600  20012ed8  08002544  00022ed8  2**0
                  ALLOC
 11 .ARM.attributes 00000030  00000000  00000000  0002001c  2**0
                  CONTENTS, READONLY
 12 .comment      00000053  00000000  00000000  0002004c  2**0
                  CONTENTS, READONLY
 13 .debug_frame  000000ac  00000000  00000000  000200a0  2**2
                  CONTENTS, READONLY, DEBUGGING, OCTETS

Disassembly of section .text:

08000188 <__do_global_dtors_aux>:
 8000188:	b510      	push	{r4, lr}
 800018a:	4c05      	ldr	r4, [pc, #20]	; (80001a0 <__do_global_dtors_aux+0x18>)
 800018c:	7823      	ldrb	r3, [r4, #0]
 800018e:	b933      	cbnz	r3, 800019e <__do_global_dtors_aux+0x16>
 8000190:	4b04      	ldr	r3, [pc, #16]	; (80001a4 <__do_global_dtors_aux+0x1c>)
 8000192:	b113      	cbz	r3, 800019a <__do_global_dtors_aux+0x12>
 8000194:	4804      	ldr	r0, [pc, #16]	; (80001a8 <__do_global_dtors_aux+0x20>)
 8000196:	f3af 8000 	nop.w
 800019a:	2301      	movs	r3, #1
 800019c:	7023      	strb	r3, [r4, #0]
 800019e:	bd10      	pop	{r4, pc}
 80001a0:	2000001c 	.word	0x2000001c
 80001a4:	00000000 	.word	0x00000000
 80001a8:	080024e0 	.word	0x080024e0

080001ac <frame_dummy>:
 80001ac:	b508      	push	{r3, lr}
 80001ae:	4b03      	ldr	r3, [pc, #12]	; (80001bc <frame_dummy+0x10>)
 80001b0:	b11b      	cbz	r3, 80001ba <frame_dummy+0xe>
 80001b2:	4903      	ldr	r1, [pc, #12]	; (80001c0 <frame_dummy+0x14>)
 80001b4:	4803      	ldr	r0, [pc, #12]	; (80001c4 <frame_dummy+0x18>)
 80001b6:	f3af 8000 	nop.w
 80001ba:	bd08      	pop	{r3, pc}
 80001bc:	00000000 	.word	0x00000000
 80001c0:	20000020 	.word	0x20000020
 80001c4:	080024e0 	.word	0x080024e0

080001c8 <__aeabi_uldivmod>:
 80001c8:	b953      	cbnz	r3, 80001e0 <__aeabi_uldivmod+0x18>
 80001ca:	b94a      	cbnz	r2, 80001e0 <__aeabi_uldivmod+0x18>
 80001cc:	2900      	cmp	r1, #0
 80001ce:	bf08      	it	eq
 80001d0:	2800      	cmpeq	r0, #0
 80001d2:	bf1c      	itt	ne
 80001d4:	f04f 31ff 	movne.w	r1, #4294967295
 80001d8:	f04f 30ff 	movne.w	r0, #4294967295
 80001dc:	f000 b96e 	b.w	80004bc <__aeabi_idiv0>
 80001e0:	f1ad 0c08 	sub.w	ip, sp, #8
 80001e4:	e96d ce04 	strd	ip, lr, [sp, #-16]!
 80001e8:	f000 f806 	bl	80001f8 <__udivmoddi4>
 80001ec:	f8dd e004 	ldr.w	lr, [sp, #4]
 80001f0:	e9dd 2302 	ldrd	r2, r3, [sp, #8]
 80001f4:	b004      	add	sp, #16
 80001f6:	4770      	bx	lr

080001f8 <__udivmoddi4>:
 80001f8:	e92d 47f0 	stmdb	sp!, {r4, r5, r6, r7, r8, r9, sl, lr}
 80001fc:	9d08      	ldr	r5, [sp, #32]
 80001fe:	4604      	mov	r4, r0
 8000200:	468c      	mov	ip, r1
 8000202:	2b00      	cmp	r3, #0
 8000204:	f040 8083 	bne.w	800030e <__udivmoddi4+0x116>
 8000208:	428a      	cmp	r2, r1
 800020a:	4617      	mov	r7, r2
 800020c:	d947      	bls.n	800029e <__udivmoddi4+0xa6>
 800020e:	fab2 f282 	clz	r2, r2
 8000212:	b142      	cbz	r2, 8000226 <__udivmoddi4+0x2e>
 8000214:	f1c2 0020 	rsb	r0, r2, #32
 8000218:	fa24 f000 	lsr.w	r0, r4, r0
 800021c:	4091      	lsls	r1, r2
 800021e:	4097      	lsls	r7, r2
 8000220:	ea40 0c01 	orr.w	ip, r0, r1
 8000224:	4094      	lsls	r4, r2
 8000226:	ea4f 4817 	mov.w	r8, r7, lsr #16
 800022a:	0c23      	lsrs	r3, r4, #16
 800022c:	fbbc f6f8 	udiv	r6, ip, r8
 8000230:	fa1f fe87 	uxth.w	lr, r7
 8000234:	fb08 c116 	mls	r1, r8, r6, ip
 8000238:	ea43 4301 	orr.w	r3, r3, r1, lsl #16
 800023c:	fb06 f10e 	mul.w	r1, r6, lr
 8000240:	4299      	cmp	r1, r3
 8000242:	d909      	bls.n	8000258 <__udivmoddi4+0x60>
 8000244:	18fb      	adds	r3, r7, r3
 8000246:	f106 30ff 	add.w	r0, r6, #4294967295
 800024a:	f080 8119 	bcs.w	8000480 <__udivmoddi4+0x288>
 800024e:	4299      	cmp	r1, r3
 8000250:	f240 8116 	bls.w	8000480 <__udivmoddi4+0x288>
 8000254:	3e02      	subs	r6, #2
 8000256:	443b      	add	r3, r7
 8000258:	1a5b      	subs	r3, r3, r1
 800025a:	b2a4      	uxth	r4, r4
 800025c:	fbb3 f0f8 	udiv	r0, r3, r8
 8000260:	fb08 3310 	mls	r3, r8, r0, r3
 8000264:	ea44 4403 	orr.w	r4, r4, r3, lsl #16
 8000268:	fb00 fe0e 	mul.w	lr, r0, lr
 800026c:	45a6      	cmp	lr, r4
 800026e:	d909      	bls.n	8000284 <__udivmoddi4+0x8c>
 8000270:	193c      	adds	r4, r7, r4
 8000272:	f100 33ff 	add.w	r3, r0, #4294967295
 8000276:	f080 8105 	bcs.w	8000484 <__udivmoddi4+0x28c>
 800027a:	45a6      	cmp	lr, r4
 800027c:	f240 8102 	bls.w	8000484 <__udivmoddi4+0x28c>
 8000280:	3802      	subs	r0, #2
 8000282:	443c      	add	r4, r7
 8000284:	ea40 4006 	orr.w	r0, r0, r6, lsl #16
 8000288:	eba4 040e 	sub.w	r4, r4, lr
 800028c:	2600      	movs	r6, #0
 800028e:	b11d      	cbz	r5, 8000298 <__udivmoddi4+0xa0>
 8000290:	40d4      	lsrs	r4, r2
 8000292:	2300      	movs	r3, #0
 8000294:	e9c5 4300 	strd	r4, r3, [r5]
 8000298:	4631      	mov	r1, r6
 800029a:	e8bd 87f0 	ldmia.w	sp!, {r4, r5, r6, r7, r8, r9, sl, pc}
 800029e:	b902      	cbnz	r2, 80002a2 <__udivmoddi4+0xaa>
 80002a0:	deff      	udf	#255	; 0xff
 80002a2:	fab2 f282 	clz	r2, r2
 80002a6:	2a00      	cmp	r2, #0
 80002a8:	d150      	bne.n	800034c <__udivmoddi4+0x154>
 80002aa:	1bcb      	subs	r3, r1, r7
 80002ac:	ea4f 4e17 	mov.w	lr, r7, lsr #16
 80002b0:	fa1f f887 	uxth.w	r8, r7
 80002b4:	2601      	movs	r6, #1
 80002b6:	fbb3 fcfe 	udiv	ip, r3, lr
 80002ba:	0c21      	lsrs	r1, r4, #16
 80002bc:	fb0e 331c 	mls	r3, lr, ip, r3
 80002c0:	ea41 4103 	orr.w	r1, r1, r3, lsl #16
 80002c4:	fb08 f30c 	mul.w	r3, r8, ip
 80002c8:	428b      	cmp	r3, r1
 80002ca:	d907      	bls.n	80002dc <__udivmoddi4+0xe4>
 80002cc:	1879      	adds	r1, r7, r1
 80002ce:	f10c 30ff 	add.w	r0, ip, #4294967295
 80002d2:	d202      	bcs.n	80002da <__udivmoddi4+0xe2>
 80002d4:	428b      	cmp	r3, r1
 80002d6:	f200 80e9 	bhi.w	80004ac <__udivmoddi4+0x2b4>
 80002da:	4684      	mov	ip, r0
 80002dc:	1ac9      	subs	r1, r1, r3
 80002de:	b2a3      	uxth	r3, r4
 80002e0:	fbb1 f0fe 	udiv	r0, r1, lr
 80002e4:	fb0e 1110 	mls	r1, lr, r0, r1
 80002e8:	ea43 4401 	orr.w	r4, r3, r1, lsl #16
 80002ec:	fb08 f800 	mul.w	r8, r8, r0
 80002f0:	45a0      	cmp	r8, r4
 80002f2:	d907      	bls.n	8000304 <__udivmoddi4+0x10c>
 80002f4:	193c      	adds	r4, r7, r4
 80002f6:	f100 33ff 	add.w	r3, r0, #4294967295
 80002fa:	d202      	bcs.n	8000302 <__udivmoddi4+0x10a>
 80002fc:	45a0      	cmp	r8, r4
 80002fe:	f200 80d9 	bhi.w	80004b4 <__udivmoddi4+0x2bc>
 8000302:	4618      	mov	r0, r3
 8000304:	eba4 0408 	sub.w	r4, r4, r8
 8000308:	ea40 400c 	orr.w	r0, r0, ip, lsl #16
 800030c:	e7bf      	b.n	800028e <__udivmoddi4+0x96>
 800030e:	428b      	cmp	r3, r1
 8000310:	d909      	bls.n	8000326 <__udivmoddi4+0x12e>
 8000312:	2d00      	cmp	r5, #0
 8000314:	f000 80b1 	beq.w	800047a <__udivmoddi4+0x282>
 8000318:	2600      	movs	r6, #0
 800031a:	e9c5 0100 	strd	r0, r1, [r5]
 800031e:	4630      	mov	r0, r6
 8000320:	4631      	mov	r1, r6
 8000322:	e8bd 87f0 	ldmia.w	sp!, {r4, r5, r6, r7, r8, r9, sl, pc}
 8000326:	fab3 f683 	clz	r6, r3
 800032a:	2e00      	cmp	r6, #0
 800032c:	d14a      	bne.n	80003c4 <__udivmoddi4+0x1cc>
 800032e:	428b      	cmp	r3, r1
 8000330:	d302      	bcc.n	8000338 <__udivmoddi4+0x140>
 8000332:	4282      	cmp	r2, r0
 8000334:	f200 80b8 	bhi.w	80004a8 <__udivmoddi4+0x2b0>
 8000338:	1a84      	subs	r4, r0, r2
 800033a:	eb61 0103 	sbc.w	r1, r1, r3
 800033e:	2001      	movs	r0, #1
 8000340:	468c      	mov	ip, r1
 8000342:	2d00      	cmp	r5, #0
 8000344:	d0a8      	beq.n	8000298 <__udivmoddi4+0xa0>
 8000346:	e9c5 4c00 	strd	r4, ip, [r5]
 800034a:	e7a5      	b.n	8000298 <__udivmoddi4+0xa0>
 800034c:	f1c2 0320 	rsb	r3, r2, #32
 8000350:	fa20 f603 	lsr.w	r6, r0, r3
 8000354:	4097      	lsls	r7, r2
 8000356:	fa01 f002 	lsl.w	r0, r1, r2
 800035a:	ea4f 4e17 	mov.w	lr, r7, lsr #16
 800035e:	40d9      	lsrs	r1, r3
 8000360:	4330      	orrs	r0, r6
 8000362:	0c03      	lsrs	r3, r0, #16
 8000364:	fbb1 f6fe 	udiv	r6, r1, lr
 8000368:	fa1f f887 	uxth.w	r8, r7
 800036c:	fb0e 1116 	mls	r1, lr, r6, r1
 8000370:	ea43 4301 	orr.w	r3, r3, r1, lsl #16
 8000374:	fb06 f108 	mul.w	r1, r6, r8
 8000378:	4299      	cmp	r1, r3
 800037a:	fa04 f402 	lsl.w	r4, r4, r2
 800037e:	d909      	bls.n	8000394 <__udivmoddi4+0x19c>
 8000380:	18fb      	adds	r3, r7, r3
 8000382:	f106 3cff 	add.w	ip, r6, #4294967295
 8000386:	f080 808d 	bcs.w	80004a4 <__udivmoddi4+0x2ac>
 800038a:	4299      	cmp	r1, r3
 800038c:	f240 808a 	bls.w	80004a4 <__udivmoddi4+0x2ac>
 8000390:	3e02      	subs	r6, #2
 8000392:	443b      	add	r3, r7
 8000394:	1a5b      	subs	r3, r3, r1
 8000396:	b281      	uxth	r1, r0
 8000398:	fbb3 f0fe 	udiv	r0, r3, lr
 800039c:	fb0e 3310 	mls	r3, lr, r0, r3
 80003a0:	ea41 4103 	orr.w	r1, r1, r3, lsl #16
 80003a4:	fb00 f308 	mul.w	r3, r0, r8
 80003a8:	428b      	cmp	r3, r1
 80003aa:	d907      	bls.n	80003bc <__udivmoddi4+0x1c4>
 80003ac:	1879      	adds	r1, r7, r1
 80003ae:	f100 3cff 	add.w	ip, r0, #4294967295
 80003b2:	d273      	bcs.n	800049c <__udivmoddi4+0x2a4>
 80003b4:	428b      	cmp	r3, r1
 80003b6:	d971      	bls.n	800049c <__udivmoddi4+0x2a4>
 80003b8:	3802      	subs	r0, #2
 80003ba:	4439      	add	r1, r7
 80003bc:	1acb      	subs	r3, r1, r3
 80003be:	ea40 4606 	orr.w	r6, r0, r6, lsl #16
 80003c2:	e778      	b.n	80002b6 <__udivmoddi4+0xbe>
 80003c4:	f1c6 0c20 	rsb	ip, r6, #32
 80003c8:	fa03 f406 	lsl.w	r4, r3, r6
 80003cc:	fa22 f30c 	lsr.w	r3, r2, ip
 80003d0:	431c      	orrs	r4, r3
 80003d2:	fa20 f70c 	lsr.w	r7, r0, ip
 80003d6:	fa01 f306 	lsl.w	r3, r1, r6
 80003da:	ea4f 4e14 	mov.w	lr, r4, lsr #16
 80003de:	fa21 f10c 	lsr.w	r1, r1, ip
 80003e2:	431f      	orrs	r7, r3
 80003e4:	0c3b      	lsrs	r3, r7, #16
 80003e6:	fbb1 f9fe 	udiv	r9, r1, lr
 80003ea:	fa1f f884 	uxth.w	r8, r4
 80003ee:	fb0e 1119 	mls	r1, lr, r9, r1
 80003f2:	ea43 4101 	orr.w	r1, r3, r1, lsl #16
 80003f6:	fb09 fa08 	mul.w	sl, r9, r8
 80003fa:	458a      	cmp	sl, r1
 80003fc:	fa02 f206 	lsl.w	r2, r2, r6
 8000400:	fa00 f306 	lsl.w	r3, r0, r6
 8000404:	d908      	bls.n	8000418 <__udivmoddi4+0x220>
 8000406:	1861      	adds	r1, r4, r1
 8000408:	f109 30ff 	add.w	r0, r9, #4294967295
 800040c:	d248      	bcs.n	80004a0 <__udivmoddi4+0x2a8>
 800040e:	458a      	cmp	sl, r1
 8000410:	d946      	bls.n	80004a0 <__udivmoddi4+0x2a8>
 8000412:	f1a9 0902 	sub.w	r9, r9, #2
 8000416:	4421      	add	r1, r4
 8000418:	eba1 010a 	sub.w	r1, r1, sl
 800041c:	b2bf      	uxth	r7, r7
 800041e:	fbb1 f0fe 	udiv	r0, r1, lr
 8000422:	fb0e 1110 	mls	r1, lr, r0, r1
 8000426:	ea47 4701 	orr.w	r7, r7, r1, lsl #16
 800042a:	fb00 f808 	mul.w	r8, r0, r8
 800042e:	45b8      	cmp	r8, r7
 8000430:	d907      	bls.n	8000442 <__udivmoddi4+0x24a>
 8000432:	19e7      	adds	r7, r4, r7
 8000434:	f100 31ff 	add.w	r1, r0, #4294967295
 8000438:	d22e      	bcs.n	8000498 <__udivmoddi4+0x2a0>
 800043a:	45b8      	cmp	r8, r7
 800043c:	d92c      	bls.n	8000498 <__udivmoddi4+0x2a0>
 800043e:	3802      	subs	r0, #2
 8000440:	4427      	add	r7, r4
 8000442:	ea40 4009 	orr.w	r0, r0, r9, lsl #16
 8000446:	eba7 0708 	sub.w	r7, r7, r8
 800044a:	fba0 8902 	umull	r8, r9, r0, r2
 800044e:	454f      	cmp	r7, r9
 8000450:	46c6      	mov	lr, r8
 8000452:	4649      	mov	r1, r9
 8000454:	d31a      	bcc.n	800048c <__udivmoddi4+0x294>
 8000456:	d017      	beq.n	8000488 <__udivmoddi4+0x290>
 8000458:	b15d      	cbz	r5, 8000472 <__udivmoddi4+0x27a>
 800045a:	ebb3 020e 	subs.w	r2, r3, lr
 800045e:	eb67 0701 	sbc.w	r7, r7, r1
 8000462:	fa07 fc0c 	lsl.w	ip, r7, ip
 8000466:	40f2      	lsrs	r2, r6
 8000468:	ea4c 0202 	orr.w	r2, ip, r2
 800046c:	40f7      	lsrs	r7, r6
 800046e:	e9c5 2700 	strd	r2, r7, [r5]
 8000472:	2600      	movs	r6, #0
 8000474:	4631      	mov	r1, r6
 8000476:	e8bd 87f0 	ldmia.w	sp!, {r4, r5, r6, r7, r8, r9, sl, pc}
 800047a:	462e      	mov	r6, r5
 800047c:	4628      	mov	r0, r5
 800047e:	e70b      	b.n	8000298 <__udivmoddi4+0xa0>
 8000480:	4606      	mov	r6, r0
 8000482:	e6e9      	b.n	8000258 <__udivmoddi4+0x60>
 8000484:	4618      	mov	r0, r3
 8000486:	e6fd      	b.n	8000284 <__udivmoddi4+0x8c>
 8000488:	4543      	cmp	r3, r8
 800048a:	d2e5      	bcs.n	8000458 <__udivmoddi4+0x260>
 800048c:	ebb8 0e02 	subs.w	lr, r8, r2
 8000490:	eb69 0104 	sbc.w	r1, r9, r4
 8000494:	3801      	subs	r0, #1
 8000496:	e7df      	b.n	8000458 <__udivmoddi4+0x260>
 8000498:	4608      	mov	r0, r1
 800049a:	e7d2      	b.n	8000442 <__udivmoddi4+0x24a>
 800049c:	4660      	mov	r0, ip
 800049e:	e78d      	b.n	80003bc <__udivmoddi4+0x1c4>
 80004a0:	4681      	mov	r9, r0
 80004a2:	e7b9      	b.n	8000418 <__udivmoddi4+0x220>
 80004a4:	4666      	mov	r6, ip
 80004a6:	e775      	b.n	8000394 <__udivmoddi4+0x19c>
 80004a8:	4630      	mov	r0, r6
 80004aa:	e74a      	b.n	8000342 <__udivmoddi4+0x14a>
 80004ac:	f1ac 0c02 	sub.w	ip, ip, #2
 80004b0:	4439      	add	r1, r7
 80004b2:	e713      	b.n	80002dc <__udivmoddi4+0xe4>
 80004b4:	3802      	subs	r0, #2
 80004b6:	443c      	add	r4, r7
 80004b8:	e724      	b.n	8000304 <__udivmoddi4+0x10c>
 80004ba:	bf00      	nop

080004bc <__aeabi_idiv0>:
 80004bc:	4770      	bx	lr
 80004be:	bf00      	nop

080004c0 <MX_DMA_Init>:
 80004c0:	b507      	push	{r0, r1, r2, lr}
 80004c2:	4b14      	ldr	r3, [pc, #80]	; (8000514 <MX_DMA_Init+0x54>)
 80004c4:	2200      	movs	r2, #0
 80004c6:	9200      	str	r2, [sp, #0]
 80004c8:	6b19      	ldr	r1, [r3, #48]	; 0x30
 80004ca:	f441 0180 	orr.w	r1, r1, #4194304	; 0x400000
 80004ce:	6319      	str	r1, [r3, #48]	; 0x30
 80004d0:	6b19      	ldr	r1, [r3, #48]	; 0x30
 80004d2:	f401 0180 	and.w	r1, r1, #4194304	; 0x400000
 80004d6:	9100      	str	r1, [sp, #0]
 80004d8:	9900      	ldr	r1, [sp, #0]
 80004da:	9201      	str	r2, [sp, #4]
 80004dc:	6b19      	ldr	r1, [r3, #48]	; 0x30
 80004de:	f441 1100 	orr.w	r1, r1, #2097152	; 0x200000
 80004e2:	6319      	str	r1, [r3, #48]	; 0x30
 80004e4:	6b1b      	ldr	r3, [r3, #48]	; 0x30
 80004e6:	f403 1300 	and.w	r3, r3, #2097152	; 0x200000
 80004ea:	4611      	mov	r1, r2
 80004ec:	9301      	str	r3, [sp, #4]
 80004ee:	2010      	movs	r0, #16
 80004f0:	9b01      	ldr	r3, [sp, #4]
 80004f2:	f000 fc17 	bl	8000d24 <HAL_NVIC_SetPriority>
 80004f6:	2010      	movs	r0, #16
 80004f8:	f000 fc46 	bl	8000d88 <HAL_NVIC_EnableIRQ>
 80004fc:	2200      	movs	r2, #0
 80004fe:	4611      	mov	r1, r2
 8000500:	2044      	movs	r0, #68	; 0x44
 8000502:	f000 fc0f 	bl	8000d24 <HAL_NVIC_SetPriority>
 8000506:	2044      	movs	r0, #68	; 0x44
 8000508:	b003      	add	sp, #12
 800050a:	f85d eb04 	ldr.w	lr, [sp], #4
 800050e:	f000 bc3b 	b.w	8000d88 <HAL_NVIC_EnableIRQ>
 8000512:	bf00      	nop
 8000514:	40023800 	.word	0x40023800

08000518 <MX_GPIO_Init>:
 8000518:	e92d 41f0 	stmdb	sp!, {r4, r5, r6, r7, r8, lr}
 800051c:	2214      	movs	r2, #20
 800051e:	b08a      	sub	sp, #40	; 0x28
 8000520:	eb0d 0002 	add.w	r0, sp, r2
 8000524:	2100      	movs	r1, #0
 8000526:	f001 ffd3 	bl	80024d0 <memset>
 800052a:	2400      	movs	r4, #0
 800052c:	4b28      	ldr	r3, [pc, #160]	; (80005d0 <MX_GPIO_Init+0xb8>)
 800052e:	9401      	str	r4, [sp, #4]
 8000530:	6b1a      	ldr	r2, [r3, #48]	; 0x30
 8000532:	f8df 80a4 	ldr.w	r8, [pc, #164]	; 80005d8 <MX_GPIO_Init+0xc0>
 8000536:	4d27      	ldr	r5, [pc, #156]	; (80005d4 <MX_GPIO_Init+0xbc>)
 8000538:	f042 0280 	orr.w	r2, r2, #128	; 0x80
 800053c:	631a      	str	r2, [r3, #48]	; 0x30
 800053e:	6b1a      	ldr	r2, [r3, #48]	; 0x30
 8000540:	f002 0280 	and.w	r2, r2, #128	; 0x80
 8000544:	9201      	str	r2, [sp, #4]
 8000546:	9a01      	ldr	r2, [sp, #4]
 8000548:	9402      	str	r4, [sp, #8]
 800054a:	6b1a      	ldr	r2, [r3, #48]	; 0x30
 800054c:	f042 0201 	orr.w	r2, r2, #1
 8000550:	631a      	str	r2, [r3, #48]	; 0x30
 8000552:	6b1a      	ldr	r2, [r3, #48]	; 0x30
 8000554:	f002 0201 	and.w	r2, r2, #1
 8000558:	9202      	str	r2, [sp, #8]
 800055a:	9a02      	ldr	r2, [sp, #8]
 800055c:	9403      	str	r4, [sp, #12]
 800055e:	6b1a      	ldr	r2, [r3, #48]	; 0x30
 8000560:	f042 0210 	orr.w	r2, r2, #16
 8000564:	631a      	str	r2, [r3, #48]	; 0x30
 8000566:	6b1a      	ldr	r2, [r3, #48]	; 0x30
 8000568:	f002 0210 	and.w	r2, r2, #16
 800056c:	9203      	str	r2, [sp, #12]
 800056e:	9a03      	ldr	r2, [sp, #12]
 8000570:	9404      	str	r4, [sp, #16]
 8000572:	6b1a      	ldr	r2, [r3, #48]	; 0x30
 8000574:	f042 0202 	orr.w	r2, r2, #2
 8000578:	631a      	str	r2, [r3, #48]	; 0x30
 800057a:	6b1b      	ldr	r3, [r3, #48]	; 0x30
 800057c:	f003 0302 	and.w	r3, r3, #2
 8000580:	9304      	str	r3, [sp, #16]
 8000582:	4622      	mov	r2, r4
 8000584:	4640      	mov	r0, r8
 8000586:	f44f 417f 	mov.w	r1, #65280	; 0xff00
 800058a:	9b04      	ldr	r3, [sp, #16]
 800058c:	f000 fe88 	bl	80012a0 <HAL_GPIO_WritePin>
 8000590:	4622      	mov	r2, r4
 8000592:	4628      	mov	r0, r5
 8000594:	f44f 5180 	mov.w	r1, #4096	; 0x1000
 8000598:	f000 fe82 	bl	80012a0 <HAL_GPIO_WritePin>
 800059c:	2701      	movs	r7, #1
 800059e:	f44f 437f 	mov.w	r3, #65280	; 0xff00
 80005a2:	2603      	movs	r6, #3
 80005a4:	a905      	add	r1, sp, #20
 80005a6:	4640      	mov	r0, r8
 80005a8:	e9cd 3705 	strd	r3, r7, [sp, #20]
 80005ac:	9407      	str	r4, [sp, #28]
 80005ae:	9608      	str	r6, [sp, #32]
 80005b0:	f000 fd9c 	bl	80010ec <HAL_GPIO_Init>
 80005b4:	f44f 5380 	mov.w	r3, #4096	; 0x1000
 80005b8:	a905      	add	r1, sp, #20
 80005ba:	4628      	mov	r0, r5
 80005bc:	e9cd 3705 	strd	r3, r7, [sp, #20]
 80005c0:	e9cd 4607 	strd	r4, r6, [sp, #28]
 80005c4:	f000 fd92 	bl	80010ec <HAL_GPIO_Init>
 80005c8:	b00a      	add	sp, #40	; 0x28
 80005ca:	e8bd 81f0 	ldmia.w	sp!, {r4, r5, r6, r7, r8, pc}
 80005ce:	bf00      	nop
 80005d0:	40023800 	.word	0x40023800
 80005d4:	40020400 	.word	0x40020400
 80005d8:	40021000 	.word	0x40021000

080005dc <SystemClock_Config>:
 80005dc:	b530      	push	{r4, r5, lr}
 80005de:	b095      	sub	sp, #84	; 0x54
 80005e0:	2210      	movs	r2, #16
 80005e2:	2100      	movs	r1, #0
 80005e4:	a80a      	add	r0, sp, #40	; 0x28
 80005e6:	f001 ff73 	bl	80024d0 <memset>
 80005ea:	2100      	movs	r1, #0
 80005ec:	2214      	movs	r2, #20
 80005ee:	a803      	add	r0, sp, #12
 80005f0:	f001 ff6e 	bl	80024d0 <memset>
 80005f4:	2400      	movs	r4, #0
 80005f6:	4b1c      	ldr	r3, [pc, #112]	; (8000668 <SystemClock_Config+0x8c>)
 80005f8:	9401      	str	r4, [sp, #4]
 80005fa:	6c1a      	ldr	r2, [r3, #64]	; 0x40
 80005fc:	f042 5280 	orr.w	r2, r2, #268435456	; 0x10000000
 8000600:	641a      	str	r2, [r3, #64]	; 0x40
 8000602:	6c1b      	ldr	r3, [r3, #64]	; 0x40
 8000604:	f003 5380 	and.w	r3, r3, #268435456	; 0x10000000
 8000608:	9301      	str	r3, [sp, #4]
 800060a:	9b01      	ldr	r3, [sp, #4]
 800060c:	4b17      	ldr	r3, [pc, #92]	; (800066c <SystemClock_Config+0x90>)
 800060e:	9402      	str	r4, [sp, #8]
 8000610:	681a      	ldr	r2, [r3, #0]
 8000612:	f442 4280 	orr.w	r2, r2, #16384	; 0x4000
 8000616:	601a      	str	r2, [r3, #0]
 8000618:	681b      	ldr	r3, [r3, #0]
 800061a:	f403 4380 	and.w	r3, r3, #16384	; 0x4000
 800061e:	9302      	str	r3, [sp, #8]
 8000620:	9b02      	ldr	r3, [sp, #8]
 8000622:	2201      	movs	r2, #1
 8000624:	f44f 3380 	mov.w	r3, #65536	; 0x10000
 8000628:	e9cd 2308 	strd	r2, r3, [sp, #32]
 800062c:	2502      	movs	r5, #2
 800062e:	f44f 0380 	mov.w	r3, #4194304	; 0x400000
 8000632:	22a8      	movs	r2, #168	; 0xa8
 8000634:	e9cd 530e 	strd	r5, r3, [sp, #56]	; 0x38
 8000638:	a808      	add	r0, sp, #32
 800063a:	2304      	movs	r3, #4
 800063c:	e9cd 3210 	strd	r3, r2, [sp, #64]	; 0x40
 8000640:	e9cd 5312 	strd	r5, r3, [sp, #72]	; 0x48
 8000644:	f000 fe32 	bl	80012ac <HAL_RCC_OscConfig>
 8000648:	230f      	movs	r3, #15
 800064a:	e9cd 3503 	strd	r3, r5, [sp, #12]
 800064e:	f44f 51a0 	mov.w	r1, #5120	; 0x1400
 8000652:	f44f 5380 	mov.w	r3, #4096	; 0x1000
 8000656:	e9cd 1306 	strd	r1, r3, [sp, #24]
 800065a:	a803      	add	r0, sp, #12
 800065c:	2105      	movs	r1, #5
 800065e:	9405      	str	r4, [sp, #20]
 8000660:	f000 fffe 	bl	8001660 <HAL_RCC_ClockConfig>
 8000664:	b015      	add	sp, #84	; 0x54
 8000666:	bd30      	pop	{r4, r5, pc}
 8000668:	40023800 	.word	0x40023800
 800066c:	40007000 	.word	0x40007000

08000670 <main>:
 8000670:	b508      	push	{r3, lr}
 8000672:	f000 fb19 	bl	8000ca8 <HAL_Init>
 8000676:	f7ff ffb1 	bl	80005dc <SystemClock_Config>
 800067a:	f7ff ff4d 	bl	8000518 <MX_GPIO_Init>
 800067e:	f7ff ff1f 	bl	80004c0 <MX_DMA_Init>
 8000682:	f000 f955 	bl	8000930 <MX_TIM1_Init>
 8000686:	f000 fa0b 	bl	8000aa0 <MX_TIM2_Init>
 800068a:	f000 fa51 	bl	8000b30 <MX_USART2_UART_Init>
 800068e:	f000 f83b 	bl	8000708 <UB_VGA_Screen_Init>
 8000692:	20ff      	movs	r0, #255	; 0xff
 8000694:	f000 f890 	bl	80007b8 <UB_VGA_FillScreen>
 8000698:	220a      	movs	r2, #10
 800069a:	4611      	mov	r1, r2
 800069c:	4610      	mov	r0, r2
 800069e:	f000 f879 	bl	8000794 <UB_VGA_SetPixel>
 80006a2:	2100      	movs	r1, #0
 80006a4:	4608      	mov	r0, r1
 80006a6:	220a      	movs	r2, #10
 80006a8:	f000 f874 	bl	8000794 <UB_VGA_SetPixel>
 80006ac:	220a      	movs	r2, #10
 80006ae:	2100      	movs	r1, #0
 80006b0:	f240 103f 	movw	r0, #319	; 0x13f
 80006b4:	f000 f86e 	bl	8000794 <UB_VGA_SetPixel>
 80006b8:	4905      	ldr	r1, [pc, #20]	; (80006d0 <main+0x60>)
 80006ba:	4806      	ldr	r0, [pc, #24]	; (80006d4 <main+0x64>)
 80006bc:	220c      	movs	r2, #12
 80006be:	f001 fecb 	bl	8002458 <HAL_UART_Receive_DMA>
 80006c2:	4905      	ldr	r1, [pc, #20]	; (80006d8 <main+0x68>)
 80006c4:	4803      	ldr	r0, [pc, #12]	; (80006d4 <main+0x64>)
 80006c6:	2364      	movs	r3, #100	; 0x64
 80006c8:	220c      	movs	r2, #12
 80006ca:	f001 fddb 	bl	8002284 <HAL_UART_Transmit>
 80006ce:	e7fe      	b.n	80006ce <main+0x5e>
 80006d0:	20000038 	.word	0x20000038
 80006d4:	20012e90 	.word	0x20012e90
 80006d8:	20000000 	.word	0x20000000

080006dc <HAL_UART_RxCpltCallback>:
 80006dc:	b510      	push	{r4, lr}
 80006de:	4c07      	ldr	r4, [pc, #28]	; (80006fc <HAL_UART_RxCpltCallback+0x20>)
 80006e0:	4907      	ldr	r1, [pc, #28]	; (8000700 <HAL_UART_RxCpltCallback+0x24>)
 80006e2:	220c      	movs	r2, #12
 80006e4:	4620      	mov	r0, r4
 80006e6:	2364      	movs	r3, #100	; 0x64
 80006e8:	f001 fdcc 	bl	8002284 <HAL_UART_Transmit>
 80006ec:	4620      	mov	r0, r4
 80006ee:	4904      	ldr	r1, [pc, #16]	; (8000700 <HAL_UART_RxCpltCallback+0x24>)
 80006f0:	e8bd 4010 	ldmia.w	sp!, {r4, lr}
 80006f4:	220c      	movs	r2, #12
 80006f6:	f001 beaf 	b.w	8002458 <HAL_UART_Receive_DMA>
 80006fa:	bf00      	nop
 80006fc:	20012e90 	.word	0x20012e90
 8000700:	20000038 	.word	0x20000038

08000704 <Error_Handler>:
 8000704:	4770      	bx	lr
	...

08000708 <UB_VGA_Screen_Init>:
 8000708:	b538      	push	{r3, r4, r5, lr}
 800070a:	4c1b      	ldr	r4, [pc, #108]	; (8000778 <UB_VGA_Screen_Init+0x70>)
 800070c:	4d1b      	ldr	r5, [pc, #108]	; (800077c <UB_VGA_Screen_Init+0x74>)
 800070e:	2300      	movs	r3, #0
 8000710:	e9c4 3301 	strd	r3, r3, [r4, #4]
 8000714:	8023      	strh	r3, [r4, #0]
 8000716:	f103 4380 	add.w	r3, r3, #1073741824	; 0x40000000
 800071a:	f503 3301 	add.w	r3, r3, #132096	; 0x20400
 800071e:	f44f 5280 	mov.w	r2, #4096	; 0x1000
 8000722:	619a      	str	r2, [r3, #24]
 8000724:	4628      	mov	r0, r5
 8000726:	f001 f8e5 	bl	80018f4 <HAL_TIM_Base_Start>
 800072a:	210c      	movs	r1, #12
 800072c:	4628      	mov	r0, r5
 800072e:	f001 fc21 	bl	8001f74 <HAL_TIM_PWM_Start>
 8000732:	2108      	movs	r1, #8
 8000734:	4628      	mov	r0, r5
 8000736:	f001 fc99 	bl	800206c <HAL_TIM_PWM_Start_IT>
 800073a:	4b11      	ldr	r3, [pc, #68]	; (8000780 <UB_VGA_Screen_Init+0x78>)
 800073c:	4d11      	ldr	r5, [pc, #68]	; (8000784 <UB_VGA_Screen_Init+0x7c>)
 800073e:	681b      	ldr	r3, [r3, #0]
 8000740:	4911      	ldr	r1, [pc, #68]	; (8000788 <UB_VGA_Screen_Init+0x80>)
 8000742:	68da      	ldr	r2, [r3, #12]
 8000744:	f442 7280 	orr.w	r2, r2, #256	; 0x100
 8000748:	60da      	str	r2, [r3, #12]
 800074a:	681a      	ldr	r2, [r3, #0]
 800074c:	f042 0201 	orr.w	r2, r2, #1
 8000750:	601a      	str	r2, [r3, #0]
 8000752:	4628      	mov	r0, r5
 8000754:	4a0d      	ldr	r2, [pc, #52]	; (800078c <UB_VGA_Screen_Init+0x84>)
 8000756:	f240 1341 	movw	r3, #321	; 0x141
 800075a:	f000 fbcf 	bl	8000efc <HAL_DMA_Start_IT>
 800075e:	4628      	mov	r0, r5
 8000760:	f000 fb4c 	bl	8000dfc <HAL_DMA_Init>
 8000764:	682a      	ldr	r2, [r5, #0]
 8000766:	6813      	ldr	r3, [r2, #0]
 8000768:	f043 0310 	orr.w	r3, r3, #16
 800076c:	6013      	str	r3, [r2, #0]
 800076e:	4b08      	ldr	r3, [pc, #32]	; (8000790 <UB_VGA_Screen_Init+0x88>)
 8000770:	681b      	ldr	r3, [r3, #0]
 8000772:	60a3      	str	r3, [r4, #8]
 8000774:	bd38      	pop	{r3, r4, r5, pc}
 8000776:	bf00      	nop
 8000778:	20000044 	.word	0x20000044
 800077c:	20012de8 	.word	0x20012de8
 8000780:	20012d40 	.word	0x20012d40
 8000784:	20012d88 	.word	0x20012d88
 8000788:	20000050 	.word	0x20000050
 800078c:	40021015 	.word	0x40021015
 8000790:	40026488 	.word	0x40026488

08000794 <UB_VGA_SetPixel>:
 8000794:	4b07      	ldr	r3, [pc, #28]	; (80007b4 <UB_VGA_SetPixel+0x20>)
 8000796:	b510      	push	{r4, lr}
 8000798:	29ef      	cmp	r1, #239	; 0xef
 800079a:	bf88      	it	hi
 800079c:	2100      	movhi	r1, #0
 800079e:	f240 1441 	movw	r4, #321	; 0x141
 80007a2:	f5b0 7fa0 	cmp.w	r0, #320	; 0x140
 80007a6:	bf28      	it	cs
 80007a8:	2000      	movcs	r0, #0
 80007aa:	fb04 3101 	mla	r1, r4, r1, r3
 80007ae:	540a      	strb	r2, [r1, r0]
 80007b0:	bd10      	pop	{r4, pc}
 80007b2:	bf00      	nop
 80007b4:	20000050 	.word	0x20000050

080007b8 <UB_VGA_FillScreen>:
 80007b8:	b538      	push	{r3, r4, r5, lr}
 80007ba:	4602      	mov	r2, r0
 80007bc:	2400      	movs	r4, #0
 80007be:	2500      	movs	r5, #0
 80007c0:	b2a8      	uxth	r0, r5
 80007c2:	4621      	mov	r1, r4
 80007c4:	3501      	adds	r5, #1
 80007c6:	f7ff ffe5 	bl	8000794 <UB_VGA_SetPixel>
 80007ca:	f5b5 7fa0 	cmp.w	r5, #320	; 0x140
 80007ce:	d1f7      	bne.n	80007c0 <UB_VGA_FillScreen+0x8>
 80007d0:	3401      	adds	r4, #1
 80007d2:	b2a4      	uxth	r4, r4
 80007d4:	2cf0      	cmp	r4, #240	; 0xf0
 80007d6:	d1f2      	bne.n	80007be <UB_VGA_FillScreen+0x6>
 80007d8:	bd38      	pop	{r3, r4, r5, pc}
	...

080007dc <HAL_MspInit>:
 80007dc:	b082      	sub	sp, #8
 80007de:	4b0c      	ldr	r3, [pc, #48]	; (8000810 <HAL_MspInit+0x34>)
 80007e0:	2100      	movs	r1, #0
 80007e2:	9100      	str	r1, [sp, #0]
 80007e4:	6c5a      	ldr	r2, [r3, #68]	; 0x44
 80007e6:	f442 4280 	orr.w	r2, r2, #16384	; 0x4000
 80007ea:	645a      	str	r2, [r3, #68]	; 0x44
 80007ec:	6c5a      	ldr	r2, [r3, #68]	; 0x44
 80007ee:	f402 4280 	and.w	r2, r2, #16384	; 0x4000
 80007f2:	9200      	str	r2, [sp, #0]
 80007f4:	9a00      	ldr	r2, [sp, #0]
 80007f6:	9101      	str	r1, [sp, #4]
 80007f8:	6c1a      	ldr	r2, [r3, #64]	; 0x40
 80007fa:	f042 5280 	orr.w	r2, r2, #268435456	; 0x10000000
 80007fe:	641a      	str	r2, [r3, #64]	; 0x40
 8000800:	6c1b      	ldr	r3, [r3, #64]	; 0x40
 8000802:	f003 5380 	and.w	r3, r3, #268435456	; 0x10000000
 8000806:	9301      	str	r3, [sp, #4]
 8000808:	9b01      	ldr	r3, [sp, #4]
 800080a:	b002      	add	sp, #8
 800080c:	4770      	bx	lr
 800080e:	bf00      	nop
 8000810:	40023800 	.word	0x40023800

08000814 <NMI_Handler>:
 8000814:	4770      	bx	lr

08000816 <HardFault_Handler>:
 8000816:	e7fe      	b.n	8000816 <HardFault_Handler>

08000818 <MemManage_Handler>:
 8000818:	e7fe      	b.n	8000818 <MemManage_Handler>

0800081a <BusFault_Handler>:
 800081a:	e7fe      	b.n	800081a <BusFault_Handler>

0800081c <UsageFault_Handler>:
 800081c:	e7fe      	b.n	800081c <UsageFault_Handler>

0800081e <SVC_Handler>:
 800081e:	4770      	bx	lr

08000820 <DebugMon_Handler>:
 8000820:	4770      	bx	lr

08000822 <PendSV_Handler>:
 8000822:	4770      	bx	lr

08000824 <SysTick_Handler>:
 8000824:	f000 ba5a 	b.w	8000cdc <HAL_IncTick>

08000828 <DMA1_Stream5_IRQHandler>:
 8000828:	4801      	ldr	r0, [pc, #4]	; (8000830 <DMA1_Stream5_IRQHandler+0x8>)
 800082a:	f000 bba1 	b.w	8000f70 <HAL_DMA_IRQHandler>
 800082e:	bf00      	nop
 8000830:	20012e30 	.word	0x20012e30

08000834 <TIM2_IRQHandler>:
 8000834:	b510      	push	{r4, lr}
 8000836:	4c1d      	ldr	r4, [pc, #116]	; (80008ac <TIM2_IRQHandler+0x78>)
 8000838:	4620      	mov	r0, r4
 800083a:	f001 f896 	bl	800196a <HAL_TIM_IRQHandler>
 800083e:	6823      	ldr	r3, [r4, #0]
 8000840:	f06f 0208 	mvn.w	r2, #8
 8000844:	611a      	str	r2, [r3, #16]
 8000846:	4b1a      	ldr	r3, [pc, #104]	; (80008b0 <TIM2_IRQHandler+0x7c>)
 8000848:	881a      	ldrh	r2, [r3, #0]
 800084a:	3201      	adds	r2, #1
 800084c:	b292      	uxth	r2, r2
 800084e:	f5b2 7f03 	cmp.w	r2, #524	; 0x20c
 8000852:	bf86      	itte	hi
 8000854:	2200      	movhi	r2, #0
 8000856:	801a      	strhhi	r2, [r3, #0]
 8000858:	801a      	strhls	r2, [r3, #0]
 800085a:	8819      	ldrh	r1, [r3, #0]
 800085c:	bf84      	itt	hi
 800085e:	4a15      	ldrhi	r2, [pc, #84]	; (80008b4 <TIM2_IRQHandler+0x80>)
 8000860:	605a      	strhi	r2, [r3, #4]
 8000862:	2902      	cmp	r1, #2
 8000864:	4a14      	ldr	r2, [pc, #80]	; (80008b8 <TIM2_IRQHandler+0x84>)
 8000866:	bf34      	ite	cc
 8000868:	f04f 5080 	movcc.w	r0, #268435456	; 0x10000000
 800086c:	f44f 5080 	movcs.w	r0, #4096	; 0x1000
 8000870:	6190      	str	r0, [r2, #24]
 8000872:	f1a1 0224 	sub.w	r2, r1, #36	; 0x24
 8000876:	f5b2 7fef 	cmp.w	r2, #478	; 0x1de
 800087a:	d815      	bhi.n	80008a8 <TIM2_IRQHandler+0x74>
 800087c:	480f      	ldr	r0, [pc, #60]	; (80008bc <TIM2_IRQHandler+0x88>)
 800087e:	689a      	ldr	r2, [r3, #8]
 8000880:	6002      	str	r2, [r0, #0]
 8000882:	685a      	ldr	r2, [r3, #4]
 8000884:	4c0e      	ldr	r4, [pc, #56]	; (80008c0 <TIM2_IRQHandler+0x8c>)
 8000886:	60c2      	str	r2, [r0, #12]
 8000888:	6820      	ldr	r0, [r4, #0]
 800088a:	f040 0001 	orr.w	r0, r0, #1
 800088e:	6020      	str	r0, [r4, #0]
 8000890:	480c      	ldr	r0, [pc, #48]	; (80008c4 <TIM2_IRQHandler+0x90>)
 8000892:	6804      	ldr	r4, [r0, #0]
 8000894:	6820      	ldr	r0, [r4, #0]
 8000896:	07c9      	lsls	r1, r1, #31
 8000898:	f040 0001 	orr.w	r0, r0, #1
 800089c:	bf48      	it	mi
 800089e:	f202 1241 	addwmi	r2, r2, #321	; 0x141
 80008a2:	6020      	str	r0, [r4, #0]
 80008a4:	bf48      	it	mi
 80008a6:	605a      	strmi	r2, [r3, #4]
 80008a8:	bd10      	pop	{r4, pc}
 80008aa:	bf00      	nop
 80008ac:	20012de8 	.word	0x20012de8
 80008b0:	20000044 	.word	0x20000044
 80008b4:	20000050 	.word	0x20000050
 80008b8:	40020400 	.word	0x40020400
 80008bc:	40026488 	.word	0x40026488
 80008c0:	40010000 	.word	0x40010000
 80008c4:	20012d88 	.word	0x20012d88

080008c8 <DMA2_Stream5_IRQHandler>:
 80008c8:	4b0f      	ldr	r3, [pc, #60]	; (8000908 <DMA2_Stream5_IRQHandler+0x40>)
 80008ca:	681a      	ldr	r2, [r3, #0]
 80008cc:	6813      	ldr	r3, [r2, #0]
 80008ce:	06db      	lsls	r3, r3, #27
 80008d0:	d517      	bpl.n	8000902 <DMA2_Stream5_IRQHandler+0x3a>
 80008d2:	4b0e      	ldr	r3, [pc, #56]	; (800090c <DMA2_Stream5_IRQHandler+0x44>)
 80008d4:	681b      	ldr	r3, [r3, #0]
 80008d6:	6a18      	ldr	r0, [r3, #32]
 80008d8:	f241 1111 	movw	r1, #4369	; 0x1111
 80008dc:	4208      	tst	r0, r1
 80008de:	d108      	bne.n	80008f2 <DMA2_Stream5_IRQHandler+0x2a>
 80008e0:	6a18      	ldr	r0, [r3, #32]
 80008e2:	f240 4144 	movw	r1, #1092	; 0x444
 80008e6:	4208      	tst	r0, r1
 80008e8:	bf02      	ittt	eq
 80008ea:	6819      	ldreq	r1, [r3, #0]
 80008ec:	f021 0101 	biceq.w	r1, r1, #1
 80008f0:	6019      	streq	r1, [r3, #0]
 80008f2:	6813      	ldr	r3, [r2, #0]
 80008f4:	f023 0301 	bic.w	r3, r3, #1
 80008f8:	6013      	str	r3, [r2, #0]
 80008fa:	4b05      	ldr	r3, [pc, #20]	; (8000910 <DMA2_Stream5_IRQHandler+0x48>)
 80008fc:	f04f 427f 	mov.w	r2, #4278190080	; 0xff000000
 8000900:	619a      	str	r2, [r3, #24]
 8000902:	4801      	ldr	r0, [pc, #4]	; (8000908 <DMA2_Stream5_IRQHandler+0x40>)
 8000904:	f000 bb34 	b.w	8000f70 <HAL_DMA_IRQHandler>
 8000908:	20012d88 	.word	0x20012d88
 800090c:	20012d40 	.word	0x20012d40
 8000910:	40021000 	.word	0x40021000

08000914 <SystemInit>:
 8000914:	4b05      	ldr	r3, [pc, #20]	; (800092c <SystemInit+0x18>)
 8000916:	f8d3 2088 	ldr.w	r2, [r3, #136]	; 0x88
 800091a:	f442 0270 	orr.w	r2, r2, #15728640	; 0xf00000
 800091e:	f8c3 2088 	str.w	r2, [r3, #136]	; 0x88
 8000922:	f04f 6200 	mov.w	r2, #134217728	; 0x8000000
 8000926:	609a      	str	r2, [r3, #8]
 8000928:	4770      	bx	lr
 800092a:	bf00      	nop
 800092c:	e000ed00 	.word	0xe000ed00

08000930 <MX_TIM1_Init>:
 8000930:	b57f      	push	{r0, r1, r2, r3, r4, r5, r6, lr}
 8000932:	2210      	movs	r2, #16
 8000934:	2100      	movs	r1, #0
 8000936:	a802      	add	r0, sp, #8
 8000938:	f001 fdca 	bl	80024d0 <memset>
 800093c:	4814      	ldr	r0, [pc, #80]	; (8000990 <MX_TIM1_Init+0x60>)
 800093e:	4a15      	ldr	r2, [pc, #84]	; (8000994 <MX_TIM1_Init+0x64>)
 8000940:	2300      	movs	r3, #0
 8000942:	e9c0 2300 	strd	r2, r3, [r0]
 8000946:	220b      	movs	r2, #11
 8000948:	e9cd 3300 	strd	r3, r3, [sp]
 800094c:	e9c0 2303 	strd	r2, r3, [r0, #12]
 8000950:	e9c0 3305 	strd	r3, r3, [r0, #20]
 8000954:	6083      	str	r3, [r0, #8]
 8000956:	f001 f911 	bl	8001b7c <HAL_TIM_Base_Init>
 800095a:	b108      	cbz	r0, 8000960 <MX_TIM1_Init+0x30>
 800095c:	f7ff fed2 	bl	8000704 <Error_Handler>
 8000960:	f44f 5380 	mov.w	r3, #4096	; 0x1000
 8000964:	480a      	ldr	r0, [pc, #40]	; (8000990 <MX_TIM1_Init+0x60>)
 8000966:	9302      	str	r3, [sp, #8]
 8000968:	a902      	add	r1, sp, #8
 800096a:	f001 f9fa 	bl	8001d62 <HAL_TIM_ConfigClockSource>
 800096e:	b108      	cbz	r0, 8000974 <MX_TIM1_Init+0x44>
 8000970:	f7ff fec8 	bl	8000704 <Error_Handler>
 8000974:	2300      	movs	r3, #0
 8000976:	4806      	ldr	r0, [pc, #24]	; (8000990 <MX_TIM1_Init+0x60>)
 8000978:	4669      	mov	r1, sp
 800097a:	e9cd 3300 	strd	r3, r3, [sp]
 800097e:	f001 fb77 	bl	8002070 <HAL_TIMEx_MasterConfigSynchronization>
 8000982:	b108      	cbz	r0, 8000988 <MX_TIM1_Init+0x58>
 8000984:	f7ff febe 	bl	8000704 <Error_Handler>
 8000988:	b007      	add	sp, #28
 800098a:	f85d fb04 	ldr.w	pc, [sp], #4
 800098e:	bf00      	nop
 8000990:	20012d40 	.word	0x20012d40
 8000994:	40010000 	.word	0x40010000

08000998 <HAL_TIM_Base_MspInit>:
 8000998:	b537      	push	{r0, r1, r2, r4, r5, lr}
 800099a:	4b17      	ldr	r3, [pc, #92]	; (80009f8 <HAL_TIM_Base_MspInit+0x60>)
 800099c:	6802      	ldr	r2, [r0, #0]
 800099e:	429a      	cmp	r2, r3
 80009a0:	4605      	mov	r5, r0
 80009a2:	d126      	bne.n	80009f2 <HAL_TIM_Base_MspInit+0x5a>
 80009a4:	2300      	movs	r3, #0
 80009a6:	4a15      	ldr	r2, [pc, #84]	; (80009fc <HAL_TIM_Base_MspInit+0x64>)
 80009a8:	9301      	str	r3, [sp, #4]
 80009aa:	6c51      	ldr	r1, [r2, #68]	; 0x44
 80009ac:	4c14      	ldr	r4, [pc, #80]	; (8000a00 <HAL_TIM_Base_MspInit+0x68>)
 80009ae:	f041 0101 	orr.w	r1, r1, #1
 80009b2:	6451      	str	r1, [r2, #68]	; 0x44
 80009b4:	6c52      	ldr	r2, [r2, #68]	; 0x44
 80009b6:	4913      	ldr	r1, [pc, #76]	; (8000a04 <HAL_TIM_Base_MspInit+0x6c>)
 80009b8:	f002 0201 	and.w	r2, r2, #1
 80009bc:	9201      	str	r2, [sp, #4]
 80009be:	9a01      	ldr	r2, [sp, #4]
 80009c0:	f04f 6240 	mov.w	r2, #201326592	; 0xc000000
 80009c4:	e9c4 1200 	strd	r1, r2, [r4]
 80009c8:	2240      	movs	r2, #64	; 0x40
 80009ca:	e9c4 2302 	strd	r2, r3, [r4, #8]
 80009ce:	f44f 6280 	mov.w	r2, #1024	; 0x400
 80009d2:	e9c4 2304 	strd	r2, r3, [r4, #16]
 80009d6:	4620      	mov	r0, r4
 80009d8:	f44f 3240 	mov.w	r2, #196608	; 0x30000
 80009dc:	e9c4 3306 	strd	r3, r3, [r4, #24]
 80009e0:	e9c4 2308 	strd	r2, r3, [r4, #32]
 80009e4:	f000 fa0a 	bl	8000dfc <HAL_DMA_Init>
 80009e8:	b108      	cbz	r0, 80009ee <HAL_TIM_Base_MspInit+0x56>
 80009ea:	f7ff fe8b 	bl	8000704 <Error_Handler>
 80009ee:	622c      	str	r4, [r5, #32]
 80009f0:	63a5      	str	r5, [r4, #56]	; 0x38
 80009f2:	b003      	add	sp, #12
 80009f4:	bd30      	pop	{r4, r5, pc}
 80009f6:	bf00      	nop
 80009f8:	40010000 	.word	0x40010000
 80009fc:	40023800 	.word	0x40023800
 8000a00:	20012d88 	.word	0x20012d88
 8000a04:	40026488 	.word	0x40026488

08000a08 <HAL_TIM_PWM_MspInit>:
 8000a08:	6803      	ldr	r3, [r0, #0]
 8000a0a:	f1b3 4f80 	cmp.w	r3, #1073741824	; 0x40000000
 8000a0e:	b507      	push	{r0, r1, r2, lr}
 8000a10:	d116      	bne.n	8000a40 <HAL_TIM_PWM_MspInit+0x38>
 8000a12:	2200      	movs	r2, #0
 8000a14:	f503 330e 	add.w	r3, r3, #145408	; 0x23800
 8000a18:	9201      	str	r2, [sp, #4]
 8000a1a:	6c19      	ldr	r1, [r3, #64]	; 0x40
 8000a1c:	f041 0101 	orr.w	r1, r1, #1
 8000a20:	6419      	str	r1, [r3, #64]	; 0x40
 8000a22:	6c1b      	ldr	r3, [r3, #64]	; 0x40
 8000a24:	f003 0301 	and.w	r3, r3, #1
 8000a28:	9301      	str	r3, [sp, #4]
 8000a2a:	4611      	mov	r1, r2
 8000a2c:	201c      	movs	r0, #28
 8000a2e:	9b01      	ldr	r3, [sp, #4]
 8000a30:	f000 f978 	bl	8000d24 <HAL_NVIC_SetPriority>
 8000a34:	201c      	movs	r0, #28
 8000a36:	b003      	add	sp, #12
 8000a38:	f85d eb04 	ldr.w	lr, [sp], #4
 8000a3c:	f000 b9a4 	b.w	8000d88 <HAL_NVIC_EnableIRQ>
 8000a40:	b003      	add	sp, #12
 8000a42:	f85d fb04 	ldr.w	pc, [sp], #4
	...

08000a48 <HAL_TIM_MspPostInit>:
 8000a48:	b510      	push	{r4, lr}
 8000a4a:	4604      	mov	r4, r0
 8000a4c:	b086      	sub	sp, #24
 8000a4e:	2214      	movs	r2, #20
 8000a50:	2100      	movs	r1, #0
 8000a52:	a801      	add	r0, sp, #4
 8000a54:	f001 fd3c 	bl	80024d0 <memset>
 8000a58:	6823      	ldr	r3, [r4, #0]
 8000a5a:	f1b3 4f80 	cmp.w	r3, #1073741824	; 0x40000000
 8000a5e:	d11a      	bne.n	8000a96 <HAL_TIM_MspPostInit+0x4e>
 8000a60:	2100      	movs	r1, #0
 8000a62:	f503 330e 	add.w	r3, r3, #145408	; 0x23800
 8000a66:	9100      	str	r1, [sp, #0]
 8000a68:	6b1a      	ldr	r2, [r3, #48]	; 0x30
 8000a6a:	480c      	ldr	r0, [pc, #48]	; (8000a9c <HAL_TIM_MspPostInit+0x54>)
 8000a6c:	f042 0202 	orr.w	r2, r2, #2
 8000a70:	631a      	str	r2, [r3, #48]	; 0x30
 8000a72:	6b1b      	ldr	r3, [r3, #48]	; 0x30
 8000a74:	9103      	str	r1, [sp, #12]
 8000a76:	f003 0302 	and.w	r3, r3, #2
 8000a7a:	9300      	str	r3, [sp, #0]
 8000a7c:	9b00      	ldr	r3, [sp, #0]
 8000a7e:	f44f 6200 	mov.w	r2, #2048	; 0x800
 8000a82:	2302      	movs	r3, #2
 8000a84:	2103      	movs	r1, #3
 8000a86:	e9cd 2301 	strd	r2, r3, [sp, #4]
 8000a8a:	2301      	movs	r3, #1
 8000a8c:	e9cd 1304 	strd	r1, r3, [sp, #16]
 8000a90:	a901      	add	r1, sp, #4
 8000a92:	f000 fb2b 	bl	80010ec <HAL_GPIO_Init>
 8000a96:	b006      	add	sp, #24
 8000a98:	bd10      	pop	{r4, pc}
 8000a9a:	bf00      	nop
 8000a9c:	40020400 	.word	0x40020400

08000aa0 <MX_TIM2_Init>:
 8000aa0:	b510      	push	{r4, lr}
 8000aa2:	2400      	movs	r4, #0
 8000aa4:	b08a      	sub	sp, #40	; 0x28
 8000aa6:	221c      	movs	r2, #28
 8000aa8:	4621      	mov	r1, r4
 8000aaa:	a803      	add	r0, sp, #12
 8000aac:	e9cd 4401 	strd	r4, r4, [sp, #4]
 8000ab0:	f001 fd0e 	bl	80024d0 <memset>
 8000ab4:	481d      	ldr	r0, [pc, #116]	; (8000b2c <MX_TIM2_Init+0x8c>)
 8000ab6:	f04f 4380 	mov.w	r3, #1073741824	; 0x40000000
 8000aba:	e9c0 3400 	strd	r3, r4, [r0]
 8000abe:	f640 236b 	movw	r3, #2667	; 0xa6b
 8000ac2:	e9c0 3403 	strd	r3, r4, [r0, #12]
 8000ac6:	6084      	str	r4, [r0, #8]
 8000ac8:	6184      	str	r4, [r0, #24]
 8000aca:	f001 f883 	bl	8001bd4 <HAL_TIM_PWM_Init>
 8000ace:	b108      	cbz	r0, 8000ad4 <MX_TIM2_Init+0x34>
 8000ad0:	f7ff fe18 	bl	8000704 <Error_Handler>
 8000ad4:	4815      	ldr	r0, [pc, #84]	; (8000b2c <MX_TIM2_Init+0x8c>)
 8000ad6:	a901      	add	r1, sp, #4
 8000ad8:	e9cd 4401 	strd	r4, r4, [sp, #4]
 8000adc:	f001 fac8 	bl	8002070 <HAL_TIMEx_MasterConfigSynchronization>
 8000ae0:	b108      	cbz	r0, 8000ae6 <MX_TIM2_Init+0x46>
 8000ae2:	f7ff fe0f 	bl	8000704 <Error_Handler>
 8000ae6:	2260      	movs	r2, #96	; 0x60
 8000ae8:	f240 13bb 	movw	r3, #443	; 0x1bb
 8000aec:	e9cd 2303 	strd	r2, r3, [sp, #12]
 8000af0:	2302      	movs	r3, #2
 8000af2:	9305      	str	r3, [sp, #20]
 8000af4:	480d      	ldr	r0, [pc, #52]	; (8000b2c <MX_TIM2_Init+0x8c>)
 8000af6:	2300      	movs	r3, #0
 8000af8:	2208      	movs	r2, #8
 8000afa:	a903      	add	r1, sp, #12
 8000afc:	9307      	str	r3, [sp, #28]
 8000afe:	f001 f8cb 	bl	8001c98 <HAL_TIM_PWM_ConfigChannel>
 8000b02:	b108      	cbz	r0, 8000b08 <MX_TIM2_Init+0x68>
 8000b04:	f7ff fdfe 	bl	8000704 <Error_Handler>
 8000b08:	220c      	movs	r2, #12
 8000b0a:	f44f 73a0 	mov.w	r3, #320	; 0x140
 8000b0e:	4807      	ldr	r0, [pc, #28]	; (8000b2c <MX_TIM2_Init+0x8c>)
 8000b10:	9304      	str	r3, [sp, #16]
 8000b12:	eb0d 0102 	add.w	r1, sp, r2
 8000b16:	f001 f8bf 	bl	8001c98 <HAL_TIM_PWM_ConfigChannel>
 8000b1a:	b108      	cbz	r0, 8000b20 <MX_TIM2_Init+0x80>
 8000b1c:	f7ff fdf2 	bl	8000704 <Error_Handler>
 8000b20:	4802      	ldr	r0, [pc, #8]	; (8000b2c <MX_TIM2_Init+0x8c>)
 8000b22:	f7ff ff91 	bl	8000a48 <HAL_TIM_MspPostInit>
 8000b26:	b00a      	add	sp, #40	; 0x28
 8000b28:	bd10      	pop	{r4, pc}
 8000b2a:	bf00      	nop
 8000b2c:	20012de8 	.word	0x20012de8

08000b30 <MX_USART2_UART_Init>:
 8000b30:	480b      	ldr	r0, [pc, #44]	; (8000b60 <MX_USART2_UART_Init+0x30>)
 8000b32:	4a0c      	ldr	r2, [pc, #48]	; (8000b64 <MX_USART2_UART_Init+0x34>)
 8000b34:	b508      	push	{r3, lr}
 8000b36:	f44f 5316 	mov.w	r3, #9600	; 0x2580
 8000b3a:	e9c0 2300 	strd	r2, r3, [r0]
 8000b3e:	2300      	movs	r3, #0
 8000b40:	220c      	movs	r2, #12
 8000b42:	e9c0 3302 	strd	r3, r3, [r0, #8]
 8000b46:	e9c0 2305 	strd	r2, r3, [r0, #20]
 8000b4a:	6103      	str	r3, [r0, #16]
 8000b4c:	61c3      	str	r3, [r0, #28]
 8000b4e:	f001 fb6b 	bl	8002228 <HAL_UART_Init>
 8000b52:	b118      	cbz	r0, 8000b5c <MX_USART2_UART_Init+0x2c>
 8000b54:	e8bd 4008 	ldmia.w	sp!, {r3, lr}
 8000b58:	f7ff bdd4 	b.w	8000704 <Error_Handler>
 8000b5c:	bd08      	pop	{r3, pc}
 8000b5e:	bf00      	nop
 8000b60:	20012e90 	.word	0x20012e90
 8000b64:	40004400 	.word	0x40004400

08000b68 <HAL_UART_MspInit>:
 8000b68:	b570      	push	{r4, r5, r6, lr}
 8000b6a:	4606      	mov	r6, r0
 8000b6c:	b088      	sub	sp, #32
 8000b6e:	2214      	movs	r2, #20
 8000b70:	2100      	movs	r1, #0
 8000b72:	a803      	add	r0, sp, #12
 8000b74:	f001 fcac 	bl	80024d0 <memset>
 8000b78:	6832      	ldr	r2, [r6, #0]
 8000b7a:	4b20      	ldr	r3, [pc, #128]	; (8000bfc <HAL_UART_MspInit+0x94>)
 8000b7c:	429a      	cmp	r2, r3
 8000b7e:	d13b      	bne.n	8000bf8 <HAL_UART_MspInit+0x90>
 8000b80:	2500      	movs	r5, #0
 8000b82:	f503 33fa 	add.w	r3, r3, #128000	; 0x1f400
 8000b86:	9501      	str	r5, [sp, #4]
 8000b88:	6c1a      	ldr	r2, [r3, #64]	; 0x40
 8000b8a:	481d      	ldr	r0, [pc, #116]	; (8000c00 <HAL_UART_MspInit+0x98>)
 8000b8c:	4c1d      	ldr	r4, [pc, #116]	; (8000c04 <HAL_UART_MspInit+0x9c>)
 8000b8e:	f442 3200 	orr.w	r2, r2, #131072	; 0x20000
 8000b92:	641a      	str	r2, [r3, #64]	; 0x40
 8000b94:	6c1a      	ldr	r2, [r3, #64]	; 0x40
 8000b96:	f402 3200 	and.w	r2, r2, #131072	; 0x20000
 8000b9a:	9201      	str	r2, [sp, #4]
 8000b9c:	9a01      	ldr	r2, [sp, #4]
 8000b9e:	9502      	str	r5, [sp, #8]
 8000ba0:	6b1a      	ldr	r2, [r3, #48]	; 0x30
 8000ba2:	f042 0201 	orr.w	r2, r2, #1
 8000ba6:	631a      	str	r2, [r3, #48]	; 0x30
 8000ba8:	6b1b      	ldr	r3, [r3, #48]	; 0x30
 8000baa:	9505      	str	r5, [sp, #20]
 8000bac:	f003 0301 	and.w	r3, r3, #1
 8000bb0:	9302      	str	r3, [sp, #8]
 8000bb2:	9b02      	ldr	r3, [sp, #8]
 8000bb4:	220c      	movs	r2, #12
 8000bb6:	2302      	movs	r3, #2
 8000bb8:	e9cd 2303 	strd	r2, r3, [sp, #12]
 8000bbc:	2103      	movs	r1, #3
 8000bbe:	2307      	movs	r3, #7
 8000bc0:	e9cd 1306 	strd	r1, r3, [sp, #24]
 8000bc4:	a903      	add	r1, sp, #12
 8000bc6:	f000 fa91 	bl	80010ec <HAL_GPIO_Init>
 8000bca:	480f      	ldr	r0, [pc, #60]	; (8000c08 <HAL_UART_MspInit+0xa0>)
 8000bcc:	f04f 6300 	mov.w	r3, #134217728	; 0x8000000
 8000bd0:	e9c4 0300 	strd	r0, r3, [r4]
 8000bd4:	f44f 6380 	mov.w	r3, #1024	; 0x400
 8000bd8:	4620      	mov	r0, r4
 8000bda:	e9c4 5502 	strd	r5, r5, [r4, #8]
 8000bde:	e9c4 3504 	strd	r3, r5, [r4, #16]
 8000be2:	e9c4 5506 	strd	r5, r5, [r4, #24]
 8000be6:	e9c4 5508 	strd	r5, r5, [r4, #32]
 8000bea:	f000 f907 	bl	8000dfc <HAL_DMA_Init>
 8000bee:	b108      	cbz	r0, 8000bf4 <HAL_UART_MspInit+0x8c>
 8000bf0:	f7ff fd88 	bl	8000704 <Error_Handler>
 8000bf4:	63b4      	str	r4, [r6, #56]	; 0x38
 8000bf6:	63a6      	str	r6, [r4, #56]	; 0x38
 8000bf8:	b008      	add	sp, #32
 8000bfa:	bd70      	pop	{r4, r5, r6, pc}
 8000bfc:	40004400 	.word	0x40004400
 8000c00:	40020000 	.word	0x40020000
 8000c04:	20012e30 	.word	0x20012e30
 8000c08:	40026088 	.word	0x40026088

08000c0c <Reset_Handler>:
 8000c0c:	f8df d034 	ldr.w	sp, [pc, #52]	; 8000c44 <LoopFillZerobss+0x14>
 8000c10:	2100      	movs	r1, #0
 8000c12:	e003      	b.n	8000c1c <LoopCopyDataInit>

08000c14 <CopyDataInit>:
 8000c14:	4b0c      	ldr	r3, [pc, #48]	; (8000c48 <LoopFillZerobss+0x18>)
 8000c16:	585b      	ldr	r3, [r3, r1]
 8000c18:	5043      	str	r3, [r0, r1]
 8000c1a:	3104      	adds	r1, #4

08000c1c <LoopCopyDataInit>:
 8000c1c:	480b      	ldr	r0, [pc, #44]	; (8000c4c <LoopFillZerobss+0x1c>)
 8000c1e:	4b0c      	ldr	r3, [pc, #48]	; (8000c50 <LoopFillZerobss+0x20>)
 8000c20:	1842      	adds	r2, r0, r1
 8000c22:	429a      	cmp	r2, r3
 8000c24:	d3f6      	bcc.n	8000c14 <CopyDataInit>
 8000c26:	4a0b      	ldr	r2, [pc, #44]	; (8000c54 <LoopFillZerobss+0x24>)
 8000c28:	e002      	b.n	8000c30 <LoopFillZerobss>

08000c2a <FillZerobss>:
 8000c2a:	2300      	movs	r3, #0
 8000c2c:	f842 3b04 	str.w	r3, [r2], #4

08000c30 <LoopFillZerobss>:
 8000c30:	4b09      	ldr	r3, [pc, #36]	; (8000c58 <LoopFillZerobss+0x28>)
 8000c32:	429a      	cmp	r2, r3
 8000c34:	d3f9      	bcc.n	8000c2a <FillZerobss>
 8000c36:	f7ff fe6d 	bl	8000914 <SystemInit>
 8000c3a:	f001 fc25 	bl	8002488 <__libc_init_array>
 8000c3e:	f7ff fd17 	bl	8000670 <main>
 8000c42:	4770      	bx	lr
 8000c44:	20020000 	.word	0x20020000
 8000c48:	08002528 	.word	0x08002528
 8000c4c:	20000000 	.word	0x20000000
 8000c50:	2000001c 	.word	0x2000001c
 8000c54:	2000001c 	.word	0x2000001c
 8000c58:	20012ed8 	.word	0x20012ed8

08000c5c <ADC_IRQHandler>:
 8000c5c:	e7fe      	b.n	8000c5c <ADC_IRQHandler>
	...

08000c60 <HAL_InitTick>:
 8000c60:	b538      	push	{r3, r4, r5, lr}
 8000c62:	4a0e      	ldr	r2, [pc, #56]	; (8000c9c <HAL_InitTick+0x3c>)
 8000c64:	4b0e      	ldr	r3, [pc, #56]	; (8000ca0 <HAL_InitTick+0x40>)
 8000c66:	4605      	mov	r5, r0
 8000c68:	7818      	ldrb	r0, [r3, #0]
 8000c6a:	f44f 737a 	mov.w	r3, #1000	; 0x3e8
 8000c6e:	fbb3 f3f0 	udiv	r3, r3, r0
 8000c72:	6810      	ldr	r0, [r2, #0]
 8000c74:	fbb0 f0f3 	udiv	r0, r0, r3
 8000c78:	f000 f894 	bl	8000da4 <HAL_SYSTICK_Config>
 8000c7c:	4604      	mov	r4, r0
 8000c7e:	b958      	cbnz	r0, 8000c98 <HAL_InitTick+0x38>
 8000c80:	2d0f      	cmp	r5, #15
 8000c82:	d809      	bhi.n	8000c98 <HAL_InitTick+0x38>
 8000c84:	4602      	mov	r2, r0
 8000c86:	4629      	mov	r1, r5
 8000c88:	f04f 30ff 	mov.w	r0, #4294967295
 8000c8c:	f000 f84a 	bl	8000d24 <HAL_NVIC_SetPriority>
 8000c90:	4b04      	ldr	r3, [pc, #16]	; (8000ca4 <HAL_InitTick+0x44>)
 8000c92:	4620      	mov	r0, r4
 8000c94:	601d      	str	r5, [r3, #0]
 8000c96:	bd38      	pop	{r3, r4, r5, pc}
 8000c98:	2001      	movs	r0, #1
 8000c9a:	e7fc      	b.n	8000c96 <HAL_InitTick+0x36>
 8000c9c:	20000010 	.word	0x20000010
 8000ca0:	20000014 	.word	0x20000014
 8000ca4:	20000018 	.word	0x20000018

08000ca8 <HAL_Init>:
 8000ca8:	b508      	push	{r3, lr}
 8000caa:	4b0b      	ldr	r3, [pc, #44]	; (8000cd8 <HAL_Init+0x30>)
 8000cac:	681a      	ldr	r2, [r3, #0]
 8000cae:	f442 7200 	orr.w	r2, r2, #512	; 0x200
 8000cb2:	601a      	str	r2, [r3, #0]
 8000cb4:	681a      	ldr	r2, [r3, #0]
 8000cb6:	f442 6280 	orr.w	r2, r2, #1024	; 0x400
 8000cba:	601a      	str	r2, [r3, #0]
 8000cbc:	681a      	ldr	r2, [r3, #0]
 8000cbe:	f442 7280 	orr.w	r2, r2, #256	; 0x100
 8000cc2:	601a      	str	r2, [r3, #0]
 8000cc4:	2003      	movs	r0, #3
 8000cc6:	f000 f81b 	bl	8000d00 <HAL_NVIC_SetPriorityGrouping>
 8000cca:	2000      	movs	r0, #0
 8000ccc:	f7ff ffc8 	bl	8000c60 <HAL_InitTick>
 8000cd0:	f7ff fd84 	bl	80007dc <HAL_MspInit>
 8000cd4:	2000      	movs	r0, #0
 8000cd6:	bd08      	pop	{r3, pc}
 8000cd8:	40023c00 	.word	0x40023c00

08000cdc <HAL_IncTick>:
 8000cdc:	4a03      	ldr	r2, [pc, #12]	; (8000cec <HAL_IncTick+0x10>)
 8000cde:	4b04      	ldr	r3, [pc, #16]	; (8000cf0 <HAL_IncTick+0x14>)
 8000ce0:	6811      	ldr	r1, [r2, #0]
 8000ce2:	781b      	ldrb	r3, [r3, #0]
 8000ce4:	440b      	add	r3, r1
 8000ce6:	6013      	str	r3, [r2, #0]
 8000ce8:	4770      	bx	lr
 8000cea:	bf00      	nop
 8000cec:	20012ed4 	.word	0x20012ed4
 8000cf0:	20000014 	.word	0x20000014

08000cf4 <HAL_GetTick>:
 8000cf4:	4b01      	ldr	r3, [pc, #4]	; (8000cfc <HAL_GetTick+0x8>)
 8000cf6:	6818      	ldr	r0, [r3, #0]
 8000cf8:	4770      	bx	lr
 8000cfa:	bf00      	nop
 8000cfc:	20012ed4 	.word	0x20012ed4

08000d00 <HAL_NVIC_SetPriorityGrouping>:
 8000d00:	4907      	ldr	r1, [pc, #28]	; (8000d20 <HAL_NVIC_SetPriorityGrouping+0x20>)
 8000d02:	68ca      	ldr	r2, [r1, #12]
 8000d04:	f422 62e0 	bic.w	r2, r2, #1792	; 0x700
 8000d08:	0203      	lsls	r3, r0, #8
 8000d0a:	0412      	lsls	r2, r2, #16
 8000d0c:	f403 63e0 	and.w	r3, r3, #1792	; 0x700
 8000d10:	0c12      	lsrs	r2, r2, #16
 8000d12:	4313      	orrs	r3, r2
 8000d14:	f043 63bf 	orr.w	r3, r3, #100139008	; 0x5f80000
 8000d18:	f443 3300 	orr.w	r3, r3, #131072	; 0x20000
 8000d1c:	60cb      	str	r3, [r1, #12]
 8000d1e:	4770      	bx	lr
 8000d20:	e000ed00 	.word	0xe000ed00

08000d24 <HAL_NVIC_SetPriority>:
 8000d24:	4b16      	ldr	r3, [pc, #88]	; (8000d80 <HAL_NVIC_SetPriority+0x5c>)
 8000d26:	b530      	push	{r4, r5, lr}
 8000d28:	68dc      	ldr	r4, [r3, #12]
 8000d2a:	f3c4 2402 	ubfx	r4, r4, #8, #3
 8000d2e:	f1c4 0507 	rsb	r5, r4, #7
 8000d32:	1d23      	adds	r3, r4, #4
 8000d34:	2d04      	cmp	r5, #4
 8000d36:	bf28      	it	cs
 8000d38:	2504      	movcs	r5, #4
 8000d3a:	2b06      	cmp	r3, #6
 8000d3c:	f04f 33ff 	mov.w	r3, #4294967295
 8000d40:	bf8c      	ite	hi
 8000d42:	3c03      	subhi	r4, #3
 8000d44:	2400      	movls	r4, #0
 8000d46:	fa03 f505 	lsl.w	r5, r3, r5
 8000d4a:	ea21 0105 	bic.w	r1, r1, r5
 8000d4e:	40a3      	lsls	r3, r4
 8000d50:	ea22 0203 	bic.w	r2, r2, r3
 8000d54:	40a1      	lsls	r1, r4
 8000d56:	2800      	cmp	r0, #0
 8000d58:	ea41 0302 	orr.w	r3, r1, r2
 8000d5c:	bfac      	ite	ge
 8000d5e:	f100 4060 	addge.w	r0, r0, #3758096384	; 0xe0000000
 8000d62:	4a08      	ldrlt	r2, [pc, #32]	; (8000d84 <HAL_NVIC_SetPriority+0x60>)
 8000d64:	ea4f 1303 	mov.w	r3, r3, lsl #4
 8000d68:	bfb8      	it	lt
 8000d6a:	f000 000f 	andlt.w	r0, r0, #15
 8000d6e:	b2db      	uxtb	r3, r3
 8000d70:	bfaa      	itet	ge
 8000d72:	f500 4061 	addge.w	r0, r0, #57600	; 0xe100
 8000d76:	5413      	strblt	r3, [r2, r0]
 8000d78:	f880 3300 	strbge.w	r3, [r0, #768]	; 0x300
 8000d7c:	bd30      	pop	{r4, r5, pc}
 8000d7e:	bf00      	nop
 8000d80:	e000ed00 	.word	0xe000ed00
 8000d84:	e000ed14 	.word	0xe000ed14

08000d88 <HAL_NVIC_EnableIRQ>:
 8000d88:	2800      	cmp	r0, #0
 8000d8a:	db08      	blt.n	8000d9e <HAL_NVIC_EnableIRQ+0x16>
 8000d8c:	0942      	lsrs	r2, r0, #5
 8000d8e:	2301      	movs	r3, #1
 8000d90:	f000 001f 	and.w	r0, r0, #31
 8000d94:	fa03 f000 	lsl.w	r0, r3, r0
 8000d98:	4b01      	ldr	r3, [pc, #4]	; (8000da0 <HAL_NVIC_EnableIRQ+0x18>)
 8000d9a:	f843 0022 	str.w	r0, [r3, r2, lsl #2]
 8000d9e:	4770      	bx	lr
 8000da0:	e000e100 	.word	0xe000e100

08000da4 <HAL_SYSTICK_Config>:
 8000da4:	3801      	subs	r0, #1
 8000da6:	f1b0 7f80 	cmp.w	r0, #16777216	; 0x1000000
 8000daa:	d20a      	bcs.n	8000dc2 <HAL_SYSTICK_Config+0x1e>
 8000dac:	4b06      	ldr	r3, [pc, #24]	; (8000dc8 <HAL_SYSTICK_Config+0x24>)
 8000dae:	4a07      	ldr	r2, [pc, #28]	; (8000dcc <HAL_SYSTICK_Config+0x28>)
 8000db0:	6058      	str	r0, [r3, #4]
 8000db2:	21f0      	movs	r1, #240	; 0xf0
 8000db4:	f882 1023 	strb.w	r1, [r2, #35]	; 0x23
 8000db8:	2000      	movs	r0, #0
 8000dba:	2207      	movs	r2, #7
 8000dbc:	6098      	str	r0, [r3, #8]
 8000dbe:	601a      	str	r2, [r3, #0]
 8000dc0:	4770      	bx	lr
 8000dc2:	2001      	movs	r0, #1
 8000dc4:	4770      	bx	lr
 8000dc6:	bf00      	nop
 8000dc8:	e000e010 	.word	0xe000e010
 8000dcc:	e000ed00 	.word	0xe000ed00

08000dd0 <DMA_CalcBaseAndBitshift>:
 8000dd0:	6803      	ldr	r3, [r0, #0]
 8000dd2:	b510      	push	{r4, lr}
 8000dd4:	4c08      	ldr	r4, [pc, #32]	; (8000df8 <DMA_CalcBaseAndBitshift+0x28>)
 8000dd6:	4602      	mov	r2, r0
 8000dd8:	b2d9      	uxtb	r1, r3
 8000dda:	3910      	subs	r1, #16
 8000ddc:	2018      	movs	r0, #24
 8000dde:	fbb1 f0f0 	udiv	r0, r1, r0
 8000de2:	5c20      	ldrb	r0, [r4, r0]
 8000de4:	65d0      	str	r0, [r2, #92]	; 0x5c
 8000de6:	f423 707f 	bic.w	r0, r3, #1020	; 0x3fc
 8000dea:	f020 0003 	bic.w	r0, r0, #3
 8000dee:	295f      	cmp	r1, #95	; 0x5f
 8000df0:	bf88      	it	hi
 8000df2:	3004      	addhi	r0, #4
 8000df4:	6590      	str	r0, [r2, #88]	; 0x58
 8000df6:	bd10      	pop	{r4, pc}
 8000df8:	08002510 	.word	0x08002510

08000dfc <HAL_DMA_Init>:
 8000dfc:	b570      	push	{r4, r5, r6, lr}
 8000dfe:	4604      	mov	r4, r0
 8000e00:	f7ff ff78 	bl	8000cf4 <HAL_GetTick>
 8000e04:	4605      	mov	r5, r0
 8000e06:	2c00      	cmp	r4, #0
 8000e08:	d073      	beq.n	8000ef2 <HAL_DMA_Init+0xf6>
 8000e0a:	2300      	movs	r3, #0
 8000e0c:	f884 3034 	strb.w	r3, [r4, #52]	; 0x34
 8000e10:	6822      	ldr	r2, [r4, #0]
 8000e12:	2302      	movs	r3, #2
 8000e14:	f884 3035 	strb.w	r3, [r4, #53]	; 0x35
 8000e18:	6813      	ldr	r3, [r2, #0]
 8000e1a:	f023 0301 	bic.w	r3, r3, #1
 8000e1e:	6013      	str	r3, [r2, #0]
 8000e20:	6821      	ldr	r1, [r4, #0]
 8000e22:	680b      	ldr	r3, [r1, #0]
 8000e24:	07d8      	lsls	r0, r3, #31
 8000e26:	d42f      	bmi.n	8000e88 <HAL_DMA_Init+0x8c>
 8000e28:	680b      	ldr	r3, [r1, #0]
 8000e2a:	4d33      	ldr	r5, [pc, #204]	; (8000ef8 <HAL_DMA_Init+0xfc>)
 8000e2c:	69a0      	ldr	r0, [r4, #24]
 8000e2e:	401d      	ands	r5, r3
 8000e30:	e9d4 2301 	ldrd	r2, r3, [r4, #4]
 8000e34:	4313      	orrs	r3, r2
 8000e36:	68e2      	ldr	r2, [r4, #12]
 8000e38:	4313      	orrs	r3, r2
 8000e3a:	6922      	ldr	r2, [r4, #16]
 8000e3c:	4313      	orrs	r3, r2
 8000e3e:	6962      	ldr	r2, [r4, #20]
 8000e40:	4313      	orrs	r3, r2
 8000e42:	69e2      	ldr	r2, [r4, #28]
 8000e44:	4303      	orrs	r3, r0
 8000e46:	4313      	orrs	r3, r2
 8000e48:	6a22      	ldr	r2, [r4, #32]
 8000e4a:	4313      	orrs	r3, r2
 8000e4c:	6a62      	ldr	r2, [r4, #36]	; 0x24
 8000e4e:	2a04      	cmp	r2, #4
 8000e50:	ea43 0305 	orr.w	r3, r3, r5
 8000e54:	bf02      	ittt	eq
 8000e56:	e9d4 560b 	ldrdeq	r5, r6, [r4, #44]	; 0x2c
 8000e5a:	4335      	orreq	r5, r6
 8000e5c:	432b      	orreq	r3, r5
 8000e5e:	600b      	str	r3, [r1, #0]
 8000e60:	694b      	ldr	r3, [r1, #20]
 8000e62:	2a04      	cmp	r2, #4
 8000e64:	f023 0307 	bic.w	r3, r3, #7
 8000e68:	ea43 0302 	orr.w	r3, r3, r2
 8000e6c:	d133      	bne.n	8000ed6 <HAL_DMA_Init+0xda>
 8000e6e:	6aa2      	ldr	r2, [r4, #40]	; 0x28
 8000e70:	6ae5      	ldr	r5, [r4, #44]	; 0x2c
 8000e72:	4313      	orrs	r3, r2
 8000e74:	b37d      	cbz	r5, 8000ed6 <HAL_DMA_Init+0xda>
 8000e76:	b990      	cbnz	r0, 8000e9e <HAL_DMA_Init+0xa2>
 8000e78:	2a01      	cmp	r2, #1
 8000e7a:	d021      	beq.n	8000ec0 <HAL_DMA_Init+0xc4>
 8000e7c:	f032 0202 	bics.w	r2, r2, #2
 8000e80:	d129      	bne.n	8000ed6 <HAL_DMA_Init+0xda>
 8000e82:	01ea      	lsls	r2, r5, #7
 8000e84:	d527      	bpl.n	8000ed6 <HAL_DMA_Init+0xda>
 8000e86:	e01e      	b.n	8000ec6 <HAL_DMA_Init+0xca>
 8000e88:	f7ff ff34 	bl	8000cf4 <HAL_GetTick>
 8000e8c:	1b40      	subs	r0, r0, r5
 8000e8e:	2805      	cmp	r0, #5
 8000e90:	d9c6      	bls.n	8000e20 <HAL_DMA_Init+0x24>
 8000e92:	2320      	movs	r3, #32
 8000e94:	6563      	str	r3, [r4, #84]	; 0x54
 8000e96:	2003      	movs	r0, #3
 8000e98:	f884 0035 	strb.w	r0, [r4, #53]	; 0x35
 8000e9c:	bd70      	pop	{r4, r5, r6, pc}
 8000e9e:	f5b0 5f00 	cmp.w	r0, #8192	; 0x2000
 8000ea2:	d114      	bne.n	8000ece <HAL_DMA_Init+0xd2>
 8000ea4:	2a03      	cmp	r2, #3
 8000ea6:	d816      	bhi.n	8000ed6 <HAL_DMA_Init+0xda>
 8000ea8:	a001      	add	r0, pc, #4	; (adr r0, 8000eb0 <HAL_DMA_Init+0xb4>)
 8000eaa:	f850 f022 	ldr.w	pc, [r0, r2, lsl #2]
 8000eae:	bf00      	nop
 8000eb0:	08000ec7 	.word	0x08000ec7
 8000eb4:	08000e83 	.word	0x08000e83
 8000eb8:	08000ec7 	.word	0x08000ec7
 8000ebc:	08000ec1 	.word	0x08000ec1
 8000ec0:	f1b5 7fc0 	cmp.w	r5, #25165824	; 0x1800000
 8000ec4:	d107      	bne.n	8000ed6 <HAL_DMA_Init+0xda>
 8000ec6:	2340      	movs	r3, #64	; 0x40
 8000ec8:	6563      	str	r3, [r4, #84]	; 0x54
 8000eca:	2001      	movs	r0, #1
 8000ecc:	e7e4      	b.n	8000e98 <HAL_DMA_Init+0x9c>
 8000ece:	2a02      	cmp	r2, #2
 8000ed0:	d9f9      	bls.n	8000ec6 <HAL_DMA_Init+0xca>
 8000ed2:	2a03      	cmp	r2, #3
 8000ed4:	d0d5      	beq.n	8000e82 <HAL_DMA_Init+0x86>
 8000ed6:	614b      	str	r3, [r1, #20]
 8000ed8:	4620      	mov	r0, r4
 8000eda:	f7ff ff79 	bl	8000dd0 <DMA_CalcBaseAndBitshift>
 8000ede:	6de2      	ldr	r2, [r4, #92]	; 0x5c
 8000ee0:	233f      	movs	r3, #63	; 0x3f
 8000ee2:	4093      	lsls	r3, r2
 8000ee4:	6083      	str	r3, [r0, #8]
 8000ee6:	2000      	movs	r0, #0
 8000ee8:	2301      	movs	r3, #1
 8000eea:	6560      	str	r0, [r4, #84]	; 0x54
 8000eec:	f884 3035 	strb.w	r3, [r4, #53]	; 0x35
 8000ef0:	e7d4      	b.n	8000e9c <HAL_DMA_Init+0xa0>
 8000ef2:	2001      	movs	r0, #1
 8000ef4:	e7d2      	b.n	8000e9c <HAL_DMA_Init+0xa0>
 8000ef6:	bf00      	nop
 8000ef8:	f010803f 	.word	0xf010803f

08000efc <HAL_DMA_Start_IT>:
 8000efc:	b570      	push	{r4, r5, r6, lr}
 8000efe:	f890 4034 	ldrb.w	r4, [r0, #52]	; 0x34
 8000f02:	6d86      	ldr	r6, [r0, #88]	; 0x58
 8000f04:	2c01      	cmp	r4, #1
 8000f06:	d031      	beq.n	8000f6c <HAL_DMA_Start_IT+0x70>
 8000f08:	2401      	movs	r4, #1
 8000f0a:	f880 4034 	strb.w	r4, [r0, #52]	; 0x34
 8000f0e:	f890 4035 	ldrb.w	r4, [r0, #53]	; 0x35
 8000f12:	2c01      	cmp	r4, #1
 8000f14:	f04f 0500 	mov.w	r5, #0
 8000f18:	f04f 0402 	mov.w	r4, #2
 8000f1c:	d124      	bne.n	8000f68 <HAL_DMA_Start_IT+0x6c>
 8000f1e:	f880 4035 	strb.w	r4, [r0, #53]	; 0x35
 8000f22:	6804      	ldr	r4, [r0, #0]
 8000f24:	6545      	str	r5, [r0, #84]	; 0x54
 8000f26:	6825      	ldr	r5, [r4, #0]
 8000f28:	f425 2580 	bic.w	r5, r5, #262144	; 0x40000
 8000f2c:	6025      	str	r5, [r4, #0]
 8000f2e:	6063      	str	r3, [r4, #4]
 8000f30:	6883      	ldr	r3, [r0, #8]
 8000f32:	2b40      	cmp	r3, #64	; 0x40
 8000f34:	bf0e      	itee	eq
 8000f36:	60a2      	streq	r2, [r4, #8]
 8000f38:	60a1      	strne	r1, [r4, #8]
 8000f3a:	60e2      	strne	r2, [r4, #12]
 8000f3c:	6dc2      	ldr	r2, [r0, #92]	; 0x5c
 8000f3e:	bf08      	it	eq
 8000f40:	60e1      	streq	r1, [r4, #12]
 8000f42:	233f      	movs	r3, #63	; 0x3f
 8000f44:	4093      	lsls	r3, r2
 8000f46:	60b3      	str	r3, [r6, #8]
 8000f48:	6823      	ldr	r3, [r4, #0]
 8000f4a:	f043 0316 	orr.w	r3, r3, #22
 8000f4e:	6023      	str	r3, [r4, #0]
 8000f50:	6c03      	ldr	r3, [r0, #64]	; 0x40
 8000f52:	b11b      	cbz	r3, 8000f5c <HAL_DMA_Start_IT+0x60>
 8000f54:	6823      	ldr	r3, [r4, #0]
 8000f56:	f043 0308 	orr.w	r3, r3, #8
 8000f5a:	6023      	str	r3, [r4, #0]
 8000f5c:	6823      	ldr	r3, [r4, #0]
 8000f5e:	f043 0301 	orr.w	r3, r3, #1
 8000f62:	6023      	str	r3, [r4, #0]
 8000f64:	2000      	movs	r0, #0
 8000f66:	bd70      	pop	{r4, r5, r6, pc}
 8000f68:	f880 5034 	strb.w	r5, [r0, #52]	; 0x34
 8000f6c:	2002      	movs	r0, #2
 8000f6e:	e7fa      	b.n	8000f66 <HAL_DMA_Start_IT+0x6a>

08000f70 <HAL_DMA_IRQHandler>:
 8000f70:	b5f7      	push	{r0, r1, r2, r4, r5, r6, r7, lr}
 8000f72:	2300      	movs	r3, #0
 8000f74:	9301      	str	r3, [sp, #4]
 8000f76:	4b5c      	ldr	r3, [pc, #368]	; (80010e8 <HAL_DMA_IRQHandler+0x178>)
 8000f78:	6d85      	ldr	r5, [r0, #88]	; 0x58
 8000f7a:	681f      	ldr	r7, [r3, #0]
 8000f7c:	6dc3      	ldr	r3, [r0, #92]	; 0x5c
 8000f7e:	682e      	ldr	r6, [r5, #0]
 8000f80:	2208      	movs	r2, #8
 8000f82:	409a      	lsls	r2, r3
 8000f84:	4232      	tst	r2, r6
 8000f86:	4604      	mov	r4, r0
 8000f88:	d00c      	beq.n	8000fa4 <HAL_DMA_IRQHandler+0x34>
 8000f8a:	6801      	ldr	r1, [r0, #0]
 8000f8c:	6808      	ldr	r0, [r1, #0]
 8000f8e:	0740      	lsls	r0, r0, #29
 8000f90:	d508      	bpl.n	8000fa4 <HAL_DMA_IRQHandler+0x34>
 8000f92:	6808      	ldr	r0, [r1, #0]
 8000f94:	f020 0004 	bic.w	r0, r0, #4
 8000f98:	6008      	str	r0, [r1, #0]
 8000f9a:	60aa      	str	r2, [r5, #8]
 8000f9c:	6d62      	ldr	r2, [r4, #84]	; 0x54
 8000f9e:	f042 0201 	orr.w	r2, r2, #1
 8000fa2:	6562      	str	r2, [r4, #84]	; 0x54
 8000fa4:	2201      	movs	r2, #1
 8000fa6:	409a      	lsls	r2, r3
 8000fa8:	4232      	tst	r2, r6
 8000faa:	d008      	beq.n	8000fbe <HAL_DMA_IRQHandler+0x4e>
 8000fac:	6821      	ldr	r1, [r4, #0]
 8000fae:	6949      	ldr	r1, [r1, #20]
 8000fb0:	0609      	lsls	r1, r1, #24
 8000fb2:	bf41      	itttt	mi
 8000fb4:	60aa      	strmi	r2, [r5, #8]
 8000fb6:	6d62      	ldrmi	r2, [r4, #84]	; 0x54
 8000fb8:	f042 0202 	orrmi.w	r2, r2, #2
 8000fbc:	6562      	strmi	r2, [r4, #84]	; 0x54
 8000fbe:	2204      	movs	r2, #4
 8000fc0:	409a      	lsls	r2, r3
 8000fc2:	4232      	tst	r2, r6
 8000fc4:	d008      	beq.n	8000fd8 <HAL_DMA_IRQHandler+0x68>
 8000fc6:	6821      	ldr	r1, [r4, #0]
 8000fc8:	6809      	ldr	r1, [r1, #0]
 8000fca:	0788      	lsls	r0, r1, #30
 8000fcc:	bf41      	itttt	mi
 8000fce:	60aa      	strmi	r2, [r5, #8]
 8000fd0:	6d62      	ldrmi	r2, [r4, #84]	; 0x54
 8000fd2:	f042 0204 	orrmi.w	r2, r2, #4
 8000fd6:	6562      	strmi	r2, [r4, #84]	; 0x54
 8000fd8:	2210      	movs	r2, #16
 8000fda:	409a      	lsls	r2, r3
 8000fdc:	4232      	tst	r2, r6
 8000fde:	d010      	beq.n	8001002 <HAL_DMA_IRQHandler+0x92>
 8000fe0:	6823      	ldr	r3, [r4, #0]
 8000fe2:	6819      	ldr	r1, [r3, #0]
 8000fe4:	0709      	lsls	r1, r1, #28
 8000fe6:	d50c      	bpl.n	8001002 <HAL_DMA_IRQHandler+0x92>
 8000fe8:	60aa      	str	r2, [r5, #8]
 8000fea:	681a      	ldr	r2, [r3, #0]
 8000fec:	0350      	lsls	r0, r2, #13
 8000fee:	d537      	bpl.n	8001060 <HAL_DMA_IRQHandler+0xf0>
 8000ff0:	681b      	ldr	r3, [r3, #0]
 8000ff2:	0319      	lsls	r1, r3, #12
 8000ff4:	d401      	bmi.n	8000ffa <HAL_DMA_IRQHandler+0x8a>
 8000ff6:	6c23      	ldr	r3, [r4, #64]	; 0x40
 8000ff8:	e000      	b.n	8000ffc <HAL_DMA_IRQHandler+0x8c>
 8000ffa:	6ca3      	ldr	r3, [r4, #72]	; 0x48
 8000ffc:	b10b      	cbz	r3, 8001002 <HAL_DMA_IRQHandler+0x92>
 8000ffe:	4620      	mov	r0, r4
 8001000:	4798      	blx	r3
 8001002:	6de1      	ldr	r1, [r4, #92]	; 0x5c
 8001004:	2220      	movs	r2, #32
 8001006:	408a      	lsls	r2, r1
 8001008:	4232      	tst	r2, r6
 800100a:	d03a      	beq.n	8001082 <HAL_DMA_IRQHandler+0x112>
 800100c:	6823      	ldr	r3, [r4, #0]
 800100e:	6818      	ldr	r0, [r3, #0]
 8001010:	06c6      	lsls	r6, r0, #27
 8001012:	d536      	bpl.n	8001082 <HAL_DMA_IRQHandler+0x112>
 8001014:	60aa      	str	r2, [r5, #8]
 8001016:	f894 2035 	ldrb.w	r2, [r4, #53]	; 0x35
 800101a:	2a05      	cmp	r2, #5
 800101c:	681a      	ldr	r2, [r3, #0]
 800101e:	d127      	bne.n	8001070 <HAL_DMA_IRQHandler+0x100>
 8001020:	f022 0216 	bic.w	r2, r2, #22
 8001024:	601a      	str	r2, [r3, #0]
 8001026:	695a      	ldr	r2, [r3, #20]
 8001028:	f022 0280 	bic.w	r2, r2, #128	; 0x80
 800102c:	615a      	str	r2, [r3, #20]
 800102e:	6c22      	ldr	r2, [r4, #64]	; 0x40
 8001030:	b90a      	cbnz	r2, 8001036 <HAL_DMA_IRQHandler+0xc6>
 8001032:	6ca2      	ldr	r2, [r4, #72]	; 0x48
 8001034:	b11a      	cbz	r2, 800103e <HAL_DMA_IRQHandler+0xce>
 8001036:	681a      	ldr	r2, [r3, #0]
 8001038:	f022 0208 	bic.w	r2, r2, #8
 800103c:	601a      	str	r2, [r3, #0]
 800103e:	233f      	movs	r3, #63	; 0x3f
 8001040:	408b      	lsls	r3, r1
 8001042:	60ab      	str	r3, [r5, #8]
 8001044:	2300      	movs	r3, #0
 8001046:	f884 3034 	strb.w	r3, [r4, #52]	; 0x34
 800104a:	2301      	movs	r3, #1
 800104c:	f884 3035 	strb.w	r3, [r4, #53]	; 0x35
 8001050:	6d23      	ldr	r3, [r4, #80]	; 0x50
 8001052:	2b00      	cmp	r3, #0
 8001054:	d045      	beq.n	80010e2 <HAL_DMA_IRQHandler+0x172>
 8001056:	4620      	mov	r0, r4
 8001058:	b003      	add	sp, #12
 800105a:	e8bd 40f0 	ldmia.w	sp!, {r4, r5, r6, r7, lr}
 800105e:	4718      	bx	r3
 8001060:	681a      	ldr	r2, [r3, #0]
 8001062:	05d2      	lsls	r2, r2, #23
 8001064:	bf5e      	ittt	pl
 8001066:	681a      	ldrpl	r2, [r3, #0]
 8001068:	f022 0208 	bicpl.w	r2, r2, #8
 800106c:	601a      	strpl	r2, [r3, #0]
 800106e:	e7c2      	b.n	8000ff6 <HAL_DMA_IRQHandler+0x86>
 8001070:	0350      	lsls	r0, r2, #13
 8001072:	d527      	bpl.n	80010c4 <HAL_DMA_IRQHandler+0x154>
 8001074:	681b      	ldr	r3, [r3, #0]
 8001076:	0319      	lsls	r1, r3, #12
 8001078:	d431      	bmi.n	80010de <HAL_DMA_IRQHandler+0x16e>
 800107a:	6c63      	ldr	r3, [r4, #68]	; 0x44
 800107c:	b10b      	cbz	r3, 8001082 <HAL_DMA_IRQHandler+0x112>
 800107e:	4620      	mov	r0, r4
 8001080:	4798      	blx	r3
 8001082:	6d63      	ldr	r3, [r4, #84]	; 0x54
 8001084:	b36b      	cbz	r3, 80010e2 <HAL_DMA_IRQHandler+0x172>
 8001086:	6d63      	ldr	r3, [r4, #84]	; 0x54
 8001088:	07da      	lsls	r2, r3, #31
 800108a:	d519      	bpl.n	80010c0 <HAL_DMA_IRQHandler+0x150>
 800108c:	6822      	ldr	r2, [r4, #0]
 800108e:	f44f 5316 	mov.w	r3, #9600	; 0x2580
 8001092:	fbb7 f7f3 	udiv	r7, r7, r3
 8001096:	2305      	movs	r3, #5
 8001098:	f884 3035 	strb.w	r3, [r4, #53]	; 0x35
 800109c:	6813      	ldr	r3, [r2, #0]
 800109e:	f023 0301 	bic.w	r3, r3, #1
 80010a2:	6013      	str	r3, [r2, #0]
 80010a4:	9b01      	ldr	r3, [sp, #4]
 80010a6:	3301      	adds	r3, #1
 80010a8:	42bb      	cmp	r3, r7
 80010aa:	9301      	str	r3, [sp, #4]
 80010ac:	d802      	bhi.n	80010b4 <HAL_DMA_IRQHandler+0x144>
 80010ae:	6813      	ldr	r3, [r2, #0]
 80010b0:	07db      	lsls	r3, r3, #31
 80010b2:	d4f7      	bmi.n	80010a4 <HAL_DMA_IRQHandler+0x134>
 80010b4:	2300      	movs	r3, #0
 80010b6:	f884 3034 	strb.w	r3, [r4, #52]	; 0x34
 80010ba:	2301      	movs	r3, #1
 80010bc:	f884 3035 	strb.w	r3, [r4, #53]	; 0x35
 80010c0:	6ce3      	ldr	r3, [r4, #76]	; 0x4c
 80010c2:	e7c6      	b.n	8001052 <HAL_DMA_IRQHandler+0xe2>
 80010c4:	681a      	ldr	r2, [r3, #0]
 80010c6:	f412 7280 	ands.w	r2, r2, #256	; 0x100
 80010ca:	d108      	bne.n	80010de <HAL_DMA_IRQHandler+0x16e>
 80010cc:	6819      	ldr	r1, [r3, #0]
 80010ce:	f021 0110 	bic.w	r1, r1, #16
 80010d2:	6019      	str	r1, [r3, #0]
 80010d4:	2301      	movs	r3, #1
 80010d6:	f884 2034 	strb.w	r2, [r4, #52]	; 0x34
 80010da:	f884 3035 	strb.w	r3, [r4, #53]	; 0x35
 80010de:	6be3      	ldr	r3, [r4, #60]	; 0x3c
 80010e0:	e7cc      	b.n	800107c <HAL_DMA_IRQHandler+0x10c>
 80010e2:	b003      	add	sp, #12
 80010e4:	bdf0      	pop	{r4, r5, r6, r7, pc}
 80010e6:	bf00      	nop
 80010e8:	20000010 	.word	0x20000010

080010ec <HAL_GPIO_Init>:
 80010ec:	e92d 4ff7 	stmdb	sp!, {r0, r1, r2, r4, r5, r6, r7, r8, r9, sl, fp, lr}
 80010f0:	f8df 91a8 	ldr.w	r9, [pc, #424]	; 800129c <HAL_GPIO_Init+0x1b0>
 80010f4:	4a67      	ldr	r2, [pc, #412]	; (8001294 <HAL_GPIO_Init+0x1a8>)
 80010f6:	2300      	movs	r3, #0
 80010f8:	680d      	ldr	r5, [r1, #0]
 80010fa:	2401      	movs	r4, #1
 80010fc:	409c      	lsls	r4, r3
 80010fe:	ea04 0c05 	and.w	ip, r4, r5
 8001102:	43ac      	bics	r4, r5
 8001104:	f040 80b0 	bne.w	8001268 <HAL_GPIO_Init+0x17c>
 8001108:	684d      	ldr	r5, [r1, #4]
 800110a:	f005 0403 	and.w	r4, r5, #3
 800110e:	ea4f 0843 	mov.w	r8, r3, lsl #1
 8001112:	2603      	movs	r6, #3
 8001114:	1e67      	subs	r7, r4, #1
 8001116:	fa06 f608 	lsl.w	r6, r6, r8
 800111a:	2f01      	cmp	r7, #1
 800111c:	ea6f 0606 	mvn.w	r6, r6
 8001120:	d834      	bhi.n	800118c <HAL_GPIO_Init+0xa0>
 8001122:	6887      	ldr	r7, [r0, #8]
 8001124:	ea07 0e06 	and.w	lr, r7, r6
 8001128:	68cf      	ldr	r7, [r1, #12]
 800112a:	fa07 f708 	lsl.w	r7, r7, r8
 800112e:	ea47 070e 	orr.w	r7, r7, lr
 8001132:	6087      	str	r7, [r0, #8]
 8001134:	6847      	ldr	r7, [r0, #4]
 8001136:	ea27 0e0c 	bic.w	lr, r7, ip
 800113a:	f3c5 1700 	ubfx	r7, r5, #4, #1
 800113e:	409f      	lsls	r7, r3
 8001140:	ea47 070e 	orr.w	r7, r7, lr
 8001144:	6047      	str	r7, [r0, #4]
 8001146:	68c7      	ldr	r7, [r0, #12]
 8001148:	ea07 0e06 	and.w	lr, r7, r6
 800114c:	688f      	ldr	r7, [r1, #8]
 800114e:	fa07 f708 	lsl.w	r7, r7, r8
 8001152:	ea47 070e 	orr.w	r7, r7, lr
 8001156:	2c02      	cmp	r4, #2
 8001158:	60c7      	str	r7, [r0, #12]
 800115a:	d119      	bne.n	8001190 <HAL_GPIO_Init+0xa4>
 800115c:	ea4f 0ad3 	mov.w	sl, r3, lsr #3
 8001160:	eb00 0a8a 	add.w	sl, r0, sl, lsl #2
 8001164:	f003 0b07 	and.w	fp, r3, #7
 8001168:	f8da 7020 	ldr.w	r7, [sl, #32]
 800116c:	ea4f 0b8b 	mov.w	fp, fp, lsl #2
 8001170:	f04f 0e0f 	mov.w	lr, #15
 8001174:	fa0e fe0b 	lsl.w	lr, lr, fp
 8001178:	ea27 0e0e 	bic.w	lr, r7, lr
 800117c:	690f      	ldr	r7, [r1, #16]
 800117e:	fa07 f70b 	lsl.w	r7, r7, fp
 8001182:	ea47 070e 	orr.w	r7, r7, lr
 8001186:	f8ca 7020 	str.w	r7, [sl, #32]
 800118a:	e001      	b.n	8001190 <HAL_GPIO_Init+0xa4>
 800118c:	2c03      	cmp	r4, #3
 800118e:	d1da      	bne.n	8001146 <HAL_GPIO_Init+0x5a>
 8001190:	6807      	ldr	r7, [r0, #0]
 8001192:	fa04 f408 	lsl.w	r4, r4, r8
 8001196:	403e      	ands	r6, r7
 8001198:	4326      	orrs	r6, r4
 800119a:	00ec      	lsls	r4, r5, #3
 800119c:	6006      	str	r6, [r0, #0]
 800119e:	d563      	bpl.n	8001268 <HAL_GPIO_Init+0x17c>
 80011a0:	f04f 0a00 	mov.w	sl, #0
 80011a4:	f8cd a004 	str.w	sl, [sp, #4]
 80011a8:	f8d9 6044 	ldr.w	r6, [r9, #68]	; 0x44
 80011ac:	4c3a      	ldr	r4, [pc, #232]	; (8001298 <HAL_GPIO_Init+0x1ac>)
 80011ae:	f446 4680 	orr.w	r6, r6, #16384	; 0x4000
 80011b2:	f8c9 6044 	str.w	r6, [r9, #68]	; 0x44
 80011b6:	f8d9 6044 	ldr.w	r6, [r9, #68]	; 0x44
 80011ba:	f406 4680 	and.w	r6, r6, #16384	; 0x4000
 80011be:	9601      	str	r6, [sp, #4]
 80011c0:	9e01      	ldr	r6, [sp, #4]
 80011c2:	f023 0603 	bic.w	r6, r3, #3
 80011c6:	f106 4680 	add.w	r6, r6, #1073741824	; 0x40000000
 80011ca:	f506 369c 	add.w	r6, r6, #79872	; 0x13800
 80011ce:	f003 0e03 	and.w	lr, r3, #3
 80011d2:	f8d6 8008 	ldr.w	r8, [r6, #8]
 80011d6:	ea4f 0e8e 	mov.w	lr, lr, lsl #2
 80011da:	270f      	movs	r7, #15
 80011dc:	fa07 f70e 	lsl.w	r7, r7, lr
 80011e0:	42a0      	cmp	r0, r4
 80011e2:	ea28 0707 	bic.w	r7, r8, r7
 80011e6:	d046      	beq.n	8001276 <HAL_GPIO_Init+0x18a>
 80011e8:	f504 6480 	add.w	r4, r4, #1024	; 0x400
 80011ec:	42a0      	cmp	r0, r4
 80011ee:	d044      	beq.n	800127a <HAL_GPIO_Init+0x18e>
 80011f0:	f504 6480 	add.w	r4, r4, #1024	; 0x400
 80011f4:	42a0      	cmp	r0, r4
 80011f6:	d042      	beq.n	800127e <HAL_GPIO_Init+0x192>
 80011f8:	f504 6480 	add.w	r4, r4, #1024	; 0x400
 80011fc:	42a0      	cmp	r0, r4
 80011fe:	d040      	beq.n	8001282 <HAL_GPIO_Init+0x196>
 8001200:	f504 6480 	add.w	r4, r4, #1024	; 0x400
 8001204:	42a0      	cmp	r0, r4
 8001206:	d03e      	beq.n	8001286 <HAL_GPIO_Init+0x19a>
 8001208:	f504 6480 	add.w	r4, r4, #1024	; 0x400
 800120c:	42a0      	cmp	r0, r4
 800120e:	d03c      	beq.n	800128a <HAL_GPIO_Init+0x19e>
 8001210:	f504 6480 	add.w	r4, r4, #1024	; 0x400
 8001214:	42a0      	cmp	r0, r4
 8001216:	d03a      	beq.n	800128e <HAL_GPIO_Init+0x1a2>
 8001218:	f504 6480 	add.w	r4, r4, #1024	; 0x400
 800121c:	42a0      	cmp	r0, r4
 800121e:	bf0c      	ite	eq
 8001220:	2407      	moveq	r4, #7
 8001222:	2408      	movne	r4, #8
 8001224:	fa04 f40e 	lsl.w	r4, r4, lr
 8001228:	433c      	orrs	r4, r7
 800122a:	60b4      	str	r4, [r6, #8]
 800122c:	6814      	ldr	r4, [r2, #0]
 800122e:	ea6f 060c 	mvn.w	r6, ip
 8001232:	03ef      	lsls	r7, r5, #15
 8001234:	bf54      	ite	pl
 8001236:	4034      	andpl	r4, r6
 8001238:	ea4c 0404 	orrmi.w	r4, ip, r4
 800123c:	6014      	str	r4, [r2, #0]
 800123e:	6854      	ldr	r4, [r2, #4]
 8001240:	03af      	lsls	r7, r5, #14
 8001242:	bf54      	ite	pl
 8001244:	4034      	andpl	r4, r6
 8001246:	ea4c 0404 	orrmi.w	r4, ip, r4
 800124a:	6054      	str	r4, [r2, #4]
 800124c:	6894      	ldr	r4, [r2, #8]
 800124e:	02ef      	lsls	r7, r5, #11
 8001250:	bf54      	ite	pl
 8001252:	4034      	andpl	r4, r6
 8001254:	ea4c 0404 	orrmi.w	r4, ip, r4
 8001258:	6094      	str	r4, [r2, #8]
 800125a:	68d4      	ldr	r4, [r2, #12]
 800125c:	02ad      	lsls	r5, r5, #10
 800125e:	bf54      	ite	pl
 8001260:	4034      	andpl	r4, r6
 8001262:	ea4c 0404 	orrmi.w	r4, ip, r4
 8001266:	60d4      	str	r4, [r2, #12]
 8001268:	3301      	adds	r3, #1
 800126a:	2b10      	cmp	r3, #16
 800126c:	f47f af44 	bne.w	80010f8 <HAL_GPIO_Init+0xc>
 8001270:	b003      	add	sp, #12
 8001272:	e8bd 8ff0 	ldmia.w	sp!, {r4, r5, r6, r7, r8, r9, sl, fp, pc}
 8001276:	4654      	mov	r4, sl
 8001278:	e7d4      	b.n	8001224 <HAL_GPIO_Init+0x138>
 800127a:	2401      	movs	r4, #1
 800127c:	e7d2      	b.n	8001224 <HAL_GPIO_Init+0x138>
 800127e:	2402      	movs	r4, #2
 8001280:	e7d0      	b.n	8001224 <HAL_GPIO_Init+0x138>
 8001282:	2403      	movs	r4, #3
 8001284:	e7ce      	b.n	8001224 <HAL_GPIO_Init+0x138>
 8001286:	2404      	movs	r4, #4
 8001288:	e7cc      	b.n	8001224 <HAL_GPIO_Init+0x138>
 800128a:	2405      	movs	r4, #5
 800128c:	e7ca      	b.n	8001224 <HAL_GPIO_Init+0x138>
 800128e:	2406      	movs	r4, #6
 8001290:	e7c8      	b.n	8001224 <HAL_GPIO_Init+0x138>
 8001292:	bf00      	nop
 8001294:	40013c00 	.word	0x40013c00
 8001298:	40020000 	.word	0x40020000
 800129c:	40023800 	.word	0x40023800

080012a0 <HAL_GPIO_WritePin>:
 80012a0:	b10a      	cbz	r2, 80012a6 <HAL_GPIO_WritePin+0x6>
 80012a2:	6181      	str	r1, [r0, #24]
 80012a4:	4770      	bx	lr
 80012a6:	0409      	lsls	r1, r1, #16
 80012a8:	e7fb      	b.n	80012a2 <HAL_GPIO_WritePin+0x2>
	...

080012ac <HAL_RCC_OscConfig>:
 80012ac:	e92d 41f3 	stmdb	sp!, {r0, r1, r4, r5, r6, r7, r8, lr}
 80012b0:	4604      	mov	r4, r0
 80012b2:	b340      	cbz	r0, 8001306 <HAL_RCC_OscConfig+0x5a>
 80012b4:	6803      	ldr	r3, [r0, #0]
 80012b6:	07dd      	lsls	r5, r3, #31
 80012b8:	d410      	bmi.n	80012dc <HAL_RCC_OscConfig+0x30>
 80012ba:	6823      	ldr	r3, [r4, #0]
 80012bc:	0798      	lsls	r0, r3, #30
 80012be:	d45e      	bmi.n	800137e <HAL_RCC_OscConfig+0xd2>
 80012c0:	6823      	ldr	r3, [r4, #0]
 80012c2:	071a      	lsls	r2, r3, #28
 80012c4:	f100 80a0 	bmi.w	8001408 <HAL_RCC_OscConfig+0x15c>
 80012c8:	6823      	ldr	r3, [r4, #0]
 80012ca:	075b      	lsls	r3, r3, #29
 80012cc:	f100 80be 	bmi.w	800144c <HAL_RCC_OscConfig+0x1a0>
 80012d0:	69a0      	ldr	r0, [r4, #24]
 80012d2:	2800      	cmp	r0, #0
 80012d4:	f040 811f 	bne.w	8001516 <HAL_RCC_OscConfig+0x26a>
 80012d8:	2000      	movs	r0, #0
 80012da:	e02b      	b.n	8001334 <HAL_RCC_OscConfig+0x88>
 80012dc:	4ba6      	ldr	r3, [pc, #664]	; (8001578 <HAL_RCC_OscConfig+0x2cc>)
 80012de:	689a      	ldr	r2, [r3, #8]
 80012e0:	f002 020c 	and.w	r2, r2, #12
 80012e4:	2a04      	cmp	r2, #4
 80012e6:	d007      	beq.n	80012f8 <HAL_RCC_OscConfig+0x4c>
 80012e8:	689a      	ldr	r2, [r3, #8]
 80012ea:	f002 020c 	and.w	r2, r2, #12
 80012ee:	2a08      	cmp	r2, #8
 80012f0:	d10b      	bne.n	800130a <HAL_RCC_OscConfig+0x5e>
 80012f2:	685a      	ldr	r2, [r3, #4]
 80012f4:	0251      	lsls	r1, r2, #9
 80012f6:	d508      	bpl.n	800130a <HAL_RCC_OscConfig+0x5e>
 80012f8:	4b9f      	ldr	r3, [pc, #636]	; (8001578 <HAL_RCC_OscConfig+0x2cc>)
 80012fa:	681b      	ldr	r3, [r3, #0]
 80012fc:	039a      	lsls	r2, r3, #14
 80012fe:	d5dc      	bpl.n	80012ba <HAL_RCC_OscConfig+0xe>
 8001300:	6863      	ldr	r3, [r4, #4]
 8001302:	2b00      	cmp	r3, #0
 8001304:	d1d9      	bne.n	80012ba <HAL_RCC_OscConfig+0xe>
 8001306:	2001      	movs	r0, #1
 8001308:	e014      	b.n	8001334 <HAL_RCC_OscConfig+0x88>
 800130a:	6862      	ldr	r2, [r4, #4]
 800130c:	f5b2 3f80 	cmp.w	r2, #65536	; 0x10000
 8001310:	d113      	bne.n	800133a <HAL_RCC_OscConfig+0x8e>
 8001312:	681a      	ldr	r2, [r3, #0]
 8001314:	f442 3280 	orr.w	r2, r2, #65536	; 0x10000
 8001318:	601a      	str	r2, [r3, #0]
 800131a:	f7ff fceb 	bl	8000cf4 <HAL_GetTick>
 800131e:	4e96      	ldr	r6, [pc, #600]	; (8001578 <HAL_RCC_OscConfig+0x2cc>)
 8001320:	4605      	mov	r5, r0
 8001322:	6833      	ldr	r3, [r6, #0]
 8001324:	039b      	lsls	r3, r3, #14
 8001326:	d4c8      	bmi.n	80012ba <HAL_RCC_OscConfig+0xe>
 8001328:	f7ff fce4 	bl	8000cf4 <HAL_GetTick>
 800132c:	1b40      	subs	r0, r0, r5
 800132e:	2864      	cmp	r0, #100	; 0x64
 8001330:	d9f7      	bls.n	8001322 <HAL_RCC_OscConfig+0x76>
 8001332:	2003      	movs	r0, #3
 8001334:	b002      	add	sp, #8
 8001336:	e8bd 81f0 	ldmia.w	sp!, {r4, r5, r6, r7, r8, pc}
 800133a:	4d8f      	ldr	r5, [pc, #572]	; (8001578 <HAL_RCC_OscConfig+0x2cc>)
 800133c:	f5b2 2fa0 	cmp.w	r2, #327680	; 0x50000
 8001340:	682b      	ldr	r3, [r5, #0]
 8001342:	d107      	bne.n	8001354 <HAL_RCC_OscConfig+0xa8>
 8001344:	f443 2380 	orr.w	r3, r3, #262144	; 0x40000
 8001348:	602b      	str	r3, [r5, #0]
 800134a:	682b      	ldr	r3, [r5, #0]
 800134c:	f443 3380 	orr.w	r3, r3, #65536	; 0x10000
 8001350:	602b      	str	r3, [r5, #0]
 8001352:	e7e2      	b.n	800131a <HAL_RCC_OscConfig+0x6e>
 8001354:	f423 3380 	bic.w	r3, r3, #65536	; 0x10000
 8001358:	602b      	str	r3, [r5, #0]
 800135a:	682b      	ldr	r3, [r5, #0]
 800135c:	f423 2380 	bic.w	r3, r3, #262144	; 0x40000
 8001360:	602b      	str	r3, [r5, #0]
 8001362:	2a00      	cmp	r2, #0
 8001364:	d1d9      	bne.n	800131a <HAL_RCC_OscConfig+0x6e>
 8001366:	f7ff fcc5 	bl	8000cf4 <HAL_GetTick>
 800136a:	4606      	mov	r6, r0
 800136c:	682b      	ldr	r3, [r5, #0]
 800136e:	039f      	lsls	r7, r3, #14
 8001370:	d5a3      	bpl.n	80012ba <HAL_RCC_OscConfig+0xe>
 8001372:	f7ff fcbf 	bl	8000cf4 <HAL_GetTick>
 8001376:	1b80      	subs	r0, r0, r6
 8001378:	2864      	cmp	r0, #100	; 0x64
 800137a:	d9f7      	bls.n	800136c <HAL_RCC_OscConfig+0xc0>
 800137c:	e7d9      	b.n	8001332 <HAL_RCC_OscConfig+0x86>
 800137e:	4b7e      	ldr	r3, [pc, #504]	; (8001578 <HAL_RCC_OscConfig+0x2cc>)
 8001380:	689a      	ldr	r2, [r3, #8]
 8001382:	f012 0f0c 	tst.w	r2, #12
 8001386:	d007      	beq.n	8001398 <HAL_RCC_OscConfig+0xec>
 8001388:	689a      	ldr	r2, [r3, #8]
 800138a:	f002 020c 	and.w	r2, r2, #12
 800138e:	2a08      	cmp	r2, #8
 8001390:	d111      	bne.n	80013b6 <HAL_RCC_OscConfig+0x10a>
 8001392:	685b      	ldr	r3, [r3, #4]
 8001394:	025e      	lsls	r6, r3, #9
 8001396:	d40e      	bmi.n	80013b6 <HAL_RCC_OscConfig+0x10a>
 8001398:	4b77      	ldr	r3, [pc, #476]	; (8001578 <HAL_RCC_OscConfig+0x2cc>)
 800139a:	681a      	ldr	r2, [r3, #0]
 800139c:	0795      	lsls	r5, r2, #30
 800139e:	d502      	bpl.n	80013a6 <HAL_RCC_OscConfig+0xfa>
 80013a0:	68e2      	ldr	r2, [r4, #12]
 80013a2:	2a01      	cmp	r2, #1
 80013a4:	d1af      	bne.n	8001306 <HAL_RCC_OscConfig+0x5a>
 80013a6:	681a      	ldr	r2, [r3, #0]
 80013a8:	6921      	ldr	r1, [r4, #16]
 80013aa:	f022 02f8 	bic.w	r2, r2, #248	; 0xf8
 80013ae:	ea42 02c1 	orr.w	r2, r2, r1, lsl #3
 80013b2:	601a      	str	r2, [r3, #0]
 80013b4:	e784      	b.n	80012c0 <HAL_RCC_OscConfig+0x14>
 80013b6:	68e2      	ldr	r2, [r4, #12]
 80013b8:	4b70      	ldr	r3, [pc, #448]	; (800157c <HAL_RCC_OscConfig+0x2d0>)
 80013ba:	b1b2      	cbz	r2, 80013ea <HAL_RCC_OscConfig+0x13e>
 80013bc:	2201      	movs	r2, #1
 80013be:	601a      	str	r2, [r3, #0]
 80013c0:	f7ff fc98 	bl	8000cf4 <HAL_GetTick>
 80013c4:	4d6c      	ldr	r5, [pc, #432]	; (8001578 <HAL_RCC_OscConfig+0x2cc>)
 80013c6:	4606      	mov	r6, r0
 80013c8:	682b      	ldr	r3, [r5, #0]
 80013ca:	0798      	lsls	r0, r3, #30
 80013cc:	d507      	bpl.n	80013de <HAL_RCC_OscConfig+0x132>
 80013ce:	682b      	ldr	r3, [r5, #0]
 80013d0:	6922      	ldr	r2, [r4, #16]
 80013d2:	f023 03f8 	bic.w	r3, r3, #248	; 0xf8
 80013d6:	ea43 03c2 	orr.w	r3, r3, r2, lsl #3
 80013da:	602b      	str	r3, [r5, #0]
 80013dc:	e770      	b.n	80012c0 <HAL_RCC_OscConfig+0x14>
 80013de:	f7ff fc89 	bl	8000cf4 <HAL_GetTick>
 80013e2:	1b80      	subs	r0, r0, r6
 80013e4:	2802      	cmp	r0, #2
 80013e6:	d9ef      	bls.n	80013c8 <HAL_RCC_OscConfig+0x11c>
 80013e8:	e7a3      	b.n	8001332 <HAL_RCC_OscConfig+0x86>
 80013ea:	601a      	str	r2, [r3, #0]
 80013ec:	f7ff fc82 	bl	8000cf4 <HAL_GetTick>
 80013f0:	4e61      	ldr	r6, [pc, #388]	; (8001578 <HAL_RCC_OscConfig+0x2cc>)
 80013f2:	4605      	mov	r5, r0
 80013f4:	6833      	ldr	r3, [r6, #0]
 80013f6:	0799      	lsls	r1, r3, #30
 80013f8:	f57f af62 	bpl.w	80012c0 <HAL_RCC_OscConfig+0x14>
 80013fc:	f7ff fc7a 	bl	8000cf4 <HAL_GetTick>
 8001400:	1b40      	subs	r0, r0, r5
 8001402:	2802      	cmp	r0, #2
 8001404:	d9f6      	bls.n	80013f4 <HAL_RCC_OscConfig+0x148>
 8001406:	e794      	b.n	8001332 <HAL_RCC_OscConfig+0x86>
 8001408:	6962      	ldr	r2, [r4, #20]
 800140a:	4b5d      	ldr	r3, [pc, #372]	; (8001580 <HAL_RCC_OscConfig+0x2d4>)
 800140c:	b17a      	cbz	r2, 800142e <HAL_RCC_OscConfig+0x182>
 800140e:	2201      	movs	r2, #1
 8001410:	601a      	str	r2, [r3, #0]
 8001412:	f7ff fc6f 	bl	8000cf4 <HAL_GetTick>
 8001416:	4e58      	ldr	r6, [pc, #352]	; (8001578 <HAL_RCC_OscConfig+0x2cc>)
 8001418:	4605      	mov	r5, r0
 800141a:	6f73      	ldr	r3, [r6, #116]	; 0x74
 800141c:	079f      	lsls	r7, r3, #30
 800141e:	f53f af53 	bmi.w	80012c8 <HAL_RCC_OscConfig+0x1c>
 8001422:	f7ff fc67 	bl	8000cf4 <HAL_GetTick>
 8001426:	1b40      	subs	r0, r0, r5
 8001428:	2802      	cmp	r0, #2
 800142a:	d9f6      	bls.n	800141a <HAL_RCC_OscConfig+0x16e>
 800142c:	e781      	b.n	8001332 <HAL_RCC_OscConfig+0x86>
 800142e:	601a      	str	r2, [r3, #0]
 8001430:	f7ff fc60 	bl	8000cf4 <HAL_GetTick>
 8001434:	4e50      	ldr	r6, [pc, #320]	; (8001578 <HAL_RCC_OscConfig+0x2cc>)
 8001436:	4605      	mov	r5, r0
 8001438:	6f73      	ldr	r3, [r6, #116]	; 0x74
 800143a:	0798      	lsls	r0, r3, #30
 800143c:	f57f af44 	bpl.w	80012c8 <HAL_RCC_OscConfig+0x1c>
 8001440:	f7ff fc58 	bl	8000cf4 <HAL_GetTick>
 8001444:	1b40      	subs	r0, r0, r5
 8001446:	2802      	cmp	r0, #2
 8001448:	d9f6      	bls.n	8001438 <HAL_RCC_OscConfig+0x18c>
 800144a:	e772      	b.n	8001332 <HAL_RCC_OscConfig+0x86>
 800144c:	4b4a      	ldr	r3, [pc, #296]	; (8001578 <HAL_RCC_OscConfig+0x2cc>)
 800144e:	6c1a      	ldr	r2, [r3, #64]	; 0x40
 8001450:	f012 5280 	ands.w	r2, r2, #268435456	; 0x10000000
 8001454:	d128      	bne.n	80014a8 <HAL_RCC_OscConfig+0x1fc>
 8001456:	9201      	str	r2, [sp, #4]
 8001458:	6c1a      	ldr	r2, [r3, #64]	; 0x40
 800145a:	f042 5280 	orr.w	r2, r2, #268435456	; 0x10000000
 800145e:	641a      	str	r2, [r3, #64]	; 0x40
 8001460:	6c1b      	ldr	r3, [r3, #64]	; 0x40
 8001462:	f003 5380 	and.w	r3, r3, #268435456	; 0x10000000
 8001466:	9301      	str	r3, [sp, #4]
 8001468:	9b01      	ldr	r3, [sp, #4]
 800146a:	2701      	movs	r7, #1
 800146c:	4d45      	ldr	r5, [pc, #276]	; (8001584 <HAL_RCC_OscConfig+0x2d8>)
 800146e:	682b      	ldr	r3, [r5, #0]
 8001470:	05d9      	lsls	r1, r3, #23
 8001472:	d51b      	bpl.n	80014ac <HAL_RCC_OscConfig+0x200>
 8001474:	68a3      	ldr	r3, [r4, #8]
 8001476:	4d40      	ldr	r5, [pc, #256]	; (8001578 <HAL_RCC_OscConfig+0x2cc>)
 8001478:	2b01      	cmp	r3, #1
 800147a:	d127      	bne.n	80014cc <HAL_RCC_OscConfig+0x220>
 800147c:	6f2b      	ldr	r3, [r5, #112]	; 0x70
 800147e:	f043 0301 	orr.w	r3, r3, #1
 8001482:	672b      	str	r3, [r5, #112]	; 0x70
 8001484:	f7ff fc36 	bl	8000cf4 <HAL_GetTick>
 8001488:	4e3b      	ldr	r6, [pc, #236]	; (8001578 <HAL_RCC_OscConfig+0x2cc>)
 800148a:	4605      	mov	r5, r0
 800148c:	f241 3888 	movw	r8, #5000	; 0x1388
 8001490:	6f33      	ldr	r3, [r6, #112]	; 0x70
 8001492:	079b      	lsls	r3, r3, #30
 8001494:	d539      	bpl.n	800150a <HAL_RCC_OscConfig+0x25e>
 8001496:	2f00      	cmp	r7, #0
 8001498:	f43f af1a 	beq.w	80012d0 <HAL_RCC_OscConfig+0x24>
 800149c:	4a36      	ldr	r2, [pc, #216]	; (8001578 <HAL_RCC_OscConfig+0x2cc>)
 800149e:	6c13      	ldr	r3, [r2, #64]	; 0x40
 80014a0:	f023 5380 	bic.w	r3, r3, #268435456	; 0x10000000
 80014a4:	6413      	str	r3, [r2, #64]	; 0x40
 80014a6:	e713      	b.n	80012d0 <HAL_RCC_OscConfig+0x24>
 80014a8:	2700      	movs	r7, #0
 80014aa:	e7df      	b.n	800146c <HAL_RCC_OscConfig+0x1c0>
 80014ac:	682b      	ldr	r3, [r5, #0]
 80014ae:	f443 7380 	orr.w	r3, r3, #256	; 0x100
 80014b2:	602b      	str	r3, [r5, #0]
 80014b4:	f7ff fc1e 	bl	8000cf4 <HAL_GetTick>
 80014b8:	4606      	mov	r6, r0
 80014ba:	682b      	ldr	r3, [r5, #0]
 80014bc:	05da      	lsls	r2, r3, #23
 80014be:	d4d9      	bmi.n	8001474 <HAL_RCC_OscConfig+0x1c8>
 80014c0:	f7ff fc18 	bl	8000cf4 <HAL_GetTick>
 80014c4:	1b80      	subs	r0, r0, r6
 80014c6:	2802      	cmp	r0, #2
 80014c8:	d9f7      	bls.n	80014ba <HAL_RCC_OscConfig+0x20e>
 80014ca:	e732      	b.n	8001332 <HAL_RCC_OscConfig+0x86>
 80014cc:	2b05      	cmp	r3, #5
 80014ce:	d104      	bne.n	80014da <HAL_RCC_OscConfig+0x22e>
 80014d0:	6f2b      	ldr	r3, [r5, #112]	; 0x70
 80014d2:	f043 0304 	orr.w	r3, r3, #4
 80014d6:	672b      	str	r3, [r5, #112]	; 0x70
 80014d8:	e7d0      	b.n	800147c <HAL_RCC_OscConfig+0x1d0>
 80014da:	6f2a      	ldr	r2, [r5, #112]	; 0x70
 80014dc:	f022 0201 	bic.w	r2, r2, #1
 80014e0:	672a      	str	r2, [r5, #112]	; 0x70
 80014e2:	6f2a      	ldr	r2, [r5, #112]	; 0x70
 80014e4:	f022 0204 	bic.w	r2, r2, #4
 80014e8:	672a      	str	r2, [r5, #112]	; 0x70
 80014ea:	2b00      	cmp	r3, #0
 80014ec:	d1ca      	bne.n	8001484 <HAL_RCC_OscConfig+0x1d8>
 80014ee:	f7ff fc01 	bl	8000cf4 <HAL_GetTick>
 80014f2:	f241 3888 	movw	r8, #5000	; 0x1388
 80014f6:	4606      	mov	r6, r0
 80014f8:	6f2b      	ldr	r3, [r5, #112]	; 0x70
 80014fa:	0798      	lsls	r0, r3, #30
 80014fc:	d5cb      	bpl.n	8001496 <HAL_RCC_OscConfig+0x1ea>
 80014fe:	f7ff fbf9 	bl	8000cf4 <HAL_GetTick>
 8001502:	1b80      	subs	r0, r0, r6
 8001504:	4540      	cmp	r0, r8
 8001506:	d9f7      	bls.n	80014f8 <HAL_RCC_OscConfig+0x24c>
 8001508:	e713      	b.n	8001332 <HAL_RCC_OscConfig+0x86>
 800150a:	f7ff fbf3 	bl	8000cf4 <HAL_GetTick>
 800150e:	1b40      	subs	r0, r0, r5
 8001510:	4540      	cmp	r0, r8
 8001512:	d9bd      	bls.n	8001490 <HAL_RCC_OscConfig+0x1e4>
 8001514:	e70d      	b.n	8001332 <HAL_RCC_OscConfig+0x86>
 8001516:	4d18      	ldr	r5, [pc, #96]	; (8001578 <HAL_RCC_OscConfig+0x2cc>)
 8001518:	68ab      	ldr	r3, [r5, #8]
 800151a:	f003 030c 	and.w	r3, r3, #12
 800151e:	2b08      	cmp	r3, #8
 8001520:	d047      	beq.n	80015b2 <HAL_RCC_OscConfig+0x306>
 8001522:	4e19      	ldr	r6, [pc, #100]	; (8001588 <HAL_RCC_OscConfig+0x2dc>)
 8001524:	2300      	movs	r3, #0
 8001526:	2802      	cmp	r0, #2
 8001528:	6033      	str	r3, [r6, #0]
 800152a:	d135      	bne.n	8001598 <HAL_RCC_OscConfig+0x2ec>
 800152c:	f7ff fbe2 	bl	8000cf4 <HAL_GetTick>
 8001530:	4607      	mov	r7, r0
 8001532:	682b      	ldr	r3, [r5, #0]
 8001534:	0199      	lsls	r1, r3, #6
 8001536:	d429      	bmi.n	800158c <HAL_RCC_OscConfig+0x2e0>
 8001538:	e9d4 3207 	ldrd	r3, r2, [r4, #28]
 800153c:	4313      	orrs	r3, r2
 800153e:	6a62      	ldr	r2, [r4, #36]	; 0x24
 8001540:	ea43 1382 	orr.w	r3, r3, r2, lsl #6
 8001544:	6ae2      	ldr	r2, [r4, #44]	; 0x2c
 8001546:	ea43 6302 	orr.w	r3, r3, r2, lsl #24
 800154a:	6aa2      	ldr	r2, [r4, #40]	; 0x28
 800154c:	0852      	lsrs	r2, r2, #1
 800154e:	3a01      	subs	r2, #1
 8001550:	ea43 4302 	orr.w	r3, r3, r2, lsl #16
 8001554:	606b      	str	r3, [r5, #4]
 8001556:	2301      	movs	r3, #1
 8001558:	6033      	str	r3, [r6, #0]
 800155a:	f7ff fbcb 	bl	8000cf4 <HAL_GetTick>
 800155e:	4d06      	ldr	r5, [pc, #24]	; (8001578 <HAL_RCC_OscConfig+0x2cc>)
 8001560:	4604      	mov	r4, r0
 8001562:	682b      	ldr	r3, [r5, #0]
 8001564:	019a      	lsls	r2, r3, #6
 8001566:	f53f aeb7 	bmi.w	80012d8 <HAL_RCC_OscConfig+0x2c>
 800156a:	f7ff fbc3 	bl	8000cf4 <HAL_GetTick>
 800156e:	1b00      	subs	r0, r0, r4
 8001570:	2802      	cmp	r0, #2
 8001572:	d9f6      	bls.n	8001562 <HAL_RCC_OscConfig+0x2b6>
 8001574:	e6dd      	b.n	8001332 <HAL_RCC_OscConfig+0x86>
 8001576:	bf00      	nop
 8001578:	40023800 	.word	0x40023800
 800157c:	42470000 	.word	0x42470000
 8001580:	42470e80 	.word	0x42470e80
 8001584:	40007000 	.word	0x40007000
 8001588:	42470060 	.word	0x42470060
 800158c:	f7ff fbb2 	bl	8000cf4 <HAL_GetTick>
 8001590:	1bc0      	subs	r0, r0, r7
 8001592:	2802      	cmp	r0, #2
 8001594:	d9cd      	bls.n	8001532 <HAL_RCC_OscConfig+0x286>
 8001596:	e6cc      	b.n	8001332 <HAL_RCC_OscConfig+0x86>
 8001598:	f7ff fbac 	bl	8000cf4 <HAL_GetTick>
 800159c:	4604      	mov	r4, r0
 800159e:	682b      	ldr	r3, [r5, #0]
 80015a0:	019b      	lsls	r3, r3, #6
 80015a2:	f57f ae99 	bpl.w	80012d8 <HAL_RCC_OscConfig+0x2c>
 80015a6:	f7ff fba5 	bl	8000cf4 <HAL_GetTick>
 80015aa:	1b00      	subs	r0, r0, r4
 80015ac:	2802      	cmp	r0, #2
 80015ae:	d9f6      	bls.n	800159e <HAL_RCC_OscConfig+0x2f2>
 80015b0:	e6bf      	b.n	8001332 <HAL_RCC_OscConfig+0x86>
 80015b2:	2801      	cmp	r0, #1
 80015b4:	f43f aebe 	beq.w	8001334 <HAL_RCC_OscConfig+0x88>
 80015b8:	686b      	ldr	r3, [r5, #4]
 80015ba:	69e2      	ldr	r2, [r4, #28]
 80015bc:	f403 0180 	and.w	r1, r3, #4194304	; 0x400000
 80015c0:	4291      	cmp	r1, r2
 80015c2:	f47f aea0 	bne.w	8001306 <HAL_RCC_OscConfig+0x5a>
 80015c6:	6a21      	ldr	r1, [r4, #32]
 80015c8:	f003 023f 	and.w	r2, r3, #63	; 0x3f
 80015cc:	428a      	cmp	r2, r1
 80015ce:	f47f ae9a 	bne.w	8001306 <HAL_RCC_OscConfig+0x5a>
 80015d2:	6a61      	ldr	r1, [r4, #36]	; 0x24
 80015d4:	f647 72c0 	movw	r2, #32704	; 0x7fc0
 80015d8:	401a      	ands	r2, r3
 80015da:	ebb2 1f81 	cmp.w	r2, r1, lsl #6
 80015de:	f47f ae92 	bne.w	8001306 <HAL_RCC_OscConfig+0x5a>
 80015e2:	6aa2      	ldr	r2, [r4, #40]	; 0x28
 80015e4:	0852      	lsrs	r2, r2, #1
 80015e6:	f403 3140 	and.w	r1, r3, #196608	; 0x30000
 80015ea:	3a01      	subs	r2, #1
 80015ec:	ebb1 4f02 	cmp.w	r1, r2, lsl #16
 80015f0:	f47f ae89 	bne.w	8001306 <HAL_RCC_OscConfig+0x5a>
 80015f4:	6ae2      	ldr	r2, [r4, #44]	; 0x2c
 80015f6:	f003 6370 	and.w	r3, r3, #251658240	; 0xf000000
 80015fa:	ebb3 6f02 	cmp.w	r3, r2, lsl #24
 80015fe:	f43f ae6b 	beq.w	80012d8 <HAL_RCC_OscConfig+0x2c>
 8001602:	e680      	b.n	8001306 <HAL_RCC_OscConfig+0x5a>

08001604 <HAL_RCC_GetSysClockFreq>:
 8001604:	4913      	ldr	r1, [pc, #76]	; (8001654 <HAL_RCC_GetSysClockFreq+0x50>)
 8001606:	b508      	push	{r3, lr}
 8001608:	688b      	ldr	r3, [r1, #8]
 800160a:	f003 030c 	and.w	r3, r3, #12
 800160e:	2b04      	cmp	r3, #4
 8001610:	d01c      	beq.n	800164c <HAL_RCC_GetSysClockFreq+0x48>
 8001612:	2b08      	cmp	r3, #8
 8001614:	d11c      	bne.n	8001650 <HAL_RCC_GetSysClockFreq+0x4c>
 8001616:	684a      	ldr	r2, [r1, #4]
 8001618:	684b      	ldr	r3, [r1, #4]
 800161a:	6849      	ldr	r1, [r1, #4]
 800161c:	f413 0380 	ands.w	r3, r3, #4194304	; 0x400000
 8001620:	bf14      	ite	ne
 8001622:	480d      	ldrne	r0, [pc, #52]	; (8001658 <HAL_RCC_GetSysClockFreq+0x54>)
 8001624:	480d      	ldreq	r0, [pc, #52]	; (800165c <HAL_RCC_GetSysClockFreq+0x58>)
 8001626:	f3c1 1188 	ubfx	r1, r1, #6, #9
 800162a:	bf18      	it	ne
 800162c:	2300      	movne	r3, #0
 800162e:	f002 023f 	and.w	r2, r2, #63	; 0x3f
 8001632:	fba1 0100 	umull	r0, r1, r1, r0
 8001636:	f7fe fdc7 	bl	80001c8 <__aeabi_uldivmod>
 800163a:	4b06      	ldr	r3, [pc, #24]	; (8001654 <HAL_RCC_GetSysClockFreq+0x50>)
 800163c:	685b      	ldr	r3, [r3, #4]
 800163e:	f3c3 4301 	ubfx	r3, r3, #16, #2
 8001642:	3301      	adds	r3, #1
 8001644:	005b      	lsls	r3, r3, #1
 8001646:	fbb0 f0f3 	udiv	r0, r0, r3
 800164a:	bd08      	pop	{r3, pc}
 800164c:	4802      	ldr	r0, [pc, #8]	; (8001658 <HAL_RCC_GetSysClockFreq+0x54>)
 800164e:	e7fc      	b.n	800164a <HAL_RCC_GetSysClockFreq+0x46>
 8001650:	4802      	ldr	r0, [pc, #8]	; (800165c <HAL_RCC_GetSysClockFreq+0x58>)
 8001652:	e7fa      	b.n	800164a <HAL_RCC_GetSysClockFreq+0x46>
 8001654:	40023800 	.word	0x40023800
 8001658:	007a1200 	.word	0x007a1200
 800165c:	00f42400 	.word	0x00f42400

08001660 <HAL_RCC_ClockConfig>:
 8001660:	e92d 41f0 	stmdb	sp!, {r4, r5, r6, r7, r8, lr}
 8001664:	460d      	mov	r5, r1
 8001666:	4604      	mov	r4, r0
 8001668:	b910      	cbnz	r0, 8001670 <HAL_RCC_ClockConfig+0x10>
 800166a:	2001      	movs	r0, #1
 800166c:	e8bd 81f0 	ldmia.w	sp!, {r4, r5, r6, r7, r8, pc}
 8001670:	4b44      	ldr	r3, [pc, #272]	; (8001784 <HAL_RCC_ClockConfig+0x124>)
 8001672:	681a      	ldr	r2, [r3, #0]
 8001674:	f002 0207 	and.w	r2, r2, #7
 8001678:	428a      	cmp	r2, r1
 800167a:	d328      	bcc.n	80016ce <HAL_RCC_ClockConfig+0x6e>
 800167c:	6822      	ldr	r2, [r4, #0]
 800167e:	0797      	lsls	r7, r2, #30
 8001680:	d42d      	bmi.n	80016de <HAL_RCC_ClockConfig+0x7e>
 8001682:	07d0      	lsls	r0, r2, #31
 8001684:	d441      	bmi.n	800170a <HAL_RCC_ClockConfig+0xaa>
 8001686:	4b3f      	ldr	r3, [pc, #252]	; (8001784 <HAL_RCC_ClockConfig+0x124>)
 8001688:	681a      	ldr	r2, [r3, #0]
 800168a:	f002 0207 	and.w	r2, r2, #7
 800168e:	42aa      	cmp	r2, r5
 8001690:	d866      	bhi.n	8001760 <HAL_RCC_ClockConfig+0x100>
 8001692:	6822      	ldr	r2, [r4, #0]
 8001694:	0751      	lsls	r1, r2, #29
 8001696:	d46c      	bmi.n	8001772 <HAL_RCC_ClockConfig+0x112>
 8001698:	0713      	lsls	r3, r2, #28
 800169a:	d507      	bpl.n	80016ac <HAL_RCC_ClockConfig+0x4c>
 800169c:	4a3a      	ldr	r2, [pc, #232]	; (8001788 <HAL_RCC_ClockConfig+0x128>)
 800169e:	6921      	ldr	r1, [r4, #16]
 80016a0:	6893      	ldr	r3, [r2, #8]
 80016a2:	f423 4360 	bic.w	r3, r3, #57344	; 0xe000
 80016a6:	ea43 03c1 	orr.w	r3, r3, r1, lsl #3
 80016aa:	6093      	str	r3, [r2, #8]
 80016ac:	f7ff ffaa 	bl	8001604 <HAL_RCC_GetSysClockFreq>
 80016b0:	4b35      	ldr	r3, [pc, #212]	; (8001788 <HAL_RCC_ClockConfig+0x128>)
 80016b2:	4a36      	ldr	r2, [pc, #216]	; (800178c <HAL_RCC_ClockConfig+0x12c>)
 80016b4:	689b      	ldr	r3, [r3, #8]
 80016b6:	f3c3 1303 	ubfx	r3, r3, #4, #4
 80016ba:	5cd3      	ldrb	r3, [r2, r3]
 80016bc:	40d8      	lsrs	r0, r3
 80016be:	4b34      	ldr	r3, [pc, #208]	; (8001790 <HAL_RCC_ClockConfig+0x130>)
 80016c0:	6018      	str	r0, [r3, #0]
 80016c2:	4b34      	ldr	r3, [pc, #208]	; (8001794 <HAL_RCC_ClockConfig+0x134>)
 80016c4:	6818      	ldr	r0, [r3, #0]
 80016c6:	f7ff facb 	bl	8000c60 <HAL_InitTick>
 80016ca:	2000      	movs	r0, #0
 80016cc:	e7ce      	b.n	800166c <HAL_RCC_ClockConfig+0xc>
 80016ce:	b2ca      	uxtb	r2, r1
 80016d0:	701a      	strb	r2, [r3, #0]
 80016d2:	681b      	ldr	r3, [r3, #0]
 80016d4:	f003 0307 	and.w	r3, r3, #7
 80016d8:	428b      	cmp	r3, r1
 80016da:	d1c6      	bne.n	800166a <HAL_RCC_ClockConfig+0xa>
 80016dc:	e7ce      	b.n	800167c <HAL_RCC_ClockConfig+0x1c>
 80016de:	4b2a      	ldr	r3, [pc, #168]	; (8001788 <HAL_RCC_ClockConfig+0x128>)
 80016e0:	f012 0f04 	tst.w	r2, #4
 80016e4:	bf1e      	ittt	ne
 80016e6:	6899      	ldrne	r1, [r3, #8]
 80016e8:	f441 51e0 	orrne.w	r1, r1, #7168	; 0x1c00
 80016ec:	6099      	strne	r1, [r3, #8]
 80016ee:	0716      	lsls	r6, r2, #28
 80016f0:	bf42      	ittt	mi
 80016f2:	6899      	ldrmi	r1, [r3, #8]
 80016f4:	f441 4160 	orrmi.w	r1, r1, #57344	; 0xe000
 80016f8:	6099      	strmi	r1, [r3, #8]
 80016fa:	4923      	ldr	r1, [pc, #140]	; (8001788 <HAL_RCC_ClockConfig+0x128>)
 80016fc:	68a0      	ldr	r0, [r4, #8]
 80016fe:	688b      	ldr	r3, [r1, #8]
 8001700:	f023 03f0 	bic.w	r3, r3, #240	; 0xf0
 8001704:	4303      	orrs	r3, r0
 8001706:	608b      	str	r3, [r1, #8]
 8001708:	e7bb      	b.n	8001682 <HAL_RCC_ClockConfig+0x22>
 800170a:	6862      	ldr	r2, [r4, #4]
 800170c:	4b1e      	ldr	r3, [pc, #120]	; (8001788 <HAL_RCC_ClockConfig+0x128>)
 800170e:	2a01      	cmp	r2, #1
 8001710:	d11c      	bne.n	800174c <HAL_RCC_ClockConfig+0xec>
 8001712:	681b      	ldr	r3, [r3, #0]
 8001714:	f413 3f00 	tst.w	r3, #131072	; 0x20000
 8001718:	d0a7      	beq.n	800166a <HAL_RCC_ClockConfig+0xa>
 800171a:	4e1b      	ldr	r6, [pc, #108]	; (8001788 <HAL_RCC_ClockConfig+0x128>)
 800171c:	68b3      	ldr	r3, [r6, #8]
 800171e:	f023 0303 	bic.w	r3, r3, #3
 8001722:	4313      	orrs	r3, r2
 8001724:	60b3      	str	r3, [r6, #8]
 8001726:	f7ff fae5 	bl	8000cf4 <HAL_GetTick>
 800172a:	f241 3888 	movw	r8, #5000	; 0x1388
 800172e:	4607      	mov	r7, r0
 8001730:	68b3      	ldr	r3, [r6, #8]
 8001732:	6862      	ldr	r2, [r4, #4]
 8001734:	f003 030c 	and.w	r3, r3, #12
 8001738:	ebb3 0f82 	cmp.w	r3, r2, lsl #2
 800173c:	d0a3      	beq.n	8001686 <HAL_RCC_ClockConfig+0x26>
 800173e:	f7ff fad9 	bl	8000cf4 <HAL_GetTick>
 8001742:	1bc0      	subs	r0, r0, r7
 8001744:	4540      	cmp	r0, r8
 8001746:	d9f3      	bls.n	8001730 <HAL_RCC_ClockConfig+0xd0>
 8001748:	2003      	movs	r0, #3
 800174a:	e78f      	b.n	800166c <HAL_RCC_ClockConfig+0xc>
 800174c:	1e91      	subs	r1, r2, #2
 800174e:	2901      	cmp	r1, #1
 8001750:	681b      	ldr	r3, [r3, #0]
 8001752:	d802      	bhi.n	800175a <HAL_RCC_ClockConfig+0xfa>
 8001754:	f013 7f00 	tst.w	r3, #33554432	; 0x2000000
 8001758:	e7de      	b.n	8001718 <HAL_RCC_ClockConfig+0xb8>
 800175a:	f013 0f02 	tst.w	r3, #2
 800175e:	e7db      	b.n	8001718 <HAL_RCC_ClockConfig+0xb8>
 8001760:	b2ea      	uxtb	r2, r5
 8001762:	701a      	strb	r2, [r3, #0]
 8001764:	681b      	ldr	r3, [r3, #0]
 8001766:	f003 0307 	and.w	r3, r3, #7
 800176a:	42ab      	cmp	r3, r5
 800176c:	f47f af7d 	bne.w	800166a <HAL_RCC_ClockConfig+0xa>
 8001770:	e78f      	b.n	8001692 <HAL_RCC_ClockConfig+0x32>
 8001772:	4905      	ldr	r1, [pc, #20]	; (8001788 <HAL_RCC_ClockConfig+0x128>)
 8001774:	68e0      	ldr	r0, [r4, #12]
 8001776:	688b      	ldr	r3, [r1, #8]
 8001778:	f423 53e0 	bic.w	r3, r3, #7168	; 0x1c00
 800177c:	4303      	orrs	r3, r0
 800177e:	608b      	str	r3, [r1, #8]
 8001780:	e78a      	b.n	8001698 <HAL_RCC_ClockConfig+0x38>
 8001782:	bf00      	nop
 8001784:	40023c00 	.word	0x40023c00
 8001788:	40023800 	.word	0x40023800
 800178c:	080024f8 	.word	0x080024f8
 8001790:	20000010 	.word	0x20000010
 8001794:	20000018 	.word	0x20000018

08001798 <HAL_RCC_GetPCLK1Freq>:
 8001798:	4b04      	ldr	r3, [pc, #16]	; (80017ac <HAL_RCC_GetPCLK1Freq+0x14>)
 800179a:	4a05      	ldr	r2, [pc, #20]	; (80017b0 <HAL_RCC_GetPCLK1Freq+0x18>)
 800179c:	689b      	ldr	r3, [r3, #8]
 800179e:	f3c3 2382 	ubfx	r3, r3, #10, #3
 80017a2:	5cd3      	ldrb	r3, [r2, r3]
 80017a4:	4a03      	ldr	r2, [pc, #12]	; (80017b4 <HAL_RCC_GetPCLK1Freq+0x1c>)
 80017a6:	6810      	ldr	r0, [r2, #0]
 80017a8:	40d8      	lsrs	r0, r3
 80017aa:	4770      	bx	lr
 80017ac:	40023800 	.word	0x40023800
 80017b0:	08002508 	.word	0x08002508
 80017b4:	20000010 	.word	0x20000010

080017b8 <HAL_RCC_GetPCLK2Freq>:
 80017b8:	4b04      	ldr	r3, [pc, #16]	; (80017cc <HAL_RCC_GetPCLK2Freq+0x14>)
 80017ba:	4a05      	ldr	r2, [pc, #20]	; (80017d0 <HAL_RCC_GetPCLK2Freq+0x18>)
 80017bc:	689b      	ldr	r3, [r3, #8]
 80017be:	f3c3 3342 	ubfx	r3, r3, #13, #3
 80017c2:	5cd3      	ldrb	r3, [r2, r3]
 80017c4:	4a03      	ldr	r2, [pc, #12]	; (80017d4 <HAL_RCC_GetPCLK2Freq+0x1c>)
 80017c6:	6810      	ldr	r0, [r2, #0]
 80017c8:	40d8      	lsrs	r0, r3
 80017ca:	4770      	bx	lr
 80017cc:	40023800 	.word	0x40023800
 80017d0:	08002508 	.word	0x08002508
 80017d4:	20000010 	.word	0x20000010

080017d8 <TIM_OC1_SetConfig>:
 80017d8:	6a03      	ldr	r3, [r0, #32]
 80017da:	f023 0301 	bic.w	r3, r3, #1
 80017de:	6203      	str	r3, [r0, #32]
 80017e0:	6a03      	ldr	r3, [r0, #32]
 80017e2:	b570      	push	{r4, r5, r6, lr}
 80017e4:	6844      	ldr	r4, [r0, #4]
 80017e6:	6982      	ldr	r2, [r0, #24]
 80017e8:	680d      	ldr	r5, [r1, #0]
 80017ea:	f022 0273 	bic.w	r2, r2, #115	; 0x73
 80017ee:	432a      	orrs	r2, r5
 80017f0:	688d      	ldr	r5, [r1, #8]
 80017f2:	f023 0302 	bic.w	r3, r3, #2
 80017f6:	432b      	orrs	r3, r5
 80017f8:	4d0e      	ldr	r5, [pc, #56]	; (8001834 <TIM_OC1_SetConfig+0x5c>)
 80017fa:	42a8      	cmp	r0, r5
 80017fc:	d002      	beq.n	8001804 <TIM_OC1_SetConfig+0x2c>
 80017fe:	4e0e      	ldr	r6, [pc, #56]	; (8001838 <TIM_OC1_SetConfig+0x60>)
 8001800:	42b0      	cmp	r0, r6
 8001802:	d110      	bne.n	8001826 <TIM_OC1_SetConfig+0x4e>
 8001804:	68ce      	ldr	r6, [r1, #12]
 8001806:	f023 0308 	bic.w	r3, r3, #8
 800180a:	4333      	orrs	r3, r6
 800180c:	42a8      	cmp	r0, r5
 800180e:	f023 0304 	bic.w	r3, r3, #4
 8001812:	d002      	beq.n	800181a <TIM_OC1_SetConfig+0x42>
 8001814:	4d08      	ldr	r5, [pc, #32]	; (8001838 <TIM_OC1_SetConfig+0x60>)
 8001816:	42a8      	cmp	r0, r5
 8001818:	d105      	bne.n	8001826 <TIM_OC1_SetConfig+0x4e>
 800181a:	e9d1 5605 	ldrd	r5, r6, [r1, #20]
 800181e:	f424 7440 	bic.w	r4, r4, #768	; 0x300
 8001822:	4335      	orrs	r5, r6
 8001824:	432c      	orrs	r4, r5
 8001826:	6044      	str	r4, [r0, #4]
 8001828:	6182      	str	r2, [r0, #24]
 800182a:	684a      	ldr	r2, [r1, #4]
 800182c:	6342      	str	r2, [r0, #52]	; 0x34
 800182e:	6203      	str	r3, [r0, #32]
 8001830:	bd70      	pop	{r4, r5, r6, pc}
 8001832:	bf00      	nop
 8001834:	40010000 	.word	0x40010000
 8001838:	40010400 	.word	0x40010400

0800183c <TIM_OC3_SetConfig>:
 800183c:	6a03      	ldr	r3, [r0, #32]
 800183e:	f423 7380 	bic.w	r3, r3, #256	; 0x100
 8001842:	6203      	str	r3, [r0, #32]
 8001844:	6a03      	ldr	r3, [r0, #32]
 8001846:	b570      	push	{r4, r5, r6, lr}
 8001848:	6844      	ldr	r4, [r0, #4]
 800184a:	69c2      	ldr	r2, [r0, #28]
 800184c:	680d      	ldr	r5, [r1, #0]
 800184e:	f022 0273 	bic.w	r2, r2, #115	; 0x73
 8001852:	432a      	orrs	r2, r5
 8001854:	688d      	ldr	r5, [r1, #8]
 8001856:	f423 7300 	bic.w	r3, r3, #512	; 0x200
 800185a:	ea43 2305 	orr.w	r3, r3, r5, lsl #8
 800185e:	4d11      	ldr	r5, [pc, #68]	; (80018a4 <TIM_OC3_SetConfig+0x68>)
 8001860:	42a8      	cmp	r0, r5
 8001862:	d003      	beq.n	800186c <TIM_OC3_SetConfig+0x30>
 8001864:	f505 6580 	add.w	r5, r5, #1024	; 0x400
 8001868:	42a8      	cmp	r0, r5
 800186a:	d114      	bne.n	8001896 <TIM_OC3_SetConfig+0x5a>
 800186c:	68cd      	ldr	r5, [r1, #12]
 800186e:	f423 6300 	bic.w	r3, r3, #2048	; 0x800
 8001872:	ea43 2305 	orr.w	r3, r3, r5, lsl #8
 8001876:	4d0b      	ldr	r5, [pc, #44]	; (80018a4 <TIM_OC3_SetConfig+0x68>)
 8001878:	42a8      	cmp	r0, r5
 800187a:	f423 6380 	bic.w	r3, r3, #1024	; 0x400
 800187e:	d003      	beq.n	8001888 <TIM_OC3_SetConfig+0x4c>
 8001880:	f505 6580 	add.w	r5, r5, #1024	; 0x400
 8001884:	42a8      	cmp	r0, r5
 8001886:	d106      	bne.n	8001896 <TIM_OC3_SetConfig+0x5a>
 8001888:	e9d1 5605 	ldrd	r5, r6, [r1, #20]
 800188c:	f424 5440 	bic.w	r4, r4, #12288	; 0x3000
 8001890:	4335      	orrs	r5, r6
 8001892:	ea44 1405 	orr.w	r4, r4, r5, lsl #4
 8001896:	6044      	str	r4, [r0, #4]
 8001898:	61c2      	str	r2, [r0, #28]
 800189a:	684a      	ldr	r2, [r1, #4]
 800189c:	63c2      	str	r2, [r0, #60]	; 0x3c
 800189e:	6203      	str	r3, [r0, #32]
 80018a0:	bd70      	pop	{r4, r5, r6, pc}
 80018a2:	bf00      	nop
 80018a4:	40010000 	.word	0x40010000

080018a8 <TIM_OC4_SetConfig>:
 80018a8:	6a03      	ldr	r3, [r0, #32]
 80018aa:	f423 5380 	bic.w	r3, r3, #4096	; 0x1000
 80018ae:	6203      	str	r3, [r0, #32]
 80018b0:	6a03      	ldr	r3, [r0, #32]
 80018b2:	b530      	push	{r4, r5, lr}
 80018b4:	6844      	ldr	r4, [r0, #4]
 80018b6:	69c2      	ldr	r2, [r0, #28]
 80018b8:	680d      	ldr	r5, [r1, #0]
 80018ba:	f422 42e6 	bic.w	r2, r2, #29440	; 0x7300
 80018be:	ea42 2205 	orr.w	r2, r2, r5, lsl #8
 80018c2:	688d      	ldr	r5, [r1, #8]
 80018c4:	f423 5300 	bic.w	r3, r3, #8192	; 0x2000
 80018c8:	ea43 3305 	orr.w	r3, r3, r5, lsl #12
 80018cc:	4d08      	ldr	r5, [pc, #32]	; (80018f0 <TIM_OC4_SetConfig+0x48>)
 80018ce:	42a8      	cmp	r0, r5
 80018d0:	d003      	beq.n	80018da <TIM_OC4_SetConfig+0x32>
 80018d2:	f505 6580 	add.w	r5, r5, #1024	; 0x400
 80018d6:	42a8      	cmp	r0, r5
 80018d8:	d104      	bne.n	80018e4 <TIM_OC4_SetConfig+0x3c>
 80018da:	694d      	ldr	r5, [r1, #20]
 80018dc:	f424 4480 	bic.w	r4, r4, #16384	; 0x4000
 80018e0:	ea44 1485 	orr.w	r4, r4, r5, lsl #6
 80018e4:	6044      	str	r4, [r0, #4]
 80018e6:	61c2      	str	r2, [r0, #28]
 80018e8:	684a      	ldr	r2, [r1, #4]
 80018ea:	6402      	str	r2, [r0, #64]	; 0x40
 80018ec:	6203      	str	r3, [r0, #32]
 80018ee:	bd30      	pop	{r4, r5, pc}
 80018f0:	40010000 	.word	0x40010000

080018f4 <HAL_TIM_Base_Start>:
 80018f4:	f890 303d 	ldrb.w	r3, [r0, #61]	; 0x3d
 80018f8:	2b01      	cmp	r3, #1
 80018fa:	d12c      	bne.n	8001956 <HAL_TIM_Base_Start+0x62>
 80018fc:	2302      	movs	r3, #2
 80018fe:	4a17      	ldr	r2, [pc, #92]	; (800195c <HAL_TIM_Base_Start+0x68>)
 8001900:	f880 303d 	strb.w	r3, [r0, #61]	; 0x3d
 8001904:	6803      	ldr	r3, [r0, #0]
 8001906:	4293      	cmp	r3, r2
 8001908:	d01a      	beq.n	8001940 <HAL_TIM_Base_Start+0x4c>
 800190a:	f1b3 4f80 	cmp.w	r3, #1073741824	; 0x40000000
 800190e:	d017      	beq.n	8001940 <HAL_TIM_Base_Start+0x4c>
 8001910:	f5a2 427c 	sub.w	r2, r2, #64512	; 0xfc00
 8001914:	4293      	cmp	r3, r2
 8001916:	d013      	beq.n	8001940 <HAL_TIM_Base_Start+0x4c>
 8001918:	f502 6280 	add.w	r2, r2, #1024	; 0x400
 800191c:	4293      	cmp	r3, r2
 800191e:	d00f      	beq.n	8001940 <HAL_TIM_Base_Start+0x4c>
 8001920:	f502 6280 	add.w	r2, r2, #1024	; 0x400
 8001924:	4293      	cmp	r3, r2
 8001926:	d00b      	beq.n	8001940 <HAL_TIM_Base_Start+0x4c>
 8001928:	f502 4278 	add.w	r2, r2, #63488	; 0xf800
 800192c:	4293      	cmp	r3, r2
 800192e:	d007      	beq.n	8001940 <HAL_TIM_Base_Start+0x4c>
 8001930:	f502 5270 	add.w	r2, r2, #15360	; 0x3c00
 8001934:	4293      	cmp	r3, r2
 8001936:	d003      	beq.n	8001940 <HAL_TIM_Base_Start+0x4c>
 8001938:	f5a2 3294 	sub.w	r2, r2, #75776	; 0x12800
 800193c:	4293      	cmp	r3, r2
 800193e:	d104      	bne.n	800194a <HAL_TIM_Base_Start+0x56>
 8001940:	689a      	ldr	r2, [r3, #8]
 8001942:	f002 0207 	and.w	r2, r2, #7
 8001946:	2a06      	cmp	r2, #6
 8001948:	d003      	beq.n	8001952 <HAL_TIM_Base_Start+0x5e>
 800194a:	681a      	ldr	r2, [r3, #0]
 800194c:	f042 0201 	orr.w	r2, r2, #1
 8001950:	601a      	str	r2, [r3, #0]
 8001952:	2000      	movs	r0, #0
 8001954:	4770      	bx	lr
 8001956:	2001      	movs	r0, #1
 8001958:	4770      	bx	lr
 800195a:	bf00      	nop
 800195c:	40010000 	.word	0x40010000

08001960 <HAL_TIM_PeriodElapsedCallback>:
 8001960:	4770      	bx	lr

08001962 <HAL_TIM_OC_DelayElapsedCallback>:
 8001962:	4770      	bx	lr

08001964 <HAL_TIM_IC_CaptureCallback>:
 8001964:	4770      	bx	lr

08001966 <HAL_TIM_PWM_PulseFinishedCallback>:
 8001966:	4770      	bx	lr

08001968 <HAL_TIM_TriggerCallback>:
 8001968:	4770      	bx	lr

0800196a <HAL_TIM_IRQHandler>:
 800196a:	6803      	ldr	r3, [r0, #0]
 800196c:	691a      	ldr	r2, [r3, #16]
 800196e:	0791      	lsls	r1, r2, #30
 8001970:	b510      	push	{r4, lr}
 8001972:	4604      	mov	r4, r0
 8001974:	d50e      	bpl.n	8001994 <HAL_TIM_IRQHandler+0x2a>
 8001976:	68da      	ldr	r2, [r3, #12]
 8001978:	0792      	lsls	r2, r2, #30
 800197a:	d50b      	bpl.n	8001994 <HAL_TIM_IRQHandler+0x2a>
 800197c:	f06f 0202 	mvn.w	r2, #2
 8001980:	611a      	str	r2, [r3, #16]
 8001982:	2201      	movs	r2, #1
 8001984:	7702      	strb	r2, [r0, #28]
 8001986:	699b      	ldr	r3, [r3, #24]
 8001988:	079b      	lsls	r3, r3, #30
 800198a:	d077      	beq.n	8001a7c <HAL_TIM_IRQHandler+0x112>
 800198c:	f7ff ffea 	bl	8001964 <HAL_TIM_IC_CaptureCallback>
 8001990:	2300      	movs	r3, #0
 8001992:	7723      	strb	r3, [r4, #28]
 8001994:	6823      	ldr	r3, [r4, #0]
 8001996:	691a      	ldr	r2, [r3, #16]
 8001998:	0750      	lsls	r0, r2, #29
 800199a:	d510      	bpl.n	80019be <HAL_TIM_IRQHandler+0x54>
 800199c:	68da      	ldr	r2, [r3, #12]
 800199e:	0751      	lsls	r1, r2, #29
 80019a0:	d50d      	bpl.n	80019be <HAL_TIM_IRQHandler+0x54>
 80019a2:	f06f 0204 	mvn.w	r2, #4
 80019a6:	611a      	str	r2, [r3, #16]
 80019a8:	2202      	movs	r2, #2
 80019aa:	7722      	strb	r2, [r4, #28]
 80019ac:	699b      	ldr	r3, [r3, #24]
 80019ae:	f413 7f40 	tst.w	r3, #768	; 0x300
 80019b2:	4620      	mov	r0, r4
 80019b4:	d068      	beq.n	8001a88 <HAL_TIM_IRQHandler+0x11e>
 80019b6:	f7ff ffd5 	bl	8001964 <HAL_TIM_IC_CaptureCallback>
 80019ba:	2300      	movs	r3, #0
 80019bc:	7723      	strb	r3, [r4, #28]
 80019be:	6823      	ldr	r3, [r4, #0]
 80019c0:	691a      	ldr	r2, [r3, #16]
 80019c2:	0712      	lsls	r2, r2, #28
 80019c4:	d50f      	bpl.n	80019e6 <HAL_TIM_IRQHandler+0x7c>
 80019c6:	68da      	ldr	r2, [r3, #12]
 80019c8:	0710      	lsls	r0, r2, #28
 80019ca:	d50c      	bpl.n	80019e6 <HAL_TIM_IRQHandler+0x7c>
 80019cc:	f06f 0208 	mvn.w	r2, #8
 80019d0:	611a      	str	r2, [r3, #16]
 80019d2:	2204      	movs	r2, #4
 80019d4:	7722      	strb	r2, [r4, #28]
 80019d6:	69db      	ldr	r3, [r3, #28]
 80019d8:	0799      	lsls	r1, r3, #30
 80019da:	4620      	mov	r0, r4
 80019dc:	d05a      	beq.n	8001a94 <HAL_TIM_IRQHandler+0x12a>
 80019de:	f7ff ffc1 	bl	8001964 <HAL_TIM_IC_CaptureCallback>
 80019e2:	2300      	movs	r3, #0
 80019e4:	7723      	strb	r3, [r4, #28]
 80019e6:	6823      	ldr	r3, [r4, #0]
 80019e8:	691a      	ldr	r2, [r3, #16]
 80019ea:	06d2      	lsls	r2, r2, #27
 80019ec:	d510      	bpl.n	8001a10 <HAL_TIM_IRQHandler+0xa6>
 80019ee:	68da      	ldr	r2, [r3, #12]
 80019f0:	06d0      	lsls	r0, r2, #27
 80019f2:	d50d      	bpl.n	8001a10 <HAL_TIM_IRQHandler+0xa6>
 80019f4:	f06f 0210 	mvn.w	r2, #16
 80019f8:	611a      	str	r2, [r3, #16]
 80019fa:	2208      	movs	r2, #8
 80019fc:	7722      	strb	r2, [r4, #28]
 80019fe:	69db      	ldr	r3, [r3, #28]
 8001a00:	f413 7f40 	tst.w	r3, #768	; 0x300
 8001a04:	4620      	mov	r0, r4
 8001a06:	d04b      	beq.n	8001aa0 <HAL_TIM_IRQHandler+0x136>
 8001a08:	f7ff ffac 	bl	8001964 <HAL_TIM_IC_CaptureCallback>
 8001a0c:	2300      	movs	r3, #0
 8001a0e:	7723      	strb	r3, [r4, #28]
 8001a10:	6823      	ldr	r3, [r4, #0]
 8001a12:	691a      	ldr	r2, [r3, #16]
 8001a14:	07d1      	lsls	r1, r2, #31
 8001a16:	d508      	bpl.n	8001a2a <HAL_TIM_IRQHandler+0xc0>
 8001a18:	68da      	ldr	r2, [r3, #12]
 8001a1a:	07d2      	lsls	r2, r2, #31
 8001a1c:	d505      	bpl.n	8001a2a <HAL_TIM_IRQHandler+0xc0>
 8001a1e:	f06f 0201 	mvn.w	r2, #1
 8001a22:	611a      	str	r2, [r3, #16]
 8001a24:	4620      	mov	r0, r4
 8001a26:	f7ff ff9b 	bl	8001960 <HAL_TIM_PeriodElapsedCallback>
 8001a2a:	6823      	ldr	r3, [r4, #0]
 8001a2c:	691a      	ldr	r2, [r3, #16]
 8001a2e:	0610      	lsls	r0, r2, #24
 8001a30:	d508      	bpl.n	8001a44 <HAL_TIM_IRQHandler+0xda>
 8001a32:	68da      	ldr	r2, [r3, #12]
 8001a34:	0611      	lsls	r1, r2, #24
 8001a36:	d505      	bpl.n	8001a44 <HAL_TIM_IRQHandler+0xda>
 8001a38:	f06f 0280 	mvn.w	r2, #128	; 0x80
 8001a3c:	611a      	str	r2, [r3, #16]
 8001a3e:	4620      	mov	r0, r4
 8001a40:	f000 fb55 	bl	80020ee <HAL_TIMEx_BreakCallback>
 8001a44:	6823      	ldr	r3, [r4, #0]
 8001a46:	691a      	ldr	r2, [r3, #16]
 8001a48:	0652      	lsls	r2, r2, #25
 8001a4a:	d508      	bpl.n	8001a5e <HAL_TIM_IRQHandler+0xf4>
 8001a4c:	68da      	ldr	r2, [r3, #12]
 8001a4e:	0650      	lsls	r0, r2, #25
 8001a50:	d505      	bpl.n	8001a5e <HAL_TIM_IRQHandler+0xf4>
 8001a52:	f06f 0240 	mvn.w	r2, #64	; 0x40
 8001a56:	611a      	str	r2, [r3, #16]
 8001a58:	4620      	mov	r0, r4
 8001a5a:	f7ff ff85 	bl	8001968 <HAL_TIM_TriggerCallback>
 8001a5e:	6823      	ldr	r3, [r4, #0]
 8001a60:	691a      	ldr	r2, [r3, #16]
 8001a62:	0691      	lsls	r1, r2, #26
 8001a64:	d522      	bpl.n	8001aac <HAL_TIM_IRQHandler+0x142>
 8001a66:	68da      	ldr	r2, [r3, #12]
 8001a68:	0692      	lsls	r2, r2, #26
 8001a6a:	d51f      	bpl.n	8001aac <HAL_TIM_IRQHandler+0x142>
 8001a6c:	f06f 0220 	mvn.w	r2, #32
 8001a70:	4620      	mov	r0, r4
 8001a72:	611a      	str	r2, [r3, #16]
 8001a74:	e8bd 4010 	ldmia.w	sp!, {r4, lr}
 8001a78:	f000 bb38 	b.w	80020ec <HAL_TIMEx_CommutCallback>
 8001a7c:	f7ff ff71 	bl	8001962 <HAL_TIM_OC_DelayElapsedCallback>
 8001a80:	4620      	mov	r0, r4
 8001a82:	f7ff ff70 	bl	8001966 <HAL_TIM_PWM_PulseFinishedCallback>
 8001a86:	e783      	b.n	8001990 <HAL_TIM_IRQHandler+0x26>
 8001a88:	f7ff ff6b 	bl	8001962 <HAL_TIM_OC_DelayElapsedCallback>
 8001a8c:	4620      	mov	r0, r4
 8001a8e:	f7ff ff6a 	bl	8001966 <HAL_TIM_PWM_PulseFinishedCallback>
 8001a92:	e792      	b.n	80019ba <HAL_TIM_IRQHandler+0x50>
 8001a94:	f7ff ff65 	bl	8001962 <HAL_TIM_OC_DelayElapsedCallback>
 8001a98:	4620      	mov	r0, r4
 8001a9a:	f7ff ff64 	bl	8001966 <HAL_TIM_PWM_PulseFinishedCallback>
 8001a9e:	e7a0      	b.n	80019e2 <HAL_TIM_IRQHandler+0x78>
 8001aa0:	f7ff ff5f 	bl	8001962 <HAL_TIM_OC_DelayElapsedCallback>
 8001aa4:	4620      	mov	r0, r4
 8001aa6:	f7ff ff5e 	bl	8001966 <HAL_TIM_PWM_PulseFinishedCallback>
 8001aaa:	e7af      	b.n	8001a0c <HAL_TIM_IRQHandler+0xa2>
 8001aac:	bd10      	pop	{r4, pc}
	...

08001ab0 <TIM_Base_SetConfig>:
 8001ab0:	4a30      	ldr	r2, [pc, #192]	; (8001b74 <TIM_Base_SetConfig+0xc4>)
 8001ab2:	6803      	ldr	r3, [r0, #0]
 8001ab4:	4290      	cmp	r0, r2
 8001ab6:	d012      	beq.n	8001ade <TIM_Base_SetConfig+0x2e>
 8001ab8:	f1b0 4f80 	cmp.w	r0, #1073741824	; 0x40000000
 8001abc:	d00f      	beq.n	8001ade <TIM_Base_SetConfig+0x2e>
 8001abe:	f5a2 427c 	sub.w	r2, r2, #64512	; 0xfc00
 8001ac2:	4290      	cmp	r0, r2
 8001ac4:	d00b      	beq.n	8001ade <TIM_Base_SetConfig+0x2e>
 8001ac6:	f502 6280 	add.w	r2, r2, #1024	; 0x400
 8001aca:	4290      	cmp	r0, r2
 8001acc:	d007      	beq.n	8001ade <TIM_Base_SetConfig+0x2e>
 8001ace:	f502 6280 	add.w	r2, r2, #1024	; 0x400
 8001ad2:	4290      	cmp	r0, r2
 8001ad4:	d003      	beq.n	8001ade <TIM_Base_SetConfig+0x2e>
 8001ad6:	f502 4278 	add.w	r2, r2, #63488	; 0xf800
 8001ada:	4290      	cmp	r0, r2
 8001adc:	d119      	bne.n	8001b12 <TIM_Base_SetConfig+0x62>
 8001ade:	684a      	ldr	r2, [r1, #4]
 8001ae0:	f023 0370 	bic.w	r3, r3, #112	; 0x70
 8001ae4:	4313      	orrs	r3, r2
 8001ae6:	4a23      	ldr	r2, [pc, #140]	; (8001b74 <TIM_Base_SetConfig+0xc4>)
 8001ae8:	4290      	cmp	r0, r2
 8001aea:	d029      	beq.n	8001b40 <TIM_Base_SetConfig+0x90>
 8001aec:	f1b0 4f80 	cmp.w	r0, #1073741824	; 0x40000000
 8001af0:	d026      	beq.n	8001b40 <TIM_Base_SetConfig+0x90>
 8001af2:	f5a2 427c 	sub.w	r2, r2, #64512	; 0xfc00
 8001af6:	4290      	cmp	r0, r2
 8001af8:	d022      	beq.n	8001b40 <TIM_Base_SetConfig+0x90>
 8001afa:	f502 6280 	add.w	r2, r2, #1024	; 0x400
 8001afe:	4290      	cmp	r0, r2
 8001b00:	d01e      	beq.n	8001b40 <TIM_Base_SetConfig+0x90>
 8001b02:	f502 6280 	add.w	r2, r2, #1024	; 0x400
 8001b06:	4290      	cmp	r0, r2
 8001b08:	d01a      	beq.n	8001b40 <TIM_Base_SetConfig+0x90>
 8001b0a:	f502 4278 	add.w	r2, r2, #63488	; 0xf800
 8001b0e:	4290      	cmp	r0, r2
 8001b10:	d016      	beq.n	8001b40 <TIM_Base_SetConfig+0x90>
 8001b12:	4a19      	ldr	r2, [pc, #100]	; (8001b78 <TIM_Base_SetConfig+0xc8>)
 8001b14:	4290      	cmp	r0, r2
 8001b16:	d013      	beq.n	8001b40 <TIM_Base_SetConfig+0x90>
 8001b18:	f502 6280 	add.w	r2, r2, #1024	; 0x400
 8001b1c:	4290      	cmp	r0, r2
 8001b1e:	d00f      	beq.n	8001b40 <TIM_Base_SetConfig+0x90>
 8001b20:	f502 6280 	add.w	r2, r2, #1024	; 0x400
 8001b24:	4290      	cmp	r0, r2
 8001b26:	d00b      	beq.n	8001b40 <TIM_Base_SetConfig+0x90>
 8001b28:	f5a2 3298 	sub.w	r2, r2, #77824	; 0x13000
 8001b2c:	4290      	cmp	r0, r2
 8001b2e:	d007      	beq.n	8001b40 <TIM_Base_SetConfig+0x90>
 8001b30:	f502 6280 	add.w	r2, r2, #1024	; 0x400
 8001b34:	4290      	cmp	r0, r2
 8001b36:	d003      	beq.n	8001b40 <TIM_Base_SetConfig+0x90>
 8001b38:	f502 6280 	add.w	r2, r2, #1024	; 0x400
 8001b3c:	4290      	cmp	r0, r2
 8001b3e:	d103      	bne.n	8001b48 <TIM_Base_SetConfig+0x98>
 8001b40:	68ca      	ldr	r2, [r1, #12]
 8001b42:	f423 7340 	bic.w	r3, r3, #768	; 0x300
 8001b46:	4313      	orrs	r3, r2
 8001b48:	694a      	ldr	r2, [r1, #20]
 8001b4a:	f023 0380 	bic.w	r3, r3, #128	; 0x80
 8001b4e:	4313      	orrs	r3, r2
 8001b50:	6003      	str	r3, [r0, #0]
 8001b52:	688b      	ldr	r3, [r1, #8]
 8001b54:	62c3      	str	r3, [r0, #44]	; 0x2c
 8001b56:	680b      	ldr	r3, [r1, #0]
 8001b58:	6283      	str	r3, [r0, #40]	; 0x28
 8001b5a:	4b06      	ldr	r3, [pc, #24]	; (8001b74 <TIM_Base_SetConfig+0xc4>)
 8001b5c:	4298      	cmp	r0, r3
 8001b5e:	d003      	beq.n	8001b68 <TIM_Base_SetConfig+0xb8>
 8001b60:	f503 6380 	add.w	r3, r3, #1024	; 0x400
 8001b64:	4298      	cmp	r0, r3
 8001b66:	d101      	bne.n	8001b6c <TIM_Base_SetConfig+0xbc>
 8001b68:	690b      	ldr	r3, [r1, #16]
 8001b6a:	6303      	str	r3, [r0, #48]	; 0x30
 8001b6c:	2301      	movs	r3, #1
 8001b6e:	6143      	str	r3, [r0, #20]
 8001b70:	4770      	bx	lr
 8001b72:	bf00      	nop
 8001b74:	40010000 	.word	0x40010000
 8001b78:	40014000 	.word	0x40014000

08001b7c <HAL_TIM_Base_Init>:
 8001b7c:	b510      	push	{r4, lr}
 8001b7e:	4604      	mov	r4, r0
 8001b80:	b330      	cbz	r0, 8001bd0 <HAL_TIM_Base_Init+0x54>
 8001b82:	f890 303d 	ldrb.w	r3, [r0, #61]	; 0x3d
 8001b86:	f003 02ff 	and.w	r2, r3, #255	; 0xff
 8001b8a:	b91b      	cbnz	r3, 8001b94 <HAL_TIM_Base_Init+0x18>
 8001b8c:	f880 203c 	strb.w	r2, [r0, #60]	; 0x3c
 8001b90:	f7fe ff02 	bl	8000998 <HAL_TIM_Base_MspInit>
 8001b94:	2302      	movs	r3, #2
 8001b96:	6820      	ldr	r0, [r4, #0]
 8001b98:	f884 303d 	strb.w	r3, [r4, #61]	; 0x3d
 8001b9c:	1d21      	adds	r1, r4, #4
 8001b9e:	f7ff ff87 	bl	8001ab0 <TIM_Base_SetConfig>
 8001ba2:	2301      	movs	r3, #1
 8001ba4:	f884 3046 	strb.w	r3, [r4, #70]	; 0x46
 8001ba8:	2000      	movs	r0, #0
 8001baa:	f884 303e 	strb.w	r3, [r4, #62]	; 0x3e
 8001bae:	f884 303f 	strb.w	r3, [r4, #63]	; 0x3f
 8001bb2:	f884 3040 	strb.w	r3, [r4, #64]	; 0x40
 8001bb6:	f884 3041 	strb.w	r3, [r4, #65]	; 0x41
 8001bba:	f884 3042 	strb.w	r3, [r4, #66]	; 0x42
 8001bbe:	f884 3043 	strb.w	r3, [r4, #67]	; 0x43
 8001bc2:	f884 3044 	strb.w	r3, [r4, #68]	; 0x44
 8001bc6:	f884 3045 	strb.w	r3, [r4, #69]	; 0x45
 8001bca:	f884 303d 	strb.w	r3, [r4, #61]	; 0x3d
 8001bce:	bd10      	pop	{r4, pc}
 8001bd0:	2001      	movs	r0, #1
 8001bd2:	e7fc      	b.n	8001bce <HAL_TIM_Base_Init+0x52>

08001bd4 <HAL_TIM_PWM_Init>:
 8001bd4:	b510      	push	{r4, lr}
 8001bd6:	4604      	mov	r4, r0
 8001bd8:	b330      	cbz	r0, 8001c28 <HAL_TIM_PWM_Init+0x54>
 8001bda:	f890 303d 	ldrb.w	r3, [r0, #61]	; 0x3d
 8001bde:	f003 02ff 	and.w	r2, r3, #255	; 0xff
 8001be2:	b91b      	cbnz	r3, 8001bec <HAL_TIM_PWM_Init+0x18>
 8001be4:	f880 203c 	strb.w	r2, [r0, #60]	; 0x3c
 8001be8:	f7fe ff0e 	bl	8000a08 <HAL_TIM_PWM_MspInit>
 8001bec:	2302      	movs	r3, #2
 8001bee:	6820      	ldr	r0, [r4, #0]
 8001bf0:	f884 303d 	strb.w	r3, [r4, #61]	; 0x3d
 8001bf4:	1d21      	adds	r1, r4, #4
 8001bf6:	f7ff ff5b 	bl	8001ab0 <TIM_Base_SetConfig>
 8001bfa:	2301      	movs	r3, #1
 8001bfc:	f884 3046 	strb.w	r3, [r4, #70]	; 0x46
 8001c00:	2000      	movs	r0, #0
 8001c02:	f884 303e 	strb.w	r3, [r4, #62]	; 0x3e
 8001c06:	f884 303f 	strb.w	r3, [r4, #63]	; 0x3f
 8001c0a:	f884 3040 	strb.w	r3, [r4, #64]	; 0x40
 8001c0e:	f884 3041 	strb.w	r3, [r4, #65]	; 0x41
 8001c12:	f884 3042 	strb.w	r3, [r4, #66]	; 0x42
 8001c16:	f884 3043 	strb.w	r3, [r4, #67]	; 0x43
 8001c1a:	f884 3044 	strb.w	r3, [r4, #68]	; 0x44
 8001c1e:	f884 3045 	strb.w	r3, [r4, #69]	; 0x45
 8001c22:	f884 303d 	strb.w	r3, [r4, #61]	; 0x3d
 8001c26:	bd10      	pop	{r4, pc}
 8001c28:	2001      	movs	r0, #1
 8001c2a:	e7fc      	b.n	8001c26 <HAL_TIM_PWM_Init+0x52>

08001c2c <TIM_OC2_SetConfig>:
 8001c2c:	6a03      	ldr	r3, [r0, #32]
 8001c2e:	f023 0310 	bic.w	r3, r3, #16
 8001c32:	6203      	str	r3, [r0, #32]
 8001c34:	6a03      	ldr	r3, [r0, #32]
 8001c36:	b570      	push	{r4, r5, r6, lr}
 8001c38:	6844      	ldr	r4, [r0, #4]
 8001c3a:	6982      	ldr	r2, [r0, #24]
 8001c3c:	680d      	ldr	r5, [r1, #0]
 8001c3e:	f422 42e6 	bic.w	r2, r2, #29440	; 0x7300
 8001c42:	ea42 2205 	orr.w	r2, r2, r5, lsl #8
 8001c46:	688d      	ldr	r5, [r1, #8]
 8001c48:	f023 0320 	bic.w	r3, r3, #32
 8001c4c:	ea43 1305 	orr.w	r3, r3, r5, lsl #4
 8001c50:	4d10      	ldr	r5, [pc, #64]	; (8001c94 <TIM_OC2_SetConfig+0x68>)
 8001c52:	42a8      	cmp	r0, r5
 8001c54:	d003      	beq.n	8001c5e <TIM_OC2_SetConfig+0x32>
 8001c56:	f505 6580 	add.w	r5, r5, #1024	; 0x400
 8001c5a:	42a8      	cmp	r0, r5
 8001c5c:	d114      	bne.n	8001c88 <TIM_OC2_SetConfig+0x5c>
 8001c5e:	68cd      	ldr	r5, [r1, #12]
 8001c60:	f023 0380 	bic.w	r3, r3, #128	; 0x80
 8001c64:	ea43 1305 	orr.w	r3, r3, r5, lsl #4
 8001c68:	4d0a      	ldr	r5, [pc, #40]	; (8001c94 <TIM_OC2_SetConfig+0x68>)
 8001c6a:	42a8      	cmp	r0, r5
 8001c6c:	f023 0340 	bic.w	r3, r3, #64	; 0x40
 8001c70:	d003      	beq.n	8001c7a <TIM_OC2_SetConfig+0x4e>
 8001c72:	f505 6580 	add.w	r5, r5, #1024	; 0x400
 8001c76:	42a8      	cmp	r0, r5
 8001c78:	d106      	bne.n	8001c88 <TIM_OC2_SetConfig+0x5c>
 8001c7a:	e9d1 5605 	ldrd	r5, r6, [r1, #20]
 8001c7e:	f424 6440 	bic.w	r4, r4, #3072	; 0xc00
 8001c82:	4335      	orrs	r5, r6
 8001c84:	ea44 0485 	orr.w	r4, r4, r5, lsl #2
 8001c88:	6044      	str	r4, [r0, #4]
 8001c8a:	6182      	str	r2, [r0, #24]
 8001c8c:	684a      	ldr	r2, [r1, #4]
 8001c8e:	6382      	str	r2, [r0, #56]	; 0x38
 8001c90:	6203      	str	r3, [r0, #32]
 8001c92:	bd70      	pop	{r4, r5, r6, pc}
 8001c94:	40010000 	.word	0x40010000

08001c98 <HAL_TIM_PWM_ConfigChannel>:
 8001c98:	b538      	push	{r3, r4, r5, lr}
 8001c9a:	f890 303c 	ldrb.w	r3, [r0, #60]	; 0x3c
 8001c9e:	2b01      	cmp	r3, #1
 8001ca0:	4604      	mov	r4, r0
 8001ca2:	d052      	beq.n	8001d4a <HAL_TIM_PWM_ConfigChannel+0xb2>
 8001ca4:	2301      	movs	r3, #1
 8001ca6:	2a08      	cmp	r2, #8
 8001ca8:	f880 303c 	strb.w	r3, [r0, #60]	; 0x3c
 8001cac:	d03c      	beq.n	8001d28 <HAL_TIM_PWM_ConfigChannel+0x90>
 8001cae:	d806      	bhi.n	8001cbe <HAL_TIM_PWM_ConfigChannel+0x26>
 8001cb0:	b1c2      	cbz	r2, 8001ce4 <HAL_TIM_PWM_ConfigChannel+0x4c>
 8001cb2:	2a04      	cmp	r2, #4
 8001cb4:	d027      	beq.n	8001d06 <HAL_TIM_PWM_ConfigChannel+0x6e>
 8001cb6:	2000      	movs	r0, #0
 8001cb8:	f884 003c 	strb.w	r0, [r4, #60]	; 0x3c
 8001cbc:	bd38      	pop	{r3, r4, r5, pc}
 8001cbe:	2a0c      	cmp	r2, #12
 8001cc0:	d1f9      	bne.n	8001cb6 <HAL_TIM_PWM_ConfigChannel+0x1e>
 8001cc2:	6800      	ldr	r0, [r0, #0]
 8001cc4:	f7ff fdf0 	bl	80018a8 <TIM_OC4_SetConfig>
 8001cc8:	6823      	ldr	r3, [r4, #0]
 8001cca:	6909      	ldr	r1, [r1, #16]
 8001ccc:	69da      	ldr	r2, [r3, #28]
 8001cce:	f442 6200 	orr.w	r2, r2, #2048	; 0x800
 8001cd2:	61da      	str	r2, [r3, #28]
 8001cd4:	69da      	ldr	r2, [r3, #28]
 8001cd6:	f422 6280 	bic.w	r2, r2, #1024	; 0x400
 8001cda:	61da      	str	r2, [r3, #28]
 8001cdc:	69da      	ldr	r2, [r3, #28]
 8001cde:	ea42 2201 	orr.w	r2, r2, r1, lsl #8
 8001ce2:	e030      	b.n	8001d46 <HAL_TIM_PWM_ConfigChannel+0xae>
 8001ce4:	6800      	ldr	r0, [r0, #0]
 8001ce6:	f7ff fd77 	bl	80017d8 <TIM_OC1_SetConfig>
 8001cea:	6823      	ldr	r3, [r4, #0]
 8001cec:	6909      	ldr	r1, [r1, #16]
 8001cee:	699a      	ldr	r2, [r3, #24]
 8001cf0:	f042 0208 	orr.w	r2, r2, #8
 8001cf4:	619a      	str	r2, [r3, #24]
 8001cf6:	699a      	ldr	r2, [r3, #24]
 8001cf8:	f022 0204 	bic.w	r2, r2, #4
 8001cfc:	619a      	str	r2, [r3, #24]
 8001cfe:	699a      	ldr	r2, [r3, #24]
 8001d00:	430a      	orrs	r2, r1
 8001d02:	619a      	str	r2, [r3, #24]
 8001d04:	e7d7      	b.n	8001cb6 <HAL_TIM_PWM_ConfigChannel+0x1e>
 8001d06:	6800      	ldr	r0, [r0, #0]
 8001d08:	f7ff ff90 	bl	8001c2c <TIM_OC2_SetConfig>
 8001d0c:	6823      	ldr	r3, [r4, #0]
 8001d0e:	6909      	ldr	r1, [r1, #16]
 8001d10:	699a      	ldr	r2, [r3, #24]
 8001d12:	f442 6200 	orr.w	r2, r2, #2048	; 0x800
 8001d16:	619a      	str	r2, [r3, #24]
 8001d18:	699a      	ldr	r2, [r3, #24]
 8001d1a:	f422 6280 	bic.w	r2, r2, #1024	; 0x400
 8001d1e:	619a      	str	r2, [r3, #24]
 8001d20:	699a      	ldr	r2, [r3, #24]
 8001d22:	ea42 2201 	orr.w	r2, r2, r1, lsl #8
 8001d26:	e7ec      	b.n	8001d02 <HAL_TIM_PWM_ConfigChannel+0x6a>
 8001d28:	6800      	ldr	r0, [r0, #0]
 8001d2a:	f7ff fd87 	bl	800183c <TIM_OC3_SetConfig>
 8001d2e:	6823      	ldr	r3, [r4, #0]
 8001d30:	6909      	ldr	r1, [r1, #16]
 8001d32:	69da      	ldr	r2, [r3, #28]
 8001d34:	f042 0208 	orr.w	r2, r2, #8
 8001d38:	61da      	str	r2, [r3, #28]
 8001d3a:	69da      	ldr	r2, [r3, #28]
 8001d3c:	f022 0204 	bic.w	r2, r2, #4
 8001d40:	61da      	str	r2, [r3, #28]
 8001d42:	69da      	ldr	r2, [r3, #28]
 8001d44:	430a      	orrs	r2, r1
 8001d46:	61da      	str	r2, [r3, #28]
 8001d48:	e7b5      	b.n	8001cb6 <HAL_TIM_PWM_ConfigChannel+0x1e>
 8001d4a:	2002      	movs	r0, #2
 8001d4c:	e7b6      	b.n	8001cbc <HAL_TIM_PWM_ConfigChannel+0x24>

08001d4e <TIM_ETR_SetConfig>:
 8001d4e:	b510      	push	{r4, lr}
 8001d50:	6884      	ldr	r4, [r0, #8]
 8001d52:	4311      	orrs	r1, r2
 8001d54:	f424 447f 	bic.w	r4, r4, #65280	; 0xff00
 8001d58:	ea41 2303 	orr.w	r3, r1, r3, lsl #8
 8001d5c:	4323      	orrs	r3, r4
 8001d5e:	6083      	str	r3, [r0, #8]
 8001d60:	bd10      	pop	{r4, pc}

08001d62 <HAL_TIM_ConfigClockSource>:
 8001d62:	b570      	push	{r4, r5, r6, lr}
 8001d64:	f890 303c 	ldrb.w	r3, [r0, #60]	; 0x3c
 8001d68:	2b01      	cmp	r3, #1
 8001d6a:	4604      	mov	r4, r0
 8001d6c:	f04f 0002 	mov.w	r0, #2
 8001d70:	d027      	beq.n	8001dc2 <HAL_TIM_ConfigClockSource+0x60>
 8001d72:	f884 003d 	strb.w	r0, [r4, #61]	; 0x3d
 8001d76:	2301      	movs	r3, #1
 8001d78:	6820      	ldr	r0, [r4, #0]
 8001d7a:	f884 303c 	strb.w	r3, [r4, #60]	; 0x3c
 8001d7e:	6883      	ldr	r3, [r0, #8]
 8001d80:	f423 437f 	bic.w	r3, r3, #65280	; 0xff00
 8001d84:	f023 0377 	bic.w	r3, r3, #119	; 0x77
 8001d88:	6083      	str	r3, [r0, #8]
 8001d8a:	680b      	ldr	r3, [r1, #0]
 8001d8c:	2b60      	cmp	r3, #96	; 0x60
 8001d8e:	d04d      	beq.n	8001e2c <HAL_TIM_ConfigClockSource+0xca>
 8001d90:	d832      	bhi.n	8001df8 <HAL_TIM_ConfigClockSource+0x96>
 8001d92:	2b40      	cmp	r3, #64	; 0x40
 8001d94:	d062      	beq.n	8001e5c <HAL_TIM_ConfigClockSource+0xfa>
 8001d96:	d815      	bhi.n	8001dc4 <HAL_TIM_ConfigClockSource+0x62>
 8001d98:	2b20      	cmp	r3, #32
 8001d9a:	d003      	beq.n	8001da4 <HAL_TIM_ConfigClockSource+0x42>
 8001d9c:	d809      	bhi.n	8001db2 <HAL_TIM_ConfigClockSource+0x50>
 8001d9e:	f033 0210 	bics.w	r2, r3, #16
 8001da2:	d108      	bne.n	8001db6 <HAL_TIM_ConfigClockSource+0x54>
 8001da4:	6882      	ldr	r2, [r0, #8]
 8001da6:	f022 0270 	bic.w	r2, r2, #112	; 0x70
 8001daa:	4313      	orrs	r3, r2
 8001dac:	f043 0307 	orr.w	r3, r3, #7
 8001db0:	e020      	b.n	8001df4 <HAL_TIM_ConfigClockSource+0x92>
 8001db2:	2b30      	cmp	r3, #48	; 0x30
 8001db4:	d0f6      	beq.n	8001da4 <HAL_TIM_ConfigClockSource+0x42>
 8001db6:	2301      	movs	r3, #1
 8001db8:	2000      	movs	r0, #0
 8001dba:	f884 303d 	strb.w	r3, [r4, #61]	; 0x3d
 8001dbe:	f884 003c 	strb.w	r0, [r4, #60]	; 0x3c
 8001dc2:	bd70      	pop	{r4, r5, r6, pc}
 8001dc4:	2b50      	cmp	r3, #80	; 0x50
 8001dc6:	d1f6      	bne.n	8001db6 <HAL_TIM_ConfigClockSource+0x54>
 8001dc8:	684a      	ldr	r2, [r1, #4]
 8001dca:	68ce      	ldr	r6, [r1, #12]
 8001dcc:	6a01      	ldr	r1, [r0, #32]
 8001dce:	6a05      	ldr	r5, [r0, #32]
 8001dd0:	f025 0501 	bic.w	r5, r5, #1
 8001dd4:	6205      	str	r5, [r0, #32]
 8001dd6:	6983      	ldr	r3, [r0, #24]
 8001dd8:	f021 010a 	bic.w	r1, r1, #10
 8001ddc:	f023 03f0 	bic.w	r3, r3, #240	; 0xf0
 8001de0:	ea43 1306 	orr.w	r3, r3, r6, lsl #4
 8001de4:	430a      	orrs	r2, r1
 8001de6:	6183      	str	r3, [r0, #24]
 8001de8:	6202      	str	r2, [r0, #32]
 8001dea:	6883      	ldr	r3, [r0, #8]
 8001dec:	f023 0370 	bic.w	r3, r3, #112	; 0x70
 8001df0:	f043 0357 	orr.w	r3, r3, #87	; 0x57
 8001df4:	6083      	str	r3, [r0, #8]
 8001df6:	e7de      	b.n	8001db6 <HAL_TIM_ConfigClockSource+0x54>
 8001df8:	2b70      	cmp	r3, #112	; 0x70
 8001dfa:	d00c      	beq.n	8001e16 <HAL_TIM_ConfigClockSource+0xb4>
 8001dfc:	f5b3 5f00 	cmp.w	r3, #8192	; 0x2000
 8001e00:	d1d9      	bne.n	8001db6 <HAL_TIM_ConfigClockSource+0x54>
 8001e02:	68cb      	ldr	r3, [r1, #12]
 8001e04:	e9d1 2101 	ldrd	r2, r1, [r1, #4]
 8001e08:	f7ff ffa1 	bl	8001d4e <TIM_ETR_SetConfig>
 8001e0c:	6822      	ldr	r2, [r4, #0]
 8001e0e:	6893      	ldr	r3, [r2, #8]
 8001e10:	f443 4380 	orr.w	r3, r3, #16384	; 0x4000
 8001e14:	e008      	b.n	8001e28 <HAL_TIM_ConfigClockSource+0xc6>
 8001e16:	68cb      	ldr	r3, [r1, #12]
 8001e18:	e9d1 2101 	ldrd	r2, r1, [r1, #4]
 8001e1c:	f7ff ff97 	bl	8001d4e <TIM_ETR_SetConfig>
 8001e20:	6822      	ldr	r2, [r4, #0]
 8001e22:	6893      	ldr	r3, [r2, #8]
 8001e24:	f043 0377 	orr.w	r3, r3, #119	; 0x77
 8001e28:	6093      	str	r3, [r2, #8]
 8001e2a:	e7c4      	b.n	8001db6 <HAL_TIM_ConfigClockSource+0x54>
 8001e2c:	684d      	ldr	r5, [r1, #4]
 8001e2e:	68ce      	ldr	r6, [r1, #12]
 8001e30:	6a01      	ldr	r1, [r0, #32]
 8001e32:	f021 0110 	bic.w	r1, r1, #16
 8001e36:	6201      	str	r1, [r0, #32]
 8001e38:	6982      	ldr	r2, [r0, #24]
 8001e3a:	6a03      	ldr	r3, [r0, #32]
 8001e3c:	f422 4270 	bic.w	r2, r2, #61440	; 0xf000
 8001e40:	f023 03a0 	bic.w	r3, r3, #160	; 0xa0
 8001e44:	ea43 1305 	orr.w	r3, r3, r5, lsl #4
 8001e48:	ea42 3206 	orr.w	r2, r2, r6, lsl #12
 8001e4c:	6182      	str	r2, [r0, #24]
 8001e4e:	6203      	str	r3, [r0, #32]
 8001e50:	6883      	ldr	r3, [r0, #8]
 8001e52:	f023 0370 	bic.w	r3, r3, #112	; 0x70
 8001e56:	f043 0367 	orr.w	r3, r3, #103	; 0x67
 8001e5a:	e7cb      	b.n	8001df4 <HAL_TIM_ConfigClockSource+0x92>
 8001e5c:	684a      	ldr	r2, [r1, #4]
 8001e5e:	68ce      	ldr	r6, [r1, #12]
 8001e60:	6a01      	ldr	r1, [r0, #32]
 8001e62:	6a05      	ldr	r5, [r0, #32]
 8001e64:	f025 0501 	bic.w	r5, r5, #1
 8001e68:	6205      	str	r5, [r0, #32]
 8001e6a:	6983      	ldr	r3, [r0, #24]
 8001e6c:	f021 010a 	bic.w	r1, r1, #10
 8001e70:	f023 03f0 	bic.w	r3, r3, #240	; 0xf0
 8001e74:	ea43 1306 	orr.w	r3, r3, r6, lsl #4
 8001e78:	430a      	orrs	r2, r1
 8001e7a:	6183      	str	r3, [r0, #24]
 8001e7c:	6202      	str	r2, [r0, #32]
 8001e7e:	6883      	ldr	r3, [r0, #8]
 8001e80:	f023 0370 	bic.w	r3, r3, #112	; 0x70
 8001e84:	f043 0347 	orr.w	r3, r3, #71	; 0x47
 8001e88:	e7b4      	b.n	8001df4 <HAL_TIM_ConfigClockSource+0x92>

08001e8a <TIM_CCxChannelCmd>:
 8001e8a:	6a03      	ldr	r3, [r0, #32]
 8001e8c:	f001 011f 	and.w	r1, r1, #31
 8001e90:	b510      	push	{r4, lr}
 8001e92:	2401      	movs	r4, #1
 8001e94:	408c      	lsls	r4, r1
 8001e96:	ea23 0304 	bic.w	r3, r3, r4
 8001e9a:	6203      	str	r3, [r0, #32]
 8001e9c:	6a03      	ldr	r3, [r0, #32]
 8001e9e:	408a      	lsls	r2, r1
 8001ea0:	431a      	orrs	r2, r3
 8001ea2:	6202      	str	r2, [r0, #32]
 8001ea4:	bd10      	pop	{r4, pc}
	...

08001ea8 <HAL_TIM_OC_Start>:
 8001ea8:	b510      	push	{r4, lr}
 8001eaa:	4604      	mov	r4, r0
 8001eac:	b929      	cbnz	r1, 8001eba <HAL_TIM_OC_Start+0x12>
 8001eae:	f890 303e 	ldrb.w	r3, [r0, #62]	; 0x3e
 8001eb2:	2b01      	cmp	r3, #1
 8001eb4:	d01d      	beq.n	8001ef2 <HAL_TIM_OC_Start+0x4a>
 8001eb6:	2001      	movs	r0, #1
 8001eb8:	e032      	b.n	8001f20 <HAL_TIM_OC_Start+0x78>
 8001eba:	2904      	cmp	r1, #4
 8001ebc:	d107      	bne.n	8001ece <HAL_TIM_OC_Start+0x26>
 8001ebe:	f890 303f 	ldrb.w	r3, [r0, #63]	; 0x3f
 8001ec2:	2b01      	cmp	r3, #1
 8001ec4:	d1f7      	bne.n	8001eb6 <HAL_TIM_OC_Start+0xe>
 8001ec6:	2302      	movs	r3, #2
 8001ec8:	f880 303f 	strb.w	r3, [r0, #63]	; 0x3f
 8001ecc:	e014      	b.n	8001ef8 <HAL_TIM_OC_Start+0x50>
 8001ece:	2908      	cmp	r1, #8
 8001ed0:	d107      	bne.n	8001ee2 <HAL_TIM_OC_Start+0x3a>
 8001ed2:	f890 3040 	ldrb.w	r3, [r0, #64]	; 0x40
 8001ed6:	2b01      	cmp	r3, #1
 8001ed8:	d1ed      	bne.n	8001eb6 <HAL_TIM_OC_Start+0xe>
 8001eda:	2302      	movs	r3, #2
 8001edc:	f880 3040 	strb.w	r3, [r0, #64]	; 0x40
 8001ee0:	e00a      	b.n	8001ef8 <HAL_TIM_OC_Start+0x50>
 8001ee2:	f890 3041 	ldrb.w	r3, [r0, #65]	; 0x41
 8001ee6:	2b01      	cmp	r3, #1
 8001ee8:	d1e5      	bne.n	8001eb6 <HAL_TIM_OC_Start+0xe>
 8001eea:	2302      	movs	r3, #2
 8001eec:	f880 3041 	strb.w	r3, [r0, #65]	; 0x41
 8001ef0:	e002      	b.n	8001ef8 <HAL_TIM_OC_Start+0x50>
 8001ef2:	2302      	movs	r3, #2
 8001ef4:	f880 303e 	strb.w	r3, [r0, #62]	; 0x3e
 8001ef8:	2201      	movs	r2, #1
 8001efa:	6820      	ldr	r0, [r4, #0]
 8001efc:	f7ff ffc5 	bl	8001e8a <TIM_CCxChannelCmd>
 8001f00:	6823      	ldr	r3, [r4, #0]
 8001f02:	4a19      	ldr	r2, [pc, #100]	; (8001f68 <HAL_TIM_OC_Start+0xc0>)
 8001f04:	4293      	cmp	r3, r2
 8001f06:	d00c      	beq.n	8001f22 <HAL_TIM_OC_Start+0x7a>
 8001f08:	4918      	ldr	r1, [pc, #96]	; (8001f6c <HAL_TIM_OC_Start+0xc4>)
 8001f0a:	428b      	cmp	r3, r1
 8001f0c:	d009      	beq.n	8001f22 <HAL_TIM_OC_Start+0x7a>
 8001f0e:	f1b3 4f80 	cmp.w	r3, #1073741824	; 0x40000000
 8001f12:	d10d      	bne.n	8001f30 <HAL_TIM_OC_Start+0x88>
 8001f14:	689a      	ldr	r2, [r3, #8]
 8001f16:	f002 0207 	and.w	r2, r2, #7
 8001f1a:	2a06      	cmp	r2, #6
 8001f1c:	d11f      	bne.n	8001f5e <HAL_TIM_OC_Start+0xb6>
 8001f1e:	2000      	movs	r0, #0
 8001f20:	bd10      	pop	{r4, pc}
 8001f22:	6c59      	ldr	r1, [r3, #68]	; 0x44
 8001f24:	4293      	cmp	r3, r2
 8001f26:	f441 4100 	orr.w	r1, r1, #32768	; 0x8000
 8001f2a:	6459      	str	r1, [r3, #68]	; 0x44
 8001f2c:	d0f2      	beq.n	8001f14 <HAL_TIM_OC_Start+0x6c>
 8001f2e:	e7ee      	b.n	8001f0e <HAL_TIM_OC_Start+0x66>
 8001f30:	4a0f      	ldr	r2, [pc, #60]	; (8001f70 <HAL_TIM_OC_Start+0xc8>)
 8001f32:	4293      	cmp	r3, r2
 8001f34:	d0ee      	beq.n	8001f14 <HAL_TIM_OC_Start+0x6c>
 8001f36:	f502 6280 	add.w	r2, r2, #1024	; 0x400
 8001f3a:	4293      	cmp	r3, r2
 8001f3c:	d0ea      	beq.n	8001f14 <HAL_TIM_OC_Start+0x6c>
 8001f3e:	f502 6280 	add.w	r2, r2, #1024	; 0x400
 8001f42:	4293      	cmp	r3, r2
 8001f44:	d0e6      	beq.n	8001f14 <HAL_TIM_OC_Start+0x6c>
 8001f46:	f502 4278 	add.w	r2, r2, #63488	; 0xf800
 8001f4a:	4293      	cmp	r3, r2
 8001f4c:	d0e2      	beq.n	8001f14 <HAL_TIM_OC_Start+0x6c>
 8001f4e:	f502 5270 	add.w	r2, r2, #15360	; 0x3c00
 8001f52:	4293      	cmp	r3, r2
 8001f54:	d0de      	beq.n	8001f14 <HAL_TIM_OC_Start+0x6c>
 8001f56:	f5a2 3294 	sub.w	r2, r2, #75776	; 0x12800
 8001f5a:	4293      	cmp	r3, r2
 8001f5c:	d0da      	beq.n	8001f14 <HAL_TIM_OC_Start+0x6c>
 8001f5e:	681a      	ldr	r2, [r3, #0]
 8001f60:	f042 0201 	orr.w	r2, r2, #1
 8001f64:	601a      	str	r2, [r3, #0]
 8001f66:	e7da      	b.n	8001f1e <HAL_TIM_OC_Start+0x76>
 8001f68:	40010000 	.word	0x40010000
 8001f6c:	40010400 	.word	0x40010400
 8001f70:	40000400 	.word	0x40000400

08001f74 <HAL_TIM_PWM_Start>:
 8001f74:	f7ff bf98 	b.w	8001ea8 <HAL_TIM_OC_Start>

08001f78 <HAL_TIM_OC_Start_IT>:
 8001f78:	b510      	push	{r4, lr}
 8001f7a:	4604      	mov	r4, r0
 8001f7c:	b929      	cbnz	r1, 8001f8a <HAL_TIM_OC_Start_IT+0x12>
 8001f7e:	f890 303e 	ldrb.w	r3, [r0, #62]	; 0x3e
 8001f82:	2b01      	cmp	r3, #1
 8001f84:	d02b      	beq.n	8001fde <HAL_TIM_OC_Start_IT+0x66>
 8001f86:	2001      	movs	r0, #1
 8001f88:	e045      	b.n	8002016 <HAL_TIM_OC_Start_IT+0x9e>
 8001f8a:	2904      	cmp	r1, #4
 8001f8c:	d10b      	bne.n	8001fa6 <HAL_TIM_OC_Start_IT+0x2e>
 8001f8e:	f890 303f 	ldrb.w	r3, [r0, #63]	; 0x3f
 8001f92:	2b01      	cmp	r3, #1
 8001f94:	d1f7      	bne.n	8001f86 <HAL_TIM_OC_Start_IT+0xe>
 8001f96:	2302      	movs	r3, #2
 8001f98:	6802      	ldr	r2, [r0, #0]
 8001f9a:	f880 303f 	strb.w	r3, [r0, #63]	; 0x3f
 8001f9e:	68d3      	ldr	r3, [r2, #12]
 8001fa0:	f043 0304 	orr.w	r3, r3, #4
 8001fa4:	e022      	b.n	8001fec <HAL_TIM_OC_Start_IT+0x74>
 8001fa6:	2908      	cmp	r1, #8
 8001fa8:	d10b      	bne.n	8001fc2 <HAL_TIM_OC_Start_IT+0x4a>
 8001faa:	f890 3040 	ldrb.w	r3, [r0, #64]	; 0x40
 8001fae:	2b01      	cmp	r3, #1
 8001fb0:	d1e9      	bne.n	8001f86 <HAL_TIM_OC_Start_IT+0xe>
 8001fb2:	2302      	movs	r3, #2
 8001fb4:	6802      	ldr	r2, [r0, #0]
 8001fb6:	f880 3040 	strb.w	r3, [r0, #64]	; 0x40
 8001fba:	68d3      	ldr	r3, [r2, #12]
 8001fbc:	f043 0308 	orr.w	r3, r3, #8
 8001fc0:	e014      	b.n	8001fec <HAL_TIM_OC_Start_IT+0x74>
 8001fc2:	f890 3041 	ldrb.w	r3, [r0, #65]	; 0x41
 8001fc6:	2b01      	cmp	r3, #1
 8001fc8:	d1dd      	bne.n	8001f86 <HAL_TIM_OC_Start_IT+0xe>
 8001fca:	2302      	movs	r3, #2
 8001fcc:	290c      	cmp	r1, #12
 8001fce:	f880 3041 	strb.w	r3, [r0, #65]	; 0x41
 8001fd2:	d10c      	bne.n	8001fee <HAL_TIM_OC_Start_IT+0x76>
 8001fd4:	6802      	ldr	r2, [r0, #0]
 8001fd6:	68d3      	ldr	r3, [r2, #12]
 8001fd8:	f043 0310 	orr.w	r3, r3, #16
 8001fdc:	e006      	b.n	8001fec <HAL_TIM_OC_Start_IT+0x74>
 8001fde:	2302      	movs	r3, #2
 8001fe0:	6802      	ldr	r2, [r0, #0]
 8001fe2:	f880 303e 	strb.w	r3, [r0, #62]	; 0x3e
 8001fe6:	68d3      	ldr	r3, [r2, #12]
 8001fe8:	f043 0302 	orr.w	r3, r3, #2
 8001fec:	60d3      	str	r3, [r2, #12]
 8001fee:	2201      	movs	r2, #1
 8001ff0:	6820      	ldr	r0, [r4, #0]
 8001ff2:	f7ff ff4a 	bl	8001e8a <TIM_CCxChannelCmd>
 8001ff6:	6823      	ldr	r3, [r4, #0]
 8001ff8:	4a19      	ldr	r2, [pc, #100]	; (8002060 <HAL_TIM_OC_Start_IT+0xe8>)
 8001ffa:	4293      	cmp	r3, r2
 8001ffc:	d00c      	beq.n	8002018 <HAL_TIM_OC_Start_IT+0xa0>
 8001ffe:	4919      	ldr	r1, [pc, #100]	; (8002064 <HAL_TIM_OC_Start_IT+0xec>)
 8002000:	428b      	cmp	r3, r1
 8002002:	d009      	beq.n	8002018 <HAL_TIM_OC_Start_IT+0xa0>
 8002004:	f1b3 4f80 	cmp.w	r3, #1073741824	; 0x40000000
 8002008:	d10d      	bne.n	8002026 <HAL_TIM_OC_Start_IT+0xae>
 800200a:	689a      	ldr	r2, [r3, #8]
 800200c:	f002 0207 	and.w	r2, r2, #7
 8002010:	2a06      	cmp	r2, #6
 8002012:	d11f      	bne.n	8002054 <HAL_TIM_OC_Start_IT+0xdc>
 8002014:	2000      	movs	r0, #0
 8002016:	bd10      	pop	{r4, pc}
 8002018:	6c59      	ldr	r1, [r3, #68]	; 0x44
 800201a:	4293      	cmp	r3, r2
 800201c:	f441 4100 	orr.w	r1, r1, #32768	; 0x8000
 8002020:	6459      	str	r1, [r3, #68]	; 0x44
 8002022:	d0f2      	beq.n	800200a <HAL_TIM_OC_Start_IT+0x92>
 8002024:	e7ee      	b.n	8002004 <HAL_TIM_OC_Start_IT+0x8c>
 8002026:	4a10      	ldr	r2, [pc, #64]	; (8002068 <HAL_TIM_OC_Start_IT+0xf0>)
 8002028:	4293      	cmp	r3, r2
 800202a:	d0ee      	beq.n	800200a <HAL_TIM_OC_Start_IT+0x92>
 800202c:	f502 6280 	add.w	r2, r2, #1024	; 0x400
 8002030:	4293      	cmp	r3, r2
 8002032:	d0ea      	beq.n	800200a <HAL_TIM_OC_Start_IT+0x92>
 8002034:	f502 6280 	add.w	r2, r2, #1024	; 0x400
 8002038:	4293      	cmp	r3, r2
 800203a:	d0e6      	beq.n	800200a <HAL_TIM_OC_Start_IT+0x92>
 800203c:	f502 4278 	add.w	r2, r2, #63488	; 0xf800
 8002040:	4293      	cmp	r3, r2
 8002042:	d0e2      	beq.n	800200a <HAL_TIM_OC_Start_IT+0x92>
 8002044:	f502 5270 	add.w	r2, r2, #15360	; 0x3c00
 8002048:	4293      	cmp	r3, r2
 800204a:	d0de      	beq.n	800200a <HAL_TIM_OC_Start_IT+0x92>
 800204c:	f5a2 3294 	sub.w	r2, r2, #75776	; 0x12800
 8002050:	4293      	cmp	r3, r2
 8002052:	d0da      	beq.n	800200a <HAL_TIM_OC_Start_IT+0x92>
 8002054:	681a      	ldr	r2, [r3, #0]
 8002056:	f042 0201 	orr.w	r2, r2, #1
 800205a:	601a      	str	r2, [r3, #0]
 800205c:	e7da      	b.n	8002014 <HAL_TIM_OC_Start_IT+0x9c>
 800205e:	bf00      	nop
 8002060:	40010000 	.word	0x40010000
 8002064:	40010400 	.word	0x40010400
 8002068:	40000400 	.word	0x40000400

0800206c <HAL_TIM_PWM_Start_IT>:
 800206c:	f7ff bf84 	b.w	8001f78 <HAL_TIM_OC_Start_IT>

08002070 <HAL_TIMEx_MasterConfigSynchronization>:
 8002070:	b530      	push	{r4, r5, lr}
 8002072:	f890 303c 	ldrb.w	r3, [r0, #60]	; 0x3c
 8002076:	2b01      	cmp	r3, #1
 8002078:	f04f 0302 	mov.w	r3, #2
 800207c:	d032      	beq.n	80020e4 <HAL_TIMEx_MasterConfigSynchronization+0x74>
 800207e:	f880 303d 	strb.w	r3, [r0, #61]	; 0x3d
 8002082:	6803      	ldr	r3, [r0, #0]
 8002084:	680d      	ldr	r5, [r1, #0]
 8002086:	685c      	ldr	r4, [r3, #4]
 8002088:	689a      	ldr	r2, [r3, #8]
 800208a:	f024 0470 	bic.w	r4, r4, #112	; 0x70
 800208e:	432c      	orrs	r4, r5
 8002090:	605c      	str	r4, [r3, #4]
 8002092:	4c15      	ldr	r4, [pc, #84]	; (80020e8 <HAL_TIMEx_MasterConfigSynchronization+0x78>)
 8002094:	42a3      	cmp	r3, r4
 8002096:	d01a      	beq.n	80020ce <HAL_TIMEx_MasterConfigSynchronization+0x5e>
 8002098:	f1b3 4f80 	cmp.w	r3, #1073741824	; 0x40000000
 800209c:	d017      	beq.n	80020ce <HAL_TIMEx_MasterConfigSynchronization+0x5e>
 800209e:	f5a4 447c 	sub.w	r4, r4, #64512	; 0xfc00
 80020a2:	42a3      	cmp	r3, r4
 80020a4:	d013      	beq.n	80020ce <HAL_TIMEx_MasterConfigSynchronization+0x5e>
 80020a6:	f504 6480 	add.w	r4, r4, #1024	; 0x400
 80020aa:	42a3      	cmp	r3, r4
 80020ac:	d00f      	beq.n	80020ce <HAL_TIMEx_MasterConfigSynchronization+0x5e>
 80020ae:	f504 6480 	add.w	r4, r4, #1024	; 0x400
 80020b2:	42a3      	cmp	r3, r4
 80020b4:	d00b      	beq.n	80020ce <HAL_TIMEx_MasterConfigSynchronization+0x5e>
 80020b6:	f504 4478 	add.w	r4, r4, #63488	; 0xf800
 80020ba:	42a3      	cmp	r3, r4
 80020bc:	d007      	beq.n	80020ce <HAL_TIMEx_MasterConfigSynchronization+0x5e>
 80020be:	f504 5470 	add.w	r4, r4, #15360	; 0x3c00
 80020c2:	42a3      	cmp	r3, r4
 80020c4:	d003      	beq.n	80020ce <HAL_TIMEx_MasterConfigSynchronization+0x5e>
 80020c6:	f5a4 3494 	sub.w	r4, r4, #75776	; 0x12800
 80020ca:	42a3      	cmp	r3, r4
 80020cc:	d104      	bne.n	80020d8 <HAL_TIMEx_MasterConfigSynchronization+0x68>
 80020ce:	6849      	ldr	r1, [r1, #4]
 80020d0:	f022 0280 	bic.w	r2, r2, #128	; 0x80
 80020d4:	430a      	orrs	r2, r1
 80020d6:	609a      	str	r2, [r3, #8]
 80020d8:	2301      	movs	r3, #1
 80020da:	f880 303d 	strb.w	r3, [r0, #61]	; 0x3d
 80020de:	2300      	movs	r3, #0
 80020e0:	f880 303c 	strb.w	r3, [r0, #60]	; 0x3c
 80020e4:	4618      	mov	r0, r3
 80020e6:	bd30      	pop	{r4, r5, pc}
 80020e8:	40010000 	.word	0x40010000

080020ec <HAL_TIMEx_CommutCallback>:
 80020ec:	4770      	bx	lr

080020ee <HAL_TIMEx_BreakCallback>:
 80020ee:	4770      	bx	lr

080020f0 <UART_EndRxTransfer>:
 80020f0:	6803      	ldr	r3, [r0, #0]
 80020f2:	68da      	ldr	r2, [r3, #12]
 80020f4:	f422 7290 	bic.w	r2, r2, #288	; 0x120
 80020f8:	60da      	str	r2, [r3, #12]
 80020fa:	695a      	ldr	r2, [r3, #20]
 80020fc:	f022 0201 	bic.w	r2, r2, #1
 8002100:	615a      	str	r2, [r3, #20]
 8002102:	6b02      	ldr	r2, [r0, #48]	; 0x30
 8002104:	2a01      	cmp	r2, #1
 8002106:	bf02      	ittt	eq
 8002108:	68da      	ldreq	r2, [r3, #12]
 800210a:	f022 0210 	biceq.w	r2, r2, #16
 800210e:	60da      	streq	r2, [r3, #12]
 8002110:	2320      	movs	r3, #32
 8002112:	f880 303e 	strb.w	r3, [r0, #62]	; 0x3e
 8002116:	2300      	movs	r3, #0
 8002118:	6303      	str	r3, [r0, #48]	; 0x30
 800211a:	4770      	bx	lr

0800211c <UART_SetConfig>:
 800211c:	6802      	ldr	r2, [r0, #0]
 800211e:	68c1      	ldr	r1, [r0, #12]
 8002120:	b538      	push	{r3, r4, r5, lr}
 8002122:	6913      	ldr	r3, [r2, #16]
 8002124:	f423 5340 	bic.w	r3, r3, #12288	; 0x3000
 8002128:	430b      	orrs	r3, r1
 800212a:	6113      	str	r3, [r2, #16]
 800212c:	4605      	mov	r5, r0
 800212e:	6883      	ldr	r3, [r0, #8]
 8002130:	6900      	ldr	r0, [r0, #16]
 8002132:	68d1      	ldr	r1, [r2, #12]
 8002134:	4303      	orrs	r3, r0
 8002136:	6968      	ldr	r0, [r5, #20]
 8002138:	4303      	orrs	r3, r0
 800213a:	69e8      	ldr	r0, [r5, #28]
 800213c:	f421 4116 	bic.w	r1, r1, #38400	; 0x9600
 8002140:	f021 010c 	bic.w	r1, r1, #12
 8002144:	4303      	orrs	r3, r0
 8002146:	430b      	orrs	r3, r1
 8002148:	60d3      	str	r3, [r2, #12]
 800214a:	6953      	ldr	r3, [r2, #20]
 800214c:	69a9      	ldr	r1, [r5, #24]
 800214e:	f423 7340 	bic.w	r3, r3, #768	; 0x300
 8002152:	430b      	orrs	r3, r1
 8002154:	6153      	str	r3, [r2, #20]
 8002156:	4b1f      	ldr	r3, [pc, #124]	; (80021d4 <UART_SetConfig+0xb8>)
 8002158:	429a      	cmp	r2, r3
 800215a:	d003      	beq.n	8002164 <UART_SetConfig+0x48>
 800215c:	f503 6380 	add.w	r3, r3, #1024	; 0x400
 8002160:	429a      	cmp	r2, r3
 8002162:	d124      	bne.n	80021ae <UART_SetConfig+0x92>
 8002164:	f7ff fb28 	bl	80017b8 <HAL_RCC_GetPCLK2Freq>
 8002168:	69ea      	ldr	r2, [r5, #28]
 800216a:	2319      	movs	r3, #25
 800216c:	f5b2 4f00 	cmp.w	r2, #32768	; 0x8000
 8002170:	fba0 0103 	umull	r0, r1, r0, r3
 8002174:	e9d5 4300 	ldrd	r4, r3, [r5]
 8002178:	d11c      	bne.n	80021b4 <UART_SetConfig+0x98>
 800217a:	461a      	mov	r2, r3
 800217c:	1892      	adds	r2, r2, r2
 800217e:	f04f 0300 	mov.w	r3, #0
 8002182:	415b      	adcs	r3, r3
 8002184:	f7fe f820 	bl	80001c8 <__aeabi_uldivmod>
 8002188:	2164      	movs	r1, #100	; 0x64
 800218a:	fbb0 f5f1 	udiv	r5, r0, r1
 800218e:	fb01 0315 	mls	r3, r1, r5, r0
 8002192:	00db      	lsls	r3, r3, #3
 8002194:	3332      	adds	r3, #50	; 0x32
 8002196:	fbb3 f3f1 	udiv	r3, r3, r1
 800219a:	f003 0207 	and.w	r2, r3, #7
 800219e:	005b      	lsls	r3, r3, #1
 80021a0:	eb02 1205 	add.w	r2, r2, r5, lsl #4
 80021a4:	f403 73f8 	and.w	r3, r3, #496	; 0x1f0
 80021a8:	4413      	add	r3, r2
 80021aa:	60a3      	str	r3, [r4, #8]
 80021ac:	bd38      	pop	{r3, r4, r5, pc}
 80021ae:	f7ff faf3 	bl	8001798 <HAL_RCC_GetPCLK1Freq>
 80021b2:	e7d9      	b.n	8002168 <UART_SetConfig+0x4c>
 80021b4:	009a      	lsls	r2, r3, #2
 80021b6:	0f9b      	lsrs	r3, r3, #30
 80021b8:	f7fe f806 	bl	80001c8 <__aeabi_uldivmod>
 80021bc:	2264      	movs	r2, #100	; 0x64
 80021be:	fbb0 f1f2 	udiv	r1, r0, r2
 80021c2:	fb02 0311 	mls	r3, r2, r1, r0
 80021c6:	011b      	lsls	r3, r3, #4
 80021c8:	3332      	adds	r3, #50	; 0x32
 80021ca:	fbb3 f3f2 	udiv	r3, r3, r2
 80021ce:	eb03 1301 	add.w	r3, r3, r1, lsl #4
 80021d2:	e7ea      	b.n	80021aa <UART_SetConfig+0x8e>
 80021d4:	40011000 	.word	0x40011000

080021d8 <UART_WaitOnFlagUntilTimeout.constprop.0>:
 80021d8:	b5f8      	push	{r3, r4, r5, r6, r7, lr}
 80021da:	4604      	mov	r4, r0
 80021dc:	460e      	mov	r6, r1
 80021de:	4617      	mov	r7, r2
 80021e0:	461d      	mov	r5, r3
 80021e2:	6822      	ldr	r2, [r4, #0]
 80021e4:	6813      	ldr	r3, [r2, #0]
 80021e6:	ea36 0303 	bics.w	r3, r6, r3
 80021ea:	d101      	bne.n	80021f0 <UART_WaitOnFlagUntilTimeout.constprop.0+0x18>
 80021ec:	2000      	movs	r0, #0
 80021ee:	e014      	b.n	800221a <UART_WaitOnFlagUntilTimeout.constprop.0+0x42>
 80021f0:	1c6b      	adds	r3, r5, #1
 80021f2:	d0f7      	beq.n	80021e4 <UART_WaitOnFlagUntilTimeout.constprop.0+0xc>
 80021f4:	b995      	cbnz	r5, 800221c <UART_WaitOnFlagUntilTimeout.constprop.0+0x44>
 80021f6:	6823      	ldr	r3, [r4, #0]
 80021f8:	68da      	ldr	r2, [r3, #12]
 80021fa:	f422 72d0 	bic.w	r2, r2, #416	; 0x1a0
 80021fe:	60da      	str	r2, [r3, #12]
 8002200:	695a      	ldr	r2, [r3, #20]
 8002202:	f022 0201 	bic.w	r2, r2, #1
 8002206:	615a      	str	r2, [r3, #20]
 8002208:	2320      	movs	r3, #32
 800220a:	f884 303d 	strb.w	r3, [r4, #61]	; 0x3d
 800220e:	f884 303e 	strb.w	r3, [r4, #62]	; 0x3e
 8002212:	2300      	movs	r3, #0
 8002214:	f884 303c 	strb.w	r3, [r4, #60]	; 0x3c
 8002218:	2003      	movs	r0, #3
 800221a:	bdf8      	pop	{r3, r4, r5, r6, r7, pc}
 800221c:	f7fe fd6a 	bl	8000cf4 <HAL_GetTick>
 8002220:	1bc0      	subs	r0, r0, r7
 8002222:	4285      	cmp	r5, r0
 8002224:	d2dd      	bcs.n	80021e2 <UART_WaitOnFlagUntilTimeout.constprop.0+0xa>
 8002226:	e7e6      	b.n	80021f6 <UART_WaitOnFlagUntilTimeout.constprop.0+0x1e>

08002228 <HAL_UART_Init>:
 8002228:	b510      	push	{r4, lr}
 800222a:	4604      	mov	r4, r0
 800222c:	b340      	cbz	r0, 8002280 <HAL_UART_Init+0x58>
 800222e:	f890 303d 	ldrb.w	r3, [r0, #61]	; 0x3d
 8002232:	f003 02ff 	and.w	r2, r3, #255	; 0xff
 8002236:	b91b      	cbnz	r3, 8002240 <HAL_UART_Init+0x18>
 8002238:	f880 203c 	strb.w	r2, [r0, #60]	; 0x3c
 800223c:	f7fe fc94 	bl	8000b68 <HAL_UART_MspInit>
 8002240:	6822      	ldr	r2, [r4, #0]
 8002242:	2324      	movs	r3, #36	; 0x24
 8002244:	f884 303d 	strb.w	r3, [r4, #61]	; 0x3d
 8002248:	68d3      	ldr	r3, [r2, #12]
 800224a:	f423 5300 	bic.w	r3, r3, #8192	; 0x2000
 800224e:	60d3      	str	r3, [r2, #12]
 8002250:	4620      	mov	r0, r4
 8002252:	f7ff ff63 	bl	800211c <UART_SetConfig>
 8002256:	6823      	ldr	r3, [r4, #0]
 8002258:	691a      	ldr	r2, [r3, #16]
 800225a:	f422 4290 	bic.w	r2, r2, #18432	; 0x4800
 800225e:	611a      	str	r2, [r3, #16]
 8002260:	695a      	ldr	r2, [r3, #20]
 8002262:	f022 022a 	bic.w	r2, r2, #42	; 0x2a
 8002266:	615a      	str	r2, [r3, #20]
 8002268:	68da      	ldr	r2, [r3, #12]
 800226a:	f442 5200 	orr.w	r2, r2, #8192	; 0x2000
 800226e:	60da      	str	r2, [r3, #12]
 8002270:	2000      	movs	r0, #0
 8002272:	2320      	movs	r3, #32
 8002274:	6420      	str	r0, [r4, #64]	; 0x40
 8002276:	f884 303d 	strb.w	r3, [r4, #61]	; 0x3d
 800227a:	f884 303e 	strb.w	r3, [r4, #62]	; 0x3e
 800227e:	bd10      	pop	{r4, pc}
 8002280:	2001      	movs	r0, #1
 8002282:	e7fc      	b.n	800227e <HAL_UART_Init+0x56>

08002284 <HAL_UART_Transmit>:
 8002284:	b5f7      	push	{r0, r1, r2, r4, r5, r6, r7, lr}
 8002286:	4617      	mov	r7, r2
 8002288:	f890 203d 	ldrb.w	r2, [r0, #61]	; 0x3d
 800228c:	9300      	str	r3, [sp, #0]
 800228e:	2a20      	cmp	r2, #32
 8002290:	4604      	mov	r4, r0
 8002292:	460e      	mov	r6, r1
 8002294:	d149      	bne.n	800232a <HAL_UART_Transmit+0xa6>
 8002296:	2900      	cmp	r1, #0
 8002298:	d045      	beq.n	8002326 <HAL_UART_Transmit+0xa2>
 800229a:	2f00      	cmp	r7, #0
 800229c:	d043      	beq.n	8002326 <HAL_UART_Transmit+0xa2>
 800229e:	f890 203c 	ldrb.w	r2, [r0, #60]	; 0x3c
 80022a2:	2a01      	cmp	r2, #1
 80022a4:	d041      	beq.n	800232a <HAL_UART_Transmit+0xa6>
 80022a6:	2201      	movs	r2, #1
 80022a8:	f880 203c 	strb.w	r2, [r0, #60]	; 0x3c
 80022ac:	2500      	movs	r5, #0
 80022ae:	2221      	movs	r2, #33	; 0x21
 80022b0:	6405      	str	r5, [r0, #64]	; 0x40
 80022b2:	f880 203d 	strb.w	r2, [r0, #61]	; 0x3d
 80022b6:	f7fe fd1d 	bl	8000cf4 <HAL_GetTick>
 80022ba:	68a1      	ldr	r1, [r4, #8]
 80022bc:	9b00      	ldr	r3, [sp, #0]
 80022be:	84a7      	strh	r7, [r4, #36]	; 0x24
 80022c0:	f5b1 5f80 	cmp.w	r1, #4096	; 0x1000
 80022c4:	4602      	mov	r2, r0
 80022c6:	84e7      	strh	r7, [r4, #38]	; 0x26
 80022c8:	d103      	bne.n	80022d2 <HAL_UART_Transmit+0x4e>
 80022ca:	6921      	ldr	r1, [r4, #16]
 80022cc:	b909      	cbnz	r1, 80022d2 <HAL_UART_Transmit+0x4e>
 80022ce:	4635      	mov	r5, r6
 80022d0:	460e      	mov	r6, r1
 80022d2:	2100      	movs	r1, #0
 80022d4:	f884 103c 	strb.w	r1, [r4, #60]	; 0x3c
 80022d8:	8ce1      	ldrh	r1, [r4, #38]	; 0x26
 80022da:	b289      	uxth	r1, r1
 80022dc:	b941      	cbnz	r1, 80022f0 <HAL_UART_Transmit+0x6c>
 80022de:	2140      	movs	r1, #64	; 0x40
 80022e0:	4620      	mov	r0, r4
 80022e2:	f7ff ff79 	bl	80021d8 <UART_WaitOnFlagUntilTimeout.constprop.0>
 80022e6:	b960      	cbnz	r0, 8002302 <HAL_UART_Transmit+0x7e>
 80022e8:	2320      	movs	r3, #32
 80022ea:	f884 303d 	strb.w	r3, [r4, #61]	; 0x3d
 80022ee:	e009      	b.n	8002304 <HAL_UART_Transmit+0x80>
 80022f0:	2180      	movs	r1, #128	; 0x80
 80022f2:	4620      	mov	r0, r4
 80022f4:	e9cd 2300 	strd	r2, r3, [sp]
 80022f8:	f7ff ff6e 	bl	80021d8 <UART_WaitOnFlagUntilTimeout.constprop.0>
 80022fc:	e9dd 2300 	ldrd	r2, r3, [sp]
 8002300:	b110      	cbz	r0, 8002308 <HAL_UART_Transmit+0x84>
 8002302:	2003      	movs	r0, #3
 8002304:	b003      	add	sp, #12
 8002306:	bdf0      	pop	{r4, r5, r6, r7, pc}
 8002308:	6820      	ldr	r0, [r4, #0]
 800230a:	b94e      	cbnz	r6, 8002320 <HAL_UART_Transmit+0x9c>
 800230c:	f835 1b02 	ldrh.w	r1, [r5], #2
 8002310:	f3c1 0108 	ubfx	r1, r1, #0, #9
 8002314:	6041      	str	r1, [r0, #4]
 8002316:	8ce1      	ldrh	r1, [r4, #38]	; 0x26
 8002318:	3901      	subs	r1, #1
 800231a:	b289      	uxth	r1, r1
 800231c:	84e1      	strh	r1, [r4, #38]	; 0x26
 800231e:	e7db      	b.n	80022d8 <HAL_UART_Transmit+0x54>
 8002320:	f816 1b01 	ldrb.w	r1, [r6], #1
 8002324:	e7f6      	b.n	8002314 <HAL_UART_Transmit+0x90>
 8002326:	2001      	movs	r0, #1
 8002328:	e7ec      	b.n	8002304 <HAL_UART_Transmit+0x80>
 800232a:	2002      	movs	r0, #2
 800232c:	e7ea      	b.n	8002304 <HAL_UART_Transmit+0x80>

0800232e <HAL_UART_RxHalfCpltCallback>:
 800232e:	4770      	bx	lr

08002330 <HAL_UART_ErrorCallback>:
 8002330:	4770      	bx	lr

08002332 <UART_DMAError>:
 8002332:	b508      	push	{r3, lr}
 8002334:	6b80      	ldr	r0, [r0, #56]	; 0x38
 8002336:	6803      	ldr	r3, [r0, #0]
 8002338:	695a      	ldr	r2, [r3, #20]
 800233a:	f890 103d 	ldrb.w	r1, [r0, #61]	; 0x3d
 800233e:	2921      	cmp	r1, #33	; 0x21
 8002340:	d10a      	bne.n	8002358 <UART_DMAError+0x26>
 8002342:	0612      	lsls	r2, r2, #24
 8002344:	d508      	bpl.n	8002358 <UART_DMAError+0x26>
 8002346:	2200      	movs	r2, #0
 8002348:	84c2      	strh	r2, [r0, #38]	; 0x26
 800234a:	68da      	ldr	r2, [r3, #12]
 800234c:	f022 02c0 	bic.w	r2, r2, #192	; 0xc0
 8002350:	60da      	str	r2, [r3, #12]
 8002352:	2220      	movs	r2, #32
 8002354:	f880 203d 	strb.w	r2, [r0, #61]	; 0x3d
 8002358:	695b      	ldr	r3, [r3, #20]
 800235a:	f890 203e 	ldrb.w	r2, [r0, #62]	; 0x3e
 800235e:	2a22      	cmp	r2, #34	; 0x22
 8002360:	d105      	bne.n	800236e <UART_DMAError+0x3c>
 8002362:	065b      	lsls	r3, r3, #25
 8002364:	d503      	bpl.n	800236e <UART_DMAError+0x3c>
 8002366:	2300      	movs	r3, #0
 8002368:	85c3      	strh	r3, [r0, #46]	; 0x2e
 800236a:	f7ff fec1 	bl	80020f0 <UART_EndRxTransfer>
 800236e:	6c03      	ldr	r3, [r0, #64]	; 0x40
 8002370:	f043 0310 	orr.w	r3, r3, #16
 8002374:	6403      	str	r3, [r0, #64]	; 0x40
 8002376:	f7ff ffdb 	bl	8002330 <HAL_UART_ErrorCallback>
 800237a:	bd08      	pop	{r3, pc}

0800237c <HAL_UARTEx_RxEventCallback>:
 800237c:	4770      	bx	lr

0800237e <UART_DMARxHalfCplt>:
 800237e:	6b80      	ldr	r0, [r0, #56]	; 0x38
 8002380:	b508      	push	{r3, lr}
 8002382:	6b03      	ldr	r3, [r0, #48]	; 0x30
 8002384:	2b01      	cmp	r3, #1
 8002386:	d104      	bne.n	8002392 <UART_DMARxHalfCplt+0x14>
 8002388:	8d81      	ldrh	r1, [r0, #44]	; 0x2c
 800238a:	0849      	lsrs	r1, r1, #1
 800238c:	f7ff fff6 	bl	800237c <HAL_UARTEx_RxEventCallback>
 8002390:	bd08      	pop	{r3, pc}
 8002392:	f7ff ffcc 	bl	800232e <HAL_UART_RxHalfCpltCallback>
 8002396:	e7fb      	b.n	8002390 <UART_DMARxHalfCplt+0x12>

08002398 <UART_DMAReceiveCplt>:
 8002398:	b508      	push	{r3, lr}
 800239a:	4603      	mov	r3, r0
 800239c:	6b80      	ldr	r0, [r0, #56]	; 0x38
 800239e:	681b      	ldr	r3, [r3, #0]
 80023a0:	681b      	ldr	r3, [r3, #0]
 80023a2:	f413 7380 	ands.w	r3, r3, #256	; 0x100
 80023a6:	d117      	bne.n	80023d8 <UART_DMAReceiveCplt+0x40>
 80023a8:	85c3      	strh	r3, [r0, #46]	; 0x2e
 80023aa:	6803      	ldr	r3, [r0, #0]
 80023ac:	68da      	ldr	r2, [r3, #12]
 80023ae:	f422 7280 	bic.w	r2, r2, #256	; 0x100
 80023b2:	60da      	str	r2, [r3, #12]
 80023b4:	695a      	ldr	r2, [r3, #20]
 80023b6:	f022 0201 	bic.w	r2, r2, #1
 80023ba:	615a      	str	r2, [r3, #20]
 80023bc:	695a      	ldr	r2, [r3, #20]
 80023be:	f022 0240 	bic.w	r2, r2, #64	; 0x40
 80023c2:	615a      	str	r2, [r3, #20]
 80023c4:	2220      	movs	r2, #32
 80023c6:	f880 203e 	strb.w	r2, [r0, #62]	; 0x3e
 80023ca:	6b02      	ldr	r2, [r0, #48]	; 0x30
 80023cc:	2a01      	cmp	r2, #1
 80023ce:	bf02      	ittt	eq
 80023d0:	68da      	ldreq	r2, [r3, #12]
 80023d2:	f022 0210 	biceq.w	r2, r2, #16
 80023d6:	60da      	streq	r2, [r3, #12]
 80023d8:	6b03      	ldr	r3, [r0, #48]	; 0x30
 80023da:	2b01      	cmp	r3, #1
 80023dc:	d103      	bne.n	80023e6 <UART_DMAReceiveCplt+0x4e>
 80023de:	8d81      	ldrh	r1, [r0, #44]	; 0x2c
 80023e0:	f7ff ffcc 	bl	800237c <HAL_UARTEx_RxEventCallback>
 80023e4:	bd08      	pop	{r3, pc}
 80023e6:	f7fe f979 	bl	80006dc <HAL_UART_RxCpltCallback>
 80023ea:	e7fb      	b.n	80023e4 <UART_DMAReceiveCplt+0x4c>

080023ec <UART_Start_Receive_DMA>:
 80023ec:	b573      	push	{r0, r1, r4, r5, r6, lr}
 80023ee:	2322      	movs	r3, #34	; 0x22
 80023f0:	2500      	movs	r5, #0
 80023f2:	4604      	mov	r4, r0
 80023f4:	6405      	str	r5, [r0, #64]	; 0x40
 80023f6:	6281      	str	r1, [r0, #40]	; 0x28
 80023f8:	f880 303e 	strb.w	r3, [r0, #62]	; 0x3e
 80023fc:	8582      	strh	r2, [r0, #44]	; 0x2c
 80023fe:	6b80      	ldr	r0, [r0, #56]	; 0x38
 8002400:	4b12      	ldr	r3, [pc, #72]	; (800244c <UART_Start_Receive_DMA+0x60>)
 8002402:	63c3      	str	r3, [r0, #60]	; 0x3c
 8002404:	4b12      	ldr	r3, [pc, #72]	; (8002450 <UART_Start_Receive_DMA+0x64>)
 8002406:	6826      	ldr	r6, [r4, #0]
 8002408:	6403      	str	r3, [r0, #64]	; 0x40
 800240a:	4b12      	ldr	r3, [pc, #72]	; (8002454 <UART_Start_Receive_DMA+0x68>)
 800240c:	e9c0 3513 	strd	r3, r5, [r0, #76]	; 0x4c
 8002410:	4613      	mov	r3, r2
 8002412:	460a      	mov	r2, r1
 8002414:	1d31      	adds	r1, r6, #4
 8002416:	f7fe fd71 	bl	8000efc <HAL_DMA_Start_IT>
 800241a:	6823      	ldr	r3, [r4, #0]
 800241c:	9501      	str	r5, [sp, #4]
 800241e:	681a      	ldr	r2, [r3, #0]
 8002420:	9201      	str	r2, [sp, #4]
 8002422:	685a      	ldr	r2, [r3, #4]
 8002424:	9201      	str	r2, [sp, #4]
 8002426:	f884 503c 	strb.w	r5, [r4, #60]	; 0x3c
 800242a:	9a01      	ldr	r2, [sp, #4]
 800242c:	68da      	ldr	r2, [r3, #12]
 800242e:	f442 7280 	orr.w	r2, r2, #256	; 0x100
 8002432:	60da      	str	r2, [r3, #12]
 8002434:	695a      	ldr	r2, [r3, #20]
 8002436:	f042 0201 	orr.w	r2, r2, #1
 800243a:	615a      	str	r2, [r3, #20]
 800243c:	695a      	ldr	r2, [r3, #20]
 800243e:	4628      	mov	r0, r5
 8002440:	f042 0240 	orr.w	r2, r2, #64	; 0x40
 8002444:	615a      	str	r2, [r3, #20]
 8002446:	b002      	add	sp, #8
 8002448:	bd70      	pop	{r4, r5, r6, pc}
 800244a:	bf00      	nop
 800244c:	08002399 	.word	0x08002399
 8002450:	0800237f 	.word	0x0800237f
 8002454:	08002333 	.word	0x08002333

08002458 <HAL_UART_Receive_DMA>:
 8002458:	b470      	push	{r4, r5, r6}
 800245a:	f890 603e 	ldrb.w	r6, [r0, #62]	; 0x3e
 800245e:	2e20      	cmp	r6, #32
 8002460:	d110      	bne.n	8002484 <HAL_UART_Receive_DMA+0x2c>
 8002462:	b161      	cbz	r1, 800247e <HAL_UART_Receive_DMA+0x26>
 8002464:	b15a      	cbz	r2, 800247e <HAL_UART_Receive_DMA+0x26>
 8002466:	f890 403c 	ldrb.w	r4, [r0, #60]	; 0x3c
 800246a:	2c01      	cmp	r4, #1
 800246c:	d00a      	beq.n	8002484 <HAL_UART_Receive_DMA+0x2c>
 800246e:	2401      	movs	r4, #1
 8002470:	f880 403c 	strb.w	r4, [r0, #60]	; 0x3c
 8002474:	2400      	movs	r4, #0
 8002476:	6304      	str	r4, [r0, #48]	; 0x30
 8002478:	bc70      	pop	{r4, r5, r6}
 800247a:	f7ff bfb7 	b.w	80023ec <UART_Start_Receive_DMA>
 800247e:	2001      	movs	r0, #1
 8002480:	bc70      	pop	{r4, r5, r6}
 8002482:	4770      	bx	lr
 8002484:	2002      	movs	r0, #2
 8002486:	e7fb      	b.n	8002480 <HAL_UART_Receive_DMA+0x28>

08002488 <__libc_init_array>:
 8002488:	b570      	push	{r4, r5, r6, lr}
 800248a:	4d0d      	ldr	r5, [pc, #52]	; (80024c0 <__libc_init_array+0x38>)
 800248c:	4c0d      	ldr	r4, [pc, #52]	; (80024c4 <__libc_init_array+0x3c>)
 800248e:	1b64      	subs	r4, r4, r5
 8002490:	10a4      	asrs	r4, r4, #2
 8002492:	2600      	movs	r6, #0
 8002494:	42a6      	cmp	r6, r4
 8002496:	d109      	bne.n	80024ac <__libc_init_array+0x24>
 8002498:	4d0b      	ldr	r5, [pc, #44]	; (80024c8 <__libc_init_array+0x40>)
 800249a:	4c0c      	ldr	r4, [pc, #48]	; (80024cc <__libc_init_array+0x44>)
 800249c:	f000 f820 	bl	80024e0 <_init>
 80024a0:	1b64      	subs	r4, r4, r5
 80024a2:	10a4      	asrs	r4, r4, #2
 80024a4:	2600      	movs	r6, #0
 80024a6:	42a6      	cmp	r6, r4
 80024a8:	d105      	bne.n	80024b6 <__libc_init_array+0x2e>
 80024aa:	bd70      	pop	{r4, r5, r6, pc}
 80024ac:	f855 3b04 	ldr.w	r3, [r5], #4
 80024b0:	4798      	blx	r3
 80024b2:	3601      	adds	r6, #1
 80024b4:	e7ee      	b.n	8002494 <__libc_init_array+0xc>
 80024b6:	f855 3b04 	ldr.w	r3, [r5], #4
 80024ba:	4798      	blx	r3
 80024bc:	3601      	adds	r6, #1
 80024be:	e7f2      	b.n	80024a6 <__libc_init_array+0x1e>
 80024c0:	08002520 	.word	0x08002520
 80024c4:	08002520 	.word	0x08002520
 80024c8:	08002520 	.word	0x08002520
 80024cc:	08002524 	.word	0x08002524

080024d0 <memset>:
 80024d0:	4402      	add	r2, r0
 80024d2:	4603      	mov	r3, r0
 80024d4:	4293      	cmp	r3, r2
 80024d6:	d100      	bne.n	80024da <memset+0xa>
 80024d8:	4770      	bx	lr
 80024da:	f803 1b01 	strb.w	r1, [r3], #1
 80024de:	e7f9      	b.n	80024d4 <memset+0x4>

080024e0 <_init>:
 80024e0:	b5f8      	push	{r3, r4, r5, r6, r7, lr}
 80024e2:	bf00      	nop
 80024e4:	bcf8      	pop	{r3, r4, r5, r6, r7}
 80024e6:	bc08      	pop	{r3}
 80024e8:	469e      	mov	lr, r3
 80024ea:	4770      	bx	lr

080024ec <_fini>:
 80024ec:	b5f8      	push	{r3, r4, r5, r6, r7, lr}
 80024ee:	bf00      	nop
 80024f0:	bcf8      	pop	{r3, r4, r5, r6, r7}
 80024f2:	bc08      	pop	{r3}
 80024f4:	469e      	mov	lr, r3
 80024f6:	4770      	bx	lr
