
VGAnuS_Software-Ontwikkeling.elf:     file format elf32-littlearm

Sections:
Idx Name          Size      VMA       LMA       File off  Algn
  0 .isr_vector   00000188  08000000  08000000  00010000  2**0
                  CONTENTS, ALLOC, LOAD, READONLY, DATA
  1 .text         00003248  08000190  08000190  00010190  2**4
                  CONTENTS, ALLOC, LOAD, READONLY, CODE
  2 .rodata       00000088  080033d8  080033d8  000133d8  2**0
                  CONTENTS, ALLOC, LOAD, READONLY, DATA
  3 .ARM.extab    00000000  08003460  08003460  00020080  2**0
                  CONTENTS
  4 .ARM          00000008  08003460  08003460  00013460  2**2
                  CONTENTS, ALLOC, LOAD, READONLY, DATA
  5 .preinit_array 00000000  08003468  08003468  00020080  2**0
                  CONTENTS, ALLOC, LOAD, DATA
  6 .init_array   00000004  08003468  08003468  00013468  2**2
                  CONTENTS, ALLOC, LOAD, DATA
  7 .fini_array   00000004  0800346c  0800346c  0001346c  2**2
                  CONTENTS, ALLOC, LOAD, DATA
  8 .data         00000080  20000000  08003470  00020000  2**2
                  CONTENTS, ALLOC, LOAD, DATA
  9 .bss          00012ff0  20000080  080034f0  00020080  2**2
                  ALLOC
 10 ._user_heap_stack 00000600  20013070  080034f0  00023070  2**0
                  ALLOC
 11 .ARM.attributes 00000030  00000000  00000000  00020080  2**0
                  CONTENTS, READONLY
 12 .comment      00000053  00000000  00000000  000200b0  2**0
                  CONTENTS, READONLY
 13 .debug_frame  000004c4  00000000  00000000  00020104  2**2
                  CONTENTS, READONLY, DEBUGGING, OCTETS

Disassembly of section .text:

08000190 <__do_global_dtors_aux>:
 8000190:	b510      	push	{r4, lr}
 8000192:	4c05      	ldr	r4, [pc, #20]	; (80001a8 <__do_global_dtors_aux+0x18>)
 8000194:	7823      	ldrb	r3, [r4, #0]
 8000196:	b933      	cbnz	r3, 80001a6 <__do_global_dtors_aux+0x16>
 8000198:	4b04      	ldr	r3, [pc, #16]	; (80001ac <__do_global_dtors_aux+0x1c>)
 800019a:	b113      	cbz	r3, 80001a2 <__do_global_dtors_aux+0x12>
 800019c:	4804      	ldr	r0, [pc, #16]	; (80001b0 <__do_global_dtors_aux+0x20>)
 800019e:	f3af 8000 	nop.w
 80001a2:	2301      	movs	r3, #1
 80001a4:	7023      	strb	r3, [r4, #0]
 80001a6:	bd10      	pop	{r4, pc}
 80001a8:	20000080 	.word	0x20000080
 80001ac:	00000000 	.word	0x00000000
 80001b0:	080033c0 	.word	0x080033c0

080001b4 <frame_dummy>:
 80001b4:	b508      	push	{r3, lr}
 80001b6:	4b03      	ldr	r3, [pc, #12]	; (80001c4 <frame_dummy+0x10>)
 80001b8:	b11b      	cbz	r3, 80001c2 <frame_dummy+0xe>
 80001ba:	4903      	ldr	r1, [pc, #12]	; (80001c8 <frame_dummy+0x14>)
 80001bc:	4803      	ldr	r0, [pc, #12]	; (80001cc <frame_dummy+0x18>)
 80001be:	f3af 8000 	nop.w
 80001c2:	bd08      	pop	{r3, pc}
 80001c4:	00000000 	.word	0x00000000
 80001c8:	20000084 	.word	0x20000084
 80001cc:	080033c0 	.word	0x080033c0

080001d0 <strlen>:
 80001d0:	4603      	mov	r3, r0
 80001d2:	f813 2b01 	ldrb.w	r2, [r3], #1
 80001d6:	2a00      	cmp	r2, #0
 80001d8:	d1fb      	bne.n	80001d2 <strlen+0x2>
 80001da:	1a18      	subs	r0, r3, r0
 80001dc:	3801      	subs	r0, #1
 80001de:	4770      	bx	lr

080001e0 <memchr>:
 80001e0:	f001 01ff 	and.w	r1, r1, #255	; 0xff
 80001e4:	2a10      	cmp	r2, #16
 80001e6:	db2b      	blt.n	8000240 <memchr+0x60>
 80001e8:	f010 0f07 	tst.w	r0, #7
 80001ec:	d008      	beq.n	8000200 <memchr+0x20>
 80001ee:	f810 3b01 	ldrb.w	r3, [r0], #1
 80001f2:	3a01      	subs	r2, #1
 80001f4:	428b      	cmp	r3, r1
 80001f6:	d02d      	beq.n	8000254 <memchr+0x74>
 80001f8:	f010 0f07 	tst.w	r0, #7
 80001fc:	b342      	cbz	r2, 8000250 <memchr+0x70>
 80001fe:	d1f6      	bne.n	80001ee <memchr+0xe>
 8000200:	b4f0      	push	{r4, r5, r6, r7}
 8000202:	ea41 2101 	orr.w	r1, r1, r1, lsl #8
 8000206:	ea41 4101 	orr.w	r1, r1, r1, lsl #16
 800020a:	f022 0407 	bic.w	r4, r2, #7
 800020e:	f07f 0700 	mvns.w	r7, #0
 8000212:	2300      	movs	r3, #0
 8000214:	e8f0 5602 	ldrd	r5, r6, [r0], #8
 8000218:	3c08      	subs	r4, #8
 800021a:	ea85 0501 	eor.w	r5, r5, r1
 800021e:	ea86 0601 	eor.w	r6, r6, r1
 8000222:	fa85 f547 	uadd8	r5, r5, r7
 8000226:	faa3 f587 	sel	r5, r3, r7
 800022a:	fa86 f647 	uadd8	r6, r6, r7
 800022e:	faa5 f687 	sel	r6, r5, r7
 8000232:	b98e      	cbnz	r6, 8000258 <memchr+0x78>
 8000234:	d1ee      	bne.n	8000214 <memchr+0x34>
 8000236:	bcf0      	pop	{r4, r5, r6, r7}
 8000238:	f001 01ff 	and.w	r1, r1, #255	; 0xff
 800023c:	f002 0207 	and.w	r2, r2, #7
 8000240:	b132      	cbz	r2, 8000250 <memchr+0x70>
 8000242:	f810 3b01 	ldrb.w	r3, [r0], #1
 8000246:	3a01      	subs	r2, #1
 8000248:	ea83 0301 	eor.w	r3, r3, r1
 800024c:	b113      	cbz	r3, 8000254 <memchr+0x74>
 800024e:	d1f8      	bne.n	8000242 <memchr+0x62>
 8000250:	2000      	movs	r0, #0
 8000252:	4770      	bx	lr
 8000254:	3801      	subs	r0, #1
 8000256:	4770      	bx	lr
 8000258:	2d00      	cmp	r5, #0
 800025a:	bf06      	itte	eq
 800025c:	4635      	moveq	r5, r6
 800025e:	3803      	subeq	r0, #3
 8000260:	3807      	subne	r0, #7
 8000262:	f015 0f01 	tst.w	r5, #1
 8000266:	d107      	bne.n	8000278 <memchr+0x98>
 8000268:	3001      	adds	r0, #1
 800026a:	f415 7f80 	tst.w	r5, #256	; 0x100
 800026e:	bf02      	ittt	eq
 8000270:	3001      	addeq	r0, #1
 8000272:	f415 3fc0 	tsteq.w	r5, #98304	; 0x18000
 8000276:	3001      	addeq	r0, #1
 8000278:	bcf0      	pop	{r4, r5, r6, r7}
 800027a:	3801      	subs	r0, #1
 800027c:	4770      	bx	lr
 800027e:	bf00      	nop

08000280 <__aeabi_uldivmod>:
 8000280:	b953      	cbnz	r3, 8000298 <__aeabi_uldivmod+0x18>
 8000282:	b94a      	cbnz	r2, 8000298 <__aeabi_uldivmod+0x18>
 8000284:	2900      	cmp	r1, #0
 8000286:	bf08      	it	eq
 8000288:	2800      	cmpeq	r0, #0
 800028a:	bf1c      	itt	ne
 800028c:	f04f 31ff 	movne.w	r1, #4294967295
 8000290:	f04f 30ff 	movne.w	r0, #4294967295
 8000294:	f000 b96e 	b.w	8000574 <__aeabi_idiv0>
 8000298:	f1ad 0c08 	sub.w	ip, sp, #8
 800029c:	e96d ce04 	strd	ip, lr, [sp, #-16]!
 80002a0:	f000 f806 	bl	80002b0 <__udivmoddi4>
 80002a4:	f8dd e004 	ldr.w	lr, [sp, #4]
 80002a8:	e9dd 2302 	ldrd	r2, r3, [sp, #8]
 80002ac:	b004      	add	sp, #16
 80002ae:	4770      	bx	lr

080002b0 <__udivmoddi4>:
 80002b0:	e92d 47f0 	stmdb	sp!, {r4, r5, r6, r7, r8, r9, sl, lr}
 80002b4:	9d08      	ldr	r5, [sp, #32]
 80002b6:	4604      	mov	r4, r0
 80002b8:	468c      	mov	ip, r1
 80002ba:	2b00      	cmp	r3, #0
 80002bc:	f040 8083 	bne.w	80003c6 <__udivmoddi4+0x116>
 80002c0:	428a      	cmp	r2, r1
 80002c2:	4617      	mov	r7, r2
 80002c4:	d947      	bls.n	8000356 <__udivmoddi4+0xa6>
 80002c6:	fab2 f282 	clz	r2, r2
 80002ca:	b142      	cbz	r2, 80002de <__udivmoddi4+0x2e>
 80002cc:	f1c2 0020 	rsb	r0, r2, #32
 80002d0:	fa24 f000 	lsr.w	r0, r4, r0
 80002d4:	4091      	lsls	r1, r2
 80002d6:	4097      	lsls	r7, r2
 80002d8:	ea40 0c01 	orr.w	ip, r0, r1
 80002dc:	4094      	lsls	r4, r2
 80002de:	ea4f 4817 	mov.w	r8, r7, lsr #16
 80002e2:	0c23      	lsrs	r3, r4, #16
 80002e4:	fbbc f6f8 	udiv	r6, ip, r8
 80002e8:	fa1f fe87 	uxth.w	lr, r7
 80002ec:	fb08 c116 	mls	r1, r8, r6, ip
 80002f0:	ea43 4301 	orr.w	r3, r3, r1, lsl #16
 80002f4:	fb06 f10e 	mul.w	r1, r6, lr
 80002f8:	4299      	cmp	r1, r3
 80002fa:	d909      	bls.n	8000310 <__udivmoddi4+0x60>
 80002fc:	18fb      	adds	r3, r7, r3
 80002fe:	f106 30ff 	add.w	r0, r6, #4294967295
 8000302:	f080 8119 	bcs.w	8000538 <__udivmoddi4+0x288>
 8000306:	4299      	cmp	r1, r3
 8000308:	f240 8116 	bls.w	8000538 <__udivmoddi4+0x288>
 800030c:	3e02      	subs	r6, #2
 800030e:	443b      	add	r3, r7
 8000310:	1a5b      	subs	r3, r3, r1
 8000312:	b2a4      	uxth	r4, r4
 8000314:	fbb3 f0f8 	udiv	r0, r3, r8
 8000318:	fb08 3310 	mls	r3, r8, r0, r3
 800031c:	ea44 4403 	orr.w	r4, r4, r3, lsl #16
 8000320:	fb00 fe0e 	mul.w	lr, r0, lr
 8000324:	45a6      	cmp	lr, r4
 8000326:	d909      	bls.n	800033c <__udivmoddi4+0x8c>
 8000328:	193c      	adds	r4, r7, r4
 800032a:	f100 33ff 	add.w	r3, r0, #4294967295
 800032e:	f080 8105 	bcs.w	800053c <__udivmoddi4+0x28c>
 8000332:	45a6      	cmp	lr, r4
 8000334:	f240 8102 	bls.w	800053c <__udivmoddi4+0x28c>
 8000338:	3802      	subs	r0, #2
 800033a:	443c      	add	r4, r7
 800033c:	ea40 4006 	orr.w	r0, r0, r6, lsl #16
 8000340:	eba4 040e 	sub.w	r4, r4, lr
 8000344:	2600      	movs	r6, #0
 8000346:	b11d      	cbz	r5, 8000350 <__udivmoddi4+0xa0>
 8000348:	40d4      	lsrs	r4, r2
 800034a:	2300      	movs	r3, #0
 800034c:	e9c5 4300 	strd	r4, r3, [r5]
 8000350:	4631      	mov	r1, r6
 8000352:	e8bd 87f0 	ldmia.w	sp!, {r4, r5, r6, r7, r8, r9, sl, pc}
 8000356:	b902      	cbnz	r2, 800035a <__udivmoddi4+0xaa>
 8000358:	deff      	udf	#255	; 0xff
 800035a:	fab2 f282 	clz	r2, r2
 800035e:	2a00      	cmp	r2, #0
 8000360:	d150      	bne.n	8000404 <__udivmoddi4+0x154>
 8000362:	1bcb      	subs	r3, r1, r7
 8000364:	ea4f 4e17 	mov.w	lr, r7, lsr #16
 8000368:	fa1f f887 	uxth.w	r8, r7
 800036c:	2601      	movs	r6, #1
 800036e:	fbb3 fcfe 	udiv	ip, r3, lr
 8000372:	0c21      	lsrs	r1, r4, #16
 8000374:	fb0e 331c 	mls	r3, lr, ip, r3
 8000378:	ea41 4103 	orr.w	r1, r1, r3, lsl #16
 800037c:	fb08 f30c 	mul.w	r3, r8, ip
 8000380:	428b      	cmp	r3, r1
 8000382:	d907      	bls.n	8000394 <__udivmoddi4+0xe4>
 8000384:	1879      	adds	r1, r7, r1
 8000386:	f10c 30ff 	add.w	r0, ip, #4294967295
 800038a:	d202      	bcs.n	8000392 <__udivmoddi4+0xe2>
 800038c:	428b      	cmp	r3, r1
 800038e:	f200 80e9 	bhi.w	8000564 <__udivmoddi4+0x2b4>
 8000392:	4684      	mov	ip, r0
 8000394:	1ac9      	subs	r1, r1, r3
 8000396:	b2a3      	uxth	r3, r4
 8000398:	fbb1 f0fe 	udiv	r0, r1, lr
 800039c:	fb0e 1110 	mls	r1, lr, r0, r1
 80003a0:	ea43 4401 	orr.w	r4, r3, r1, lsl #16
 80003a4:	fb08 f800 	mul.w	r8, r8, r0
 80003a8:	45a0      	cmp	r8, r4
 80003aa:	d907      	bls.n	80003bc <__udivmoddi4+0x10c>
 80003ac:	193c      	adds	r4, r7, r4
 80003ae:	f100 33ff 	add.w	r3, r0, #4294967295
 80003b2:	d202      	bcs.n	80003ba <__udivmoddi4+0x10a>
 80003b4:	45a0      	cmp	r8, r4
 80003b6:	f200 80d9 	bhi.w	800056c <__udivmoddi4+0x2bc>
 80003ba:	4618      	mov	r0, r3
 80003bc:	eba4 0408 	sub.w	r4, r4, r8
 80003c0:	ea40 400c 	orr.w	r0, r0, ip, lsl #16
 80003c4:	e7bf      	b.n	8000346 <__udivmoddi4+0x96>
 80003c6:	428b      	cmp	r3, r1
 80003c8:	d909      	bls.n	80003de <__udivmoddi4+0x12e>
 80003ca:	2d00      	cmp	r5, #0
 80003cc:	f000 80b1 	beq.w	8000532 <__udivmoddi4+0x282>
 80003d0:	2600      	movs	r6, #0
 80003d2:	e9c5 0100 	strd	r0, r1, [r5]
 80003d6:	4630      	mov	r0, r6
 80003d8:	4631      	mov	r1, r6
 80003da:	e8bd 87f0 	ldmia.w	sp!, {r4, r5, r6, r7, r8, r9, sl, pc}
 80003de:	fab3 f683 	clz	r6, r3
 80003e2:	2e00      	cmp	r6, #0
 80003e4:	d14a      	bne.n	800047c <__udivmoddi4+0x1cc>
 80003e6:	428b      	cmp	r3, r1
 80003e8:	d302      	bcc.n	80003f0 <__udivmoddi4+0x140>
 80003ea:	4282      	cmp	r2, r0
 80003ec:	f200 80b8 	bhi.w	8000560 <__udivmoddi4+0x2b0>
 80003f0:	1a84      	subs	r4, r0, r2
 80003f2:	eb61 0103 	sbc.w	r1, r1, r3
 80003f6:	2001      	movs	r0, #1
 80003f8:	468c      	mov	ip, r1
 80003fa:	2d00      	cmp	r5, #0
 80003fc:	d0a8      	beq.n	8000350 <__udivmoddi4+0xa0>
 80003fe:	e9c5 4c00 	strd	r4, ip, [r5]
 8000402:	e7a5      	b.n	8000350 <__udivmoddi4+0xa0>
 8000404:	f1c2 0320 	rsb	r3, r2, #32
 8000408:	fa20 f603 	lsr.w	r6, r0, r3
 800040c:	4097      	lsls	r7, r2
 800040e:	fa01 f002 	lsl.w	r0, r1, r2
 8000412:	ea4f 4e17 	mov.w	lr, r7, lsr #16
 8000416:	40d9      	lsrs	r1, r3
 8000418:	4330      	orrs	r0, r6
 800041a:	0c03      	lsrs	r3, r0, #16
 800041c:	fbb1 f6fe 	udiv	r6, r1, lr
 8000420:	fa1f f887 	uxth.w	r8, r7
 8000424:	fb0e 1116 	mls	r1, lr, r6, r1
 8000428:	ea43 4301 	orr.w	r3, r3, r1, lsl #16
 800042c:	fb06 f108 	mul.w	r1, r6, r8
 8000430:	4299      	cmp	r1, r3
 8000432:	fa04 f402 	lsl.w	r4, r4, r2
 8000436:	d909      	bls.n	800044c <__udivmoddi4+0x19c>
 8000438:	18fb      	adds	r3, r7, r3
 800043a:	f106 3cff 	add.w	ip, r6, #4294967295
 800043e:	f080 808d 	bcs.w	800055c <__udivmoddi4+0x2ac>
 8000442:	4299      	cmp	r1, r3
 8000444:	f240 808a 	bls.w	800055c <__udivmoddi4+0x2ac>
 8000448:	3e02      	subs	r6, #2
 800044a:	443b      	add	r3, r7
 800044c:	1a5b      	subs	r3, r3, r1
 800044e:	b281      	uxth	r1, r0
 8000450:	fbb3 f0fe 	udiv	r0, r3, lr
 8000454:	fb0e 3310 	mls	r3, lr, r0, r3
 8000458:	ea41 4103 	orr.w	r1, r1, r3, lsl #16
 800045c:	fb00 f308 	mul.w	r3, r0, r8
 8000460:	428b      	cmp	r3, r1
 8000462:	d907      	bls.n	8000474 <__udivmoddi4+0x1c4>
 8000464:	1879      	adds	r1, r7, r1
 8000466:	f100 3cff 	add.w	ip, r0, #4294967295
 800046a:	d273      	bcs.n	8000554 <__udivmoddi4+0x2a4>
 800046c:	428b      	cmp	r3, r1
 800046e:	d971      	bls.n	8000554 <__udivmoddi4+0x2a4>
 8000470:	3802      	subs	r0, #2
 8000472:	4439      	add	r1, r7
 8000474:	1acb      	subs	r3, r1, r3
 8000476:	ea40 4606 	orr.w	r6, r0, r6, lsl #16
 800047a:	e778      	b.n	800036e <__udivmoddi4+0xbe>
 800047c:	f1c6 0c20 	rsb	ip, r6, #32
 8000480:	fa03 f406 	lsl.w	r4, r3, r6
 8000484:	fa22 f30c 	lsr.w	r3, r2, ip
 8000488:	431c      	orrs	r4, r3
 800048a:	fa20 f70c 	lsr.w	r7, r0, ip
 800048e:	fa01 f306 	lsl.w	r3, r1, r6
 8000492:	ea4f 4e14 	mov.w	lr, r4, lsr #16
 8000496:	fa21 f10c 	lsr.w	r1, r1, ip
 800049a:	431f      	orrs	r7, r3
 800049c:	0c3b      	lsrs	r3, r7, #16
 800049e:	fbb1 f9fe 	udiv	r9, r1, lr
 80004a2:	fa1f f884 	uxth.w	r8, r4
 80004a6:	fb0e 1119 	mls	r1, lr, r9, r1
 80004aa:	ea43 4101 	orr.w	r1, r3, r1, lsl #16
 80004ae:	fb09 fa08 	mul.w	sl, r9, r8
 80004b2:	458a      	cmp	sl, r1
 80004b4:	fa02 f206 	lsl.w	r2, r2, r6
 80004b8:	fa00 f306 	lsl.w	r3, r0, r6
 80004bc:	d908      	bls.n	80004d0 <__udivmoddi4+0x220>
 80004be:	1861      	adds	r1, r4, r1
 80004c0:	f109 30ff 	add.w	r0, r9, #4294967295
 80004c4:	d248      	bcs.n	8000558 <__udivmoddi4+0x2a8>
 80004c6:	458a      	cmp	sl, r1
 80004c8:	d946      	bls.n	8000558 <__udivmoddi4+0x2a8>
 80004ca:	f1a9 0902 	sub.w	r9, r9, #2
 80004ce:	4421      	add	r1, r4
 80004d0:	eba1 010a 	sub.w	r1, r1, sl
 80004d4:	b2bf      	uxth	r7, r7
 80004d6:	fbb1 f0fe 	udiv	r0, r1, lr
 80004da:	fb0e 1110 	mls	r1, lr, r0, r1
 80004de:	ea47 4701 	orr.w	r7, r7, r1, lsl #16
 80004e2:	fb00 f808 	mul.w	r8, r0, r8
 80004e6:	45b8      	cmp	r8, r7
 80004e8:	d907      	bls.n	80004fa <__udivmoddi4+0x24a>
 80004ea:	19e7      	adds	r7, r4, r7
 80004ec:	f100 31ff 	add.w	r1, r0, #4294967295
 80004f0:	d22e      	bcs.n	8000550 <__udivmoddi4+0x2a0>
 80004f2:	45b8      	cmp	r8, r7
 80004f4:	d92c      	bls.n	8000550 <__udivmoddi4+0x2a0>
 80004f6:	3802      	subs	r0, #2
 80004f8:	4427      	add	r7, r4
 80004fa:	ea40 4009 	orr.w	r0, r0, r9, lsl #16
 80004fe:	eba7 0708 	sub.w	r7, r7, r8
 8000502:	fba0 8902 	umull	r8, r9, r0, r2
 8000506:	454f      	cmp	r7, r9
 8000508:	46c6      	mov	lr, r8
 800050a:	4649      	mov	r1, r9
 800050c:	d31a      	bcc.n	8000544 <__udivmoddi4+0x294>
 800050e:	d017      	beq.n	8000540 <__udivmoddi4+0x290>
 8000510:	b15d      	cbz	r5, 800052a <__udivmoddi4+0x27a>
 8000512:	ebb3 020e 	subs.w	r2, r3, lr
 8000516:	eb67 0701 	sbc.w	r7, r7, r1
 800051a:	fa07 fc0c 	lsl.w	ip, r7, ip
 800051e:	40f2      	lsrs	r2, r6
 8000520:	ea4c 0202 	orr.w	r2, ip, r2
 8000524:	40f7      	lsrs	r7, r6
 8000526:	e9c5 2700 	strd	r2, r7, [r5]
 800052a:	2600      	movs	r6, #0
 800052c:	4631      	mov	r1, r6
 800052e:	e8bd 87f0 	ldmia.w	sp!, {r4, r5, r6, r7, r8, r9, sl, pc}
 8000532:	462e      	mov	r6, r5
 8000534:	4628      	mov	r0, r5
 8000536:	e70b      	b.n	8000350 <__udivmoddi4+0xa0>
 8000538:	4606      	mov	r6, r0
 800053a:	e6e9      	b.n	8000310 <__udivmoddi4+0x60>
 800053c:	4618      	mov	r0, r3
 800053e:	e6fd      	b.n	800033c <__udivmoddi4+0x8c>
 8000540:	4543      	cmp	r3, r8
 8000542:	d2e5      	bcs.n	8000510 <__udivmoddi4+0x260>
 8000544:	ebb8 0e02 	subs.w	lr, r8, r2
 8000548:	eb69 0104 	sbc.w	r1, r9, r4
 800054c:	3801      	subs	r0, #1
 800054e:	e7df      	b.n	8000510 <__udivmoddi4+0x260>
 8000550:	4608      	mov	r0, r1
 8000552:	e7d2      	b.n	80004fa <__udivmoddi4+0x24a>
 8000554:	4660      	mov	r0, ip
 8000556:	e78d      	b.n	8000474 <__udivmoddi4+0x1c4>
 8000558:	4681      	mov	r9, r0
 800055a:	e7b9      	b.n	80004d0 <__udivmoddi4+0x220>
 800055c:	4666      	mov	r6, ip
 800055e:	e775      	b.n	800044c <__udivmoddi4+0x19c>
 8000560:	4630      	mov	r0, r6
 8000562:	e74a      	b.n	80003fa <__udivmoddi4+0x14a>
 8000564:	f1ac 0c02 	sub.w	ip, ip, #2
 8000568:	4439      	add	r1, r7
 800056a:	e713      	b.n	8000394 <__udivmoddi4+0xe4>
 800056c:	3802      	subs	r0, #2
 800056e:	443c      	add	r4, r7
 8000570:	e724      	b.n	80003bc <__udivmoddi4+0x10c>
 8000572:	bf00      	nop

08000574 <__aeabi_idiv0>:
 8000574:	4770      	bx	lr
 8000576:	bf00      	nop

08000578 <MX_DMA_Init>:
 8000578:	b507      	push	{r0, r1, r2, lr}
 800057a:	4b18      	ldr	r3, [pc, #96]	; (80005dc <MX_DMA_Init+0x64>)
 800057c:	2200      	movs	r2, #0
 800057e:	9200      	str	r2, [sp, #0]
 8000580:	6b19      	ldr	r1, [r3, #48]	; 0x30
 8000582:	f441 0180 	orr.w	r1, r1, #4194304	; 0x400000
 8000586:	6319      	str	r1, [r3, #48]	; 0x30
 8000588:	6b19      	ldr	r1, [r3, #48]	; 0x30
 800058a:	f401 0180 	and.w	r1, r1, #4194304	; 0x400000
 800058e:	9100      	str	r1, [sp, #0]
 8000590:	9900      	ldr	r1, [sp, #0]
 8000592:	9201      	str	r2, [sp, #4]
 8000594:	6b19      	ldr	r1, [r3, #48]	; 0x30
 8000596:	f441 1100 	orr.w	r1, r1, #2097152	; 0x200000
 800059a:	6319      	str	r1, [r3, #48]	; 0x30
 800059c:	6b1b      	ldr	r3, [r3, #48]	; 0x30
 800059e:	f403 1300 	and.w	r3, r3, #2097152	; 0x200000
 80005a2:	4611      	mov	r1, r2
 80005a4:	9301      	str	r3, [sp, #4]
 80005a6:	2010      	movs	r0, #16
 80005a8:	9b01      	ldr	r3, [sp, #4]
 80005aa:	f000 fce9 	bl	8000f80 <HAL_NVIC_SetPriority>
 80005ae:	2010      	movs	r0, #16
 80005b0:	f000 fd18 	bl	8000fe4 <HAL_NVIC_EnableIRQ>
 80005b4:	2200      	movs	r2, #0
 80005b6:	4611      	mov	r1, r2
 80005b8:	2011      	movs	r0, #17
 80005ba:	f000 fce1 	bl	8000f80 <HAL_NVIC_SetPriority>
 80005be:	2011      	movs	r0, #17
 80005c0:	f000 fd10 	bl	8000fe4 <HAL_NVIC_EnableIRQ>
 80005c4:	2200      	movs	r2, #0
 80005c6:	4611      	mov	r1, r2
 80005c8:	2044      	movs	r0, #68	; 0x44
 80005ca:	f000 fcd9 	bl	8000f80 <HAL_NVIC_SetPriority>
 80005ce:	2044      	movs	r0, #68	; 0x44
 80005d0:	b003      	add	sp, #12
 80005d2:	f85d eb04 	ldr.w	lr, [sp], #4
 80005d6:	f000 bd05 	b.w	8000fe4 <HAL_NVIC_EnableIRQ>
 80005da:	bf00      	nop
 80005dc:	40023800 	.word	0x40023800

080005e0 <MX_GPIO_Init>:
 80005e0:	e92d 41f0 	stmdb	sp!, {r4, r5, r6, r7, r8, lr}
 80005e4:	2214      	movs	r2, #20
 80005e6:	b08a      	sub	sp, #40	; 0x28
 80005e8:	eb0d 0002 	add.w	r0, sp, r2
 80005ec:	2100      	movs	r1, #0
 80005ee:	f002 faa9 	bl	8002b44 <memset>
 80005f2:	2400      	movs	r4, #0
 80005f4:	4b28      	ldr	r3, [pc, #160]	; (8000698 <MX_GPIO_Init+0xb8>)
 80005f6:	9401      	str	r4, [sp, #4]
 80005f8:	6b1a      	ldr	r2, [r3, #48]	; 0x30
 80005fa:	f8df 80a4 	ldr.w	r8, [pc, #164]	; 80006a0 <MX_GPIO_Init+0xc0>
 80005fe:	4d27      	ldr	r5, [pc, #156]	; (800069c <MX_GPIO_Init+0xbc>)
 8000600:	f042 0280 	orr.w	r2, r2, #128	; 0x80
 8000604:	631a      	str	r2, [r3, #48]	; 0x30
 8000606:	6b1a      	ldr	r2, [r3, #48]	; 0x30
 8000608:	f002 0280 	and.w	r2, r2, #128	; 0x80
 800060c:	9201      	str	r2, [sp, #4]
 800060e:	9a01      	ldr	r2, [sp, #4]
 8000610:	9402      	str	r4, [sp, #8]
 8000612:	6b1a      	ldr	r2, [r3, #48]	; 0x30
 8000614:	f042 0201 	orr.w	r2, r2, #1
 8000618:	631a      	str	r2, [r3, #48]	; 0x30
 800061a:	6b1a      	ldr	r2, [r3, #48]	; 0x30
 800061c:	f002 0201 	and.w	r2, r2, #1
 8000620:	9202      	str	r2, [sp, #8]
 8000622:	9a02      	ldr	r2, [sp, #8]
 8000624:	9403      	str	r4, [sp, #12]
 8000626:	6b1a      	ldr	r2, [r3, #48]	; 0x30
 8000628:	f042 0210 	orr.w	r2, r2, #16
 800062c:	631a      	str	r2, [r3, #48]	; 0x30
 800062e:	6b1a      	ldr	r2, [r3, #48]	; 0x30
 8000630:	f002 0210 	and.w	r2, r2, #16
 8000634:	9203      	str	r2, [sp, #12]
 8000636:	9a03      	ldr	r2, [sp, #12]
 8000638:	9404      	str	r4, [sp, #16]
 800063a:	6b1a      	ldr	r2, [r3, #48]	; 0x30
 800063c:	f042 0202 	orr.w	r2, r2, #2
 8000640:	631a      	str	r2, [r3, #48]	; 0x30
 8000642:	6b1b      	ldr	r3, [r3, #48]	; 0x30
 8000644:	f003 0302 	and.w	r3, r3, #2
 8000648:	9304      	str	r3, [sp, #16]
 800064a:	4622      	mov	r2, r4
 800064c:	4640      	mov	r0, r8
 800064e:	f44f 417f 	mov.w	r1, #65280	; 0xff00
 8000652:	9b04      	ldr	r3, [sp, #16]
 8000654:	f000 ffa8 	bl	80015a8 <HAL_GPIO_WritePin>
 8000658:	4622      	mov	r2, r4
 800065a:	4628      	mov	r0, r5
 800065c:	f44f 5180 	mov.w	r1, #4096	; 0x1000
 8000660:	f000 ffa2 	bl	80015a8 <HAL_GPIO_WritePin>
 8000664:	2701      	movs	r7, #1
 8000666:	f44f 437f 	mov.w	r3, #65280	; 0xff00
 800066a:	2603      	movs	r6, #3
 800066c:	a905      	add	r1, sp, #20
 800066e:	4640      	mov	r0, r8
 8000670:	e9cd 3705 	strd	r3, r7, [sp, #20]
 8000674:	9407      	str	r4, [sp, #28]
 8000676:	9608      	str	r6, [sp, #32]
 8000678:	f000 febc 	bl	80013f4 <HAL_GPIO_Init>
 800067c:	f44f 5380 	mov.w	r3, #4096	; 0x1000
 8000680:	a905      	add	r1, sp, #20
 8000682:	4628      	mov	r0, r5
 8000684:	e9cd 3705 	strd	r3, r7, [sp, #20]
 8000688:	e9cd 4607 	strd	r4, r6, [sp, #28]
 800068c:	f000 feb2 	bl	80013f4 <HAL_GPIO_Init>
 8000690:	b00a      	add	sp, #40	; 0x28
 8000692:	e8bd 81f0 	ldmia.w	sp!, {r4, r5, r6, r7, r8, pc}
 8000696:	bf00      	nop
 8000698:	40023800 	.word	0x40023800
 800069c:	40020400 	.word	0x40020400
 80006a0:	40021000 	.word	0x40021000

080006a4 <SystemClock_Config>:
 80006a4:	b530      	push	{r4, r5, lr}
 80006a6:	b095      	sub	sp, #84	; 0x54
 80006a8:	2210      	movs	r2, #16
 80006aa:	2100      	movs	r1, #0
 80006ac:	a80a      	add	r0, sp, #40	; 0x28
 80006ae:	f002 fa49 	bl	8002b44 <memset>
 80006b2:	2100      	movs	r1, #0
 80006b4:	2214      	movs	r2, #20
 80006b6:	a803      	add	r0, sp, #12
 80006b8:	f002 fa44 	bl	8002b44 <memset>
 80006bc:	2400      	movs	r4, #0
 80006be:	4b1c      	ldr	r3, [pc, #112]	; (8000730 <SystemClock_Config+0x8c>)
 80006c0:	9401      	str	r4, [sp, #4]
 80006c2:	6c1a      	ldr	r2, [r3, #64]	; 0x40
 80006c4:	f042 5280 	orr.w	r2, r2, #268435456	; 0x10000000
 80006c8:	641a      	str	r2, [r3, #64]	; 0x40
 80006ca:	6c1b      	ldr	r3, [r3, #64]	; 0x40
 80006cc:	f003 5380 	and.w	r3, r3, #268435456	; 0x10000000
 80006d0:	9301      	str	r3, [sp, #4]
 80006d2:	9b01      	ldr	r3, [sp, #4]
 80006d4:	4b17      	ldr	r3, [pc, #92]	; (8000734 <SystemClock_Config+0x90>)
 80006d6:	9402      	str	r4, [sp, #8]
 80006d8:	681a      	ldr	r2, [r3, #0]
 80006da:	f442 4280 	orr.w	r2, r2, #16384	; 0x4000
 80006de:	601a      	str	r2, [r3, #0]
 80006e0:	681b      	ldr	r3, [r3, #0]
 80006e2:	f403 4380 	and.w	r3, r3, #16384	; 0x4000
 80006e6:	9302      	str	r3, [sp, #8]
 80006e8:	9b02      	ldr	r3, [sp, #8]
 80006ea:	2201      	movs	r2, #1
 80006ec:	f44f 3380 	mov.w	r3, #65536	; 0x10000
 80006f0:	e9cd 2308 	strd	r2, r3, [sp, #32]
 80006f4:	2502      	movs	r5, #2
 80006f6:	f44f 0380 	mov.w	r3, #4194304	; 0x400000
 80006fa:	22a8      	movs	r2, #168	; 0xa8
 80006fc:	e9cd 530e 	strd	r5, r3, [sp, #56]	; 0x38
 8000700:	a808      	add	r0, sp, #32
 8000702:	2304      	movs	r3, #4
 8000704:	e9cd 3210 	strd	r3, r2, [sp, #64]	; 0x40
 8000708:	e9cd 5312 	strd	r5, r3, [sp, #72]	; 0x48
 800070c:	f000 ff52 	bl	80015b4 <HAL_RCC_OscConfig>
 8000710:	230f      	movs	r3, #15
 8000712:	e9cd 3503 	strd	r3, r5, [sp, #12]
 8000716:	f44f 51a0 	mov.w	r1, #5120	; 0x1400
 800071a:	f44f 5380 	mov.w	r3, #4096	; 0x1000
 800071e:	e9cd 1306 	strd	r1, r3, [sp, #24]
 8000722:	a803      	add	r0, sp, #12
 8000724:	2105      	movs	r1, #5
 8000726:	9405      	str	r4, [sp, #20]
 8000728:	f001 f91e 	bl	8001968 <HAL_RCC_ClockConfig>
 800072c:	b015      	add	sp, #84	; 0x54
 800072e:	bd30      	pop	{r4, r5, pc}
 8000730:	40023800 	.word	0x40023800
 8000734:	40007000 	.word	0x40007000

08000738 <main>:
 8000738:	b508      	push	{r3, lr}
 800073a:	f000 fbe3 	bl	8000f04 <HAL_Init>
 800073e:	f7ff ffb1 	bl	80006a4 <SystemClock_Config>
 8000742:	f7ff ff4d 	bl	80005e0 <MX_GPIO_Init>
 8000746:	f7ff ff17 	bl	8000578 <MX_DMA_Init>
 800074a:	f000 f975 	bl	8000a38 <MX_TIM1_Init>
 800074e:	f000 fa2b 	bl	8000ba8 <MX_TIM2_Init>
 8000752:	f000 fa71 	bl	8000c38 <MX_USART2_UART_Init>
 8000756:	f000 f831 	bl	80007bc <UB_VGA_Screen_Init>
 800075a:	20ff      	movs	r0, #255	; 0xff
 800075c:	f000 f886 	bl	800086c <UB_VGA_FillScreen>
 8000760:	220a      	movs	r2, #10
 8000762:	4611      	mov	r1, r2
 8000764:	4610      	mov	r0, r2
 8000766:	f000 f86f 	bl	8000848 <UB_VGA_SetPixel>
 800076a:	2100      	movs	r1, #0
 800076c:	4c0f      	ldr	r4, [pc, #60]	; (80007ac <main+0x74>)
 800076e:	4608      	mov	r0, r1
 8000770:	220a      	movs	r2, #10
 8000772:	f000 f869 	bl	8000848 <UB_VGA_SetPixel>
 8000776:	220a      	movs	r2, #10
 8000778:	2100      	movs	r1, #0
 800077a:	f240 103f 	movw	r0, #319	; 0x13f
 800077e:	f000 f863 	bl	8000848 <UB_VGA_SetPixel>
 8000782:	6822      	ldr	r2, [r4, #0]
 8000784:	490a      	ldr	r1, [pc, #40]	; (80007b0 <main+0x78>)
 8000786:	68d3      	ldr	r3, [r2, #12]
 8000788:	f043 0310 	orr.w	r3, r3, #16
 800078c:	60d3      	str	r3, [r2, #12]
 800078e:	4620      	mov	r0, r4
 8000790:	2280      	movs	r2, #128	; 0x80
 8000792:	f002 f995 	bl	8002ac0 <HAL_UART_Receive_DMA>
 8000796:	4807      	ldr	r0, [pc, #28]	; (80007b4 <main+0x7c>)
 8000798:	f7ff fd1a 	bl	80001d0 <strlen>
 800079c:	4905      	ldr	r1, [pc, #20]	; (80007b4 <main+0x7c>)
 800079e:	b282      	uxth	r2, r0
 80007a0:	2364      	movs	r3, #100	; 0x64
 80007a2:	4620      	mov	r0, r4
 80007a4:	f001 fef2 	bl	800258c <HAL_UART_Transmit>
 80007a8:	e7fe      	b.n	80007a8 <main+0x70>
 80007aa:	bf00      	nop
 80007ac:	20013018 	.word	0x20013018
 80007b0:	20012e98 	.word	0x20012e98
 80007b4:	20000000 	.word	0x20000000

080007b8 <Error_Handler>:
 80007b8:	4770      	bx	lr
	...

080007bc <UB_VGA_Screen_Init>:
 80007bc:	b538      	push	{r3, r4, r5, lr}
 80007be:	4c1b      	ldr	r4, [pc, #108]	; (800082c <UB_VGA_Screen_Init+0x70>)
 80007c0:	4d1b      	ldr	r5, [pc, #108]	; (8000830 <UB_VGA_Screen_Init+0x74>)
 80007c2:	2300      	movs	r3, #0
 80007c4:	e9c4 3301 	strd	r3, r3, [r4, #4]
 80007c8:	8023      	strh	r3, [r4, #0]
 80007ca:	f103 4380 	add.w	r3, r3, #1073741824	; 0x40000000
 80007ce:	f503 3301 	add.w	r3, r3, #132096	; 0x20400
 80007d2:	f44f 5280 	mov.w	r2, #4096	; 0x1000
 80007d6:	619a      	str	r2, [r3, #24]
 80007d8:	4628      	mov	r0, r5
 80007da:	f001 fa0f 	bl	8001bfc <HAL_TIM_Base_Start>
 80007de:	210c      	movs	r1, #12
 80007e0:	4628      	mov	r0, r5
 80007e2:	f001 fd4b 	bl	800227c <HAL_TIM_PWM_Start>
 80007e6:	2108      	movs	r1, #8
 80007e8:	4628      	mov	r0, r5
 80007ea:	f001 fdc3 	bl	8002374 <HAL_TIM_PWM_Start_IT>
 80007ee:	4b11      	ldr	r3, [pc, #68]	; (8000834 <UB_VGA_Screen_Init+0x78>)
 80007f0:	4d11      	ldr	r5, [pc, #68]	; (8000838 <UB_VGA_Screen_Init+0x7c>)
 80007f2:	681b      	ldr	r3, [r3, #0]
 80007f4:	4911      	ldr	r1, [pc, #68]	; (800083c <UB_VGA_Screen_Init+0x80>)
 80007f6:	68da      	ldr	r2, [r3, #12]
 80007f8:	f442 7280 	orr.w	r2, r2, #256	; 0x100
 80007fc:	60da      	str	r2, [r3, #12]
 80007fe:	681a      	ldr	r2, [r3, #0]
 8000800:	f042 0201 	orr.w	r2, r2, #1
 8000804:	601a      	str	r2, [r3, #0]
 8000806:	4628      	mov	r0, r5
 8000808:	4a0d      	ldr	r2, [pc, #52]	; (8000840 <UB_VGA_Screen_Init+0x84>)
 800080a:	f240 1341 	movw	r3, #321	; 0x141
 800080e:	f000 fca3 	bl	8001158 <HAL_DMA_Start_IT>
 8000812:	4628      	mov	r0, r5
 8000814:	f000 fc20 	bl	8001058 <HAL_DMA_Init>
 8000818:	682a      	ldr	r2, [r5, #0]
 800081a:	6813      	ldr	r3, [r2, #0]
 800081c:	f043 0310 	orr.w	r3, r3, #16
 8000820:	6013      	str	r3, [r2, #0]
 8000822:	4b08      	ldr	r3, [pc, #32]	; (8000844 <UB_VGA_Screen_Init+0x88>)
 8000824:	681b      	ldr	r3, [r3, #0]
 8000826:	60a3      	str	r3, [r4, #8]
 8000828:	bd38      	pop	{r3, r4, r5, pc}
 800082a:	bf00      	nop
 800082c:	200000ac 	.word	0x200000ac
 8000830:	20012e50 	.word	0x20012e50
 8000834:	20012da8 	.word	0x20012da8
 8000838:	20012df0 	.word	0x20012df0
 800083c:	200000b8 	.word	0x200000b8
 8000840:	40021015 	.word	0x40021015
 8000844:	40026488 	.word	0x40026488

08000848 <UB_VGA_SetPixel>:
 8000848:	4b07      	ldr	r3, [pc, #28]	; (8000868 <UB_VGA_SetPixel+0x20>)
 800084a:	b510      	push	{r4, lr}
 800084c:	29ef      	cmp	r1, #239	; 0xef
 800084e:	bf88      	it	hi
 8000850:	2100      	movhi	r1, #0
 8000852:	f240 1441 	movw	r4, #321	; 0x141
 8000856:	f5b0 7fa0 	cmp.w	r0, #320	; 0x140
 800085a:	bf28      	it	cs
 800085c:	2000      	movcs	r0, #0
 800085e:	fb04 3101 	mla	r1, r4, r1, r3
 8000862:	540a      	strb	r2, [r1, r0]
 8000864:	bd10      	pop	{r4, pc}
 8000866:	bf00      	nop
 8000868:	200000b8 	.word	0x200000b8

0800086c <UB_VGA_FillScreen>:
 800086c:	b538      	push	{r3, r4, r5, lr}
 800086e:	4602      	mov	r2, r0
 8000870:	2400      	movs	r4, #0
 8000872:	2500      	movs	r5, #0
 8000874:	b2a8      	uxth	r0, r5
 8000876:	4621      	mov	r1, r4
 8000878:	3501      	adds	r5, #1
 800087a:	f7ff ffe5 	bl	8000848 <UB_VGA_SetPixel>
 800087e:	f5b5 7fa0 	cmp.w	r5, #320	; 0x140
 8000882:	d1f7      	bne.n	8000874 <UB_VGA_FillScreen+0x8>
 8000884:	3401      	adds	r4, #1
 8000886:	b2a4      	uxth	r4, r4
 8000888:	2cf0      	cmp	r4, #240	; 0xf0
 800088a:	d1f2      	bne.n	8000872 <UB_VGA_FillScreen+0x6>
 800088c:	bd38      	pop	{r3, r4, r5, pc}
	...

08000890 <HAL_MspInit>:
 8000890:	b082      	sub	sp, #8
 8000892:	4b0c      	ldr	r3, [pc, #48]	; (80008c4 <HAL_MspInit+0x34>)
 8000894:	2100      	movs	r1, #0
 8000896:	9100      	str	r1, [sp, #0]
 8000898:	6c5a      	ldr	r2, [r3, #68]	; 0x44
 800089a:	f442 4280 	orr.w	r2, r2, #16384	; 0x4000
 800089e:	645a      	str	r2, [r3, #68]	; 0x44
 80008a0:	6c5a      	ldr	r2, [r3, #68]	; 0x44
 80008a2:	f402 4280 	and.w	r2, r2, #16384	; 0x4000
 80008a6:	9200      	str	r2, [sp, #0]
 80008a8:	9a00      	ldr	r2, [sp, #0]
 80008aa:	9101      	str	r1, [sp, #4]
 80008ac:	6c1a      	ldr	r2, [r3, #64]	; 0x40
 80008ae:	f042 5280 	orr.w	r2, r2, #268435456	; 0x10000000
 80008b2:	641a      	str	r2, [r3, #64]	; 0x40
 80008b4:	6c1b      	ldr	r3, [r3, #64]	; 0x40
 80008b6:	f003 5380 	and.w	r3, r3, #268435456	; 0x10000000
 80008ba:	9301      	str	r3, [sp, #4]
 80008bc:	9b01      	ldr	r3, [sp, #4]
 80008be:	b002      	add	sp, #8
 80008c0:	4770      	bx	lr
 80008c2:	bf00      	nop
 80008c4:	40023800 	.word	0x40023800

080008c8 <NMI_Handler>:
 80008c8:	4770      	bx	lr

080008ca <HardFault_Handler>:
 80008ca:	e7fe      	b.n	80008ca <HardFault_Handler>

080008cc <MemManage_Handler>:
 80008cc:	e7fe      	b.n	80008cc <MemManage_Handler>

080008ce <BusFault_Handler>:
 80008ce:	e7fe      	b.n	80008ce <BusFault_Handler>

080008d0 <UsageFault_Handler>:
 80008d0:	e7fe      	b.n	80008d0 <UsageFault_Handler>

080008d2 <SVC_Handler>:
 80008d2:	4770      	bx	lr

080008d4 <DebugMon_Handler>:
 80008d4:	4770      	bx	lr

080008d6 <PendSV_Handler>:
 80008d6:	4770      	bx	lr

080008d8 <SysTick_Handler>:
 80008d8:	f000 bb2e 	b.w	8000f38 <HAL_IncTick>

080008dc <DMA1_Stream5_IRQHandler>:
 80008dc:	4801      	ldr	r0, [pc, #4]	; (80008e4 <DMA1_Stream5_IRQHandler+0x8>)
 80008de:	f000 bccb 	b.w	8001278 <HAL_DMA_IRQHandler>
 80008e2:	bf00      	nop
 80008e4:	20012f18 	.word	0x20012f18

080008e8 <DMA1_Stream6_IRQHandler>:
 80008e8:	4801      	ldr	r0, [pc, #4]	; (80008f0 <DMA1_Stream6_IRQHandler+0x8>)
 80008ea:	f000 bcc5 	b.w	8001278 <HAL_DMA_IRQHandler>
 80008ee:	bf00      	nop
 80008f0:	20012f78 	.word	0x20012f78

080008f4 <TIM2_IRQHandler>:
 80008f4:	b510      	push	{r4, lr}
 80008f6:	4c1d      	ldr	r4, [pc, #116]	; (800096c <TIM2_IRQHandler+0x78>)
 80008f8:	4620      	mov	r0, r4
 80008fa:	f001 f9ba 	bl	8001c72 <HAL_TIM_IRQHandler>
 80008fe:	6823      	ldr	r3, [r4, #0]
 8000900:	f06f 0208 	mvn.w	r2, #8
 8000904:	611a      	str	r2, [r3, #16]
 8000906:	4b1a      	ldr	r3, [pc, #104]	; (8000970 <TIM2_IRQHandler+0x7c>)
 8000908:	881a      	ldrh	r2, [r3, #0]
 800090a:	3201      	adds	r2, #1
 800090c:	b292      	uxth	r2, r2
 800090e:	f5b2 7f03 	cmp.w	r2, #524	; 0x20c
 8000912:	bf86      	itte	hi
 8000914:	2200      	movhi	r2, #0
 8000916:	801a      	strhhi	r2, [r3, #0]
 8000918:	801a      	strhls	r2, [r3, #0]
 800091a:	8819      	ldrh	r1, [r3, #0]
 800091c:	bf84      	itt	hi
 800091e:	4a15      	ldrhi	r2, [pc, #84]	; (8000974 <TIM2_IRQHandler+0x80>)
 8000920:	605a      	strhi	r2, [r3, #4]
 8000922:	2902      	cmp	r1, #2
 8000924:	4a14      	ldr	r2, [pc, #80]	; (8000978 <TIM2_IRQHandler+0x84>)
 8000926:	bf34      	ite	cc
 8000928:	f04f 5080 	movcc.w	r0, #268435456	; 0x10000000
 800092c:	f44f 5080 	movcs.w	r0, #4096	; 0x1000
 8000930:	6190      	str	r0, [r2, #24]
 8000932:	f1a1 0224 	sub.w	r2, r1, #36	; 0x24
 8000936:	f5b2 7fef 	cmp.w	r2, #478	; 0x1de
 800093a:	d815      	bhi.n	8000968 <TIM2_IRQHandler+0x74>
 800093c:	480f      	ldr	r0, [pc, #60]	; (800097c <TIM2_IRQHandler+0x88>)
 800093e:	689a      	ldr	r2, [r3, #8]
 8000940:	6002      	str	r2, [r0, #0]
 8000942:	685a      	ldr	r2, [r3, #4]
 8000944:	4c0e      	ldr	r4, [pc, #56]	; (8000980 <TIM2_IRQHandler+0x8c>)
 8000946:	60c2      	str	r2, [r0, #12]
 8000948:	6820      	ldr	r0, [r4, #0]
 800094a:	f040 0001 	orr.w	r0, r0, #1
 800094e:	6020      	str	r0, [r4, #0]
 8000950:	480c      	ldr	r0, [pc, #48]	; (8000984 <TIM2_IRQHandler+0x90>)
 8000952:	6804      	ldr	r4, [r0, #0]
 8000954:	6820      	ldr	r0, [r4, #0]
 8000956:	07c9      	lsls	r1, r1, #31
 8000958:	f040 0001 	orr.w	r0, r0, #1
 800095c:	bf48      	it	mi
 800095e:	f202 1241 	addwmi	r2, r2, #321	; 0x141
 8000962:	6020      	str	r0, [r4, #0]
 8000964:	bf48      	it	mi
 8000966:	605a      	strmi	r2, [r3, #4]
 8000968:	bd10      	pop	{r4, pc}
 800096a:	bf00      	nop
 800096c:	20012e50 	.word	0x20012e50
 8000970:	200000ac 	.word	0x200000ac
 8000974:	200000b8 	.word	0x200000b8
 8000978:	40020400 	.word	0x40020400
 800097c:	40026488 	.word	0x40026488
 8000980:	40010000 	.word	0x40010000
 8000984:	20012df0 	.word	0x20012df0

08000988 <USART2_IRQHandler>:
 8000988:	b510      	push	{r4, lr}
 800098a:	4c07      	ldr	r4, [pc, #28]	; (80009a8 <USART2_IRQHandler+0x20>)
 800098c:	4620      	mov	r0, r4
 800098e:	f001 ff27 	bl	80027e0 <HAL_UART_IRQHandler>
 8000992:	6823      	ldr	r3, [r4, #0]
 8000994:	681b      	ldr	r3, [r3, #0]
 8000996:	06db      	lsls	r3, r3, #27
 8000998:	d504      	bpl.n	80009a4 <USART2_IRQHandler+0x1c>
 800099a:	4620      	mov	r0, r4
 800099c:	e8bd 4010 	ldmia.w	sp!, {r4, lr}
 80009a0:	f000 b9e2 	b.w	8000d68 <HAL_UART_RxCpltCallback>
 80009a4:	bd10      	pop	{r4, pc}
 80009a6:	bf00      	nop
 80009a8:	20013018 	.word	0x20013018

080009ac <DMA2_Stream5_IRQHandler>:
 80009ac:	4b0b      	ldr	r3, [pc, #44]	; (80009dc <DMA2_Stream5_IRQHandler+0x30>)
 80009ae:	681b      	ldr	r3, [r3, #0]
 80009b0:	6a19      	ldr	r1, [r3, #32]
 80009b2:	f241 1211 	movw	r2, #4369	; 0x1111
 80009b6:	4211      	tst	r1, r2
 80009b8:	d108      	bne.n	80009cc <DMA2_Stream5_IRQHandler+0x20>
 80009ba:	6a19      	ldr	r1, [r3, #32]
 80009bc:	f240 4244 	movw	r2, #1092	; 0x444
 80009c0:	4211      	tst	r1, r2
 80009c2:	bf02      	ittt	eq
 80009c4:	681a      	ldreq	r2, [r3, #0]
 80009c6:	f022 0201 	biceq.w	r2, r2, #1
 80009ca:	601a      	streq	r2, [r3, #0]
 80009cc:	4b04      	ldr	r3, [pc, #16]	; (80009e0 <DMA2_Stream5_IRQHandler+0x34>)
 80009ce:	4805      	ldr	r0, [pc, #20]	; (80009e4 <DMA2_Stream5_IRQHandler+0x38>)
 80009d0:	f04f 427f 	mov.w	r2, #4278190080	; 0xff000000
 80009d4:	619a      	str	r2, [r3, #24]
 80009d6:	f000 bc4f 	b.w	8001278 <HAL_DMA_IRQHandler>
 80009da:	bf00      	nop
 80009dc:	20012da8 	.word	0x20012da8
 80009e0:	40021000 	.word	0x40021000
 80009e4:	20012df0 	.word	0x20012df0

080009e8 <_sbrk>:
 80009e8:	b508      	push	{r3, lr}
 80009ea:	4b0a      	ldr	r3, [pc, #40]	; (8000a14 <_sbrk+0x2c>)
 80009ec:	6819      	ldr	r1, [r3, #0]
 80009ee:	4602      	mov	r2, r0
 80009f0:	b909      	cbnz	r1, 80009f6 <_sbrk+0xe>
 80009f2:	4909      	ldr	r1, [pc, #36]	; (8000a18 <_sbrk+0x30>)
 80009f4:	6019      	str	r1, [r3, #0]
 80009f6:	6818      	ldr	r0, [r3, #0]
 80009f8:	4669      	mov	r1, sp
 80009fa:	4402      	add	r2, r0
 80009fc:	428a      	cmp	r2, r1
 80009fe:	d906      	bls.n	8000a0e <_sbrk+0x26>
 8000a00:	f002 f876 	bl	8002af0 <__errno>
 8000a04:	230c      	movs	r3, #12
 8000a06:	6003      	str	r3, [r0, #0]
 8000a08:	f04f 30ff 	mov.w	r0, #4294967295
 8000a0c:	bd08      	pop	{r3, pc}
 8000a0e:	601a      	str	r2, [r3, #0]
 8000a10:	e7fc      	b.n	8000a0c <_sbrk+0x24>
 8000a12:	bf00      	nop
 8000a14:	2000009c 	.word	0x2000009c
 8000a18:	20013070 	.word	0x20013070

08000a1c <SystemInit>:
 8000a1c:	4b05      	ldr	r3, [pc, #20]	; (8000a34 <SystemInit+0x18>)
 8000a1e:	f8d3 2088 	ldr.w	r2, [r3, #136]	; 0x88
 8000a22:	f442 0270 	orr.w	r2, r2, #15728640	; 0xf00000
 8000a26:	f8c3 2088 	str.w	r2, [r3, #136]	; 0x88
 8000a2a:	f04f 6200 	mov.w	r2, #134217728	; 0x8000000
 8000a2e:	609a      	str	r2, [r3, #8]
 8000a30:	4770      	bx	lr
 8000a32:	bf00      	nop
 8000a34:	e000ed00 	.word	0xe000ed00

08000a38 <MX_TIM1_Init>:
 8000a38:	b57f      	push	{r0, r1, r2, r3, r4, r5, r6, lr}
 8000a3a:	2210      	movs	r2, #16
 8000a3c:	2100      	movs	r1, #0
 8000a3e:	a802      	add	r0, sp, #8
 8000a40:	f002 f880 	bl	8002b44 <memset>
 8000a44:	4814      	ldr	r0, [pc, #80]	; (8000a98 <MX_TIM1_Init+0x60>)
 8000a46:	4a15      	ldr	r2, [pc, #84]	; (8000a9c <MX_TIM1_Init+0x64>)
 8000a48:	2300      	movs	r3, #0
 8000a4a:	e9c0 2300 	strd	r2, r3, [r0]
 8000a4e:	220b      	movs	r2, #11
 8000a50:	e9cd 3300 	strd	r3, r3, [sp]
 8000a54:	e9c0 2303 	strd	r2, r3, [r0, #12]
 8000a58:	e9c0 3305 	strd	r3, r3, [r0, #20]
 8000a5c:	6083      	str	r3, [r0, #8]
 8000a5e:	f001 fa11 	bl	8001e84 <HAL_TIM_Base_Init>
 8000a62:	b108      	cbz	r0, 8000a68 <MX_TIM1_Init+0x30>
 8000a64:	f7ff fea8 	bl	80007b8 <Error_Handler>
 8000a68:	f44f 5380 	mov.w	r3, #4096	; 0x1000
 8000a6c:	480a      	ldr	r0, [pc, #40]	; (8000a98 <MX_TIM1_Init+0x60>)
 8000a6e:	9302      	str	r3, [sp, #8]
 8000a70:	a902      	add	r1, sp, #8
 8000a72:	f001 fafa 	bl	800206a <HAL_TIM_ConfigClockSource>
 8000a76:	b108      	cbz	r0, 8000a7c <MX_TIM1_Init+0x44>
 8000a78:	f7ff fe9e 	bl	80007b8 <Error_Handler>
 8000a7c:	2300      	movs	r3, #0
 8000a7e:	4806      	ldr	r0, [pc, #24]	; (8000a98 <MX_TIM1_Init+0x60>)
 8000a80:	4669      	mov	r1, sp
 8000a82:	e9cd 3300 	strd	r3, r3, [sp]
 8000a86:	f001 fc77 	bl	8002378 <HAL_TIMEx_MasterConfigSynchronization>
 8000a8a:	b108      	cbz	r0, 8000a90 <MX_TIM1_Init+0x58>
 8000a8c:	f7ff fe94 	bl	80007b8 <Error_Handler>
 8000a90:	b007      	add	sp, #28
 8000a92:	f85d fb04 	ldr.w	pc, [sp], #4
 8000a96:	bf00      	nop
 8000a98:	20012da8 	.word	0x20012da8
 8000a9c:	40010000 	.word	0x40010000

08000aa0 <HAL_TIM_Base_MspInit>:
 8000aa0:	b537      	push	{r0, r1, r2, r4, r5, lr}
 8000aa2:	4b17      	ldr	r3, [pc, #92]	; (8000b00 <HAL_TIM_Base_MspInit+0x60>)
 8000aa4:	6802      	ldr	r2, [r0, #0]
 8000aa6:	429a      	cmp	r2, r3
 8000aa8:	4605      	mov	r5, r0
 8000aaa:	d126      	bne.n	8000afa <HAL_TIM_Base_MspInit+0x5a>
 8000aac:	2300      	movs	r3, #0
 8000aae:	4a15      	ldr	r2, [pc, #84]	; (8000b04 <HAL_TIM_Base_MspInit+0x64>)
 8000ab0:	9301      	str	r3, [sp, #4]
 8000ab2:	6c51      	ldr	r1, [r2, #68]	; 0x44
 8000ab4:	4c14      	ldr	r4, [pc, #80]	; (8000b08 <HAL_TIM_Base_MspInit+0x68>)
 8000ab6:	f041 0101 	orr.w	r1, r1, #1
 8000aba:	6451      	str	r1, [r2, #68]	; 0x44
 8000abc:	6c52      	ldr	r2, [r2, #68]	; 0x44
 8000abe:	4913      	ldr	r1, [pc, #76]	; (8000b0c <HAL_TIM_Base_MspInit+0x6c>)
 8000ac0:	f002 0201 	and.w	r2, r2, #1
 8000ac4:	9201      	str	r2, [sp, #4]
 8000ac6:	9a01      	ldr	r2, [sp, #4]
 8000ac8:	f04f 6240 	mov.w	r2, #201326592	; 0xc000000
 8000acc:	e9c4 1200 	strd	r1, r2, [r4]
 8000ad0:	2240      	movs	r2, #64	; 0x40
 8000ad2:	e9c4 2302 	strd	r2, r3, [r4, #8]
 8000ad6:	f44f 6280 	mov.w	r2, #1024	; 0x400
 8000ada:	e9c4 2304 	strd	r2, r3, [r4, #16]
 8000ade:	4620      	mov	r0, r4
 8000ae0:	f44f 3240 	mov.w	r2, #196608	; 0x30000
 8000ae4:	e9c4 3306 	strd	r3, r3, [r4, #24]
 8000ae8:	e9c4 2308 	strd	r2, r3, [r4, #32]
 8000aec:	f000 fab4 	bl	8001058 <HAL_DMA_Init>
 8000af0:	b108      	cbz	r0, 8000af6 <HAL_TIM_Base_MspInit+0x56>
 8000af2:	f7ff fe61 	bl	80007b8 <Error_Handler>
 8000af6:	622c      	str	r4, [r5, #32]
 8000af8:	63a5      	str	r5, [r4, #56]	; 0x38
 8000afa:	b003      	add	sp, #12
 8000afc:	bd30      	pop	{r4, r5, pc}
 8000afe:	bf00      	nop
 8000b00:	40010000 	.word	0x40010000
 8000b04:	40023800 	.word	0x40023800
 8000b08:	20012df0 	.word	0x20012df0
 8000b0c:	40026488 	.word	0x40026488

08000b10 <HAL_TIM_PWM_MspInit>:
 8000b10:	6803      	ldr	r3, [r0, #0]
 8000b12:	f1b3 4f80 	cmp.w	r3, #1073741824	; 0x40000000
 8000b16:	b507      	push	{r0, r1, r2, lr}
 8000b18:	d116      	bne.n	8000b48 <HAL_TIM_PWM_MspInit+0x38>
 8000b1a:	2200      	movs	r2, #0
 8000b1c:	f503 330e 	add.w	r3, r3, #145408	; 0x23800
 8000b20:	9201      	str	r2, [sp, #4]
 8000b22:	6c19      	ldr	r1, [r3, #64]	; 0x40
 8000b24:	f041 0101 	orr.w	r1, r1, #1
 8000b28:	6419      	str	r1, [r3, #64]	; 0x40
 8000b2a:	6c1b      	ldr	r3, [r3, #64]	; 0x40
 8000b2c:	f003 0301 	and.w	r3, r3, #1
 8000b30:	9301      	str	r3, [sp, #4]
 8000b32:	4611      	mov	r1, r2
 8000b34:	201c      	movs	r0, #28
 8000b36:	9b01      	ldr	r3, [sp, #4]
 8000b38:	f000 fa22 	bl	8000f80 <HAL_NVIC_SetPriority>
 8000b3c:	201c      	movs	r0, #28
 8000b3e:	b003      	add	sp, #12
 8000b40:	f85d eb04 	ldr.w	lr, [sp], #4
 8000b44:	f000 ba4e 	b.w	8000fe4 <HAL_NVIC_EnableIRQ>
 8000b48:	b003      	add	sp, #12
 8000b4a:	f85d fb04 	ldr.w	pc, [sp], #4
	...

08000b50 <HAL_TIM_MspPostInit>:
 8000b50:	b510      	push	{r4, lr}
 8000b52:	4604      	mov	r4, r0
 8000b54:	b086      	sub	sp, #24
 8000b56:	2214      	movs	r2, #20
 8000b58:	2100      	movs	r1, #0
 8000b5a:	a801      	add	r0, sp, #4
 8000b5c:	f001 fff2 	bl	8002b44 <memset>
 8000b60:	6823      	ldr	r3, [r4, #0]
 8000b62:	f1b3 4f80 	cmp.w	r3, #1073741824	; 0x40000000
 8000b66:	d11a      	bne.n	8000b9e <HAL_TIM_MspPostInit+0x4e>
 8000b68:	2100      	movs	r1, #0
 8000b6a:	f503 330e 	add.w	r3, r3, #145408	; 0x23800
 8000b6e:	9100      	str	r1, [sp, #0]
 8000b70:	6b1a      	ldr	r2, [r3, #48]	; 0x30
 8000b72:	480c      	ldr	r0, [pc, #48]	; (8000ba4 <HAL_TIM_MspPostInit+0x54>)
 8000b74:	f042 0202 	orr.w	r2, r2, #2
 8000b78:	631a      	str	r2, [r3, #48]	; 0x30
 8000b7a:	6b1b      	ldr	r3, [r3, #48]	; 0x30
 8000b7c:	9103      	str	r1, [sp, #12]
 8000b7e:	f003 0302 	and.w	r3, r3, #2
 8000b82:	9300      	str	r3, [sp, #0]
 8000b84:	9b00      	ldr	r3, [sp, #0]
 8000b86:	f44f 6200 	mov.w	r2, #2048	; 0x800
 8000b8a:	2302      	movs	r3, #2
 8000b8c:	2103      	movs	r1, #3
 8000b8e:	e9cd 2301 	strd	r2, r3, [sp, #4]
 8000b92:	2301      	movs	r3, #1
 8000b94:	e9cd 1304 	strd	r1, r3, [sp, #16]
 8000b98:	a901      	add	r1, sp, #4
 8000b9a:	f000 fc2b 	bl	80013f4 <HAL_GPIO_Init>
 8000b9e:	b006      	add	sp, #24
 8000ba0:	bd10      	pop	{r4, pc}
 8000ba2:	bf00      	nop
 8000ba4:	40020400 	.word	0x40020400

08000ba8 <MX_TIM2_Init>:
 8000ba8:	b510      	push	{r4, lr}
 8000baa:	2400      	movs	r4, #0
 8000bac:	b08a      	sub	sp, #40	; 0x28
 8000bae:	221c      	movs	r2, #28
 8000bb0:	4621      	mov	r1, r4
 8000bb2:	a803      	add	r0, sp, #12
 8000bb4:	e9cd 4401 	strd	r4, r4, [sp, #4]
 8000bb8:	f001 ffc4 	bl	8002b44 <memset>
 8000bbc:	481d      	ldr	r0, [pc, #116]	; (8000c34 <MX_TIM2_Init+0x8c>)
 8000bbe:	f04f 4380 	mov.w	r3, #1073741824	; 0x40000000
 8000bc2:	e9c0 3400 	strd	r3, r4, [r0]
 8000bc6:	f640 236b 	movw	r3, #2667	; 0xa6b
 8000bca:	e9c0 3403 	strd	r3, r4, [r0, #12]
 8000bce:	6084      	str	r4, [r0, #8]
 8000bd0:	6184      	str	r4, [r0, #24]
 8000bd2:	f001 f983 	bl	8001edc <HAL_TIM_PWM_Init>
 8000bd6:	b108      	cbz	r0, 8000bdc <MX_TIM2_Init+0x34>
 8000bd8:	f7ff fdee 	bl	80007b8 <Error_Handler>
 8000bdc:	4815      	ldr	r0, [pc, #84]	; (8000c34 <MX_TIM2_Init+0x8c>)
 8000bde:	a901      	add	r1, sp, #4
 8000be0:	e9cd 4401 	strd	r4, r4, [sp, #4]
 8000be4:	f001 fbc8 	bl	8002378 <HAL_TIMEx_MasterConfigSynchronization>
 8000be8:	b108      	cbz	r0, 8000bee <MX_TIM2_Init+0x46>
 8000bea:	f7ff fde5 	bl	80007b8 <Error_Handler>
 8000bee:	2260      	movs	r2, #96	; 0x60
 8000bf0:	f240 13bb 	movw	r3, #443	; 0x1bb
 8000bf4:	e9cd 2303 	strd	r2, r3, [sp, #12]
 8000bf8:	2302      	movs	r3, #2
 8000bfa:	9305      	str	r3, [sp, #20]
 8000bfc:	480d      	ldr	r0, [pc, #52]	; (8000c34 <MX_TIM2_Init+0x8c>)
 8000bfe:	2300      	movs	r3, #0
 8000c00:	2208      	movs	r2, #8
 8000c02:	a903      	add	r1, sp, #12
 8000c04:	9307      	str	r3, [sp, #28]
 8000c06:	f001 f9cb 	bl	8001fa0 <HAL_TIM_PWM_ConfigChannel>
 8000c0a:	b108      	cbz	r0, 8000c10 <MX_TIM2_Init+0x68>
 8000c0c:	f7ff fdd4 	bl	80007b8 <Error_Handler>
 8000c10:	220c      	movs	r2, #12
 8000c12:	f44f 73a0 	mov.w	r3, #320	; 0x140
 8000c16:	4807      	ldr	r0, [pc, #28]	; (8000c34 <MX_TIM2_Init+0x8c>)
 8000c18:	9304      	str	r3, [sp, #16]
 8000c1a:	eb0d 0102 	add.w	r1, sp, r2
 8000c1e:	f001 f9bf 	bl	8001fa0 <HAL_TIM_PWM_ConfigChannel>
 8000c22:	b108      	cbz	r0, 8000c28 <MX_TIM2_Init+0x80>
 8000c24:	f7ff fdc8 	bl	80007b8 <Error_Handler>
 8000c28:	4802      	ldr	r0, [pc, #8]	; (8000c34 <MX_TIM2_Init+0x8c>)
 8000c2a:	f7ff ff91 	bl	8000b50 <HAL_TIM_MspPostInit>
 8000c2e:	b00a      	add	sp, #40	; 0x28
 8000c30:	bd10      	pop	{r4, pc}
 8000c32:	bf00      	nop
 8000c34:	20012e50 	.word	0x20012e50

08000c38 <MX_USART2_UART_Init>:
 8000c38:	480b      	ldr	r0, [pc, #44]	; (8000c68 <MX_USART2_UART_Init+0x30>)
 8000c3a:	4a0c      	ldr	r2, [pc, #48]	; (8000c6c <MX_USART2_UART_Init+0x34>)
 8000c3c:	b508      	push	{r3, lr}
 8000c3e:	f44f 33e1 	mov.w	r3, #115200	; 0x1c200
 8000c42:	e9c0 2300 	strd	r2, r3, [r0]
 8000c46:	2300      	movs	r3, #0
 8000c48:	220c      	movs	r2, #12
 8000c4a:	e9c0 3302 	strd	r3, r3, [r0, #8]
 8000c4e:	e9c0 2305 	strd	r2, r3, [r0, #20]
 8000c52:	6103      	str	r3, [r0, #16]
 8000c54:	61c3      	str	r3, [r0, #28]
 8000c56:	f001 fc6b 	bl	8002530 <HAL_UART_Init>
 8000c5a:	b118      	cbz	r0, 8000c64 <MX_USART2_UART_Init+0x2c>
 8000c5c:	e8bd 4008 	ldmia.w	sp!, {r3, lr}
 8000c60:	f7ff bdaa 	b.w	80007b8 <Error_Handler>
 8000c64:	bd08      	pop	{r3, pc}
 8000c66:	bf00      	nop
 8000c68:	20013018 	.word	0x20013018
 8000c6c:	40004400 	.word	0x40004400

08000c70 <HAL_UART_MspInit>:
 8000c70:	b570      	push	{r4, r5, r6, lr}
 8000c72:	4606      	mov	r6, r0
 8000c74:	b088      	sub	sp, #32
 8000c76:	2214      	movs	r2, #20
 8000c78:	2100      	movs	r1, #0
 8000c7a:	a803      	add	r0, sp, #12
 8000c7c:	f001 ff62 	bl	8002b44 <memset>
 8000c80:	6832      	ldr	r2, [r6, #0]
 8000c82:	4b33      	ldr	r3, [pc, #204]	; (8000d50 <HAL_UART_MspInit+0xe0>)
 8000c84:	429a      	cmp	r2, r3
 8000c86:	d160      	bne.n	8000d4a <HAL_UART_MspInit+0xda>
 8000c88:	2500      	movs	r5, #0
 8000c8a:	f503 33fa 	add.w	r3, r3, #128000	; 0x1f400
 8000c8e:	9501      	str	r5, [sp, #4]
 8000c90:	6c1a      	ldr	r2, [r3, #64]	; 0x40
 8000c92:	f442 3200 	orr.w	r2, r2, #131072	; 0x20000
 8000c96:	641a      	str	r2, [r3, #64]	; 0x40
 8000c98:	6c1a      	ldr	r2, [r3, #64]	; 0x40
 8000c9a:	f402 3200 	and.w	r2, r2, #131072	; 0x20000
 8000c9e:	9201      	str	r2, [sp, #4]
 8000ca0:	9a01      	ldr	r2, [sp, #4]
 8000ca2:	9502      	str	r5, [sp, #8]
 8000ca4:	6b1a      	ldr	r2, [r3, #48]	; 0x30
 8000ca6:	f042 0201 	orr.w	r2, r2, #1
 8000caa:	631a      	str	r2, [r3, #48]	; 0x30
 8000cac:	6b1b      	ldr	r3, [r3, #48]	; 0x30
 8000cae:	9505      	str	r5, [sp, #20]
 8000cb0:	f003 0301 	and.w	r3, r3, #1
 8000cb4:	9302      	str	r3, [sp, #8]
 8000cb6:	9b02      	ldr	r3, [sp, #8]
 8000cb8:	200c      	movs	r0, #12
 8000cba:	2302      	movs	r3, #2
 8000cbc:	e9cd 0303 	strd	r0, r3, [sp, #12]
 8000cc0:	2403      	movs	r4, #3
 8000cc2:	2307      	movs	r3, #7
 8000cc4:	4823      	ldr	r0, [pc, #140]	; (8000d54 <HAL_UART_MspInit+0xe4>)
 8000cc6:	a903      	add	r1, sp, #12
 8000cc8:	e9cd 4306 	strd	r4, r3, [sp, #24]
 8000ccc:	f000 fb92 	bl	80013f4 <HAL_GPIO_Init>
 8000cd0:	4c21      	ldr	r4, [pc, #132]	; (8000d58 <HAL_UART_MspInit+0xe8>)
 8000cd2:	f8df c090 	ldr.w	ip, [pc, #144]	; 8000d64 <HAL_UART_MspInit+0xf4>
 8000cd6:	61a5      	str	r5, [r4, #24]
 8000cd8:	f04f 6300 	mov.w	r3, #134217728	; 0x8000000
 8000cdc:	e9c4 c300 	strd	ip, r3, [r4]
 8000ce0:	f44f 6380 	mov.w	r3, #1024	; 0x400
 8000ce4:	e9c4 3504 	strd	r3, r5, [r4, #16]
 8000ce8:	4620      	mov	r0, r4
 8000cea:	f44f 7380 	mov.w	r3, #256	; 0x100
 8000cee:	e9c4 5502 	strd	r5, r5, [r4, #8]
 8000cf2:	e9c4 3507 	strd	r3, r5, [r4, #28]
 8000cf6:	6265      	str	r5, [r4, #36]	; 0x24
 8000cf8:	f000 f9ae 	bl	8001058 <HAL_DMA_Init>
 8000cfc:	b108      	cbz	r0, 8000d02 <HAL_UART_MspInit+0x92>
 8000cfe:	f7ff fd5b 	bl	80007b8 <Error_Handler>
 8000d02:	4a16      	ldr	r2, [pc, #88]	; (8000d5c <HAL_UART_MspInit+0xec>)
 8000d04:	63b4      	str	r4, [r6, #56]	; 0x38
 8000d06:	63a6      	str	r6, [r4, #56]	; 0x38
 8000d08:	4c15      	ldr	r4, [pc, #84]	; (8000d60 <HAL_UART_MspInit+0xf0>)
 8000d0a:	f04f 6300 	mov.w	r3, #134217728	; 0x8000000
 8000d0e:	e9c4 2300 	strd	r2, r3, [r4]
 8000d12:	2140      	movs	r1, #64	; 0x40
 8000d14:	2300      	movs	r3, #0
 8000d16:	f44f 6280 	mov.w	r2, #1024	; 0x400
 8000d1a:	4620      	mov	r0, r4
 8000d1c:	e9c4 1302 	strd	r1, r3, [r4, #8]
 8000d20:	e9c4 2304 	strd	r2, r3, [r4, #16]
 8000d24:	e9c4 3306 	strd	r3, r3, [r4, #24]
 8000d28:	e9c4 3308 	strd	r3, r3, [r4, #32]
 8000d2c:	f000 f994 	bl	8001058 <HAL_DMA_Init>
 8000d30:	b108      	cbz	r0, 8000d36 <HAL_UART_MspInit+0xc6>
 8000d32:	f7ff fd41 	bl	80007b8 <Error_Handler>
 8000d36:	2200      	movs	r2, #0
 8000d38:	6374      	str	r4, [r6, #52]	; 0x34
 8000d3a:	2026      	movs	r0, #38	; 0x26
 8000d3c:	4611      	mov	r1, r2
 8000d3e:	63a6      	str	r6, [r4, #56]	; 0x38
 8000d40:	f000 f91e 	bl	8000f80 <HAL_NVIC_SetPriority>
 8000d44:	2026      	movs	r0, #38	; 0x26
 8000d46:	f000 f94d 	bl	8000fe4 <HAL_NVIC_EnableIRQ>
 8000d4a:	b008      	add	sp, #32
 8000d4c:	bd70      	pop	{r4, r5, r6, pc}
 8000d4e:	bf00      	nop
 8000d50:	40004400 	.word	0x40004400
 8000d54:	40020000 	.word	0x40020000
 8000d58:	20012f18 	.word	0x20012f18
 8000d5c:	400260a0 	.word	0x400260a0
 8000d60:	20012f78 	.word	0x20012f78
 8000d64:	40026088 	.word	0x40026088

08000d68 <HAL_UART_RxCpltCallback>:
 8000d68:	e92d 41f3 	stmdb	sp!, {r0, r1, r4, r5, r6, r7, r8, lr}
 8000d6c:	6803      	ldr	r3, [r0, #0]
 8000d6e:	681a      	ldr	r2, [r3, #0]
 8000d70:	4b31      	ldr	r3, [pc, #196]	; (8000e38 <HAL_UART_RxCpltCallback+0xd0>)
 8000d72:	f012 0f10 	tst.w	r2, #16
 8000d76:	7819      	ldrb	r1, [r3, #0]
 8000d78:	461d      	mov	r5, r3
 8000d7a:	d05a      	beq.n	8000e32 <HAL_UART_RxCpltCallback+0xca>
 8000d7c:	2300      	movs	r3, #0
 8000d7e:	9301      	str	r3, [sp, #4]
 8000d80:	4b2e      	ldr	r3, [pc, #184]	; (8000e3c <HAL_UART_RxCpltCallback+0xd4>)
 8000d82:	681b      	ldr	r3, [r3, #0]
 8000d84:	681a      	ldr	r2, [r3, #0]
 8000d86:	9201      	str	r2, [sp, #4]
 8000d88:	685b      	ldr	r3, [r3, #4]
 8000d8a:	4a2d      	ldr	r2, [pc, #180]	; (8000e40 <HAL_UART_RxCpltCallback+0xd8>)
 8000d8c:	9301      	str	r3, [sp, #4]
 8000d8e:	9b01      	ldr	r3, [sp, #4]
 8000d90:	7813      	ldrb	r3, [r2, #0]
 8000d92:	3301      	adds	r3, #1
 8000d94:	7013      	strb	r3, [r2, #0]
 8000d96:	6b83      	ldr	r3, [r0, #56]	; 0x38
 8000d98:	4a2a      	ldr	r2, [pc, #168]	; (8000e44 <HAL_UART_RxCpltCallback+0xdc>)
 8000d9a:	681b      	ldr	r3, [r3, #0]
 8000d9c:	7816      	ldrb	r6, [r2, #0]
 8000d9e:	685b      	ldr	r3, [r3, #4]
 8000da0:	f1c3 0380 	rsb	r3, r3, #128	; 0x80
 8000da4:	b2db      	uxtb	r3, r3
 8000da6:	2901      	cmp	r1, #1
 8000da8:	7013      	strb	r3, [r2, #0]
 8000daa:	d833      	bhi.n	8000e14 <HAL_UART_RxCpltCallback+0xac>
 8000dac:	b2b2      	uxth	r2, r6
 8000dae:	b29c      	uxth	r4, r3
 8000db0:	b371      	cbz	r1, 8000e10 <HAL_UART_RxCpltCallback+0xa8>
 8000db2:	429e      	cmp	r6, r3
 8000db4:	d330      	bcc.n	8000e18 <HAL_UART_RxCpltCallback+0xb0>
 8000db6:	f1c2 0280 	rsb	r2, r2, #128	; 0x80
 8000dba:	4414      	add	r4, r2
 8000dbc:	b2a4      	uxth	r4, r4
 8000dbe:	1e67      	subs	r7, r4, #1
 8000dc0:	b2bf      	uxth	r7, r7
 8000dc2:	2f7f      	cmp	r7, #127	; 0x7f
 8000dc4:	d82a      	bhi.n	8000e1c <HAL_UART_RxCpltCallback+0xb4>
 8000dc6:	f8df 8084 	ldr.w	r8, [pc, #132]	; 8000e4c <HAL_UART_RxCpltCallback+0xe4>
 8000dca:	491f      	ldr	r1, [pc, #124]	; (8000e48 <HAL_UART_RxCpltCallback+0xe0>)
 8000dcc:	4640      	mov	r0, r8
 8000dce:	f001 fee1 	bl	8002b94 <strcpy>
 8000dd2:	4640      	mov	r0, r8
 8000dd4:	f7ff f9fc 	bl	80001d0 <strlen>
 8000dd8:	f8df c078 	ldr.w	ip, [pc, #120]	; 8000e54 <HAL_UART_RxCpltCallback+0xec>
 8000ddc:	b2c2      	uxtb	r2, r0
 8000dde:	2300      	movs	r3, #0
 8000de0:	4440      	add	r0, r8
 8000de2:	18f1      	adds	r1, r6, r3
 8000de4:	f001 017f 	and.w	r1, r1, #127	; 0x7f
 8000de8:	3301      	adds	r3, #1
 8000dea:	f811 100c 	ldrb.w	r1, [r1, ip]
 8000dee:	f800 1b01 	strb.w	r1, [r0], #1
 8000df2:	b299      	uxth	r1, r3
 8000df4:	42a1      	cmp	r1, r4
 8000df6:	d3f4      	bcc.n	8000de2 <HAL_UART_RxCpltCallback+0x7a>
 8000df8:	3701      	adds	r7, #1
 8000dfa:	443a      	add	r2, r7
 8000dfc:	b2d2      	uxtb	r2, r2
 8000dfe:	4913      	ldr	r1, [pc, #76]	; (8000e4c <HAL_UART_RxCpltCallback+0xe4>)
 8000e00:	480e      	ldr	r0, [pc, #56]	; (8000e3c <HAL_UART_RxCpltCallback+0xd4>)
 8000e02:	f001 fc19 	bl	8002638 <HAL_UART_Transmit_DMA>
 8000e06:	2300      	movs	r3, #0
 8000e08:	702b      	strb	r3, [r5, #0]
 8000e0a:	b002      	add	sp, #8
 8000e0c:	e8bd 81f0 	ldmia.w	sp!, {r4, r5, r6, r7, r8, pc}
 8000e10:	1aa4      	subs	r4, r4, r2
 8000e12:	e7d3      	b.n	8000dbc <HAL_UART_RxCpltCallback+0x54>
 8000e14:	2482      	movs	r4, #130	; 0x82
 8000e16:	e7d2      	b.n	8000dbe <HAL_UART_RxCpltCallback+0x56>
 8000e18:	2481      	movs	r4, #129	; 0x81
 8000e1a:	e7d0      	b.n	8000dbe <HAL_UART_RxCpltCallback+0x56>
 8000e1c:	f1a4 0280 	sub.w	r2, r4, #128	; 0x80
 8000e20:	490b      	ldr	r1, [pc, #44]	; (8000e50 <HAL_UART_RxCpltCallback+0xe8>)
 8000e22:	480a      	ldr	r0, [pc, #40]	; (8000e4c <HAL_UART_RxCpltCallback+0xe4>)
 8000e24:	f001 fe96 	bl	8002b54 <siprintf>
 8000e28:	4808      	ldr	r0, [pc, #32]	; (8000e4c <HAL_UART_RxCpltCallback+0xe4>)
 8000e2a:	f7ff f9d1 	bl	80001d0 <strlen>
 8000e2e:	b2c2      	uxtb	r2, r0
 8000e30:	e7e5      	b.n	8000dfe <HAL_UART_RxCpltCallback+0x96>
 8000e32:	3101      	adds	r1, #1
 8000e34:	7019      	strb	r1, [r3, #0]
 8000e36:	e7e8      	b.n	8000e0a <HAL_UART_RxCpltCallback+0xa2>
 8000e38:	200000a2 	.word	0x200000a2
 8000e3c:	20013018 	.word	0x20013018
 8000e40:	200000a1 	.word	0x200000a1
 8000e44:	200000a0 	.word	0x200000a0
 8000e48:	080033f0 	.word	0x080033f0
 8000e4c:	20012fd8 	.word	0x20012fd8
 8000e50:	08003403 	.word	0x08003403
 8000e54:	20012e98 	.word	0x20012e98

08000e58 <HAL_UART_TxCpltCallback>:
 8000e58:	4a02      	ldr	r2, [pc, #8]	; (8000e64 <HAL_UART_TxCpltCallback+0xc>)
 8000e5a:	7813      	ldrb	r3, [r2, #0]
 8000e5c:	3301      	adds	r3, #1
 8000e5e:	7013      	strb	r3, [r2, #0]
 8000e60:	4770      	bx	lr
 8000e62:	bf00      	nop
 8000e64:	200000a3 	.word	0x200000a3

08000e68 <Reset_Handler>:
 8000e68:	f8df d034 	ldr.w	sp, [pc, #52]	; 8000ea0 <LoopFillZerobss+0x14>
 8000e6c:	2100      	movs	r1, #0
 8000e6e:	e003      	b.n	8000e78 <LoopCopyDataInit>

08000e70 <CopyDataInit>:
 8000e70:	4b0c      	ldr	r3, [pc, #48]	; (8000ea4 <LoopFillZerobss+0x18>)
 8000e72:	585b      	ldr	r3, [r3, r1]
 8000e74:	5043      	str	r3, [r0, r1]
 8000e76:	3104      	adds	r1, #4

08000e78 <LoopCopyDataInit>:
 8000e78:	480b      	ldr	r0, [pc, #44]	; (8000ea8 <LoopFillZerobss+0x1c>)
 8000e7a:	4b0c      	ldr	r3, [pc, #48]	; (8000eac <LoopFillZerobss+0x20>)
 8000e7c:	1842      	adds	r2, r0, r1
 8000e7e:	429a      	cmp	r2, r3
 8000e80:	d3f6      	bcc.n	8000e70 <CopyDataInit>
 8000e82:	4a0b      	ldr	r2, [pc, #44]	; (8000eb0 <LoopFillZerobss+0x24>)
 8000e84:	e002      	b.n	8000e8c <LoopFillZerobss>

08000e86 <FillZerobss>:
 8000e86:	2300      	movs	r3, #0
 8000e88:	f842 3b04 	str.w	r3, [r2], #4

08000e8c <LoopFillZerobss>:
 8000e8c:	4b09      	ldr	r3, [pc, #36]	; (8000eb4 <LoopFillZerobss+0x28>)
 8000e8e:	429a      	cmp	r2, r3
 8000e90:	d3f9      	bcc.n	8000e86 <FillZerobss>
 8000e92:	f7ff fdc3 	bl	8000a1c <SystemInit>
 8000e96:	f001 fe31 	bl	8002afc <__libc_init_array>
 8000e9a:	f7ff fc4d 	bl	8000738 <main>
 8000e9e:	4770      	bx	lr
 8000ea0:	20020000 	.word	0x20020000
 8000ea4:	08003470 	.word	0x08003470
 8000ea8:	20000000 	.word	0x20000000
 8000eac:	20000080 	.word	0x20000080
 8000eb0:	20000080 	.word	0x20000080
 8000eb4:	20013070 	.word	0x20013070

08000eb8 <ADC_IRQHandler>:
 8000eb8:	e7fe      	b.n	8000eb8 <ADC_IRQHandler>
	...

08000ebc <HAL_InitTick>:
 8000ebc:	b538      	push	{r3, r4, r5, lr}
 8000ebe:	4a0e      	ldr	r2, [pc, #56]	; (8000ef8 <HAL_InitTick+0x3c>)
 8000ec0:	4b0e      	ldr	r3, [pc, #56]	; (8000efc <HAL_InitTick+0x40>)
 8000ec2:	4605      	mov	r5, r0
 8000ec4:	7818      	ldrb	r0, [r3, #0]
 8000ec6:	f44f 737a 	mov.w	r3, #1000	; 0x3e8
 8000eca:	fbb3 f3f0 	udiv	r3, r3, r0
 8000ece:	6810      	ldr	r0, [r2, #0]
 8000ed0:	fbb0 f0f3 	udiv	r0, r0, r3
 8000ed4:	f000 f894 	bl	8001000 <HAL_SYSTICK_Config>
 8000ed8:	4604      	mov	r4, r0
 8000eda:	b958      	cbnz	r0, 8000ef4 <HAL_InitTick+0x38>
 8000edc:	2d0f      	cmp	r5, #15
 8000ede:	d809      	bhi.n	8000ef4 <HAL_InitTick+0x38>
 8000ee0:	4602      	mov	r2, r0
 8000ee2:	4629      	mov	r1, r5
 8000ee4:	f04f 30ff 	mov.w	r0, #4294967295
 8000ee8:	f000 f84a 	bl	8000f80 <HAL_NVIC_SetPriority>
 8000eec:	4b04      	ldr	r3, [pc, #16]	; (8000f00 <HAL_InitTick+0x44>)
 8000eee:	4620      	mov	r0, r4
 8000ef0:	601d      	str	r5, [r3, #0]
 8000ef2:	bd38      	pop	{r3, r4, r5, pc}
 8000ef4:	2001      	movs	r0, #1
 8000ef6:	e7fc      	b.n	8000ef2 <HAL_InitTick+0x36>
 8000ef8:	20000010 	.word	0x20000010
 8000efc:	20000014 	.word	0x20000014
 8000f00:	20000018 	.word	0x20000018

08000f04 <HAL_Init>:
 8000f04:	b508      	push	{r3, lr}
 8000f06:	4b0b      	ldr	r3, [pc, #44]	; (8000f34 <HAL_Init+0x30>)
 8000f08:	681a      	ldr	r2, [r3, #0]
 8000f0a:	f442 7200 	orr.w	r2, r2, #512	; 0x200
 8000f0e:	601a      	str	r2, [r3, #0]
 8000f10:	681a      	ldr	r2, [r3, #0]
 8000f12:	f442 6280 	orr.w	r2, r2, #1024	; 0x400
 8000f16:	601a      	str	r2, [r3, #0]
 8000f18:	681a      	ldr	r2, [r3, #0]
 8000f1a:	f442 7280 	orr.w	r2, r2, #256	; 0x100
 8000f1e:	601a      	str	r2, [r3, #0]
 8000f20:	2003      	movs	r0, #3
 8000f22:	f000 f81b 	bl	8000f5c <HAL_NVIC_SetPriorityGrouping>
 8000f26:	2000      	movs	r0, #0
 8000f28:	f7ff ffc8 	bl	8000ebc <HAL_InitTick>
 8000f2c:	f7ff fcb0 	bl	8000890 <HAL_MspInit>
 8000f30:	2000      	movs	r0, #0
 8000f32:	bd08      	pop	{r3, pc}
 8000f34:	40023c00 	.word	0x40023c00

08000f38 <HAL_IncTick>:
 8000f38:	4a03      	ldr	r2, [pc, #12]	; (8000f48 <HAL_IncTick+0x10>)
 8000f3a:	4b04      	ldr	r3, [pc, #16]	; (8000f4c <HAL_IncTick+0x14>)
 8000f3c:	6811      	ldr	r1, [r2, #0]
 8000f3e:	781b      	ldrb	r3, [r3, #0]
 8000f40:	440b      	add	r3, r1
 8000f42:	6013      	str	r3, [r2, #0]
 8000f44:	4770      	bx	lr
 8000f46:	bf00      	nop
 8000f48:	2001305c 	.word	0x2001305c
 8000f4c:	20000014 	.word	0x20000014

08000f50 <HAL_GetTick>:
 8000f50:	4b01      	ldr	r3, [pc, #4]	; (8000f58 <HAL_GetTick+0x8>)
 8000f52:	6818      	ldr	r0, [r3, #0]
 8000f54:	4770      	bx	lr
 8000f56:	bf00      	nop
 8000f58:	2001305c 	.word	0x2001305c

08000f5c <HAL_NVIC_SetPriorityGrouping>:
 8000f5c:	4907      	ldr	r1, [pc, #28]	; (8000f7c <HAL_NVIC_SetPriorityGrouping+0x20>)
 8000f5e:	68ca      	ldr	r2, [r1, #12]
 8000f60:	f422 62e0 	bic.w	r2, r2, #1792	; 0x700
 8000f64:	0203      	lsls	r3, r0, #8
 8000f66:	0412      	lsls	r2, r2, #16
 8000f68:	f403 63e0 	and.w	r3, r3, #1792	; 0x700
 8000f6c:	0c12      	lsrs	r2, r2, #16
 8000f6e:	4313      	orrs	r3, r2
 8000f70:	f043 63bf 	orr.w	r3, r3, #100139008	; 0x5f80000
 8000f74:	f443 3300 	orr.w	r3, r3, #131072	; 0x20000
 8000f78:	60cb      	str	r3, [r1, #12]
 8000f7a:	4770      	bx	lr
 8000f7c:	e000ed00 	.word	0xe000ed00

08000f80 <HAL_NVIC_SetPriority>:
 8000f80:	4b16      	ldr	r3, [pc, #88]	; (8000fdc <HAL_NVIC_SetPriority+0x5c>)
 8000f82:	b530      	push	{r4, r5, lr}
 8000f84:	68dc      	ldr	r4, [r3, #12]
 8000f86:	f3c4 2402 	ubfx	r4, r4, #8, #3
 8000f8a:	f1c4 0507 	rsb	r5, r4, #7
 8000f8e:	1d23      	adds	r3, r4, #4
 8000f90:	2d04      	cmp	r5, #4
 8000f92:	bf28      	it	cs
 8000f94:	2504      	movcs	r5, #4
 8000f96:	2b06      	cmp	r3, #6
 8000f98:	f04f 33ff 	mov.w	r3, #4294967295
 8000f9c:	bf8c      	ite	hi
 8000f9e:	3c03      	subhi	r4, #3
 8000fa0:	2400      	movls	r4, #0
 8000fa2:	fa03 f505 	lsl.w	r5, r3, r5
 8000fa6:	ea21 0105 	bic.w	r1, r1, r5
 8000faa:	40a3      	lsls	r3, r4
 8000fac:	ea22 0203 	bic.w	r2, r2, r3
 8000fb0:	40a1      	lsls	r1, r4
 8000fb2:	2800      	cmp	r0, #0
 8000fb4:	ea41 0302 	orr.w	r3, r1, r2
 8000fb8:	bfac      	ite	ge
 8000fba:	f100 4060 	addge.w	r0, r0, #3758096384	; 0xe0000000
 8000fbe:	4a08      	ldrlt	r2, [pc, #32]	; (8000fe0 <HAL_NVIC_SetPriority+0x60>)
 8000fc0:	ea4f 1303 	mov.w	r3, r3, lsl #4
 8000fc4:	bfb8      	it	lt
 8000fc6:	f000 000f 	andlt.w	r0, r0, #15
 8000fca:	b2db      	uxtb	r3, r3
 8000fcc:	bfaa      	itet	ge
 8000fce:	f500 4061 	addge.w	r0, r0, #57600	; 0xe100
 8000fd2:	5413      	strblt	r3, [r2, r0]
 8000fd4:	f880 3300 	strbge.w	r3, [r0, #768]	; 0x300
 8000fd8:	bd30      	pop	{r4, r5, pc}
 8000fda:	bf00      	nop
 8000fdc:	e000ed00 	.word	0xe000ed00
 8000fe0:	e000ed14 	.word	0xe000ed14

08000fe4 <HAL_NVIC_EnableIRQ>:
 8000fe4:	2800      	cmp	r0, #0
 8000fe6:	db08      	blt.n	8000ffa <HAL_NVIC_EnableIRQ+0x16>
 8000fe8:	0942      	lsrs	r2, r0, #5
 8000fea:	2301      	movs	r3, #1
 8000fec:	f000 001f 	and.w	r0, r0, #31
 8000ff0:	fa03 f000 	lsl.w	r0, r3, r0
 8000ff4:	4b01      	ldr	r3, [pc, #4]	; (8000ffc <HAL_NVIC_EnableIRQ+0x18>)
 8000ff6:	f843 0022 	str.w	r0, [r3, r2, lsl #2]
 8000ffa:	4770      	bx	lr
 8000ffc:	e000e100 	.word	0xe000e100

08001000 <HAL_SYSTICK_Config>:
 8001000:	3801      	subs	r0, #1
 8001002:	f1b0 7f80 	cmp.w	r0, #16777216	; 0x1000000
 8001006:	d20a      	bcs.n	800101e <HAL_SYSTICK_Config+0x1e>
 8001008:	4b06      	ldr	r3, [pc, #24]	; (8001024 <HAL_SYSTICK_Config+0x24>)
 800100a:	4a07      	ldr	r2, [pc, #28]	; (8001028 <HAL_SYSTICK_Config+0x28>)
 800100c:	6058      	str	r0, [r3, #4]
 800100e:	21f0      	movs	r1, #240	; 0xf0
 8001010:	f882 1023 	strb.w	r1, [r2, #35]	; 0x23
 8001014:	2000      	movs	r0, #0
 8001016:	2207      	movs	r2, #7
 8001018:	6098      	str	r0, [r3, #8]
 800101a:	601a      	str	r2, [r3, #0]
 800101c:	4770      	bx	lr
 800101e:	2001      	movs	r0, #1
 8001020:	4770      	bx	lr
 8001022:	bf00      	nop
 8001024:	e000e010 	.word	0xe000e010
 8001028:	e000ed00 	.word	0xe000ed00

0800102c <DMA_CalcBaseAndBitshift>:
 800102c:	6803      	ldr	r3, [r0, #0]
 800102e:	b510      	push	{r4, lr}
 8001030:	4c08      	ldr	r4, [pc, #32]	; (8001054 <DMA_CalcBaseAndBitshift+0x28>)
 8001032:	4602      	mov	r2, r0
 8001034:	b2d9      	uxtb	r1, r3
 8001036:	3910      	subs	r1, #16
 8001038:	2018      	movs	r0, #24
 800103a:	fbb1 f0f0 	udiv	r0, r1, r0
 800103e:	5c20      	ldrb	r0, [r4, r0]
 8001040:	65d0      	str	r0, [r2, #92]	; 0x5c
 8001042:	f423 707f 	bic.w	r0, r3, #1020	; 0x3fc
 8001046:	f020 0003 	bic.w	r0, r0, #3
 800104a:	295f      	cmp	r1, #95	; 0x5f
 800104c:	bf88      	it	hi
 800104e:	3004      	addhi	r0, #4
 8001050:	6590      	str	r0, [r2, #88]	; 0x58
 8001052:	bd10      	pop	{r4, pc}
 8001054:	08003425 	.word	0x08003425

08001058 <HAL_DMA_Init>:
 8001058:	b570      	push	{r4, r5, r6, lr}
 800105a:	4604      	mov	r4, r0
 800105c:	f7ff ff78 	bl	8000f50 <HAL_GetTick>
 8001060:	4605      	mov	r5, r0
 8001062:	2c00      	cmp	r4, #0
 8001064:	d073      	beq.n	800114e <HAL_DMA_Init+0xf6>
 8001066:	2300      	movs	r3, #0
 8001068:	f884 3034 	strb.w	r3, [r4, #52]	; 0x34
 800106c:	6822      	ldr	r2, [r4, #0]
 800106e:	2302      	movs	r3, #2
 8001070:	f884 3035 	strb.w	r3, [r4, #53]	; 0x35
 8001074:	6813      	ldr	r3, [r2, #0]
 8001076:	f023 0301 	bic.w	r3, r3, #1
 800107a:	6013      	str	r3, [r2, #0]
 800107c:	6821      	ldr	r1, [r4, #0]
 800107e:	680b      	ldr	r3, [r1, #0]
 8001080:	07d8      	lsls	r0, r3, #31
 8001082:	d42f      	bmi.n	80010e4 <HAL_DMA_Init+0x8c>
 8001084:	680b      	ldr	r3, [r1, #0]
 8001086:	4d33      	ldr	r5, [pc, #204]	; (8001154 <HAL_DMA_Init+0xfc>)
 8001088:	69a0      	ldr	r0, [r4, #24]
 800108a:	401d      	ands	r5, r3
 800108c:	e9d4 2301 	ldrd	r2, r3, [r4, #4]
 8001090:	4313      	orrs	r3, r2
 8001092:	68e2      	ldr	r2, [r4, #12]
 8001094:	4313      	orrs	r3, r2
 8001096:	6922      	ldr	r2, [r4, #16]
 8001098:	4313      	orrs	r3, r2
 800109a:	6962      	ldr	r2, [r4, #20]
 800109c:	4313      	orrs	r3, r2
 800109e:	69e2      	ldr	r2, [r4, #28]
 80010a0:	4303      	orrs	r3, r0
 80010a2:	4313      	orrs	r3, r2
 80010a4:	6a22      	ldr	r2, [r4, #32]
 80010a6:	4313      	orrs	r3, r2
 80010a8:	6a62      	ldr	r2, [r4, #36]	; 0x24
 80010aa:	2a04      	cmp	r2, #4
 80010ac:	ea43 0305 	orr.w	r3, r3, r5
 80010b0:	bf02      	ittt	eq
 80010b2:	e9d4 560b 	ldrdeq	r5, r6, [r4, #44]	; 0x2c
 80010b6:	4335      	orreq	r5, r6
 80010b8:	432b      	orreq	r3, r5
 80010ba:	600b      	str	r3, [r1, #0]
 80010bc:	694b      	ldr	r3, [r1, #20]
 80010be:	2a04      	cmp	r2, #4
 80010c0:	f023 0307 	bic.w	r3, r3, #7
 80010c4:	ea43 0302 	orr.w	r3, r3, r2
 80010c8:	d133      	bne.n	8001132 <HAL_DMA_Init+0xda>
 80010ca:	6aa2      	ldr	r2, [r4, #40]	; 0x28
 80010cc:	6ae5      	ldr	r5, [r4, #44]	; 0x2c
 80010ce:	4313      	orrs	r3, r2
 80010d0:	b37d      	cbz	r5, 8001132 <HAL_DMA_Init+0xda>
 80010d2:	b990      	cbnz	r0, 80010fa <HAL_DMA_Init+0xa2>
 80010d4:	2a01      	cmp	r2, #1
 80010d6:	d021      	beq.n	800111c <HAL_DMA_Init+0xc4>
 80010d8:	f032 0202 	bics.w	r2, r2, #2
 80010dc:	d129      	bne.n	8001132 <HAL_DMA_Init+0xda>
 80010de:	01ea      	lsls	r2, r5, #7
 80010e0:	d527      	bpl.n	8001132 <HAL_DMA_Init+0xda>
 80010e2:	e01e      	b.n	8001122 <HAL_DMA_Init+0xca>
 80010e4:	f7ff ff34 	bl	8000f50 <HAL_GetTick>
 80010e8:	1b40      	subs	r0, r0, r5
 80010ea:	2805      	cmp	r0, #5
 80010ec:	d9c6      	bls.n	800107c <HAL_DMA_Init+0x24>
 80010ee:	2320      	movs	r3, #32
 80010f0:	6563      	str	r3, [r4, #84]	; 0x54
 80010f2:	2003      	movs	r0, #3
 80010f4:	f884 0035 	strb.w	r0, [r4, #53]	; 0x35
 80010f8:	bd70      	pop	{r4, r5, r6, pc}
 80010fa:	f5b0 5f00 	cmp.w	r0, #8192	; 0x2000
 80010fe:	d114      	bne.n	800112a <HAL_DMA_Init+0xd2>
 8001100:	2a03      	cmp	r2, #3
 8001102:	d816      	bhi.n	8001132 <HAL_DMA_Init+0xda>
 8001104:	a001      	add	r0, pc, #4	; (adr r0, 800110c <HAL_DMA_Init+0xb4>)
 8001106:	f850 f022 	ldr.w	pc, [r0, r2, lsl #2]
 800110a:	bf00      	nop
 800110c:	08001123 	.word	0x08001123
 8001110:	080010df 	.word	0x080010df
 8001114:	08001123 	.word	0x08001123
 8001118:	0800111d 	.word	0x0800111d
 800111c:	f1b5 7fc0 	cmp.w	r5, #25165824	; 0x1800000
 8001120:	d107      	bne.n	8001132 <HAL_DMA_Init+0xda>
 8001122:	2340      	movs	r3, #64	; 0x40
 8001124:	6563      	str	r3, [r4, #84]	; 0x54
 8001126:	2001      	movs	r0, #1
 8001128:	e7e4      	b.n	80010f4 <HAL_DMA_Init+0x9c>
 800112a:	2a02      	cmp	r2, #2
 800112c:	d9f9      	bls.n	8001122 <HAL_DMA_Init+0xca>
 800112e:	2a03      	cmp	r2, #3
 8001130:	d0d5      	beq.n	80010de <HAL_DMA_Init+0x86>
 8001132:	614b      	str	r3, [r1, #20]
 8001134:	4620      	mov	r0, r4
 8001136:	f7ff ff79 	bl	800102c <DMA_CalcBaseAndBitshift>
 800113a:	6de2      	ldr	r2, [r4, #92]	; 0x5c
 800113c:	233f      	movs	r3, #63	; 0x3f
 800113e:	4093      	lsls	r3, r2
 8001140:	6083      	str	r3, [r0, #8]
 8001142:	2000      	movs	r0, #0
 8001144:	2301      	movs	r3, #1
 8001146:	6560      	str	r0, [r4, #84]	; 0x54
 8001148:	f884 3035 	strb.w	r3, [r4, #53]	; 0x35
 800114c:	e7d4      	b.n	80010f8 <HAL_DMA_Init+0xa0>
 800114e:	2001      	movs	r0, #1
 8001150:	e7d2      	b.n	80010f8 <HAL_DMA_Init+0xa0>
 8001152:	bf00      	nop
 8001154:	f010803f 	.word	0xf010803f

08001158 <HAL_DMA_Start_IT>:
 8001158:	b570      	push	{r4, r5, r6, lr}
 800115a:	f890 4034 	ldrb.w	r4, [r0, #52]	; 0x34
 800115e:	6d86      	ldr	r6, [r0, #88]	; 0x58
 8001160:	2c01      	cmp	r4, #1
 8001162:	d031      	beq.n	80011c8 <HAL_DMA_Start_IT+0x70>
 8001164:	2401      	movs	r4, #1
 8001166:	f880 4034 	strb.w	r4, [r0, #52]	; 0x34
 800116a:	f890 4035 	ldrb.w	r4, [r0, #53]	; 0x35
 800116e:	2c01      	cmp	r4, #1
 8001170:	f04f 0500 	mov.w	r5, #0
 8001174:	f04f 0402 	mov.w	r4, #2
 8001178:	d124      	bne.n	80011c4 <HAL_DMA_Start_IT+0x6c>
 800117a:	f880 4035 	strb.w	r4, [r0, #53]	; 0x35
 800117e:	6804      	ldr	r4, [r0, #0]
 8001180:	6545      	str	r5, [r0, #84]	; 0x54
 8001182:	6825      	ldr	r5, [r4, #0]
 8001184:	f425 2580 	bic.w	r5, r5, #262144	; 0x40000
 8001188:	6025      	str	r5, [r4, #0]
 800118a:	6063      	str	r3, [r4, #4]
 800118c:	6883      	ldr	r3, [r0, #8]
 800118e:	2b40      	cmp	r3, #64	; 0x40
 8001190:	bf0e      	itee	eq
 8001192:	60a2      	streq	r2, [r4, #8]
 8001194:	60a1      	strne	r1, [r4, #8]
 8001196:	60e2      	strne	r2, [r4, #12]
 8001198:	6dc2      	ldr	r2, [r0, #92]	; 0x5c
 800119a:	bf08      	it	eq
 800119c:	60e1      	streq	r1, [r4, #12]
 800119e:	233f      	movs	r3, #63	; 0x3f
 80011a0:	4093      	lsls	r3, r2
 80011a2:	60b3      	str	r3, [r6, #8]
 80011a4:	6823      	ldr	r3, [r4, #0]
 80011a6:	f043 0316 	orr.w	r3, r3, #22
 80011aa:	6023      	str	r3, [r4, #0]
 80011ac:	6c03      	ldr	r3, [r0, #64]	; 0x40
 80011ae:	b11b      	cbz	r3, 80011b8 <HAL_DMA_Start_IT+0x60>
 80011b0:	6823      	ldr	r3, [r4, #0]
 80011b2:	f043 0308 	orr.w	r3, r3, #8
 80011b6:	6023      	str	r3, [r4, #0]
 80011b8:	6823      	ldr	r3, [r4, #0]
 80011ba:	f043 0301 	orr.w	r3, r3, #1
 80011be:	6023      	str	r3, [r4, #0]
 80011c0:	2000      	movs	r0, #0
 80011c2:	bd70      	pop	{r4, r5, r6, pc}
 80011c4:	f880 5034 	strb.w	r5, [r0, #52]	; 0x34
 80011c8:	2002      	movs	r0, #2
 80011ca:	e7fa      	b.n	80011c2 <HAL_DMA_Start_IT+0x6a>

080011cc <HAL_DMA_Abort>:
 80011cc:	b570      	push	{r4, r5, r6, lr}
 80011ce:	4604      	mov	r4, r0
 80011d0:	6d86      	ldr	r6, [r0, #88]	; 0x58
 80011d2:	f7ff febd 	bl	8000f50 <HAL_GetTick>
 80011d6:	f894 3035 	ldrb.w	r3, [r4, #53]	; 0x35
 80011da:	2b02      	cmp	r3, #2
 80011dc:	4605      	mov	r5, r0
 80011de:	d006      	beq.n	80011ee <HAL_DMA_Abort+0x22>
 80011e0:	2380      	movs	r3, #128	; 0x80
 80011e2:	6563      	str	r3, [r4, #84]	; 0x54
 80011e4:	2300      	movs	r3, #0
 80011e6:	f884 3034 	strb.w	r3, [r4, #52]	; 0x34
 80011ea:	2001      	movs	r0, #1
 80011ec:	bd70      	pop	{r4, r5, r6, pc}
 80011ee:	6823      	ldr	r3, [r4, #0]
 80011f0:	681a      	ldr	r2, [r3, #0]
 80011f2:	f022 0216 	bic.w	r2, r2, #22
 80011f6:	601a      	str	r2, [r3, #0]
 80011f8:	695a      	ldr	r2, [r3, #20]
 80011fa:	f022 0280 	bic.w	r2, r2, #128	; 0x80
 80011fe:	615a      	str	r2, [r3, #20]
 8001200:	6c22      	ldr	r2, [r4, #64]	; 0x40
 8001202:	b90a      	cbnz	r2, 8001208 <HAL_DMA_Abort+0x3c>
 8001204:	6ca2      	ldr	r2, [r4, #72]	; 0x48
 8001206:	b11a      	cbz	r2, 8001210 <HAL_DMA_Abort+0x44>
 8001208:	681a      	ldr	r2, [r3, #0]
 800120a:	f022 0208 	bic.w	r2, r2, #8
 800120e:	601a      	str	r2, [r3, #0]
 8001210:	681a      	ldr	r2, [r3, #0]
 8001212:	f022 0201 	bic.w	r2, r2, #1
 8001216:	601a      	str	r2, [r3, #0]
 8001218:	6823      	ldr	r3, [r4, #0]
 800121a:	681b      	ldr	r3, [r3, #0]
 800121c:	f013 0301 	ands.w	r3, r3, #1
 8001220:	d10a      	bne.n	8001238 <HAL_DMA_Abort+0x6c>
 8001222:	6de1      	ldr	r1, [r4, #92]	; 0x5c
 8001224:	223f      	movs	r2, #63	; 0x3f
 8001226:	408a      	lsls	r2, r1
 8001228:	60b2      	str	r2, [r6, #8]
 800122a:	2201      	movs	r2, #1
 800122c:	f884 3034 	strb.w	r3, [r4, #52]	; 0x34
 8001230:	f884 2035 	strb.w	r2, [r4, #53]	; 0x35
 8001234:	4618      	mov	r0, r3
 8001236:	e7d9      	b.n	80011ec <HAL_DMA_Abort+0x20>
 8001238:	f7ff fe8a 	bl	8000f50 <HAL_GetTick>
 800123c:	1b40      	subs	r0, r0, r5
 800123e:	2805      	cmp	r0, #5
 8001240:	d9ea      	bls.n	8001218 <HAL_DMA_Abort+0x4c>
 8001242:	2320      	movs	r3, #32
 8001244:	6563      	str	r3, [r4, #84]	; 0x54
 8001246:	2003      	movs	r0, #3
 8001248:	2300      	movs	r3, #0
 800124a:	f884 3034 	strb.w	r3, [r4, #52]	; 0x34
 800124e:	f884 0035 	strb.w	r0, [r4, #53]	; 0x35
 8001252:	e7cb      	b.n	80011ec <HAL_DMA_Abort+0x20>

08001254 <HAL_DMA_Abort_IT>:
 8001254:	f890 3035 	ldrb.w	r3, [r0, #53]	; 0x35
 8001258:	2b02      	cmp	r3, #2
 800125a:	d003      	beq.n	8001264 <HAL_DMA_Abort_IT+0x10>
 800125c:	2380      	movs	r3, #128	; 0x80
 800125e:	6543      	str	r3, [r0, #84]	; 0x54
 8001260:	2001      	movs	r0, #1
 8001262:	4770      	bx	lr
 8001264:	6802      	ldr	r2, [r0, #0]
 8001266:	2305      	movs	r3, #5
 8001268:	f880 3035 	strb.w	r3, [r0, #53]	; 0x35
 800126c:	6813      	ldr	r3, [r2, #0]
 800126e:	f023 0301 	bic.w	r3, r3, #1
 8001272:	6013      	str	r3, [r2, #0]
 8001274:	2000      	movs	r0, #0
 8001276:	4770      	bx	lr

08001278 <HAL_DMA_IRQHandler>:
 8001278:	b5f7      	push	{r0, r1, r2, r4, r5, r6, r7, lr}
 800127a:	2300      	movs	r3, #0
 800127c:	9301      	str	r3, [sp, #4]
 800127e:	4b5c      	ldr	r3, [pc, #368]	; (80013f0 <HAL_DMA_IRQHandler+0x178>)
 8001280:	6d85      	ldr	r5, [r0, #88]	; 0x58
 8001282:	681f      	ldr	r7, [r3, #0]
 8001284:	6dc3      	ldr	r3, [r0, #92]	; 0x5c
 8001286:	682e      	ldr	r6, [r5, #0]
 8001288:	2208      	movs	r2, #8
 800128a:	409a      	lsls	r2, r3
 800128c:	4232      	tst	r2, r6
 800128e:	4604      	mov	r4, r0
 8001290:	d00c      	beq.n	80012ac <HAL_DMA_IRQHandler+0x34>
 8001292:	6801      	ldr	r1, [r0, #0]
 8001294:	6808      	ldr	r0, [r1, #0]
 8001296:	0740      	lsls	r0, r0, #29
 8001298:	d508      	bpl.n	80012ac <HAL_DMA_IRQHandler+0x34>
 800129a:	6808      	ldr	r0, [r1, #0]
 800129c:	f020 0004 	bic.w	r0, r0, #4
 80012a0:	6008      	str	r0, [r1, #0]
 80012a2:	60aa      	str	r2, [r5, #8]
 80012a4:	6d62      	ldr	r2, [r4, #84]	; 0x54
 80012a6:	f042 0201 	orr.w	r2, r2, #1
 80012aa:	6562      	str	r2, [r4, #84]	; 0x54
 80012ac:	2201      	movs	r2, #1
 80012ae:	409a      	lsls	r2, r3
 80012b0:	4232      	tst	r2, r6
 80012b2:	d008      	beq.n	80012c6 <HAL_DMA_IRQHandler+0x4e>
 80012b4:	6821      	ldr	r1, [r4, #0]
 80012b6:	6949      	ldr	r1, [r1, #20]
 80012b8:	0609      	lsls	r1, r1, #24
 80012ba:	bf41      	itttt	mi
 80012bc:	60aa      	strmi	r2, [r5, #8]
 80012be:	6d62      	ldrmi	r2, [r4, #84]	; 0x54
 80012c0:	f042 0202 	orrmi.w	r2, r2, #2
 80012c4:	6562      	strmi	r2, [r4, #84]	; 0x54
 80012c6:	2204      	movs	r2, #4
 80012c8:	409a      	lsls	r2, r3
 80012ca:	4232      	tst	r2, r6
 80012cc:	d008      	beq.n	80012e0 <HAL_DMA_IRQHandler+0x68>
 80012ce:	6821      	ldr	r1, [r4, #0]
 80012d0:	6809      	ldr	r1, [r1, #0]
 80012d2:	0788      	lsls	r0, r1, #30
 80012d4:	bf41      	itttt	mi
 80012d6:	60aa      	strmi	r2, [r5, #8]
 80012d8:	6d62      	ldrmi	r2, [r4, #84]	; 0x54
 80012da:	f042 0204 	orrmi.w	r2, r2, #4
 80012de:	6562      	strmi	r2, [r4, #84]	; 0x54
 80012e0:	2210      	movs	r2, #16
 80012e2:	409a      	lsls	r2, r3
 80012e4:	4232      	tst	r2, r6
 80012e6:	d010      	beq.n	800130a <HAL_DMA_IRQHandler+0x92>
 80012e8:	6823      	ldr	r3, [r4, #0]
 80012ea:	6819      	ldr	r1, [r3, #0]
 80012ec:	0709      	lsls	r1, r1, #28
 80012ee:	d50c      	bpl.n	800130a <HAL_DMA_IRQHandler+0x92>
 80012f0:	60aa      	str	r2, [r5, #8]
 80012f2:	681a      	ldr	r2, [r3, #0]
 80012f4:	0350      	lsls	r0, r2, #13
 80012f6:	d537      	bpl.n	8001368 <HAL_DMA_IRQHandler+0xf0>
 80012f8:	681b      	ldr	r3, [r3, #0]
 80012fa:	0319      	lsls	r1, r3, #12
 80012fc:	d401      	bmi.n	8001302 <HAL_DMA_IRQHandler+0x8a>
 80012fe:	6c23      	ldr	r3, [r4, #64]	; 0x40
 8001300:	e000      	b.n	8001304 <HAL_DMA_IRQHandler+0x8c>
 8001302:	6ca3      	ldr	r3, [r4, #72]	; 0x48
 8001304:	b10b      	cbz	r3, 800130a <HAL_DMA_IRQHandler+0x92>
 8001306:	4620      	mov	r0, r4
 8001308:	4798      	blx	r3
 800130a:	6de1      	ldr	r1, [r4, #92]	; 0x5c
 800130c:	2220      	movs	r2, #32
 800130e:	408a      	lsls	r2, r1
 8001310:	4232      	tst	r2, r6
 8001312:	d03a      	beq.n	800138a <HAL_DMA_IRQHandler+0x112>
 8001314:	6823      	ldr	r3, [r4, #0]
 8001316:	6818      	ldr	r0, [r3, #0]
 8001318:	06c6      	lsls	r6, r0, #27
 800131a:	d536      	bpl.n	800138a <HAL_DMA_IRQHandler+0x112>
 800131c:	60aa      	str	r2, [r5, #8]
 800131e:	f894 2035 	ldrb.w	r2, [r4, #53]	; 0x35
 8001322:	2a05      	cmp	r2, #5
 8001324:	681a      	ldr	r2, [r3, #0]
 8001326:	d127      	bne.n	8001378 <HAL_DMA_IRQHandler+0x100>
 8001328:	f022 0216 	bic.w	r2, r2, #22
 800132c:	601a      	str	r2, [r3, #0]
 800132e:	695a      	ldr	r2, [r3, #20]
 8001330:	f022 0280 	bic.w	r2, r2, #128	; 0x80
 8001334:	615a      	str	r2, [r3, #20]
 8001336:	6c22      	ldr	r2, [r4, #64]	; 0x40
 8001338:	b90a      	cbnz	r2, 800133e <HAL_DMA_IRQHandler+0xc6>
 800133a:	6ca2      	ldr	r2, [r4, #72]	; 0x48
 800133c:	b11a      	cbz	r2, 8001346 <HAL_DMA_IRQHandler+0xce>
 800133e:	681a      	ldr	r2, [r3, #0]
 8001340:	f022 0208 	bic.w	r2, r2, #8
 8001344:	601a      	str	r2, [r3, #0]
 8001346:	233f      	movs	r3, #63	; 0x3f
 8001348:	408b      	lsls	r3, r1
 800134a:	60ab      	str	r3, [r5, #8]
 800134c:	2300      	movs	r3, #0
 800134e:	f884 3034 	strb.w	r3, [r4, #52]	; 0x34
 8001352:	2301      	movs	r3, #1
 8001354:	f884 3035 	strb.w	r3, [r4, #53]	; 0x35
 8001358:	6d23      	ldr	r3, [r4, #80]	; 0x50
 800135a:	2b00      	cmp	r3, #0
 800135c:	d045      	beq.n	80013ea <HAL_DMA_IRQHandler+0x172>
 800135e:	4620      	mov	r0, r4
 8001360:	b003      	add	sp, #12
 8001362:	e8bd 40f0 	ldmia.w	sp!, {r4, r5, r6, r7, lr}
 8001366:	4718      	bx	r3
 8001368:	681a      	ldr	r2, [r3, #0]
 800136a:	05d2      	lsls	r2, r2, #23
 800136c:	bf5e      	ittt	pl
 800136e:	681a      	ldrpl	r2, [r3, #0]
 8001370:	f022 0208 	bicpl.w	r2, r2, #8
 8001374:	601a      	strpl	r2, [r3, #0]
 8001376:	e7c2      	b.n	80012fe <HAL_DMA_IRQHandler+0x86>
 8001378:	0350      	lsls	r0, r2, #13
 800137a:	d527      	bpl.n	80013cc <HAL_DMA_IRQHandler+0x154>
 800137c:	681b      	ldr	r3, [r3, #0]
 800137e:	0319      	lsls	r1, r3, #12
 8001380:	d431      	bmi.n	80013e6 <HAL_DMA_IRQHandler+0x16e>
 8001382:	6c63      	ldr	r3, [r4, #68]	; 0x44
 8001384:	b10b      	cbz	r3, 800138a <HAL_DMA_IRQHandler+0x112>
 8001386:	4620      	mov	r0, r4
 8001388:	4798      	blx	r3
 800138a:	6d63      	ldr	r3, [r4, #84]	; 0x54
 800138c:	b36b      	cbz	r3, 80013ea <HAL_DMA_IRQHandler+0x172>
 800138e:	6d63      	ldr	r3, [r4, #84]	; 0x54
 8001390:	07da      	lsls	r2, r3, #31
 8001392:	d519      	bpl.n	80013c8 <HAL_DMA_IRQHandler+0x150>
 8001394:	6822      	ldr	r2, [r4, #0]
 8001396:	f44f 5316 	mov.w	r3, #9600	; 0x2580
 800139a:	fbb7 f7f3 	udiv	r7, r7, r3
 800139e:	2305      	movs	r3, #5
 80013a0:	f884 3035 	strb.w	r3, [r4, #53]	; 0x35
 80013a4:	6813      	ldr	r3, [r2, #0]
 80013a6:	f023 0301 	bic.w	r3, r3, #1
 80013aa:	6013      	str	r3, [r2, #0]
 80013ac:	9b01      	ldr	r3, [sp, #4]
 80013ae:	3301      	adds	r3, #1
 80013b0:	42bb      	cmp	r3, r7
 80013b2:	9301      	str	r3, [sp, #4]
 80013b4:	d802      	bhi.n	80013bc <HAL_DMA_IRQHandler+0x144>
 80013b6:	6813      	ldr	r3, [r2, #0]
 80013b8:	07db      	lsls	r3, r3, #31
 80013ba:	d4f7      	bmi.n	80013ac <HAL_DMA_IRQHandler+0x134>
 80013bc:	2300      	movs	r3, #0
 80013be:	f884 3034 	strb.w	r3, [r4, #52]	; 0x34
 80013c2:	2301      	movs	r3, #1
 80013c4:	f884 3035 	strb.w	r3, [r4, #53]	; 0x35
 80013c8:	6ce3      	ldr	r3, [r4, #76]	; 0x4c
 80013ca:	e7c6      	b.n	800135a <HAL_DMA_IRQHandler+0xe2>
 80013cc:	681a      	ldr	r2, [r3, #0]
 80013ce:	f412 7280 	ands.w	r2, r2, #256	; 0x100
 80013d2:	d108      	bne.n	80013e6 <HAL_DMA_IRQHandler+0x16e>
 80013d4:	6819      	ldr	r1, [r3, #0]
 80013d6:	f021 0110 	bic.w	r1, r1, #16
 80013da:	6019      	str	r1, [r3, #0]
 80013dc:	2301      	movs	r3, #1
 80013de:	f884 2034 	strb.w	r2, [r4, #52]	; 0x34
 80013e2:	f884 3035 	strb.w	r3, [r4, #53]	; 0x35
 80013e6:	6be3      	ldr	r3, [r4, #60]	; 0x3c
 80013e8:	e7cc      	b.n	8001384 <HAL_DMA_IRQHandler+0x10c>
 80013ea:	b003      	add	sp, #12
 80013ec:	bdf0      	pop	{r4, r5, r6, r7, pc}
 80013ee:	bf00      	nop
 80013f0:	20000010 	.word	0x20000010

080013f4 <HAL_GPIO_Init>:
 80013f4:	e92d 4ff7 	stmdb	sp!, {r0, r1, r2, r4, r5, r6, r7, r8, r9, sl, fp, lr}
 80013f8:	f8df 91a8 	ldr.w	r9, [pc, #424]	; 80015a4 <HAL_GPIO_Init+0x1b0>
 80013fc:	4a67      	ldr	r2, [pc, #412]	; (800159c <HAL_GPIO_Init+0x1a8>)
 80013fe:	2300      	movs	r3, #0
 8001400:	680d      	ldr	r5, [r1, #0]
 8001402:	2401      	movs	r4, #1
 8001404:	409c      	lsls	r4, r3
 8001406:	ea04 0c05 	and.w	ip, r4, r5
 800140a:	43ac      	bics	r4, r5
 800140c:	f040 80b0 	bne.w	8001570 <HAL_GPIO_Init+0x17c>
 8001410:	684d      	ldr	r5, [r1, #4]
 8001412:	f005 0403 	and.w	r4, r5, #3
 8001416:	ea4f 0843 	mov.w	r8, r3, lsl #1
 800141a:	2603      	movs	r6, #3
 800141c:	1e67      	subs	r7, r4, #1
 800141e:	fa06 f608 	lsl.w	r6, r6, r8
 8001422:	2f01      	cmp	r7, #1
 8001424:	ea6f 0606 	mvn.w	r6, r6
 8001428:	d834      	bhi.n	8001494 <HAL_GPIO_Init+0xa0>
 800142a:	6887      	ldr	r7, [r0, #8]
 800142c:	ea07 0e06 	and.w	lr, r7, r6
 8001430:	68cf      	ldr	r7, [r1, #12]
 8001432:	fa07 f708 	lsl.w	r7, r7, r8
 8001436:	ea47 070e 	orr.w	r7, r7, lr
 800143a:	6087      	str	r7, [r0, #8]
 800143c:	6847      	ldr	r7, [r0, #4]
 800143e:	ea27 0e0c 	bic.w	lr, r7, ip
 8001442:	f3c5 1700 	ubfx	r7, r5, #4, #1
 8001446:	409f      	lsls	r7, r3
 8001448:	ea47 070e 	orr.w	r7, r7, lr
 800144c:	6047      	str	r7, [r0, #4]
 800144e:	68c7      	ldr	r7, [r0, #12]
 8001450:	ea07 0e06 	and.w	lr, r7, r6
 8001454:	688f      	ldr	r7, [r1, #8]
 8001456:	fa07 f708 	lsl.w	r7, r7, r8
 800145a:	ea47 070e 	orr.w	r7, r7, lr
 800145e:	2c02      	cmp	r4, #2
 8001460:	60c7      	str	r7, [r0, #12]
 8001462:	d119      	bne.n	8001498 <HAL_GPIO_Init+0xa4>
 8001464:	ea4f 0ad3 	mov.w	sl, r3, lsr #3
 8001468:	eb00 0a8a 	add.w	sl, r0, sl, lsl #2
 800146c:	f003 0b07 	and.w	fp, r3, #7
 8001470:	f8da 7020 	ldr.w	r7, [sl, #32]
 8001474:	ea4f 0b8b 	mov.w	fp, fp, lsl #2
 8001478:	f04f 0e0f 	mov.w	lr, #15
 800147c:	fa0e fe0b 	lsl.w	lr, lr, fp
 8001480:	ea27 0e0e 	bic.w	lr, r7, lr
 8001484:	690f      	ldr	r7, [r1, #16]
 8001486:	fa07 f70b 	lsl.w	r7, r7, fp
 800148a:	ea47 070e 	orr.w	r7, r7, lr
 800148e:	f8ca 7020 	str.w	r7, [sl, #32]
 8001492:	e001      	b.n	8001498 <HAL_GPIO_Init+0xa4>
 8001494:	2c03      	cmp	r4, #3
 8001496:	d1da      	bne.n	800144e <HAL_GPIO_Init+0x5a>
 8001498:	6807      	ldr	r7, [r0, #0]
 800149a:	fa04 f408 	lsl.w	r4, r4, r8
 800149e:	403e      	ands	r6, r7
 80014a0:	4326      	orrs	r6, r4
 80014a2:	00ec      	lsls	r4, r5, #3
 80014a4:	6006      	str	r6, [r0, #0]
 80014a6:	d563      	bpl.n	8001570 <HAL_GPIO_Init+0x17c>
 80014a8:	f04f 0a00 	mov.w	sl, #0
 80014ac:	f8cd a004 	str.w	sl, [sp, #4]
 80014b0:	f8d9 6044 	ldr.w	r6, [r9, #68]	; 0x44
 80014b4:	4c3a      	ldr	r4, [pc, #232]	; (80015a0 <HAL_GPIO_Init+0x1ac>)
 80014b6:	f446 4680 	orr.w	r6, r6, #16384	; 0x4000
 80014ba:	f8c9 6044 	str.w	r6, [r9, #68]	; 0x44
 80014be:	f8d9 6044 	ldr.w	r6, [r9, #68]	; 0x44
 80014c2:	f406 4680 	and.w	r6, r6, #16384	; 0x4000
 80014c6:	9601      	str	r6, [sp, #4]
 80014c8:	9e01      	ldr	r6, [sp, #4]
 80014ca:	f023 0603 	bic.w	r6, r3, #3
 80014ce:	f106 4680 	add.w	r6, r6, #1073741824	; 0x40000000
 80014d2:	f506 369c 	add.w	r6, r6, #79872	; 0x13800
 80014d6:	f003 0e03 	and.w	lr, r3, #3
 80014da:	f8d6 8008 	ldr.w	r8, [r6, #8]
 80014de:	ea4f 0e8e 	mov.w	lr, lr, lsl #2
 80014e2:	270f      	movs	r7, #15
 80014e4:	fa07 f70e 	lsl.w	r7, r7, lr
 80014e8:	42a0      	cmp	r0, r4
 80014ea:	ea28 0707 	bic.w	r7, r8, r7
 80014ee:	d046      	beq.n	800157e <HAL_GPIO_Init+0x18a>
 80014f0:	f504 6480 	add.w	r4, r4, #1024	; 0x400
 80014f4:	42a0      	cmp	r0, r4
 80014f6:	d044      	beq.n	8001582 <HAL_GPIO_Init+0x18e>
 80014f8:	f504 6480 	add.w	r4, r4, #1024	; 0x400
 80014fc:	42a0      	cmp	r0, r4
 80014fe:	d042      	beq.n	8001586 <HAL_GPIO_Init+0x192>
 8001500:	f504 6480 	add.w	r4, r4, #1024	; 0x400
 8001504:	42a0      	cmp	r0, r4
 8001506:	d040      	beq.n	800158a <HAL_GPIO_Init+0x196>
 8001508:	f504 6480 	add.w	r4, r4, #1024	; 0x400
 800150c:	42a0      	cmp	r0, r4
 800150e:	d03e      	beq.n	800158e <HAL_GPIO_Init+0x19a>
 8001510:	f504 6480 	add.w	r4, r4, #1024	; 0x400
 8001514:	42a0      	cmp	r0, r4
 8001516:	d03c      	beq.n	8001592 <HAL_GPIO_Init+0x19e>
 8001518:	f504 6480 	add.w	r4, r4, #1024	; 0x400
 800151c:	42a0      	cmp	r0, r4
 800151e:	d03a      	beq.n	8001596 <HAL_GPIO_Init+0x1a2>
 8001520:	f504 6480 	add.w	r4, r4, #1024	; 0x400
 8001524:	42a0      	cmp	r0, r4
 8001526:	bf0c      	ite	eq
 8001528:	2407      	moveq	r4, #7
 800152a:	2408      	movne	r4, #8
 800152c:	fa04 f40e 	lsl.w	r4, r4, lr
 8001530:	433c      	orrs	r4, r7
 8001532:	60b4      	str	r4, [r6, #8]
 8001534:	6814      	ldr	r4, [r2, #0]
 8001536:	ea6f 060c 	mvn.w	r6, ip
 800153a:	03ef      	lsls	r7, r5, #15
 800153c:	bf54      	ite	pl
 800153e:	4034      	andpl	r4, r6
 8001540:	ea4c 0404 	orrmi.w	r4, ip, r4
 8001544:	6014      	str	r4, [r2, #0]
 8001546:	6854      	ldr	r4, [r2, #4]
 8001548:	03af      	lsls	r7, r5, #14
 800154a:	bf54      	ite	pl
 800154c:	4034      	andpl	r4, r6
 800154e:	ea4c 0404 	orrmi.w	r4, ip, r4
 8001552:	6054      	str	r4, [r2, #4]
 8001554:	6894      	ldr	r4, [r2, #8]
 8001556:	02ef      	lsls	r7, r5, #11
 8001558:	bf54      	ite	pl
 800155a:	4034      	andpl	r4, r6
 800155c:	ea4c 0404 	orrmi.w	r4, ip, r4
 8001560:	6094      	str	r4, [r2, #8]
 8001562:	68d4      	ldr	r4, [r2, #12]
 8001564:	02ad      	lsls	r5, r5, #10
 8001566:	bf54      	ite	pl
 8001568:	4034      	andpl	r4, r6
 800156a:	ea4c 0404 	orrmi.w	r4, ip, r4
 800156e:	60d4      	str	r4, [r2, #12]
 8001570:	3301      	adds	r3, #1
 8001572:	2b10      	cmp	r3, #16
 8001574:	f47f af44 	bne.w	8001400 <HAL_GPIO_Init+0xc>
 8001578:	b003      	add	sp, #12
 800157a:	e8bd 8ff0 	ldmia.w	sp!, {r4, r5, r6, r7, r8, r9, sl, fp, pc}
 800157e:	4654      	mov	r4, sl
 8001580:	e7d4      	b.n	800152c <HAL_GPIO_Init+0x138>
 8001582:	2401      	movs	r4, #1
 8001584:	e7d2      	b.n	800152c <HAL_GPIO_Init+0x138>
 8001586:	2402      	movs	r4, #2
 8001588:	e7d0      	b.n	800152c <HAL_GPIO_Init+0x138>
 800158a:	2403      	movs	r4, #3
 800158c:	e7ce      	b.n	800152c <HAL_GPIO_Init+0x138>
 800158e:	2404      	movs	r4, #4
 8001590:	e7cc      	b.n	800152c <HAL_GPIO_Init+0x138>
 8001592:	2405      	movs	r4, #5
 8001594:	e7ca      	b.n	800152c <HAL_GPIO_Init+0x138>
 8001596:	2406      	movs	r4, #6
 8001598:	e7c8      	b.n	800152c <HAL_GPIO_Init+0x138>
 800159a:	bf00      	nop
 800159c:	40013c00 	.word	0x40013c00
 80015a0:	40020000 	.word	0x40020000
 80015a4:	40023800 	.word	0x40023800

080015a8 <HAL_GPIO_WritePin>:
 80015a8:	b10a      	cbz	r2, 80015ae <HAL_GPIO_WritePin+0x6>
 80015aa:	6181      	str	r1, [r0, #24]
 80015ac:	4770      	bx	lr
 80015ae:	0409      	lsls	r1, r1, #16
 80015b0:	e7fb      	b.n	80015aa <HAL_GPIO_WritePin+0x2>
	...

080015b4 <HAL_RCC_OscConfig>:
 80015b4:	e92d 41f3 	stmdb	sp!, {r0, r1, r4, r5, r6, r7, r8, lr}
 80015b8:	4604      	mov	r4, r0
 80015ba:	b340      	cbz	r0, 800160e <HAL_RCC_OscConfig+0x5a>
 80015bc:	6803      	ldr	r3, [r0, #0]
 80015be:	07dd      	lsls	r5, r3, #31
 80015c0:	d410      	bmi.n	80015e4 <HAL_RCC_OscConfig+0x30>
 80015c2:	6823      	ldr	r3, [r4, #0]
 80015c4:	0798      	lsls	r0, r3, #30
 80015c6:	d45e      	bmi.n	8001686 <HAL_RCC_OscConfig+0xd2>
 80015c8:	6823      	ldr	r3, [r4, #0]
 80015ca:	071a      	lsls	r2, r3, #28
 80015cc:	f100 80a0 	bmi.w	8001710 <HAL_RCC_OscConfig+0x15c>
 80015d0:	6823      	ldr	r3, [r4, #0]
 80015d2:	075b      	lsls	r3, r3, #29
 80015d4:	f100 80be 	bmi.w	8001754 <HAL_RCC_OscConfig+0x1a0>
 80015d8:	69a0      	ldr	r0, [r4, #24]
 80015da:	2800      	cmp	r0, #0
 80015dc:	f040 811f 	bne.w	800181e <HAL_RCC_OscConfig+0x26a>
 80015e0:	2000      	movs	r0, #0
 80015e2:	e02b      	b.n	800163c <HAL_RCC_OscConfig+0x88>
 80015e4:	4ba6      	ldr	r3, [pc, #664]	; (8001880 <HAL_RCC_OscConfig+0x2cc>)
 80015e6:	689a      	ldr	r2, [r3, #8]
 80015e8:	f002 020c 	and.w	r2, r2, #12
 80015ec:	2a04      	cmp	r2, #4
 80015ee:	d007      	beq.n	8001600 <HAL_RCC_OscConfig+0x4c>
 80015f0:	689a      	ldr	r2, [r3, #8]
 80015f2:	f002 020c 	and.w	r2, r2, #12
 80015f6:	2a08      	cmp	r2, #8
 80015f8:	d10b      	bne.n	8001612 <HAL_RCC_OscConfig+0x5e>
 80015fa:	685a      	ldr	r2, [r3, #4]
 80015fc:	0251      	lsls	r1, r2, #9
 80015fe:	d508      	bpl.n	8001612 <HAL_RCC_OscConfig+0x5e>
 8001600:	4b9f      	ldr	r3, [pc, #636]	; (8001880 <HAL_RCC_OscConfig+0x2cc>)
 8001602:	681b      	ldr	r3, [r3, #0]
 8001604:	039a      	lsls	r2, r3, #14
 8001606:	d5dc      	bpl.n	80015c2 <HAL_RCC_OscConfig+0xe>
 8001608:	6863      	ldr	r3, [r4, #4]
 800160a:	2b00      	cmp	r3, #0
 800160c:	d1d9      	bne.n	80015c2 <HAL_RCC_OscConfig+0xe>
 800160e:	2001      	movs	r0, #1
 8001610:	e014      	b.n	800163c <HAL_RCC_OscConfig+0x88>
 8001612:	6862      	ldr	r2, [r4, #4]
 8001614:	f5b2 3f80 	cmp.w	r2, #65536	; 0x10000
 8001618:	d113      	bne.n	8001642 <HAL_RCC_OscConfig+0x8e>
 800161a:	681a      	ldr	r2, [r3, #0]
 800161c:	f442 3280 	orr.w	r2, r2, #65536	; 0x10000
 8001620:	601a      	str	r2, [r3, #0]
 8001622:	f7ff fc95 	bl	8000f50 <HAL_GetTick>
 8001626:	4e96      	ldr	r6, [pc, #600]	; (8001880 <HAL_RCC_OscConfig+0x2cc>)
 8001628:	4605      	mov	r5, r0
 800162a:	6833      	ldr	r3, [r6, #0]
 800162c:	039b      	lsls	r3, r3, #14
 800162e:	d4c8      	bmi.n	80015c2 <HAL_RCC_OscConfig+0xe>
 8001630:	f7ff fc8e 	bl	8000f50 <HAL_GetTick>
 8001634:	1b40      	subs	r0, r0, r5
 8001636:	2864      	cmp	r0, #100	; 0x64
 8001638:	d9f7      	bls.n	800162a <HAL_RCC_OscConfig+0x76>
 800163a:	2003      	movs	r0, #3
 800163c:	b002      	add	sp, #8
 800163e:	e8bd 81f0 	ldmia.w	sp!, {r4, r5, r6, r7, r8, pc}
 8001642:	4d8f      	ldr	r5, [pc, #572]	; (8001880 <HAL_RCC_OscConfig+0x2cc>)
 8001644:	f5b2 2fa0 	cmp.w	r2, #327680	; 0x50000
 8001648:	682b      	ldr	r3, [r5, #0]
 800164a:	d107      	bne.n	800165c <HAL_RCC_OscConfig+0xa8>
 800164c:	f443 2380 	orr.w	r3, r3, #262144	; 0x40000
 8001650:	602b      	str	r3, [r5, #0]
 8001652:	682b      	ldr	r3, [r5, #0]
 8001654:	f443 3380 	orr.w	r3, r3, #65536	; 0x10000
 8001658:	602b      	str	r3, [r5, #0]
 800165a:	e7e2      	b.n	8001622 <HAL_RCC_OscConfig+0x6e>
 800165c:	f423 3380 	bic.w	r3, r3, #65536	; 0x10000
 8001660:	602b      	str	r3, [r5, #0]
 8001662:	682b      	ldr	r3, [r5, #0]
 8001664:	f423 2380 	bic.w	r3, r3, #262144	; 0x40000
 8001668:	602b      	str	r3, [r5, #0]
 800166a:	2a00      	cmp	r2, #0
 800166c:	d1d9      	bne.n	8001622 <HAL_RCC_OscConfig+0x6e>
 800166e:	f7ff fc6f 	bl	8000f50 <HAL_GetTick>
 8001672:	4606      	mov	r6, r0
 8001674:	682b      	ldr	r3, [r5, #0]
 8001676:	039f      	lsls	r7, r3, #14
 8001678:	d5a3      	bpl.n	80015c2 <HAL_RCC_OscConfig+0xe>
 800167a:	f7ff fc69 	bl	8000f50 <HAL_GetTick>
 800167e:	1b80      	subs	r0, r0, r6
 8001680:	2864      	cmp	r0, #100	; 0x64
 8001682:	d9f7      	bls.n	8001674 <HAL_RCC_OscConfig+0xc0>
 8001684:	e7d9      	b.n	800163a <HAL_RCC_OscConfig+0x86>
 8001686:	4b7e      	ldr	r3, [pc, #504]	; (8001880 <HAL_RCC_OscConfig+0x2cc>)
 8001688:	689a      	ldr	r2, [r3, #8]
 800168a:	f012 0f0c 	tst.w	r2, #12
 800168e:	d007      	beq.n	80016a0 <HAL_RCC_OscConfig+0xec>
 8001690:	689a      	ldr	r2, [r3, #8]
 8001692:	f002 020c 	and.w	r2, r2, #12
 8001696:	2a08      	cmp	r2, #8
 8001698:	d111      	bne.n	80016be <HAL_RCC_OscConfig+0x10a>
 800169a:	685b      	ldr	r3, [r3, #4]
 800169c:	025e      	lsls	r6, r3, #9
 800169e:	d40e      	bmi.n	80016be <HAL_RCC_OscConfig+0x10a>
 80016a0:	4b77      	ldr	r3, [pc, #476]	; (8001880 <HAL_RCC_OscConfig+0x2cc>)
 80016a2:	681a      	ldr	r2, [r3, #0]
 80016a4:	0795      	lsls	r5, r2, #30
 80016a6:	d502      	bpl.n	80016ae <HAL_RCC_OscConfig+0xfa>
 80016a8:	68e2      	ldr	r2, [r4, #12]
 80016aa:	2a01      	cmp	r2, #1
 80016ac:	d1af      	bne.n	800160e <HAL_RCC_OscConfig+0x5a>
 80016ae:	681a      	ldr	r2, [r3, #0]
 80016b0:	6921      	ldr	r1, [r4, #16]
 80016b2:	f022 02f8 	bic.w	r2, r2, #248	; 0xf8
 80016b6:	ea42 02c1 	orr.w	r2, r2, r1, lsl #3
 80016ba:	601a      	str	r2, [r3, #0]
 80016bc:	e784      	b.n	80015c8 <HAL_RCC_OscConfig+0x14>
 80016be:	68e2      	ldr	r2, [r4, #12]
 80016c0:	4b70      	ldr	r3, [pc, #448]	; (8001884 <HAL_RCC_OscConfig+0x2d0>)
 80016c2:	b1b2      	cbz	r2, 80016f2 <HAL_RCC_OscConfig+0x13e>
 80016c4:	2201      	movs	r2, #1
 80016c6:	601a      	str	r2, [r3, #0]
 80016c8:	f7ff fc42 	bl	8000f50 <HAL_GetTick>
 80016cc:	4d6c      	ldr	r5, [pc, #432]	; (8001880 <HAL_RCC_OscConfig+0x2cc>)
 80016ce:	4606      	mov	r6, r0
 80016d0:	682b      	ldr	r3, [r5, #0]
 80016d2:	0798      	lsls	r0, r3, #30
 80016d4:	d507      	bpl.n	80016e6 <HAL_RCC_OscConfig+0x132>
 80016d6:	682b      	ldr	r3, [r5, #0]
 80016d8:	6922      	ldr	r2, [r4, #16]
 80016da:	f023 03f8 	bic.w	r3, r3, #248	; 0xf8
 80016de:	ea43 03c2 	orr.w	r3, r3, r2, lsl #3
 80016e2:	602b      	str	r3, [r5, #0]
 80016e4:	e770      	b.n	80015c8 <HAL_RCC_OscConfig+0x14>
 80016e6:	f7ff fc33 	bl	8000f50 <HAL_GetTick>
 80016ea:	1b80      	subs	r0, r0, r6
 80016ec:	2802      	cmp	r0, #2
 80016ee:	d9ef      	bls.n	80016d0 <HAL_RCC_OscConfig+0x11c>
 80016f0:	e7a3      	b.n	800163a <HAL_RCC_OscConfig+0x86>
 80016f2:	601a      	str	r2, [r3, #0]
 80016f4:	f7ff fc2c 	bl	8000f50 <HAL_GetTick>
 80016f8:	4e61      	ldr	r6, [pc, #388]	; (8001880 <HAL_RCC_OscConfig+0x2cc>)
 80016fa:	4605      	mov	r5, r0
 80016fc:	6833      	ldr	r3, [r6, #0]
 80016fe:	0799      	lsls	r1, r3, #30
 8001700:	f57f af62 	bpl.w	80015c8 <HAL_RCC_OscConfig+0x14>
 8001704:	f7ff fc24 	bl	8000f50 <HAL_GetTick>
 8001708:	1b40      	subs	r0, r0, r5
 800170a:	2802      	cmp	r0, #2
 800170c:	d9f6      	bls.n	80016fc <HAL_RCC_OscConfig+0x148>
 800170e:	e794      	b.n	800163a <HAL_RCC_OscConfig+0x86>
 8001710:	6962      	ldr	r2, [r4, #20]
 8001712:	4b5d      	ldr	r3, [pc, #372]	; (8001888 <HAL_RCC_OscConfig+0x2d4>)
 8001714:	b17a      	cbz	r2, 8001736 <HAL_RCC_OscConfig+0x182>
 8001716:	2201      	movs	r2, #1
 8001718:	601a      	str	r2, [r3, #0]
 800171a:	f7ff fc19 	bl	8000f50 <HAL_GetTick>
 800171e:	4e58      	ldr	r6, [pc, #352]	; (8001880 <HAL_RCC_OscConfig+0x2cc>)
 8001720:	4605      	mov	r5, r0
 8001722:	6f73      	ldr	r3, [r6, #116]	; 0x74
 8001724:	079f      	lsls	r7, r3, #30
 8001726:	f53f af53 	bmi.w	80015d0 <HAL_RCC_OscConfig+0x1c>
 800172a:	f7ff fc11 	bl	8000f50 <HAL_GetTick>
 800172e:	1b40      	subs	r0, r0, r5
 8001730:	2802      	cmp	r0, #2
 8001732:	d9f6      	bls.n	8001722 <HAL_RCC_OscConfig+0x16e>
 8001734:	e781      	b.n	800163a <HAL_RCC_OscConfig+0x86>
 8001736:	601a      	str	r2, [r3, #0]
 8001738:	f7ff fc0a 	bl	8000f50 <HAL_GetTick>
 800173c:	4e50      	ldr	r6, [pc, #320]	; (8001880 <HAL_RCC_OscConfig+0x2cc>)
 800173e:	4605      	mov	r5, r0
 8001740:	6f73      	ldr	r3, [r6, #116]	; 0x74
 8001742:	0798      	lsls	r0, r3, #30
 8001744:	f57f af44 	bpl.w	80015d0 <HAL_RCC_OscConfig+0x1c>
 8001748:	f7ff fc02 	bl	8000f50 <HAL_GetTick>
 800174c:	1b40      	subs	r0, r0, r5
 800174e:	2802      	cmp	r0, #2
 8001750:	d9f6      	bls.n	8001740 <HAL_RCC_OscConfig+0x18c>
 8001752:	e772      	b.n	800163a <HAL_RCC_OscConfig+0x86>
 8001754:	4b4a      	ldr	r3, [pc, #296]	; (8001880 <HAL_RCC_OscConfig+0x2cc>)
 8001756:	6c1a      	ldr	r2, [r3, #64]	; 0x40
 8001758:	f012 5280 	ands.w	r2, r2, #268435456	; 0x10000000
 800175c:	d128      	bne.n	80017b0 <HAL_RCC_OscConfig+0x1fc>
 800175e:	9201      	str	r2, [sp, #4]
 8001760:	6c1a      	ldr	r2, [r3, #64]	; 0x40
 8001762:	f042 5280 	orr.w	r2, r2, #268435456	; 0x10000000
 8001766:	641a      	str	r2, [r3, #64]	; 0x40
 8001768:	6c1b      	ldr	r3, [r3, #64]	; 0x40
 800176a:	f003 5380 	and.w	r3, r3, #268435456	; 0x10000000
 800176e:	9301      	str	r3, [sp, #4]
 8001770:	9b01      	ldr	r3, [sp, #4]
 8001772:	2701      	movs	r7, #1
 8001774:	4d45      	ldr	r5, [pc, #276]	; (800188c <HAL_RCC_OscConfig+0x2d8>)
 8001776:	682b      	ldr	r3, [r5, #0]
 8001778:	05d9      	lsls	r1, r3, #23
 800177a:	d51b      	bpl.n	80017b4 <HAL_RCC_OscConfig+0x200>
 800177c:	68a3      	ldr	r3, [r4, #8]
 800177e:	4d40      	ldr	r5, [pc, #256]	; (8001880 <HAL_RCC_OscConfig+0x2cc>)
 8001780:	2b01      	cmp	r3, #1
 8001782:	d127      	bne.n	80017d4 <HAL_RCC_OscConfig+0x220>
 8001784:	6f2b      	ldr	r3, [r5, #112]	; 0x70
 8001786:	f043 0301 	orr.w	r3, r3, #1
 800178a:	672b      	str	r3, [r5, #112]	; 0x70
 800178c:	f7ff fbe0 	bl	8000f50 <HAL_GetTick>
 8001790:	4e3b      	ldr	r6, [pc, #236]	; (8001880 <HAL_RCC_OscConfig+0x2cc>)
 8001792:	4605      	mov	r5, r0
 8001794:	f241 3888 	movw	r8, #5000	; 0x1388
 8001798:	6f33      	ldr	r3, [r6, #112]	; 0x70
 800179a:	079b      	lsls	r3, r3, #30
 800179c:	d539      	bpl.n	8001812 <HAL_RCC_OscConfig+0x25e>
 800179e:	2f00      	cmp	r7, #0
 80017a0:	f43f af1a 	beq.w	80015d8 <HAL_RCC_OscConfig+0x24>
 80017a4:	4a36      	ldr	r2, [pc, #216]	; (8001880 <HAL_RCC_OscConfig+0x2cc>)
 80017a6:	6c13      	ldr	r3, [r2, #64]	; 0x40
 80017a8:	f023 5380 	bic.w	r3, r3, #268435456	; 0x10000000
 80017ac:	6413      	str	r3, [r2, #64]	; 0x40
 80017ae:	e713      	b.n	80015d8 <HAL_RCC_OscConfig+0x24>
 80017b0:	2700      	movs	r7, #0
 80017b2:	e7df      	b.n	8001774 <HAL_RCC_OscConfig+0x1c0>
 80017b4:	682b      	ldr	r3, [r5, #0]
 80017b6:	f443 7380 	orr.w	r3, r3, #256	; 0x100
 80017ba:	602b      	str	r3, [r5, #0]
 80017bc:	f7ff fbc8 	bl	8000f50 <HAL_GetTick>
 80017c0:	4606      	mov	r6, r0
 80017c2:	682b      	ldr	r3, [r5, #0]
 80017c4:	05da      	lsls	r2, r3, #23
 80017c6:	d4d9      	bmi.n	800177c <HAL_RCC_OscConfig+0x1c8>
 80017c8:	f7ff fbc2 	bl	8000f50 <HAL_GetTick>
 80017cc:	1b80      	subs	r0, r0, r6
 80017ce:	2802      	cmp	r0, #2
 80017d0:	d9f7      	bls.n	80017c2 <HAL_RCC_OscConfig+0x20e>
 80017d2:	e732      	b.n	800163a <HAL_RCC_OscConfig+0x86>
 80017d4:	2b05      	cmp	r3, #5
 80017d6:	d104      	bne.n	80017e2 <HAL_RCC_OscConfig+0x22e>
 80017d8:	6f2b      	ldr	r3, [r5, #112]	; 0x70
 80017da:	f043 0304 	orr.w	r3, r3, #4
 80017de:	672b      	str	r3, [r5, #112]	; 0x70
 80017e0:	e7d0      	b.n	8001784 <HAL_RCC_OscConfig+0x1d0>
 80017e2:	6f2a      	ldr	r2, [r5, #112]	; 0x70
 80017e4:	f022 0201 	bic.w	r2, r2, #1
 80017e8:	672a      	str	r2, [r5, #112]	; 0x70
 80017ea:	6f2a      	ldr	r2, [r5, #112]	; 0x70
 80017ec:	f022 0204 	bic.w	r2, r2, #4
 80017f0:	672a      	str	r2, [r5, #112]	; 0x70
 80017f2:	2b00      	cmp	r3, #0
 80017f4:	d1ca      	bne.n	800178c <HAL_RCC_OscConfig+0x1d8>
 80017f6:	f7ff fbab 	bl	8000f50 <HAL_GetTick>
 80017fa:	f241 3888 	movw	r8, #5000	; 0x1388
 80017fe:	4606      	mov	r6, r0
 8001800:	6f2b      	ldr	r3, [r5, #112]	; 0x70
 8001802:	0798      	lsls	r0, r3, #30
 8001804:	d5cb      	bpl.n	800179e <HAL_RCC_OscConfig+0x1ea>
 8001806:	f7ff fba3 	bl	8000f50 <HAL_GetTick>
 800180a:	1b80      	subs	r0, r0, r6
 800180c:	4540      	cmp	r0, r8
 800180e:	d9f7      	bls.n	8001800 <HAL_RCC_OscConfig+0x24c>
 8001810:	e713      	b.n	800163a <HAL_RCC_OscConfig+0x86>
 8001812:	f7ff fb9d 	bl	8000f50 <HAL_GetTick>
 8001816:	1b40      	subs	r0, r0, r5
 8001818:	4540      	cmp	r0, r8
 800181a:	d9bd      	bls.n	8001798 <HAL_RCC_OscConfig+0x1e4>
 800181c:	e70d      	b.n	800163a <HAL_RCC_OscConfig+0x86>
 800181e:	4d18      	ldr	r5, [pc, #96]	; (8001880 <HAL_RCC_OscConfig+0x2cc>)
 8001820:	68ab      	ldr	r3, [r5, #8]
 8001822:	f003 030c 	and.w	r3, r3, #12
 8001826:	2b08      	cmp	r3, #8
 8001828:	d047      	beq.n	80018ba <HAL_RCC_OscConfig+0x306>
 800182a:	4e19      	ldr	r6, [pc, #100]	; (8001890 <HAL_RCC_OscConfig+0x2dc>)
 800182c:	2300      	movs	r3, #0
 800182e:	2802      	cmp	r0, #2
 8001830:	6033      	str	r3, [r6, #0]
 8001832:	d135      	bne.n	80018a0 <HAL_RCC_OscConfig+0x2ec>
 8001834:	f7ff fb8c 	bl	8000f50 <HAL_GetTick>
 8001838:	4607      	mov	r7, r0
 800183a:	682b      	ldr	r3, [r5, #0]
 800183c:	0199      	lsls	r1, r3, #6
 800183e:	d429      	bmi.n	8001894 <HAL_RCC_OscConfig+0x2e0>
 8001840:	e9d4 3207 	ldrd	r3, r2, [r4, #28]
 8001844:	4313      	orrs	r3, r2
 8001846:	6a62      	ldr	r2, [r4, #36]	; 0x24
 8001848:	ea43 1382 	orr.w	r3, r3, r2, lsl #6
 800184c:	6ae2      	ldr	r2, [r4, #44]	; 0x2c
 800184e:	ea43 6302 	orr.w	r3, r3, r2, lsl #24
 8001852:	6aa2      	ldr	r2, [r4, #40]	; 0x28
 8001854:	0852      	lsrs	r2, r2, #1
 8001856:	3a01      	subs	r2, #1
 8001858:	ea43 4302 	orr.w	r3, r3, r2, lsl #16
 800185c:	606b      	str	r3, [r5, #4]
 800185e:	2301      	movs	r3, #1
 8001860:	6033      	str	r3, [r6, #0]
 8001862:	f7ff fb75 	bl	8000f50 <HAL_GetTick>
 8001866:	4d06      	ldr	r5, [pc, #24]	; (8001880 <HAL_RCC_OscConfig+0x2cc>)
 8001868:	4604      	mov	r4, r0
 800186a:	682b      	ldr	r3, [r5, #0]
 800186c:	019a      	lsls	r2, r3, #6
 800186e:	f53f aeb7 	bmi.w	80015e0 <HAL_RCC_OscConfig+0x2c>
 8001872:	f7ff fb6d 	bl	8000f50 <HAL_GetTick>
 8001876:	1b00      	subs	r0, r0, r4
 8001878:	2802      	cmp	r0, #2
 800187a:	d9f6      	bls.n	800186a <HAL_RCC_OscConfig+0x2b6>
 800187c:	e6dd      	b.n	800163a <HAL_RCC_OscConfig+0x86>
 800187e:	bf00      	nop
 8001880:	40023800 	.word	0x40023800
 8001884:	42470000 	.word	0x42470000
 8001888:	42470e80 	.word	0x42470e80
 800188c:	40007000 	.word	0x40007000
 8001890:	42470060 	.word	0x42470060
 8001894:	f7ff fb5c 	bl	8000f50 <HAL_GetTick>
 8001898:	1bc0      	subs	r0, r0, r7
 800189a:	2802      	cmp	r0, #2
 800189c:	d9cd      	bls.n	800183a <HAL_RCC_OscConfig+0x286>
 800189e:	e6cc      	b.n	800163a <HAL_RCC_OscConfig+0x86>
 80018a0:	f7ff fb56 	bl	8000f50 <HAL_GetTick>
 80018a4:	4604      	mov	r4, r0
 80018a6:	682b      	ldr	r3, [r5, #0]
 80018a8:	019b      	lsls	r3, r3, #6
 80018aa:	f57f ae99 	bpl.w	80015e0 <HAL_RCC_OscConfig+0x2c>
 80018ae:	f7ff fb4f 	bl	8000f50 <HAL_GetTick>
 80018b2:	1b00      	subs	r0, r0, r4
 80018b4:	2802      	cmp	r0, #2
 80018b6:	d9f6      	bls.n	80018a6 <HAL_RCC_OscConfig+0x2f2>
 80018b8:	e6bf      	b.n	800163a <HAL_RCC_OscConfig+0x86>
 80018ba:	2801      	cmp	r0, #1
 80018bc:	f43f aebe 	beq.w	800163c <HAL_RCC_OscConfig+0x88>
 80018c0:	686b      	ldr	r3, [r5, #4]
 80018c2:	69e2      	ldr	r2, [r4, #28]
 80018c4:	f403 0180 	and.w	r1, r3, #4194304	; 0x400000
 80018c8:	4291      	cmp	r1, r2
 80018ca:	f47f aea0 	bne.w	800160e <HAL_RCC_OscConfig+0x5a>
 80018ce:	6a21      	ldr	r1, [r4, #32]
 80018d0:	f003 023f 	and.w	r2, r3, #63	; 0x3f
 80018d4:	428a      	cmp	r2, r1
 80018d6:	f47f ae9a 	bne.w	800160e <HAL_RCC_OscConfig+0x5a>
 80018da:	6a61      	ldr	r1, [r4, #36]	; 0x24
 80018dc:	f647 72c0 	movw	r2, #32704	; 0x7fc0
 80018e0:	401a      	ands	r2, r3
 80018e2:	ebb2 1f81 	cmp.w	r2, r1, lsl #6
 80018e6:	f47f ae92 	bne.w	800160e <HAL_RCC_OscConfig+0x5a>
 80018ea:	6aa2      	ldr	r2, [r4, #40]	; 0x28
 80018ec:	0852      	lsrs	r2, r2, #1
 80018ee:	f403 3140 	and.w	r1, r3, #196608	; 0x30000
 80018f2:	3a01      	subs	r2, #1
 80018f4:	ebb1 4f02 	cmp.w	r1, r2, lsl #16
 80018f8:	f47f ae89 	bne.w	800160e <HAL_RCC_OscConfig+0x5a>
 80018fc:	6ae2      	ldr	r2, [r4, #44]	; 0x2c
 80018fe:	f003 6370 	and.w	r3, r3, #251658240	; 0xf000000
 8001902:	ebb3 6f02 	cmp.w	r3, r2, lsl #24
 8001906:	f43f ae6b 	beq.w	80015e0 <HAL_RCC_OscConfig+0x2c>
 800190a:	e680      	b.n	800160e <HAL_RCC_OscConfig+0x5a>

0800190c <HAL_RCC_GetSysClockFreq>:
 800190c:	4913      	ldr	r1, [pc, #76]	; (800195c <HAL_RCC_GetSysClockFreq+0x50>)
 800190e:	b508      	push	{r3, lr}
 8001910:	688b      	ldr	r3, [r1, #8]
 8001912:	f003 030c 	and.w	r3, r3, #12
 8001916:	2b04      	cmp	r3, #4
 8001918:	d01c      	beq.n	8001954 <HAL_RCC_GetSysClockFreq+0x48>
 800191a:	2b08      	cmp	r3, #8
 800191c:	d11c      	bne.n	8001958 <HAL_RCC_GetSysClockFreq+0x4c>
 800191e:	684a      	ldr	r2, [r1, #4]
 8001920:	684b      	ldr	r3, [r1, #4]
 8001922:	6849      	ldr	r1, [r1, #4]
 8001924:	f413 0380 	ands.w	r3, r3, #4194304	; 0x400000
 8001928:	bf14      	ite	ne
 800192a:	480d      	ldrne	r0, [pc, #52]	; (8001960 <HAL_RCC_GetSysClockFreq+0x54>)
 800192c:	480d      	ldreq	r0, [pc, #52]	; (8001964 <HAL_RCC_GetSysClockFreq+0x58>)
 800192e:	f3c1 1188 	ubfx	r1, r1, #6, #9
 8001932:	bf18      	it	ne
 8001934:	2300      	movne	r3, #0
 8001936:	f002 023f 	and.w	r2, r2, #63	; 0x3f
 800193a:	fba1 0100 	umull	r0, r1, r1, r0
 800193e:	f7fe fc9f 	bl	8000280 <__aeabi_uldivmod>
 8001942:	4b06      	ldr	r3, [pc, #24]	; (800195c <HAL_RCC_GetSysClockFreq+0x50>)
 8001944:	685b      	ldr	r3, [r3, #4]
 8001946:	f3c3 4301 	ubfx	r3, r3, #16, #2
 800194a:	3301      	adds	r3, #1
 800194c:	005b      	lsls	r3, r3, #1
 800194e:	fbb0 f0f3 	udiv	r0, r0, r3
 8001952:	bd08      	pop	{r3, pc}
 8001954:	4802      	ldr	r0, [pc, #8]	; (8001960 <HAL_RCC_GetSysClockFreq+0x54>)
 8001956:	e7fc      	b.n	8001952 <HAL_RCC_GetSysClockFreq+0x46>
 8001958:	4802      	ldr	r0, [pc, #8]	; (8001964 <HAL_RCC_GetSysClockFreq+0x58>)
 800195a:	e7fa      	b.n	8001952 <HAL_RCC_GetSysClockFreq+0x46>
 800195c:	40023800 	.word	0x40023800
 8001960:	007a1200 	.word	0x007a1200
 8001964:	00f42400 	.word	0x00f42400

08001968 <HAL_RCC_ClockConfig>:
 8001968:	e92d 41f0 	stmdb	sp!, {r4, r5, r6, r7, r8, lr}
 800196c:	460d      	mov	r5, r1
 800196e:	4604      	mov	r4, r0
 8001970:	b910      	cbnz	r0, 8001978 <HAL_RCC_ClockConfig+0x10>
 8001972:	2001      	movs	r0, #1
 8001974:	e8bd 81f0 	ldmia.w	sp!, {r4, r5, r6, r7, r8, pc}
 8001978:	4b44      	ldr	r3, [pc, #272]	; (8001a8c <HAL_RCC_ClockConfig+0x124>)
 800197a:	681a      	ldr	r2, [r3, #0]
 800197c:	f002 0207 	and.w	r2, r2, #7
 8001980:	428a      	cmp	r2, r1
 8001982:	d328      	bcc.n	80019d6 <HAL_RCC_ClockConfig+0x6e>
 8001984:	6822      	ldr	r2, [r4, #0]
 8001986:	0797      	lsls	r7, r2, #30
 8001988:	d42d      	bmi.n	80019e6 <HAL_RCC_ClockConfig+0x7e>
 800198a:	07d0      	lsls	r0, r2, #31
 800198c:	d441      	bmi.n	8001a12 <HAL_RCC_ClockConfig+0xaa>
 800198e:	4b3f      	ldr	r3, [pc, #252]	; (8001a8c <HAL_RCC_ClockConfig+0x124>)
 8001990:	681a      	ldr	r2, [r3, #0]
 8001992:	f002 0207 	and.w	r2, r2, #7
 8001996:	42aa      	cmp	r2, r5
 8001998:	d866      	bhi.n	8001a68 <HAL_RCC_ClockConfig+0x100>
 800199a:	6822      	ldr	r2, [r4, #0]
 800199c:	0751      	lsls	r1, r2, #29
 800199e:	d46c      	bmi.n	8001a7a <HAL_RCC_ClockConfig+0x112>
 80019a0:	0713      	lsls	r3, r2, #28
 80019a2:	d507      	bpl.n	80019b4 <HAL_RCC_ClockConfig+0x4c>
 80019a4:	4a3a      	ldr	r2, [pc, #232]	; (8001a90 <HAL_RCC_ClockConfig+0x128>)
 80019a6:	6921      	ldr	r1, [r4, #16]
 80019a8:	6893      	ldr	r3, [r2, #8]
 80019aa:	f423 4360 	bic.w	r3, r3, #57344	; 0xe000
 80019ae:	ea43 03c1 	orr.w	r3, r3, r1, lsl #3
 80019b2:	6093      	str	r3, [r2, #8]
 80019b4:	f7ff ffaa 	bl	800190c <HAL_RCC_GetSysClockFreq>
 80019b8:	4b35      	ldr	r3, [pc, #212]	; (8001a90 <HAL_RCC_ClockConfig+0x128>)
 80019ba:	4a36      	ldr	r2, [pc, #216]	; (8001a94 <HAL_RCC_ClockConfig+0x12c>)
 80019bc:	689b      	ldr	r3, [r3, #8]
 80019be:	f3c3 1303 	ubfx	r3, r3, #4, #4
 80019c2:	5cd3      	ldrb	r3, [r2, r3]
 80019c4:	40d8      	lsrs	r0, r3
 80019c6:	4b34      	ldr	r3, [pc, #208]	; (8001a98 <HAL_RCC_ClockConfig+0x130>)
 80019c8:	6018      	str	r0, [r3, #0]
 80019ca:	4b34      	ldr	r3, [pc, #208]	; (8001a9c <HAL_RCC_ClockConfig+0x134>)
 80019cc:	6818      	ldr	r0, [r3, #0]
 80019ce:	f7ff fa75 	bl	8000ebc <HAL_InitTick>
 80019d2:	2000      	movs	r0, #0
 80019d4:	e7ce      	b.n	8001974 <HAL_RCC_ClockConfig+0xc>
 80019d6:	b2ca      	uxtb	r2, r1
 80019d8:	701a      	strb	r2, [r3, #0]
 80019da:	681b      	ldr	r3, [r3, #0]
 80019dc:	f003 0307 	and.w	r3, r3, #7
 80019e0:	428b      	cmp	r3, r1
 80019e2:	d1c6      	bne.n	8001972 <HAL_RCC_ClockConfig+0xa>
 80019e4:	e7ce      	b.n	8001984 <HAL_RCC_ClockConfig+0x1c>
 80019e6:	4b2a      	ldr	r3, [pc, #168]	; (8001a90 <HAL_RCC_ClockConfig+0x128>)
 80019e8:	f012 0f04 	tst.w	r2, #4
 80019ec:	bf1e      	ittt	ne
 80019ee:	6899      	ldrne	r1, [r3, #8]
 80019f0:	f441 51e0 	orrne.w	r1, r1, #7168	; 0x1c00
 80019f4:	6099      	strne	r1, [r3, #8]
 80019f6:	0716      	lsls	r6, r2, #28
 80019f8:	bf42      	ittt	mi
 80019fa:	6899      	ldrmi	r1, [r3, #8]
 80019fc:	f441 4160 	orrmi.w	r1, r1, #57344	; 0xe000
 8001a00:	6099      	strmi	r1, [r3, #8]
 8001a02:	4923      	ldr	r1, [pc, #140]	; (8001a90 <HAL_RCC_ClockConfig+0x128>)
 8001a04:	68a0      	ldr	r0, [r4, #8]
 8001a06:	688b      	ldr	r3, [r1, #8]
 8001a08:	f023 03f0 	bic.w	r3, r3, #240	; 0xf0
 8001a0c:	4303      	orrs	r3, r0
 8001a0e:	608b      	str	r3, [r1, #8]
 8001a10:	e7bb      	b.n	800198a <HAL_RCC_ClockConfig+0x22>
 8001a12:	6862      	ldr	r2, [r4, #4]
 8001a14:	4b1e      	ldr	r3, [pc, #120]	; (8001a90 <HAL_RCC_ClockConfig+0x128>)
 8001a16:	2a01      	cmp	r2, #1
 8001a18:	d11c      	bne.n	8001a54 <HAL_RCC_ClockConfig+0xec>
 8001a1a:	681b      	ldr	r3, [r3, #0]
 8001a1c:	f413 3f00 	tst.w	r3, #131072	; 0x20000
 8001a20:	d0a7      	beq.n	8001972 <HAL_RCC_ClockConfig+0xa>
 8001a22:	4e1b      	ldr	r6, [pc, #108]	; (8001a90 <HAL_RCC_ClockConfig+0x128>)
 8001a24:	68b3      	ldr	r3, [r6, #8]
 8001a26:	f023 0303 	bic.w	r3, r3, #3
 8001a2a:	4313      	orrs	r3, r2
 8001a2c:	60b3      	str	r3, [r6, #8]
 8001a2e:	f7ff fa8f 	bl	8000f50 <HAL_GetTick>
 8001a32:	f241 3888 	movw	r8, #5000	; 0x1388
 8001a36:	4607      	mov	r7, r0
 8001a38:	68b3      	ldr	r3, [r6, #8]
 8001a3a:	6862      	ldr	r2, [r4, #4]
 8001a3c:	f003 030c 	and.w	r3, r3, #12
 8001a40:	ebb3 0f82 	cmp.w	r3, r2, lsl #2
 8001a44:	d0a3      	beq.n	800198e <HAL_RCC_ClockConfig+0x26>
 8001a46:	f7ff fa83 	bl	8000f50 <HAL_GetTick>
 8001a4a:	1bc0      	subs	r0, r0, r7
 8001a4c:	4540      	cmp	r0, r8
 8001a4e:	d9f3      	bls.n	8001a38 <HAL_RCC_ClockConfig+0xd0>
 8001a50:	2003      	movs	r0, #3
 8001a52:	e78f      	b.n	8001974 <HAL_RCC_ClockConfig+0xc>
 8001a54:	1e91      	subs	r1, r2, #2
 8001a56:	2901      	cmp	r1, #1
 8001a58:	681b      	ldr	r3, [r3, #0]
 8001a5a:	d802      	bhi.n	8001a62 <HAL_RCC_ClockConfig+0xfa>
 8001a5c:	f013 7f00 	tst.w	r3, #33554432	; 0x2000000
 8001a60:	e7de      	b.n	8001a20 <HAL_RCC_ClockConfig+0xb8>
 8001a62:	f013 0f02 	tst.w	r3, #2
 8001a66:	e7db      	b.n	8001a20 <HAL_RCC_ClockConfig+0xb8>
 8001a68:	b2ea      	uxtb	r2, r5
 8001a6a:	701a      	strb	r2, [r3, #0]
 8001a6c:	681b      	ldr	r3, [r3, #0]
 8001a6e:	f003 0307 	and.w	r3, r3, #7
 8001a72:	42ab      	cmp	r3, r5
 8001a74:	f47f af7d 	bne.w	8001972 <HAL_RCC_ClockConfig+0xa>
 8001a78:	e78f      	b.n	800199a <HAL_RCC_ClockConfig+0x32>
 8001a7a:	4905      	ldr	r1, [pc, #20]	; (8001a90 <HAL_RCC_ClockConfig+0x128>)
 8001a7c:	68e0      	ldr	r0, [r4, #12]
 8001a7e:	688b      	ldr	r3, [r1, #8]
 8001a80:	f423 53e0 	bic.w	r3, r3, #7168	; 0x1c00
 8001a84:	4303      	orrs	r3, r0
 8001a86:	608b      	str	r3, [r1, #8]
 8001a88:	e78a      	b.n	80019a0 <HAL_RCC_ClockConfig+0x38>
 8001a8a:	bf00      	nop
 8001a8c:	40023c00 	.word	0x40023c00
 8001a90:	40023800 	.word	0x40023800
 8001a94:	080033d8 	.word	0x080033d8
 8001a98:	20000010 	.word	0x20000010
 8001a9c:	20000018 	.word	0x20000018

08001aa0 <HAL_RCC_GetPCLK1Freq>:
 8001aa0:	4b04      	ldr	r3, [pc, #16]	; (8001ab4 <HAL_RCC_GetPCLK1Freq+0x14>)
 8001aa2:	4a05      	ldr	r2, [pc, #20]	; (8001ab8 <HAL_RCC_GetPCLK1Freq+0x18>)
 8001aa4:	689b      	ldr	r3, [r3, #8]
 8001aa6:	f3c3 2382 	ubfx	r3, r3, #10, #3
 8001aaa:	5cd3      	ldrb	r3, [r2, r3]
 8001aac:	4a03      	ldr	r2, [pc, #12]	; (8001abc <HAL_RCC_GetPCLK1Freq+0x1c>)
 8001aae:	6810      	ldr	r0, [r2, #0]
 8001ab0:	40d8      	lsrs	r0, r3
 8001ab2:	4770      	bx	lr
 8001ab4:	40023800 	.word	0x40023800
 8001ab8:	080033e8 	.word	0x080033e8
 8001abc:	20000010 	.word	0x20000010

08001ac0 <HAL_RCC_GetPCLK2Freq>:
 8001ac0:	4b04      	ldr	r3, [pc, #16]	; (8001ad4 <HAL_RCC_GetPCLK2Freq+0x14>)
 8001ac2:	4a05      	ldr	r2, [pc, #20]	; (8001ad8 <HAL_RCC_GetPCLK2Freq+0x18>)
 8001ac4:	689b      	ldr	r3, [r3, #8]
 8001ac6:	f3c3 3342 	ubfx	r3, r3, #13, #3
 8001aca:	5cd3      	ldrb	r3, [r2, r3]
 8001acc:	4a03      	ldr	r2, [pc, #12]	; (8001adc <HAL_RCC_GetPCLK2Freq+0x1c>)
 8001ace:	6810      	ldr	r0, [r2, #0]
 8001ad0:	40d8      	lsrs	r0, r3
 8001ad2:	4770      	bx	lr
 8001ad4:	40023800 	.word	0x40023800
 8001ad8:	080033e8 	.word	0x080033e8
 8001adc:	20000010 	.word	0x20000010

08001ae0 <TIM_OC1_SetConfig>:
 8001ae0:	6a03      	ldr	r3, [r0, #32]
 8001ae2:	f023 0301 	bic.w	r3, r3, #1
 8001ae6:	6203      	str	r3, [r0, #32]
 8001ae8:	6a03      	ldr	r3, [r0, #32]
 8001aea:	b570      	push	{r4, r5, r6, lr}
 8001aec:	6844      	ldr	r4, [r0, #4]
 8001aee:	6982      	ldr	r2, [r0, #24]
 8001af0:	680d      	ldr	r5, [r1, #0]
 8001af2:	f022 0273 	bic.w	r2, r2, #115	; 0x73
 8001af6:	432a      	orrs	r2, r5
 8001af8:	688d      	ldr	r5, [r1, #8]
 8001afa:	f023 0302 	bic.w	r3, r3, #2
 8001afe:	432b      	orrs	r3, r5
 8001b00:	4d0e      	ldr	r5, [pc, #56]	; (8001b3c <TIM_OC1_SetConfig+0x5c>)
 8001b02:	42a8      	cmp	r0, r5
 8001b04:	d002      	beq.n	8001b0c <TIM_OC1_SetConfig+0x2c>
 8001b06:	4e0e      	ldr	r6, [pc, #56]	; (8001b40 <TIM_OC1_SetConfig+0x60>)
 8001b08:	42b0      	cmp	r0, r6
 8001b0a:	d110      	bne.n	8001b2e <TIM_OC1_SetConfig+0x4e>
 8001b0c:	68ce      	ldr	r6, [r1, #12]
 8001b0e:	f023 0308 	bic.w	r3, r3, #8
 8001b12:	4333      	orrs	r3, r6
 8001b14:	42a8      	cmp	r0, r5
 8001b16:	f023 0304 	bic.w	r3, r3, #4
 8001b1a:	d002      	beq.n	8001b22 <TIM_OC1_SetConfig+0x42>
 8001b1c:	4d08      	ldr	r5, [pc, #32]	; (8001b40 <TIM_OC1_SetConfig+0x60>)
 8001b1e:	42a8      	cmp	r0, r5
 8001b20:	d105      	bne.n	8001b2e <TIM_OC1_SetConfig+0x4e>
 8001b22:	e9d1 5605 	ldrd	r5, r6, [r1, #20]
 8001b26:	f424 7440 	bic.w	r4, r4, #768	; 0x300
 8001b2a:	4335      	orrs	r5, r6
 8001b2c:	432c      	orrs	r4, r5
 8001b2e:	6044      	str	r4, [r0, #4]
 8001b30:	6182      	str	r2, [r0, #24]
 8001b32:	684a      	ldr	r2, [r1, #4]
 8001b34:	6342      	str	r2, [r0, #52]	; 0x34
 8001b36:	6203      	str	r3, [r0, #32]
 8001b38:	bd70      	pop	{r4, r5, r6, pc}
 8001b3a:	bf00      	nop
 8001b3c:	40010000 	.word	0x40010000
 8001b40:	40010400 	.word	0x40010400

08001b44 <TIM_OC3_SetConfig>:
 8001b44:	6a03      	ldr	r3, [r0, #32]
 8001b46:	f423 7380 	bic.w	r3, r3, #256	; 0x100
 8001b4a:	6203      	str	r3, [r0, #32]
 8001b4c:	6a03      	ldr	r3, [r0, #32]
 8001b4e:	b570      	push	{r4, r5, r6, lr}
 8001b50:	6844      	ldr	r4, [r0, #4]
 8001b52:	69c2      	ldr	r2, [r0, #28]
 8001b54:	680d      	ldr	r5, [r1, #0]
 8001b56:	f022 0273 	bic.w	r2, r2, #115	; 0x73
 8001b5a:	432a      	orrs	r2, r5
 8001b5c:	688d      	ldr	r5, [r1, #8]
 8001b5e:	f423 7300 	bic.w	r3, r3, #512	; 0x200
 8001b62:	ea43 2305 	orr.w	r3, r3, r5, lsl #8
 8001b66:	4d11      	ldr	r5, [pc, #68]	; (8001bac <TIM_OC3_SetConfig+0x68>)
 8001b68:	42a8      	cmp	r0, r5
 8001b6a:	d003      	beq.n	8001b74 <TIM_OC3_SetConfig+0x30>
 8001b6c:	f505 6580 	add.w	r5, r5, #1024	; 0x400
 8001b70:	42a8      	cmp	r0, r5
 8001b72:	d114      	bne.n	8001b9e <TIM_OC3_SetConfig+0x5a>
 8001b74:	68cd      	ldr	r5, [r1, #12]
 8001b76:	f423 6300 	bic.w	r3, r3, #2048	; 0x800
 8001b7a:	ea43 2305 	orr.w	r3, r3, r5, lsl #8
 8001b7e:	4d0b      	ldr	r5, [pc, #44]	; (8001bac <TIM_OC3_SetConfig+0x68>)
 8001b80:	42a8      	cmp	r0, r5
 8001b82:	f423 6380 	bic.w	r3, r3, #1024	; 0x400
 8001b86:	d003      	beq.n	8001b90 <TIM_OC3_SetConfig+0x4c>
 8001b88:	f505 6580 	add.w	r5, r5, #1024	; 0x400
 8001b8c:	42a8      	cmp	r0, r5
 8001b8e:	d106      	bne.n	8001b9e <TIM_OC3_SetConfig+0x5a>
 8001b90:	e9d1 5605 	ldrd	r5, r6, [r1, #20]
 8001b94:	f424 5440 	bic.w	r4, r4, #12288	; 0x3000
 8001b98:	4335      	orrs	r5, r6
 8001b9a:	ea44 1405 	orr.w	r4, r4, r5, lsl #4
 8001b9e:	6044      	str	r4, [r0, #4]
 8001ba0:	61c2      	str	r2, [r0, #28]
 8001ba2:	684a      	ldr	r2, [r1, #4]
 8001ba4:	63c2      	str	r2, [r0, #60]	; 0x3c
 8001ba6:	6203      	str	r3, [r0, #32]
 8001ba8:	bd70      	pop	{r4, r5, r6, pc}
 8001baa:	bf00      	nop
 8001bac:	40010000 	.word	0x40010000

08001bb0 <TIM_OC4_SetConfig>:
 8001bb0:	6a03      	ldr	r3, [r0, #32]
 8001bb2:	f423 5380 	bic.w	r3, r3, #4096	; 0x1000
 8001bb6:	6203      	str	r3, [r0, #32]
 8001bb8:	6a03      	ldr	r3, [r0, #32]
 8001bba:	b530      	push	{r4, r5, lr}
 8001bbc:	6844      	ldr	r4, [r0, #4]
 8001bbe:	69c2      	ldr	r2, [r0, #28]
 8001bc0:	680d      	ldr	r5, [r1, #0]
 8001bc2:	f422 42e6 	bic.w	r2, r2, #29440	; 0x7300
 8001bc6:	ea42 2205 	orr.w	r2, r2, r5, lsl #8
 8001bca:	688d      	ldr	r5, [r1, #8]
 8001bcc:	f423 5300 	bic.w	r3, r3, #8192	; 0x2000
 8001bd0:	ea43 3305 	orr.w	r3, r3, r5, lsl #12
 8001bd4:	4d08      	ldr	r5, [pc, #32]	; (8001bf8 <TIM_OC4_SetConfig+0x48>)
 8001bd6:	42a8      	cmp	r0, r5
 8001bd8:	d003      	beq.n	8001be2 <TIM_OC4_SetConfig+0x32>
 8001bda:	f505 6580 	add.w	r5, r5, #1024	; 0x400
 8001bde:	42a8      	cmp	r0, r5
 8001be0:	d104      	bne.n	8001bec <TIM_OC4_SetConfig+0x3c>
 8001be2:	694d      	ldr	r5, [r1, #20]
 8001be4:	f424 4480 	bic.w	r4, r4, #16384	; 0x4000
 8001be8:	ea44 1485 	orr.w	r4, r4, r5, lsl #6
 8001bec:	6044      	str	r4, [r0, #4]
 8001bee:	61c2      	str	r2, [r0, #28]
 8001bf0:	684a      	ldr	r2, [r1, #4]
 8001bf2:	6402      	str	r2, [r0, #64]	; 0x40
 8001bf4:	6203      	str	r3, [r0, #32]
 8001bf6:	bd30      	pop	{r4, r5, pc}
 8001bf8:	40010000 	.word	0x40010000

08001bfc <HAL_TIM_Base_Start>:
 8001bfc:	f890 303d 	ldrb.w	r3, [r0, #61]	; 0x3d
 8001c00:	2b01      	cmp	r3, #1
 8001c02:	d12c      	bne.n	8001c5e <HAL_TIM_Base_Start+0x62>
 8001c04:	2302      	movs	r3, #2
 8001c06:	4a17      	ldr	r2, [pc, #92]	; (8001c64 <HAL_TIM_Base_Start+0x68>)
 8001c08:	f880 303d 	strb.w	r3, [r0, #61]	; 0x3d
 8001c0c:	6803      	ldr	r3, [r0, #0]
 8001c0e:	4293      	cmp	r3, r2
 8001c10:	d01a      	beq.n	8001c48 <HAL_TIM_Base_Start+0x4c>
 8001c12:	f1b3 4f80 	cmp.w	r3, #1073741824	; 0x40000000
 8001c16:	d017      	beq.n	8001c48 <HAL_TIM_Base_Start+0x4c>
 8001c18:	f5a2 427c 	sub.w	r2, r2, #64512	; 0xfc00
 8001c1c:	4293      	cmp	r3, r2
 8001c1e:	d013      	beq.n	8001c48 <HAL_TIM_Base_Start+0x4c>
 8001c20:	f502 6280 	add.w	r2, r2, #1024	; 0x400
 8001c24:	4293      	cmp	r3, r2
 8001c26:	d00f      	beq.n	8001c48 <HAL_TIM_Base_Start+0x4c>
 8001c28:	f502 6280 	add.w	r2, r2, #1024	; 0x400
 8001c2c:	4293      	cmp	r3, r2
 8001c2e:	d00b      	beq.n	8001c48 <HAL_TIM_Base_Start+0x4c>
 8001c30:	f502 4278 	add.w	r2, r2, #63488	; 0xf800
 8001c34:	4293      	cmp	r3, r2
 8001c36:	d007      	beq.n	8001c48 <HAL_TIM_Base_Start+0x4c>
 8001c38:	f502 5270 	add.w	r2, r2, #15360	; 0x3c00
 8001c3c:	4293      	cmp	r3, r2
 8001c3e:	d003      	beq.n	8001c48 <HAL_TIM_Base_Start+0x4c>
 8001c40:	f5a2 3294 	sub.w	r2, r2, #75776	; 0x12800
 8001c44:	4293      	cmp	r3, r2
 8001c46:	d104      	bne.n	8001c52 <HAL_TIM_Base_Start+0x56>
 8001c48:	689a      	ldr	r2, [r3, #8]
 8001c4a:	f002 0207 	and.w	r2, r2, #7
 8001c4e:	2a06      	cmp	r2, #6
 8001c50:	d003      	beq.n	8001c5a <HAL_TIM_Base_Start+0x5e>
 8001c52:	681a      	ldr	r2, [r3, #0]
 8001c54:	f042 0201 	orr.w	r2, r2, #1
 8001c58:	601a      	str	r2, [r3, #0]
 8001c5a:	2000      	movs	r0, #0
 8001c5c:	4770      	bx	lr
 8001c5e:	2001      	movs	r0, #1
 8001c60:	4770      	bx	lr
 8001c62:	bf00      	nop
 8001c64:	40010000 	.word	0x40010000

08001c68 <HAL_TIM_PeriodElapsedCallback>:
 8001c68:	4770      	bx	lr

08001c6a <HAL_TIM_OC_DelayElapsedCallback>:
 8001c6a:	4770      	bx	lr

08001c6c <HAL_TIM_IC_CaptureCallback>:
 8001c6c:	4770      	bx	lr

08001c6e <HAL_TIM_PWM_PulseFinishedCallback>:
 8001c6e:	4770      	bx	lr

08001c70 <HAL_TIM_TriggerCallback>:
 8001c70:	4770      	bx	lr

08001c72 <HAL_TIM_IRQHandler>:
 8001c72:	6803      	ldr	r3, [r0, #0]
 8001c74:	691a      	ldr	r2, [r3, #16]
 8001c76:	0791      	lsls	r1, r2, #30
 8001c78:	b510      	push	{r4, lr}
 8001c7a:	4604      	mov	r4, r0
 8001c7c:	d50e      	bpl.n	8001c9c <HAL_TIM_IRQHandler+0x2a>
 8001c7e:	68da      	ldr	r2, [r3, #12]
 8001c80:	0792      	lsls	r2, r2, #30
 8001c82:	d50b      	bpl.n	8001c9c <HAL_TIM_IRQHandler+0x2a>
 8001c84:	f06f 0202 	mvn.w	r2, #2
 8001c88:	611a      	str	r2, [r3, #16]
 8001c8a:	2201      	movs	r2, #1
 8001c8c:	7702      	strb	r2, [r0, #28]
 8001c8e:	699b      	ldr	r3, [r3, #24]
 8001c90:	079b      	lsls	r3, r3, #30
 8001c92:	d077      	beq.n	8001d84 <HAL_TIM_IRQHandler+0x112>
 8001c94:	f7ff ffea 	bl	8001c6c <HAL_TIM_IC_CaptureCallback>
 8001c98:	2300      	movs	r3, #0
 8001c9a:	7723      	strb	r3, [r4, #28]
 8001c9c:	6823      	ldr	r3, [r4, #0]
 8001c9e:	691a      	ldr	r2, [r3, #16]
 8001ca0:	0750      	lsls	r0, r2, #29
 8001ca2:	d510      	bpl.n	8001cc6 <HAL_TIM_IRQHandler+0x54>
 8001ca4:	68da      	ldr	r2, [r3, #12]
 8001ca6:	0751      	lsls	r1, r2, #29
 8001ca8:	d50d      	bpl.n	8001cc6 <HAL_TIM_IRQHandler+0x54>
 8001caa:	f06f 0204 	mvn.w	r2, #4
 8001cae:	611a      	str	r2, [r3, #16]
 8001cb0:	2202      	movs	r2, #2
 8001cb2:	7722      	strb	r2, [r4, #28]
 8001cb4:	699b      	ldr	r3, [r3, #24]
 8001cb6:	f413 7f40 	tst.w	r3, #768	; 0x300
 8001cba:	4620      	mov	r0, r4
 8001cbc:	d068      	beq.n	8001d90 <HAL_TIM_IRQHandler+0x11e>
 8001cbe:	f7ff ffd5 	bl	8001c6c <HAL_TIM_IC_CaptureCallback>
 8001cc2:	2300      	movs	r3, #0
 8001cc4:	7723      	strb	r3, [r4, #28]
 8001cc6:	6823      	ldr	r3, [r4, #0]
 8001cc8:	691a      	ldr	r2, [r3, #16]
 8001cca:	0712      	lsls	r2, r2, #28
 8001ccc:	d50f      	bpl.n	8001cee <HAL_TIM_IRQHandler+0x7c>
 8001cce:	68da      	ldr	r2, [r3, #12]
 8001cd0:	0710      	lsls	r0, r2, #28
 8001cd2:	d50c      	bpl.n	8001cee <HAL_TIM_IRQHandler+0x7c>
 8001cd4:	f06f 0208 	mvn.w	r2, #8
 8001cd8:	611a      	str	r2, [r3, #16]
 8001cda:	2204      	movs	r2, #4
 8001cdc:	7722      	strb	r2, [r4, #28]
 8001cde:	69db      	ldr	r3, [r3, #28]
 8001ce0:	0799      	lsls	r1, r3, #30
 8001ce2:	4620      	mov	r0, r4
 8001ce4:	d05a      	beq.n	8001d9c <HAL_TIM_IRQHandler+0x12a>
 8001ce6:	f7ff ffc1 	bl	8001c6c <HAL_TIM_IC_CaptureCallback>
 8001cea:	2300      	movs	r3, #0
 8001cec:	7723      	strb	r3, [r4, #28]
 8001cee:	6823      	ldr	r3, [r4, #0]
 8001cf0:	691a      	ldr	r2, [r3, #16]
 8001cf2:	06d2      	lsls	r2, r2, #27
 8001cf4:	d510      	bpl.n	8001d18 <HAL_TIM_IRQHandler+0xa6>
 8001cf6:	68da      	ldr	r2, [r3, #12]
 8001cf8:	06d0      	lsls	r0, r2, #27
 8001cfa:	d50d      	bpl.n	8001d18 <HAL_TIM_IRQHandler+0xa6>
 8001cfc:	f06f 0210 	mvn.w	r2, #16
 8001d00:	611a      	str	r2, [r3, #16]
 8001d02:	2208      	movs	r2, #8
 8001d04:	7722      	strb	r2, [r4, #28]
 8001d06:	69db      	ldr	r3, [r3, #28]
 8001d08:	f413 7f40 	tst.w	r3, #768	; 0x300
 8001d0c:	4620      	mov	r0, r4
 8001d0e:	d04b      	beq.n	8001da8 <HAL_TIM_IRQHandler+0x136>
 8001d10:	f7ff ffac 	bl	8001c6c <HAL_TIM_IC_CaptureCallback>
 8001d14:	2300      	movs	r3, #0
 8001d16:	7723      	strb	r3, [r4, #28]
 8001d18:	6823      	ldr	r3, [r4, #0]
 8001d1a:	691a      	ldr	r2, [r3, #16]
 8001d1c:	07d1      	lsls	r1, r2, #31
 8001d1e:	d508      	bpl.n	8001d32 <HAL_TIM_IRQHandler+0xc0>
 8001d20:	68da      	ldr	r2, [r3, #12]
 8001d22:	07d2      	lsls	r2, r2, #31
 8001d24:	d505      	bpl.n	8001d32 <HAL_TIM_IRQHandler+0xc0>
 8001d26:	f06f 0201 	mvn.w	r2, #1
 8001d2a:	611a      	str	r2, [r3, #16]
 8001d2c:	4620      	mov	r0, r4
 8001d2e:	f7ff ff9b 	bl	8001c68 <HAL_TIM_PeriodElapsedCallback>
 8001d32:	6823      	ldr	r3, [r4, #0]
 8001d34:	691a      	ldr	r2, [r3, #16]
 8001d36:	0610      	lsls	r0, r2, #24
 8001d38:	d508      	bpl.n	8001d4c <HAL_TIM_IRQHandler+0xda>
 8001d3a:	68da      	ldr	r2, [r3, #12]
 8001d3c:	0611      	lsls	r1, r2, #24
 8001d3e:	d505      	bpl.n	8001d4c <HAL_TIM_IRQHandler+0xda>
 8001d40:	f06f 0280 	mvn.w	r2, #128	; 0x80
 8001d44:	611a      	str	r2, [r3, #16]
 8001d46:	4620      	mov	r0, r4
 8001d48:	f000 fb55 	bl	80023f6 <HAL_TIMEx_BreakCallback>
 8001d4c:	6823      	ldr	r3, [r4, #0]
 8001d4e:	691a      	ldr	r2, [r3, #16]
 8001d50:	0652      	lsls	r2, r2, #25
 8001d52:	d508      	bpl.n	8001d66 <HAL_TIM_IRQHandler+0xf4>
 8001d54:	68da      	ldr	r2, [r3, #12]
 8001d56:	0650      	lsls	r0, r2, #25
 8001d58:	d505      	bpl.n	8001d66 <HAL_TIM_IRQHandler+0xf4>
 8001d5a:	f06f 0240 	mvn.w	r2, #64	; 0x40
 8001d5e:	611a      	str	r2, [r3, #16]
 8001d60:	4620      	mov	r0, r4
 8001d62:	f7ff ff85 	bl	8001c70 <HAL_TIM_TriggerCallback>
 8001d66:	6823      	ldr	r3, [r4, #0]
 8001d68:	691a      	ldr	r2, [r3, #16]
 8001d6a:	0691      	lsls	r1, r2, #26
 8001d6c:	d522      	bpl.n	8001db4 <HAL_TIM_IRQHandler+0x142>
 8001d6e:	68da      	ldr	r2, [r3, #12]
 8001d70:	0692      	lsls	r2, r2, #26
 8001d72:	d51f      	bpl.n	8001db4 <HAL_TIM_IRQHandler+0x142>
 8001d74:	f06f 0220 	mvn.w	r2, #32
 8001d78:	4620      	mov	r0, r4
 8001d7a:	611a      	str	r2, [r3, #16]
 8001d7c:	e8bd 4010 	ldmia.w	sp!, {r4, lr}
 8001d80:	f000 bb38 	b.w	80023f4 <HAL_TIMEx_CommutCallback>
 8001d84:	f7ff ff71 	bl	8001c6a <HAL_TIM_OC_DelayElapsedCallback>
 8001d88:	4620      	mov	r0, r4
 8001d8a:	f7ff ff70 	bl	8001c6e <HAL_TIM_PWM_PulseFinishedCallback>
 8001d8e:	e783      	b.n	8001c98 <HAL_TIM_IRQHandler+0x26>
 8001d90:	f7ff ff6b 	bl	8001c6a <HAL_TIM_OC_DelayElapsedCallback>
 8001d94:	4620      	mov	r0, r4
 8001d96:	f7ff ff6a 	bl	8001c6e <HAL_TIM_PWM_PulseFinishedCallback>
 8001d9a:	e792      	b.n	8001cc2 <HAL_TIM_IRQHandler+0x50>
 8001d9c:	f7ff ff65 	bl	8001c6a <HAL_TIM_OC_DelayElapsedCallback>
 8001da0:	4620      	mov	r0, r4
 8001da2:	f7ff ff64 	bl	8001c6e <HAL_TIM_PWM_PulseFinishedCallback>
 8001da6:	e7a0      	b.n	8001cea <HAL_TIM_IRQHandler+0x78>
 8001da8:	f7ff ff5f 	bl	8001c6a <HAL_TIM_OC_DelayElapsedCallback>
 8001dac:	4620      	mov	r0, r4
 8001dae:	f7ff ff5e 	bl	8001c6e <HAL_TIM_PWM_PulseFinishedCallback>
 8001db2:	e7af      	b.n	8001d14 <HAL_TIM_IRQHandler+0xa2>
 8001db4:	bd10      	pop	{r4, pc}
	...

08001db8 <TIM_Base_SetConfig>:
 8001db8:	4a30      	ldr	r2, [pc, #192]	; (8001e7c <TIM_Base_SetConfig+0xc4>)
 8001dba:	6803      	ldr	r3, [r0, #0]
 8001dbc:	4290      	cmp	r0, r2
 8001dbe:	d012      	beq.n	8001de6 <TIM_Base_SetConfig+0x2e>
 8001dc0:	f1b0 4f80 	cmp.w	r0, #1073741824	; 0x40000000
 8001dc4:	d00f      	beq.n	8001de6 <TIM_Base_SetConfig+0x2e>
 8001dc6:	f5a2 427c 	sub.w	r2, r2, #64512	; 0xfc00
 8001dca:	4290      	cmp	r0, r2
 8001dcc:	d00b      	beq.n	8001de6 <TIM_Base_SetConfig+0x2e>
 8001dce:	f502 6280 	add.w	r2, r2, #1024	; 0x400
 8001dd2:	4290      	cmp	r0, r2
 8001dd4:	d007      	beq.n	8001de6 <TIM_Base_SetConfig+0x2e>
 8001dd6:	f502 6280 	add.w	r2, r2, #1024	; 0x400
 8001dda:	4290      	cmp	r0, r2
 8001ddc:	d003      	beq.n	8001de6 <TIM_Base_SetConfig+0x2e>
 8001dde:	f502 4278 	add.w	r2, r2, #63488	; 0xf800
 8001de2:	4290      	cmp	r0, r2
 8001de4:	d119      	bne.n	8001e1a <TIM_Base_SetConfig+0x62>
 8001de6:	684a      	ldr	r2, [r1, #4]
 8001de8:	f023 0370 	bic.w	r3, r3, #112	; 0x70
 8001dec:	4313      	orrs	r3, r2
 8001dee:	4a23      	ldr	r2, [pc, #140]	; (8001e7c <TIM_Base_SetConfig+0xc4>)
 8001df0:	4290      	cmp	r0, r2
 8001df2:	d029      	beq.n	8001e48 <TIM_Base_SetConfig+0x90>
 8001df4:	f1b0 4f80 	cmp.w	r0, #1073741824	; 0x40000000
 8001df8:	d026      	beq.n	8001e48 <TIM_Base_SetConfig+0x90>
 8001dfa:	f5a2 427c 	sub.w	r2, r2, #64512	; 0xfc00
 8001dfe:	4290      	cmp	r0, r2
 8001e00:	d022      	beq.n	8001e48 <TIM_Base_SetConfig+0x90>
 8001e02:	f502 6280 	add.w	r2, r2, #1024	; 0x400
 8001e06:	4290      	cmp	r0, r2
 8001e08:	d01e      	beq.n	8001e48 <TIM_Base_SetConfig+0x90>
 8001e0a:	f502 6280 	add.w	r2, r2, #1024	; 0x400
 8001e0e:	4290      	cmp	r0, r2
 8001e10:	d01a      	beq.n	8001e48 <TIM_Base_SetConfig+0x90>
 8001e12:	f502 4278 	add.w	r2, r2, #63488	; 0xf800
 8001e16:	4290      	cmp	r0, r2
 8001e18:	d016      	beq.n	8001e48 <TIM_Base_SetConfig+0x90>
 8001e1a:	4a19      	ldr	r2, [pc, #100]	; (8001e80 <TIM_Base_SetConfig+0xc8>)
 8001e1c:	4290      	cmp	r0, r2
 8001e1e:	d013      	beq.n	8001e48 <TIM_Base_SetConfig+0x90>
 8001e20:	f502 6280 	add.w	r2, r2, #1024	; 0x400
 8001e24:	4290      	cmp	r0, r2
 8001e26:	d00f      	beq.n	8001e48 <TIM_Base_SetConfig+0x90>
 8001e28:	f502 6280 	add.w	r2, r2, #1024	; 0x400
 8001e2c:	4290      	cmp	r0, r2
 8001e2e:	d00b      	beq.n	8001e48 <TIM_Base_SetConfig+0x90>
 8001e30:	f5a2 3298 	sub.w	r2, r2, #77824	; 0x13000
 8001e34:	4290      	cmp	r0, r2
 8001e36:	d007      	beq.n	8001e48 <TIM_Base_SetConfig+0x90>
 8001e38:	f502 6280 	add.w	r2, r2, #1024	; 0x400
 8001e3c:	4290      	cmp	r0, r2
 8001e3e:	d003      	beq.n	8001e48 <TIM_Base_SetConfig+0x90>
 8001e40:	f502 6280 	add.w	r2, r2, #1024	; 0x400
 8001e44:	4290      	cmp	r0, r2
 8001e46:	d103      	bne.n	8001e50 <TIM_Base_SetConfig+0x98>
 8001e48:	68ca      	ldr	r2, [r1, #12]
 8001e4a:	f423 7340 	bic.w	r3, r3, #768	; 0x300
 8001e4e:	4313      	orrs	r3, r2
 8001e50:	694a      	ldr	r2, [r1, #20]
 8001e52:	f023 0380 	bic.w	r3, r3, #128	; 0x80
 8001e56:	4313      	orrs	r3, r2
 8001e58:	6003      	str	r3, [r0, #0]
 8001e5a:	688b      	ldr	r3, [r1, #8]
 8001e5c:	62c3      	str	r3, [r0, #44]	; 0x2c
 8001e5e:	680b      	ldr	r3, [r1, #0]
 8001e60:	6283      	str	r3, [r0, #40]	; 0x28
 8001e62:	4b06      	ldr	r3, [pc, #24]	; (8001e7c <TIM_Base_SetConfig+0xc4>)
 8001e64:	4298      	cmp	r0, r3
 8001e66:	d003      	beq.n	8001e70 <TIM_Base_SetConfig+0xb8>
 8001e68:	f503 6380 	add.w	r3, r3, #1024	; 0x400
 8001e6c:	4298      	cmp	r0, r3
 8001e6e:	d101      	bne.n	8001e74 <TIM_Base_SetConfig+0xbc>
 8001e70:	690b      	ldr	r3, [r1, #16]
 8001e72:	6303      	str	r3, [r0, #48]	; 0x30
 8001e74:	2301      	movs	r3, #1
 8001e76:	6143      	str	r3, [r0, #20]
 8001e78:	4770      	bx	lr
 8001e7a:	bf00      	nop
 8001e7c:	40010000 	.word	0x40010000
 8001e80:	40014000 	.word	0x40014000

08001e84 <HAL_TIM_Base_Init>:
 8001e84:	b510      	push	{r4, lr}
 8001e86:	4604      	mov	r4, r0
 8001e88:	b330      	cbz	r0, 8001ed8 <HAL_TIM_Base_Init+0x54>
 8001e8a:	f890 303d 	ldrb.w	r3, [r0, #61]	; 0x3d
 8001e8e:	f003 02ff 	and.w	r2, r3, #255	; 0xff
 8001e92:	b91b      	cbnz	r3, 8001e9c <HAL_TIM_Base_Init+0x18>
 8001e94:	f880 203c 	strb.w	r2, [r0, #60]	; 0x3c
 8001e98:	f7fe fe02 	bl	8000aa0 <HAL_TIM_Base_MspInit>
 8001e9c:	2302      	movs	r3, #2
 8001e9e:	6820      	ldr	r0, [r4, #0]
 8001ea0:	f884 303d 	strb.w	r3, [r4, #61]	; 0x3d
 8001ea4:	1d21      	adds	r1, r4, #4
 8001ea6:	f7ff ff87 	bl	8001db8 <TIM_Base_SetConfig>
 8001eaa:	2301      	movs	r3, #1
 8001eac:	f884 3046 	strb.w	r3, [r4, #70]	; 0x46
 8001eb0:	2000      	movs	r0, #0
 8001eb2:	f884 303e 	strb.w	r3, [r4, #62]	; 0x3e
 8001eb6:	f884 303f 	strb.w	r3, [r4, #63]	; 0x3f
 8001eba:	f884 3040 	strb.w	r3, [r4, #64]	; 0x40
 8001ebe:	f884 3041 	strb.w	r3, [r4, #65]	; 0x41
 8001ec2:	f884 3042 	strb.w	r3, [r4, #66]	; 0x42
 8001ec6:	f884 3043 	strb.w	r3, [r4, #67]	; 0x43
 8001eca:	f884 3044 	strb.w	r3, [r4, #68]	; 0x44
 8001ece:	f884 3045 	strb.w	r3, [r4, #69]	; 0x45
 8001ed2:	f884 303d 	strb.w	r3, [r4, #61]	; 0x3d
 8001ed6:	bd10      	pop	{r4, pc}
 8001ed8:	2001      	movs	r0, #1
 8001eda:	e7fc      	b.n	8001ed6 <HAL_TIM_Base_Init+0x52>

08001edc <HAL_TIM_PWM_Init>:
 8001edc:	b510      	push	{r4, lr}
 8001ede:	4604      	mov	r4, r0
 8001ee0:	b330      	cbz	r0, 8001f30 <HAL_TIM_PWM_Init+0x54>
 8001ee2:	f890 303d 	ldrb.w	r3, [r0, #61]	; 0x3d
 8001ee6:	f003 02ff 	and.w	r2, r3, #255	; 0xff
 8001eea:	b91b      	cbnz	r3, 8001ef4 <HAL_TIM_PWM_Init+0x18>
 8001eec:	f880 203c 	strb.w	r2, [r0, #60]	; 0x3c
 8001ef0:	f7fe fe0e 	bl	8000b10 <HAL_TIM_PWM_MspInit>
 8001ef4:	2302      	movs	r3, #2
 8001ef6:	6820      	ldr	r0, [r4, #0]
 8001ef8:	f884 303d 	strb.w	r3, [r4, #61]	; 0x3d
 8001efc:	1d21      	adds	r1, r4, #4
 8001efe:	f7ff ff5b 	bl	8001db8 <TIM_Base_SetConfig>
 8001f02:	2301      	movs	r3, #1
 8001f04:	f884 3046 	strb.w	r3, [r4, #70]	; 0x46
 8001f08:	2000      	movs	r0, #0
 8001f0a:	f884 303e 	strb.w	r3, [r4, #62]	; 0x3e
 8001f0e:	f884 303f 	strb.w	r3, [r4, #63]	; 0x3f
 8001f12:	f884 3040 	strb.w	r3, [r4, #64]	; 0x40
 8001f16:	f884 3041 	strb.w	r3, [r4, #65]	; 0x41
 8001f1a:	f884 3042 	strb.w	r3, [r4, #66]	; 0x42
 8001f1e:	f884 3043 	strb.w	r3, [r4, #67]	; 0x43
 8001f22:	f884 3044 	strb.w	r3, [r4, #68]	; 0x44
 8001f26:	f884 3045 	strb.w	r3, [r4, #69]	; 0x45
 8001f2a:	f884 303d 	strb.w	r3, [r4, #61]	; 0x3d
 8001f2e:	bd10      	pop	{r4, pc}
 8001f30:	2001      	movs	r0, #1
 8001f32:	e7fc      	b.n	8001f2e <HAL_TIM_PWM_Init+0x52>

08001f34 <TIM_OC2_SetConfig>:
 8001f34:	6a03      	ldr	r3, [r0, #32]
 8001f36:	f023 0310 	bic.w	r3, r3, #16
 8001f3a:	6203      	str	r3, [r0, #32]
 8001f3c:	6a03      	ldr	r3, [r0, #32]
 8001f3e:	b570      	push	{r4, r5, r6, lr}
 8001f40:	6844      	ldr	r4, [r0, #4]
 8001f42:	6982      	ldr	r2, [r0, #24]
 8001f44:	680d      	ldr	r5, [r1, #0]
 8001f46:	f422 42e6 	bic.w	r2, r2, #29440	; 0x7300
 8001f4a:	ea42 2205 	orr.w	r2, r2, r5, lsl #8
 8001f4e:	688d      	ldr	r5, [r1, #8]
 8001f50:	f023 0320 	bic.w	r3, r3, #32
 8001f54:	ea43 1305 	orr.w	r3, r3, r5, lsl #4
 8001f58:	4d10      	ldr	r5, [pc, #64]	; (8001f9c <TIM_OC2_SetConfig+0x68>)
 8001f5a:	42a8      	cmp	r0, r5
 8001f5c:	d003      	beq.n	8001f66 <TIM_OC2_SetConfig+0x32>
 8001f5e:	f505 6580 	add.w	r5, r5, #1024	; 0x400
 8001f62:	42a8      	cmp	r0, r5
 8001f64:	d114      	bne.n	8001f90 <TIM_OC2_SetConfig+0x5c>
 8001f66:	68cd      	ldr	r5, [r1, #12]
 8001f68:	f023 0380 	bic.w	r3, r3, #128	; 0x80
 8001f6c:	ea43 1305 	orr.w	r3, r3, r5, lsl #4
 8001f70:	4d0a      	ldr	r5, [pc, #40]	; (8001f9c <TIM_OC2_SetConfig+0x68>)
 8001f72:	42a8      	cmp	r0, r5
 8001f74:	f023 0340 	bic.w	r3, r3, #64	; 0x40
 8001f78:	d003      	beq.n	8001f82 <TIM_OC2_SetConfig+0x4e>
 8001f7a:	f505 6580 	add.w	r5, r5, #1024	; 0x400
 8001f7e:	42a8      	cmp	r0, r5
 8001f80:	d106      	bne.n	8001f90 <TIM_OC2_SetConfig+0x5c>
 8001f82:	e9d1 5605 	ldrd	r5, r6, [r1, #20]
 8001f86:	f424 6440 	bic.w	r4, r4, #3072	; 0xc00
 8001f8a:	4335      	orrs	r5, r6
 8001f8c:	ea44 0485 	orr.w	r4, r4, r5, lsl #2
 8001f90:	6044      	str	r4, [r0, #4]
 8001f92:	6182      	str	r2, [r0, #24]
 8001f94:	684a      	ldr	r2, [r1, #4]
 8001f96:	6382      	str	r2, [r0, #56]	; 0x38
 8001f98:	6203      	str	r3, [r0, #32]
 8001f9a:	bd70      	pop	{r4, r5, r6, pc}
 8001f9c:	40010000 	.word	0x40010000

08001fa0 <HAL_TIM_PWM_ConfigChannel>:
 8001fa0:	b538      	push	{r3, r4, r5, lr}
 8001fa2:	f890 303c 	ldrb.w	r3, [r0, #60]	; 0x3c
 8001fa6:	2b01      	cmp	r3, #1
 8001fa8:	4604      	mov	r4, r0
 8001faa:	d052      	beq.n	8002052 <HAL_TIM_PWM_ConfigChannel+0xb2>
 8001fac:	2301      	movs	r3, #1
 8001fae:	2a08      	cmp	r2, #8
 8001fb0:	f880 303c 	strb.w	r3, [r0, #60]	; 0x3c
 8001fb4:	d03c      	beq.n	8002030 <HAL_TIM_PWM_ConfigChannel+0x90>
 8001fb6:	d806      	bhi.n	8001fc6 <HAL_TIM_PWM_ConfigChannel+0x26>
 8001fb8:	b1c2      	cbz	r2, 8001fec <HAL_TIM_PWM_ConfigChannel+0x4c>
 8001fba:	2a04      	cmp	r2, #4
 8001fbc:	d027      	beq.n	800200e <HAL_TIM_PWM_ConfigChannel+0x6e>
 8001fbe:	2000      	movs	r0, #0
 8001fc0:	f884 003c 	strb.w	r0, [r4, #60]	; 0x3c
 8001fc4:	bd38      	pop	{r3, r4, r5, pc}
 8001fc6:	2a0c      	cmp	r2, #12
 8001fc8:	d1f9      	bne.n	8001fbe <HAL_TIM_PWM_ConfigChannel+0x1e>
 8001fca:	6800      	ldr	r0, [r0, #0]
 8001fcc:	f7ff fdf0 	bl	8001bb0 <TIM_OC4_SetConfig>
 8001fd0:	6823      	ldr	r3, [r4, #0]
 8001fd2:	6909      	ldr	r1, [r1, #16]
 8001fd4:	69da      	ldr	r2, [r3, #28]
 8001fd6:	f442 6200 	orr.w	r2, r2, #2048	; 0x800
 8001fda:	61da      	str	r2, [r3, #28]
 8001fdc:	69da      	ldr	r2, [r3, #28]
 8001fde:	f422 6280 	bic.w	r2, r2, #1024	; 0x400
 8001fe2:	61da      	str	r2, [r3, #28]
 8001fe4:	69da      	ldr	r2, [r3, #28]
 8001fe6:	ea42 2201 	orr.w	r2, r2, r1, lsl #8
 8001fea:	e030      	b.n	800204e <HAL_TIM_PWM_ConfigChannel+0xae>
 8001fec:	6800      	ldr	r0, [r0, #0]
 8001fee:	f7ff fd77 	bl	8001ae0 <TIM_OC1_SetConfig>
 8001ff2:	6823      	ldr	r3, [r4, #0]
 8001ff4:	6909      	ldr	r1, [r1, #16]
 8001ff6:	699a      	ldr	r2, [r3, #24]
 8001ff8:	f042 0208 	orr.w	r2, r2, #8
 8001ffc:	619a      	str	r2, [r3, #24]
 8001ffe:	699a      	ldr	r2, [r3, #24]
 8002000:	f022 0204 	bic.w	r2, r2, #4
 8002004:	619a      	str	r2, [r3, #24]
 8002006:	699a      	ldr	r2, [r3, #24]
 8002008:	430a      	orrs	r2, r1
 800200a:	619a      	str	r2, [r3, #24]
 800200c:	e7d7      	b.n	8001fbe <HAL_TIM_PWM_ConfigChannel+0x1e>
 800200e:	6800      	ldr	r0, [r0, #0]
 8002010:	f7ff ff90 	bl	8001f34 <TIM_OC2_SetConfig>
 8002014:	6823      	ldr	r3, [r4, #0]
 8002016:	6909      	ldr	r1, [r1, #16]
 8002018:	699a      	ldr	r2, [r3, #24]
 800201a:	f442 6200 	orr.w	r2, r2, #2048	; 0x800
 800201e:	619a      	str	r2, [r3, #24]
 8002020:	699a      	ldr	r2, [r3, #24]
 8002022:	f422 6280 	bic.w	r2, r2, #1024	; 0x400
 8002026:	619a      	str	r2, [r3, #24]
 8002028:	699a      	ldr	r2, [r3, #24]
 800202a:	ea42 2201 	orr.w	r2, r2, r1, lsl #8
 800202e:	e7ec      	b.n	800200a <HAL_TIM_PWM_ConfigChannel+0x6a>
 8002030:	6800      	ldr	r0, [r0, #0]
 8002032:	f7ff fd87 	bl	8001b44 <TIM_OC3_SetConfig>
 8002036:	6823      	ldr	r3, [r4, #0]
 8002038:	6909      	ldr	r1, [r1, #16]
 800203a:	69da      	ldr	r2, [r3, #28]
 800203c:	f042 0208 	orr.w	r2, r2, #8
 8002040:	61da      	str	r2, [r3, #28]
 8002042:	69da      	ldr	r2, [r3, #28]
 8002044:	f022 0204 	bic.w	r2, r2, #4
 8002048:	61da      	str	r2, [r3, #28]
 800204a:	69da      	ldr	r2, [r3, #28]
 800204c:	430a      	orrs	r2, r1
 800204e:	61da      	str	r2, [r3, #28]
 8002050:	e7b5      	b.n	8001fbe <HAL_TIM_PWM_ConfigChannel+0x1e>
 8002052:	2002      	movs	r0, #2
 8002054:	e7b6      	b.n	8001fc4 <HAL_TIM_PWM_ConfigChannel+0x24>

08002056 <TIM_ETR_SetConfig>:
 8002056:	b510      	push	{r4, lr}
 8002058:	6884      	ldr	r4, [r0, #8]
 800205a:	4311      	orrs	r1, r2
 800205c:	f424 447f 	bic.w	r4, r4, #65280	; 0xff00
 8002060:	ea41 2303 	orr.w	r3, r1, r3, lsl #8
 8002064:	4323      	orrs	r3, r4
 8002066:	6083      	str	r3, [r0, #8]
 8002068:	bd10      	pop	{r4, pc}

0800206a <HAL_TIM_ConfigClockSource>:
 800206a:	b570      	push	{r4, r5, r6, lr}
 800206c:	f890 303c 	ldrb.w	r3, [r0, #60]	; 0x3c
 8002070:	2b01      	cmp	r3, #1
 8002072:	4604      	mov	r4, r0
 8002074:	f04f 0002 	mov.w	r0, #2
 8002078:	d027      	beq.n	80020ca <HAL_TIM_ConfigClockSource+0x60>
 800207a:	f884 003d 	strb.w	r0, [r4, #61]	; 0x3d
 800207e:	2301      	movs	r3, #1
 8002080:	6820      	ldr	r0, [r4, #0]
 8002082:	f884 303c 	strb.w	r3, [r4, #60]	; 0x3c
 8002086:	6883      	ldr	r3, [r0, #8]
 8002088:	f423 437f 	bic.w	r3, r3, #65280	; 0xff00
 800208c:	f023 0377 	bic.w	r3, r3, #119	; 0x77
 8002090:	6083      	str	r3, [r0, #8]
 8002092:	680b      	ldr	r3, [r1, #0]
 8002094:	2b60      	cmp	r3, #96	; 0x60
 8002096:	d04d      	beq.n	8002134 <HAL_TIM_ConfigClockSource+0xca>
 8002098:	d832      	bhi.n	8002100 <HAL_TIM_ConfigClockSource+0x96>
 800209a:	2b40      	cmp	r3, #64	; 0x40
 800209c:	d062      	beq.n	8002164 <HAL_TIM_ConfigClockSource+0xfa>
 800209e:	d815      	bhi.n	80020cc <HAL_TIM_ConfigClockSource+0x62>
 80020a0:	2b20      	cmp	r3, #32
 80020a2:	d003      	beq.n	80020ac <HAL_TIM_ConfigClockSource+0x42>
 80020a4:	d809      	bhi.n	80020ba <HAL_TIM_ConfigClockSource+0x50>
 80020a6:	f033 0210 	bics.w	r2, r3, #16
 80020aa:	d108      	bne.n	80020be <HAL_TIM_ConfigClockSource+0x54>
 80020ac:	6882      	ldr	r2, [r0, #8]
 80020ae:	f022 0270 	bic.w	r2, r2, #112	; 0x70
 80020b2:	4313      	orrs	r3, r2
 80020b4:	f043 0307 	orr.w	r3, r3, #7
 80020b8:	e020      	b.n	80020fc <HAL_TIM_ConfigClockSource+0x92>
 80020ba:	2b30      	cmp	r3, #48	; 0x30
 80020bc:	d0f6      	beq.n	80020ac <HAL_TIM_ConfigClockSource+0x42>
 80020be:	2301      	movs	r3, #1
 80020c0:	2000      	movs	r0, #0
 80020c2:	f884 303d 	strb.w	r3, [r4, #61]	; 0x3d
 80020c6:	f884 003c 	strb.w	r0, [r4, #60]	; 0x3c
 80020ca:	bd70      	pop	{r4, r5, r6, pc}
 80020cc:	2b50      	cmp	r3, #80	; 0x50
 80020ce:	d1f6      	bne.n	80020be <HAL_TIM_ConfigClockSource+0x54>
 80020d0:	684a      	ldr	r2, [r1, #4]
 80020d2:	68ce      	ldr	r6, [r1, #12]
 80020d4:	6a01      	ldr	r1, [r0, #32]
 80020d6:	6a05      	ldr	r5, [r0, #32]
 80020d8:	f025 0501 	bic.w	r5, r5, #1
 80020dc:	6205      	str	r5, [r0, #32]
 80020de:	6983      	ldr	r3, [r0, #24]
 80020e0:	f021 010a 	bic.w	r1, r1, #10
 80020e4:	f023 03f0 	bic.w	r3, r3, #240	; 0xf0
 80020e8:	ea43 1306 	orr.w	r3, r3, r6, lsl #4
 80020ec:	430a      	orrs	r2, r1
 80020ee:	6183      	str	r3, [r0, #24]
 80020f0:	6202      	str	r2, [r0, #32]
 80020f2:	6883      	ldr	r3, [r0, #8]
 80020f4:	f023 0370 	bic.w	r3, r3, #112	; 0x70
 80020f8:	f043 0357 	orr.w	r3, r3, #87	; 0x57
 80020fc:	6083      	str	r3, [r0, #8]
 80020fe:	e7de      	b.n	80020be <HAL_TIM_ConfigClockSource+0x54>
 8002100:	2b70      	cmp	r3, #112	; 0x70
 8002102:	d00c      	beq.n	800211e <HAL_TIM_ConfigClockSource+0xb4>
 8002104:	f5b3 5f00 	cmp.w	r3, #8192	; 0x2000
 8002108:	d1d9      	bne.n	80020be <HAL_TIM_ConfigClockSource+0x54>
 800210a:	68cb      	ldr	r3, [r1, #12]
 800210c:	e9d1 2101 	ldrd	r2, r1, [r1, #4]
 8002110:	f7ff ffa1 	bl	8002056 <TIM_ETR_SetConfig>
 8002114:	6822      	ldr	r2, [r4, #0]
 8002116:	6893      	ldr	r3, [r2, #8]
 8002118:	f443 4380 	orr.w	r3, r3, #16384	; 0x4000
 800211c:	e008      	b.n	8002130 <HAL_TIM_ConfigClockSource+0xc6>
 800211e:	68cb      	ldr	r3, [r1, #12]
 8002120:	e9d1 2101 	ldrd	r2, r1, [r1, #4]
 8002124:	f7ff ff97 	bl	8002056 <TIM_ETR_SetConfig>
 8002128:	6822      	ldr	r2, [r4, #0]
 800212a:	6893      	ldr	r3, [r2, #8]
 800212c:	f043 0377 	orr.w	r3, r3, #119	; 0x77
 8002130:	6093      	str	r3, [r2, #8]
 8002132:	e7c4      	b.n	80020be <HAL_TIM_ConfigClockSource+0x54>
 8002134:	684d      	ldr	r5, [r1, #4]
 8002136:	68ce      	ldr	r6, [r1, #12]
 8002138:	6a01      	ldr	r1, [r0, #32]
 800213a:	f021 0110 	bic.w	r1, r1, #16
 800213e:	6201      	str	r1, [r0, #32]
 8002140:	6982      	ldr	r2, [r0, #24]
 8002142:	6a03      	ldr	r3, [r0, #32]
 8002144:	f422 4270 	bic.w	r2, r2, #61440	; 0xf000
 8002148:	f023 03a0 	bic.w	r3, r3, #160	; 0xa0
 800214c:	ea43 1305 	orr.w	r3, r3, r5, lsl #4
 8002150:	ea42 3206 	orr.w	r2, r2, r6, lsl #12
 8002154:	6182      	str	r2, [r0, #24]
 8002156:	6203      	str	r3, [r0, #32]
 8002158:	6883      	ldr	r3, [r0, #8]
 800215a:	f023 0370 	bic.w	r3, r3, #112	; 0x70
 800215e:	f043 0367 	orr.w	r3, r3, #103	; 0x67
 8002162:	e7cb      	b.n	80020fc <HAL_TIM_ConfigClockSource+0x92>
 8002164:	684a      	ldr	r2, [r1, #4]
 8002166:	68ce      	ldr	r6, [r1, #12]
 8002168:	6a01      	ldr	r1, [r0, #32]
 800216a:	6a05      	ldr	r5, [r0, #32]
 800216c:	f025 0501 	bic.w	r5, r5, #1
 8002170:	6205      	str	r5, [r0, #32]
 8002172:	6983      	ldr	r3, [r0, #24]
 8002174:	f021 010a 	bic.w	r1, r1, #10
 8002178:	f023 03f0 	bic.w	r3, r3, #240	; 0xf0
 800217c:	ea43 1306 	orr.w	r3, r3, r6, lsl #4
 8002180:	430a      	orrs	r2, r1
 8002182:	6183      	str	r3, [r0, #24]
 8002184:	6202      	str	r2, [r0, #32]
 8002186:	6883      	ldr	r3, [r0, #8]
 8002188:	f023 0370 	bic.w	r3, r3, #112	; 0x70
 800218c:	f043 0347 	orr.w	r3, r3, #71	; 0x47
 8002190:	e7b4      	b.n	80020fc <HAL_TIM_ConfigClockSource+0x92>

08002192 <TIM_CCxChannelCmd>:
 8002192:	6a03      	ldr	r3, [r0, #32]
 8002194:	f001 011f 	and.w	r1, r1, #31
 8002198:	b510      	push	{r4, lr}
 800219a:	2401      	movs	r4, #1
 800219c:	408c      	lsls	r4, r1
 800219e:	ea23 0304 	bic.w	r3, r3, r4
 80021a2:	6203      	str	r3, [r0, #32]
 80021a4:	6a03      	ldr	r3, [r0, #32]
 80021a6:	408a      	lsls	r2, r1
 80021a8:	431a      	orrs	r2, r3
 80021aa:	6202      	str	r2, [r0, #32]
 80021ac:	bd10      	pop	{r4, pc}
	...

080021b0 <HAL_TIM_OC_Start>:
 80021b0:	b510      	push	{r4, lr}
 80021b2:	4604      	mov	r4, r0
 80021b4:	b929      	cbnz	r1, 80021c2 <HAL_TIM_OC_Start+0x12>
 80021b6:	f890 303e 	ldrb.w	r3, [r0, #62]	; 0x3e
 80021ba:	2b01      	cmp	r3, #1
 80021bc:	d01d      	beq.n	80021fa <HAL_TIM_OC_Start+0x4a>
 80021be:	2001      	movs	r0, #1
 80021c0:	e032      	b.n	8002228 <HAL_TIM_OC_Start+0x78>
 80021c2:	2904      	cmp	r1, #4
 80021c4:	d107      	bne.n	80021d6 <HAL_TIM_OC_Start+0x26>
 80021c6:	f890 303f 	ldrb.w	r3, [r0, #63]	; 0x3f
 80021ca:	2b01      	cmp	r3, #1
 80021cc:	d1f7      	bne.n	80021be <HAL_TIM_OC_Start+0xe>
 80021ce:	2302      	movs	r3, #2
 80021d0:	f880 303f 	strb.w	r3, [r0, #63]	; 0x3f
 80021d4:	e014      	b.n	8002200 <HAL_TIM_OC_Start+0x50>
 80021d6:	2908      	cmp	r1, #8
 80021d8:	d107      	bne.n	80021ea <HAL_TIM_OC_Start+0x3a>
 80021da:	f890 3040 	ldrb.w	r3, [r0, #64]	; 0x40
 80021de:	2b01      	cmp	r3, #1
 80021e0:	d1ed      	bne.n	80021be <HAL_TIM_OC_Start+0xe>
 80021e2:	2302      	movs	r3, #2
 80021e4:	f880 3040 	strb.w	r3, [r0, #64]	; 0x40
 80021e8:	e00a      	b.n	8002200 <HAL_TIM_OC_Start+0x50>
 80021ea:	f890 3041 	ldrb.w	r3, [r0, #65]	; 0x41
 80021ee:	2b01      	cmp	r3, #1
 80021f0:	d1e5      	bne.n	80021be <HAL_TIM_OC_Start+0xe>
 80021f2:	2302      	movs	r3, #2
 80021f4:	f880 3041 	strb.w	r3, [r0, #65]	; 0x41
 80021f8:	e002      	b.n	8002200 <HAL_TIM_OC_Start+0x50>
 80021fa:	2302      	movs	r3, #2
 80021fc:	f880 303e 	strb.w	r3, [r0, #62]	; 0x3e
 8002200:	2201      	movs	r2, #1
 8002202:	6820      	ldr	r0, [r4, #0]
 8002204:	f7ff ffc5 	bl	8002192 <TIM_CCxChannelCmd>
 8002208:	6823      	ldr	r3, [r4, #0]
 800220a:	4a19      	ldr	r2, [pc, #100]	; (8002270 <HAL_TIM_OC_Start+0xc0>)
 800220c:	4293      	cmp	r3, r2
 800220e:	d00c      	beq.n	800222a <HAL_TIM_OC_Start+0x7a>
 8002210:	4918      	ldr	r1, [pc, #96]	; (8002274 <HAL_TIM_OC_Start+0xc4>)
 8002212:	428b      	cmp	r3, r1
 8002214:	d009      	beq.n	800222a <HAL_TIM_OC_Start+0x7a>
 8002216:	f1b3 4f80 	cmp.w	r3, #1073741824	; 0x40000000
 800221a:	d10d      	bne.n	8002238 <HAL_TIM_OC_Start+0x88>
 800221c:	689a      	ldr	r2, [r3, #8]
 800221e:	f002 0207 	and.w	r2, r2, #7
 8002222:	2a06      	cmp	r2, #6
 8002224:	d11f      	bne.n	8002266 <HAL_TIM_OC_Start+0xb6>
 8002226:	2000      	movs	r0, #0
 8002228:	bd10      	pop	{r4, pc}
 800222a:	6c59      	ldr	r1, [r3, #68]	; 0x44
 800222c:	4293      	cmp	r3, r2
 800222e:	f441 4100 	orr.w	r1, r1, #32768	; 0x8000
 8002232:	6459      	str	r1, [r3, #68]	; 0x44
 8002234:	d0f2      	beq.n	800221c <HAL_TIM_OC_Start+0x6c>
 8002236:	e7ee      	b.n	8002216 <HAL_TIM_OC_Start+0x66>
 8002238:	4a0f      	ldr	r2, [pc, #60]	; (8002278 <HAL_TIM_OC_Start+0xc8>)
 800223a:	4293      	cmp	r3, r2
 800223c:	d0ee      	beq.n	800221c <HAL_TIM_OC_Start+0x6c>
 800223e:	f502 6280 	add.w	r2, r2, #1024	; 0x400
 8002242:	4293      	cmp	r3, r2
 8002244:	d0ea      	beq.n	800221c <HAL_TIM_OC_Start+0x6c>
 8002246:	f502 6280 	add.w	r2, r2, #1024	; 0x400
 800224a:	4293      	cmp	r3, r2
 800224c:	d0e6      	beq.n	800221c <HAL_TIM_OC_Start+0x6c>
 800224e:	f502 4278 	add.w	r2, r2, #63488	; 0xf800
 8002252:	4293      	cmp	r3, r2
 8002254:	d0e2      	beq.n	800221c <HAL_TIM_OC_Start+0x6c>
 8002256:	f502 5270 	add.w	r2, r2, #15360	; 0x3c00
 800225a:	4293      	cmp	r3, r2
 800225c:	d0de      	beq.n	800221c <HAL_TIM_OC_Start+0x6c>
 800225e:	f5a2 3294 	sub.w	r2, r2, #75776	; 0x12800
 8002262:	4293      	cmp	r3, r2
 8002264:	d0da      	beq.n	800221c <HAL_TIM_OC_Start+0x6c>
 8002266:	681a      	ldr	r2, [r3, #0]
 8002268:	f042 0201 	orr.w	r2, r2, #1
 800226c:	601a      	str	r2, [r3, #0]
 800226e:	e7da      	b.n	8002226 <HAL_TIM_OC_Start+0x76>
 8002270:	40010000 	.word	0x40010000
 8002274:	40010400 	.word	0x40010400
 8002278:	40000400 	.word	0x40000400

0800227c <HAL_TIM_PWM_Start>:
 800227c:	f7ff bf98 	b.w	80021b0 <HAL_TIM_OC_Start>

08002280 <HAL_TIM_OC_Start_IT>:
 8002280:	b510      	push	{r4, lr}
 8002282:	4604      	mov	r4, r0
 8002284:	b929      	cbnz	r1, 8002292 <HAL_TIM_OC_Start_IT+0x12>
 8002286:	f890 303e 	ldrb.w	r3, [r0, #62]	; 0x3e
 800228a:	2b01      	cmp	r3, #1
 800228c:	d02b      	beq.n	80022e6 <HAL_TIM_OC_Start_IT+0x66>
 800228e:	2001      	movs	r0, #1
 8002290:	e045      	b.n	800231e <HAL_TIM_OC_Start_IT+0x9e>
 8002292:	2904      	cmp	r1, #4
 8002294:	d10b      	bne.n	80022ae <HAL_TIM_OC_Start_IT+0x2e>
 8002296:	f890 303f 	ldrb.w	r3, [r0, #63]	; 0x3f
 800229a:	2b01      	cmp	r3, #1
 800229c:	d1f7      	bne.n	800228e <HAL_TIM_OC_Start_IT+0xe>
 800229e:	2302      	movs	r3, #2
 80022a0:	6802      	ldr	r2, [r0, #0]
 80022a2:	f880 303f 	strb.w	r3, [r0, #63]	; 0x3f
 80022a6:	68d3      	ldr	r3, [r2, #12]
 80022a8:	f043 0304 	orr.w	r3, r3, #4
 80022ac:	e022      	b.n	80022f4 <HAL_TIM_OC_Start_IT+0x74>
 80022ae:	2908      	cmp	r1, #8
 80022b0:	d10b      	bne.n	80022ca <HAL_TIM_OC_Start_IT+0x4a>
 80022b2:	f890 3040 	ldrb.w	r3, [r0, #64]	; 0x40
 80022b6:	2b01      	cmp	r3, #1
 80022b8:	d1e9      	bne.n	800228e <HAL_TIM_OC_Start_IT+0xe>
 80022ba:	2302      	movs	r3, #2
 80022bc:	6802      	ldr	r2, [r0, #0]
 80022be:	f880 3040 	strb.w	r3, [r0, #64]	; 0x40
 80022c2:	68d3      	ldr	r3, [r2, #12]
 80022c4:	f043 0308 	orr.w	r3, r3, #8
 80022c8:	e014      	b.n	80022f4 <HAL_TIM_OC_Start_IT+0x74>
 80022ca:	f890 3041 	ldrb.w	r3, [r0, #65]	; 0x41
 80022ce:	2b01      	cmp	r3, #1
 80022d0:	d1dd      	bne.n	800228e <HAL_TIM_OC_Start_IT+0xe>
 80022d2:	2302      	movs	r3, #2
 80022d4:	290c      	cmp	r1, #12
 80022d6:	f880 3041 	strb.w	r3, [r0, #65]	; 0x41
 80022da:	d10c      	bne.n	80022f6 <HAL_TIM_OC_Start_IT+0x76>
 80022dc:	6802      	ldr	r2, [r0, #0]
 80022de:	68d3      	ldr	r3, [r2, #12]
 80022e0:	f043 0310 	orr.w	r3, r3, #16
 80022e4:	e006      	b.n	80022f4 <HAL_TIM_OC_Start_IT+0x74>
 80022e6:	2302      	movs	r3, #2
 80022e8:	6802      	ldr	r2, [r0, #0]
 80022ea:	f880 303e 	strb.w	r3, [r0, #62]	; 0x3e
 80022ee:	68d3      	ldr	r3, [r2, #12]
 80022f0:	f043 0302 	orr.w	r3, r3, #2
 80022f4:	60d3      	str	r3, [r2, #12]
 80022f6:	2201      	movs	r2, #1
 80022f8:	6820      	ldr	r0, [r4, #0]
 80022fa:	f7ff ff4a 	bl	8002192 <TIM_CCxChannelCmd>
 80022fe:	6823      	ldr	r3, [r4, #0]
 8002300:	4a19      	ldr	r2, [pc, #100]	; (8002368 <HAL_TIM_OC_Start_IT+0xe8>)
 8002302:	4293      	cmp	r3, r2
 8002304:	d00c      	beq.n	8002320 <HAL_TIM_OC_Start_IT+0xa0>
 8002306:	4919      	ldr	r1, [pc, #100]	; (800236c <HAL_TIM_OC_Start_IT+0xec>)
 8002308:	428b      	cmp	r3, r1
 800230a:	d009      	beq.n	8002320 <HAL_TIM_OC_Start_IT+0xa0>
 800230c:	f1b3 4f80 	cmp.w	r3, #1073741824	; 0x40000000
 8002310:	d10d      	bne.n	800232e <HAL_TIM_OC_Start_IT+0xae>
 8002312:	689a      	ldr	r2, [r3, #8]
 8002314:	f002 0207 	and.w	r2, r2, #7
 8002318:	2a06      	cmp	r2, #6
 800231a:	d11f      	bne.n	800235c <HAL_TIM_OC_Start_IT+0xdc>
 800231c:	2000      	movs	r0, #0
 800231e:	bd10      	pop	{r4, pc}
 8002320:	6c59      	ldr	r1, [r3, #68]	; 0x44
 8002322:	4293      	cmp	r3, r2
 8002324:	f441 4100 	orr.w	r1, r1, #32768	; 0x8000
 8002328:	6459      	str	r1, [r3, #68]	; 0x44
 800232a:	d0f2      	beq.n	8002312 <HAL_TIM_OC_Start_IT+0x92>
 800232c:	e7ee      	b.n	800230c <HAL_TIM_OC_Start_IT+0x8c>
 800232e:	4a10      	ldr	r2, [pc, #64]	; (8002370 <HAL_TIM_OC_Start_IT+0xf0>)
 8002330:	4293      	cmp	r3, r2
 8002332:	d0ee      	beq.n	8002312 <HAL_TIM_OC_Start_IT+0x92>
 8002334:	f502 6280 	add.w	r2, r2, #1024	; 0x400
 8002338:	4293      	cmp	r3, r2
 800233a:	d0ea      	beq.n	8002312 <HAL_TIM_OC_Start_IT+0x92>
 800233c:	f502 6280 	add.w	r2, r2, #1024	; 0x400
 8002340:	4293      	cmp	r3, r2
 8002342:	d0e6      	beq.n	8002312 <HAL_TIM_OC_Start_IT+0x92>
 8002344:	f502 4278 	add.w	r2, r2, #63488	; 0xf800
 8002348:	4293      	cmp	r3, r2
 800234a:	d0e2      	beq.n	8002312 <HAL_TIM_OC_Start_IT+0x92>
 800234c:	f502 5270 	add.w	r2, r2, #15360	; 0x3c00
 8002350:	4293      	cmp	r3, r2
 8002352:	d0de      	beq.n	8002312 <HAL_TIM_OC_Start_IT+0x92>
 8002354:	f5a2 3294 	sub.w	r2, r2, #75776	; 0x12800
 8002358:	4293      	cmp	r3, r2
 800235a:	d0da      	beq.n	8002312 <HAL_TIM_OC_Start_IT+0x92>
 800235c:	681a      	ldr	r2, [r3, #0]
 800235e:	f042 0201 	orr.w	r2, r2, #1
 8002362:	601a      	str	r2, [r3, #0]
 8002364:	e7da      	b.n	800231c <HAL_TIM_OC_Start_IT+0x9c>
 8002366:	bf00      	nop
 8002368:	40010000 	.word	0x40010000
 800236c:	40010400 	.word	0x40010400
 8002370:	40000400 	.word	0x40000400

08002374 <HAL_TIM_PWM_Start_IT>:
 8002374:	f7ff bf84 	b.w	8002280 <HAL_TIM_OC_Start_IT>

08002378 <HAL_TIMEx_MasterConfigSynchronization>:
 8002378:	b530      	push	{r4, r5, lr}
 800237a:	f890 303c 	ldrb.w	r3, [r0, #60]	; 0x3c
 800237e:	2b01      	cmp	r3, #1
 8002380:	f04f 0302 	mov.w	r3, #2
 8002384:	d032      	beq.n	80023ec <HAL_TIMEx_MasterConfigSynchronization+0x74>
 8002386:	f880 303d 	strb.w	r3, [r0, #61]	; 0x3d
 800238a:	6803      	ldr	r3, [r0, #0]
 800238c:	680d      	ldr	r5, [r1, #0]
 800238e:	685c      	ldr	r4, [r3, #4]
 8002390:	689a      	ldr	r2, [r3, #8]
 8002392:	f024 0470 	bic.w	r4, r4, #112	; 0x70
 8002396:	432c      	orrs	r4, r5
 8002398:	605c      	str	r4, [r3, #4]
 800239a:	4c15      	ldr	r4, [pc, #84]	; (80023f0 <HAL_TIMEx_MasterConfigSynchronization+0x78>)
 800239c:	42a3      	cmp	r3, r4
 800239e:	d01a      	beq.n	80023d6 <HAL_TIMEx_MasterConfigSynchronization+0x5e>
 80023a0:	f1b3 4f80 	cmp.w	r3, #1073741824	; 0x40000000
 80023a4:	d017      	beq.n	80023d6 <HAL_TIMEx_MasterConfigSynchronization+0x5e>
 80023a6:	f5a4 447c 	sub.w	r4, r4, #64512	; 0xfc00
 80023aa:	42a3      	cmp	r3, r4
 80023ac:	d013      	beq.n	80023d6 <HAL_TIMEx_MasterConfigSynchronization+0x5e>
 80023ae:	f504 6480 	add.w	r4, r4, #1024	; 0x400
 80023b2:	42a3      	cmp	r3, r4
 80023b4:	d00f      	beq.n	80023d6 <HAL_TIMEx_MasterConfigSynchronization+0x5e>
 80023b6:	f504 6480 	add.w	r4, r4, #1024	; 0x400
 80023ba:	42a3      	cmp	r3, r4
 80023bc:	d00b      	beq.n	80023d6 <HAL_TIMEx_MasterConfigSynchronization+0x5e>
 80023be:	f504 4478 	add.w	r4, r4, #63488	; 0xf800
 80023c2:	42a3      	cmp	r3, r4
 80023c4:	d007      	beq.n	80023d6 <HAL_TIMEx_MasterConfigSynchronization+0x5e>
 80023c6:	f504 5470 	add.w	r4, r4, #15360	; 0x3c00
 80023ca:	42a3      	cmp	r3, r4
 80023cc:	d003      	beq.n	80023d6 <HAL_TIMEx_MasterConfigSynchronization+0x5e>
 80023ce:	f5a4 3494 	sub.w	r4, r4, #75776	; 0x12800
 80023d2:	42a3      	cmp	r3, r4
 80023d4:	d104      	bne.n	80023e0 <HAL_TIMEx_MasterConfigSynchronization+0x68>
 80023d6:	6849      	ldr	r1, [r1, #4]
 80023d8:	f022 0280 	bic.w	r2, r2, #128	; 0x80
 80023dc:	430a      	orrs	r2, r1
 80023de:	609a      	str	r2, [r3, #8]
 80023e0:	2301      	movs	r3, #1
 80023e2:	f880 303d 	strb.w	r3, [r0, #61]	; 0x3d
 80023e6:	2300      	movs	r3, #0
 80023e8:	f880 303c 	strb.w	r3, [r0, #60]	; 0x3c
 80023ec:	4618      	mov	r0, r3
 80023ee:	bd30      	pop	{r4, r5, pc}
 80023f0:	40010000 	.word	0x40010000

080023f4 <HAL_TIMEx_CommutCallback>:
 80023f4:	4770      	bx	lr

080023f6 <HAL_TIMEx_BreakCallback>:
 80023f6:	4770      	bx	lr

080023f8 <UART_EndRxTransfer>:
 80023f8:	6803      	ldr	r3, [r0, #0]
 80023fa:	68da      	ldr	r2, [r3, #12]
 80023fc:	f422 7290 	bic.w	r2, r2, #288	; 0x120
 8002400:	60da      	str	r2, [r3, #12]
 8002402:	695a      	ldr	r2, [r3, #20]
 8002404:	f022 0201 	bic.w	r2, r2, #1
 8002408:	615a      	str	r2, [r3, #20]
 800240a:	6b02      	ldr	r2, [r0, #48]	; 0x30
 800240c:	2a01      	cmp	r2, #1
 800240e:	bf02      	ittt	eq
 8002410:	68da      	ldreq	r2, [r3, #12]
 8002412:	f022 0210 	biceq.w	r2, r2, #16
 8002416:	60da      	streq	r2, [r3, #12]
 8002418:	2320      	movs	r3, #32
 800241a:	f880 303e 	strb.w	r3, [r0, #62]	; 0x3e
 800241e:	2300      	movs	r3, #0
 8002420:	6303      	str	r3, [r0, #48]	; 0x30
 8002422:	4770      	bx	lr

08002424 <UART_SetConfig>:
 8002424:	6802      	ldr	r2, [r0, #0]
 8002426:	68c1      	ldr	r1, [r0, #12]
 8002428:	b538      	push	{r3, r4, r5, lr}
 800242a:	6913      	ldr	r3, [r2, #16]
 800242c:	f423 5340 	bic.w	r3, r3, #12288	; 0x3000
 8002430:	430b      	orrs	r3, r1
 8002432:	6113      	str	r3, [r2, #16]
 8002434:	4605      	mov	r5, r0
 8002436:	6883      	ldr	r3, [r0, #8]
 8002438:	6900      	ldr	r0, [r0, #16]
 800243a:	68d1      	ldr	r1, [r2, #12]
 800243c:	4303      	orrs	r3, r0
 800243e:	6968      	ldr	r0, [r5, #20]
 8002440:	4303      	orrs	r3, r0
 8002442:	69e8      	ldr	r0, [r5, #28]
 8002444:	f421 4116 	bic.w	r1, r1, #38400	; 0x9600
 8002448:	f021 010c 	bic.w	r1, r1, #12
 800244c:	4303      	orrs	r3, r0
 800244e:	430b      	orrs	r3, r1
 8002450:	60d3      	str	r3, [r2, #12]
 8002452:	6953      	ldr	r3, [r2, #20]
 8002454:	69a9      	ldr	r1, [r5, #24]
 8002456:	f423 7340 	bic.w	r3, r3, #768	; 0x300
 800245a:	430b      	orrs	r3, r1
 800245c:	6153      	str	r3, [r2, #20]
 800245e:	4b1f      	ldr	r3, [pc, #124]	; (80024dc <UART_SetConfig+0xb8>)
 8002460:	429a      	cmp	r2, r3
 8002462:	d003      	beq.n	800246c <UART_SetConfig+0x48>
 8002464:	f503 6380 	add.w	r3, r3, #1024	; 0x400
 8002468:	429a      	cmp	r2, r3
 800246a:	d124      	bne.n	80024b6 <UART_SetConfig+0x92>
 800246c:	f7ff fb28 	bl	8001ac0 <HAL_RCC_GetPCLK2Freq>
 8002470:	69ea      	ldr	r2, [r5, #28]
 8002472:	2319      	movs	r3, #25
 8002474:	f5b2 4f00 	cmp.w	r2, #32768	; 0x8000
 8002478:	fba0 0103 	umull	r0, r1, r0, r3
 800247c:	e9d5 4300 	ldrd	r4, r3, [r5]
 8002480:	d11c      	bne.n	80024bc <UART_SetConfig+0x98>
 8002482:	461a      	mov	r2, r3
 8002484:	1892      	adds	r2, r2, r2
 8002486:	f04f 0300 	mov.w	r3, #0
 800248a:	415b      	adcs	r3, r3
 800248c:	f7fd fef8 	bl	8000280 <__aeabi_uldivmod>
 8002490:	2164      	movs	r1, #100	; 0x64
 8002492:	fbb0 f5f1 	udiv	r5, r0, r1
 8002496:	fb01 0315 	mls	r3, r1, r5, r0
 800249a:	00db      	lsls	r3, r3, #3
 800249c:	3332      	adds	r3, #50	; 0x32
 800249e:	fbb3 f3f1 	udiv	r3, r3, r1
 80024a2:	f003 0207 	and.w	r2, r3, #7
 80024a6:	005b      	lsls	r3, r3, #1
 80024a8:	eb02 1205 	add.w	r2, r2, r5, lsl #4
 80024ac:	f403 73f8 	and.w	r3, r3, #496	; 0x1f0
 80024b0:	4413      	add	r3, r2
 80024b2:	60a3      	str	r3, [r4, #8]
 80024b4:	bd38      	pop	{r3, r4, r5, pc}
 80024b6:	f7ff faf3 	bl	8001aa0 <HAL_RCC_GetPCLK1Freq>
 80024ba:	e7d9      	b.n	8002470 <UART_SetConfig+0x4c>
 80024bc:	009a      	lsls	r2, r3, #2
 80024be:	0f9b      	lsrs	r3, r3, #30
 80024c0:	f7fd fede 	bl	8000280 <__aeabi_uldivmod>
 80024c4:	2264      	movs	r2, #100	; 0x64
 80024c6:	fbb0 f1f2 	udiv	r1, r0, r2
 80024ca:	fb02 0311 	mls	r3, r2, r1, r0
 80024ce:	011b      	lsls	r3, r3, #4
 80024d0:	3332      	adds	r3, #50	; 0x32
 80024d2:	fbb3 f3f2 	udiv	r3, r3, r2
 80024d6:	eb03 1301 	add.w	r3, r3, r1, lsl #4
 80024da:	e7ea      	b.n	80024b2 <UART_SetConfig+0x8e>
 80024dc:	40011000 	.word	0x40011000

080024e0 <UART_WaitOnFlagUntilTimeout.constprop.0>:
 80024e0:	b5f8      	push	{r3, r4, r5, r6, r7, lr}
 80024e2:	4604      	mov	r4, r0
 80024e4:	460e      	mov	r6, r1
 80024e6:	4617      	mov	r7, r2
 80024e8:	461d      	mov	r5, r3
 80024ea:	6822      	ldr	r2, [r4, #0]
 80024ec:	6813      	ldr	r3, [r2, #0]
 80024ee:	ea36 0303 	bics.w	r3, r6, r3
 80024f2:	d101      	bne.n	80024f8 <UART_WaitOnFlagUntilTimeout.constprop.0+0x18>
 80024f4:	2000      	movs	r0, #0
 80024f6:	e014      	b.n	8002522 <UART_WaitOnFlagUntilTimeout.constprop.0+0x42>
 80024f8:	1c6b      	adds	r3, r5, #1
 80024fa:	d0f7      	beq.n	80024ec <UART_WaitOnFlagUntilTimeout.constprop.0+0xc>
 80024fc:	b995      	cbnz	r5, 8002524 <UART_WaitOnFlagUntilTimeout.constprop.0+0x44>
 80024fe:	6823      	ldr	r3, [r4, #0]
 8002500:	68da      	ldr	r2, [r3, #12]
 8002502:	f422 72d0 	bic.w	r2, r2, #416	; 0x1a0
 8002506:	60da      	str	r2, [r3, #12]
 8002508:	695a      	ldr	r2, [r3, #20]
 800250a:	f022 0201 	bic.w	r2, r2, #1
 800250e:	615a      	str	r2, [r3, #20]
 8002510:	2320      	movs	r3, #32
 8002512:	f884 303d 	strb.w	r3, [r4, #61]	; 0x3d
 8002516:	f884 303e 	strb.w	r3, [r4, #62]	; 0x3e
 800251a:	2300      	movs	r3, #0
 800251c:	f884 303c 	strb.w	r3, [r4, #60]	; 0x3c
 8002520:	2003      	movs	r0, #3
 8002522:	bdf8      	pop	{r3, r4, r5, r6, r7, pc}
 8002524:	f7fe fd14 	bl	8000f50 <HAL_GetTick>
 8002528:	1bc0      	subs	r0, r0, r7
 800252a:	4285      	cmp	r5, r0
 800252c:	d2dd      	bcs.n	80024ea <UART_WaitOnFlagUntilTimeout.constprop.0+0xa>
 800252e:	e7e6      	b.n	80024fe <UART_WaitOnFlagUntilTimeout.constprop.0+0x1e>

08002530 <HAL_UART_Init>:
 8002530:	b510      	push	{r4, lr}
 8002532:	4604      	mov	r4, r0
 8002534:	b340      	cbz	r0, 8002588 <HAL_UART_Init+0x58>
 8002536:	f890 303d 	ldrb.w	r3, [r0, #61]	; 0x3d
 800253a:	f003 02ff 	and.w	r2, r3, #255	; 0xff
 800253e:	b91b      	cbnz	r3, 8002548 <HAL_UART_Init+0x18>
 8002540:	f880 203c 	strb.w	r2, [r0, #60]	; 0x3c
 8002544:	f7fe fb94 	bl	8000c70 <HAL_UART_MspInit>
 8002548:	6822      	ldr	r2, [r4, #0]
 800254a:	2324      	movs	r3, #36	; 0x24
 800254c:	f884 303d 	strb.w	r3, [r4, #61]	; 0x3d
 8002550:	68d3      	ldr	r3, [r2, #12]
 8002552:	f423 5300 	bic.w	r3, r3, #8192	; 0x2000
 8002556:	60d3      	str	r3, [r2, #12]
 8002558:	4620      	mov	r0, r4
 800255a:	f7ff ff63 	bl	8002424 <UART_SetConfig>
 800255e:	6823      	ldr	r3, [r4, #0]
 8002560:	691a      	ldr	r2, [r3, #16]
 8002562:	f422 4290 	bic.w	r2, r2, #18432	; 0x4800
 8002566:	611a      	str	r2, [r3, #16]
 8002568:	695a      	ldr	r2, [r3, #20]
 800256a:	f022 022a 	bic.w	r2, r2, #42	; 0x2a
 800256e:	615a      	str	r2, [r3, #20]
 8002570:	68da      	ldr	r2, [r3, #12]
 8002572:	f442 5200 	orr.w	r2, r2, #8192	; 0x2000
 8002576:	60da      	str	r2, [r3, #12]
 8002578:	2000      	movs	r0, #0
 800257a:	2320      	movs	r3, #32
 800257c:	6420      	str	r0, [r4, #64]	; 0x40
 800257e:	f884 303d 	strb.w	r3, [r4, #61]	; 0x3d
 8002582:	f884 303e 	strb.w	r3, [r4, #62]	; 0x3e
 8002586:	bd10      	pop	{r4, pc}
 8002588:	2001      	movs	r0, #1
 800258a:	e7fc      	b.n	8002586 <HAL_UART_Init+0x56>

0800258c <HAL_UART_Transmit>:
 800258c:	b5f7      	push	{r0, r1, r2, r4, r5, r6, r7, lr}
 800258e:	4617      	mov	r7, r2
 8002590:	f890 203d 	ldrb.w	r2, [r0, #61]	; 0x3d
 8002594:	9300      	str	r3, [sp, #0]
 8002596:	2a20      	cmp	r2, #32
 8002598:	4604      	mov	r4, r0
 800259a:	460e      	mov	r6, r1
 800259c:	d149      	bne.n	8002632 <HAL_UART_Transmit+0xa6>
 800259e:	2900      	cmp	r1, #0
 80025a0:	d045      	beq.n	800262e <HAL_UART_Transmit+0xa2>
 80025a2:	2f00      	cmp	r7, #0
 80025a4:	d043      	beq.n	800262e <HAL_UART_Transmit+0xa2>
 80025a6:	f890 203c 	ldrb.w	r2, [r0, #60]	; 0x3c
 80025aa:	2a01      	cmp	r2, #1
 80025ac:	d041      	beq.n	8002632 <HAL_UART_Transmit+0xa6>
 80025ae:	2201      	movs	r2, #1
 80025b0:	f880 203c 	strb.w	r2, [r0, #60]	; 0x3c
 80025b4:	2500      	movs	r5, #0
 80025b6:	2221      	movs	r2, #33	; 0x21
 80025b8:	6405      	str	r5, [r0, #64]	; 0x40
 80025ba:	f880 203d 	strb.w	r2, [r0, #61]	; 0x3d
 80025be:	f7fe fcc7 	bl	8000f50 <HAL_GetTick>
 80025c2:	68a1      	ldr	r1, [r4, #8]
 80025c4:	9b00      	ldr	r3, [sp, #0]
 80025c6:	84a7      	strh	r7, [r4, #36]	; 0x24
 80025c8:	f5b1 5f80 	cmp.w	r1, #4096	; 0x1000
 80025cc:	4602      	mov	r2, r0
 80025ce:	84e7      	strh	r7, [r4, #38]	; 0x26
 80025d0:	d103      	bne.n	80025da <HAL_UART_Transmit+0x4e>
 80025d2:	6921      	ldr	r1, [r4, #16]
 80025d4:	b909      	cbnz	r1, 80025da <HAL_UART_Transmit+0x4e>
 80025d6:	4635      	mov	r5, r6
 80025d8:	460e      	mov	r6, r1
 80025da:	2100      	movs	r1, #0
 80025dc:	f884 103c 	strb.w	r1, [r4, #60]	; 0x3c
 80025e0:	8ce1      	ldrh	r1, [r4, #38]	; 0x26
 80025e2:	b289      	uxth	r1, r1
 80025e4:	b941      	cbnz	r1, 80025f8 <HAL_UART_Transmit+0x6c>
 80025e6:	2140      	movs	r1, #64	; 0x40
 80025e8:	4620      	mov	r0, r4
 80025ea:	f7ff ff79 	bl	80024e0 <UART_WaitOnFlagUntilTimeout.constprop.0>
 80025ee:	b960      	cbnz	r0, 800260a <HAL_UART_Transmit+0x7e>
 80025f0:	2320      	movs	r3, #32
 80025f2:	f884 303d 	strb.w	r3, [r4, #61]	; 0x3d
 80025f6:	e009      	b.n	800260c <HAL_UART_Transmit+0x80>
 80025f8:	2180      	movs	r1, #128	; 0x80
 80025fa:	4620      	mov	r0, r4
 80025fc:	e9cd 2300 	strd	r2, r3, [sp]
 8002600:	f7ff ff6e 	bl	80024e0 <UART_WaitOnFlagUntilTimeout.constprop.0>
 8002604:	e9dd 2300 	ldrd	r2, r3, [sp]
 8002608:	b110      	cbz	r0, 8002610 <HAL_UART_Transmit+0x84>
 800260a:	2003      	movs	r0, #3
 800260c:	b003      	add	sp, #12
 800260e:	bdf0      	pop	{r4, r5, r6, r7, pc}
 8002610:	6820      	ldr	r0, [r4, #0]
 8002612:	b94e      	cbnz	r6, 8002628 <HAL_UART_Transmit+0x9c>
 8002614:	f835 1b02 	ldrh.w	r1, [r5], #2
 8002618:	f3c1 0108 	ubfx	r1, r1, #0, #9
 800261c:	6041      	str	r1, [r0, #4]
 800261e:	8ce1      	ldrh	r1, [r4, #38]	; 0x26
 8002620:	3901      	subs	r1, #1
 8002622:	b289      	uxth	r1, r1
 8002624:	84e1      	strh	r1, [r4, #38]	; 0x26
 8002626:	e7db      	b.n	80025e0 <HAL_UART_Transmit+0x54>
 8002628:	f816 1b01 	ldrb.w	r1, [r6], #1
 800262c:	e7f6      	b.n	800261c <HAL_UART_Transmit+0x90>
 800262e:	2001      	movs	r0, #1
 8002630:	e7ec      	b.n	800260c <HAL_UART_Transmit+0x80>
 8002632:	2002      	movs	r0, #2
 8002634:	e7ea      	b.n	800260c <HAL_UART_Transmit+0x80>
	...

08002638 <HAL_UART_Transmit_DMA>:
 8002638:	b538      	push	{r3, r4, r5, lr}
 800263a:	4604      	mov	r4, r0
 800263c:	4613      	mov	r3, r2
 800263e:	f894 203d 	ldrb.w	r2, [r4, #61]	; 0x3d
 8002642:	2a20      	cmp	r2, #32
 8002644:	d12a      	bne.n	800269c <HAL_UART_Transmit_DMA+0x64>
 8002646:	b339      	cbz	r1, 8002698 <HAL_UART_Transmit_DMA+0x60>
 8002648:	b333      	cbz	r3, 8002698 <HAL_UART_Transmit_DMA+0x60>
 800264a:	f894 203c 	ldrb.w	r2, [r4, #60]	; 0x3c
 800264e:	2a01      	cmp	r2, #1
 8002650:	d024      	beq.n	800269c <HAL_UART_Transmit_DMA+0x64>
 8002652:	2201      	movs	r2, #1
 8002654:	f884 203c 	strb.w	r2, [r4, #60]	; 0x3c
 8002658:	6b60      	ldr	r0, [r4, #52]	; 0x34
 800265a:	84e3      	strh	r3, [r4, #38]	; 0x26
 800265c:	2500      	movs	r5, #0
 800265e:	2221      	movs	r2, #33	; 0x21
 8002660:	6425      	str	r5, [r4, #64]	; 0x40
 8002662:	f884 203d 	strb.w	r2, [r4, #61]	; 0x3d
 8002666:	4a0e      	ldr	r2, [pc, #56]	; (80026a0 <HAL_UART_Transmit_DMA+0x68>)
 8002668:	84a3      	strh	r3, [r4, #36]	; 0x24
 800266a:	6221      	str	r1, [r4, #32]
 800266c:	63c2      	str	r2, [r0, #60]	; 0x3c
 800266e:	4a0d      	ldr	r2, [pc, #52]	; (80026a4 <HAL_UART_Transmit_DMA+0x6c>)
 8002670:	6402      	str	r2, [r0, #64]	; 0x40
 8002672:	4a0d      	ldr	r2, [pc, #52]	; (80026a8 <HAL_UART_Transmit_DMA+0x70>)
 8002674:	e9c0 2513 	strd	r2, r5, [r0, #76]	; 0x4c
 8002678:	6822      	ldr	r2, [r4, #0]
 800267a:	3204      	adds	r2, #4
 800267c:	f7fe fd6c 	bl	8001158 <HAL_DMA_Start_IT>
 8002680:	6823      	ldr	r3, [r4, #0]
 8002682:	f06f 0240 	mvn.w	r2, #64	; 0x40
 8002686:	601a      	str	r2, [r3, #0]
 8002688:	f884 503c 	strb.w	r5, [r4, #60]	; 0x3c
 800268c:	695a      	ldr	r2, [r3, #20]
 800268e:	f042 0280 	orr.w	r2, r2, #128	; 0x80
 8002692:	615a      	str	r2, [r3, #20]
 8002694:	4628      	mov	r0, r5
 8002696:	bd38      	pop	{r3, r4, r5, pc}
 8002698:	2001      	movs	r0, #1
 800269a:	e7fc      	b.n	8002696 <HAL_UART_Transmit_DMA+0x5e>
 800269c:	2002      	movs	r0, #2
 800269e:	e7fa      	b.n	8002696 <HAL_UART_Transmit_DMA+0x5e>
 80026a0:	080026ad 	.word	0x080026ad
 80026a4:	080026db 	.word	0x080026db
 80026a8:	080026e9 	.word	0x080026e9

080026ac <UART_DMATransmitCplt>:
 80026ac:	b508      	push	{r3, lr}
 80026ae:	6803      	ldr	r3, [r0, #0]
 80026b0:	6b82      	ldr	r2, [r0, #56]	; 0x38
 80026b2:	681b      	ldr	r3, [r3, #0]
 80026b4:	f413 7380 	ands.w	r3, r3, #256	; 0x100
 80026b8:	d10a      	bne.n	80026d0 <UART_DMATransmitCplt+0x24>
 80026ba:	84d3      	strh	r3, [r2, #38]	; 0x26
 80026bc:	6813      	ldr	r3, [r2, #0]
 80026be:	695a      	ldr	r2, [r3, #20]
 80026c0:	f022 0280 	bic.w	r2, r2, #128	; 0x80
 80026c4:	615a      	str	r2, [r3, #20]
 80026c6:	68da      	ldr	r2, [r3, #12]
 80026c8:	f042 0240 	orr.w	r2, r2, #64	; 0x40
 80026cc:	60da      	str	r2, [r3, #12]
 80026ce:	bd08      	pop	{r3, pc}
 80026d0:	4610      	mov	r0, r2
 80026d2:	f7fe fbc1 	bl	8000e58 <HAL_UART_TxCpltCallback>
 80026d6:	e7fa      	b.n	80026ce <UART_DMATransmitCplt+0x22>

080026d8 <HAL_UART_TxHalfCpltCallback>:
 80026d8:	4770      	bx	lr

080026da <UART_DMATxHalfCplt>:
 80026da:	b508      	push	{r3, lr}
 80026dc:	6b80      	ldr	r0, [r0, #56]	; 0x38
 80026de:	f7ff fffb 	bl	80026d8 <HAL_UART_TxHalfCpltCallback>
 80026e2:	bd08      	pop	{r3, pc}

080026e4 <HAL_UART_RxHalfCpltCallback>:
 80026e4:	4770      	bx	lr

080026e6 <HAL_UART_ErrorCallback>:
 80026e6:	4770      	bx	lr

080026e8 <UART_DMAError>:
 80026e8:	b508      	push	{r3, lr}
 80026ea:	6b80      	ldr	r0, [r0, #56]	; 0x38
 80026ec:	6803      	ldr	r3, [r0, #0]
 80026ee:	695a      	ldr	r2, [r3, #20]
 80026f0:	f890 103d 	ldrb.w	r1, [r0, #61]	; 0x3d
 80026f4:	2921      	cmp	r1, #33	; 0x21
 80026f6:	d10a      	bne.n	800270e <UART_DMAError+0x26>
 80026f8:	0612      	lsls	r2, r2, #24
 80026fa:	d508      	bpl.n	800270e <UART_DMAError+0x26>
 80026fc:	2200      	movs	r2, #0
 80026fe:	84c2      	strh	r2, [r0, #38]	; 0x26
 8002700:	68da      	ldr	r2, [r3, #12]
 8002702:	f022 02c0 	bic.w	r2, r2, #192	; 0xc0
 8002706:	60da      	str	r2, [r3, #12]
 8002708:	2220      	movs	r2, #32
 800270a:	f880 203d 	strb.w	r2, [r0, #61]	; 0x3d
 800270e:	695b      	ldr	r3, [r3, #20]
 8002710:	f890 203e 	ldrb.w	r2, [r0, #62]	; 0x3e
 8002714:	2a22      	cmp	r2, #34	; 0x22
 8002716:	d105      	bne.n	8002724 <UART_DMAError+0x3c>
 8002718:	065b      	lsls	r3, r3, #25
 800271a:	d503      	bpl.n	8002724 <UART_DMAError+0x3c>
 800271c:	2300      	movs	r3, #0
 800271e:	85c3      	strh	r3, [r0, #46]	; 0x2e
 8002720:	f7ff fe6a 	bl	80023f8 <UART_EndRxTransfer>
 8002724:	6c03      	ldr	r3, [r0, #64]	; 0x40
 8002726:	f043 0310 	orr.w	r3, r3, #16
 800272a:	6403      	str	r3, [r0, #64]	; 0x40
 800272c:	f7ff ffdb 	bl	80026e6 <HAL_UART_ErrorCallback>
 8002730:	bd08      	pop	{r3, pc}

08002732 <UART_DMAAbortOnError>:
 8002732:	b508      	push	{r3, lr}
 8002734:	6b80      	ldr	r0, [r0, #56]	; 0x38
 8002736:	2300      	movs	r3, #0
 8002738:	85c3      	strh	r3, [r0, #46]	; 0x2e
 800273a:	84c3      	strh	r3, [r0, #38]	; 0x26
 800273c:	f7ff ffd3 	bl	80026e6 <HAL_UART_ErrorCallback>
 8002740:	bd08      	pop	{r3, pc}

08002742 <HAL_UARTEx_RxEventCallback>:
 8002742:	4770      	bx	lr

08002744 <UART_Receive_IT>:
 8002744:	b510      	push	{r4, lr}
 8002746:	f890 303e 	ldrb.w	r3, [r0, #62]	; 0x3e
 800274a:	2b22      	cmp	r3, #34	; 0x22
 800274c:	4604      	mov	r4, r0
 800274e:	d143      	bne.n	80027d8 <UART_Receive_IT+0x94>
 8002750:	6881      	ldr	r1, [r0, #8]
 8002752:	6a83      	ldr	r3, [r0, #40]	; 0x28
 8002754:	6802      	ldr	r2, [r0, #0]
 8002756:	f5b1 5f80 	cmp.w	r1, #4096	; 0x1000
 800275a:	d12c      	bne.n	80027b6 <UART_Receive_IT+0x72>
 800275c:	6901      	ldr	r1, [r0, #16]
 800275e:	2900      	cmp	r1, #0
 8002760:	d12c      	bne.n	80027bc <UART_Receive_IT+0x78>
 8002762:	6852      	ldr	r2, [r2, #4]
 8002764:	f3c2 0208 	ubfx	r2, r2, #0, #9
 8002768:	f823 2b02 	strh.w	r2, [r3], #2
 800276c:	62a3      	str	r3, [r4, #40]	; 0x28
 800276e:	8de3      	ldrh	r3, [r4, #46]	; 0x2e
 8002770:	3b01      	subs	r3, #1
 8002772:	b29b      	uxth	r3, r3
 8002774:	85e3      	strh	r3, [r4, #46]	; 0x2e
 8002776:	2b00      	cmp	r3, #0
 8002778:	d130      	bne.n	80027dc <UART_Receive_IT+0x98>
 800277a:	6823      	ldr	r3, [r4, #0]
 800277c:	68da      	ldr	r2, [r3, #12]
 800277e:	f022 0220 	bic.w	r2, r2, #32
 8002782:	60da      	str	r2, [r3, #12]
 8002784:	68da      	ldr	r2, [r3, #12]
 8002786:	f422 7280 	bic.w	r2, r2, #256	; 0x100
 800278a:	60da      	str	r2, [r3, #12]
 800278c:	695a      	ldr	r2, [r3, #20]
 800278e:	f022 0201 	bic.w	r2, r2, #1
 8002792:	615a      	str	r2, [r3, #20]
 8002794:	2220      	movs	r2, #32
 8002796:	f884 203e 	strb.w	r2, [r4, #62]	; 0x3e
 800279a:	6b22      	ldr	r2, [r4, #48]	; 0x30
 800279c:	2a01      	cmp	r2, #1
 800279e:	d117      	bne.n	80027d0 <UART_Receive_IT+0x8c>
 80027a0:	68da      	ldr	r2, [r3, #12]
 80027a2:	8da1      	ldrh	r1, [r4, #44]	; 0x2c
 80027a4:	f022 0210 	bic.w	r2, r2, #16
 80027a8:	60da      	str	r2, [r3, #12]
 80027aa:	4620      	mov	r0, r4
 80027ac:	f7ff ffc9 	bl	8002742 <HAL_UARTEx_RxEventCallback>
 80027b0:	2000      	movs	r0, #0
 80027b2:	6320      	str	r0, [r4, #48]	; 0x30
 80027b4:	bd10      	pop	{r4, pc}
 80027b6:	b939      	cbnz	r1, 80027c8 <UART_Receive_IT+0x84>
 80027b8:	6901      	ldr	r1, [r0, #16]
 80027ba:	b929      	cbnz	r1, 80027c8 <UART_Receive_IT+0x84>
 80027bc:	6852      	ldr	r2, [r2, #4]
 80027be:	b2d2      	uxtb	r2, r2
 80027c0:	701a      	strb	r2, [r3, #0]
 80027c2:	6aa3      	ldr	r3, [r4, #40]	; 0x28
 80027c4:	3301      	adds	r3, #1
 80027c6:	e7d1      	b.n	800276c <UART_Receive_IT+0x28>
 80027c8:	6852      	ldr	r2, [r2, #4]
 80027ca:	f002 027f 	and.w	r2, r2, #127	; 0x7f
 80027ce:	e7f7      	b.n	80027c0 <UART_Receive_IT+0x7c>
 80027d0:	4620      	mov	r0, r4
 80027d2:	f7fe fac9 	bl	8000d68 <HAL_UART_RxCpltCallback>
 80027d6:	e7eb      	b.n	80027b0 <UART_Receive_IT+0x6c>
 80027d8:	2002      	movs	r0, #2
 80027da:	e7eb      	b.n	80027b4 <UART_Receive_IT+0x70>
 80027dc:	2000      	movs	r0, #0
 80027de:	e7e9      	b.n	80027b4 <UART_Receive_IT+0x70>

080027e0 <HAL_UART_IRQHandler>:
 80027e0:	6803      	ldr	r3, [r0, #0]
 80027e2:	b537      	push	{r0, r1, r2, r4, r5, lr}
 80027e4:	681a      	ldr	r2, [r3, #0]
 80027e6:	68d9      	ldr	r1, [r3, #12]
 80027e8:	695d      	ldr	r5, [r3, #20]
 80027ea:	f012 0f0f 	tst.w	r2, #15
 80027ee:	4604      	mov	r4, r0
 80027f0:	d108      	bne.n	8002804 <HAL_UART_IRQHandler+0x24>
 80027f2:	0695      	lsls	r5, r2, #26
 80027f4:	d55f      	bpl.n	80028b6 <HAL_UART_IRQHandler+0xd6>
 80027f6:	068d      	lsls	r5, r1, #26
 80027f8:	d55d      	bpl.n	80028b6 <HAL_UART_IRQHandler+0xd6>
 80027fa:	b003      	add	sp, #12
 80027fc:	e8bd 4030 	ldmia.w	sp!, {r4, r5, lr}
 8002800:	f7ff bfa0 	b.w	8002744 <UART_Receive_IT>
 8002804:	f005 0001 	and.w	r0, r5, #1
 8002808:	f401 7590 	and.w	r5, r1, #288	; 0x120
 800280c:	4305      	orrs	r5, r0
 800280e:	d052      	beq.n	80028b6 <HAL_UART_IRQHandler+0xd6>
 8002810:	07d5      	lsls	r5, r2, #31
 8002812:	d505      	bpl.n	8002820 <HAL_UART_IRQHandler+0x40>
 8002814:	05cb      	lsls	r3, r1, #23
 8002816:	bf42      	ittt	mi
 8002818:	6c23      	ldrmi	r3, [r4, #64]	; 0x40
 800281a:	f043 0301 	orrmi.w	r3, r3, #1
 800281e:	6423      	strmi	r3, [r4, #64]	; 0x40
 8002820:	0755      	lsls	r5, r2, #29
 8002822:	d504      	bpl.n	800282e <HAL_UART_IRQHandler+0x4e>
 8002824:	b118      	cbz	r0, 800282e <HAL_UART_IRQHandler+0x4e>
 8002826:	6c23      	ldr	r3, [r4, #64]	; 0x40
 8002828:	f043 0302 	orr.w	r3, r3, #2
 800282c:	6423      	str	r3, [r4, #64]	; 0x40
 800282e:	0793      	lsls	r3, r2, #30
 8002830:	d504      	bpl.n	800283c <HAL_UART_IRQHandler+0x5c>
 8002832:	b118      	cbz	r0, 800283c <HAL_UART_IRQHandler+0x5c>
 8002834:	6c23      	ldr	r3, [r4, #64]	; 0x40
 8002836:	f043 0304 	orr.w	r3, r3, #4
 800283a:	6423      	str	r3, [r4, #64]	; 0x40
 800283c:	0715      	lsls	r5, r2, #28
 800283e:	d507      	bpl.n	8002850 <HAL_UART_IRQHandler+0x70>
 8002840:	f001 0320 	and.w	r3, r1, #32
 8002844:	4303      	orrs	r3, r0
 8002846:	bf1e      	ittt	ne
 8002848:	6c23      	ldrne	r3, [r4, #64]	; 0x40
 800284a:	f043 0308 	orrne.w	r3, r3, #8
 800284e:	6423      	strne	r3, [r4, #64]	; 0x40
 8002850:	6c23      	ldr	r3, [r4, #64]	; 0x40
 8002852:	b353      	cbz	r3, 80028aa <HAL_UART_IRQHandler+0xca>
 8002854:	0692      	lsls	r2, r2, #26
 8002856:	d504      	bpl.n	8002862 <HAL_UART_IRQHandler+0x82>
 8002858:	068b      	lsls	r3, r1, #26
 800285a:	d502      	bpl.n	8002862 <HAL_UART_IRQHandler+0x82>
 800285c:	4620      	mov	r0, r4
 800285e:	f7ff ff71 	bl	8002744 <UART_Receive_IT>
 8002862:	6823      	ldr	r3, [r4, #0]
 8002864:	695b      	ldr	r3, [r3, #20]
 8002866:	6c25      	ldr	r5, [r4, #64]	; 0x40
 8002868:	f003 0340 	and.w	r3, r3, #64	; 0x40
 800286c:	f005 0508 	and.w	r5, r5, #8
 8002870:	431d      	orrs	r5, r3
 8002872:	4620      	mov	r0, r4
 8002874:	d01b      	beq.n	80028ae <HAL_UART_IRQHandler+0xce>
 8002876:	f7ff fdbf 	bl	80023f8 <UART_EndRxTransfer>
 800287a:	6823      	ldr	r3, [r4, #0]
 800287c:	695a      	ldr	r2, [r3, #20]
 800287e:	0655      	lsls	r5, r2, #25
 8002880:	d510      	bpl.n	80028a4 <HAL_UART_IRQHandler+0xc4>
 8002882:	695a      	ldr	r2, [r3, #20]
 8002884:	6ba0      	ldr	r0, [r4, #56]	; 0x38
 8002886:	f022 0240 	bic.w	r2, r2, #64	; 0x40
 800288a:	615a      	str	r2, [r3, #20]
 800288c:	b150      	cbz	r0, 80028a4 <HAL_UART_IRQHandler+0xc4>
 800288e:	4b54      	ldr	r3, [pc, #336]	; (80029e0 <HAL_UART_IRQHandler+0x200>)
 8002890:	6503      	str	r3, [r0, #80]	; 0x50
 8002892:	f7fe fcdf 	bl	8001254 <HAL_DMA_Abort_IT>
 8002896:	b140      	cbz	r0, 80028aa <HAL_UART_IRQHandler+0xca>
 8002898:	6ba0      	ldr	r0, [r4, #56]	; 0x38
 800289a:	6d03      	ldr	r3, [r0, #80]	; 0x50
 800289c:	b003      	add	sp, #12
 800289e:	e8bd 4030 	ldmia.w	sp!, {r4, r5, lr}
 80028a2:	4718      	bx	r3
 80028a4:	4620      	mov	r0, r4
 80028a6:	f7ff ff1e 	bl	80026e6 <HAL_UART_ErrorCallback>
 80028aa:	b003      	add	sp, #12
 80028ac:	bd30      	pop	{r4, r5, pc}
 80028ae:	f7ff ff1a 	bl	80026e6 <HAL_UART_ErrorCallback>
 80028b2:	6425      	str	r5, [r4, #64]	; 0x40
 80028b4:	e7f9      	b.n	80028aa <HAL_UART_IRQHandler+0xca>
 80028b6:	6b20      	ldr	r0, [r4, #48]	; 0x30
 80028b8:	2801      	cmp	r0, #1
 80028ba:	d156      	bne.n	800296a <HAL_UART_IRQHandler+0x18a>
 80028bc:	06d0      	lsls	r0, r2, #27
 80028be:	d554      	bpl.n	800296a <HAL_UART_IRQHandler+0x18a>
 80028c0:	06cd      	lsls	r5, r1, #27
 80028c2:	d552      	bpl.n	800296a <HAL_UART_IRQHandler+0x18a>
 80028c4:	2100      	movs	r1, #0
 80028c6:	9101      	str	r1, [sp, #4]
 80028c8:	681a      	ldr	r2, [r3, #0]
 80028ca:	9201      	str	r2, [sp, #4]
 80028cc:	685a      	ldr	r2, [r3, #4]
 80028ce:	9201      	str	r2, [sp, #4]
 80028d0:	9a01      	ldr	r2, [sp, #4]
 80028d2:	695a      	ldr	r2, [r3, #20]
 80028d4:	f012 0240 	ands.w	r2, r2, #64	; 0x40
 80028d8:	d02b      	beq.n	8002932 <HAL_UART_IRQHandler+0x152>
 80028da:	6ba0      	ldr	r0, [r4, #56]	; 0x38
 80028dc:	6802      	ldr	r2, [r0, #0]
 80028de:	6852      	ldr	r2, [r2, #4]
 80028e0:	b292      	uxth	r2, r2
 80028e2:	2a00      	cmp	r2, #0
 80028e4:	d0e1      	beq.n	80028aa <HAL_UART_IRQHandler+0xca>
 80028e6:	8da5      	ldrh	r5, [r4, #44]	; 0x2c
 80028e8:	4295      	cmp	r5, r2
 80028ea:	d9de      	bls.n	80028aa <HAL_UART_IRQHandler+0xca>
 80028ec:	85e2      	strh	r2, [r4, #46]	; 0x2e
 80028ee:	69c2      	ldr	r2, [r0, #28]
 80028f0:	f5b2 7f80 	cmp.w	r2, #256	; 0x100
 80028f4:	d015      	beq.n	8002922 <HAL_UART_IRQHandler+0x142>
 80028f6:	68da      	ldr	r2, [r3, #12]
 80028f8:	f422 7280 	bic.w	r2, r2, #256	; 0x100
 80028fc:	60da      	str	r2, [r3, #12]
 80028fe:	695a      	ldr	r2, [r3, #20]
 8002900:	f022 0201 	bic.w	r2, r2, #1
 8002904:	615a      	str	r2, [r3, #20]
 8002906:	695a      	ldr	r2, [r3, #20]
 8002908:	f022 0240 	bic.w	r2, r2, #64	; 0x40
 800290c:	615a      	str	r2, [r3, #20]
 800290e:	2220      	movs	r2, #32
 8002910:	f884 203e 	strb.w	r2, [r4, #62]	; 0x3e
 8002914:	6321      	str	r1, [r4, #48]	; 0x30
 8002916:	68da      	ldr	r2, [r3, #12]
 8002918:	f022 0210 	bic.w	r2, r2, #16
 800291c:	60da      	str	r2, [r3, #12]
 800291e:	f7fe fc55 	bl	80011cc <HAL_DMA_Abort>
 8002922:	8de3      	ldrh	r3, [r4, #46]	; 0x2e
 8002924:	8da1      	ldrh	r1, [r4, #44]	; 0x2c
 8002926:	1ac9      	subs	r1, r1, r3
 8002928:	b289      	uxth	r1, r1
 800292a:	4620      	mov	r0, r4
 800292c:	f7ff ff09 	bl	8002742 <HAL_UARTEx_RxEventCallback>
 8002930:	e7bb      	b.n	80028aa <HAL_UART_IRQHandler+0xca>
 8002932:	8de1      	ldrh	r1, [r4, #46]	; 0x2e
 8002934:	b288      	uxth	r0, r1
 8002936:	8de1      	ldrh	r1, [r4, #46]	; 0x2e
 8002938:	b289      	uxth	r1, r1
 800293a:	2900      	cmp	r1, #0
 800293c:	d0b5      	beq.n	80028aa <HAL_UART_IRQHandler+0xca>
 800293e:	8da1      	ldrh	r1, [r4, #44]	; 0x2c
 8002940:	1a09      	subs	r1, r1, r0
 8002942:	b289      	uxth	r1, r1
 8002944:	2900      	cmp	r1, #0
 8002946:	d0b0      	beq.n	80028aa <HAL_UART_IRQHandler+0xca>
 8002948:	68d8      	ldr	r0, [r3, #12]
 800294a:	f420 7090 	bic.w	r0, r0, #288	; 0x120
 800294e:	60d8      	str	r0, [r3, #12]
 8002950:	6958      	ldr	r0, [r3, #20]
 8002952:	f020 0001 	bic.w	r0, r0, #1
 8002956:	6158      	str	r0, [r3, #20]
 8002958:	2020      	movs	r0, #32
 800295a:	f884 003e 	strb.w	r0, [r4, #62]	; 0x3e
 800295e:	6322      	str	r2, [r4, #48]	; 0x30
 8002960:	68da      	ldr	r2, [r3, #12]
 8002962:	f022 0210 	bic.w	r2, r2, #16
 8002966:	60da      	str	r2, [r3, #12]
 8002968:	e7df      	b.n	800292a <HAL_UART_IRQHandler+0x14a>
 800296a:	0610      	lsls	r0, r2, #24
 800296c:	d526      	bpl.n	80029bc <HAL_UART_IRQHandler+0x1dc>
 800296e:	060d      	lsls	r5, r1, #24
 8002970:	d524      	bpl.n	80029bc <HAL_UART_IRQHandler+0x1dc>
 8002972:	f894 203d 	ldrb.w	r2, [r4, #61]	; 0x3d
 8002976:	2a21      	cmp	r2, #33	; 0x21
 8002978:	d197      	bne.n	80028aa <HAL_UART_IRQHandler+0xca>
 800297a:	68a1      	ldr	r1, [r4, #8]
 800297c:	6a22      	ldr	r2, [r4, #32]
 800297e:	f5b1 5f80 	cmp.w	r1, #4096	; 0x1000
 8002982:	d116      	bne.n	80029b2 <HAL_UART_IRQHandler+0x1d2>
 8002984:	6921      	ldr	r1, [r4, #16]
 8002986:	b9a1      	cbnz	r1, 80029b2 <HAL_UART_IRQHandler+0x1d2>
 8002988:	f832 1b02 	ldrh.w	r1, [r2], #2
 800298c:	f3c1 0108 	ubfx	r1, r1, #0, #9
 8002990:	6059      	str	r1, [r3, #4]
 8002992:	6222      	str	r2, [r4, #32]
 8002994:	8ce2      	ldrh	r2, [r4, #38]	; 0x26
 8002996:	3a01      	subs	r2, #1
 8002998:	b292      	uxth	r2, r2
 800299a:	84e2      	strh	r2, [r4, #38]	; 0x26
 800299c:	2a00      	cmp	r2, #0
 800299e:	d184      	bne.n	80028aa <HAL_UART_IRQHandler+0xca>
 80029a0:	68da      	ldr	r2, [r3, #12]
 80029a2:	f022 0280 	bic.w	r2, r2, #128	; 0x80
 80029a6:	60da      	str	r2, [r3, #12]
 80029a8:	68da      	ldr	r2, [r3, #12]
 80029aa:	f042 0240 	orr.w	r2, r2, #64	; 0x40
 80029ae:	60da      	str	r2, [r3, #12]
 80029b0:	e77b      	b.n	80028aa <HAL_UART_IRQHandler+0xca>
 80029b2:	1c51      	adds	r1, r2, #1
 80029b4:	6221      	str	r1, [r4, #32]
 80029b6:	7812      	ldrb	r2, [r2, #0]
 80029b8:	605a      	str	r2, [r3, #4]
 80029ba:	e7eb      	b.n	8002994 <HAL_UART_IRQHandler+0x1b4>
 80029bc:	0650      	lsls	r0, r2, #25
 80029be:	f57f af74 	bpl.w	80028aa <HAL_UART_IRQHandler+0xca>
 80029c2:	064a      	lsls	r2, r1, #25
 80029c4:	f57f af71 	bpl.w	80028aa <HAL_UART_IRQHandler+0xca>
 80029c8:	68da      	ldr	r2, [r3, #12]
 80029ca:	f022 0240 	bic.w	r2, r2, #64	; 0x40
 80029ce:	60da      	str	r2, [r3, #12]
 80029d0:	2320      	movs	r3, #32
 80029d2:	f884 303d 	strb.w	r3, [r4, #61]	; 0x3d
 80029d6:	4620      	mov	r0, r4
 80029d8:	f7fe fa3e 	bl	8000e58 <HAL_UART_TxCpltCallback>
 80029dc:	e765      	b.n	80028aa <HAL_UART_IRQHandler+0xca>
 80029de:	bf00      	nop
 80029e0:	08002733 	.word	0x08002733

080029e4 <UART_DMARxHalfCplt>:
 80029e4:	6b80      	ldr	r0, [r0, #56]	; 0x38
 80029e6:	b508      	push	{r3, lr}
 80029e8:	6b03      	ldr	r3, [r0, #48]	; 0x30
 80029ea:	2b01      	cmp	r3, #1
 80029ec:	d104      	bne.n	80029f8 <UART_DMARxHalfCplt+0x14>
 80029ee:	8d81      	ldrh	r1, [r0, #44]	; 0x2c
 80029f0:	0849      	lsrs	r1, r1, #1
 80029f2:	f7ff fea6 	bl	8002742 <HAL_UARTEx_RxEventCallback>
 80029f6:	bd08      	pop	{r3, pc}
 80029f8:	f7ff fe74 	bl	80026e4 <HAL_UART_RxHalfCpltCallback>
 80029fc:	e7fb      	b.n	80029f6 <UART_DMARxHalfCplt+0x12>

080029fe <UART_DMAReceiveCplt>:
 80029fe:	b508      	push	{r3, lr}
 8002a00:	4603      	mov	r3, r0
 8002a02:	6b80      	ldr	r0, [r0, #56]	; 0x38
 8002a04:	681b      	ldr	r3, [r3, #0]
 8002a06:	681b      	ldr	r3, [r3, #0]
 8002a08:	f413 7380 	ands.w	r3, r3, #256	; 0x100
 8002a0c:	d117      	bne.n	8002a3e <UART_DMAReceiveCplt+0x40>
 8002a0e:	85c3      	strh	r3, [r0, #46]	; 0x2e
 8002a10:	6803      	ldr	r3, [r0, #0]
 8002a12:	68da      	ldr	r2, [r3, #12]
 8002a14:	f422 7280 	bic.w	r2, r2, #256	; 0x100
 8002a18:	60da      	str	r2, [r3, #12]
 8002a1a:	695a      	ldr	r2, [r3, #20]
 8002a1c:	f022 0201 	bic.w	r2, r2, #1
 8002a20:	615a      	str	r2, [r3, #20]
 8002a22:	695a      	ldr	r2, [r3, #20]
 8002a24:	f022 0240 	bic.w	r2, r2, #64	; 0x40
 8002a28:	615a      	str	r2, [r3, #20]
 8002a2a:	2220      	movs	r2, #32
 8002a2c:	f880 203e 	strb.w	r2, [r0, #62]	; 0x3e
 8002a30:	6b02      	ldr	r2, [r0, #48]	; 0x30
 8002a32:	2a01      	cmp	r2, #1
 8002a34:	bf02      	ittt	eq
 8002a36:	68da      	ldreq	r2, [r3, #12]
 8002a38:	f022 0210 	biceq.w	r2, r2, #16
 8002a3c:	60da      	streq	r2, [r3, #12]
 8002a3e:	6b03      	ldr	r3, [r0, #48]	; 0x30
 8002a40:	2b01      	cmp	r3, #1
 8002a42:	d103      	bne.n	8002a4c <UART_DMAReceiveCplt+0x4e>
 8002a44:	8d81      	ldrh	r1, [r0, #44]	; 0x2c
 8002a46:	f7ff fe7c 	bl	8002742 <HAL_UARTEx_RxEventCallback>
 8002a4a:	bd08      	pop	{r3, pc}
 8002a4c:	f7fe f98c 	bl	8000d68 <HAL_UART_RxCpltCallback>
 8002a50:	e7fb      	b.n	8002a4a <UART_DMAReceiveCplt+0x4c>
	...

08002a54 <UART_Start_Receive_DMA>:
 8002a54:	b573      	push	{r0, r1, r4, r5, r6, lr}
 8002a56:	2322      	movs	r3, #34	; 0x22
 8002a58:	2500      	movs	r5, #0
 8002a5a:	4604      	mov	r4, r0
 8002a5c:	6405      	str	r5, [r0, #64]	; 0x40
 8002a5e:	6281      	str	r1, [r0, #40]	; 0x28
 8002a60:	f880 303e 	strb.w	r3, [r0, #62]	; 0x3e
 8002a64:	8582      	strh	r2, [r0, #44]	; 0x2c
 8002a66:	6b80      	ldr	r0, [r0, #56]	; 0x38
 8002a68:	4b12      	ldr	r3, [pc, #72]	; (8002ab4 <UART_Start_Receive_DMA+0x60>)
 8002a6a:	63c3      	str	r3, [r0, #60]	; 0x3c
 8002a6c:	4b12      	ldr	r3, [pc, #72]	; (8002ab8 <UART_Start_Receive_DMA+0x64>)
 8002a6e:	6826      	ldr	r6, [r4, #0]
 8002a70:	6403      	str	r3, [r0, #64]	; 0x40
 8002a72:	4b12      	ldr	r3, [pc, #72]	; (8002abc <UART_Start_Receive_DMA+0x68>)
 8002a74:	e9c0 3513 	strd	r3, r5, [r0, #76]	; 0x4c
 8002a78:	4613      	mov	r3, r2
 8002a7a:	460a      	mov	r2, r1
 8002a7c:	1d31      	adds	r1, r6, #4
 8002a7e:	f7fe fb6b 	bl	8001158 <HAL_DMA_Start_IT>
 8002a82:	6823      	ldr	r3, [r4, #0]
 8002a84:	9501      	str	r5, [sp, #4]
 8002a86:	681a      	ldr	r2, [r3, #0]
 8002a88:	9201      	str	r2, [sp, #4]
 8002a8a:	685a      	ldr	r2, [r3, #4]
 8002a8c:	9201      	str	r2, [sp, #4]
 8002a8e:	f884 503c 	strb.w	r5, [r4, #60]	; 0x3c
 8002a92:	9a01      	ldr	r2, [sp, #4]
 8002a94:	68da      	ldr	r2, [r3, #12]
 8002a96:	f442 7280 	orr.w	r2, r2, #256	; 0x100
 8002a9a:	60da      	str	r2, [r3, #12]
 8002a9c:	695a      	ldr	r2, [r3, #20]
 8002a9e:	f042 0201 	orr.w	r2, r2, #1
 8002aa2:	615a      	str	r2, [r3, #20]
 8002aa4:	695a      	ldr	r2, [r3, #20]
 8002aa6:	4628      	mov	r0, r5
 8002aa8:	f042 0240 	orr.w	r2, r2, #64	; 0x40
 8002aac:	615a      	str	r2, [r3, #20]
 8002aae:	b002      	add	sp, #8
 8002ab0:	bd70      	pop	{r4, r5, r6, pc}
 8002ab2:	bf00      	nop
 8002ab4:	080029ff 	.word	0x080029ff
 8002ab8:	080029e5 	.word	0x080029e5
 8002abc:	080026e9 	.word	0x080026e9

08002ac0 <HAL_UART_Receive_DMA>:
 8002ac0:	b470      	push	{r4, r5, r6}
 8002ac2:	f890 603e 	ldrb.w	r6, [r0, #62]	; 0x3e
 8002ac6:	2e20      	cmp	r6, #32
 8002ac8:	d110      	bne.n	8002aec <HAL_UART_Receive_DMA+0x2c>
 8002aca:	b161      	cbz	r1, 8002ae6 <HAL_UART_Receive_DMA+0x26>
 8002acc:	b15a      	cbz	r2, 8002ae6 <HAL_UART_Receive_DMA+0x26>
 8002ace:	f890 403c 	ldrb.w	r4, [r0, #60]	; 0x3c
 8002ad2:	2c01      	cmp	r4, #1
 8002ad4:	d00a      	beq.n	8002aec <HAL_UART_Receive_DMA+0x2c>
 8002ad6:	2401      	movs	r4, #1
 8002ad8:	f880 403c 	strb.w	r4, [r0, #60]	; 0x3c
 8002adc:	2400      	movs	r4, #0
 8002ade:	6304      	str	r4, [r0, #48]	; 0x30
 8002ae0:	bc70      	pop	{r4, r5, r6}
 8002ae2:	f7ff bfb7 	b.w	8002a54 <UART_Start_Receive_DMA>
 8002ae6:	2001      	movs	r0, #1
 8002ae8:	bc70      	pop	{r4, r5, r6}
 8002aea:	4770      	bx	lr
 8002aec:	2002      	movs	r0, #2
 8002aee:	e7fb      	b.n	8002ae8 <HAL_UART_Receive_DMA+0x28>

08002af0 <__errno>:
 8002af0:	4b01      	ldr	r3, [pc, #4]	; (8002af8 <__errno+0x8>)
 8002af2:	6818      	ldr	r0, [r3, #0]
 8002af4:	4770      	bx	lr
 8002af6:	bf00      	nop
 8002af8:	2000001c 	.word	0x2000001c

08002afc <__libc_init_array>:
 8002afc:	b570      	push	{r4, r5, r6, lr}
 8002afe:	4d0d      	ldr	r5, [pc, #52]	; (8002b34 <__libc_init_array+0x38>)
 8002b00:	4c0d      	ldr	r4, [pc, #52]	; (8002b38 <__libc_init_array+0x3c>)
 8002b02:	1b64      	subs	r4, r4, r5
 8002b04:	10a4      	asrs	r4, r4, #2
 8002b06:	2600      	movs	r6, #0
 8002b08:	42a6      	cmp	r6, r4
 8002b0a:	d109      	bne.n	8002b20 <__libc_init_array+0x24>
 8002b0c:	4d0b      	ldr	r5, [pc, #44]	; (8002b3c <__libc_init_array+0x40>)
 8002b0e:	4c0c      	ldr	r4, [pc, #48]	; (8002b40 <__libc_init_array+0x44>)
 8002b10:	f000 fc56 	bl	80033c0 <_init>
 8002b14:	1b64      	subs	r4, r4, r5
 8002b16:	10a4      	asrs	r4, r4, #2
 8002b18:	2600      	movs	r6, #0
 8002b1a:	42a6      	cmp	r6, r4
 8002b1c:	d105      	bne.n	8002b2a <__libc_init_array+0x2e>
 8002b1e:	bd70      	pop	{r4, r5, r6, pc}
 8002b20:	f855 3b04 	ldr.w	r3, [r5], #4
 8002b24:	4798      	blx	r3
 8002b26:	3601      	adds	r6, #1
 8002b28:	e7ee      	b.n	8002b08 <__libc_init_array+0xc>
 8002b2a:	f855 3b04 	ldr.w	r3, [r5], #4
 8002b2e:	4798      	blx	r3
 8002b30:	3601      	adds	r6, #1
 8002b32:	e7f2      	b.n	8002b1a <__libc_init_array+0x1e>
 8002b34:	08003468 	.word	0x08003468
 8002b38:	08003468 	.word	0x08003468
 8002b3c:	08003468 	.word	0x08003468
 8002b40:	0800346c 	.word	0x0800346c

08002b44 <memset>:
 8002b44:	4402      	add	r2, r0
 8002b46:	4603      	mov	r3, r0
 8002b48:	4293      	cmp	r3, r2
 8002b4a:	d100      	bne.n	8002b4e <memset+0xa>
 8002b4c:	4770      	bx	lr
 8002b4e:	f803 1b01 	strb.w	r1, [r3], #1
 8002b52:	e7f9      	b.n	8002b48 <memset+0x4>

08002b54 <siprintf>:
 8002b54:	b40e      	push	{r1, r2, r3}
 8002b56:	b500      	push	{lr}
 8002b58:	b09c      	sub	sp, #112	; 0x70
 8002b5a:	ab1d      	add	r3, sp, #116	; 0x74
 8002b5c:	9002      	str	r0, [sp, #8]
 8002b5e:	9006      	str	r0, [sp, #24]
 8002b60:	f06f 4100 	mvn.w	r1, #2147483648	; 0x80000000
 8002b64:	4809      	ldr	r0, [pc, #36]	; (8002b8c <siprintf+0x38>)
 8002b66:	9107      	str	r1, [sp, #28]
 8002b68:	9104      	str	r1, [sp, #16]
 8002b6a:	4909      	ldr	r1, [pc, #36]	; (8002b90 <siprintf+0x3c>)
 8002b6c:	f853 2b04 	ldr.w	r2, [r3], #4
 8002b70:	9105      	str	r1, [sp, #20]
 8002b72:	6800      	ldr	r0, [r0, #0]
 8002b74:	9301      	str	r3, [sp, #4]
 8002b76:	a902      	add	r1, sp, #8
 8002b78:	f000 f870 	bl	8002c5c <_svfiprintf_r>
 8002b7c:	9b02      	ldr	r3, [sp, #8]
 8002b7e:	2200      	movs	r2, #0
 8002b80:	701a      	strb	r2, [r3, #0]
 8002b82:	b01c      	add	sp, #112	; 0x70
 8002b84:	f85d eb04 	ldr.w	lr, [sp], #4
 8002b88:	b003      	add	sp, #12
 8002b8a:	4770      	bx	lr
 8002b8c:	2000001c 	.word	0x2000001c
 8002b90:	ffff0208 	.word	0xffff0208

08002b94 <strcpy>:
 8002b94:	4603      	mov	r3, r0
 8002b96:	f811 2b01 	ldrb.w	r2, [r1], #1
 8002b9a:	f803 2b01 	strb.w	r2, [r3], #1
 8002b9e:	2a00      	cmp	r2, #0
 8002ba0:	d1f9      	bne.n	8002b96 <strcpy+0x2>
 8002ba2:	4770      	bx	lr

08002ba4 <__ssputs_r>:
 8002ba4:	e92d 47f0 	stmdb	sp!, {r4, r5, r6, r7, r8, r9, sl, lr}
 8002ba8:	688e      	ldr	r6, [r1, #8]
 8002baa:	429e      	cmp	r6, r3
 8002bac:	4682      	mov	sl, r0
 8002bae:	460c      	mov	r4, r1
 8002bb0:	4690      	mov	r8, r2
 8002bb2:	461f      	mov	r7, r3
 8002bb4:	d838      	bhi.n	8002c28 <__ssputs_r+0x84>
 8002bb6:	898a      	ldrh	r2, [r1, #12]
 8002bb8:	f412 6f90 	tst.w	r2, #1152	; 0x480
 8002bbc:	d032      	beq.n	8002c24 <__ssputs_r+0x80>
 8002bbe:	6825      	ldr	r5, [r4, #0]
 8002bc0:	6909      	ldr	r1, [r1, #16]
 8002bc2:	eba5 0901 	sub.w	r9, r5, r1
 8002bc6:	6965      	ldr	r5, [r4, #20]
 8002bc8:	eb05 0545 	add.w	r5, r5, r5, lsl #1
 8002bcc:	eb05 75d5 	add.w	r5, r5, r5, lsr #31
 8002bd0:	3301      	adds	r3, #1
 8002bd2:	444b      	add	r3, r9
 8002bd4:	106d      	asrs	r5, r5, #1
 8002bd6:	429d      	cmp	r5, r3
 8002bd8:	bf38      	it	cc
 8002bda:	461d      	movcc	r5, r3
 8002bdc:	0553      	lsls	r3, r2, #21
 8002bde:	d531      	bpl.n	8002c44 <__ssputs_r+0xa0>
 8002be0:	4629      	mov	r1, r5
 8002be2:	f000 fb47 	bl	8003274 <_malloc_r>
 8002be6:	4606      	mov	r6, r0
 8002be8:	b950      	cbnz	r0, 8002c00 <__ssputs_r+0x5c>
 8002bea:	230c      	movs	r3, #12
 8002bec:	f8ca 3000 	str.w	r3, [sl]
 8002bf0:	89a3      	ldrh	r3, [r4, #12]
 8002bf2:	f043 0340 	orr.w	r3, r3, #64	; 0x40
 8002bf6:	81a3      	strh	r3, [r4, #12]
 8002bf8:	f04f 30ff 	mov.w	r0, #4294967295
 8002bfc:	e8bd 87f0 	ldmia.w	sp!, {r4, r5, r6, r7, r8, r9, sl, pc}
 8002c00:	6921      	ldr	r1, [r4, #16]
 8002c02:	464a      	mov	r2, r9
 8002c04:	f000 fabe 	bl	8003184 <memcpy>
 8002c08:	89a3      	ldrh	r3, [r4, #12]
 8002c0a:	f423 6390 	bic.w	r3, r3, #1152	; 0x480
 8002c0e:	f043 0380 	orr.w	r3, r3, #128	; 0x80
 8002c12:	81a3      	strh	r3, [r4, #12]
 8002c14:	6126      	str	r6, [r4, #16]
 8002c16:	6165      	str	r5, [r4, #20]
 8002c18:	444e      	add	r6, r9
 8002c1a:	eba5 0509 	sub.w	r5, r5, r9
 8002c1e:	6026      	str	r6, [r4, #0]
 8002c20:	60a5      	str	r5, [r4, #8]
 8002c22:	463e      	mov	r6, r7
 8002c24:	42be      	cmp	r6, r7
 8002c26:	d900      	bls.n	8002c2a <__ssputs_r+0x86>
 8002c28:	463e      	mov	r6, r7
 8002c2a:	4632      	mov	r2, r6
 8002c2c:	6820      	ldr	r0, [r4, #0]
 8002c2e:	4641      	mov	r1, r8
 8002c30:	f000 fab6 	bl	80031a0 <memmove>
 8002c34:	68a3      	ldr	r3, [r4, #8]
 8002c36:	6822      	ldr	r2, [r4, #0]
 8002c38:	1b9b      	subs	r3, r3, r6
 8002c3a:	4432      	add	r2, r6
 8002c3c:	60a3      	str	r3, [r4, #8]
 8002c3e:	6022      	str	r2, [r4, #0]
 8002c40:	2000      	movs	r0, #0
 8002c42:	e7db      	b.n	8002bfc <__ssputs_r+0x58>
 8002c44:	462a      	mov	r2, r5
 8002c46:	f000 fb6f 	bl	8003328 <_realloc_r>
 8002c4a:	4606      	mov	r6, r0
 8002c4c:	2800      	cmp	r0, #0
 8002c4e:	d1e1      	bne.n	8002c14 <__ssputs_r+0x70>
 8002c50:	6921      	ldr	r1, [r4, #16]
 8002c52:	4650      	mov	r0, sl
 8002c54:	f000 fabe 	bl	80031d4 <_free_r>
 8002c58:	e7c7      	b.n	8002bea <__ssputs_r+0x46>
	...

08002c5c <_svfiprintf_r>:
 8002c5c:	e92d 4ff0 	stmdb	sp!, {r4, r5, r6, r7, r8, r9, sl, fp, lr}
 8002c60:	4698      	mov	r8, r3
 8002c62:	898b      	ldrh	r3, [r1, #12]
 8002c64:	061b      	lsls	r3, r3, #24
 8002c66:	b09d      	sub	sp, #116	; 0x74
 8002c68:	4607      	mov	r7, r0
 8002c6a:	460d      	mov	r5, r1
 8002c6c:	4614      	mov	r4, r2
 8002c6e:	d50e      	bpl.n	8002c8e <_svfiprintf_r+0x32>
 8002c70:	690b      	ldr	r3, [r1, #16]
 8002c72:	b963      	cbnz	r3, 8002c8e <_svfiprintf_r+0x32>
 8002c74:	2140      	movs	r1, #64	; 0x40
 8002c76:	f000 fafd 	bl	8003274 <_malloc_r>
 8002c7a:	6028      	str	r0, [r5, #0]
 8002c7c:	6128      	str	r0, [r5, #16]
 8002c7e:	b920      	cbnz	r0, 8002c8a <_svfiprintf_r+0x2e>
 8002c80:	230c      	movs	r3, #12
 8002c82:	603b      	str	r3, [r7, #0]
 8002c84:	f04f 30ff 	mov.w	r0, #4294967295
 8002c88:	e0d1      	b.n	8002e2e <_svfiprintf_r+0x1d2>
 8002c8a:	2340      	movs	r3, #64	; 0x40
 8002c8c:	616b      	str	r3, [r5, #20]
 8002c8e:	2300      	movs	r3, #0
 8002c90:	9309      	str	r3, [sp, #36]	; 0x24
 8002c92:	2320      	movs	r3, #32
 8002c94:	f88d 3029 	strb.w	r3, [sp, #41]	; 0x29
 8002c98:	f8cd 800c 	str.w	r8, [sp, #12]
 8002c9c:	2330      	movs	r3, #48	; 0x30
 8002c9e:	f8df 81a8 	ldr.w	r8, [pc, #424]	; 8002e48 <_svfiprintf_r+0x1ec>
 8002ca2:	f88d 302a 	strb.w	r3, [sp, #42]	; 0x2a
 8002ca6:	f04f 0901 	mov.w	r9, #1
 8002caa:	4623      	mov	r3, r4
 8002cac:	469a      	mov	sl, r3
 8002cae:	f813 2b01 	ldrb.w	r2, [r3], #1
 8002cb2:	b10a      	cbz	r2, 8002cb8 <_svfiprintf_r+0x5c>
 8002cb4:	2a25      	cmp	r2, #37	; 0x25
 8002cb6:	d1f9      	bne.n	8002cac <_svfiprintf_r+0x50>
 8002cb8:	ebba 0b04 	subs.w	fp, sl, r4
 8002cbc:	d00b      	beq.n	8002cd6 <_svfiprintf_r+0x7a>
 8002cbe:	465b      	mov	r3, fp
 8002cc0:	4622      	mov	r2, r4
 8002cc2:	4629      	mov	r1, r5
 8002cc4:	4638      	mov	r0, r7
 8002cc6:	f7ff ff6d 	bl	8002ba4 <__ssputs_r>
 8002cca:	3001      	adds	r0, #1
 8002ccc:	f000 80aa 	beq.w	8002e24 <_svfiprintf_r+0x1c8>
 8002cd0:	9a09      	ldr	r2, [sp, #36]	; 0x24
 8002cd2:	445a      	add	r2, fp
 8002cd4:	9209      	str	r2, [sp, #36]	; 0x24
 8002cd6:	f89a 3000 	ldrb.w	r3, [sl]
 8002cda:	2b00      	cmp	r3, #0
 8002cdc:	f000 80a2 	beq.w	8002e24 <_svfiprintf_r+0x1c8>
 8002ce0:	2300      	movs	r3, #0
 8002ce2:	f04f 32ff 	mov.w	r2, #4294967295
 8002ce6:	e9cd 2305 	strd	r2, r3, [sp, #20]
 8002cea:	f10a 0a01 	add.w	sl, sl, #1
 8002cee:	9304      	str	r3, [sp, #16]
 8002cf0:	9307      	str	r3, [sp, #28]
 8002cf2:	f88d 3053 	strb.w	r3, [sp, #83]	; 0x53
 8002cf6:	931a      	str	r3, [sp, #104]	; 0x68
 8002cf8:	4654      	mov	r4, sl
 8002cfa:	2205      	movs	r2, #5
 8002cfc:	f814 1b01 	ldrb.w	r1, [r4], #1
 8002d00:	4851      	ldr	r0, [pc, #324]	; (8002e48 <_svfiprintf_r+0x1ec>)
 8002d02:	f7fd fa6d 	bl	80001e0 <memchr>
 8002d06:	9a04      	ldr	r2, [sp, #16]
 8002d08:	b9d8      	cbnz	r0, 8002d42 <_svfiprintf_r+0xe6>
 8002d0a:	06d0      	lsls	r0, r2, #27
 8002d0c:	bf44      	itt	mi
 8002d0e:	2320      	movmi	r3, #32
 8002d10:	f88d 3053 	strbmi.w	r3, [sp, #83]	; 0x53
 8002d14:	0711      	lsls	r1, r2, #28
 8002d16:	bf44      	itt	mi
 8002d18:	232b      	movmi	r3, #43	; 0x2b
 8002d1a:	f88d 3053 	strbmi.w	r3, [sp, #83]	; 0x53
 8002d1e:	f89a 3000 	ldrb.w	r3, [sl]
 8002d22:	2b2a      	cmp	r3, #42	; 0x2a
 8002d24:	d015      	beq.n	8002d52 <_svfiprintf_r+0xf6>
 8002d26:	9a07      	ldr	r2, [sp, #28]
 8002d28:	4654      	mov	r4, sl
 8002d2a:	2000      	movs	r0, #0
 8002d2c:	f04f 0c0a 	mov.w	ip, #10
 8002d30:	4621      	mov	r1, r4
 8002d32:	f811 3b01 	ldrb.w	r3, [r1], #1
 8002d36:	3b30      	subs	r3, #48	; 0x30
 8002d38:	2b09      	cmp	r3, #9
 8002d3a:	d94e      	bls.n	8002dda <_svfiprintf_r+0x17e>
 8002d3c:	b1b0      	cbz	r0, 8002d6c <_svfiprintf_r+0x110>
 8002d3e:	9207      	str	r2, [sp, #28]
 8002d40:	e014      	b.n	8002d6c <_svfiprintf_r+0x110>
 8002d42:	eba0 0308 	sub.w	r3, r0, r8
 8002d46:	fa09 f303 	lsl.w	r3, r9, r3
 8002d4a:	4313      	orrs	r3, r2
 8002d4c:	9304      	str	r3, [sp, #16]
 8002d4e:	46a2      	mov	sl, r4
 8002d50:	e7d2      	b.n	8002cf8 <_svfiprintf_r+0x9c>
 8002d52:	9b03      	ldr	r3, [sp, #12]
 8002d54:	1d19      	adds	r1, r3, #4
 8002d56:	681b      	ldr	r3, [r3, #0]
 8002d58:	9103      	str	r1, [sp, #12]
 8002d5a:	2b00      	cmp	r3, #0
 8002d5c:	bfbb      	ittet	lt
 8002d5e:	425b      	neglt	r3, r3
 8002d60:	f042 0202 	orrlt.w	r2, r2, #2
 8002d64:	9307      	strge	r3, [sp, #28]
 8002d66:	9307      	strlt	r3, [sp, #28]
 8002d68:	bfb8      	it	lt
 8002d6a:	9204      	strlt	r2, [sp, #16]
 8002d6c:	7823      	ldrb	r3, [r4, #0]
 8002d6e:	2b2e      	cmp	r3, #46	; 0x2e
 8002d70:	d10c      	bne.n	8002d8c <_svfiprintf_r+0x130>
 8002d72:	7863      	ldrb	r3, [r4, #1]
 8002d74:	2b2a      	cmp	r3, #42	; 0x2a
 8002d76:	d135      	bne.n	8002de4 <_svfiprintf_r+0x188>
 8002d78:	9b03      	ldr	r3, [sp, #12]
 8002d7a:	1d1a      	adds	r2, r3, #4
 8002d7c:	681b      	ldr	r3, [r3, #0]
 8002d7e:	9203      	str	r2, [sp, #12]
 8002d80:	2b00      	cmp	r3, #0
 8002d82:	bfb8      	it	lt
 8002d84:	f04f 33ff 	movlt.w	r3, #4294967295
 8002d88:	3402      	adds	r4, #2
 8002d8a:	9305      	str	r3, [sp, #20]
 8002d8c:	f8df a0c8 	ldr.w	sl, [pc, #200]	; 8002e58 <_svfiprintf_r+0x1fc>
 8002d90:	7821      	ldrb	r1, [r4, #0]
 8002d92:	2203      	movs	r2, #3
 8002d94:	4650      	mov	r0, sl
 8002d96:	f7fd fa23 	bl	80001e0 <memchr>
 8002d9a:	b140      	cbz	r0, 8002dae <_svfiprintf_r+0x152>
 8002d9c:	2340      	movs	r3, #64	; 0x40
 8002d9e:	eba0 000a 	sub.w	r0, r0, sl
 8002da2:	fa03 f000 	lsl.w	r0, r3, r0
 8002da6:	9b04      	ldr	r3, [sp, #16]
 8002da8:	4303      	orrs	r3, r0
 8002daa:	3401      	adds	r4, #1
 8002dac:	9304      	str	r3, [sp, #16]
 8002dae:	f814 1b01 	ldrb.w	r1, [r4], #1
 8002db2:	4826      	ldr	r0, [pc, #152]	; (8002e4c <_svfiprintf_r+0x1f0>)
 8002db4:	f88d 1028 	strb.w	r1, [sp, #40]	; 0x28
 8002db8:	2206      	movs	r2, #6
 8002dba:	f7fd fa11 	bl	80001e0 <memchr>
 8002dbe:	2800      	cmp	r0, #0
 8002dc0:	d038      	beq.n	8002e34 <_svfiprintf_r+0x1d8>
 8002dc2:	4b23      	ldr	r3, [pc, #140]	; (8002e50 <_svfiprintf_r+0x1f4>)
 8002dc4:	bb1b      	cbnz	r3, 8002e0e <_svfiprintf_r+0x1b2>
 8002dc6:	9b03      	ldr	r3, [sp, #12]
 8002dc8:	3307      	adds	r3, #7
 8002dca:	f023 0307 	bic.w	r3, r3, #7
 8002dce:	3308      	adds	r3, #8
 8002dd0:	9303      	str	r3, [sp, #12]
 8002dd2:	9b09      	ldr	r3, [sp, #36]	; 0x24
 8002dd4:	4433      	add	r3, r6
 8002dd6:	9309      	str	r3, [sp, #36]	; 0x24
 8002dd8:	e767      	b.n	8002caa <_svfiprintf_r+0x4e>
 8002dda:	fb0c 3202 	mla	r2, ip, r2, r3
 8002dde:	460c      	mov	r4, r1
 8002de0:	2001      	movs	r0, #1
 8002de2:	e7a5      	b.n	8002d30 <_svfiprintf_r+0xd4>
 8002de4:	2300      	movs	r3, #0
 8002de6:	3401      	adds	r4, #1
 8002de8:	9305      	str	r3, [sp, #20]
 8002dea:	4619      	mov	r1, r3
 8002dec:	f04f 0c0a 	mov.w	ip, #10
 8002df0:	4620      	mov	r0, r4
 8002df2:	f810 2b01 	ldrb.w	r2, [r0], #1
 8002df6:	3a30      	subs	r2, #48	; 0x30
 8002df8:	2a09      	cmp	r2, #9
 8002dfa:	d903      	bls.n	8002e04 <_svfiprintf_r+0x1a8>
 8002dfc:	2b00      	cmp	r3, #0
 8002dfe:	d0c5      	beq.n	8002d8c <_svfiprintf_r+0x130>
 8002e00:	9105      	str	r1, [sp, #20]
 8002e02:	e7c3      	b.n	8002d8c <_svfiprintf_r+0x130>
 8002e04:	fb0c 2101 	mla	r1, ip, r1, r2
 8002e08:	4604      	mov	r4, r0
 8002e0a:	2301      	movs	r3, #1
 8002e0c:	e7f0      	b.n	8002df0 <_svfiprintf_r+0x194>
 8002e0e:	ab03      	add	r3, sp, #12
 8002e10:	9300      	str	r3, [sp, #0]
 8002e12:	462a      	mov	r2, r5
 8002e14:	4b0f      	ldr	r3, [pc, #60]	; (8002e54 <_svfiprintf_r+0x1f8>)
 8002e16:	a904      	add	r1, sp, #16
 8002e18:	4638      	mov	r0, r7
 8002e1a:	f3af 8000 	nop.w
 8002e1e:	1c42      	adds	r2, r0, #1
 8002e20:	4606      	mov	r6, r0
 8002e22:	d1d6      	bne.n	8002dd2 <_svfiprintf_r+0x176>
 8002e24:	89ab      	ldrh	r3, [r5, #12]
 8002e26:	065b      	lsls	r3, r3, #25
 8002e28:	f53f af2c 	bmi.w	8002c84 <_svfiprintf_r+0x28>
 8002e2c:	9809      	ldr	r0, [sp, #36]	; 0x24
 8002e2e:	b01d      	add	sp, #116	; 0x74
 8002e30:	e8bd 8ff0 	ldmia.w	sp!, {r4, r5, r6, r7, r8, r9, sl, fp, pc}
 8002e34:	ab03      	add	r3, sp, #12
 8002e36:	9300      	str	r3, [sp, #0]
 8002e38:	462a      	mov	r2, r5
 8002e3a:	4b06      	ldr	r3, [pc, #24]	; (8002e54 <_svfiprintf_r+0x1f8>)
 8002e3c:	a904      	add	r1, sp, #16
 8002e3e:	4638      	mov	r0, r7
 8002e40:	f000 f87a 	bl	8002f38 <_printf_i>
 8002e44:	e7eb      	b.n	8002e1e <_svfiprintf_r+0x1c2>
 8002e46:	bf00      	nop
 8002e48:	0800342d 	.word	0x0800342d
 8002e4c:	08003437 	.word	0x08003437
 8002e50:	00000000 	.word	0x00000000
 8002e54:	08002ba5 	.word	0x08002ba5
 8002e58:	08003433 	.word	0x08003433

08002e5c <_printf_common>:
 8002e5c:	e92d 47f0 	stmdb	sp!, {r4, r5, r6, r7, r8, r9, sl, lr}
 8002e60:	4616      	mov	r6, r2
 8002e62:	4699      	mov	r9, r3
 8002e64:	688a      	ldr	r2, [r1, #8]
 8002e66:	690b      	ldr	r3, [r1, #16]
 8002e68:	f8dd 8020 	ldr.w	r8, [sp, #32]
 8002e6c:	4293      	cmp	r3, r2
 8002e6e:	bfb8      	it	lt
 8002e70:	4613      	movlt	r3, r2
 8002e72:	6033      	str	r3, [r6, #0]
 8002e74:	f891 2043 	ldrb.w	r2, [r1, #67]	; 0x43
 8002e78:	4607      	mov	r7, r0
 8002e7a:	460c      	mov	r4, r1
 8002e7c:	b10a      	cbz	r2, 8002e82 <_printf_common+0x26>
 8002e7e:	3301      	adds	r3, #1
 8002e80:	6033      	str	r3, [r6, #0]
 8002e82:	6823      	ldr	r3, [r4, #0]
 8002e84:	0699      	lsls	r1, r3, #26
 8002e86:	bf42      	ittt	mi
 8002e88:	6833      	ldrmi	r3, [r6, #0]
 8002e8a:	3302      	addmi	r3, #2
 8002e8c:	6033      	strmi	r3, [r6, #0]
 8002e8e:	6825      	ldr	r5, [r4, #0]
 8002e90:	f015 0506 	ands.w	r5, r5, #6
 8002e94:	d106      	bne.n	8002ea4 <_printf_common+0x48>
 8002e96:	f104 0a19 	add.w	sl, r4, #25
 8002e9a:	68e3      	ldr	r3, [r4, #12]
 8002e9c:	6832      	ldr	r2, [r6, #0]
 8002e9e:	1a9b      	subs	r3, r3, r2
 8002ea0:	42ab      	cmp	r3, r5
 8002ea2:	dc26      	bgt.n	8002ef2 <_printf_common+0x96>
 8002ea4:	f894 2043 	ldrb.w	r2, [r4, #67]	; 0x43
 8002ea8:	1e13      	subs	r3, r2, #0
 8002eaa:	6822      	ldr	r2, [r4, #0]
 8002eac:	bf18      	it	ne
 8002eae:	2301      	movne	r3, #1
 8002eb0:	0692      	lsls	r2, r2, #26
 8002eb2:	d42b      	bmi.n	8002f0c <_printf_common+0xb0>
 8002eb4:	f104 0243 	add.w	r2, r4, #67	; 0x43
 8002eb8:	4649      	mov	r1, r9
 8002eba:	4638      	mov	r0, r7
 8002ebc:	47c0      	blx	r8
 8002ebe:	3001      	adds	r0, #1
 8002ec0:	d01e      	beq.n	8002f00 <_printf_common+0xa4>
 8002ec2:	6823      	ldr	r3, [r4, #0]
 8002ec4:	68e5      	ldr	r5, [r4, #12]
 8002ec6:	6832      	ldr	r2, [r6, #0]
 8002ec8:	f003 0306 	and.w	r3, r3, #6
 8002ecc:	2b04      	cmp	r3, #4
 8002ece:	bf08      	it	eq
 8002ed0:	1aad      	subeq	r5, r5, r2
 8002ed2:	68a3      	ldr	r3, [r4, #8]
 8002ed4:	6922      	ldr	r2, [r4, #16]
 8002ed6:	bf0c      	ite	eq
 8002ed8:	ea25 75e5 	biceq.w	r5, r5, r5, asr #31
 8002edc:	2500      	movne	r5, #0
 8002ede:	4293      	cmp	r3, r2
 8002ee0:	bfc4      	itt	gt
 8002ee2:	1a9b      	subgt	r3, r3, r2
 8002ee4:	18ed      	addgt	r5, r5, r3
 8002ee6:	2600      	movs	r6, #0
 8002ee8:	341a      	adds	r4, #26
 8002eea:	42b5      	cmp	r5, r6
 8002eec:	d11a      	bne.n	8002f24 <_printf_common+0xc8>
 8002eee:	2000      	movs	r0, #0
 8002ef0:	e008      	b.n	8002f04 <_printf_common+0xa8>
 8002ef2:	2301      	movs	r3, #1
 8002ef4:	4652      	mov	r2, sl
 8002ef6:	4649      	mov	r1, r9
 8002ef8:	4638      	mov	r0, r7
 8002efa:	47c0      	blx	r8
 8002efc:	3001      	adds	r0, #1
 8002efe:	d103      	bne.n	8002f08 <_printf_common+0xac>
 8002f00:	f04f 30ff 	mov.w	r0, #4294967295
 8002f04:	e8bd 87f0 	ldmia.w	sp!, {r4, r5, r6, r7, r8, r9, sl, pc}
 8002f08:	3501      	adds	r5, #1
 8002f0a:	e7c6      	b.n	8002e9a <_printf_common+0x3e>
 8002f0c:	18e1      	adds	r1, r4, r3
 8002f0e:	1c5a      	adds	r2, r3, #1
 8002f10:	2030      	movs	r0, #48	; 0x30
 8002f12:	f881 0043 	strb.w	r0, [r1, #67]	; 0x43
 8002f16:	4422      	add	r2, r4
 8002f18:	f894 1045 	ldrb.w	r1, [r4, #69]	; 0x45
 8002f1c:	f882 1043 	strb.w	r1, [r2, #67]	; 0x43
 8002f20:	3302      	adds	r3, #2
 8002f22:	e7c7      	b.n	8002eb4 <_printf_common+0x58>
 8002f24:	2301      	movs	r3, #1
 8002f26:	4622      	mov	r2, r4
 8002f28:	4649      	mov	r1, r9
 8002f2a:	4638      	mov	r0, r7
 8002f2c:	47c0      	blx	r8
 8002f2e:	3001      	adds	r0, #1
 8002f30:	d0e6      	beq.n	8002f00 <_printf_common+0xa4>
 8002f32:	3601      	adds	r6, #1
 8002f34:	e7d9      	b.n	8002eea <_printf_common+0x8e>
	...

08002f38 <_printf_i>:
 8002f38:	e92d 47ff 	stmdb	sp!, {r0, r1, r2, r3, r4, r5, r6, r7, r8, r9, sl, lr}
 8002f3c:	460c      	mov	r4, r1
 8002f3e:	4691      	mov	r9, r2
 8002f40:	7e27      	ldrb	r7, [r4, #24]
 8002f42:	990c      	ldr	r1, [sp, #48]	; 0x30
 8002f44:	2f78      	cmp	r7, #120	; 0x78
 8002f46:	4680      	mov	r8, r0
 8002f48:	469a      	mov	sl, r3
 8002f4a:	f104 0243 	add.w	r2, r4, #67	; 0x43
 8002f4e:	d807      	bhi.n	8002f60 <_printf_i+0x28>
 8002f50:	2f62      	cmp	r7, #98	; 0x62
 8002f52:	d80a      	bhi.n	8002f6a <_printf_i+0x32>
 8002f54:	2f00      	cmp	r7, #0
 8002f56:	f000 80d8 	beq.w	800310a <_printf_i+0x1d2>
 8002f5a:	2f58      	cmp	r7, #88	; 0x58
 8002f5c:	f000 80a3 	beq.w	80030a6 <_printf_i+0x16e>
 8002f60:	f104 0642 	add.w	r6, r4, #66	; 0x42
 8002f64:	f884 7042 	strb.w	r7, [r4, #66]	; 0x42
 8002f68:	e03a      	b.n	8002fe0 <_printf_i+0xa8>
 8002f6a:	f1a7 0363 	sub.w	r3, r7, #99	; 0x63
 8002f6e:	2b15      	cmp	r3, #21
 8002f70:	d8f6      	bhi.n	8002f60 <_printf_i+0x28>
 8002f72:	a001      	add	r0, pc, #4	; (adr r0, 8002f78 <_printf_i+0x40>)
 8002f74:	f850 f023 	ldr.w	pc, [r0, r3, lsl #2]
 8002f78:	08002fd1 	.word	0x08002fd1
 8002f7c:	08002fe5 	.word	0x08002fe5
 8002f80:	08002f61 	.word	0x08002f61
 8002f84:	08002f61 	.word	0x08002f61
 8002f88:	08002f61 	.word	0x08002f61
 8002f8c:	08002f61 	.word	0x08002f61
 8002f90:	08002fe5 	.word	0x08002fe5
 8002f94:	08002f61 	.word	0x08002f61
 8002f98:	08002f61 	.word	0x08002f61
 8002f9c:	08002f61 	.word	0x08002f61
 8002fa0:	08002f61 	.word	0x08002f61
 8002fa4:	080030f1 	.word	0x080030f1
 8002fa8:	08003015 	.word	0x08003015
 8002fac:	080030d3 	.word	0x080030d3
 8002fb0:	08002f61 	.word	0x08002f61
 8002fb4:	08002f61 	.word	0x08002f61
 8002fb8:	08003113 	.word	0x08003113
 8002fbc:	08002f61 	.word	0x08002f61
 8002fc0:	08003015 	.word	0x08003015
 8002fc4:	08002f61 	.word	0x08002f61
 8002fc8:	08002f61 	.word	0x08002f61
 8002fcc:	080030db 	.word	0x080030db
 8002fd0:	680b      	ldr	r3, [r1, #0]
 8002fd2:	1d1a      	adds	r2, r3, #4
 8002fd4:	681b      	ldr	r3, [r3, #0]
 8002fd6:	600a      	str	r2, [r1, #0]
 8002fd8:	f104 0642 	add.w	r6, r4, #66	; 0x42
 8002fdc:	f884 3042 	strb.w	r3, [r4, #66]	; 0x42
 8002fe0:	2301      	movs	r3, #1
 8002fe2:	e0a3      	b.n	800312c <_printf_i+0x1f4>
 8002fe4:	6825      	ldr	r5, [r4, #0]
 8002fe6:	6808      	ldr	r0, [r1, #0]
 8002fe8:	062e      	lsls	r6, r5, #24
 8002fea:	f100 0304 	add.w	r3, r0, #4
 8002fee:	d50a      	bpl.n	8003006 <_printf_i+0xce>
 8002ff0:	6805      	ldr	r5, [r0, #0]
 8002ff2:	600b      	str	r3, [r1, #0]
 8002ff4:	2d00      	cmp	r5, #0
 8002ff6:	da03      	bge.n	8003000 <_printf_i+0xc8>
 8002ff8:	232d      	movs	r3, #45	; 0x2d
 8002ffa:	426d      	negs	r5, r5
 8002ffc:	f884 3043 	strb.w	r3, [r4, #67]	; 0x43
 8003000:	485e      	ldr	r0, [pc, #376]	; (800317c <_printf_i+0x244>)
 8003002:	230a      	movs	r3, #10
 8003004:	e019      	b.n	800303a <_printf_i+0x102>
 8003006:	f015 0f40 	tst.w	r5, #64	; 0x40
 800300a:	6805      	ldr	r5, [r0, #0]
 800300c:	600b      	str	r3, [r1, #0]
 800300e:	bf18      	it	ne
 8003010:	b22d      	sxthne	r5, r5
 8003012:	e7ef      	b.n	8002ff4 <_printf_i+0xbc>
 8003014:	680b      	ldr	r3, [r1, #0]
 8003016:	6825      	ldr	r5, [r4, #0]
 8003018:	1d18      	adds	r0, r3, #4
 800301a:	6008      	str	r0, [r1, #0]
 800301c:	0628      	lsls	r0, r5, #24
 800301e:	d501      	bpl.n	8003024 <_printf_i+0xec>
 8003020:	681d      	ldr	r5, [r3, #0]
 8003022:	e002      	b.n	800302a <_printf_i+0xf2>
 8003024:	0669      	lsls	r1, r5, #25
 8003026:	d5fb      	bpl.n	8003020 <_printf_i+0xe8>
 8003028:	881d      	ldrh	r5, [r3, #0]
 800302a:	4854      	ldr	r0, [pc, #336]	; (800317c <_printf_i+0x244>)
 800302c:	2f6f      	cmp	r7, #111	; 0x6f
 800302e:	bf0c      	ite	eq
 8003030:	2308      	moveq	r3, #8
 8003032:	230a      	movne	r3, #10
 8003034:	2100      	movs	r1, #0
 8003036:	f884 1043 	strb.w	r1, [r4, #67]	; 0x43
 800303a:	6866      	ldr	r6, [r4, #4]
 800303c:	60a6      	str	r6, [r4, #8]
 800303e:	2e00      	cmp	r6, #0
 8003040:	bfa2      	ittt	ge
 8003042:	6821      	ldrge	r1, [r4, #0]
 8003044:	f021 0104 	bicge.w	r1, r1, #4
 8003048:	6021      	strge	r1, [r4, #0]
 800304a:	b90d      	cbnz	r5, 8003050 <_printf_i+0x118>
 800304c:	2e00      	cmp	r6, #0
 800304e:	d04d      	beq.n	80030ec <_printf_i+0x1b4>
 8003050:	4616      	mov	r6, r2
 8003052:	fbb5 f1f3 	udiv	r1, r5, r3
 8003056:	fb03 5711 	mls	r7, r3, r1, r5
 800305a:	5dc7      	ldrb	r7, [r0, r7]
 800305c:	f806 7d01 	strb.w	r7, [r6, #-1]!
 8003060:	462f      	mov	r7, r5
 8003062:	42bb      	cmp	r3, r7
 8003064:	460d      	mov	r5, r1
 8003066:	d9f4      	bls.n	8003052 <_printf_i+0x11a>
 8003068:	2b08      	cmp	r3, #8
 800306a:	d10b      	bne.n	8003084 <_printf_i+0x14c>
 800306c:	6823      	ldr	r3, [r4, #0]
 800306e:	07df      	lsls	r7, r3, #31
 8003070:	d508      	bpl.n	8003084 <_printf_i+0x14c>
 8003072:	6923      	ldr	r3, [r4, #16]
 8003074:	6861      	ldr	r1, [r4, #4]
 8003076:	4299      	cmp	r1, r3
 8003078:	bfde      	ittt	le
 800307a:	2330      	movle	r3, #48	; 0x30
 800307c:	f806 3c01 	strble.w	r3, [r6, #-1]
 8003080:	f106 36ff 	addle.w	r6, r6, #4294967295
 8003084:	1b92      	subs	r2, r2, r6
 8003086:	6122      	str	r2, [r4, #16]
 8003088:	f8cd a000 	str.w	sl, [sp]
 800308c:	464b      	mov	r3, r9
 800308e:	aa03      	add	r2, sp, #12
 8003090:	4621      	mov	r1, r4
 8003092:	4640      	mov	r0, r8
 8003094:	f7ff fee2 	bl	8002e5c <_printf_common>
 8003098:	3001      	adds	r0, #1
 800309a:	d14c      	bne.n	8003136 <_printf_i+0x1fe>
 800309c:	f04f 30ff 	mov.w	r0, #4294967295
 80030a0:	b004      	add	sp, #16
 80030a2:	e8bd 87f0 	ldmia.w	sp!, {r4, r5, r6, r7, r8, r9, sl, pc}
 80030a6:	4835      	ldr	r0, [pc, #212]	; (800317c <_printf_i+0x244>)
 80030a8:	f884 7045 	strb.w	r7, [r4, #69]	; 0x45
 80030ac:	6823      	ldr	r3, [r4, #0]
 80030ae:	680e      	ldr	r6, [r1, #0]
 80030b0:	061f      	lsls	r7, r3, #24
 80030b2:	f856 5b04 	ldr.w	r5, [r6], #4
 80030b6:	600e      	str	r6, [r1, #0]
 80030b8:	d514      	bpl.n	80030e4 <_printf_i+0x1ac>
 80030ba:	07d9      	lsls	r1, r3, #31
 80030bc:	bf44      	itt	mi
 80030be:	f043 0320 	orrmi.w	r3, r3, #32
 80030c2:	6023      	strmi	r3, [r4, #0]
 80030c4:	b91d      	cbnz	r5, 80030ce <_printf_i+0x196>
 80030c6:	6823      	ldr	r3, [r4, #0]
 80030c8:	f023 0320 	bic.w	r3, r3, #32
 80030cc:	6023      	str	r3, [r4, #0]
 80030ce:	2310      	movs	r3, #16
 80030d0:	e7b0      	b.n	8003034 <_printf_i+0xfc>
 80030d2:	6823      	ldr	r3, [r4, #0]
 80030d4:	f043 0320 	orr.w	r3, r3, #32
 80030d8:	6023      	str	r3, [r4, #0]
 80030da:	2378      	movs	r3, #120	; 0x78
 80030dc:	4828      	ldr	r0, [pc, #160]	; (8003180 <_printf_i+0x248>)
 80030de:	f884 3045 	strb.w	r3, [r4, #69]	; 0x45
 80030e2:	e7e3      	b.n	80030ac <_printf_i+0x174>
 80030e4:	065e      	lsls	r6, r3, #25
 80030e6:	bf48      	it	mi
 80030e8:	b2ad      	uxthmi	r5, r5
 80030ea:	e7e6      	b.n	80030ba <_printf_i+0x182>
 80030ec:	4616      	mov	r6, r2
 80030ee:	e7bb      	b.n	8003068 <_printf_i+0x130>
 80030f0:	680b      	ldr	r3, [r1, #0]
 80030f2:	6826      	ldr	r6, [r4, #0]
 80030f4:	6960      	ldr	r0, [r4, #20]
 80030f6:	1d1d      	adds	r5, r3, #4
 80030f8:	600d      	str	r5, [r1, #0]
 80030fa:	0635      	lsls	r5, r6, #24
 80030fc:	681b      	ldr	r3, [r3, #0]
 80030fe:	d501      	bpl.n	8003104 <_printf_i+0x1cc>
 8003100:	6018      	str	r0, [r3, #0]
 8003102:	e002      	b.n	800310a <_printf_i+0x1d2>
 8003104:	0671      	lsls	r1, r6, #25
 8003106:	d5fb      	bpl.n	8003100 <_printf_i+0x1c8>
 8003108:	8018      	strh	r0, [r3, #0]
 800310a:	2300      	movs	r3, #0
 800310c:	6123      	str	r3, [r4, #16]
 800310e:	4616      	mov	r6, r2
 8003110:	e7ba      	b.n	8003088 <_printf_i+0x150>
 8003112:	680b      	ldr	r3, [r1, #0]
 8003114:	1d1a      	adds	r2, r3, #4
 8003116:	600a      	str	r2, [r1, #0]
 8003118:	681e      	ldr	r6, [r3, #0]
 800311a:	6862      	ldr	r2, [r4, #4]
 800311c:	2100      	movs	r1, #0
 800311e:	4630      	mov	r0, r6
 8003120:	f7fd f85e 	bl	80001e0 <memchr>
 8003124:	b108      	cbz	r0, 800312a <_printf_i+0x1f2>
 8003126:	1b80      	subs	r0, r0, r6
 8003128:	6060      	str	r0, [r4, #4]
 800312a:	6863      	ldr	r3, [r4, #4]
 800312c:	6123      	str	r3, [r4, #16]
 800312e:	2300      	movs	r3, #0
 8003130:	f884 3043 	strb.w	r3, [r4, #67]	; 0x43
 8003134:	e7a8      	b.n	8003088 <_printf_i+0x150>
 8003136:	6923      	ldr	r3, [r4, #16]
 8003138:	4632      	mov	r2, r6
 800313a:	4649      	mov	r1, r9
 800313c:	4640      	mov	r0, r8
 800313e:	47d0      	blx	sl
 8003140:	3001      	adds	r0, #1
 8003142:	d0ab      	beq.n	800309c <_printf_i+0x164>
 8003144:	6823      	ldr	r3, [r4, #0]
 8003146:	079b      	lsls	r3, r3, #30
 8003148:	d413      	bmi.n	8003172 <_printf_i+0x23a>
 800314a:	68e0      	ldr	r0, [r4, #12]
 800314c:	9b03      	ldr	r3, [sp, #12]
 800314e:	4298      	cmp	r0, r3
 8003150:	bfb8      	it	lt
 8003152:	4618      	movlt	r0, r3
 8003154:	e7a4      	b.n	80030a0 <_printf_i+0x168>
 8003156:	2301      	movs	r3, #1
 8003158:	4632      	mov	r2, r6
 800315a:	4649      	mov	r1, r9
 800315c:	4640      	mov	r0, r8
 800315e:	47d0      	blx	sl
 8003160:	3001      	adds	r0, #1
 8003162:	d09b      	beq.n	800309c <_printf_i+0x164>
 8003164:	3501      	adds	r5, #1
 8003166:	68e3      	ldr	r3, [r4, #12]
 8003168:	9903      	ldr	r1, [sp, #12]
 800316a:	1a5b      	subs	r3, r3, r1
 800316c:	42ab      	cmp	r3, r5
 800316e:	dcf2      	bgt.n	8003156 <_printf_i+0x21e>
 8003170:	e7eb      	b.n	800314a <_printf_i+0x212>
 8003172:	2500      	movs	r5, #0
 8003174:	f104 0619 	add.w	r6, r4, #25
 8003178:	e7f5      	b.n	8003166 <_printf_i+0x22e>
 800317a:	bf00      	nop
 800317c:	0800343e 	.word	0x0800343e
 8003180:	0800344f 	.word	0x0800344f

08003184 <memcpy>:
 8003184:	440a      	add	r2, r1
 8003186:	4291      	cmp	r1, r2
 8003188:	f100 33ff 	add.w	r3, r0, #4294967295
 800318c:	d100      	bne.n	8003190 <memcpy+0xc>
 800318e:	4770      	bx	lr
 8003190:	b510      	push	{r4, lr}
 8003192:	f811 4b01 	ldrb.w	r4, [r1], #1
 8003196:	f803 4f01 	strb.w	r4, [r3, #1]!
 800319a:	4291      	cmp	r1, r2
 800319c:	d1f9      	bne.n	8003192 <memcpy+0xe>
 800319e:	bd10      	pop	{r4, pc}

080031a0 <memmove>:
 80031a0:	4288      	cmp	r0, r1
 80031a2:	b510      	push	{r4, lr}
 80031a4:	eb01 0402 	add.w	r4, r1, r2
 80031a8:	d902      	bls.n	80031b0 <memmove+0x10>
 80031aa:	4284      	cmp	r4, r0
 80031ac:	4623      	mov	r3, r4
 80031ae:	d807      	bhi.n	80031c0 <memmove+0x20>
 80031b0:	1e43      	subs	r3, r0, #1
 80031b2:	42a1      	cmp	r1, r4
 80031b4:	d008      	beq.n	80031c8 <memmove+0x28>
 80031b6:	f811 2b01 	ldrb.w	r2, [r1], #1
 80031ba:	f803 2f01 	strb.w	r2, [r3, #1]!
 80031be:	e7f8      	b.n	80031b2 <memmove+0x12>
 80031c0:	4402      	add	r2, r0
 80031c2:	4601      	mov	r1, r0
 80031c4:	428a      	cmp	r2, r1
 80031c6:	d100      	bne.n	80031ca <memmove+0x2a>
 80031c8:	bd10      	pop	{r4, pc}
 80031ca:	f813 4d01 	ldrb.w	r4, [r3, #-1]!
 80031ce:	f802 4d01 	strb.w	r4, [r2, #-1]!
 80031d2:	e7f7      	b.n	80031c4 <memmove+0x24>

080031d4 <_free_r>:
 80031d4:	b537      	push	{r0, r1, r2, r4, r5, lr}
 80031d6:	2900      	cmp	r1, #0
 80031d8:	d048      	beq.n	800326c <_free_r+0x98>
 80031da:	f851 3c04 	ldr.w	r3, [r1, #-4]
 80031de:	9001      	str	r0, [sp, #4]
 80031e0:	2b00      	cmp	r3, #0
 80031e2:	f1a1 0404 	sub.w	r4, r1, #4
 80031e6:	bfb8      	it	lt
 80031e8:	18e4      	addlt	r4, r4, r3
 80031ea:	f000 f8d3 	bl	8003394 <__malloc_lock>
 80031ee:	4a20      	ldr	r2, [pc, #128]	; (8003270 <_free_r+0x9c>)
 80031f0:	9801      	ldr	r0, [sp, #4]
 80031f2:	6813      	ldr	r3, [r2, #0]
 80031f4:	4615      	mov	r5, r2
 80031f6:	b933      	cbnz	r3, 8003206 <_free_r+0x32>
 80031f8:	6063      	str	r3, [r4, #4]
 80031fa:	6014      	str	r4, [r2, #0]
 80031fc:	b003      	add	sp, #12
 80031fe:	e8bd 4030 	ldmia.w	sp!, {r4, r5, lr}
 8003202:	f000 b8cd 	b.w	80033a0 <__malloc_unlock>
 8003206:	42a3      	cmp	r3, r4
 8003208:	d90b      	bls.n	8003222 <_free_r+0x4e>
 800320a:	6821      	ldr	r1, [r4, #0]
 800320c:	1862      	adds	r2, r4, r1
 800320e:	4293      	cmp	r3, r2
 8003210:	bf04      	itt	eq
 8003212:	681a      	ldreq	r2, [r3, #0]
 8003214:	685b      	ldreq	r3, [r3, #4]
 8003216:	6063      	str	r3, [r4, #4]
 8003218:	bf04      	itt	eq
 800321a:	1852      	addeq	r2, r2, r1
 800321c:	6022      	streq	r2, [r4, #0]
 800321e:	602c      	str	r4, [r5, #0]
 8003220:	e7ec      	b.n	80031fc <_free_r+0x28>
 8003222:	461a      	mov	r2, r3
 8003224:	685b      	ldr	r3, [r3, #4]
 8003226:	b10b      	cbz	r3, 800322c <_free_r+0x58>
 8003228:	42a3      	cmp	r3, r4
 800322a:	d9fa      	bls.n	8003222 <_free_r+0x4e>
 800322c:	6811      	ldr	r1, [r2, #0]
 800322e:	1855      	adds	r5, r2, r1
 8003230:	42a5      	cmp	r5, r4
 8003232:	d10b      	bne.n	800324c <_free_r+0x78>
 8003234:	6824      	ldr	r4, [r4, #0]
 8003236:	4421      	add	r1, r4
 8003238:	1854      	adds	r4, r2, r1
 800323a:	42a3      	cmp	r3, r4
 800323c:	6011      	str	r1, [r2, #0]
 800323e:	d1dd      	bne.n	80031fc <_free_r+0x28>
 8003240:	681c      	ldr	r4, [r3, #0]
 8003242:	685b      	ldr	r3, [r3, #4]
 8003244:	6053      	str	r3, [r2, #4]
 8003246:	4421      	add	r1, r4
 8003248:	6011      	str	r1, [r2, #0]
 800324a:	e7d7      	b.n	80031fc <_free_r+0x28>
 800324c:	d902      	bls.n	8003254 <_free_r+0x80>
 800324e:	230c      	movs	r3, #12
 8003250:	6003      	str	r3, [r0, #0]
 8003252:	e7d3      	b.n	80031fc <_free_r+0x28>
 8003254:	6825      	ldr	r5, [r4, #0]
 8003256:	1961      	adds	r1, r4, r5
 8003258:	428b      	cmp	r3, r1
 800325a:	bf04      	itt	eq
 800325c:	6819      	ldreq	r1, [r3, #0]
 800325e:	685b      	ldreq	r3, [r3, #4]
 8003260:	6063      	str	r3, [r4, #4]
 8003262:	bf04      	itt	eq
 8003264:	1949      	addeq	r1, r1, r5
 8003266:	6021      	streq	r1, [r4, #0]
 8003268:	6054      	str	r4, [r2, #4]
 800326a:	e7c7      	b.n	80031fc <_free_r+0x28>
 800326c:	b003      	add	sp, #12
 800326e:	bd30      	pop	{r4, r5, pc}
 8003270:	200000a4 	.word	0x200000a4

08003274 <_malloc_r>:
 8003274:	b5f8      	push	{r3, r4, r5, r6, r7, lr}
 8003276:	1ccd      	adds	r5, r1, #3
 8003278:	f025 0503 	bic.w	r5, r5, #3
 800327c:	3508      	adds	r5, #8
 800327e:	2d0c      	cmp	r5, #12
 8003280:	bf38      	it	cc
 8003282:	250c      	movcc	r5, #12
 8003284:	2d00      	cmp	r5, #0
 8003286:	4606      	mov	r6, r0
 8003288:	db01      	blt.n	800328e <_malloc_r+0x1a>
 800328a:	42a9      	cmp	r1, r5
 800328c:	d903      	bls.n	8003296 <_malloc_r+0x22>
 800328e:	230c      	movs	r3, #12
 8003290:	6033      	str	r3, [r6, #0]
 8003292:	2000      	movs	r0, #0
 8003294:	bdf8      	pop	{r3, r4, r5, r6, r7, pc}
 8003296:	f000 f87d 	bl	8003394 <__malloc_lock>
 800329a:	4921      	ldr	r1, [pc, #132]	; (8003320 <_malloc_r+0xac>)
 800329c:	680a      	ldr	r2, [r1, #0]
 800329e:	4614      	mov	r4, r2
 80032a0:	b99c      	cbnz	r4, 80032ca <_malloc_r+0x56>
 80032a2:	4f20      	ldr	r7, [pc, #128]	; (8003324 <_malloc_r+0xb0>)
 80032a4:	683b      	ldr	r3, [r7, #0]
 80032a6:	b923      	cbnz	r3, 80032b2 <_malloc_r+0x3e>
 80032a8:	4621      	mov	r1, r4
 80032aa:	4630      	mov	r0, r6
 80032ac:	f000 f862 	bl	8003374 <_sbrk_r>
 80032b0:	6038      	str	r0, [r7, #0]
 80032b2:	4629      	mov	r1, r5
 80032b4:	4630      	mov	r0, r6
 80032b6:	f000 f85d 	bl	8003374 <_sbrk_r>
 80032ba:	1c43      	adds	r3, r0, #1
 80032bc:	d123      	bne.n	8003306 <_malloc_r+0x92>
 80032be:	230c      	movs	r3, #12
 80032c0:	6033      	str	r3, [r6, #0]
 80032c2:	4630      	mov	r0, r6
 80032c4:	f000 f86c 	bl	80033a0 <__malloc_unlock>
 80032c8:	e7e3      	b.n	8003292 <_malloc_r+0x1e>
 80032ca:	6823      	ldr	r3, [r4, #0]
 80032cc:	1b5b      	subs	r3, r3, r5
 80032ce:	d417      	bmi.n	8003300 <_malloc_r+0x8c>
 80032d0:	2b0b      	cmp	r3, #11
 80032d2:	d903      	bls.n	80032dc <_malloc_r+0x68>
 80032d4:	6023      	str	r3, [r4, #0]
 80032d6:	441c      	add	r4, r3
 80032d8:	6025      	str	r5, [r4, #0]
 80032da:	e004      	b.n	80032e6 <_malloc_r+0x72>
 80032dc:	6863      	ldr	r3, [r4, #4]
 80032de:	42a2      	cmp	r2, r4
 80032e0:	bf0c      	ite	eq
 80032e2:	600b      	streq	r3, [r1, #0]
 80032e4:	6053      	strne	r3, [r2, #4]
 80032e6:	4630      	mov	r0, r6
 80032e8:	f000 f85a 	bl	80033a0 <__malloc_unlock>
 80032ec:	f104 000b 	add.w	r0, r4, #11
 80032f0:	1d23      	adds	r3, r4, #4
 80032f2:	f020 0007 	bic.w	r0, r0, #7
 80032f6:	1ac2      	subs	r2, r0, r3
 80032f8:	d0cc      	beq.n	8003294 <_malloc_r+0x20>
 80032fa:	1a1b      	subs	r3, r3, r0
 80032fc:	50a3      	str	r3, [r4, r2]
 80032fe:	e7c9      	b.n	8003294 <_malloc_r+0x20>
 8003300:	4622      	mov	r2, r4
 8003302:	6864      	ldr	r4, [r4, #4]
 8003304:	e7cc      	b.n	80032a0 <_malloc_r+0x2c>
 8003306:	1cc4      	adds	r4, r0, #3
 8003308:	f024 0403 	bic.w	r4, r4, #3
 800330c:	42a0      	cmp	r0, r4
 800330e:	d0e3      	beq.n	80032d8 <_malloc_r+0x64>
 8003310:	1a21      	subs	r1, r4, r0
 8003312:	4630      	mov	r0, r6
 8003314:	f000 f82e 	bl	8003374 <_sbrk_r>
 8003318:	3001      	adds	r0, #1
 800331a:	d1dd      	bne.n	80032d8 <_malloc_r+0x64>
 800331c:	e7cf      	b.n	80032be <_malloc_r+0x4a>
 800331e:	bf00      	nop
 8003320:	200000a4 	.word	0x200000a4
 8003324:	200000a8 	.word	0x200000a8

08003328 <_realloc_r>:
 8003328:	b5f8      	push	{r3, r4, r5, r6, r7, lr}
 800332a:	4607      	mov	r7, r0
 800332c:	4614      	mov	r4, r2
 800332e:	460e      	mov	r6, r1
 8003330:	b921      	cbnz	r1, 800333c <_realloc_r+0x14>
 8003332:	e8bd 40f8 	ldmia.w	sp!, {r3, r4, r5, r6, r7, lr}
 8003336:	4611      	mov	r1, r2
 8003338:	f7ff bf9c 	b.w	8003274 <_malloc_r>
 800333c:	b922      	cbnz	r2, 8003348 <_realloc_r+0x20>
 800333e:	f7ff ff49 	bl	80031d4 <_free_r>
 8003342:	4625      	mov	r5, r4
 8003344:	4628      	mov	r0, r5
 8003346:	bdf8      	pop	{r3, r4, r5, r6, r7, pc}
 8003348:	f000 f830 	bl	80033ac <_malloc_usable_size_r>
 800334c:	42a0      	cmp	r0, r4
 800334e:	d20f      	bcs.n	8003370 <_realloc_r+0x48>
 8003350:	4621      	mov	r1, r4
 8003352:	4638      	mov	r0, r7
 8003354:	f7ff ff8e 	bl	8003274 <_malloc_r>
 8003358:	4605      	mov	r5, r0
 800335a:	2800      	cmp	r0, #0
 800335c:	d0f2      	beq.n	8003344 <_realloc_r+0x1c>
 800335e:	4631      	mov	r1, r6
 8003360:	4622      	mov	r2, r4
 8003362:	f7ff ff0f 	bl	8003184 <memcpy>
 8003366:	4631      	mov	r1, r6
 8003368:	4638      	mov	r0, r7
 800336a:	f7ff ff33 	bl	80031d4 <_free_r>
 800336e:	e7e9      	b.n	8003344 <_realloc_r+0x1c>
 8003370:	4635      	mov	r5, r6
 8003372:	e7e7      	b.n	8003344 <_realloc_r+0x1c>

08003374 <_sbrk_r>:
 8003374:	b538      	push	{r3, r4, r5, lr}
 8003376:	4d06      	ldr	r5, [pc, #24]	; (8003390 <_sbrk_r+0x1c>)
 8003378:	2300      	movs	r3, #0
 800337a:	4604      	mov	r4, r0
 800337c:	4608      	mov	r0, r1
 800337e:	602b      	str	r3, [r5, #0]
 8003380:	f7fd fb32 	bl	80009e8 <_sbrk>
 8003384:	1c43      	adds	r3, r0, #1
 8003386:	d102      	bne.n	800338e <_sbrk_r+0x1a>
 8003388:	682b      	ldr	r3, [r5, #0]
 800338a:	b103      	cbz	r3, 800338e <_sbrk_r+0x1a>
 800338c:	6023      	str	r3, [r4, #0]
 800338e:	bd38      	pop	{r3, r4, r5, pc}
 8003390:	20013060 	.word	0x20013060

08003394 <__malloc_lock>:
 8003394:	4801      	ldr	r0, [pc, #4]	; (800339c <__malloc_lock+0x8>)
 8003396:	f000 b811 	b.w	80033bc <__retarget_lock_acquire_recursive>
 800339a:	bf00      	nop
 800339c:	20013068 	.word	0x20013068

080033a0 <__malloc_unlock>:
 80033a0:	4801      	ldr	r0, [pc, #4]	; (80033a8 <__malloc_unlock+0x8>)
 80033a2:	f000 b80c 	b.w	80033be <__retarget_lock_release_recursive>
 80033a6:	bf00      	nop
 80033a8:	20013068 	.word	0x20013068

080033ac <_malloc_usable_size_r>:
 80033ac:	f851 3c04 	ldr.w	r3, [r1, #-4]
 80033b0:	1f18      	subs	r0, r3, #4
 80033b2:	2b00      	cmp	r3, #0
 80033b4:	bfbc      	itt	lt
 80033b6:	580b      	ldrlt	r3, [r1, r0]
 80033b8:	18c0      	addlt	r0, r0, r3
 80033ba:	4770      	bx	lr

080033bc <__retarget_lock_acquire_recursive>:
 80033bc:	4770      	bx	lr

080033be <__retarget_lock_release_recursive>:
 80033be:	4770      	bx	lr

080033c0 <_init>:
 80033c0:	b5f8      	push	{r3, r4, r5, r6, r7, lr}
 80033c2:	bf00      	nop
 80033c4:	bcf8      	pop	{r3, r4, r5, r6, r7}
 80033c6:	bc08      	pop	{r3}
 80033c8:	469e      	mov	lr, r3
 80033ca:	4770      	bx	lr

080033cc <_fini>:
 80033cc:	b5f8      	push	{r3, r4, r5, r6, r7, lr}
 80033ce:	bf00      	nop
 80033d0:	bcf8      	pop	{r3, r4, r5, r6, r7}
 80033d2:	bc08      	pop	{r3}
 80033d4:	469e      	mov	lr, r3
 80033d6:	4770      	bx	lr
