
VGAnuS_Software-Ontwikkeling.elf:     file format elf32-littlearm

Sections:
Idx Name          Size      VMA       LMA       File off  Algn
  0 .isr_vector   00000188  08000000  08000000  00010000  2**0
                  CONTENTS, ALLOC, LOAD, READONLY, DATA
  1 .text         00003ee4  08000190  08000190  00010190  2**4
                  CONTENTS, ALLOC, LOAD, READONLY, CODE
  2 .rodata       00000214  08004074  08004074  00014074  2**2
                  CONTENTS, ALLOC, LOAD, READONLY, DATA
  3 .ARM.extab    00000000  08004288  08004288  00020090  2**0
                  CONTENTS
  4 .ARM          00000008  08004288  08004288  00014288  2**2
                  CONTENTS, ALLOC, LOAD, READONLY, DATA
  5 .preinit_array 00000000  08004290  08004290  00020090  2**0
                  CONTENTS, ALLOC, LOAD, DATA
  6 .init_array   00000004  08004290  08004290  00014290  2**2
                  CONTENTS, ALLOC, LOAD, DATA
  7 .fini_array   00000004  08004294  08004294  00014294  2**2
                  CONTENTS, ALLOC, LOAD, DATA
  8 .data         00000090  20000000  08004298  00020000  2**2
                  CONTENTS, ALLOC, LOAD, DATA
  9 .bss          00012ff0  20000090  08004328  00020090  2**2
                  ALLOC
 10 ._user_heap_stack 00000600  20013080  08004328  00023080  2**0
                  ALLOC
 11 .ARM.attributes 00000030  00000000  00000000  00020090  2**0
                  CONTENTS, READONLY
 12 .comment      00000053  00000000  00000000  000200c0  2**0
                  CONTENTS, READONLY
 13 .debug_frame  00000c3c  00000000  00000000  00020114  2**2
                  CONTENTS, READONLY, DEBUGGING, OCTETS

Disassembly of section .text:

08000190 <__do_global_dtors_aux>:
 8000190:	b510      	push	{r4, lr}
 8000192:	4c05      	ldr	r4, [pc, #20]	; (80001a8 <__do_global_dtors_aux+0x18>)
 8000194:	7823      	ldrb	r3, [r4, #0]
 8000196:	b933      	cbnz	r3, 80001a6 <__do_global_dtors_aux+0x16>
 8000198:	4b04      	ldr	r3, [pc, #16]	; (80001ac <__do_global_dtors_aux+0x1c>)
 800019a:	b113      	cbz	r3, 80001a2 <__do_global_dtors_aux+0x12>
 800019c:	4804      	ldr	r0, [pc, #16]	; (80001b0 <__do_global_dtors_aux+0x20>)
 800019e:	f3af 8000 	nop.w
 80001a2:	2301      	movs	r3, #1
 80001a4:	7023      	strb	r3, [r4, #0]
 80001a6:	bd10      	pop	{r4, pc}
 80001a8:	20000090 	.word	0x20000090
 80001ac:	00000000 	.word	0x00000000
 80001b0:	0800405c 	.word	0x0800405c

080001b4 <frame_dummy>:
 80001b4:	b508      	push	{r3, lr}
 80001b6:	4b03      	ldr	r3, [pc, #12]	; (80001c4 <frame_dummy+0x10>)
 80001b8:	b11b      	cbz	r3, 80001c2 <frame_dummy+0xe>
 80001ba:	4903      	ldr	r1, [pc, #12]	; (80001c8 <frame_dummy+0x14>)
 80001bc:	4803      	ldr	r0, [pc, #12]	; (80001cc <frame_dummy+0x18>)
 80001be:	f3af 8000 	nop.w
 80001c2:	bd08      	pop	{r3, pc}
 80001c4:	00000000 	.word	0x00000000
 80001c8:	20000094 	.word	0x20000094
 80001cc:	0800405c 	.word	0x0800405c

080001d0 <strcmp>:
 80001d0:	f810 2b01 	ldrb.w	r2, [r0], #1
 80001d4:	f811 3b01 	ldrb.w	r3, [r1], #1
 80001d8:	2a01      	cmp	r2, #1
 80001da:	bf28      	it	cs
 80001dc:	429a      	cmpcs	r2, r3
 80001de:	d0f7      	beq.n	80001d0 <strcmp>
 80001e0:	1ad0      	subs	r0, r2, r3
 80001e2:	4770      	bx	lr

080001e4 <strlen>:
 80001e4:	4603      	mov	r3, r0
 80001e6:	f813 2b01 	ldrb.w	r2, [r3], #1
 80001ea:	2a00      	cmp	r2, #0
 80001ec:	d1fb      	bne.n	80001e6 <strlen+0x2>
 80001ee:	1a18      	subs	r0, r3, r0
 80001f0:	3801      	subs	r0, #1
 80001f2:	4770      	bx	lr
	...

08000200 <memchr>:
 8000200:	f001 01ff 	and.w	r1, r1, #255	; 0xff
 8000204:	2a10      	cmp	r2, #16
 8000206:	db2b      	blt.n	8000260 <memchr+0x60>
 8000208:	f010 0f07 	tst.w	r0, #7
 800020c:	d008      	beq.n	8000220 <memchr+0x20>
 800020e:	f810 3b01 	ldrb.w	r3, [r0], #1
 8000212:	3a01      	subs	r2, #1
 8000214:	428b      	cmp	r3, r1
 8000216:	d02d      	beq.n	8000274 <memchr+0x74>
 8000218:	f010 0f07 	tst.w	r0, #7
 800021c:	b342      	cbz	r2, 8000270 <memchr+0x70>
 800021e:	d1f6      	bne.n	800020e <memchr+0xe>
 8000220:	b4f0      	push	{r4, r5, r6, r7}
 8000222:	ea41 2101 	orr.w	r1, r1, r1, lsl #8
 8000226:	ea41 4101 	orr.w	r1, r1, r1, lsl #16
 800022a:	f022 0407 	bic.w	r4, r2, #7
 800022e:	f07f 0700 	mvns.w	r7, #0
 8000232:	2300      	movs	r3, #0
 8000234:	e8f0 5602 	ldrd	r5, r6, [r0], #8
 8000238:	3c08      	subs	r4, #8
 800023a:	ea85 0501 	eor.w	r5, r5, r1
 800023e:	ea86 0601 	eor.w	r6, r6, r1
 8000242:	fa85 f547 	uadd8	r5, r5, r7
 8000246:	faa3 f587 	sel	r5, r3, r7
 800024a:	fa86 f647 	uadd8	r6, r6, r7
 800024e:	faa5 f687 	sel	r6, r5, r7
 8000252:	b98e      	cbnz	r6, 8000278 <memchr+0x78>
 8000254:	d1ee      	bne.n	8000234 <memchr+0x34>
 8000256:	bcf0      	pop	{r4, r5, r6, r7}
 8000258:	f001 01ff 	and.w	r1, r1, #255	; 0xff
 800025c:	f002 0207 	and.w	r2, r2, #7
 8000260:	b132      	cbz	r2, 8000270 <memchr+0x70>
 8000262:	f810 3b01 	ldrb.w	r3, [r0], #1
 8000266:	3a01      	subs	r2, #1
 8000268:	ea83 0301 	eor.w	r3, r3, r1
 800026c:	b113      	cbz	r3, 8000274 <memchr+0x74>
 800026e:	d1f8      	bne.n	8000262 <memchr+0x62>
 8000270:	2000      	movs	r0, #0
 8000272:	4770      	bx	lr
 8000274:	3801      	subs	r0, #1
 8000276:	4770      	bx	lr
 8000278:	2d00      	cmp	r5, #0
 800027a:	bf06      	itte	eq
 800027c:	4635      	moveq	r5, r6
 800027e:	3803      	subeq	r0, #3
 8000280:	3807      	subne	r0, #7
 8000282:	f015 0f01 	tst.w	r5, #1
 8000286:	d107      	bne.n	8000298 <memchr+0x98>
 8000288:	3001      	adds	r0, #1
 800028a:	f415 7f80 	tst.w	r5, #256	; 0x100
 800028e:	bf02      	ittt	eq
 8000290:	3001      	addeq	r0, #1
 8000292:	f415 3fc0 	tsteq.w	r5, #98304	; 0x18000
 8000296:	3001      	addeq	r0, #1
 8000298:	bcf0      	pop	{r4, r5, r6, r7}
 800029a:	3801      	subs	r0, #1
 800029c:	4770      	bx	lr
 800029e:	bf00      	nop

080002a0 <__aeabi_uldivmod>:
 80002a0:	b953      	cbnz	r3, 80002b8 <__aeabi_uldivmod+0x18>
 80002a2:	b94a      	cbnz	r2, 80002b8 <__aeabi_uldivmod+0x18>
 80002a4:	2900      	cmp	r1, #0
 80002a6:	bf08      	it	eq
 80002a8:	2800      	cmpeq	r0, #0
 80002aa:	bf1c      	itt	ne
 80002ac:	f04f 31ff 	movne.w	r1, #4294967295
 80002b0:	f04f 30ff 	movne.w	r0, #4294967295
 80002b4:	f000 b96e 	b.w	8000594 <__aeabi_idiv0>
 80002b8:	f1ad 0c08 	sub.w	ip, sp, #8
 80002bc:	e96d ce04 	strd	ip, lr, [sp, #-16]!
 80002c0:	f000 f806 	bl	80002d0 <__udivmoddi4>
 80002c4:	f8dd e004 	ldr.w	lr, [sp, #4]
 80002c8:	e9dd 2302 	ldrd	r2, r3, [sp, #8]
 80002cc:	b004      	add	sp, #16
 80002ce:	4770      	bx	lr

080002d0 <__udivmoddi4>:
 80002d0:	e92d 47f0 	stmdb	sp!, {r4, r5, r6, r7, r8, r9, sl, lr}
 80002d4:	9d08      	ldr	r5, [sp, #32]
 80002d6:	4604      	mov	r4, r0
 80002d8:	468c      	mov	ip, r1
 80002da:	2b00      	cmp	r3, #0
 80002dc:	f040 8083 	bne.w	80003e6 <__udivmoddi4+0x116>
 80002e0:	428a      	cmp	r2, r1
 80002e2:	4617      	mov	r7, r2
 80002e4:	d947      	bls.n	8000376 <__udivmoddi4+0xa6>
 80002e6:	fab2 f282 	clz	r2, r2
 80002ea:	b142      	cbz	r2, 80002fe <__udivmoddi4+0x2e>
 80002ec:	f1c2 0020 	rsb	r0, r2, #32
 80002f0:	fa24 f000 	lsr.w	r0, r4, r0
 80002f4:	4091      	lsls	r1, r2
 80002f6:	4097      	lsls	r7, r2
 80002f8:	ea40 0c01 	orr.w	ip, r0, r1
 80002fc:	4094      	lsls	r4, r2
 80002fe:	ea4f 4817 	mov.w	r8, r7, lsr #16
 8000302:	0c23      	lsrs	r3, r4, #16
 8000304:	fbbc f6f8 	udiv	r6, ip, r8
 8000308:	fa1f fe87 	uxth.w	lr, r7
 800030c:	fb08 c116 	mls	r1, r8, r6, ip
 8000310:	ea43 4301 	orr.w	r3, r3, r1, lsl #16
 8000314:	fb06 f10e 	mul.w	r1, r6, lr
 8000318:	4299      	cmp	r1, r3
 800031a:	d909      	bls.n	8000330 <__udivmoddi4+0x60>
 800031c:	18fb      	adds	r3, r7, r3
 800031e:	f106 30ff 	add.w	r0, r6, #4294967295
 8000322:	f080 8119 	bcs.w	8000558 <__udivmoddi4+0x288>
 8000326:	4299      	cmp	r1, r3
 8000328:	f240 8116 	bls.w	8000558 <__udivmoddi4+0x288>
 800032c:	3e02      	subs	r6, #2
 800032e:	443b      	add	r3, r7
 8000330:	1a5b      	subs	r3, r3, r1
 8000332:	b2a4      	uxth	r4, r4
 8000334:	fbb3 f0f8 	udiv	r0, r3, r8
 8000338:	fb08 3310 	mls	r3, r8, r0, r3
 800033c:	ea44 4403 	orr.w	r4, r4, r3, lsl #16
 8000340:	fb00 fe0e 	mul.w	lr, r0, lr
 8000344:	45a6      	cmp	lr, r4
 8000346:	d909      	bls.n	800035c <__udivmoddi4+0x8c>
 8000348:	193c      	adds	r4, r7, r4
 800034a:	f100 33ff 	add.w	r3, r0, #4294967295
 800034e:	f080 8105 	bcs.w	800055c <__udivmoddi4+0x28c>
 8000352:	45a6      	cmp	lr, r4
 8000354:	f240 8102 	bls.w	800055c <__udivmoddi4+0x28c>
 8000358:	3802      	subs	r0, #2
 800035a:	443c      	add	r4, r7
 800035c:	ea40 4006 	orr.w	r0, r0, r6, lsl #16
 8000360:	eba4 040e 	sub.w	r4, r4, lr
 8000364:	2600      	movs	r6, #0
 8000366:	b11d      	cbz	r5, 8000370 <__udivmoddi4+0xa0>
 8000368:	40d4      	lsrs	r4, r2
 800036a:	2300      	movs	r3, #0
 800036c:	e9c5 4300 	strd	r4, r3, [r5]
 8000370:	4631      	mov	r1, r6
 8000372:	e8bd 87f0 	ldmia.w	sp!, {r4, r5, r6, r7, r8, r9, sl, pc}
 8000376:	b902      	cbnz	r2, 800037a <__udivmoddi4+0xaa>
 8000378:	deff      	udf	#255	; 0xff
 800037a:	fab2 f282 	clz	r2, r2
 800037e:	2a00      	cmp	r2, #0
 8000380:	d150      	bne.n	8000424 <__udivmoddi4+0x154>
 8000382:	1bcb      	subs	r3, r1, r7
 8000384:	ea4f 4e17 	mov.w	lr, r7, lsr #16
 8000388:	fa1f f887 	uxth.w	r8, r7
 800038c:	2601      	movs	r6, #1
 800038e:	fbb3 fcfe 	udiv	ip, r3, lr
 8000392:	0c21      	lsrs	r1, r4, #16
 8000394:	fb0e 331c 	mls	r3, lr, ip, r3
 8000398:	ea41 4103 	orr.w	r1, r1, r3, lsl #16
 800039c:	fb08 f30c 	mul.w	r3, r8, ip
 80003a0:	428b      	cmp	r3, r1
 80003a2:	d907      	bls.n	80003b4 <__udivmoddi4+0xe4>
 80003a4:	1879      	adds	r1, r7, r1
 80003a6:	f10c 30ff 	add.w	r0, ip, #4294967295
 80003aa:	d202      	bcs.n	80003b2 <__udivmoddi4+0xe2>
 80003ac:	428b      	cmp	r3, r1
 80003ae:	f200 80e9 	bhi.w	8000584 <__udivmoddi4+0x2b4>
 80003b2:	4684      	mov	ip, r0
 80003b4:	1ac9      	subs	r1, r1, r3
 80003b6:	b2a3      	uxth	r3, r4
 80003b8:	fbb1 f0fe 	udiv	r0, r1, lr
 80003bc:	fb0e 1110 	mls	r1, lr, r0, r1
 80003c0:	ea43 4401 	orr.w	r4, r3, r1, lsl #16
 80003c4:	fb08 f800 	mul.w	r8, r8, r0
 80003c8:	45a0      	cmp	r8, r4
 80003ca:	d907      	bls.n	80003dc <__udivmoddi4+0x10c>
 80003cc:	193c      	adds	r4, r7, r4
 80003ce:	f100 33ff 	add.w	r3, r0, #4294967295
 80003d2:	d202      	bcs.n	80003da <__udivmoddi4+0x10a>
 80003d4:	45a0      	cmp	r8, r4
 80003d6:	f200 80d9 	bhi.w	800058c <__udivmoddi4+0x2bc>
 80003da:	4618      	mov	r0, r3
 80003dc:	eba4 0408 	sub.w	r4, r4, r8
 80003e0:	ea40 400c 	orr.w	r0, r0, ip, lsl #16
 80003e4:	e7bf      	b.n	8000366 <__udivmoddi4+0x96>
 80003e6:	428b      	cmp	r3, r1
 80003e8:	d909      	bls.n	80003fe <__udivmoddi4+0x12e>
 80003ea:	2d00      	cmp	r5, #0
 80003ec:	f000 80b1 	beq.w	8000552 <__udivmoddi4+0x282>
 80003f0:	2600      	movs	r6, #0
 80003f2:	e9c5 0100 	strd	r0, r1, [r5]
 80003f6:	4630      	mov	r0, r6
 80003f8:	4631      	mov	r1, r6
 80003fa:	e8bd 87f0 	ldmia.w	sp!, {r4, r5, r6, r7, r8, r9, sl, pc}
 80003fe:	fab3 f683 	clz	r6, r3
 8000402:	2e00      	cmp	r6, #0
 8000404:	d14a      	bne.n	800049c <__udivmoddi4+0x1cc>
 8000406:	428b      	cmp	r3, r1
 8000408:	d302      	bcc.n	8000410 <__udivmoddi4+0x140>
 800040a:	4282      	cmp	r2, r0
 800040c:	f200 80b8 	bhi.w	8000580 <__udivmoddi4+0x2b0>
 8000410:	1a84      	subs	r4, r0, r2
 8000412:	eb61 0103 	sbc.w	r1, r1, r3
 8000416:	2001      	movs	r0, #1
 8000418:	468c      	mov	ip, r1
 800041a:	2d00      	cmp	r5, #0
 800041c:	d0a8      	beq.n	8000370 <__udivmoddi4+0xa0>
 800041e:	e9c5 4c00 	strd	r4, ip, [r5]
 8000422:	e7a5      	b.n	8000370 <__udivmoddi4+0xa0>
 8000424:	f1c2 0320 	rsb	r3, r2, #32
 8000428:	fa20 f603 	lsr.w	r6, r0, r3
 800042c:	4097      	lsls	r7, r2
 800042e:	fa01 f002 	lsl.w	r0, r1, r2
 8000432:	ea4f 4e17 	mov.w	lr, r7, lsr #16
 8000436:	40d9      	lsrs	r1, r3
 8000438:	4330      	orrs	r0, r6
 800043a:	0c03      	lsrs	r3, r0, #16
 800043c:	fbb1 f6fe 	udiv	r6, r1, lr
 8000440:	fa1f f887 	uxth.w	r8, r7
 8000444:	fb0e 1116 	mls	r1, lr, r6, r1
 8000448:	ea43 4301 	orr.w	r3, r3, r1, lsl #16
 800044c:	fb06 f108 	mul.w	r1, r6, r8
 8000450:	4299      	cmp	r1, r3
 8000452:	fa04 f402 	lsl.w	r4, r4, r2
 8000456:	d909      	bls.n	800046c <__udivmoddi4+0x19c>
 8000458:	18fb      	adds	r3, r7, r3
 800045a:	f106 3cff 	add.w	ip, r6, #4294967295
 800045e:	f080 808d 	bcs.w	800057c <__udivmoddi4+0x2ac>
 8000462:	4299      	cmp	r1, r3
 8000464:	f240 808a 	bls.w	800057c <__udivmoddi4+0x2ac>
 8000468:	3e02      	subs	r6, #2
 800046a:	443b      	add	r3, r7
 800046c:	1a5b      	subs	r3, r3, r1
 800046e:	b281      	uxth	r1, r0
 8000470:	fbb3 f0fe 	udiv	r0, r3, lr
 8000474:	fb0e 3310 	mls	r3, lr, r0, r3
 8000478:	ea41 4103 	orr.w	r1, r1, r3, lsl #16
 800047c:	fb00 f308 	mul.w	r3, r0, r8
 8000480:	428b      	cmp	r3, r1
 8000482:	d907      	bls.n	8000494 <__udivmoddi4+0x1c4>
 8000484:	1879      	adds	r1, r7, r1
 8000486:	f100 3cff 	add.w	ip, r0, #4294967295
 800048a:	d273      	bcs.n	8000574 <__udivmoddi4+0x2a4>
 800048c:	428b      	cmp	r3, r1
 800048e:	d971      	bls.n	8000574 <__udivmoddi4+0x2a4>
 8000490:	3802      	subs	r0, #2
 8000492:	4439      	add	r1, r7
 8000494:	1acb      	subs	r3, r1, r3
 8000496:	ea40 4606 	orr.w	r6, r0, r6, lsl #16
 800049a:	e778      	b.n	800038e <__udivmoddi4+0xbe>
 800049c:	f1c6 0c20 	rsb	ip, r6, #32
 80004a0:	fa03 f406 	lsl.w	r4, r3, r6
 80004a4:	fa22 f30c 	lsr.w	r3, r2, ip
 80004a8:	431c      	orrs	r4, r3
 80004aa:	fa20 f70c 	lsr.w	r7, r0, ip
 80004ae:	fa01 f306 	lsl.w	r3, r1, r6
 80004b2:	ea4f 4e14 	mov.w	lr, r4, lsr #16
 80004b6:	fa21 f10c 	lsr.w	r1, r1, ip
 80004ba:	431f      	orrs	r7, r3
 80004bc:	0c3b      	lsrs	r3, r7, #16
 80004be:	fbb1 f9fe 	udiv	r9, r1, lr
 80004c2:	fa1f f884 	uxth.w	r8, r4
 80004c6:	fb0e 1119 	mls	r1, lr, r9, r1
 80004ca:	ea43 4101 	orr.w	r1, r3, r1, lsl #16
 80004ce:	fb09 fa08 	mul.w	sl, r9, r8
 80004d2:	458a      	cmp	sl, r1
 80004d4:	fa02 f206 	lsl.w	r2, r2, r6
 80004d8:	fa00 f306 	lsl.w	r3, r0, r6
 80004dc:	d908      	bls.n	80004f0 <__udivmoddi4+0x220>
 80004de:	1861      	adds	r1, r4, r1
 80004e0:	f109 30ff 	add.w	r0, r9, #4294967295
 80004e4:	d248      	bcs.n	8000578 <__udivmoddi4+0x2a8>
 80004e6:	458a      	cmp	sl, r1
 80004e8:	d946      	bls.n	8000578 <__udivmoddi4+0x2a8>
 80004ea:	f1a9 0902 	sub.w	r9, r9, #2
 80004ee:	4421      	add	r1, r4
 80004f0:	eba1 010a 	sub.w	r1, r1, sl
 80004f4:	b2bf      	uxth	r7, r7
 80004f6:	fbb1 f0fe 	udiv	r0, r1, lr
 80004fa:	fb0e 1110 	mls	r1, lr, r0, r1
 80004fe:	ea47 4701 	orr.w	r7, r7, r1, lsl #16
 8000502:	fb00 f808 	mul.w	r8, r0, r8
 8000506:	45b8      	cmp	r8, r7
 8000508:	d907      	bls.n	800051a <__udivmoddi4+0x24a>
 800050a:	19e7      	adds	r7, r4, r7
 800050c:	f100 31ff 	add.w	r1, r0, #4294967295
 8000510:	d22e      	bcs.n	8000570 <__udivmoddi4+0x2a0>
 8000512:	45b8      	cmp	r8, r7
 8000514:	d92c      	bls.n	8000570 <__udivmoddi4+0x2a0>
 8000516:	3802      	subs	r0, #2
 8000518:	4427      	add	r7, r4
 800051a:	ea40 4009 	orr.w	r0, r0, r9, lsl #16
 800051e:	eba7 0708 	sub.w	r7, r7, r8
 8000522:	fba0 8902 	umull	r8, r9, r0, r2
 8000526:	454f      	cmp	r7, r9
 8000528:	46c6      	mov	lr, r8
 800052a:	4649      	mov	r1, r9
 800052c:	d31a      	bcc.n	8000564 <__udivmoddi4+0x294>
 800052e:	d017      	beq.n	8000560 <__udivmoddi4+0x290>
 8000530:	b15d      	cbz	r5, 800054a <__udivmoddi4+0x27a>
 8000532:	ebb3 020e 	subs.w	r2, r3, lr
 8000536:	eb67 0701 	sbc.w	r7, r7, r1
 800053a:	fa07 fc0c 	lsl.w	ip, r7, ip
 800053e:	40f2      	lsrs	r2, r6
 8000540:	ea4c 0202 	orr.w	r2, ip, r2
 8000544:	40f7      	lsrs	r7, r6
 8000546:	e9c5 2700 	strd	r2, r7, [r5]
 800054a:	2600      	movs	r6, #0
 800054c:	4631      	mov	r1, r6
 800054e:	e8bd 87f0 	ldmia.w	sp!, {r4, r5, r6, r7, r8, r9, sl, pc}
 8000552:	462e      	mov	r6, r5
 8000554:	4628      	mov	r0, r5
 8000556:	e70b      	b.n	8000370 <__udivmoddi4+0xa0>
 8000558:	4606      	mov	r6, r0
 800055a:	e6e9      	b.n	8000330 <__udivmoddi4+0x60>
 800055c:	4618      	mov	r0, r3
 800055e:	e6fd      	b.n	800035c <__udivmoddi4+0x8c>
 8000560:	4543      	cmp	r3, r8
 8000562:	d2e5      	bcs.n	8000530 <__udivmoddi4+0x260>
 8000564:	ebb8 0e02 	subs.w	lr, r8, r2
 8000568:	eb69 0104 	sbc.w	r1, r9, r4
 800056c:	3801      	subs	r0, #1
 800056e:	e7df      	b.n	8000530 <__udivmoddi4+0x260>
 8000570:	4608      	mov	r0, r1
 8000572:	e7d2      	b.n	800051a <__udivmoddi4+0x24a>
 8000574:	4660      	mov	r0, ip
 8000576:	e78d      	b.n	8000494 <__udivmoddi4+0x1c4>
 8000578:	4681      	mov	r9, r0
 800057a:	e7b9      	b.n	80004f0 <__udivmoddi4+0x220>
 800057c:	4666      	mov	r6, ip
 800057e:	e775      	b.n	800046c <__udivmoddi4+0x19c>
 8000580:	4630      	mov	r0, r6
 8000582:	e74a      	b.n	800041a <__udivmoddi4+0x14a>
 8000584:	f1ac 0c02 	sub.w	ip, ip, #2
 8000588:	4439      	add	r1, r7
 800058a:	e713      	b.n	80003b4 <__udivmoddi4+0xe4>
 800058c:	3802      	subs	r0, #2
 800058e:	443c      	add	r4, r7
 8000590:	e724      	b.n	80003dc <__udivmoddi4+0x10c>
 8000592:	bf00      	nop

08000594 <__aeabi_idiv0>:
 8000594:	4770      	bx	lr
 8000596:	bf00      	nop

08000598 <FL_Parse>:
 8000598:	b570      	push	{r4, r5, r6, lr}
 800059a:	4923      	ldr	r1, [pc, #140]	; (8000628 <FL_Parse+0x90>)
 800059c:	4e22      	ldr	r6, [pc, #136]	; (8000628 <FL_Parse+0x90>)
 800059e:	b09a      	sub	sp, #104	; 0x68
 80005a0:	f002 fb8c 	bl	8002cbc <strtok>
 80005a4:	4601      	mov	r1, r0
 80005a6:	4604      	mov	r4, r0
 80005a8:	a801      	add	r0, sp, #4
 80005aa:	f002 fb67 	bl	8002c7c <siprintf>
 80005ae:	ad01      	add	r5, sp, #4
 80005b0:	4621      	mov	r1, r4
 80005b2:	4628      	mov	r0, r5
 80005b4:	f002 fb62 	bl	8002c7c <siprintf>
 80005b8:	4631      	mov	r1, r6
 80005ba:	2000      	movs	r0, #0
 80005bc:	f002 fb7e 	bl	8002cbc <strtok>
 80005c0:	350a      	adds	r5, #10
 80005c2:	4604      	mov	r4, r0
 80005c4:	2800      	cmp	r0, #0
 80005c6:	d1f3      	bne.n	80005b0 <FL_Parse+0x18>
 80005c8:	4918      	ldr	r1, [pc, #96]	; (800062c <FL_Parse+0x94>)
 80005ca:	a801      	add	r0, sp, #4
 80005cc:	f7ff fe00 	bl	80001d0 <strcmp>
 80005d0:	b930      	cbnz	r0, 80005e0 <FL_Parse+0x48>
 80005d2:	4917      	ldr	r1, [pc, #92]	; (8000630 <FL_Parse+0x98>)
 80005d4:	220c      	movs	r2, #12
 80005d6:	4817      	ldr	r0, [pc, #92]	; (8000634 <FL_Parse+0x9c>)
 80005d8:	f002 f8c2 	bl	8002760 <HAL_UART_Transmit_DMA>
 80005dc:	b01a      	add	sp, #104	; 0x68
 80005de:	bd70      	pop	{r4, r5, r6, pc}
 80005e0:	4915      	ldr	r1, [pc, #84]	; (8000638 <FL_Parse+0xa0>)
 80005e2:	a801      	add	r0, sp, #4
 80005e4:	f7ff fdf4 	bl	80001d0 <strcmp>
 80005e8:	b910      	cbnz	r0, 80005f0 <FL_Parse+0x58>
 80005ea:	4914      	ldr	r1, [pc, #80]	; (800063c <FL_Parse+0xa4>)
 80005ec:	220c      	movs	r2, #12
 80005ee:	e7f2      	b.n	80005d6 <FL_Parse+0x3e>
 80005f0:	4913      	ldr	r1, [pc, #76]	; (8000640 <FL_Parse+0xa8>)
 80005f2:	a801      	add	r0, sp, #4
 80005f4:	f7ff fdec 	bl	80001d0 <strcmp>
 80005f8:	b910      	cbnz	r0, 8000600 <FL_Parse+0x68>
 80005fa:	4912      	ldr	r1, [pc, #72]	; (8000644 <FL_Parse+0xac>)
 80005fc:	220c      	movs	r2, #12
 80005fe:	e7ea      	b.n	80005d6 <FL_Parse+0x3e>
 8000600:	4911      	ldr	r1, [pc, #68]	; (8000648 <FL_Parse+0xb0>)
 8000602:	a801      	add	r0, sp, #4
 8000604:	f7ff fde4 	bl	80001d0 <strcmp>
 8000608:	b910      	cbnz	r0, 8000610 <FL_Parse+0x78>
 800060a:	4910      	ldr	r1, [pc, #64]	; (800064c <FL_Parse+0xb4>)
 800060c:	220c      	movs	r2, #12
 800060e:	e7e2      	b.n	80005d6 <FL_Parse+0x3e>
 8000610:	490f      	ldr	r1, [pc, #60]	; (8000650 <FL_Parse+0xb8>)
 8000612:	a801      	add	r0, sp, #4
 8000614:	f7ff fddc 	bl	80001d0 <strcmp>
 8000618:	b910      	cbnz	r0, 8000620 <FL_Parse+0x88>
 800061a:	490e      	ldr	r1, [pc, #56]	; (8000654 <FL_Parse+0xbc>)
 800061c:	220c      	movs	r2, #12
 800061e:	e7da      	b.n	80005d6 <FL_Parse+0x3e>
 8000620:	490d      	ldr	r1, [pc, #52]	; (8000658 <FL_Parse+0xc0>)
 8000622:	220b      	movs	r2, #11
 8000624:	e7d7      	b.n	80005d6 <FL_Parse+0x3e>
 8000626:	bf00      	nop
 8000628:	08004074 	.word	0x08004074
 800062c:	08004076 	.word	0x08004076
 8000630:	0800407b 	.word	0x0800407b
 8000634:	20013028 	.word	0x20013028
 8000638:	08004088 	.word	0x08004088
 800063c:	08004092 	.word	0x08004092
 8000640:	080040a4 	.word	0x080040a4
 8000644:	080040aa 	.word	0x080040aa
 8000648:	080040b8 	.word	0x080040b8
 800064c:	080040bf 	.word	0x080040bf
 8000650:	080040ce 	.word	0x080040ce
 8000654:	080040da 	.word	0x080040da
 8000658:	080040ee 	.word	0x080040ee

0800065c <MX_DMA_Init>:
 800065c:	b507      	push	{r0, r1, r2, lr}
 800065e:	4b18      	ldr	r3, [pc, #96]	; (80006c0 <MX_DMA_Init+0x64>)
 8000660:	2200      	movs	r2, #0
 8000662:	9200      	str	r2, [sp, #0]
 8000664:	6b19      	ldr	r1, [r3, #48]	; 0x30
 8000666:	f441 0180 	orr.w	r1, r1, #4194304	; 0x400000
 800066a:	6319      	str	r1, [r3, #48]	; 0x30
 800066c:	6b19      	ldr	r1, [r3, #48]	; 0x30
 800066e:	f401 0180 	and.w	r1, r1, #4194304	; 0x400000
 8000672:	9100      	str	r1, [sp, #0]
 8000674:	9900      	ldr	r1, [sp, #0]
 8000676:	9201      	str	r2, [sp, #4]
 8000678:	6b19      	ldr	r1, [r3, #48]	; 0x30
 800067a:	f441 1100 	orr.w	r1, r1, #2097152	; 0x200000
 800067e:	6319      	str	r1, [r3, #48]	; 0x30
 8000680:	6b1b      	ldr	r3, [r3, #48]	; 0x30
 8000682:	f403 1300 	and.w	r3, r3, #2097152	; 0x200000
 8000686:	4611      	mov	r1, r2
 8000688:	9301      	str	r3, [sp, #4]
 800068a:	2010      	movs	r0, #16
 800068c:	9b01      	ldr	r3, [sp, #4]
 800068e:	f000 fd0b 	bl	80010a8 <HAL_NVIC_SetPriority>
 8000692:	2010      	movs	r0, #16
 8000694:	f000 fd3a 	bl	800110c <HAL_NVIC_EnableIRQ>
 8000698:	2200      	movs	r2, #0
 800069a:	4611      	mov	r1, r2
 800069c:	2011      	movs	r0, #17
 800069e:	f000 fd03 	bl	80010a8 <HAL_NVIC_SetPriority>
 80006a2:	2011      	movs	r0, #17
 80006a4:	f000 fd32 	bl	800110c <HAL_NVIC_EnableIRQ>
 80006a8:	2200      	movs	r2, #0
 80006aa:	4611      	mov	r1, r2
 80006ac:	2044      	movs	r0, #68	; 0x44
 80006ae:	f000 fcfb 	bl	80010a8 <HAL_NVIC_SetPriority>
 80006b2:	2044      	movs	r0, #68	; 0x44
 80006b4:	b003      	add	sp, #12
 80006b6:	f85d eb04 	ldr.w	lr, [sp], #4
 80006ba:	f000 bd27 	b.w	800110c <HAL_NVIC_EnableIRQ>
 80006be:	bf00      	nop
 80006c0:	40023800 	.word	0x40023800

080006c4 <MX_GPIO_Init>:
 80006c4:	e92d 41f0 	stmdb	sp!, {r4, r5, r6, r7, r8, lr}
 80006c8:	2214      	movs	r2, #20
 80006ca:	b08a      	sub	sp, #40	; 0x28
 80006cc:	eb0d 0002 	add.w	r0, sp, r2
 80006d0:	2100      	movs	r1, #0
 80006d2:	f002 facb 	bl	8002c6c <memset>
 80006d6:	2400      	movs	r4, #0
 80006d8:	4b28      	ldr	r3, [pc, #160]	; (800077c <MX_GPIO_Init+0xb8>)
 80006da:	9401      	str	r4, [sp, #4]
 80006dc:	6b1a      	ldr	r2, [r3, #48]	; 0x30
 80006de:	f8df 80a4 	ldr.w	r8, [pc, #164]	; 8000784 <MX_GPIO_Init+0xc0>
 80006e2:	4d27      	ldr	r5, [pc, #156]	; (8000780 <MX_GPIO_Init+0xbc>)
 80006e4:	f042 0280 	orr.w	r2, r2, #128	; 0x80
 80006e8:	631a      	str	r2, [r3, #48]	; 0x30
 80006ea:	6b1a      	ldr	r2, [r3, #48]	; 0x30
 80006ec:	f002 0280 	and.w	r2, r2, #128	; 0x80
 80006f0:	9201      	str	r2, [sp, #4]
 80006f2:	9a01      	ldr	r2, [sp, #4]
 80006f4:	9402      	str	r4, [sp, #8]
 80006f6:	6b1a      	ldr	r2, [r3, #48]	; 0x30
 80006f8:	f042 0201 	orr.w	r2, r2, #1
 80006fc:	631a      	str	r2, [r3, #48]	; 0x30
 80006fe:	6b1a      	ldr	r2, [r3, #48]	; 0x30
 8000700:	f002 0201 	and.w	r2, r2, #1
 8000704:	9202      	str	r2, [sp, #8]
 8000706:	9a02      	ldr	r2, [sp, #8]
 8000708:	9403      	str	r4, [sp, #12]
 800070a:	6b1a      	ldr	r2, [r3, #48]	; 0x30
 800070c:	f042 0210 	orr.w	r2, r2, #16
 8000710:	631a      	str	r2, [r3, #48]	; 0x30
 8000712:	6b1a      	ldr	r2, [r3, #48]	; 0x30
 8000714:	f002 0210 	and.w	r2, r2, #16
 8000718:	9203      	str	r2, [sp, #12]
 800071a:	9a03      	ldr	r2, [sp, #12]
 800071c:	9404      	str	r4, [sp, #16]
 800071e:	6b1a      	ldr	r2, [r3, #48]	; 0x30
 8000720:	f042 0202 	orr.w	r2, r2, #2
 8000724:	631a      	str	r2, [r3, #48]	; 0x30
 8000726:	6b1b      	ldr	r3, [r3, #48]	; 0x30
 8000728:	f003 0302 	and.w	r3, r3, #2
 800072c:	9304      	str	r3, [sp, #16]
 800072e:	4622      	mov	r2, r4
 8000730:	4640      	mov	r0, r8
 8000732:	f44f 417f 	mov.w	r1, #65280	; 0xff00
 8000736:	9b04      	ldr	r3, [sp, #16]
 8000738:	f000 ffca 	bl	80016d0 <HAL_GPIO_WritePin>
 800073c:	4622      	mov	r2, r4
 800073e:	4628      	mov	r0, r5
 8000740:	f44f 5180 	mov.w	r1, #4096	; 0x1000
 8000744:	f000 ffc4 	bl	80016d0 <HAL_GPIO_WritePin>
 8000748:	2701      	movs	r7, #1
 800074a:	f44f 437f 	mov.w	r3, #65280	; 0xff00
 800074e:	2603      	movs	r6, #3
 8000750:	a905      	add	r1, sp, #20
 8000752:	4640      	mov	r0, r8
 8000754:	e9cd 3705 	strd	r3, r7, [sp, #20]
 8000758:	9407      	str	r4, [sp, #28]
 800075a:	9608      	str	r6, [sp, #32]
 800075c:	f000 fede 	bl	800151c <HAL_GPIO_Init>
 8000760:	f44f 5380 	mov.w	r3, #4096	; 0x1000
 8000764:	a905      	add	r1, sp, #20
 8000766:	4628      	mov	r0, r5
 8000768:	e9cd 3705 	strd	r3, r7, [sp, #20]
 800076c:	e9cd 4607 	strd	r4, r6, [sp, #28]
 8000770:	f000 fed4 	bl	800151c <HAL_GPIO_Init>
 8000774:	b00a      	add	sp, #40	; 0x28
 8000776:	e8bd 81f0 	ldmia.w	sp!, {r4, r5, r6, r7, r8, pc}
 800077a:	bf00      	nop
 800077c:	40023800 	.word	0x40023800
 8000780:	40020400 	.word	0x40020400
 8000784:	40021000 	.word	0x40021000

08000788 <SystemClock_Config>:
 8000788:	b530      	push	{r4, r5, lr}
 800078a:	b095      	sub	sp, #84	; 0x54
 800078c:	2210      	movs	r2, #16
 800078e:	2100      	movs	r1, #0
 8000790:	a80a      	add	r0, sp, #40	; 0x28
 8000792:	f002 fa6b 	bl	8002c6c <memset>
 8000796:	2100      	movs	r1, #0
 8000798:	2214      	movs	r2, #20
 800079a:	a803      	add	r0, sp, #12
 800079c:	f002 fa66 	bl	8002c6c <memset>
 80007a0:	2400      	movs	r4, #0
 80007a2:	4b1c      	ldr	r3, [pc, #112]	; (8000814 <SystemClock_Config+0x8c>)
 80007a4:	9401      	str	r4, [sp, #4]
 80007a6:	6c1a      	ldr	r2, [r3, #64]	; 0x40
 80007a8:	f042 5280 	orr.w	r2, r2, #268435456	; 0x10000000
 80007ac:	641a      	str	r2, [r3, #64]	; 0x40
 80007ae:	6c1b      	ldr	r3, [r3, #64]	; 0x40
 80007b0:	f003 5380 	and.w	r3, r3, #268435456	; 0x10000000
 80007b4:	9301      	str	r3, [sp, #4]
 80007b6:	9b01      	ldr	r3, [sp, #4]
 80007b8:	4b17      	ldr	r3, [pc, #92]	; (8000818 <SystemClock_Config+0x90>)
 80007ba:	9402      	str	r4, [sp, #8]
 80007bc:	681a      	ldr	r2, [r3, #0]
 80007be:	f442 4280 	orr.w	r2, r2, #16384	; 0x4000
 80007c2:	601a      	str	r2, [r3, #0]
 80007c4:	681b      	ldr	r3, [r3, #0]
 80007c6:	f403 4380 	and.w	r3, r3, #16384	; 0x4000
 80007ca:	9302      	str	r3, [sp, #8]
 80007cc:	9b02      	ldr	r3, [sp, #8]
 80007ce:	2201      	movs	r2, #1
 80007d0:	f44f 3380 	mov.w	r3, #65536	; 0x10000
 80007d4:	e9cd 2308 	strd	r2, r3, [sp, #32]
 80007d8:	2502      	movs	r5, #2
 80007da:	f44f 0380 	mov.w	r3, #4194304	; 0x400000
 80007de:	22a8      	movs	r2, #168	; 0xa8
 80007e0:	e9cd 530e 	strd	r5, r3, [sp, #56]	; 0x38
 80007e4:	a808      	add	r0, sp, #32
 80007e6:	2304      	movs	r3, #4
 80007e8:	e9cd 3210 	strd	r3, r2, [sp, #64]	; 0x40
 80007ec:	e9cd 5312 	strd	r5, r3, [sp, #72]	; 0x48
 80007f0:	f000 ff74 	bl	80016dc <HAL_RCC_OscConfig>
 80007f4:	230f      	movs	r3, #15
 80007f6:	e9cd 3503 	strd	r3, r5, [sp, #12]
 80007fa:	f44f 51a0 	mov.w	r1, #5120	; 0x1400
 80007fe:	f44f 5380 	mov.w	r3, #4096	; 0x1000
 8000802:	e9cd 1306 	strd	r1, r3, [sp, #24]
 8000806:	a803      	add	r0, sp, #12
 8000808:	2105      	movs	r1, #5
 800080a:	9405      	str	r4, [sp, #20]
 800080c:	f001 f940 	bl	8001a90 <HAL_RCC_ClockConfig>
 8000810:	b015      	add	sp, #84	; 0x54
 8000812:	bd30      	pop	{r4, r5, pc}
 8000814:	40023800 	.word	0x40023800
 8000818:	40007000 	.word	0x40007000

0800081c <main>:
 800081c:	b508      	push	{r3, lr}
 800081e:	f000 fc05 	bl	800102c <HAL_Init>
 8000822:	f7ff ffb1 	bl	8000788 <SystemClock_Config>
 8000826:	f7ff ff4d 	bl	80006c4 <MX_GPIO_Init>
 800082a:	f7ff ff17 	bl	800065c <MX_DMA_Init>
 800082e:	f000 f9ab 	bl	8000b88 <MX_TIM1_Init>
 8000832:	f000 fa61 	bl	8000cf8 <MX_TIM2_Init>
 8000836:	f000 faa7 	bl	8000d88 <MX_USART2_UART_Init>
 800083a:	f000 f831 	bl	80008a0 <UB_VGA_Screen_Init>
 800083e:	20ff      	movs	r0, #255	; 0xff
 8000840:	f000 f886 	bl	8000950 <UB_VGA_FillScreen>
 8000844:	220a      	movs	r2, #10
 8000846:	4611      	mov	r1, r2
 8000848:	4610      	mov	r0, r2
 800084a:	f000 f86f 	bl	800092c <UB_VGA_SetPixel>
 800084e:	2100      	movs	r1, #0
 8000850:	4c0f      	ldr	r4, [pc, #60]	; (8000890 <main+0x74>)
 8000852:	4608      	mov	r0, r1
 8000854:	220a      	movs	r2, #10
 8000856:	f000 f869 	bl	800092c <UB_VGA_SetPixel>
 800085a:	220a      	movs	r2, #10
 800085c:	2100      	movs	r1, #0
 800085e:	f240 103f 	movw	r0, #319	; 0x13f
 8000862:	f000 f863 	bl	800092c <UB_VGA_SetPixel>
 8000866:	6822      	ldr	r2, [r4, #0]
 8000868:	490a      	ldr	r1, [pc, #40]	; (8000894 <main+0x78>)
 800086a:	68d3      	ldr	r3, [r2, #12]
 800086c:	f043 0310 	orr.w	r3, r3, #16
 8000870:	60d3      	str	r3, [r2, #12]
 8000872:	4620      	mov	r0, r4
 8000874:	2280      	movs	r2, #128	; 0x80
 8000876:	f002 f9b7 	bl	8002be8 <HAL_UART_Receive_DMA>
 800087a:	4807      	ldr	r0, [pc, #28]	; (8000898 <main+0x7c>)
 800087c:	f7ff fcb2 	bl	80001e4 <strlen>
 8000880:	4905      	ldr	r1, [pc, #20]	; (8000898 <main+0x7c>)
 8000882:	b282      	uxth	r2, r0
 8000884:	2364      	movs	r3, #100	; 0x64
 8000886:	4620      	mov	r0, r4
 8000888:	f001 ff14 	bl	80026b4 <HAL_UART_Transmit>
 800088c:	e7fe      	b.n	800088c <main+0x70>
 800088e:	bf00      	nop
 8000890:	20013028 	.word	0x20013028
 8000894:	20012ea8 	.word	0x20012ea8
 8000898:	20000000 	.word	0x20000000

0800089c <Error_Handler>:
 800089c:	4770      	bx	lr
	...

080008a0 <UB_VGA_Screen_Init>:
 80008a0:	b538      	push	{r3, r4, r5, lr}
 80008a2:	4c1b      	ldr	r4, [pc, #108]	; (8000910 <UB_VGA_Screen_Init+0x70>)
 80008a4:	4d1b      	ldr	r5, [pc, #108]	; (8000914 <UB_VGA_Screen_Init+0x74>)
 80008a6:	2300      	movs	r3, #0
 80008a8:	e9c4 3301 	strd	r3, r3, [r4, #4]
 80008ac:	8023      	strh	r3, [r4, #0]
 80008ae:	f103 4380 	add.w	r3, r3, #1073741824	; 0x40000000
 80008b2:	f503 3301 	add.w	r3, r3, #132096	; 0x20400
 80008b6:	f44f 5280 	mov.w	r2, #4096	; 0x1000
 80008ba:	619a      	str	r2, [r3, #24]
 80008bc:	4628      	mov	r0, r5
 80008be:	f001 fa31 	bl	8001d24 <HAL_TIM_Base_Start>
 80008c2:	210c      	movs	r1, #12
 80008c4:	4628      	mov	r0, r5
 80008c6:	f001 fd6d 	bl	80023a4 <HAL_TIM_PWM_Start>
 80008ca:	2108      	movs	r1, #8
 80008cc:	4628      	mov	r0, r5
 80008ce:	f001 fde5 	bl	800249c <HAL_TIM_PWM_Start_IT>
 80008d2:	4b11      	ldr	r3, [pc, #68]	; (8000918 <UB_VGA_Screen_Init+0x78>)
 80008d4:	4d11      	ldr	r5, [pc, #68]	; (800091c <UB_VGA_Screen_Init+0x7c>)
 80008d6:	681b      	ldr	r3, [r3, #0]
 80008d8:	4911      	ldr	r1, [pc, #68]	; (8000920 <UB_VGA_Screen_Init+0x80>)
 80008da:	68da      	ldr	r2, [r3, #12]
 80008dc:	f442 7280 	orr.w	r2, r2, #256	; 0x100
 80008e0:	60da      	str	r2, [r3, #12]
 80008e2:	681a      	ldr	r2, [r3, #0]
 80008e4:	f042 0201 	orr.w	r2, r2, #1
 80008e8:	601a      	str	r2, [r3, #0]
 80008ea:	4628      	mov	r0, r5
 80008ec:	4a0d      	ldr	r2, [pc, #52]	; (8000924 <UB_VGA_Screen_Init+0x84>)
 80008ee:	f240 1341 	movw	r3, #321	; 0x141
 80008f2:	f000 fcc5 	bl	8001280 <HAL_DMA_Start_IT>
 80008f6:	4628      	mov	r0, r5
 80008f8:	f000 fc42 	bl	8001180 <HAL_DMA_Init>
 80008fc:	682a      	ldr	r2, [r5, #0]
 80008fe:	6813      	ldr	r3, [r2, #0]
 8000900:	f043 0310 	orr.w	r3, r3, #16
 8000904:	6013      	str	r3, [r2, #0]
 8000906:	4b08      	ldr	r3, [pc, #32]	; (8000928 <UB_VGA_Screen_Init+0x88>)
 8000908:	681b      	ldr	r3, [r3, #0]
 800090a:	60a3      	str	r3, [r4, #8]
 800090c:	bd38      	pop	{r3, r4, r5, pc}
 800090e:	bf00      	nop
 8000910:	200000bc 	.word	0x200000bc
 8000914:	20012e60 	.word	0x20012e60
 8000918:	20012db8 	.word	0x20012db8
 800091c:	20012e00 	.word	0x20012e00
 8000920:	200000c8 	.word	0x200000c8
 8000924:	40021015 	.word	0x40021015
 8000928:	40026488 	.word	0x40026488

0800092c <UB_VGA_SetPixel>:
 800092c:	4b07      	ldr	r3, [pc, #28]	; (800094c <UB_VGA_SetPixel+0x20>)
 800092e:	b510      	push	{r4, lr}
 8000930:	29ef      	cmp	r1, #239	; 0xef
 8000932:	bf88      	it	hi
 8000934:	2100      	movhi	r1, #0
 8000936:	f240 1441 	movw	r4, #321	; 0x141
 800093a:	f5b0 7fa0 	cmp.w	r0, #320	; 0x140
 800093e:	bf28      	it	cs
 8000940:	2000      	movcs	r0, #0
 8000942:	fb04 3101 	mla	r1, r4, r1, r3
 8000946:	540a      	strb	r2, [r1, r0]
 8000948:	bd10      	pop	{r4, pc}
 800094a:	bf00      	nop
 800094c:	200000c8 	.word	0x200000c8

08000950 <UB_VGA_FillScreen>:
 8000950:	b538      	push	{r3, r4, r5, lr}
 8000952:	4602      	mov	r2, r0
 8000954:	2400      	movs	r4, #0
 8000956:	2500      	movs	r5, #0
 8000958:	b2a8      	uxth	r0, r5
 800095a:	4621      	mov	r1, r4
 800095c:	3501      	adds	r5, #1
 800095e:	f7ff ffe5 	bl	800092c <UB_VGA_SetPixel>
 8000962:	f5b5 7fa0 	cmp.w	r5, #320	; 0x140
 8000966:	d1f7      	bne.n	8000958 <UB_VGA_FillScreen+0x8>
 8000968:	3401      	adds	r4, #1
 800096a:	b2a4      	uxth	r4, r4
 800096c:	2cf0      	cmp	r4, #240	; 0xf0
 800096e:	d1f2      	bne.n	8000956 <UB_VGA_FillScreen+0x6>
 8000970:	bd38      	pop	{r3, r4, r5, pc}
	...

08000974 <HAL_MspInit>:
 8000974:	b082      	sub	sp, #8
 8000976:	4b0c      	ldr	r3, [pc, #48]	; (80009a8 <HAL_MspInit+0x34>)
 8000978:	2100      	movs	r1, #0
 800097a:	9100      	str	r1, [sp, #0]
 800097c:	6c5a      	ldr	r2, [r3, #68]	; 0x44
 800097e:	f442 4280 	orr.w	r2, r2, #16384	; 0x4000
 8000982:	645a      	str	r2, [r3, #68]	; 0x44
 8000984:	6c5a      	ldr	r2, [r3, #68]	; 0x44
 8000986:	f402 4280 	and.w	r2, r2, #16384	; 0x4000
 800098a:	9200      	str	r2, [sp, #0]
 800098c:	9a00      	ldr	r2, [sp, #0]
 800098e:	9101      	str	r1, [sp, #4]
 8000990:	6c1a      	ldr	r2, [r3, #64]	; 0x40
 8000992:	f042 5280 	orr.w	r2, r2, #268435456	; 0x10000000
 8000996:	641a      	str	r2, [r3, #64]	; 0x40
 8000998:	6c1b      	ldr	r3, [r3, #64]	; 0x40
 800099a:	f003 5380 	and.w	r3, r3, #268435456	; 0x10000000
 800099e:	9301      	str	r3, [sp, #4]
 80009a0:	9b01      	ldr	r3, [sp, #4]
 80009a2:	b002      	add	sp, #8
 80009a4:	4770      	bx	lr
 80009a6:	bf00      	nop
 80009a8:	40023800 	.word	0x40023800

080009ac <NMI_Handler>:
 80009ac:	4770      	bx	lr

080009ae <HardFault_Handler>:
 80009ae:	e7fe      	b.n	80009ae <HardFault_Handler>

080009b0 <MemManage_Handler>:
 80009b0:	e7fe      	b.n	80009b0 <MemManage_Handler>

080009b2 <BusFault_Handler>:
 80009b2:	e7fe      	b.n	80009b2 <BusFault_Handler>

080009b4 <UsageFault_Handler>:
 80009b4:	e7fe      	b.n	80009b4 <UsageFault_Handler>

080009b6 <SVC_Handler>:
 80009b6:	4770      	bx	lr

080009b8 <DebugMon_Handler>:
 80009b8:	4770      	bx	lr

080009ba <PendSV_Handler>:
 80009ba:	4770      	bx	lr

080009bc <SysTick_Handler>:
 80009bc:	f000 bb50 	b.w	8001060 <HAL_IncTick>

080009c0 <DMA1_Stream5_IRQHandler>:
 80009c0:	4801      	ldr	r0, [pc, #4]	; (80009c8 <DMA1_Stream5_IRQHandler+0x8>)
 80009c2:	f000 bced 	b.w	80013a0 <HAL_DMA_IRQHandler>
 80009c6:	bf00      	nop
 80009c8:	20012f28 	.word	0x20012f28

080009cc <DMA1_Stream6_IRQHandler>:
 80009cc:	4801      	ldr	r0, [pc, #4]	; (80009d4 <DMA1_Stream6_IRQHandler+0x8>)
 80009ce:	f000 bce7 	b.w	80013a0 <HAL_DMA_IRQHandler>
 80009d2:	bf00      	nop
 80009d4:	20012f88 	.word	0x20012f88

080009d8 <TIM2_IRQHandler>:
 80009d8:	b510      	push	{r4, lr}
 80009da:	4c1d      	ldr	r4, [pc, #116]	; (8000a50 <TIM2_IRQHandler+0x78>)
 80009dc:	4620      	mov	r0, r4
 80009de:	f001 f9dc 	bl	8001d9a <HAL_TIM_IRQHandler>
 80009e2:	6823      	ldr	r3, [r4, #0]
 80009e4:	f06f 0208 	mvn.w	r2, #8
 80009e8:	611a      	str	r2, [r3, #16]
 80009ea:	4b1a      	ldr	r3, [pc, #104]	; (8000a54 <TIM2_IRQHandler+0x7c>)
 80009ec:	881a      	ldrh	r2, [r3, #0]
 80009ee:	3201      	adds	r2, #1
 80009f0:	b292      	uxth	r2, r2
 80009f2:	f5b2 7f03 	cmp.w	r2, #524	; 0x20c
 80009f6:	bf86      	itte	hi
 80009f8:	2200      	movhi	r2, #0
 80009fa:	801a      	strhhi	r2, [r3, #0]
 80009fc:	801a      	strhls	r2, [r3, #0]
 80009fe:	8819      	ldrh	r1, [r3, #0]
 8000a00:	bf84      	itt	hi
 8000a02:	4a15      	ldrhi	r2, [pc, #84]	; (8000a58 <TIM2_IRQHandler+0x80>)
 8000a04:	605a      	strhi	r2, [r3, #4]
 8000a06:	2902      	cmp	r1, #2
 8000a08:	4a14      	ldr	r2, [pc, #80]	; (8000a5c <TIM2_IRQHandler+0x84>)
 8000a0a:	bf34      	ite	cc
 8000a0c:	f04f 5080 	movcc.w	r0, #268435456	; 0x10000000
 8000a10:	f44f 5080 	movcs.w	r0, #4096	; 0x1000
 8000a14:	6190      	str	r0, [r2, #24]
 8000a16:	f1a1 0224 	sub.w	r2, r1, #36	; 0x24
 8000a1a:	f5b2 7fef 	cmp.w	r2, #478	; 0x1de
 8000a1e:	d815      	bhi.n	8000a4c <TIM2_IRQHandler+0x74>
 8000a20:	480f      	ldr	r0, [pc, #60]	; (8000a60 <TIM2_IRQHandler+0x88>)
 8000a22:	689a      	ldr	r2, [r3, #8]
 8000a24:	6002      	str	r2, [r0, #0]
 8000a26:	685a      	ldr	r2, [r3, #4]
 8000a28:	4c0e      	ldr	r4, [pc, #56]	; (8000a64 <TIM2_IRQHandler+0x8c>)
 8000a2a:	60c2      	str	r2, [r0, #12]
 8000a2c:	6820      	ldr	r0, [r4, #0]
 8000a2e:	f040 0001 	orr.w	r0, r0, #1
 8000a32:	6020      	str	r0, [r4, #0]
 8000a34:	480c      	ldr	r0, [pc, #48]	; (8000a68 <TIM2_IRQHandler+0x90>)
 8000a36:	6804      	ldr	r4, [r0, #0]
 8000a38:	6820      	ldr	r0, [r4, #0]
 8000a3a:	07c9      	lsls	r1, r1, #31
 8000a3c:	f040 0001 	orr.w	r0, r0, #1
 8000a40:	bf48      	it	mi
 8000a42:	f202 1241 	addwmi	r2, r2, #321	; 0x141
 8000a46:	6020      	str	r0, [r4, #0]
 8000a48:	bf48      	it	mi
 8000a4a:	605a      	strmi	r2, [r3, #4]
 8000a4c:	bd10      	pop	{r4, pc}
 8000a4e:	bf00      	nop
 8000a50:	20012e60 	.word	0x20012e60
 8000a54:	200000bc 	.word	0x200000bc
 8000a58:	200000c8 	.word	0x200000c8
 8000a5c:	40020400 	.word	0x40020400
 8000a60:	40026488 	.word	0x40026488
 8000a64:	40010000 	.word	0x40010000
 8000a68:	20012e00 	.word	0x20012e00

08000a6c <USART2_IRQHandler>:
 8000a6c:	b510      	push	{r4, lr}
 8000a6e:	4c07      	ldr	r4, [pc, #28]	; (8000a8c <USART2_IRQHandler+0x20>)
 8000a70:	4620      	mov	r0, r4
 8000a72:	f001 ff49 	bl	8002908 <HAL_UART_IRQHandler>
 8000a76:	6823      	ldr	r3, [r4, #0]
 8000a78:	681b      	ldr	r3, [r3, #0]
 8000a7a:	06db      	lsls	r3, r3, #27
 8000a7c:	d504      	bpl.n	8000a88 <USART2_IRQHandler+0x1c>
 8000a7e:	4620      	mov	r0, r4
 8000a80:	e8bd 4010 	ldmia.w	sp!, {r4, lr}
 8000a84:	f000 ba18 	b.w	8000eb8 <HAL_UART_RxCpltCallback>
 8000a88:	bd10      	pop	{r4, pc}
 8000a8a:	bf00      	nop
 8000a8c:	20013028 	.word	0x20013028

08000a90 <DMA2_Stream5_IRQHandler>:
 8000a90:	4b0b      	ldr	r3, [pc, #44]	; (8000ac0 <DMA2_Stream5_IRQHandler+0x30>)
 8000a92:	681b      	ldr	r3, [r3, #0]
 8000a94:	6a19      	ldr	r1, [r3, #32]
 8000a96:	f241 1211 	movw	r2, #4369	; 0x1111
 8000a9a:	4211      	tst	r1, r2
 8000a9c:	d108      	bne.n	8000ab0 <DMA2_Stream5_IRQHandler+0x20>
 8000a9e:	6a19      	ldr	r1, [r3, #32]
 8000aa0:	f240 4244 	movw	r2, #1092	; 0x444
 8000aa4:	4211      	tst	r1, r2
 8000aa6:	bf02      	ittt	eq
 8000aa8:	681a      	ldreq	r2, [r3, #0]
 8000aaa:	f022 0201 	biceq.w	r2, r2, #1
 8000aae:	601a      	streq	r2, [r3, #0]
 8000ab0:	4b04      	ldr	r3, [pc, #16]	; (8000ac4 <DMA2_Stream5_IRQHandler+0x34>)
 8000ab2:	4805      	ldr	r0, [pc, #20]	; (8000ac8 <DMA2_Stream5_IRQHandler+0x38>)
 8000ab4:	f04f 427f 	mov.w	r2, #4278190080	; 0xff000000
 8000ab8:	619a      	str	r2, [r3, #24]
 8000aba:	f000 bc71 	b.w	80013a0 <HAL_DMA_IRQHandler>
 8000abe:	bf00      	nop
 8000ac0:	20012db8 	.word	0x20012db8
 8000ac4:	40021000 	.word	0x40021000
 8000ac8:	20012e00 	.word	0x20012e00

08000acc <_getpid>:
 8000acc:	2001      	movs	r0, #1
 8000ace:	4770      	bx	lr

08000ad0 <_kill>:
 8000ad0:	b508      	push	{r3, lr}
 8000ad2:	f002 f8a1 	bl	8002c18 <__errno>
 8000ad6:	2316      	movs	r3, #22
 8000ad8:	6003      	str	r3, [r0, #0]
 8000ada:	f04f 30ff 	mov.w	r0, #4294967295
 8000ade:	bd08      	pop	{r3, pc}

08000ae0 <_exit>:
 8000ae0:	b508      	push	{r3, lr}
 8000ae2:	f002 f899 	bl	8002c18 <__errno>
 8000ae6:	2316      	movs	r3, #22
 8000ae8:	6003      	str	r3, [r0, #0]
 8000aea:	e7fe      	b.n	8000aea <_exit+0xa>

08000aec <_read>:
 8000aec:	b570      	push	{r4, r5, r6, lr}
 8000aee:	460e      	mov	r6, r1
 8000af0:	4614      	mov	r4, r2
 8000af2:	2500      	movs	r5, #0
 8000af4:	42a5      	cmp	r5, r4
 8000af6:	db01      	blt.n	8000afc <_read+0x10>
 8000af8:	4620      	mov	r0, r4
 8000afa:	bd70      	pop	{r4, r5, r6, pc}
 8000afc:	f3af 8000 	nop.w
 8000b00:	5570      	strb	r0, [r6, r5]
 8000b02:	3501      	adds	r5, #1
 8000b04:	e7f6      	b.n	8000af4 <_read+0x8>

08000b06 <_write>:
 8000b06:	b570      	push	{r4, r5, r6, lr}
 8000b08:	460e      	mov	r6, r1
 8000b0a:	4614      	mov	r4, r2
 8000b0c:	2500      	movs	r5, #0
 8000b0e:	42a5      	cmp	r5, r4
 8000b10:	db01      	blt.n	8000b16 <_write+0x10>
 8000b12:	4620      	mov	r0, r4
 8000b14:	bd70      	pop	{r4, r5, r6, pc}
 8000b16:	5d70      	ldrb	r0, [r6, r5]
 8000b18:	f3af 8000 	nop.w
 8000b1c:	3501      	adds	r5, #1
 8000b1e:	e7f6      	b.n	8000b0e <_write+0x8>

08000b20 <_close>:
 8000b20:	f04f 30ff 	mov.w	r0, #4294967295
 8000b24:	4770      	bx	lr

08000b26 <_fstat>:
 8000b26:	f44f 5300 	mov.w	r3, #8192	; 0x2000
 8000b2a:	604b      	str	r3, [r1, #4]
 8000b2c:	2000      	movs	r0, #0
 8000b2e:	4770      	bx	lr

08000b30 <_isatty>:
 8000b30:	2001      	movs	r0, #1
 8000b32:	4770      	bx	lr

08000b34 <_lseek>:
 8000b34:	2000      	movs	r0, #0
 8000b36:	4770      	bx	lr

08000b38 <_sbrk>:
 8000b38:	b508      	push	{r3, lr}
 8000b3a:	4b0a      	ldr	r3, [pc, #40]	; (8000b64 <_sbrk+0x2c>)
 8000b3c:	6819      	ldr	r1, [r3, #0]
 8000b3e:	4602      	mov	r2, r0
 8000b40:	b909      	cbnz	r1, 8000b46 <_sbrk+0xe>
 8000b42:	4909      	ldr	r1, [pc, #36]	; (8000b68 <_sbrk+0x30>)
 8000b44:	6019      	str	r1, [r3, #0]
 8000b46:	6818      	ldr	r0, [r3, #0]
 8000b48:	4669      	mov	r1, sp
 8000b4a:	4402      	add	r2, r0
 8000b4c:	428a      	cmp	r2, r1
 8000b4e:	d906      	bls.n	8000b5e <_sbrk+0x26>
 8000b50:	f002 f862 	bl	8002c18 <__errno>
 8000b54:	230c      	movs	r3, #12
 8000b56:	6003      	str	r3, [r0, #0]
 8000b58:	f04f 30ff 	mov.w	r0, #4294967295
 8000b5c:	bd08      	pop	{r3, pc}
 8000b5e:	601a      	str	r2, [r3, #0]
 8000b60:	e7fc      	b.n	8000b5c <_sbrk+0x24>
 8000b62:	bf00      	nop
 8000b64:	200000ac 	.word	0x200000ac
 8000b68:	20013080 	.word	0x20013080

08000b6c <SystemInit>:
 8000b6c:	4b05      	ldr	r3, [pc, #20]	; (8000b84 <SystemInit+0x18>)
 8000b6e:	f8d3 2088 	ldr.w	r2, [r3, #136]	; 0x88
 8000b72:	f442 0270 	orr.w	r2, r2, #15728640	; 0xf00000
 8000b76:	f8c3 2088 	str.w	r2, [r3, #136]	; 0x88
 8000b7a:	f04f 6200 	mov.w	r2, #134217728	; 0x8000000
 8000b7e:	609a      	str	r2, [r3, #8]
 8000b80:	4770      	bx	lr
 8000b82:	bf00      	nop
 8000b84:	e000ed00 	.word	0xe000ed00

08000b88 <MX_TIM1_Init>:
 8000b88:	b57f      	push	{r0, r1, r2, r3, r4, r5, r6, lr}
 8000b8a:	2210      	movs	r2, #16
 8000b8c:	2100      	movs	r1, #0
 8000b8e:	a802      	add	r0, sp, #8
 8000b90:	f002 f86c 	bl	8002c6c <memset>
 8000b94:	4814      	ldr	r0, [pc, #80]	; (8000be8 <MX_TIM1_Init+0x60>)
 8000b96:	4a15      	ldr	r2, [pc, #84]	; (8000bec <MX_TIM1_Init+0x64>)
 8000b98:	2300      	movs	r3, #0
 8000b9a:	e9c0 2300 	strd	r2, r3, [r0]
 8000b9e:	220b      	movs	r2, #11
 8000ba0:	e9cd 3300 	strd	r3, r3, [sp]
 8000ba4:	e9c0 2303 	strd	r2, r3, [r0, #12]
 8000ba8:	e9c0 3305 	strd	r3, r3, [r0, #20]
 8000bac:	6083      	str	r3, [r0, #8]
 8000bae:	f001 f9fd 	bl	8001fac <HAL_TIM_Base_Init>
 8000bb2:	b108      	cbz	r0, 8000bb8 <MX_TIM1_Init+0x30>
 8000bb4:	f7ff fe72 	bl	800089c <Error_Handler>
 8000bb8:	f44f 5380 	mov.w	r3, #4096	; 0x1000
 8000bbc:	480a      	ldr	r0, [pc, #40]	; (8000be8 <MX_TIM1_Init+0x60>)
 8000bbe:	9302      	str	r3, [sp, #8]
 8000bc0:	a902      	add	r1, sp, #8
 8000bc2:	f001 fae6 	bl	8002192 <HAL_TIM_ConfigClockSource>
 8000bc6:	b108      	cbz	r0, 8000bcc <MX_TIM1_Init+0x44>
 8000bc8:	f7ff fe68 	bl	800089c <Error_Handler>
 8000bcc:	2300      	movs	r3, #0
 8000bce:	4806      	ldr	r0, [pc, #24]	; (8000be8 <MX_TIM1_Init+0x60>)
 8000bd0:	4669      	mov	r1, sp
 8000bd2:	e9cd 3300 	strd	r3, r3, [sp]
 8000bd6:	f001 fc63 	bl	80024a0 <HAL_TIMEx_MasterConfigSynchronization>
 8000bda:	b108      	cbz	r0, 8000be0 <MX_TIM1_Init+0x58>
 8000bdc:	f7ff fe5e 	bl	800089c <Error_Handler>
 8000be0:	b007      	add	sp, #28
 8000be2:	f85d fb04 	ldr.w	pc, [sp], #4
 8000be6:	bf00      	nop
 8000be8:	20012db8 	.word	0x20012db8
 8000bec:	40010000 	.word	0x40010000

08000bf0 <HAL_TIM_Base_MspInit>:
 8000bf0:	b537      	push	{r0, r1, r2, r4, r5, lr}
 8000bf2:	4b17      	ldr	r3, [pc, #92]	; (8000c50 <HAL_TIM_Base_MspInit+0x60>)
 8000bf4:	6802      	ldr	r2, [r0, #0]
 8000bf6:	429a      	cmp	r2, r3
 8000bf8:	4605      	mov	r5, r0
 8000bfa:	d126      	bne.n	8000c4a <HAL_TIM_Base_MspInit+0x5a>
 8000bfc:	2300      	movs	r3, #0
 8000bfe:	4a15      	ldr	r2, [pc, #84]	; (8000c54 <HAL_TIM_Base_MspInit+0x64>)
 8000c00:	9301      	str	r3, [sp, #4]
 8000c02:	6c51      	ldr	r1, [r2, #68]	; 0x44
 8000c04:	4c14      	ldr	r4, [pc, #80]	; (8000c58 <HAL_TIM_Base_MspInit+0x68>)
 8000c06:	f041 0101 	orr.w	r1, r1, #1
 8000c0a:	6451      	str	r1, [r2, #68]	; 0x44
 8000c0c:	6c52      	ldr	r2, [r2, #68]	; 0x44
 8000c0e:	4913      	ldr	r1, [pc, #76]	; (8000c5c <HAL_TIM_Base_MspInit+0x6c>)
 8000c10:	f002 0201 	and.w	r2, r2, #1
 8000c14:	9201      	str	r2, [sp, #4]
 8000c16:	9a01      	ldr	r2, [sp, #4]
 8000c18:	f04f 6240 	mov.w	r2, #201326592	; 0xc000000
 8000c1c:	e9c4 1200 	strd	r1, r2, [r4]
 8000c20:	2240      	movs	r2, #64	; 0x40
 8000c22:	e9c4 2302 	strd	r2, r3, [r4, #8]
 8000c26:	f44f 6280 	mov.w	r2, #1024	; 0x400
 8000c2a:	e9c4 2304 	strd	r2, r3, [r4, #16]
 8000c2e:	4620      	mov	r0, r4
 8000c30:	f44f 3240 	mov.w	r2, #196608	; 0x30000
 8000c34:	e9c4 3306 	strd	r3, r3, [r4, #24]
 8000c38:	e9c4 2308 	strd	r2, r3, [r4, #32]
 8000c3c:	f000 faa0 	bl	8001180 <HAL_DMA_Init>
 8000c40:	b108      	cbz	r0, 8000c46 <HAL_TIM_Base_MspInit+0x56>
 8000c42:	f7ff fe2b 	bl	800089c <Error_Handler>
 8000c46:	622c      	str	r4, [r5, #32]
 8000c48:	63a5      	str	r5, [r4, #56]	; 0x38
 8000c4a:	b003      	add	sp, #12
 8000c4c:	bd30      	pop	{r4, r5, pc}
 8000c4e:	bf00      	nop
 8000c50:	40010000 	.word	0x40010000
 8000c54:	40023800 	.word	0x40023800
 8000c58:	20012e00 	.word	0x20012e00
 8000c5c:	40026488 	.word	0x40026488

08000c60 <HAL_TIM_PWM_MspInit>:
 8000c60:	6803      	ldr	r3, [r0, #0]
 8000c62:	f1b3 4f80 	cmp.w	r3, #1073741824	; 0x40000000
 8000c66:	b507      	push	{r0, r1, r2, lr}
 8000c68:	d116      	bne.n	8000c98 <HAL_TIM_PWM_MspInit+0x38>
 8000c6a:	2200      	movs	r2, #0
 8000c6c:	f503 330e 	add.w	r3, r3, #145408	; 0x23800
 8000c70:	9201      	str	r2, [sp, #4]
 8000c72:	6c19      	ldr	r1, [r3, #64]	; 0x40
 8000c74:	f041 0101 	orr.w	r1, r1, #1
 8000c78:	6419      	str	r1, [r3, #64]	; 0x40
 8000c7a:	6c1b      	ldr	r3, [r3, #64]	; 0x40
 8000c7c:	f003 0301 	and.w	r3, r3, #1
 8000c80:	9301      	str	r3, [sp, #4]
 8000c82:	4611      	mov	r1, r2
 8000c84:	201c      	movs	r0, #28
 8000c86:	9b01      	ldr	r3, [sp, #4]
 8000c88:	f000 fa0e 	bl	80010a8 <HAL_NVIC_SetPriority>
 8000c8c:	201c      	movs	r0, #28
 8000c8e:	b003      	add	sp, #12
 8000c90:	f85d eb04 	ldr.w	lr, [sp], #4
 8000c94:	f000 ba3a 	b.w	800110c <HAL_NVIC_EnableIRQ>
 8000c98:	b003      	add	sp, #12
 8000c9a:	f85d fb04 	ldr.w	pc, [sp], #4
	...

08000ca0 <HAL_TIM_MspPostInit>:
 8000ca0:	b510      	push	{r4, lr}
 8000ca2:	4604      	mov	r4, r0
 8000ca4:	b086      	sub	sp, #24
 8000ca6:	2214      	movs	r2, #20
 8000ca8:	2100      	movs	r1, #0
 8000caa:	a801      	add	r0, sp, #4
 8000cac:	f001 ffde 	bl	8002c6c <memset>
 8000cb0:	6823      	ldr	r3, [r4, #0]
 8000cb2:	f1b3 4f80 	cmp.w	r3, #1073741824	; 0x40000000
 8000cb6:	d11a      	bne.n	8000cee <HAL_TIM_MspPostInit+0x4e>
 8000cb8:	2100      	movs	r1, #0
 8000cba:	f503 330e 	add.w	r3, r3, #145408	; 0x23800
 8000cbe:	9100      	str	r1, [sp, #0]
 8000cc0:	6b1a      	ldr	r2, [r3, #48]	; 0x30
 8000cc2:	480c      	ldr	r0, [pc, #48]	; (8000cf4 <HAL_TIM_MspPostInit+0x54>)
 8000cc4:	f042 0202 	orr.w	r2, r2, #2
 8000cc8:	631a      	str	r2, [r3, #48]	; 0x30
 8000cca:	6b1b      	ldr	r3, [r3, #48]	; 0x30
 8000ccc:	9103      	str	r1, [sp, #12]
 8000cce:	f003 0302 	and.w	r3, r3, #2
 8000cd2:	9300      	str	r3, [sp, #0]
 8000cd4:	9b00      	ldr	r3, [sp, #0]
 8000cd6:	f44f 6200 	mov.w	r2, #2048	; 0x800
 8000cda:	2302      	movs	r3, #2
 8000cdc:	2103      	movs	r1, #3
 8000cde:	e9cd 2301 	strd	r2, r3, [sp, #4]
 8000ce2:	2301      	movs	r3, #1
 8000ce4:	e9cd 1304 	strd	r1, r3, [sp, #16]
 8000ce8:	a901      	add	r1, sp, #4
 8000cea:	f000 fc17 	bl	800151c <HAL_GPIO_Init>
 8000cee:	b006      	add	sp, #24
 8000cf0:	bd10      	pop	{r4, pc}
 8000cf2:	bf00      	nop
 8000cf4:	40020400 	.word	0x40020400

08000cf8 <MX_TIM2_Init>:
 8000cf8:	b510      	push	{r4, lr}
 8000cfa:	2400      	movs	r4, #0
 8000cfc:	b08a      	sub	sp, #40	; 0x28
 8000cfe:	221c      	movs	r2, #28
 8000d00:	4621      	mov	r1, r4
 8000d02:	a803      	add	r0, sp, #12
 8000d04:	e9cd 4401 	strd	r4, r4, [sp, #4]
 8000d08:	f001 ffb0 	bl	8002c6c <memset>
 8000d0c:	481d      	ldr	r0, [pc, #116]	; (8000d84 <MX_TIM2_Init+0x8c>)
 8000d0e:	f04f 4380 	mov.w	r3, #1073741824	; 0x40000000
 8000d12:	e9c0 3400 	strd	r3, r4, [r0]
 8000d16:	f640 236b 	movw	r3, #2667	; 0xa6b
 8000d1a:	e9c0 3403 	strd	r3, r4, [r0, #12]
 8000d1e:	6084      	str	r4, [r0, #8]
 8000d20:	6184      	str	r4, [r0, #24]
 8000d22:	f001 f96f 	bl	8002004 <HAL_TIM_PWM_Init>
 8000d26:	b108      	cbz	r0, 8000d2c <MX_TIM2_Init+0x34>
 8000d28:	f7ff fdb8 	bl	800089c <Error_Handler>
 8000d2c:	4815      	ldr	r0, [pc, #84]	; (8000d84 <MX_TIM2_Init+0x8c>)
 8000d2e:	a901      	add	r1, sp, #4
 8000d30:	e9cd 4401 	strd	r4, r4, [sp, #4]
 8000d34:	f001 fbb4 	bl	80024a0 <HAL_TIMEx_MasterConfigSynchronization>
 8000d38:	b108      	cbz	r0, 8000d3e <MX_TIM2_Init+0x46>
 8000d3a:	f7ff fdaf 	bl	800089c <Error_Handler>
 8000d3e:	2260      	movs	r2, #96	; 0x60
 8000d40:	f240 13bb 	movw	r3, #443	; 0x1bb
 8000d44:	e9cd 2303 	strd	r2, r3, [sp, #12]
 8000d48:	2302      	movs	r3, #2
 8000d4a:	9305      	str	r3, [sp, #20]
 8000d4c:	480d      	ldr	r0, [pc, #52]	; (8000d84 <MX_TIM2_Init+0x8c>)
 8000d4e:	2300      	movs	r3, #0
 8000d50:	2208      	movs	r2, #8
 8000d52:	a903      	add	r1, sp, #12
 8000d54:	9307      	str	r3, [sp, #28]
 8000d56:	f001 f9b7 	bl	80020c8 <HAL_TIM_PWM_ConfigChannel>
 8000d5a:	b108      	cbz	r0, 8000d60 <MX_TIM2_Init+0x68>
 8000d5c:	f7ff fd9e 	bl	800089c <Error_Handler>
 8000d60:	220c      	movs	r2, #12
 8000d62:	f44f 73a0 	mov.w	r3, #320	; 0x140
 8000d66:	4807      	ldr	r0, [pc, #28]	; (8000d84 <MX_TIM2_Init+0x8c>)
 8000d68:	9304      	str	r3, [sp, #16]
 8000d6a:	eb0d 0102 	add.w	r1, sp, r2
 8000d6e:	f001 f9ab 	bl	80020c8 <HAL_TIM_PWM_ConfigChannel>
 8000d72:	b108      	cbz	r0, 8000d78 <MX_TIM2_Init+0x80>
 8000d74:	f7ff fd92 	bl	800089c <Error_Handler>
 8000d78:	4802      	ldr	r0, [pc, #8]	; (8000d84 <MX_TIM2_Init+0x8c>)
 8000d7a:	f7ff ff91 	bl	8000ca0 <HAL_TIM_MspPostInit>
 8000d7e:	b00a      	add	sp, #40	; 0x28
 8000d80:	bd10      	pop	{r4, pc}
 8000d82:	bf00      	nop
 8000d84:	20012e60 	.word	0x20012e60

08000d88 <MX_USART2_UART_Init>:
 8000d88:	480b      	ldr	r0, [pc, #44]	; (8000db8 <MX_USART2_UART_Init+0x30>)
 8000d8a:	4a0c      	ldr	r2, [pc, #48]	; (8000dbc <MX_USART2_UART_Init+0x34>)
 8000d8c:	b508      	push	{r3, lr}
 8000d8e:	f44f 33e1 	mov.w	r3, #115200	; 0x1c200
 8000d92:	e9c0 2300 	strd	r2, r3, [r0]
 8000d96:	2300      	movs	r3, #0
 8000d98:	220c      	movs	r2, #12
 8000d9a:	e9c0 3302 	strd	r3, r3, [r0, #8]
 8000d9e:	e9c0 2305 	strd	r2, r3, [r0, #20]
 8000da2:	6103      	str	r3, [r0, #16]
 8000da4:	61c3      	str	r3, [r0, #28]
 8000da6:	f001 fc57 	bl	8002658 <HAL_UART_Init>
 8000daa:	b118      	cbz	r0, 8000db4 <MX_USART2_UART_Init+0x2c>
 8000dac:	e8bd 4008 	ldmia.w	sp!, {r3, lr}
 8000db0:	f7ff bd74 	b.w	800089c <Error_Handler>
 8000db4:	bd08      	pop	{r3, pc}
 8000db6:	bf00      	nop
 8000db8:	20013028 	.word	0x20013028
 8000dbc:	40004400 	.word	0x40004400

08000dc0 <HAL_UART_MspInit>:
 8000dc0:	b570      	push	{r4, r5, r6, lr}
 8000dc2:	4606      	mov	r6, r0
 8000dc4:	b088      	sub	sp, #32
 8000dc6:	2214      	movs	r2, #20
 8000dc8:	2100      	movs	r1, #0
 8000dca:	a803      	add	r0, sp, #12
 8000dcc:	f001 ff4e 	bl	8002c6c <memset>
 8000dd0:	6832      	ldr	r2, [r6, #0]
 8000dd2:	4b33      	ldr	r3, [pc, #204]	; (8000ea0 <HAL_UART_MspInit+0xe0>)
 8000dd4:	429a      	cmp	r2, r3
 8000dd6:	d160      	bne.n	8000e9a <HAL_UART_MspInit+0xda>
 8000dd8:	2500      	movs	r5, #0
 8000dda:	f503 33fa 	add.w	r3, r3, #128000	; 0x1f400
 8000dde:	9501      	str	r5, [sp, #4]
 8000de0:	6c1a      	ldr	r2, [r3, #64]	; 0x40
 8000de2:	f442 3200 	orr.w	r2, r2, #131072	; 0x20000
 8000de6:	641a      	str	r2, [r3, #64]	; 0x40
 8000de8:	6c1a      	ldr	r2, [r3, #64]	; 0x40
 8000dea:	f402 3200 	and.w	r2, r2, #131072	; 0x20000
 8000dee:	9201      	str	r2, [sp, #4]
 8000df0:	9a01      	ldr	r2, [sp, #4]
 8000df2:	9502      	str	r5, [sp, #8]
 8000df4:	6b1a      	ldr	r2, [r3, #48]	; 0x30
 8000df6:	f042 0201 	orr.w	r2, r2, #1
 8000dfa:	631a      	str	r2, [r3, #48]	; 0x30
 8000dfc:	6b1b      	ldr	r3, [r3, #48]	; 0x30
 8000dfe:	9505      	str	r5, [sp, #20]
 8000e00:	f003 0301 	and.w	r3, r3, #1
 8000e04:	9302      	str	r3, [sp, #8]
 8000e06:	9b02      	ldr	r3, [sp, #8]
 8000e08:	200c      	movs	r0, #12
 8000e0a:	2302      	movs	r3, #2
 8000e0c:	e9cd 0303 	strd	r0, r3, [sp, #12]
 8000e10:	2403      	movs	r4, #3
 8000e12:	2307      	movs	r3, #7
 8000e14:	4823      	ldr	r0, [pc, #140]	; (8000ea4 <HAL_UART_MspInit+0xe4>)
 8000e16:	a903      	add	r1, sp, #12
 8000e18:	e9cd 4306 	strd	r4, r3, [sp, #24]
 8000e1c:	f000 fb7e 	bl	800151c <HAL_GPIO_Init>
 8000e20:	4c21      	ldr	r4, [pc, #132]	; (8000ea8 <HAL_UART_MspInit+0xe8>)
 8000e22:	f8df c090 	ldr.w	ip, [pc, #144]	; 8000eb4 <HAL_UART_MspInit+0xf4>
 8000e26:	61a5      	str	r5, [r4, #24]
 8000e28:	f04f 6300 	mov.w	r3, #134217728	; 0x8000000
 8000e2c:	e9c4 c300 	strd	ip, r3, [r4]
 8000e30:	f44f 6380 	mov.w	r3, #1024	; 0x400
 8000e34:	e9c4 3504 	strd	r3, r5, [r4, #16]
 8000e38:	4620      	mov	r0, r4
 8000e3a:	f44f 7380 	mov.w	r3, #256	; 0x100
 8000e3e:	e9c4 5502 	strd	r5, r5, [r4, #8]
 8000e42:	e9c4 3507 	strd	r3, r5, [r4, #28]
 8000e46:	6265      	str	r5, [r4, #36]	; 0x24
 8000e48:	f000 f99a 	bl	8001180 <HAL_DMA_Init>
 8000e4c:	b108      	cbz	r0, 8000e52 <HAL_UART_MspInit+0x92>
 8000e4e:	f7ff fd25 	bl	800089c <Error_Handler>
 8000e52:	4a16      	ldr	r2, [pc, #88]	; (8000eac <HAL_UART_MspInit+0xec>)
 8000e54:	63b4      	str	r4, [r6, #56]	; 0x38
 8000e56:	63a6      	str	r6, [r4, #56]	; 0x38
 8000e58:	4c15      	ldr	r4, [pc, #84]	; (8000eb0 <HAL_UART_MspInit+0xf0>)
 8000e5a:	f04f 6300 	mov.w	r3, #134217728	; 0x8000000
 8000e5e:	e9c4 2300 	strd	r2, r3, [r4]
 8000e62:	2140      	movs	r1, #64	; 0x40
 8000e64:	2300      	movs	r3, #0
 8000e66:	f44f 6280 	mov.w	r2, #1024	; 0x400
 8000e6a:	4620      	mov	r0, r4
 8000e6c:	e9c4 1302 	strd	r1, r3, [r4, #8]
 8000e70:	e9c4 2304 	strd	r2, r3, [r4, #16]
 8000e74:	e9c4 3306 	strd	r3, r3, [r4, #24]
 8000e78:	e9c4 3308 	strd	r3, r3, [r4, #32]
 8000e7c:	f000 f980 	bl	8001180 <HAL_DMA_Init>
 8000e80:	b108      	cbz	r0, 8000e86 <HAL_UART_MspInit+0xc6>
 8000e82:	f7ff fd0b 	bl	800089c <Error_Handler>
 8000e86:	2200      	movs	r2, #0
 8000e88:	6374      	str	r4, [r6, #52]	; 0x34
 8000e8a:	2026      	movs	r0, #38	; 0x26
 8000e8c:	4611      	mov	r1, r2
 8000e8e:	63a6      	str	r6, [r4, #56]	; 0x38
 8000e90:	f000 f90a 	bl	80010a8 <HAL_NVIC_SetPriority>
 8000e94:	2026      	movs	r0, #38	; 0x26
 8000e96:	f000 f939 	bl	800110c <HAL_NVIC_EnableIRQ>
 8000e9a:	b008      	add	sp, #32
 8000e9c:	bd70      	pop	{r4, r5, r6, pc}
 8000e9e:	bf00      	nop
 8000ea0:	40004400 	.word	0x40004400
 8000ea4:	40020000 	.word	0x40020000
 8000ea8:	20012f28 	.word	0x20012f28
 8000eac:	400260a0 	.word	0x400260a0
 8000eb0:	20012f88 	.word	0x20012f88
 8000eb4:	40026088 	.word	0x40026088

08000eb8 <HAL_UART_RxCpltCallback>:
 8000eb8:	b5f7      	push	{r0, r1, r2, r4, r5, r6, r7, lr}
 8000eba:	6803      	ldr	r3, [r0, #0]
 8000ebc:	4a29      	ldr	r2, [pc, #164]	; (8000f64 <HAL_UART_RxCpltCallback+0xac>)
 8000ebe:	681b      	ldr	r3, [r3, #0]
 8000ec0:	7811      	ldrb	r1, [r2, #0]
 8000ec2:	f013 0f10 	tst.w	r3, #16
 8000ec6:	4615      	mov	r5, r2
 8000ec8:	d049      	beq.n	8000f5e <HAL_UART_RxCpltCallback+0xa6>
 8000eca:	4b27      	ldr	r3, [pc, #156]	; (8000f68 <HAL_UART_RxCpltCallback+0xb0>)
 8000ecc:	4f27      	ldr	r7, [pc, #156]	; (8000f6c <HAL_UART_RxCpltCallback+0xb4>)
 8000ece:	681b      	ldr	r3, [r3, #0]
 8000ed0:	2400      	movs	r4, #0
 8000ed2:	9401      	str	r4, [sp, #4]
 8000ed4:	681a      	ldr	r2, [r3, #0]
 8000ed6:	9201      	str	r2, [sp, #4]
 8000ed8:	685b      	ldr	r3, [r3, #4]
 8000eda:	9301      	str	r3, [sp, #4]
 8000edc:	9b01      	ldr	r3, [sp, #4]
 8000ede:	4b24      	ldr	r3, [pc, #144]	; (8000f70 <HAL_UART_RxCpltCallback+0xb8>)
 8000ee0:	781a      	ldrb	r2, [r3, #0]
 8000ee2:	3201      	adds	r2, #1
 8000ee4:	701a      	strb	r2, [r3, #0]
 8000ee6:	6b83      	ldr	r3, [r0, #56]	; 0x38
 8000ee8:	4a22      	ldr	r2, [pc, #136]	; (8000f74 <HAL_UART_RxCpltCallback+0xbc>)
 8000eea:	681b      	ldr	r3, [r3, #0]
 8000eec:	7816      	ldrb	r6, [r2, #0]
 8000eee:	685b      	ldr	r3, [r3, #4]
 8000ef0:	703c      	strb	r4, [r7, #0]
 8000ef2:	f1c3 0380 	rsb	r3, r3, #128	; 0x80
 8000ef6:	b2db      	uxtb	r3, r3
 8000ef8:	2901      	cmp	r1, #1
 8000efa:	7013      	strb	r3, [r2, #0]
 8000efc:	d824      	bhi.n	8000f48 <HAL_UART_RxCpltCallback+0x90>
 8000efe:	b2b2      	uxth	r2, r6
 8000f00:	b29c      	uxth	r4, r3
 8000f02:	b1f9      	cbz	r1, 8000f44 <HAL_UART_RxCpltCallback+0x8c>
 8000f04:	429e      	cmp	r6, r3
 8000f06:	d321      	bcc.n	8000f4c <HAL_UART_RxCpltCallback+0x94>
 8000f08:	f1c2 0280 	rsb	r2, r2, #128	; 0x80
 8000f0c:	4414      	add	r4, r2
 8000f0e:	b2a4      	uxth	r4, r4
 8000f10:	1e63      	subs	r3, r4, #1
 8000f12:	2b7f      	cmp	r3, #127	; 0x7f
 8000f14:	d81c      	bhi.n	8000f50 <HAL_UART_RxCpltCallback+0x98>
 8000f16:	4815      	ldr	r0, [pc, #84]	; (8000f6c <HAL_UART_RxCpltCallback+0xb4>)
 8000f18:	f7ff f964 	bl	80001e4 <strlen>
 8000f1c:	4916      	ldr	r1, [pc, #88]	; (8000f78 <HAL_UART_RxCpltCallback+0xc0>)
 8000f1e:	4438      	add	r0, r7
 8000f20:	2300      	movs	r3, #0
 8000f22:	18f2      	adds	r2, r6, r3
 8000f24:	f002 027f 	and.w	r2, r2, #127	; 0x7f
 8000f28:	3301      	adds	r3, #1
 8000f2a:	5c52      	ldrb	r2, [r2, r1]
 8000f2c:	f800 2b01 	strb.w	r2, [r0], #1
 8000f30:	b29a      	uxth	r2, r3
 8000f32:	4294      	cmp	r4, r2
 8000f34:	d8f5      	bhi.n	8000f22 <HAL_UART_RxCpltCallback+0x6a>
 8000f36:	480d      	ldr	r0, [pc, #52]	; (8000f6c <HAL_UART_RxCpltCallback+0xb4>)
 8000f38:	f7ff fb2e 	bl	8000598 <FL_Parse>
 8000f3c:	2300      	movs	r3, #0
 8000f3e:	702b      	strb	r3, [r5, #0]
 8000f40:	b003      	add	sp, #12
 8000f42:	bdf0      	pop	{r4, r5, r6, r7, pc}
 8000f44:	1aa4      	subs	r4, r4, r2
 8000f46:	e7e2      	b.n	8000f0e <HAL_UART_RxCpltCallback+0x56>
 8000f48:	2482      	movs	r4, #130	; 0x82
 8000f4a:	e7e1      	b.n	8000f10 <HAL_UART_RxCpltCallback+0x58>
 8000f4c:	2481      	movs	r4, #129	; 0x81
 8000f4e:	e7df      	b.n	8000f10 <HAL_UART_RxCpltCallback+0x58>
 8000f50:	490a      	ldr	r1, [pc, #40]	; (8000f7c <HAL_UART_RxCpltCallback+0xc4>)
 8000f52:	4806      	ldr	r0, [pc, #24]	; (8000f6c <HAL_UART_RxCpltCallback+0xb4>)
 8000f54:	f1a4 0280 	sub.w	r2, r4, #128	; 0x80
 8000f58:	f001 fe90 	bl	8002c7c <siprintf>
 8000f5c:	e7eb      	b.n	8000f36 <HAL_UART_RxCpltCallback+0x7e>
 8000f5e:	1c4b      	adds	r3, r1, #1
 8000f60:	7013      	strb	r3, [r2, #0]
 8000f62:	e7ed      	b.n	8000f40 <HAL_UART_RxCpltCallback+0x88>
 8000f64:	200000b2 	.word	0x200000b2
 8000f68:	20013028 	.word	0x20013028
 8000f6c:	20012fe8 	.word	0x20012fe8
 8000f70:	200000b1 	.word	0x200000b1
 8000f74:	200000b0 	.word	0x200000b0
 8000f78:	20012ea8 	.word	0x20012ea8
 8000f7c:	08004112 	.word	0x08004112

08000f80 <HAL_UART_TxCpltCallback>:
 8000f80:	4a02      	ldr	r2, [pc, #8]	; (8000f8c <HAL_UART_TxCpltCallback+0xc>)
 8000f82:	7813      	ldrb	r3, [r2, #0]
 8000f84:	3301      	adds	r3, #1
 8000f86:	7013      	strb	r3, [r2, #0]
 8000f88:	4770      	bx	lr
 8000f8a:	bf00      	nop
 8000f8c:	200000b3 	.word	0x200000b3

08000f90 <Reset_Handler>:
 8000f90:	f8df d034 	ldr.w	sp, [pc, #52]	; 8000fc8 <LoopFillZerobss+0x14>
 8000f94:	2100      	movs	r1, #0
 8000f96:	e003      	b.n	8000fa0 <LoopCopyDataInit>

08000f98 <CopyDataInit>:
 8000f98:	4b0c      	ldr	r3, [pc, #48]	; (8000fcc <LoopFillZerobss+0x18>)
 8000f9a:	585b      	ldr	r3, [r3, r1]
 8000f9c:	5043      	str	r3, [r0, r1]
 8000f9e:	3104      	adds	r1, #4

08000fa0 <LoopCopyDataInit>:
 8000fa0:	480b      	ldr	r0, [pc, #44]	; (8000fd0 <LoopFillZerobss+0x1c>)
 8000fa2:	4b0c      	ldr	r3, [pc, #48]	; (8000fd4 <LoopFillZerobss+0x20>)
 8000fa4:	1842      	adds	r2, r0, r1
 8000fa6:	429a      	cmp	r2, r3
 8000fa8:	d3f6      	bcc.n	8000f98 <CopyDataInit>
 8000faa:	4a0b      	ldr	r2, [pc, #44]	; (8000fd8 <LoopFillZerobss+0x24>)
 8000fac:	e002      	b.n	8000fb4 <LoopFillZerobss>

08000fae <FillZerobss>:
 8000fae:	2300      	movs	r3, #0
 8000fb0:	f842 3b04 	str.w	r3, [r2], #4

08000fb4 <LoopFillZerobss>:
 8000fb4:	4b09      	ldr	r3, [pc, #36]	; (8000fdc <LoopFillZerobss+0x28>)
 8000fb6:	429a      	cmp	r2, r3
 8000fb8:	d3f9      	bcc.n	8000fae <FillZerobss>
 8000fba:	f7ff fdd7 	bl	8000b6c <SystemInit>
 8000fbe:	f001 fe31 	bl	8002c24 <__libc_init_array>
 8000fc2:	f7ff fc2b 	bl	800081c <main>
 8000fc6:	4770      	bx	lr
 8000fc8:	20020000 	.word	0x20020000
 8000fcc:	08004298 	.word	0x08004298
 8000fd0:	20000000 	.word	0x20000000
 8000fd4:	20000090 	.word	0x20000090
 8000fd8:	20000090 	.word	0x20000090
 8000fdc:	20013080 	.word	0x20013080

08000fe0 <ADC_IRQHandler>:
 8000fe0:	e7fe      	b.n	8000fe0 <ADC_IRQHandler>
	...

08000fe4 <HAL_InitTick>:
 8000fe4:	b538      	push	{r3, r4, r5, lr}
 8000fe6:	4a0e      	ldr	r2, [pc, #56]	; (8001020 <HAL_InitTick+0x3c>)
 8000fe8:	4b0e      	ldr	r3, [pc, #56]	; (8001024 <HAL_InitTick+0x40>)
 8000fea:	4605      	mov	r5, r0
 8000fec:	7818      	ldrb	r0, [r3, #0]
 8000fee:	f44f 737a 	mov.w	r3, #1000	; 0x3e8
 8000ff2:	fbb3 f3f0 	udiv	r3, r3, r0
 8000ff6:	6810      	ldr	r0, [r2, #0]
 8000ff8:	fbb0 f0f3 	udiv	r0, r0, r3
 8000ffc:	f000 f894 	bl	8001128 <HAL_SYSTICK_Config>
 8001000:	4604      	mov	r4, r0
 8001002:	b958      	cbnz	r0, 800101c <HAL_InitTick+0x38>
 8001004:	2d0f      	cmp	r5, #15
 8001006:	d809      	bhi.n	800101c <HAL_InitTick+0x38>
 8001008:	4602      	mov	r2, r0
 800100a:	4629      	mov	r1, r5
 800100c:	f04f 30ff 	mov.w	r0, #4294967295
 8001010:	f000 f84a 	bl	80010a8 <HAL_NVIC_SetPriority>
 8001014:	4b04      	ldr	r3, [pc, #16]	; (8001028 <HAL_InitTick+0x44>)
 8001016:	4620      	mov	r0, r4
 8001018:	601d      	str	r5, [r3, #0]
 800101a:	bd38      	pop	{r3, r4, r5, pc}
 800101c:	2001      	movs	r0, #1
 800101e:	e7fc      	b.n	800101a <HAL_InitTick+0x36>
 8001020:	20000020 	.word	0x20000020
 8001024:	20000024 	.word	0x20000024
 8001028:	20000028 	.word	0x20000028

0800102c <HAL_Init>:
 800102c:	b508      	push	{r3, lr}
 800102e:	4b0b      	ldr	r3, [pc, #44]	; (800105c <HAL_Init+0x30>)
 8001030:	681a      	ldr	r2, [r3, #0]
 8001032:	f442 7200 	orr.w	r2, r2, #512	; 0x200
 8001036:	601a      	str	r2, [r3, #0]
 8001038:	681a      	ldr	r2, [r3, #0]
 800103a:	f442 6280 	orr.w	r2, r2, #1024	; 0x400
 800103e:	601a      	str	r2, [r3, #0]
 8001040:	681a      	ldr	r2, [r3, #0]
 8001042:	f442 7280 	orr.w	r2, r2, #256	; 0x100
 8001046:	601a      	str	r2, [r3, #0]
 8001048:	2003      	movs	r0, #3
 800104a:	f000 f81b 	bl	8001084 <HAL_NVIC_SetPriorityGrouping>
 800104e:	2000      	movs	r0, #0
 8001050:	f7ff ffc8 	bl	8000fe4 <HAL_InitTick>
 8001054:	f7ff fc8e 	bl	8000974 <HAL_MspInit>
 8001058:	2000      	movs	r0, #0
 800105a:	bd08      	pop	{r3, pc}
 800105c:	40023c00 	.word	0x40023c00

08001060 <HAL_IncTick>:
 8001060:	4a03      	ldr	r2, [pc, #12]	; (8001070 <HAL_IncTick+0x10>)
 8001062:	4b04      	ldr	r3, [pc, #16]	; (8001074 <HAL_IncTick+0x14>)
 8001064:	6811      	ldr	r1, [r2, #0]
 8001066:	781b      	ldrb	r3, [r3, #0]
 8001068:	440b      	add	r3, r1
 800106a:	6013      	str	r3, [r2, #0]
 800106c:	4770      	bx	lr
 800106e:	bf00      	nop
 8001070:	2001306c 	.word	0x2001306c
 8001074:	20000024 	.word	0x20000024

08001078 <HAL_GetTick>:
 8001078:	4b01      	ldr	r3, [pc, #4]	; (8001080 <HAL_GetTick+0x8>)
 800107a:	6818      	ldr	r0, [r3, #0]
 800107c:	4770      	bx	lr
 800107e:	bf00      	nop
 8001080:	2001306c 	.word	0x2001306c

08001084 <HAL_NVIC_SetPriorityGrouping>:
 8001084:	4907      	ldr	r1, [pc, #28]	; (80010a4 <HAL_NVIC_SetPriorityGrouping+0x20>)
 8001086:	68ca      	ldr	r2, [r1, #12]
 8001088:	f422 62e0 	bic.w	r2, r2, #1792	; 0x700
 800108c:	0203      	lsls	r3, r0, #8
 800108e:	0412      	lsls	r2, r2, #16
 8001090:	f403 63e0 	and.w	r3, r3, #1792	; 0x700
 8001094:	0c12      	lsrs	r2, r2, #16
 8001096:	4313      	orrs	r3, r2
 8001098:	f043 63bf 	orr.w	r3, r3, #100139008	; 0x5f80000
 800109c:	f443 3300 	orr.w	r3, r3, #131072	; 0x20000
 80010a0:	60cb      	str	r3, [r1, #12]
 80010a2:	4770      	bx	lr
 80010a4:	e000ed00 	.word	0xe000ed00

080010a8 <HAL_NVIC_SetPriority>:
 80010a8:	4b16      	ldr	r3, [pc, #88]	; (8001104 <HAL_NVIC_SetPriority+0x5c>)
 80010aa:	b530      	push	{r4, r5, lr}
 80010ac:	68dc      	ldr	r4, [r3, #12]
 80010ae:	f3c4 2402 	ubfx	r4, r4, #8, #3
 80010b2:	f1c4 0507 	rsb	r5, r4, #7
 80010b6:	1d23      	adds	r3, r4, #4
 80010b8:	2d04      	cmp	r5, #4
 80010ba:	bf28      	it	cs
 80010bc:	2504      	movcs	r5, #4
 80010be:	2b06      	cmp	r3, #6
 80010c0:	f04f 33ff 	mov.w	r3, #4294967295
 80010c4:	bf8c      	ite	hi
 80010c6:	3c03      	subhi	r4, #3
 80010c8:	2400      	movls	r4, #0
 80010ca:	fa03 f505 	lsl.w	r5, r3, r5
 80010ce:	ea21 0105 	bic.w	r1, r1, r5
 80010d2:	40a3      	lsls	r3, r4
 80010d4:	ea22 0203 	bic.w	r2, r2, r3
 80010d8:	40a1      	lsls	r1, r4
 80010da:	2800      	cmp	r0, #0
 80010dc:	ea41 0302 	orr.w	r3, r1, r2
 80010e0:	bfac      	ite	ge
 80010e2:	f100 4060 	addge.w	r0, r0, #3758096384	; 0xe0000000
 80010e6:	4a08      	ldrlt	r2, [pc, #32]	; (8001108 <HAL_NVIC_SetPriority+0x60>)
 80010e8:	ea4f 1303 	mov.w	r3, r3, lsl #4
 80010ec:	bfb8      	it	lt
 80010ee:	f000 000f 	andlt.w	r0, r0, #15
 80010f2:	b2db      	uxtb	r3, r3
 80010f4:	bfaa      	itet	ge
 80010f6:	f500 4061 	addge.w	r0, r0, #57600	; 0xe100
 80010fa:	5413      	strblt	r3, [r2, r0]
 80010fc:	f880 3300 	strbge.w	r3, [r0, #768]	; 0x300
 8001100:	bd30      	pop	{r4, r5, pc}
 8001102:	bf00      	nop
 8001104:	e000ed00 	.word	0xe000ed00
 8001108:	e000ed14 	.word	0xe000ed14

0800110c <HAL_NVIC_EnableIRQ>:
 800110c:	2800      	cmp	r0, #0
 800110e:	db08      	blt.n	8001122 <HAL_NVIC_EnableIRQ+0x16>
 8001110:	0942      	lsrs	r2, r0, #5
 8001112:	2301      	movs	r3, #1
 8001114:	f000 001f 	and.w	r0, r0, #31
 8001118:	fa03 f000 	lsl.w	r0, r3, r0
 800111c:	4b01      	ldr	r3, [pc, #4]	; (8001124 <HAL_NVIC_EnableIRQ+0x18>)
 800111e:	f843 0022 	str.w	r0, [r3, r2, lsl #2]
 8001122:	4770      	bx	lr
 8001124:	e000e100 	.word	0xe000e100

08001128 <HAL_SYSTICK_Config>:
 8001128:	3801      	subs	r0, #1
 800112a:	f1b0 7f80 	cmp.w	r0, #16777216	; 0x1000000
 800112e:	d20a      	bcs.n	8001146 <HAL_SYSTICK_Config+0x1e>
 8001130:	4b06      	ldr	r3, [pc, #24]	; (800114c <HAL_SYSTICK_Config+0x24>)
 8001132:	4a07      	ldr	r2, [pc, #28]	; (8001150 <HAL_SYSTICK_Config+0x28>)
 8001134:	6058      	str	r0, [r3, #4]
 8001136:	21f0      	movs	r1, #240	; 0xf0
 8001138:	f882 1023 	strb.w	r1, [r2, #35]	; 0x23
 800113c:	2000      	movs	r0, #0
 800113e:	2207      	movs	r2, #7
 8001140:	6098      	str	r0, [r3, #8]
 8001142:	601a      	str	r2, [r3, #0]
 8001144:	4770      	bx	lr
 8001146:	2001      	movs	r0, #1
 8001148:	4770      	bx	lr
 800114a:	bf00      	nop
 800114c:	e000e010 	.word	0xe000e010
 8001150:	e000ed00 	.word	0xe000ed00

08001154 <DMA_CalcBaseAndBitshift>:
 8001154:	6803      	ldr	r3, [r0, #0]
 8001156:	b510      	push	{r4, lr}
 8001158:	4c08      	ldr	r4, [pc, #32]	; (800117c <DMA_CalcBaseAndBitshift+0x28>)
 800115a:	4602      	mov	r2, r0
 800115c:	b2d9      	uxtb	r1, r3
 800115e:	3910      	subs	r1, #16
 8001160:	2018      	movs	r0, #24
 8001162:	fbb1 f0f0 	udiv	r0, r1, r0
 8001166:	5c20      	ldrb	r0, [r4, r0]
 8001168:	65d0      	str	r0, [r2, #92]	; 0x5c
 800116a:	f423 707f 	bic.w	r0, r3, #1020	; 0x3fc
 800116e:	f020 0003 	bic.w	r0, r0, #3
 8001172:	295f      	cmp	r1, #95	; 0x5f
 8001174:	bf88      	it	hi
 8001176:	3004      	addhi	r0, #4
 8001178:	6590      	str	r0, [r2, #88]	; 0x58
 800117a:	bd10      	pop	{r4, pc}
 800117c:	08004134 	.word	0x08004134

08001180 <HAL_DMA_Init>:
 8001180:	b570      	push	{r4, r5, r6, lr}
 8001182:	4604      	mov	r4, r0
 8001184:	f7ff ff78 	bl	8001078 <HAL_GetTick>
 8001188:	4605      	mov	r5, r0
 800118a:	2c00      	cmp	r4, #0
 800118c:	d073      	beq.n	8001276 <HAL_DMA_Init+0xf6>
 800118e:	2300      	movs	r3, #0
 8001190:	f884 3034 	strb.w	r3, [r4, #52]	; 0x34
 8001194:	6822      	ldr	r2, [r4, #0]
 8001196:	2302      	movs	r3, #2
 8001198:	f884 3035 	strb.w	r3, [r4, #53]	; 0x35
 800119c:	6813      	ldr	r3, [r2, #0]
 800119e:	f023 0301 	bic.w	r3, r3, #1
 80011a2:	6013      	str	r3, [r2, #0]
 80011a4:	6821      	ldr	r1, [r4, #0]
 80011a6:	680b      	ldr	r3, [r1, #0]
 80011a8:	07d8      	lsls	r0, r3, #31
 80011aa:	d42f      	bmi.n	800120c <HAL_DMA_Init+0x8c>
 80011ac:	680b      	ldr	r3, [r1, #0]
 80011ae:	4d33      	ldr	r5, [pc, #204]	; (800127c <HAL_DMA_Init+0xfc>)
 80011b0:	69a0      	ldr	r0, [r4, #24]
 80011b2:	401d      	ands	r5, r3
 80011b4:	e9d4 2301 	ldrd	r2, r3, [r4, #4]
 80011b8:	4313      	orrs	r3, r2
 80011ba:	68e2      	ldr	r2, [r4, #12]
 80011bc:	4313      	orrs	r3, r2
 80011be:	6922      	ldr	r2, [r4, #16]
 80011c0:	4313      	orrs	r3, r2
 80011c2:	6962      	ldr	r2, [r4, #20]
 80011c4:	4313      	orrs	r3, r2
 80011c6:	69e2      	ldr	r2, [r4, #28]
 80011c8:	4303      	orrs	r3, r0
 80011ca:	4313      	orrs	r3, r2
 80011cc:	6a22      	ldr	r2, [r4, #32]
 80011ce:	4313      	orrs	r3, r2
 80011d0:	6a62      	ldr	r2, [r4, #36]	; 0x24
 80011d2:	2a04      	cmp	r2, #4
 80011d4:	ea43 0305 	orr.w	r3, r3, r5
 80011d8:	bf02      	ittt	eq
 80011da:	e9d4 560b 	ldrdeq	r5, r6, [r4, #44]	; 0x2c
 80011de:	4335      	orreq	r5, r6
 80011e0:	432b      	orreq	r3, r5
 80011e2:	600b      	str	r3, [r1, #0]
 80011e4:	694b      	ldr	r3, [r1, #20]
 80011e6:	2a04      	cmp	r2, #4
 80011e8:	f023 0307 	bic.w	r3, r3, #7
 80011ec:	ea43 0302 	orr.w	r3, r3, r2
 80011f0:	d133      	bne.n	800125a <HAL_DMA_Init+0xda>
 80011f2:	6aa2      	ldr	r2, [r4, #40]	; 0x28
 80011f4:	6ae5      	ldr	r5, [r4, #44]	; 0x2c
 80011f6:	4313      	orrs	r3, r2
 80011f8:	b37d      	cbz	r5, 800125a <HAL_DMA_Init+0xda>
 80011fa:	b990      	cbnz	r0, 8001222 <HAL_DMA_Init+0xa2>
 80011fc:	2a01      	cmp	r2, #1
 80011fe:	d021      	beq.n	8001244 <HAL_DMA_Init+0xc4>
 8001200:	f032 0202 	bics.w	r2, r2, #2
 8001204:	d129      	bne.n	800125a <HAL_DMA_Init+0xda>
 8001206:	01ea      	lsls	r2, r5, #7
 8001208:	d527      	bpl.n	800125a <HAL_DMA_Init+0xda>
 800120a:	e01e      	b.n	800124a <HAL_DMA_Init+0xca>
 800120c:	f7ff ff34 	bl	8001078 <HAL_GetTick>
 8001210:	1b40      	subs	r0, r0, r5
 8001212:	2805      	cmp	r0, #5
 8001214:	d9c6      	bls.n	80011a4 <HAL_DMA_Init+0x24>
 8001216:	2320      	movs	r3, #32
 8001218:	6563      	str	r3, [r4, #84]	; 0x54
 800121a:	2003      	movs	r0, #3
 800121c:	f884 0035 	strb.w	r0, [r4, #53]	; 0x35
 8001220:	bd70      	pop	{r4, r5, r6, pc}
 8001222:	f5b0 5f00 	cmp.w	r0, #8192	; 0x2000
 8001226:	d114      	bne.n	8001252 <HAL_DMA_Init+0xd2>
 8001228:	2a03      	cmp	r2, #3
 800122a:	d816      	bhi.n	800125a <HAL_DMA_Init+0xda>
 800122c:	a001      	add	r0, pc, #4	; (adr r0, 8001234 <HAL_DMA_Init+0xb4>)
 800122e:	f850 f022 	ldr.w	pc, [r0, r2, lsl #2]
 8001232:	bf00      	nop
 8001234:	0800124b 	.word	0x0800124b
 8001238:	08001207 	.word	0x08001207
 800123c:	0800124b 	.word	0x0800124b
 8001240:	08001245 	.word	0x08001245
 8001244:	f1b5 7fc0 	cmp.w	r5, #25165824	; 0x1800000
 8001248:	d107      	bne.n	800125a <HAL_DMA_Init+0xda>
 800124a:	2340      	movs	r3, #64	; 0x40
 800124c:	6563      	str	r3, [r4, #84]	; 0x54
 800124e:	2001      	movs	r0, #1
 8001250:	e7e4      	b.n	800121c <HAL_DMA_Init+0x9c>
 8001252:	2a02      	cmp	r2, #2
 8001254:	d9f9      	bls.n	800124a <HAL_DMA_Init+0xca>
 8001256:	2a03      	cmp	r2, #3
 8001258:	d0d5      	beq.n	8001206 <HAL_DMA_Init+0x86>
 800125a:	614b      	str	r3, [r1, #20]
 800125c:	4620      	mov	r0, r4
 800125e:	f7ff ff79 	bl	8001154 <DMA_CalcBaseAndBitshift>
 8001262:	6de2      	ldr	r2, [r4, #92]	; 0x5c
 8001264:	233f      	movs	r3, #63	; 0x3f
 8001266:	4093      	lsls	r3, r2
 8001268:	6083      	str	r3, [r0, #8]
 800126a:	2000      	movs	r0, #0
 800126c:	2301      	movs	r3, #1
 800126e:	6560      	str	r0, [r4, #84]	; 0x54
 8001270:	f884 3035 	strb.w	r3, [r4, #53]	; 0x35
 8001274:	e7d4      	b.n	8001220 <HAL_DMA_Init+0xa0>
 8001276:	2001      	movs	r0, #1
 8001278:	e7d2      	b.n	8001220 <HAL_DMA_Init+0xa0>
 800127a:	bf00      	nop
 800127c:	f010803f 	.word	0xf010803f

08001280 <HAL_DMA_Start_IT>:
 8001280:	b570      	push	{r4, r5, r6, lr}
 8001282:	f890 4034 	ldrb.w	r4, [r0, #52]	; 0x34
 8001286:	6d86      	ldr	r6, [r0, #88]	; 0x58
 8001288:	2c01      	cmp	r4, #1
 800128a:	d031      	beq.n	80012f0 <HAL_DMA_Start_IT+0x70>
 800128c:	2401      	movs	r4, #1
 800128e:	f880 4034 	strb.w	r4, [r0, #52]	; 0x34
 8001292:	f890 4035 	ldrb.w	r4, [r0, #53]	; 0x35
 8001296:	2c01      	cmp	r4, #1
 8001298:	f04f 0500 	mov.w	r5, #0
 800129c:	f04f 0402 	mov.w	r4, #2
 80012a0:	d124      	bne.n	80012ec <HAL_DMA_Start_IT+0x6c>
 80012a2:	f880 4035 	strb.w	r4, [r0, #53]	; 0x35
 80012a6:	6804      	ldr	r4, [r0, #0]
 80012a8:	6545      	str	r5, [r0, #84]	; 0x54
 80012aa:	6825      	ldr	r5, [r4, #0]
 80012ac:	f425 2580 	bic.w	r5, r5, #262144	; 0x40000
 80012b0:	6025      	str	r5, [r4, #0]
 80012b2:	6063      	str	r3, [r4, #4]
 80012b4:	6883      	ldr	r3, [r0, #8]
 80012b6:	2b40      	cmp	r3, #64	; 0x40
 80012b8:	bf0e      	itee	eq
 80012ba:	60a2      	streq	r2, [r4, #8]
 80012bc:	60a1      	strne	r1, [r4, #8]
 80012be:	60e2      	strne	r2, [r4, #12]
 80012c0:	6dc2      	ldr	r2, [r0, #92]	; 0x5c
 80012c2:	bf08      	it	eq
 80012c4:	60e1      	streq	r1, [r4, #12]
 80012c6:	233f      	movs	r3, #63	; 0x3f
 80012c8:	4093      	lsls	r3, r2
 80012ca:	60b3      	str	r3, [r6, #8]
 80012cc:	6823      	ldr	r3, [r4, #0]
 80012ce:	f043 0316 	orr.w	r3, r3, #22
 80012d2:	6023      	str	r3, [r4, #0]
 80012d4:	6c03      	ldr	r3, [r0, #64]	; 0x40
 80012d6:	b11b      	cbz	r3, 80012e0 <HAL_DMA_Start_IT+0x60>
 80012d8:	6823      	ldr	r3, [r4, #0]
 80012da:	f043 0308 	orr.w	r3, r3, #8
 80012de:	6023      	str	r3, [r4, #0]
 80012e0:	6823      	ldr	r3, [r4, #0]
 80012e2:	f043 0301 	orr.w	r3, r3, #1
 80012e6:	6023      	str	r3, [r4, #0]
 80012e8:	2000      	movs	r0, #0
 80012ea:	bd70      	pop	{r4, r5, r6, pc}
 80012ec:	f880 5034 	strb.w	r5, [r0, #52]	; 0x34
 80012f0:	2002      	movs	r0, #2
 80012f2:	e7fa      	b.n	80012ea <HAL_DMA_Start_IT+0x6a>

080012f4 <HAL_DMA_Abort>:
 80012f4:	b570      	push	{r4, r5, r6, lr}
 80012f6:	4604      	mov	r4, r0
 80012f8:	6d86      	ldr	r6, [r0, #88]	; 0x58
 80012fa:	f7ff febd 	bl	8001078 <HAL_GetTick>
 80012fe:	f894 3035 	ldrb.w	r3, [r4, #53]	; 0x35
 8001302:	2b02      	cmp	r3, #2
 8001304:	4605      	mov	r5, r0
 8001306:	d006      	beq.n	8001316 <HAL_DMA_Abort+0x22>
 8001308:	2380      	movs	r3, #128	; 0x80
 800130a:	6563      	str	r3, [r4, #84]	; 0x54
 800130c:	2300      	movs	r3, #0
 800130e:	f884 3034 	strb.w	r3, [r4, #52]	; 0x34
 8001312:	2001      	movs	r0, #1
 8001314:	bd70      	pop	{r4, r5, r6, pc}
 8001316:	6823      	ldr	r3, [r4, #0]
 8001318:	681a      	ldr	r2, [r3, #0]
 800131a:	f022 0216 	bic.w	r2, r2, #22
 800131e:	601a      	str	r2, [r3, #0]
 8001320:	695a      	ldr	r2, [r3, #20]
 8001322:	f022 0280 	bic.w	r2, r2, #128	; 0x80
 8001326:	615a      	str	r2, [r3, #20]
 8001328:	6c22      	ldr	r2, [r4, #64]	; 0x40
 800132a:	b90a      	cbnz	r2, 8001330 <HAL_DMA_Abort+0x3c>
 800132c:	6ca2      	ldr	r2, [r4, #72]	; 0x48
 800132e:	b11a      	cbz	r2, 8001338 <HAL_DMA_Abort+0x44>
 8001330:	681a      	ldr	r2, [r3, #0]
 8001332:	f022 0208 	bic.w	r2, r2, #8
 8001336:	601a      	str	r2, [r3, #0]
 8001338:	681a      	ldr	r2, [r3, #0]
 800133a:	f022 0201 	bic.w	r2, r2, #1
 800133e:	601a      	str	r2, [r3, #0]
 8001340:	6823      	ldr	r3, [r4, #0]
 8001342:	681b      	ldr	r3, [r3, #0]
 8001344:	f013 0301 	ands.w	r3, r3, #1
 8001348:	d10a      	bne.n	8001360 <HAL_DMA_Abort+0x6c>
 800134a:	6de1      	ldr	r1, [r4, #92]	; 0x5c
 800134c:	223f      	movs	r2, #63	; 0x3f
 800134e:	408a      	lsls	r2, r1
 8001350:	60b2      	str	r2, [r6, #8]
 8001352:	2201      	movs	r2, #1
 8001354:	f884 3034 	strb.w	r3, [r4, #52]	; 0x34
 8001358:	f884 2035 	strb.w	r2, [r4, #53]	; 0x35
 800135c:	4618      	mov	r0, r3
 800135e:	e7d9      	b.n	8001314 <HAL_DMA_Abort+0x20>
 8001360:	f7ff fe8a 	bl	8001078 <HAL_GetTick>
 8001364:	1b40      	subs	r0, r0, r5
 8001366:	2805      	cmp	r0, #5
 8001368:	d9ea      	bls.n	8001340 <HAL_DMA_Abort+0x4c>
 800136a:	2320      	movs	r3, #32
 800136c:	6563      	str	r3, [r4, #84]	; 0x54
 800136e:	2003      	movs	r0, #3
 8001370:	2300      	movs	r3, #0
 8001372:	f884 3034 	strb.w	r3, [r4, #52]	; 0x34
 8001376:	f884 0035 	strb.w	r0, [r4, #53]	; 0x35
 800137a:	e7cb      	b.n	8001314 <HAL_DMA_Abort+0x20>

0800137c <HAL_DMA_Abort_IT>:
 800137c:	f890 3035 	ldrb.w	r3, [r0, #53]	; 0x35
 8001380:	2b02      	cmp	r3, #2
 8001382:	d003      	beq.n	800138c <HAL_DMA_Abort_IT+0x10>
 8001384:	2380      	movs	r3, #128	; 0x80
 8001386:	6543      	str	r3, [r0, #84]	; 0x54
 8001388:	2001      	movs	r0, #1
 800138a:	4770      	bx	lr
 800138c:	6802      	ldr	r2, [r0, #0]
 800138e:	2305      	movs	r3, #5
 8001390:	f880 3035 	strb.w	r3, [r0, #53]	; 0x35
 8001394:	6813      	ldr	r3, [r2, #0]
 8001396:	f023 0301 	bic.w	r3, r3, #1
 800139a:	6013      	str	r3, [r2, #0]
 800139c:	2000      	movs	r0, #0
 800139e:	4770      	bx	lr

080013a0 <HAL_DMA_IRQHandler>:
 80013a0:	b5f7      	push	{r0, r1, r2, r4, r5, r6, r7, lr}
 80013a2:	2300      	movs	r3, #0
 80013a4:	9301      	str	r3, [sp, #4]
 80013a6:	4b5c      	ldr	r3, [pc, #368]	; (8001518 <HAL_DMA_IRQHandler+0x178>)
 80013a8:	6d85      	ldr	r5, [r0, #88]	; 0x58
 80013aa:	681f      	ldr	r7, [r3, #0]
 80013ac:	6dc3      	ldr	r3, [r0, #92]	; 0x5c
 80013ae:	682e      	ldr	r6, [r5, #0]
 80013b0:	2208      	movs	r2, #8
 80013b2:	409a      	lsls	r2, r3
 80013b4:	4232      	tst	r2, r6
 80013b6:	4604      	mov	r4, r0
 80013b8:	d00c      	beq.n	80013d4 <HAL_DMA_IRQHandler+0x34>
 80013ba:	6801      	ldr	r1, [r0, #0]
 80013bc:	6808      	ldr	r0, [r1, #0]
 80013be:	0740      	lsls	r0, r0, #29
 80013c0:	d508      	bpl.n	80013d4 <HAL_DMA_IRQHandler+0x34>
 80013c2:	6808      	ldr	r0, [r1, #0]
 80013c4:	f020 0004 	bic.w	r0, r0, #4
 80013c8:	6008      	str	r0, [r1, #0]
 80013ca:	60aa      	str	r2, [r5, #8]
 80013cc:	6d62      	ldr	r2, [r4, #84]	; 0x54
 80013ce:	f042 0201 	orr.w	r2, r2, #1
 80013d2:	6562      	str	r2, [r4, #84]	; 0x54
 80013d4:	2201      	movs	r2, #1
 80013d6:	409a      	lsls	r2, r3
 80013d8:	4232      	tst	r2, r6
 80013da:	d008      	beq.n	80013ee <HAL_DMA_IRQHandler+0x4e>
 80013dc:	6821      	ldr	r1, [r4, #0]
 80013de:	6949      	ldr	r1, [r1, #20]
 80013e0:	0609      	lsls	r1, r1, #24
 80013e2:	bf41      	itttt	mi
 80013e4:	60aa      	strmi	r2, [r5, #8]
 80013e6:	6d62      	ldrmi	r2, [r4, #84]	; 0x54
 80013e8:	f042 0202 	orrmi.w	r2, r2, #2
 80013ec:	6562      	strmi	r2, [r4, #84]	; 0x54
 80013ee:	2204      	movs	r2, #4
 80013f0:	409a      	lsls	r2, r3
 80013f2:	4232      	tst	r2, r6
 80013f4:	d008      	beq.n	8001408 <HAL_DMA_IRQHandler+0x68>
 80013f6:	6821      	ldr	r1, [r4, #0]
 80013f8:	6809      	ldr	r1, [r1, #0]
 80013fa:	0788      	lsls	r0, r1, #30
 80013fc:	bf41      	itttt	mi
 80013fe:	60aa      	strmi	r2, [r5, #8]
 8001400:	6d62      	ldrmi	r2, [r4, #84]	; 0x54
 8001402:	f042 0204 	orrmi.w	r2, r2, #4
 8001406:	6562      	strmi	r2, [r4, #84]	; 0x54
 8001408:	2210      	movs	r2, #16
 800140a:	409a      	lsls	r2, r3
 800140c:	4232      	tst	r2, r6
 800140e:	d010      	beq.n	8001432 <HAL_DMA_IRQHandler+0x92>
 8001410:	6823      	ldr	r3, [r4, #0]
 8001412:	6819      	ldr	r1, [r3, #0]
 8001414:	0709      	lsls	r1, r1, #28
 8001416:	d50c      	bpl.n	8001432 <HAL_DMA_IRQHandler+0x92>
 8001418:	60aa      	str	r2, [r5, #8]
 800141a:	681a      	ldr	r2, [r3, #0]
 800141c:	0350      	lsls	r0, r2, #13
 800141e:	d537      	bpl.n	8001490 <HAL_DMA_IRQHandler+0xf0>
 8001420:	681b      	ldr	r3, [r3, #0]
 8001422:	0319      	lsls	r1, r3, #12
 8001424:	d401      	bmi.n	800142a <HAL_DMA_IRQHandler+0x8a>
 8001426:	6c23      	ldr	r3, [r4, #64]	; 0x40
 8001428:	e000      	b.n	800142c <HAL_DMA_IRQHandler+0x8c>
 800142a:	6ca3      	ldr	r3, [r4, #72]	; 0x48
 800142c:	b10b      	cbz	r3, 8001432 <HAL_DMA_IRQHandler+0x92>
 800142e:	4620      	mov	r0, r4
 8001430:	4798      	blx	r3
 8001432:	6de1      	ldr	r1, [r4, #92]	; 0x5c
 8001434:	2220      	movs	r2, #32
 8001436:	408a      	lsls	r2, r1
 8001438:	4232      	tst	r2, r6
 800143a:	d03a      	beq.n	80014b2 <HAL_DMA_IRQHandler+0x112>
 800143c:	6823      	ldr	r3, [r4, #0]
 800143e:	6818      	ldr	r0, [r3, #0]
 8001440:	06c6      	lsls	r6, r0, #27
 8001442:	d536      	bpl.n	80014b2 <HAL_DMA_IRQHandler+0x112>
 8001444:	60aa      	str	r2, [r5, #8]
 8001446:	f894 2035 	ldrb.w	r2, [r4, #53]	; 0x35
 800144a:	2a05      	cmp	r2, #5
 800144c:	681a      	ldr	r2, [r3, #0]
 800144e:	d127      	bne.n	80014a0 <HAL_DMA_IRQHandler+0x100>
 8001450:	f022 0216 	bic.w	r2, r2, #22
 8001454:	601a      	str	r2, [r3, #0]
 8001456:	695a      	ldr	r2, [r3, #20]
 8001458:	f022 0280 	bic.w	r2, r2, #128	; 0x80
 800145c:	615a      	str	r2, [r3, #20]
 800145e:	6c22      	ldr	r2, [r4, #64]	; 0x40
 8001460:	b90a      	cbnz	r2, 8001466 <HAL_DMA_IRQHandler+0xc6>
 8001462:	6ca2      	ldr	r2, [r4, #72]	; 0x48
 8001464:	b11a      	cbz	r2, 800146e <HAL_DMA_IRQHandler+0xce>
 8001466:	681a      	ldr	r2, [r3, #0]
 8001468:	f022 0208 	bic.w	r2, r2, #8
 800146c:	601a      	str	r2, [r3, #0]
 800146e:	233f      	movs	r3, #63	; 0x3f
 8001470:	408b      	lsls	r3, r1
 8001472:	60ab      	str	r3, [r5, #8]
 8001474:	2300      	movs	r3, #0
 8001476:	f884 3034 	strb.w	r3, [r4, #52]	; 0x34
 800147a:	2301      	movs	r3, #1
 800147c:	f884 3035 	strb.w	r3, [r4, #53]	; 0x35
 8001480:	6d23      	ldr	r3, [r4, #80]	; 0x50
 8001482:	2b00      	cmp	r3, #0
 8001484:	d045      	beq.n	8001512 <HAL_DMA_IRQHandler+0x172>
 8001486:	4620      	mov	r0, r4
 8001488:	b003      	add	sp, #12
 800148a:	e8bd 40f0 	ldmia.w	sp!, {r4, r5, r6, r7, lr}
 800148e:	4718      	bx	r3
 8001490:	681a      	ldr	r2, [r3, #0]
 8001492:	05d2      	lsls	r2, r2, #23
 8001494:	bf5e      	ittt	pl
 8001496:	681a      	ldrpl	r2, [r3, #0]
 8001498:	f022 0208 	bicpl.w	r2, r2, #8
 800149c:	601a      	strpl	r2, [r3, #0]
 800149e:	e7c2      	b.n	8001426 <HAL_DMA_IRQHandler+0x86>
 80014a0:	0350      	lsls	r0, r2, #13
 80014a2:	d527      	bpl.n	80014f4 <HAL_DMA_IRQHandler+0x154>
 80014a4:	681b      	ldr	r3, [r3, #0]
 80014a6:	0319      	lsls	r1, r3, #12
 80014a8:	d431      	bmi.n	800150e <HAL_DMA_IRQHandler+0x16e>
 80014aa:	6c63      	ldr	r3, [r4, #68]	; 0x44
 80014ac:	b10b      	cbz	r3, 80014b2 <HAL_DMA_IRQHandler+0x112>
 80014ae:	4620      	mov	r0, r4
 80014b0:	4798      	blx	r3
 80014b2:	6d63      	ldr	r3, [r4, #84]	; 0x54
 80014b4:	b36b      	cbz	r3, 8001512 <HAL_DMA_IRQHandler+0x172>
 80014b6:	6d63      	ldr	r3, [r4, #84]	; 0x54
 80014b8:	07da      	lsls	r2, r3, #31
 80014ba:	d519      	bpl.n	80014f0 <HAL_DMA_IRQHandler+0x150>
 80014bc:	6822      	ldr	r2, [r4, #0]
 80014be:	f44f 5316 	mov.w	r3, #9600	; 0x2580
 80014c2:	fbb7 f7f3 	udiv	r7, r7, r3
 80014c6:	2305      	movs	r3, #5
 80014c8:	f884 3035 	strb.w	r3, [r4, #53]	; 0x35
 80014cc:	6813      	ldr	r3, [r2, #0]
 80014ce:	f023 0301 	bic.w	r3, r3, #1
 80014d2:	6013      	str	r3, [r2, #0]
 80014d4:	9b01      	ldr	r3, [sp, #4]
 80014d6:	3301      	adds	r3, #1
 80014d8:	42bb      	cmp	r3, r7
 80014da:	9301      	str	r3, [sp, #4]
 80014dc:	d802      	bhi.n	80014e4 <HAL_DMA_IRQHandler+0x144>
 80014de:	6813      	ldr	r3, [r2, #0]
 80014e0:	07db      	lsls	r3, r3, #31
 80014e2:	d4f7      	bmi.n	80014d4 <HAL_DMA_IRQHandler+0x134>
 80014e4:	2300      	movs	r3, #0
 80014e6:	f884 3034 	strb.w	r3, [r4, #52]	; 0x34
 80014ea:	2301      	movs	r3, #1
 80014ec:	f884 3035 	strb.w	r3, [r4, #53]	; 0x35
 80014f0:	6ce3      	ldr	r3, [r4, #76]	; 0x4c
 80014f2:	e7c6      	b.n	8001482 <HAL_DMA_IRQHandler+0xe2>
 80014f4:	681a      	ldr	r2, [r3, #0]
 80014f6:	f412 7280 	ands.w	r2, r2, #256	; 0x100
 80014fa:	d108      	bne.n	800150e <HAL_DMA_IRQHandler+0x16e>
 80014fc:	6819      	ldr	r1, [r3, #0]
 80014fe:	f021 0110 	bic.w	r1, r1, #16
 8001502:	6019      	str	r1, [r3, #0]
 8001504:	2301      	movs	r3, #1
 8001506:	f884 2034 	strb.w	r2, [r4, #52]	; 0x34
 800150a:	f884 3035 	strb.w	r3, [r4, #53]	; 0x35
 800150e:	6be3      	ldr	r3, [r4, #60]	; 0x3c
 8001510:	e7cc      	b.n	80014ac <HAL_DMA_IRQHandler+0x10c>
 8001512:	b003      	add	sp, #12
 8001514:	bdf0      	pop	{r4, r5, r6, r7, pc}
 8001516:	bf00      	nop
 8001518:	20000020 	.word	0x20000020

0800151c <HAL_GPIO_Init>:
 800151c:	e92d 4ff7 	stmdb	sp!, {r0, r1, r2, r4, r5, r6, r7, r8, r9, sl, fp, lr}
 8001520:	f8df 91a8 	ldr.w	r9, [pc, #424]	; 80016cc <HAL_GPIO_Init+0x1b0>
 8001524:	4a67      	ldr	r2, [pc, #412]	; (80016c4 <HAL_GPIO_Init+0x1a8>)
 8001526:	2300      	movs	r3, #0
 8001528:	680d      	ldr	r5, [r1, #0]
 800152a:	2401      	movs	r4, #1
 800152c:	409c      	lsls	r4, r3
 800152e:	ea04 0c05 	and.w	ip, r4, r5
 8001532:	43ac      	bics	r4, r5
 8001534:	f040 80b0 	bne.w	8001698 <HAL_GPIO_Init+0x17c>
 8001538:	684d      	ldr	r5, [r1, #4]
 800153a:	f005 0403 	and.w	r4, r5, #3
 800153e:	ea4f 0843 	mov.w	r8, r3, lsl #1
 8001542:	2603      	movs	r6, #3
 8001544:	1e67      	subs	r7, r4, #1
 8001546:	fa06 f608 	lsl.w	r6, r6, r8
 800154a:	2f01      	cmp	r7, #1
 800154c:	ea6f 0606 	mvn.w	r6, r6
 8001550:	d834      	bhi.n	80015bc <HAL_GPIO_Init+0xa0>
 8001552:	6887      	ldr	r7, [r0, #8]
 8001554:	ea07 0e06 	and.w	lr, r7, r6
 8001558:	68cf      	ldr	r7, [r1, #12]
 800155a:	fa07 f708 	lsl.w	r7, r7, r8
 800155e:	ea47 070e 	orr.w	r7, r7, lr
 8001562:	6087      	str	r7, [r0, #8]
 8001564:	6847      	ldr	r7, [r0, #4]
 8001566:	ea27 0e0c 	bic.w	lr, r7, ip
 800156a:	f3c5 1700 	ubfx	r7, r5, #4, #1
 800156e:	409f      	lsls	r7, r3
 8001570:	ea47 070e 	orr.w	r7, r7, lr
 8001574:	6047      	str	r7, [r0, #4]
 8001576:	68c7      	ldr	r7, [r0, #12]
 8001578:	ea07 0e06 	and.w	lr, r7, r6
 800157c:	688f      	ldr	r7, [r1, #8]
 800157e:	fa07 f708 	lsl.w	r7, r7, r8
 8001582:	ea47 070e 	orr.w	r7, r7, lr
 8001586:	2c02      	cmp	r4, #2
 8001588:	60c7      	str	r7, [r0, #12]
 800158a:	d119      	bne.n	80015c0 <HAL_GPIO_Init+0xa4>
 800158c:	ea4f 0ad3 	mov.w	sl, r3, lsr #3
 8001590:	eb00 0a8a 	add.w	sl, r0, sl, lsl #2
 8001594:	f003 0b07 	and.w	fp, r3, #7
 8001598:	f8da 7020 	ldr.w	r7, [sl, #32]
 800159c:	ea4f 0b8b 	mov.w	fp, fp, lsl #2
 80015a0:	f04f 0e0f 	mov.w	lr, #15
 80015a4:	fa0e fe0b 	lsl.w	lr, lr, fp
 80015a8:	ea27 0e0e 	bic.w	lr, r7, lr
 80015ac:	690f      	ldr	r7, [r1, #16]
 80015ae:	fa07 f70b 	lsl.w	r7, r7, fp
 80015b2:	ea47 070e 	orr.w	r7, r7, lr
 80015b6:	f8ca 7020 	str.w	r7, [sl, #32]
 80015ba:	e001      	b.n	80015c0 <HAL_GPIO_Init+0xa4>
 80015bc:	2c03      	cmp	r4, #3
 80015be:	d1da      	bne.n	8001576 <HAL_GPIO_Init+0x5a>
 80015c0:	6807      	ldr	r7, [r0, #0]
 80015c2:	fa04 f408 	lsl.w	r4, r4, r8
 80015c6:	403e      	ands	r6, r7
 80015c8:	4326      	orrs	r6, r4
 80015ca:	00ec      	lsls	r4, r5, #3
 80015cc:	6006      	str	r6, [r0, #0]
 80015ce:	d563      	bpl.n	8001698 <HAL_GPIO_Init+0x17c>
 80015d0:	f04f 0a00 	mov.w	sl, #0
 80015d4:	f8cd a004 	str.w	sl, [sp, #4]
 80015d8:	f8d9 6044 	ldr.w	r6, [r9, #68]	; 0x44
 80015dc:	4c3a      	ldr	r4, [pc, #232]	; (80016c8 <HAL_GPIO_Init+0x1ac>)
 80015de:	f446 4680 	orr.w	r6, r6, #16384	; 0x4000
 80015e2:	f8c9 6044 	str.w	r6, [r9, #68]	; 0x44
 80015e6:	f8d9 6044 	ldr.w	r6, [r9, #68]	; 0x44
 80015ea:	f406 4680 	and.w	r6, r6, #16384	; 0x4000
 80015ee:	9601      	str	r6, [sp, #4]
 80015f0:	9e01      	ldr	r6, [sp, #4]
 80015f2:	f023 0603 	bic.w	r6, r3, #3
 80015f6:	f106 4680 	add.w	r6, r6, #1073741824	; 0x40000000
 80015fa:	f506 369c 	add.w	r6, r6, #79872	; 0x13800
 80015fe:	f003 0e03 	and.w	lr, r3, #3
 8001602:	f8d6 8008 	ldr.w	r8, [r6, #8]
 8001606:	ea4f 0e8e 	mov.w	lr, lr, lsl #2
 800160a:	270f      	movs	r7, #15
 800160c:	fa07 f70e 	lsl.w	r7, r7, lr
 8001610:	42a0      	cmp	r0, r4
 8001612:	ea28 0707 	bic.w	r7, r8, r7
 8001616:	d046      	beq.n	80016a6 <HAL_GPIO_Init+0x18a>
 8001618:	f504 6480 	add.w	r4, r4, #1024	; 0x400
 800161c:	42a0      	cmp	r0, r4
 800161e:	d044      	beq.n	80016aa <HAL_GPIO_Init+0x18e>
 8001620:	f504 6480 	add.w	r4, r4, #1024	; 0x400
 8001624:	42a0      	cmp	r0, r4
 8001626:	d042      	beq.n	80016ae <HAL_GPIO_Init+0x192>
 8001628:	f504 6480 	add.w	r4, r4, #1024	; 0x400
 800162c:	42a0      	cmp	r0, r4
 800162e:	d040      	beq.n	80016b2 <HAL_GPIO_Init+0x196>
 8001630:	f504 6480 	add.w	r4, r4, #1024	; 0x400
 8001634:	42a0      	cmp	r0, r4
 8001636:	d03e      	beq.n	80016b6 <HAL_GPIO_Init+0x19a>
 8001638:	f504 6480 	add.w	r4, r4, #1024	; 0x400
 800163c:	42a0      	cmp	r0, r4
 800163e:	d03c      	beq.n	80016ba <HAL_GPIO_Init+0x19e>
 8001640:	f504 6480 	add.w	r4, r4, #1024	; 0x400
 8001644:	42a0      	cmp	r0, r4
 8001646:	d03a      	beq.n	80016be <HAL_GPIO_Init+0x1a2>
 8001648:	f504 6480 	add.w	r4, r4, #1024	; 0x400
 800164c:	42a0      	cmp	r0, r4
 800164e:	bf0c      	ite	eq
 8001650:	2407      	moveq	r4, #7
 8001652:	2408      	movne	r4, #8
 8001654:	fa04 f40e 	lsl.w	r4, r4, lr
 8001658:	433c      	orrs	r4, r7
 800165a:	60b4      	str	r4, [r6, #8]
 800165c:	6814      	ldr	r4, [r2, #0]
 800165e:	ea6f 060c 	mvn.w	r6, ip
 8001662:	03ef      	lsls	r7, r5, #15
 8001664:	bf54      	ite	pl
 8001666:	4034      	andpl	r4, r6
 8001668:	ea4c 0404 	orrmi.w	r4, ip, r4
 800166c:	6014      	str	r4, [r2, #0]
 800166e:	6854      	ldr	r4, [r2, #4]
 8001670:	03af      	lsls	r7, r5, #14
 8001672:	bf54      	ite	pl
 8001674:	4034      	andpl	r4, r6
 8001676:	ea4c 0404 	orrmi.w	r4, ip, r4
 800167a:	6054      	str	r4, [r2, #4]
 800167c:	6894      	ldr	r4, [r2, #8]
 800167e:	02ef      	lsls	r7, r5, #11
 8001680:	bf54      	ite	pl
 8001682:	4034      	andpl	r4, r6
 8001684:	ea4c 0404 	orrmi.w	r4, ip, r4
 8001688:	6094      	str	r4, [r2, #8]
 800168a:	68d4      	ldr	r4, [r2, #12]
 800168c:	02ad      	lsls	r5, r5, #10
 800168e:	bf54      	ite	pl
 8001690:	4034      	andpl	r4, r6
 8001692:	ea4c 0404 	orrmi.w	r4, ip, r4
 8001696:	60d4      	str	r4, [r2, #12]
 8001698:	3301      	adds	r3, #1
 800169a:	2b10      	cmp	r3, #16
 800169c:	f47f af44 	bne.w	8001528 <HAL_GPIO_Init+0xc>
 80016a0:	b003      	add	sp, #12
 80016a2:	e8bd 8ff0 	ldmia.w	sp!, {r4, r5, r6, r7, r8, r9, sl, fp, pc}
 80016a6:	4654      	mov	r4, sl
 80016a8:	e7d4      	b.n	8001654 <HAL_GPIO_Init+0x138>
 80016aa:	2401      	movs	r4, #1
 80016ac:	e7d2      	b.n	8001654 <HAL_GPIO_Init+0x138>
 80016ae:	2402      	movs	r4, #2
 80016b0:	e7d0      	b.n	8001654 <HAL_GPIO_Init+0x138>
 80016b2:	2403      	movs	r4, #3
 80016b4:	e7ce      	b.n	8001654 <HAL_GPIO_Init+0x138>
 80016b6:	2404      	movs	r4, #4
 80016b8:	e7cc      	b.n	8001654 <HAL_GPIO_Init+0x138>
 80016ba:	2405      	movs	r4, #5
 80016bc:	e7ca      	b.n	8001654 <HAL_GPIO_Init+0x138>
 80016be:	2406      	movs	r4, #6
 80016c0:	e7c8      	b.n	8001654 <HAL_GPIO_Init+0x138>
 80016c2:	bf00      	nop
 80016c4:	40013c00 	.word	0x40013c00
 80016c8:	40020000 	.word	0x40020000
 80016cc:	40023800 	.word	0x40023800

080016d0 <HAL_GPIO_WritePin>:
 80016d0:	b10a      	cbz	r2, 80016d6 <HAL_GPIO_WritePin+0x6>
 80016d2:	6181      	str	r1, [r0, #24]
 80016d4:	4770      	bx	lr
 80016d6:	0409      	lsls	r1, r1, #16
 80016d8:	e7fb      	b.n	80016d2 <HAL_GPIO_WritePin+0x2>
	...

080016dc <HAL_RCC_OscConfig>:
 80016dc:	e92d 41f3 	stmdb	sp!, {r0, r1, r4, r5, r6, r7, r8, lr}
 80016e0:	4604      	mov	r4, r0
 80016e2:	b340      	cbz	r0, 8001736 <HAL_RCC_OscConfig+0x5a>
 80016e4:	6803      	ldr	r3, [r0, #0]
 80016e6:	07dd      	lsls	r5, r3, #31
 80016e8:	d410      	bmi.n	800170c <HAL_RCC_OscConfig+0x30>
 80016ea:	6823      	ldr	r3, [r4, #0]
 80016ec:	0798      	lsls	r0, r3, #30
 80016ee:	d45e      	bmi.n	80017ae <HAL_RCC_OscConfig+0xd2>
 80016f0:	6823      	ldr	r3, [r4, #0]
 80016f2:	071a      	lsls	r2, r3, #28
 80016f4:	f100 80a0 	bmi.w	8001838 <HAL_RCC_OscConfig+0x15c>
 80016f8:	6823      	ldr	r3, [r4, #0]
 80016fa:	075b      	lsls	r3, r3, #29
 80016fc:	f100 80be 	bmi.w	800187c <HAL_RCC_OscConfig+0x1a0>
 8001700:	69a0      	ldr	r0, [r4, #24]
 8001702:	2800      	cmp	r0, #0
 8001704:	f040 811f 	bne.w	8001946 <HAL_RCC_OscConfig+0x26a>
 8001708:	2000      	movs	r0, #0
 800170a:	e02b      	b.n	8001764 <HAL_RCC_OscConfig+0x88>
 800170c:	4ba6      	ldr	r3, [pc, #664]	; (80019a8 <HAL_RCC_OscConfig+0x2cc>)
 800170e:	689a      	ldr	r2, [r3, #8]
 8001710:	f002 020c 	and.w	r2, r2, #12
 8001714:	2a04      	cmp	r2, #4
 8001716:	d007      	beq.n	8001728 <HAL_RCC_OscConfig+0x4c>
 8001718:	689a      	ldr	r2, [r3, #8]
 800171a:	f002 020c 	and.w	r2, r2, #12
 800171e:	2a08      	cmp	r2, #8
 8001720:	d10b      	bne.n	800173a <HAL_RCC_OscConfig+0x5e>
 8001722:	685a      	ldr	r2, [r3, #4]
 8001724:	0251      	lsls	r1, r2, #9
 8001726:	d508      	bpl.n	800173a <HAL_RCC_OscConfig+0x5e>
 8001728:	4b9f      	ldr	r3, [pc, #636]	; (80019a8 <HAL_RCC_OscConfig+0x2cc>)
 800172a:	681b      	ldr	r3, [r3, #0]
 800172c:	039a      	lsls	r2, r3, #14
 800172e:	d5dc      	bpl.n	80016ea <HAL_RCC_OscConfig+0xe>
 8001730:	6863      	ldr	r3, [r4, #4]
 8001732:	2b00      	cmp	r3, #0
 8001734:	d1d9      	bne.n	80016ea <HAL_RCC_OscConfig+0xe>
 8001736:	2001      	movs	r0, #1
 8001738:	e014      	b.n	8001764 <HAL_RCC_OscConfig+0x88>
 800173a:	6862      	ldr	r2, [r4, #4]
 800173c:	f5b2 3f80 	cmp.w	r2, #65536	; 0x10000
 8001740:	d113      	bne.n	800176a <HAL_RCC_OscConfig+0x8e>
 8001742:	681a      	ldr	r2, [r3, #0]
 8001744:	f442 3280 	orr.w	r2, r2, #65536	; 0x10000
 8001748:	601a      	str	r2, [r3, #0]
 800174a:	f7ff fc95 	bl	8001078 <HAL_GetTick>
 800174e:	4e96      	ldr	r6, [pc, #600]	; (80019a8 <HAL_RCC_OscConfig+0x2cc>)
 8001750:	4605      	mov	r5, r0
 8001752:	6833      	ldr	r3, [r6, #0]
 8001754:	039b      	lsls	r3, r3, #14
 8001756:	d4c8      	bmi.n	80016ea <HAL_RCC_OscConfig+0xe>
 8001758:	f7ff fc8e 	bl	8001078 <HAL_GetTick>
 800175c:	1b40      	subs	r0, r0, r5
 800175e:	2864      	cmp	r0, #100	; 0x64
 8001760:	d9f7      	bls.n	8001752 <HAL_RCC_OscConfig+0x76>
 8001762:	2003      	movs	r0, #3
 8001764:	b002      	add	sp, #8
 8001766:	e8bd 81f0 	ldmia.w	sp!, {r4, r5, r6, r7, r8, pc}
 800176a:	4d8f      	ldr	r5, [pc, #572]	; (80019a8 <HAL_RCC_OscConfig+0x2cc>)
 800176c:	f5b2 2fa0 	cmp.w	r2, #327680	; 0x50000
 8001770:	682b      	ldr	r3, [r5, #0]
 8001772:	d107      	bne.n	8001784 <HAL_RCC_OscConfig+0xa8>
 8001774:	f443 2380 	orr.w	r3, r3, #262144	; 0x40000
 8001778:	602b      	str	r3, [r5, #0]
 800177a:	682b      	ldr	r3, [r5, #0]
 800177c:	f443 3380 	orr.w	r3, r3, #65536	; 0x10000
 8001780:	602b      	str	r3, [r5, #0]
 8001782:	e7e2      	b.n	800174a <HAL_RCC_OscConfig+0x6e>
 8001784:	f423 3380 	bic.w	r3, r3, #65536	; 0x10000
 8001788:	602b      	str	r3, [r5, #0]
 800178a:	682b      	ldr	r3, [r5, #0]
 800178c:	f423 2380 	bic.w	r3, r3, #262144	; 0x40000
 8001790:	602b      	str	r3, [r5, #0]
 8001792:	2a00      	cmp	r2, #0
 8001794:	d1d9      	bne.n	800174a <HAL_RCC_OscConfig+0x6e>
 8001796:	f7ff fc6f 	bl	8001078 <HAL_GetTick>
 800179a:	4606      	mov	r6, r0
 800179c:	682b      	ldr	r3, [r5, #0]
 800179e:	039f      	lsls	r7, r3, #14
 80017a0:	d5a3      	bpl.n	80016ea <HAL_RCC_OscConfig+0xe>
 80017a2:	f7ff fc69 	bl	8001078 <HAL_GetTick>
 80017a6:	1b80      	subs	r0, r0, r6
 80017a8:	2864      	cmp	r0, #100	; 0x64
 80017aa:	d9f7      	bls.n	800179c <HAL_RCC_OscConfig+0xc0>
 80017ac:	e7d9      	b.n	8001762 <HAL_RCC_OscConfig+0x86>
 80017ae:	4b7e      	ldr	r3, [pc, #504]	; (80019a8 <HAL_RCC_OscConfig+0x2cc>)
 80017b0:	689a      	ldr	r2, [r3, #8]
 80017b2:	f012 0f0c 	tst.w	r2, #12
 80017b6:	d007      	beq.n	80017c8 <HAL_RCC_OscConfig+0xec>
 80017b8:	689a      	ldr	r2, [r3, #8]
 80017ba:	f002 020c 	and.w	r2, r2, #12
 80017be:	2a08      	cmp	r2, #8
 80017c0:	d111      	bne.n	80017e6 <HAL_RCC_OscConfig+0x10a>
 80017c2:	685b      	ldr	r3, [r3, #4]
 80017c4:	025e      	lsls	r6, r3, #9
 80017c6:	d40e      	bmi.n	80017e6 <HAL_RCC_OscConfig+0x10a>
 80017c8:	4b77      	ldr	r3, [pc, #476]	; (80019a8 <HAL_RCC_OscConfig+0x2cc>)
 80017ca:	681a      	ldr	r2, [r3, #0]
 80017cc:	0795      	lsls	r5, r2, #30
 80017ce:	d502      	bpl.n	80017d6 <HAL_RCC_OscConfig+0xfa>
 80017d0:	68e2      	ldr	r2, [r4, #12]
 80017d2:	2a01      	cmp	r2, #1
 80017d4:	d1af      	bne.n	8001736 <HAL_RCC_OscConfig+0x5a>
 80017d6:	681a      	ldr	r2, [r3, #0]
 80017d8:	6921      	ldr	r1, [r4, #16]
 80017da:	f022 02f8 	bic.w	r2, r2, #248	; 0xf8
 80017de:	ea42 02c1 	orr.w	r2, r2, r1, lsl #3
 80017e2:	601a      	str	r2, [r3, #0]
 80017e4:	e784      	b.n	80016f0 <HAL_RCC_OscConfig+0x14>
 80017e6:	68e2      	ldr	r2, [r4, #12]
 80017e8:	4b70      	ldr	r3, [pc, #448]	; (80019ac <HAL_RCC_OscConfig+0x2d0>)
 80017ea:	b1b2      	cbz	r2, 800181a <HAL_RCC_OscConfig+0x13e>
 80017ec:	2201      	movs	r2, #1
 80017ee:	601a      	str	r2, [r3, #0]
 80017f0:	f7ff fc42 	bl	8001078 <HAL_GetTick>
 80017f4:	4d6c      	ldr	r5, [pc, #432]	; (80019a8 <HAL_RCC_OscConfig+0x2cc>)
 80017f6:	4606      	mov	r6, r0
 80017f8:	682b      	ldr	r3, [r5, #0]
 80017fa:	0798      	lsls	r0, r3, #30
 80017fc:	d507      	bpl.n	800180e <HAL_RCC_OscConfig+0x132>
 80017fe:	682b      	ldr	r3, [r5, #0]
 8001800:	6922      	ldr	r2, [r4, #16]
 8001802:	f023 03f8 	bic.w	r3, r3, #248	; 0xf8
 8001806:	ea43 03c2 	orr.w	r3, r3, r2, lsl #3
 800180a:	602b      	str	r3, [r5, #0]
 800180c:	e770      	b.n	80016f0 <HAL_RCC_OscConfig+0x14>
 800180e:	f7ff fc33 	bl	8001078 <HAL_GetTick>
 8001812:	1b80      	subs	r0, r0, r6
 8001814:	2802      	cmp	r0, #2
 8001816:	d9ef      	bls.n	80017f8 <HAL_RCC_OscConfig+0x11c>
 8001818:	e7a3      	b.n	8001762 <HAL_RCC_OscConfig+0x86>
 800181a:	601a      	str	r2, [r3, #0]
 800181c:	f7ff fc2c 	bl	8001078 <HAL_GetTick>
 8001820:	4e61      	ldr	r6, [pc, #388]	; (80019a8 <HAL_RCC_OscConfig+0x2cc>)
 8001822:	4605      	mov	r5, r0
 8001824:	6833      	ldr	r3, [r6, #0]
 8001826:	0799      	lsls	r1, r3, #30
 8001828:	f57f af62 	bpl.w	80016f0 <HAL_RCC_OscConfig+0x14>
 800182c:	f7ff fc24 	bl	8001078 <HAL_GetTick>
 8001830:	1b40      	subs	r0, r0, r5
 8001832:	2802      	cmp	r0, #2
 8001834:	d9f6      	bls.n	8001824 <HAL_RCC_OscConfig+0x148>
 8001836:	e794      	b.n	8001762 <HAL_RCC_OscConfig+0x86>
 8001838:	6962      	ldr	r2, [r4, #20]
 800183a:	4b5d      	ldr	r3, [pc, #372]	; (80019b0 <HAL_RCC_OscConfig+0x2d4>)
 800183c:	b17a      	cbz	r2, 800185e <HAL_RCC_OscConfig+0x182>
 800183e:	2201      	movs	r2, #1
 8001840:	601a      	str	r2, [r3, #0]
 8001842:	f7ff fc19 	bl	8001078 <HAL_GetTick>
 8001846:	4e58      	ldr	r6, [pc, #352]	; (80019a8 <HAL_RCC_OscConfig+0x2cc>)
 8001848:	4605      	mov	r5, r0
 800184a:	6f73      	ldr	r3, [r6, #116]	; 0x74
 800184c:	079f      	lsls	r7, r3, #30
 800184e:	f53f af53 	bmi.w	80016f8 <HAL_RCC_OscConfig+0x1c>
 8001852:	f7ff fc11 	bl	8001078 <HAL_GetTick>
 8001856:	1b40      	subs	r0, r0, r5
 8001858:	2802      	cmp	r0, #2
 800185a:	d9f6      	bls.n	800184a <HAL_RCC_OscConfig+0x16e>
 800185c:	e781      	b.n	8001762 <HAL_RCC_OscConfig+0x86>
 800185e:	601a      	str	r2, [r3, #0]
 8001860:	f7ff fc0a 	bl	8001078 <HAL_GetTick>
 8001864:	4e50      	ldr	r6, [pc, #320]	; (80019a8 <HAL_RCC_OscConfig+0x2cc>)
 8001866:	4605      	mov	r5, r0
 8001868:	6f73      	ldr	r3, [r6, #116]	; 0x74
 800186a:	0798      	lsls	r0, r3, #30
 800186c:	f57f af44 	bpl.w	80016f8 <HAL_RCC_OscConfig+0x1c>
 8001870:	f7ff fc02 	bl	8001078 <HAL_GetTick>
 8001874:	1b40      	subs	r0, r0, r5
 8001876:	2802      	cmp	r0, #2
 8001878:	d9f6      	bls.n	8001868 <HAL_RCC_OscConfig+0x18c>
 800187a:	e772      	b.n	8001762 <HAL_RCC_OscConfig+0x86>
 800187c:	4b4a      	ldr	r3, [pc, #296]	; (80019a8 <HAL_RCC_OscConfig+0x2cc>)
 800187e:	6c1a      	ldr	r2, [r3, #64]	; 0x40
 8001880:	f012 5280 	ands.w	r2, r2, #268435456	; 0x10000000
 8001884:	d128      	bne.n	80018d8 <HAL_RCC_OscConfig+0x1fc>
 8001886:	9201      	str	r2, [sp, #4]
 8001888:	6c1a      	ldr	r2, [r3, #64]	; 0x40
 800188a:	f042 5280 	orr.w	r2, r2, #268435456	; 0x10000000
 800188e:	641a      	str	r2, [r3, #64]	; 0x40
 8001890:	6c1b      	ldr	r3, [r3, #64]	; 0x40
 8001892:	f003 5380 	and.w	r3, r3, #268435456	; 0x10000000
 8001896:	9301      	str	r3, [sp, #4]
 8001898:	9b01      	ldr	r3, [sp, #4]
 800189a:	2701      	movs	r7, #1
 800189c:	4d45      	ldr	r5, [pc, #276]	; (80019b4 <HAL_RCC_OscConfig+0x2d8>)
 800189e:	682b      	ldr	r3, [r5, #0]
 80018a0:	05d9      	lsls	r1, r3, #23
 80018a2:	d51b      	bpl.n	80018dc <HAL_RCC_OscConfig+0x200>
 80018a4:	68a3      	ldr	r3, [r4, #8]
 80018a6:	4d40      	ldr	r5, [pc, #256]	; (80019a8 <HAL_RCC_OscConfig+0x2cc>)
 80018a8:	2b01      	cmp	r3, #1
 80018aa:	d127      	bne.n	80018fc <HAL_RCC_OscConfig+0x220>
 80018ac:	6f2b      	ldr	r3, [r5, #112]	; 0x70
 80018ae:	f043 0301 	orr.w	r3, r3, #1
 80018b2:	672b      	str	r3, [r5, #112]	; 0x70
 80018b4:	f7ff fbe0 	bl	8001078 <HAL_GetTick>
 80018b8:	4e3b      	ldr	r6, [pc, #236]	; (80019a8 <HAL_RCC_OscConfig+0x2cc>)
 80018ba:	4605      	mov	r5, r0
 80018bc:	f241 3888 	movw	r8, #5000	; 0x1388
 80018c0:	6f33      	ldr	r3, [r6, #112]	; 0x70
 80018c2:	079b      	lsls	r3, r3, #30
 80018c4:	d539      	bpl.n	800193a <HAL_RCC_OscConfig+0x25e>
 80018c6:	2f00      	cmp	r7, #0
 80018c8:	f43f af1a 	beq.w	8001700 <HAL_RCC_OscConfig+0x24>
 80018cc:	4a36      	ldr	r2, [pc, #216]	; (80019a8 <HAL_RCC_OscConfig+0x2cc>)
 80018ce:	6c13      	ldr	r3, [r2, #64]	; 0x40
 80018d0:	f023 5380 	bic.w	r3, r3, #268435456	; 0x10000000
 80018d4:	6413      	str	r3, [r2, #64]	; 0x40
 80018d6:	e713      	b.n	8001700 <HAL_RCC_OscConfig+0x24>
 80018d8:	2700      	movs	r7, #0
 80018da:	e7df      	b.n	800189c <HAL_RCC_OscConfig+0x1c0>
 80018dc:	682b      	ldr	r3, [r5, #0]
 80018de:	f443 7380 	orr.w	r3, r3, #256	; 0x100
 80018e2:	602b      	str	r3, [r5, #0]
 80018e4:	f7ff fbc8 	bl	8001078 <HAL_GetTick>
 80018e8:	4606      	mov	r6, r0
 80018ea:	682b      	ldr	r3, [r5, #0]
 80018ec:	05da      	lsls	r2, r3, #23
 80018ee:	d4d9      	bmi.n	80018a4 <HAL_RCC_OscConfig+0x1c8>
 80018f0:	f7ff fbc2 	bl	8001078 <HAL_GetTick>
 80018f4:	1b80      	subs	r0, r0, r6
 80018f6:	2802      	cmp	r0, #2
 80018f8:	d9f7      	bls.n	80018ea <HAL_RCC_OscConfig+0x20e>
 80018fa:	e732      	b.n	8001762 <HAL_RCC_OscConfig+0x86>
 80018fc:	2b05      	cmp	r3, #5
 80018fe:	d104      	bne.n	800190a <HAL_RCC_OscConfig+0x22e>
 8001900:	6f2b      	ldr	r3, [r5, #112]	; 0x70
 8001902:	f043 0304 	orr.w	r3, r3, #4
 8001906:	672b      	str	r3, [r5, #112]	; 0x70
 8001908:	e7d0      	b.n	80018ac <HAL_RCC_OscConfig+0x1d0>
 800190a:	6f2a      	ldr	r2, [r5, #112]	; 0x70
 800190c:	f022 0201 	bic.w	r2, r2, #1
 8001910:	672a      	str	r2, [r5, #112]	; 0x70
 8001912:	6f2a      	ldr	r2, [r5, #112]	; 0x70
 8001914:	f022 0204 	bic.w	r2, r2, #4
 8001918:	672a      	str	r2, [r5, #112]	; 0x70
 800191a:	2b00      	cmp	r3, #0
 800191c:	d1ca      	bne.n	80018b4 <HAL_RCC_OscConfig+0x1d8>
 800191e:	f7ff fbab 	bl	8001078 <HAL_GetTick>
 8001922:	f241 3888 	movw	r8, #5000	; 0x1388
 8001926:	4606      	mov	r6, r0
 8001928:	6f2b      	ldr	r3, [r5, #112]	; 0x70
 800192a:	0798      	lsls	r0, r3, #30
 800192c:	d5cb      	bpl.n	80018c6 <HAL_RCC_OscConfig+0x1ea>
 800192e:	f7ff fba3 	bl	8001078 <HAL_GetTick>
 8001932:	1b80      	subs	r0, r0, r6
 8001934:	4540      	cmp	r0, r8
 8001936:	d9f7      	bls.n	8001928 <HAL_RCC_OscConfig+0x24c>
 8001938:	e713      	b.n	8001762 <HAL_RCC_OscConfig+0x86>
 800193a:	f7ff fb9d 	bl	8001078 <HAL_GetTick>
 800193e:	1b40      	subs	r0, r0, r5
 8001940:	4540      	cmp	r0, r8
 8001942:	d9bd      	bls.n	80018c0 <HAL_RCC_OscConfig+0x1e4>
 8001944:	e70d      	b.n	8001762 <HAL_RCC_OscConfig+0x86>
 8001946:	4d18      	ldr	r5, [pc, #96]	; (80019a8 <HAL_RCC_OscConfig+0x2cc>)
 8001948:	68ab      	ldr	r3, [r5, #8]
 800194a:	f003 030c 	and.w	r3, r3, #12
 800194e:	2b08      	cmp	r3, #8
 8001950:	d047      	beq.n	80019e2 <HAL_RCC_OscConfig+0x306>
 8001952:	4e19      	ldr	r6, [pc, #100]	; (80019b8 <HAL_RCC_OscConfig+0x2dc>)
 8001954:	2300      	movs	r3, #0
 8001956:	2802      	cmp	r0, #2
 8001958:	6033      	str	r3, [r6, #0]
 800195a:	d135      	bne.n	80019c8 <HAL_RCC_OscConfig+0x2ec>
 800195c:	f7ff fb8c 	bl	8001078 <HAL_GetTick>
 8001960:	4607      	mov	r7, r0
 8001962:	682b      	ldr	r3, [r5, #0]
 8001964:	0199      	lsls	r1, r3, #6
 8001966:	d429      	bmi.n	80019bc <HAL_RCC_OscConfig+0x2e0>
 8001968:	e9d4 3207 	ldrd	r3, r2, [r4, #28]
 800196c:	4313      	orrs	r3, r2
 800196e:	6a62      	ldr	r2, [r4, #36]	; 0x24
 8001970:	ea43 1382 	orr.w	r3, r3, r2, lsl #6
 8001974:	6ae2      	ldr	r2, [r4, #44]	; 0x2c
 8001976:	ea43 6302 	orr.w	r3, r3, r2, lsl #24
 800197a:	6aa2      	ldr	r2, [r4, #40]	; 0x28
 800197c:	0852      	lsrs	r2, r2, #1
 800197e:	3a01      	subs	r2, #1
 8001980:	ea43 4302 	orr.w	r3, r3, r2, lsl #16
 8001984:	606b      	str	r3, [r5, #4]
 8001986:	2301      	movs	r3, #1
 8001988:	6033      	str	r3, [r6, #0]
 800198a:	f7ff fb75 	bl	8001078 <HAL_GetTick>
 800198e:	4d06      	ldr	r5, [pc, #24]	; (80019a8 <HAL_RCC_OscConfig+0x2cc>)
 8001990:	4604      	mov	r4, r0
 8001992:	682b      	ldr	r3, [r5, #0]
 8001994:	019a      	lsls	r2, r3, #6
 8001996:	f53f aeb7 	bmi.w	8001708 <HAL_RCC_OscConfig+0x2c>
 800199a:	f7ff fb6d 	bl	8001078 <HAL_GetTick>
 800199e:	1b00      	subs	r0, r0, r4
 80019a0:	2802      	cmp	r0, #2
 80019a2:	d9f6      	bls.n	8001992 <HAL_RCC_OscConfig+0x2b6>
 80019a4:	e6dd      	b.n	8001762 <HAL_RCC_OscConfig+0x86>
 80019a6:	bf00      	nop
 80019a8:	40023800 	.word	0x40023800
 80019ac:	42470000 	.word	0x42470000
 80019b0:	42470e80 	.word	0x42470e80
 80019b4:	40007000 	.word	0x40007000
 80019b8:	42470060 	.word	0x42470060
 80019bc:	f7ff fb5c 	bl	8001078 <HAL_GetTick>
 80019c0:	1bc0      	subs	r0, r0, r7
 80019c2:	2802      	cmp	r0, #2
 80019c4:	d9cd      	bls.n	8001962 <HAL_RCC_OscConfig+0x286>
 80019c6:	e6cc      	b.n	8001762 <HAL_RCC_OscConfig+0x86>
 80019c8:	f7ff fb56 	bl	8001078 <HAL_GetTick>
 80019cc:	4604      	mov	r4, r0
 80019ce:	682b      	ldr	r3, [r5, #0]
 80019d0:	019b      	lsls	r3, r3, #6
 80019d2:	f57f ae99 	bpl.w	8001708 <HAL_RCC_OscConfig+0x2c>
 80019d6:	f7ff fb4f 	bl	8001078 <HAL_GetTick>
 80019da:	1b00      	subs	r0, r0, r4
 80019dc:	2802      	cmp	r0, #2
 80019de:	d9f6      	bls.n	80019ce <HAL_RCC_OscConfig+0x2f2>
 80019e0:	e6bf      	b.n	8001762 <HAL_RCC_OscConfig+0x86>
 80019e2:	2801      	cmp	r0, #1
 80019e4:	f43f aebe 	beq.w	8001764 <HAL_RCC_OscConfig+0x88>
 80019e8:	686b      	ldr	r3, [r5, #4]
 80019ea:	69e2      	ldr	r2, [r4, #28]
 80019ec:	f403 0180 	and.w	r1, r3, #4194304	; 0x400000
 80019f0:	4291      	cmp	r1, r2
 80019f2:	f47f aea0 	bne.w	8001736 <HAL_RCC_OscConfig+0x5a>
 80019f6:	6a21      	ldr	r1, [r4, #32]
 80019f8:	f003 023f 	and.w	r2, r3, #63	; 0x3f
 80019fc:	428a      	cmp	r2, r1
 80019fe:	f47f ae9a 	bne.w	8001736 <HAL_RCC_OscConfig+0x5a>
 8001a02:	6a61      	ldr	r1, [r4, #36]	; 0x24
 8001a04:	f647 72c0 	movw	r2, #32704	; 0x7fc0
 8001a08:	401a      	ands	r2, r3
 8001a0a:	ebb2 1f81 	cmp.w	r2, r1, lsl #6
 8001a0e:	f47f ae92 	bne.w	8001736 <HAL_RCC_OscConfig+0x5a>
 8001a12:	6aa2      	ldr	r2, [r4, #40]	; 0x28
 8001a14:	0852      	lsrs	r2, r2, #1
 8001a16:	f403 3140 	and.w	r1, r3, #196608	; 0x30000
 8001a1a:	3a01      	subs	r2, #1
 8001a1c:	ebb1 4f02 	cmp.w	r1, r2, lsl #16
 8001a20:	f47f ae89 	bne.w	8001736 <HAL_RCC_OscConfig+0x5a>
 8001a24:	6ae2      	ldr	r2, [r4, #44]	; 0x2c
 8001a26:	f003 6370 	and.w	r3, r3, #251658240	; 0xf000000
 8001a2a:	ebb3 6f02 	cmp.w	r3, r2, lsl #24
 8001a2e:	f43f ae6b 	beq.w	8001708 <HAL_RCC_OscConfig+0x2c>
 8001a32:	e680      	b.n	8001736 <HAL_RCC_OscConfig+0x5a>

08001a34 <HAL_RCC_GetSysClockFreq>:
 8001a34:	4913      	ldr	r1, [pc, #76]	; (8001a84 <HAL_RCC_GetSysClockFreq+0x50>)
 8001a36:	b508      	push	{r3, lr}
 8001a38:	688b      	ldr	r3, [r1, #8]
 8001a3a:	f003 030c 	and.w	r3, r3, #12
 8001a3e:	2b04      	cmp	r3, #4
 8001a40:	d01c      	beq.n	8001a7c <HAL_RCC_GetSysClockFreq+0x48>
 8001a42:	2b08      	cmp	r3, #8
 8001a44:	d11c      	bne.n	8001a80 <HAL_RCC_GetSysClockFreq+0x4c>
 8001a46:	684a      	ldr	r2, [r1, #4]
 8001a48:	684b      	ldr	r3, [r1, #4]
 8001a4a:	6849      	ldr	r1, [r1, #4]
 8001a4c:	f413 0380 	ands.w	r3, r3, #4194304	; 0x400000
 8001a50:	bf14      	ite	ne
 8001a52:	480d      	ldrne	r0, [pc, #52]	; (8001a88 <HAL_RCC_GetSysClockFreq+0x54>)
 8001a54:	480d      	ldreq	r0, [pc, #52]	; (8001a8c <HAL_RCC_GetSysClockFreq+0x58>)
 8001a56:	f3c1 1188 	ubfx	r1, r1, #6, #9
 8001a5a:	bf18      	it	ne
 8001a5c:	2300      	movne	r3, #0
 8001a5e:	f002 023f 	and.w	r2, r2, #63	; 0x3f
 8001a62:	fba1 0100 	umull	r0, r1, r1, r0
 8001a66:	f7fe fc1b 	bl	80002a0 <__aeabi_uldivmod>
 8001a6a:	4b06      	ldr	r3, [pc, #24]	; (8001a84 <HAL_RCC_GetSysClockFreq+0x50>)
 8001a6c:	685b      	ldr	r3, [r3, #4]
 8001a6e:	f3c3 4301 	ubfx	r3, r3, #16, #2
 8001a72:	3301      	adds	r3, #1
 8001a74:	005b      	lsls	r3, r3, #1
 8001a76:	fbb0 f0f3 	udiv	r0, r0, r3
 8001a7a:	bd08      	pop	{r3, pc}
 8001a7c:	4802      	ldr	r0, [pc, #8]	; (8001a88 <HAL_RCC_GetSysClockFreq+0x54>)
 8001a7e:	e7fc      	b.n	8001a7a <HAL_RCC_GetSysClockFreq+0x46>
 8001a80:	4802      	ldr	r0, [pc, #8]	; (8001a8c <HAL_RCC_GetSysClockFreq+0x58>)
 8001a82:	e7fa      	b.n	8001a7a <HAL_RCC_GetSysClockFreq+0x46>
 8001a84:	40023800 	.word	0x40023800
 8001a88:	007a1200 	.word	0x007a1200
 8001a8c:	00f42400 	.word	0x00f42400

08001a90 <HAL_RCC_ClockConfig>:
 8001a90:	e92d 41f0 	stmdb	sp!, {r4, r5, r6, r7, r8, lr}
 8001a94:	460d      	mov	r5, r1
 8001a96:	4604      	mov	r4, r0
 8001a98:	b910      	cbnz	r0, 8001aa0 <HAL_RCC_ClockConfig+0x10>
 8001a9a:	2001      	movs	r0, #1
 8001a9c:	e8bd 81f0 	ldmia.w	sp!, {r4, r5, r6, r7, r8, pc}
 8001aa0:	4b44      	ldr	r3, [pc, #272]	; (8001bb4 <HAL_RCC_ClockConfig+0x124>)
 8001aa2:	681a      	ldr	r2, [r3, #0]
 8001aa4:	f002 0207 	and.w	r2, r2, #7
 8001aa8:	428a      	cmp	r2, r1
 8001aaa:	d328      	bcc.n	8001afe <HAL_RCC_ClockConfig+0x6e>
 8001aac:	6822      	ldr	r2, [r4, #0]
 8001aae:	0797      	lsls	r7, r2, #30
 8001ab0:	d42d      	bmi.n	8001b0e <HAL_RCC_ClockConfig+0x7e>
 8001ab2:	07d0      	lsls	r0, r2, #31
 8001ab4:	d441      	bmi.n	8001b3a <HAL_RCC_ClockConfig+0xaa>
 8001ab6:	4b3f      	ldr	r3, [pc, #252]	; (8001bb4 <HAL_RCC_ClockConfig+0x124>)
 8001ab8:	681a      	ldr	r2, [r3, #0]
 8001aba:	f002 0207 	and.w	r2, r2, #7
 8001abe:	42aa      	cmp	r2, r5
 8001ac0:	d866      	bhi.n	8001b90 <HAL_RCC_ClockConfig+0x100>
 8001ac2:	6822      	ldr	r2, [r4, #0]
 8001ac4:	0751      	lsls	r1, r2, #29
 8001ac6:	d46c      	bmi.n	8001ba2 <HAL_RCC_ClockConfig+0x112>
 8001ac8:	0713      	lsls	r3, r2, #28
 8001aca:	d507      	bpl.n	8001adc <HAL_RCC_ClockConfig+0x4c>
 8001acc:	4a3a      	ldr	r2, [pc, #232]	; (8001bb8 <HAL_RCC_ClockConfig+0x128>)
 8001ace:	6921      	ldr	r1, [r4, #16]
 8001ad0:	6893      	ldr	r3, [r2, #8]
 8001ad2:	f423 4360 	bic.w	r3, r3, #57344	; 0xe000
 8001ad6:	ea43 03c1 	orr.w	r3, r3, r1, lsl #3
 8001ada:	6093      	str	r3, [r2, #8]
 8001adc:	f7ff ffaa 	bl	8001a34 <HAL_RCC_GetSysClockFreq>
 8001ae0:	4b35      	ldr	r3, [pc, #212]	; (8001bb8 <HAL_RCC_ClockConfig+0x128>)
 8001ae2:	4a36      	ldr	r2, [pc, #216]	; (8001bbc <HAL_RCC_ClockConfig+0x12c>)
 8001ae4:	689b      	ldr	r3, [r3, #8]
 8001ae6:	f3c3 1303 	ubfx	r3, r3, #4, #4
 8001aea:	5cd3      	ldrb	r3, [r2, r3]
 8001aec:	40d8      	lsrs	r0, r3
 8001aee:	4b34      	ldr	r3, [pc, #208]	; (8001bc0 <HAL_RCC_ClockConfig+0x130>)
 8001af0:	6018      	str	r0, [r3, #0]
 8001af2:	4b34      	ldr	r3, [pc, #208]	; (8001bc4 <HAL_RCC_ClockConfig+0x134>)
 8001af4:	6818      	ldr	r0, [r3, #0]
 8001af6:	f7ff fa75 	bl	8000fe4 <HAL_InitTick>
 8001afa:	2000      	movs	r0, #0
 8001afc:	e7ce      	b.n	8001a9c <HAL_RCC_ClockConfig+0xc>
 8001afe:	b2ca      	uxtb	r2, r1
 8001b00:	701a      	strb	r2, [r3, #0]
 8001b02:	681b      	ldr	r3, [r3, #0]
 8001b04:	f003 0307 	and.w	r3, r3, #7
 8001b08:	428b      	cmp	r3, r1
 8001b0a:	d1c6      	bne.n	8001a9a <HAL_RCC_ClockConfig+0xa>
 8001b0c:	e7ce      	b.n	8001aac <HAL_RCC_ClockConfig+0x1c>
 8001b0e:	4b2a      	ldr	r3, [pc, #168]	; (8001bb8 <HAL_RCC_ClockConfig+0x128>)
 8001b10:	f012 0f04 	tst.w	r2, #4
 8001b14:	bf1e      	ittt	ne
 8001b16:	6899      	ldrne	r1, [r3, #8]
 8001b18:	f441 51e0 	orrne.w	r1, r1, #7168	; 0x1c00
 8001b1c:	6099      	strne	r1, [r3, #8]
 8001b1e:	0716      	lsls	r6, r2, #28
 8001b20:	bf42      	ittt	mi
 8001b22:	6899      	ldrmi	r1, [r3, #8]
 8001b24:	f441 4160 	orrmi.w	r1, r1, #57344	; 0xe000
 8001b28:	6099      	strmi	r1, [r3, #8]
 8001b2a:	4923      	ldr	r1, [pc, #140]	; (8001bb8 <HAL_RCC_ClockConfig+0x128>)
 8001b2c:	68a0      	ldr	r0, [r4, #8]
 8001b2e:	688b      	ldr	r3, [r1, #8]
 8001b30:	f023 03f0 	bic.w	r3, r3, #240	; 0xf0
 8001b34:	4303      	orrs	r3, r0
 8001b36:	608b      	str	r3, [r1, #8]
 8001b38:	e7bb      	b.n	8001ab2 <HAL_RCC_ClockConfig+0x22>
 8001b3a:	6862      	ldr	r2, [r4, #4]
 8001b3c:	4b1e      	ldr	r3, [pc, #120]	; (8001bb8 <HAL_RCC_ClockConfig+0x128>)
 8001b3e:	2a01      	cmp	r2, #1
 8001b40:	d11c      	bne.n	8001b7c <HAL_RCC_ClockConfig+0xec>
 8001b42:	681b      	ldr	r3, [r3, #0]
 8001b44:	f413 3f00 	tst.w	r3, #131072	; 0x20000
 8001b48:	d0a7      	beq.n	8001a9a <HAL_RCC_ClockConfig+0xa>
 8001b4a:	4e1b      	ldr	r6, [pc, #108]	; (8001bb8 <HAL_RCC_ClockConfig+0x128>)
 8001b4c:	68b3      	ldr	r3, [r6, #8]
 8001b4e:	f023 0303 	bic.w	r3, r3, #3
 8001b52:	4313      	orrs	r3, r2
 8001b54:	60b3      	str	r3, [r6, #8]
 8001b56:	f7ff fa8f 	bl	8001078 <HAL_GetTick>
 8001b5a:	f241 3888 	movw	r8, #5000	; 0x1388
 8001b5e:	4607      	mov	r7, r0
 8001b60:	68b3      	ldr	r3, [r6, #8]
 8001b62:	6862      	ldr	r2, [r4, #4]
 8001b64:	f003 030c 	and.w	r3, r3, #12
 8001b68:	ebb3 0f82 	cmp.w	r3, r2, lsl #2
 8001b6c:	d0a3      	beq.n	8001ab6 <HAL_RCC_ClockConfig+0x26>
 8001b6e:	f7ff fa83 	bl	8001078 <HAL_GetTick>
 8001b72:	1bc0      	subs	r0, r0, r7
 8001b74:	4540      	cmp	r0, r8
 8001b76:	d9f3      	bls.n	8001b60 <HAL_RCC_ClockConfig+0xd0>
 8001b78:	2003      	movs	r0, #3
 8001b7a:	e78f      	b.n	8001a9c <HAL_RCC_ClockConfig+0xc>
 8001b7c:	1e91      	subs	r1, r2, #2
 8001b7e:	2901      	cmp	r1, #1
 8001b80:	681b      	ldr	r3, [r3, #0]
 8001b82:	d802      	bhi.n	8001b8a <HAL_RCC_ClockConfig+0xfa>
 8001b84:	f013 7f00 	tst.w	r3, #33554432	; 0x2000000
 8001b88:	e7de      	b.n	8001b48 <HAL_RCC_ClockConfig+0xb8>
 8001b8a:	f013 0f02 	tst.w	r3, #2
 8001b8e:	e7db      	b.n	8001b48 <HAL_RCC_ClockConfig+0xb8>
 8001b90:	b2ea      	uxtb	r2, r5
 8001b92:	701a      	strb	r2, [r3, #0]
 8001b94:	681b      	ldr	r3, [r3, #0]
 8001b96:	f003 0307 	and.w	r3, r3, #7
 8001b9a:	42ab      	cmp	r3, r5
 8001b9c:	f47f af7d 	bne.w	8001a9a <HAL_RCC_ClockConfig+0xa>
 8001ba0:	e78f      	b.n	8001ac2 <HAL_RCC_ClockConfig+0x32>
 8001ba2:	4905      	ldr	r1, [pc, #20]	; (8001bb8 <HAL_RCC_ClockConfig+0x128>)
 8001ba4:	68e0      	ldr	r0, [r4, #12]
 8001ba6:	688b      	ldr	r3, [r1, #8]
 8001ba8:	f423 53e0 	bic.w	r3, r3, #7168	; 0x1c00
 8001bac:	4303      	orrs	r3, r0
 8001bae:	608b      	str	r3, [r1, #8]
 8001bb0:	e78a      	b.n	8001ac8 <HAL_RCC_ClockConfig+0x38>
 8001bb2:	bf00      	nop
 8001bb4:	40023c00 	.word	0x40023c00
 8001bb8:	40023800 	.word	0x40023800
 8001bbc:	080040fa 	.word	0x080040fa
 8001bc0:	20000020 	.word	0x20000020
 8001bc4:	20000028 	.word	0x20000028

08001bc8 <HAL_RCC_GetPCLK1Freq>:
 8001bc8:	4b04      	ldr	r3, [pc, #16]	; (8001bdc <HAL_RCC_GetPCLK1Freq+0x14>)
 8001bca:	4a05      	ldr	r2, [pc, #20]	; (8001be0 <HAL_RCC_GetPCLK1Freq+0x18>)
 8001bcc:	689b      	ldr	r3, [r3, #8]
 8001bce:	f3c3 2382 	ubfx	r3, r3, #10, #3
 8001bd2:	5cd3      	ldrb	r3, [r2, r3]
 8001bd4:	4a03      	ldr	r2, [pc, #12]	; (8001be4 <HAL_RCC_GetPCLK1Freq+0x1c>)
 8001bd6:	6810      	ldr	r0, [r2, #0]
 8001bd8:	40d8      	lsrs	r0, r3
 8001bda:	4770      	bx	lr
 8001bdc:	40023800 	.word	0x40023800
 8001be0:	0800410a 	.word	0x0800410a
 8001be4:	20000020 	.word	0x20000020

08001be8 <HAL_RCC_GetPCLK2Freq>:
 8001be8:	4b04      	ldr	r3, [pc, #16]	; (8001bfc <HAL_RCC_GetPCLK2Freq+0x14>)
 8001bea:	4a05      	ldr	r2, [pc, #20]	; (8001c00 <HAL_RCC_GetPCLK2Freq+0x18>)
 8001bec:	689b      	ldr	r3, [r3, #8]
 8001bee:	f3c3 3342 	ubfx	r3, r3, #13, #3
 8001bf2:	5cd3      	ldrb	r3, [r2, r3]
 8001bf4:	4a03      	ldr	r2, [pc, #12]	; (8001c04 <HAL_RCC_GetPCLK2Freq+0x1c>)
 8001bf6:	6810      	ldr	r0, [r2, #0]
 8001bf8:	40d8      	lsrs	r0, r3
 8001bfa:	4770      	bx	lr
 8001bfc:	40023800 	.word	0x40023800
 8001c00:	0800410a 	.word	0x0800410a
 8001c04:	20000020 	.word	0x20000020

08001c08 <TIM_OC1_SetConfig>:
 8001c08:	6a03      	ldr	r3, [r0, #32]
 8001c0a:	f023 0301 	bic.w	r3, r3, #1
 8001c0e:	6203      	str	r3, [r0, #32]
 8001c10:	6a03      	ldr	r3, [r0, #32]
 8001c12:	b570      	push	{r4, r5, r6, lr}
 8001c14:	6844      	ldr	r4, [r0, #4]
 8001c16:	6982      	ldr	r2, [r0, #24]
 8001c18:	680d      	ldr	r5, [r1, #0]
 8001c1a:	f022 0273 	bic.w	r2, r2, #115	; 0x73
 8001c1e:	432a      	orrs	r2, r5
 8001c20:	688d      	ldr	r5, [r1, #8]
 8001c22:	f023 0302 	bic.w	r3, r3, #2
 8001c26:	432b      	orrs	r3, r5
 8001c28:	4d0e      	ldr	r5, [pc, #56]	; (8001c64 <TIM_OC1_SetConfig+0x5c>)
 8001c2a:	42a8      	cmp	r0, r5
 8001c2c:	d002      	beq.n	8001c34 <TIM_OC1_SetConfig+0x2c>
 8001c2e:	4e0e      	ldr	r6, [pc, #56]	; (8001c68 <TIM_OC1_SetConfig+0x60>)
 8001c30:	42b0      	cmp	r0, r6
 8001c32:	d110      	bne.n	8001c56 <TIM_OC1_SetConfig+0x4e>
 8001c34:	68ce      	ldr	r6, [r1, #12]
 8001c36:	f023 0308 	bic.w	r3, r3, #8
 8001c3a:	4333      	orrs	r3, r6
 8001c3c:	42a8      	cmp	r0, r5
 8001c3e:	f023 0304 	bic.w	r3, r3, #4
 8001c42:	d002      	beq.n	8001c4a <TIM_OC1_SetConfig+0x42>
 8001c44:	4d08      	ldr	r5, [pc, #32]	; (8001c68 <TIM_OC1_SetConfig+0x60>)
 8001c46:	42a8      	cmp	r0, r5
 8001c48:	d105      	bne.n	8001c56 <TIM_OC1_SetConfig+0x4e>
 8001c4a:	e9d1 5605 	ldrd	r5, r6, [r1, #20]
 8001c4e:	f424 7440 	bic.w	r4, r4, #768	; 0x300
 8001c52:	4335      	orrs	r5, r6
 8001c54:	432c      	orrs	r4, r5
 8001c56:	6044      	str	r4, [r0, #4]
 8001c58:	6182      	str	r2, [r0, #24]
 8001c5a:	684a      	ldr	r2, [r1, #4]
 8001c5c:	6342      	str	r2, [r0, #52]	; 0x34
 8001c5e:	6203      	str	r3, [r0, #32]
 8001c60:	bd70      	pop	{r4, r5, r6, pc}
 8001c62:	bf00      	nop
 8001c64:	40010000 	.word	0x40010000
 8001c68:	40010400 	.word	0x40010400

08001c6c <TIM_OC3_SetConfig>:
 8001c6c:	6a03      	ldr	r3, [r0, #32]
 8001c6e:	f423 7380 	bic.w	r3, r3, #256	; 0x100
 8001c72:	6203      	str	r3, [r0, #32]
 8001c74:	6a03      	ldr	r3, [r0, #32]
 8001c76:	b570      	push	{r4, r5, r6, lr}
 8001c78:	6844      	ldr	r4, [r0, #4]
 8001c7a:	69c2      	ldr	r2, [r0, #28]
 8001c7c:	680d      	ldr	r5, [r1, #0]
 8001c7e:	f022 0273 	bic.w	r2, r2, #115	; 0x73
 8001c82:	432a      	orrs	r2, r5
 8001c84:	688d      	ldr	r5, [r1, #8]
 8001c86:	f423 7300 	bic.w	r3, r3, #512	; 0x200
 8001c8a:	ea43 2305 	orr.w	r3, r3, r5, lsl #8
 8001c8e:	4d11      	ldr	r5, [pc, #68]	; (8001cd4 <TIM_OC3_SetConfig+0x68>)
 8001c90:	42a8      	cmp	r0, r5
 8001c92:	d003      	beq.n	8001c9c <TIM_OC3_SetConfig+0x30>
 8001c94:	f505 6580 	add.w	r5, r5, #1024	; 0x400
 8001c98:	42a8      	cmp	r0, r5
 8001c9a:	d114      	bne.n	8001cc6 <TIM_OC3_SetConfig+0x5a>
 8001c9c:	68cd      	ldr	r5, [r1, #12]
 8001c9e:	f423 6300 	bic.w	r3, r3, #2048	; 0x800
 8001ca2:	ea43 2305 	orr.w	r3, r3, r5, lsl #8
 8001ca6:	4d0b      	ldr	r5, [pc, #44]	; (8001cd4 <TIM_OC3_SetConfig+0x68>)
 8001ca8:	42a8      	cmp	r0, r5
 8001caa:	f423 6380 	bic.w	r3, r3, #1024	; 0x400
 8001cae:	d003      	beq.n	8001cb8 <TIM_OC3_SetConfig+0x4c>
 8001cb0:	f505 6580 	add.w	r5, r5, #1024	; 0x400
 8001cb4:	42a8      	cmp	r0, r5
 8001cb6:	d106      	bne.n	8001cc6 <TIM_OC3_SetConfig+0x5a>
 8001cb8:	e9d1 5605 	ldrd	r5, r6, [r1, #20]
 8001cbc:	f424 5440 	bic.w	r4, r4, #12288	; 0x3000
 8001cc0:	4335      	orrs	r5, r6
 8001cc2:	ea44 1405 	orr.w	r4, r4, r5, lsl #4
 8001cc6:	6044      	str	r4, [r0, #4]
 8001cc8:	61c2      	str	r2, [r0, #28]
 8001cca:	684a      	ldr	r2, [r1, #4]
 8001ccc:	63c2      	str	r2, [r0, #60]	; 0x3c
 8001cce:	6203      	str	r3, [r0, #32]
 8001cd0:	bd70      	pop	{r4, r5, r6, pc}
 8001cd2:	bf00      	nop
 8001cd4:	40010000 	.word	0x40010000

08001cd8 <TIM_OC4_SetConfig>:
 8001cd8:	6a03      	ldr	r3, [r0, #32]
 8001cda:	f423 5380 	bic.w	r3, r3, #4096	; 0x1000
 8001cde:	6203      	str	r3, [r0, #32]
 8001ce0:	6a03      	ldr	r3, [r0, #32]
 8001ce2:	b530      	push	{r4, r5, lr}
 8001ce4:	6844      	ldr	r4, [r0, #4]
 8001ce6:	69c2      	ldr	r2, [r0, #28]
 8001ce8:	680d      	ldr	r5, [r1, #0]
 8001cea:	f422 42e6 	bic.w	r2, r2, #29440	; 0x7300
 8001cee:	ea42 2205 	orr.w	r2, r2, r5, lsl #8
 8001cf2:	688d      	ldr	r5, [r1, #8]
 8001cf4:	f423 5300 	bic.w	r3, r3, #8192	; 0x2000
 8001cf8:	ea43 3305 	orr.w	r3, r3, r5, lsl #12
 8001cfc:	4d08      	ldr	r5, [pc, #32]	; (8001d20 <TIM_OC4_SetConfig+0x48>)
 8001cfe:	42a8      	cmp	r0, r5
 8001d00:	d003      	beq.n	8001d0a <TIM_OC4_SetConfig+0x32>
 8001d02:	f505 6580 	add.w	r5, r5, #1024	; 0x400
 8001d06:	42a8      	cmp	r0, r5
 8001d08:	d104      	bne.n	8001d14 <TIM_OC4_SetConfig+0x3c>
 8001d0a:	694d      	ldr	r5, [r1, #20]
 8001d0c:	f424 4480 	bic.w	r4, r4, #16384	; 0x4000
 8001d10:	ea44 1485 	orr.w	r4, r4, r5, lsl #6
 8001d14:	6044      	str	r4, [r0, #4]
 8001d16:	61c2      	str	r2, [r0, #28]
 8001d18:	684a      	ldr	r2, [r1, #4]
 8001d1a:	6402      	str	r2, [r0, #64]	; 0x40
 8001d1c:	6203      	str	r3, [r0, #32]
 8001d1e:	bd30      	pop	{r4, r5, pc}
 8001d20:	40010000 	.word	0x40010000

08001d24 <HAL_TIM_Base_Start>:
 8001d24:	f890 303d 	ldrb.w	r3, [r0, #61]	; 0x3d
 8001d28:	2b01      	cmp	r3, #1
 8001d2a:	d12c      	bne.n	8001d86 <HAL_TIM_Base_Start+0x62>
 8001d2c:	2302      	movs	r3, #2
 8001d2e:	4a17      	ldr	r2, [pc, #92]	; (8001d8c <HAL_TIM_Base_Start+0x68>)
 8001d30:	f880 303d 	strb.w	r3, [r0, #61]	; 0x3d
 8001d34:	6803      	ldr	r3, [r0, #0]
 8001d36:	4293      	cmp	r3, r2
 8001d38:	d01a      	beq.n	8001d70 <HAL_TIM_Base_Start+0x4c>
 8001d3a:	f1b3 4f80 	cmp.w	r3, #1073741824	; 0x40000000
 8001d3e:	d017      	beq.n	8001d70 <HAL_TIM_Base_Start+0x4c>
 8001d40:	f5a2 427c 	sub.w	r2, r2, #64512	; 0xfc00
 8001d44:	4293      	cmp	r3, r2
 8001d46:	d013      	beq.n	8001d70 <HAL_TIM_Base_Start+0x4c>
 8001d48:	f502 6280 	add.w	r2, r2, #1024	; 0x400
 8001d4c:	4293      	cmp	r3, r2
 8001d4e:	d00f      	beq.n	8001d70 <HAL_TIM_Base_Start+0x4c>
 8001d50:	f502 6280 	add.w	r2, r2, #1024	; 0x400
 8001d54:	4293      	cmp	r3, r2
 8001d56:	d00b      	beq.n	8001d70 <HAL_TIM_Base_Start+0x4c>
 8001d58:	f502 4278 	add.w	r2, r2, #63488	; 0xf800
 8001d5c:	4293      	cmp	r3, r2
 8001d5e:	d007      	beq.n	8001d70 <HAL_TIM_Base_Start+0x4c>
 8001d60:	f502 5270 	add.w	r2, r2, #15360	; 0x3c00
 8001d64:	4293      	cmp	r3, r2
 8001d66:	d003      	beq.n	8001d70 <HAL_TIM_Base_Start+0x4c>
 8001d68:	f5a2 3294 	sub.w	r2, r2, #75776	; 0x12800
 8001d6c:	4293      	cmp	r3, r2
 8001d6e:	d104      	bne.n	8001d7a <HAL_TIM_Base_Start+0x56>
 8001d70:	689a      	ldr	r2, [r3, #8]
 8001d72:	f002 0207 	and.w	r2, r2, #7
 8001d76:	2a06      	cmp	r2, #6
 8001d78:	d003      	beq.n	8001d82 <HAL_TIM_Base_Start+0x5e>
 8001d7a:	681a      	ldr	r2, [r3, #0]
 8001d7c:	f042 0201 	orr.w	r2, r2, #1
 8001d80:	601a      	str	r2, [r3, #0]
 8001d82:	2000      	movs	r0, #0
 8001d84:	4770      	bx	lr
 8001d86:	2001      	movs	r0, #1
 8001d88:	4770      	bx	lr
 8001d8a:	bf00      	nop
 8001d8c:	40010000 	.word	0x40010000

08001d90 <HAL_TIM_PeriodElapsedCallback>:
 8001d90:	4770      	bx	lr

08001d92 <HAL_TIM_OC_DelayElapsedCallback>:
 8001d92:	4770      	bx	lr

08001d94 <HAL_TIM_IC_CaptureCallback>:
 8001d94:	4770      	bx	lr

08001d96 <HAL_TIM_PWM_PulseFinishedCallback>:
 8001d96:	4770      	bx	lr

08001d98 <HAL_TIM_TriggerCallback>:
 8001d98:	4770      	bx	lr

08001d9a <HAL_TIM_IRQHandler>:
 8001d9a:	6803      	ldr	r3, [r0, #0]
 8001d9c:	691a      	ldr	r2, [r3, #16]
 8001d9e:	0791      	lsls	r1, r2, #30
 8001da0:	b510      	push	{r4, lr}
 8001da2:	4604      	mov	r4, r0
 8001da4:	d50e      	bpl.n	8001dc4 <HAL_TIM_IRQHandler+0x2a>
 8001da6:	68da      	ldr	r2, [r3, #12]
 8001da8:	0792      	lsls	r2, r2, #30
 8001daa:	d50b      	bpl.n	8001dc4 <HAL_TIM_IRQHandler+0x2a>
 8001dac:	f06f 0202 	mvn.w	r2, #2
 8001db0:	611a      	str	r2, [r3, #16]
 8001db2:	2201      	movs	r2, #1
 8001db4:	7702      	strb	r2, [r0, #28]
 8001db6:	699b      	ldr	r3, [r3, #24]
 8001db8:	079b      	lsls	r3, r3, #30
 8001dba:	d077      	beq.n	8001eac <HAL_TIM_IRQHandler+0x112>
 8001dbc:	f7ff ffea 	bl	8001d94 <HAL_TIM_IC_CaptureCallback>
 8001dc0:	2300      	movs	r3, #0
 8001dc2:	7723      	strb	r3, [r4, #28]
 8001dc4:	6823      	ldr	r3, [r4, #0]
 8001dc6:	691a      	ldr	r2, [r3, #16]
 8001dc8:	0750      	lsls	r0, r2, #29
 8001dca:	d510      	bpl.n	8001dee <HAL_TIM_IRQHandler+0x54>
 8001dcc:	68da      	ldr	r2, [r3, #12]
 8001dce:	0751      	lsls	r1, r2, #29
 8001dd0:	d50d      	bpl.n	8001dee <HAL_TIM_IRQHandler+0x54>
 8001dd2:	f06f 0204 	mvn.w	r2, #4
 8001dd6:	611a      	str	r2, [r3, #16]
 8001dd8:	2202      	movs	r2, #2
 8001dda:	7722      	strb	r2, [r4, #28]
 8001ddc:	699b      	ldr	r3, [r3, #24]
 8001dde:	f413 7f40 	tst.w	r3, #768	; 0x300
 8001de2:	4620      	mov	r0, r4
 8001de4:	d068      	beq.n	8001eb8 <HAL_TIM_IRQHandler+0x11e>
 8001de6:	f7ff ffd5 	bl	8001d94 <HAL_TIM_IC_CaptureCallback>
 8001dea:	2300      	movs	r3, #0
 8001dec:	7723      	strb	r3, [r4, #28]
 8001dee:	6823      	ldr	r3, [r4, #0]
 8001df0:	691a      	ldr	r2, [r3, #16]
 8001df2:	0712      	lsls	r2, r2, #28
 8001df4:	d50f      	bpl.n	8001e16 <HAL_TIM_IRQHandler+0x7c>
 8001df6:	68da      	ldr	r2, [r3, #12]
 8001df8:	0710      	lsls	r0, r2, #28
 8001dfa:	d50c      	bpl.n	8001e16 <HAL_TIM_IRQHandler+0x7c>
 8001dfc:	f06f 0208 	mvn.w	r2, #8
 8001e00:	611a      	str	r2, [r3, #16]
 8001e02:	2204      	movs	r2, #4
 8001e04:	7722      	strb	r2, [r4, #28]
 8001e06:	69db      	ldr	r3, [r3, #28]
 8001e08:	0799      	lsls	r1, r3, #30
 8001e0a:	4620      	mov	r0, r4
 8001e0c:	d05a      	beq.n	8001ec4 <HAL_TIM_IRQHandler+0x12a>
 8001e0e:	f7ff ffc1 	bl	8001d94 <HAL_TIM_IC_CaptureCallback>
 8001e12:	2300      	movs	r3, #0
 8001e14:	7723      	strb	r3, [r4, #28]
 8001e16:	6823      	ldr	r3, [r4, #0]
 8001e18:	691a      	ldr	r2, [r3, #16]
 8001e1a:	06d2      	lsls	r2, r2, #27
 8001e1c:	d510      	bpl.n	8001e40 <HAL_TIM_IRQHandler+0xa6>
 8001e1e:	68da      	ldr	r2, [r3, #12]
 8001e20:	06d0      	lsls	r0, r2, #27
 8001e22:	d50d      	bpl.n	8001e40 <HAL_TIM_IRQHandler+0xa6>
 8001e24:	f06f 0210 	mvn.w	r2, #16
 8001e28:	611a      	str	r2, [r3, #16]
 8001e2a:	2208      	movs	r2, #8
 8001e2c:	7722      	strb	r2, [r4, #28]
 8001e2e:	69db      	ldr	r3, [r3, #28]
 8001e30:	f413 7f40 	tst.w	r3, #768	; 0x300
 8001e34:	4620      	mov	r0, r4
 8001e36:	d04b      	beq.n	8001ed0 <HAL_TIM_IRQHandler+0x136>
 8001e38:	f7ff ffac 	bl	8001d94 <HAL_TIM_IC_CaptureCallback>
 8001e3c:	2300      	movs	r3, #0
 8001e3e:	7723      	strb	r3, [r4, #28]
 8001e40:	6823      	ldr	r3, [r4, #0]
 8001e42:	691a      	ldr	r2, [r3, #16]
 8001e44:	07d1      	lsls	r1, r2, #31
 8001e46:	d508      	bpl.n	8001e5a <HAL_TIM_IRQHandler+0xc0>
 8001e48:	68da      	ldr	r2, [r3, #12]
 8001e4a:	07d2      	lsls	r2, r2, #31
 8001e4c:	d505      	bpl.n	8001e5a <HAL_TIM_IRQHandler+0xc0>
 8001e4e:	f06f 0201 	mvn.w	r2, #1
 8001e52:	611a      	str	r2, [r3, #16]
 8001e54:	4620      	mov	r0, r4
 8001e56:	f7ff ff9b 	bl	8001d90 <HAL_TIM_PeriodElapsedCallback>
 8001e5a:	6823      	ldr	r3, [r4, #0]
 8001e5c:	691a      	ldr	r2, [r3, #16]
 8001e5e:	0610      	lsls	r0, r2, #24
 8001e60:	d508      	bpl.n	8001e74 <HAL_TIM_IRQHandler+0xda>
 8001e62:	68da      	ldr	r2, [r3, #12]
 8001e64:	0611      	lsls	r1, r2, #24
 8001e66:	d505      	bpl.n	8001e74 <HAL_TIM_IRQHandler+0xda>
 8001e68:	f06f 0280 	mvn.w	r2, #128	; 0x80
 8001e6c:	611a      	str	r2, [r3, #16]
 8001e6e:	4620      	mov	r0, r4
 8001e70:	f000 fb55 	bl	800251e <HAL_TIMEx_BreakCallback>
 8001e74:	6823      	ldr	r3, [r4, #0]
 8001e76:	691a      	ldr	r2, [r3, #16]
 8001e78:	0652      	lsls	r2, r2, #25
 8001e7a:	d508      	bpl.n	8001e8e <HAL_TIM_IRQHandler+0xf4>
 8001e7c:	68da      	ldr	r2, [r3, #12]
 8001e7e:	0650      	lsls	r0, r2, #25
 8001e80:	d505      	bpl.n	8001e8e <HAL_TIM_IRQHandler+0xf4>
 8001e82:	f06f 0240 	mvn.w	r2, #64	; 0x40
 8001e86:	611a      	str	r2, [r3, #16]
 8001e88:	4620      	mov	r0, r4
 8001e8a:	f7ff ff85 	bl	8001d98 <HAL_TIM_TriggerCallback>
 8001e8e:	6823      	ldr	r3, [r4, #0]
 8001e90:	691a      	ldr	r2, [r3, #16]
 8001e92:	0691      	lsls	r1, r2, #26
 8001e94:	d522      	bpl.n	8001edc <HAL_TIM_IRQHandler+0x142>
 8001e96:	68da      	ldr	r2, [r3, #12]
 8001e98:	0692      	lsls	r2, r2, #26
 8001e9a:	d51f      	bpl.n	8001edc <HAL_TIM_IRQHandler+0x142>
 8001e9c:	f06f 0220 	mvn.w	r2, #32
 8001ea0:	4620      	mov	r0, r4
 8001ea2:	611a      	str	r2, [r3, #16]
 8001ea4:	e8bd 4010 	ldmia.w	sp!, {r4, lr}
 8001ea8:	f000 bb38 	b.w	800251c <HAL_TIMEx_CommutCallback>
 8001eac:	f7ff ff71 	bl	8001d92 <HAL_TIM_OC_DelayElapsedCallback>
 8001eb0:	4620      	mov	r0, r4
 8001eb2:	f7ff ff70 	bl	8001d96 <HAL_TIM_PWM_PulseFinishedCallback>
 8001eb6:	e783      	b.n	8001dc0 <HAL_TIM_IRQHandler+0x26>
 8001eb8:	f7ff ff6b 	bl	8001d92 <HAL_TIM_OC_DelayElapsedCallback>
 8001ebc:	4620      	mov	r0, r4
 8001ebe:	f7ff ff6a 	bl	8001d96 <HAL_TIM_PWM_PulseFinishedCallback>
 8001ec2:	e792      	b.n	8001dea <HAL_TIM_IRQHandler+0x50>
 8001ec4:	f7ff ff65 	bl	8001d92 <HAL_TIM_OC_DelayElapsedCallback>
 8001ec8:	4620      	mov	r0, r4
 8001eca:	f7ff ff64 	bl	8001d96 <HAL_TIM_PWM_PulseFinishedCallback>
 8001ece:	e7a0      	b.n	8001e12 <HAL_TIM_IRQHandler+0x78>
 8001ed0:	f7ff ff5f 	bl	8001d92 <HAL_TIM_OC_DelayElapsedCallback>
 8001ed4:	4620      	mov	r0, r4
 8001ed6:	f7ff ff5e 	bl	8001d96 <HAL_TIM_PWM_PulseFinishedCallback>
 8001eda:	e7af      	b.n	8001e3c <HAL_TIM_IRQHandler+0xa2>
 8001edc:	bd10      	pop	{r4, pc}
	...

08001ee0 <TIM_Base_SetConfig>:
 8001ee0:	4a30      	ldr	r2, [pc, #192]	; (8001fa4 <TIM_Base_SetConfig+0xc4>)
 8001ee2:	6803      	ldr	r3, [r0, #0]
 8001ee4:	4290      	cmp	r0, r2
 8001ee6:	d012      	beq.n	8001f0e <TIM_Base_SetConfig+0x2e>
 8001ee8:	f1b0 4f80 	cmp.w	r0, #1073741824	; 0x40000000
 8001eec:	d00f      	beq.n	8001f0e <TIM_Base_SetConfig+0x2e>
 8001eee:	f5a2 427c 	sub.w	r2, r2, #64512	; 0xfc00
 8001ef2:	4290      	cmp	r0, r2
 8001ef4:	d00b      	beq.n	8001f0e <TIM_Base_SetConfig+0x2e>
 8001ef6:	f502 6280 	add.w	r2, r2, #1024	; 0x400
 8001efa:	4290      	cmp	r0, r2
 8001efc:	d007      	beq.n	8001f0e <TIM_Base_SetConfig+0x2e>
 8001efe:	f502 6280 	add.w	r2, r2, #1024	; 0x400
 8001f02:	4290      	cmp	r0, r2
 8001f04:	d003      	beq.n	8001f0e <TIM_Base_SetConfig+0x2e>
 8001f06:	f502 4278 	add.w	r2, r2, #63488	; 0xf800
 8001f0a:	4290      	cmp	r0, r2
 8001f0c:	d119      	bne.n	8001f42 <TIM_Base_SetConfig+0x62>
 8001f0e:	684a      	ldr	r2, [r1, #4]
 8001f10:	f023 0370 	bic.w	r3, r3, #112	; 0x70
 8001f14:	4313      	orrs	r3, r2
 8001f16:	4a23      	ldr	r2, [pc, #140]	; (8001fa4 <TIM_Base_SetConfig+0xc4>)
 8001f18:	4290      	cmp	r0, r2
 8001f1a:	d029      	beq.n	8001f70 <TIM_Base_SetConfig+0x90>
 8001f1c:	f1b0 4f80 	cmp.w	r0, #1073741824	; 0x40000000
 8001f20:	d026      	beq.n	8001f70 <TIM_Base_SetConfig+0x90>
 8001f22:	f5a2 427c 	sub.w	r2, r2, #64512	; 0xfc00
 8001f26:	4290      	cmp	r0, r2
 8001f28:	d022      	beq.n	8001f70 <TIM_Base_SetConfig+0x90>
 8001f2a:	f502 6280 	add.w	r2, r2, #1024	; 0x400
 8001f2e:	4290      	cmp	r0, r2
 8001f30:	d01e      	beq.n	8001f70 <TIM_Base_SetConfig+0x90>
 8001f32:	f502 6280 	add.w	r2, r2, #1024	; 0x400
 8001f36:	4290      	cmp	r0, r2
 8001f38:	d01a      	beq.n	8001f70 <TIM_Base_SetConfig+0x90>
 8001f3a:	f502 4278 	add.w	r2, r2, #63488	; 0xf800
 8001f3e:	4290      	cmp	r0, r2
 8001f40:	d016      	beq.n	8001f70 <TIM_Base_SetConfig+0x90>
 8001f42:	4a19      	ldr	r2, [pc, #100]	; (8001fa8 <TIM_Base_SetConfig+0xc8>)
 8001f44:	4290      	cmp	r0, r2
 8001f46:	d013      	beq.n	8001f70 <TIM_Base_SetConfig+0x90>
 8001f48:	f502 6280 	add.w	r2, r2, #1024	; 0x400
 8001f4c:	4290      	cmp	r0, r2
 8001f4e:	d00f      	beq.n	8001f70 <TIM_Base_SetConfig+0x90>
 8001f50:	f502 6280 	add.w	r2, r2, #1024	; 0x400
 8001f54:	4290      	cmp	r0, r2
 8001f56:	d00b      	beq.n	8001f70 <TIM_Base_SetConfig+0x90>
 8001f58:	f5a2 3298 	sub.w	r2, r2, #77824	; 0x13000
 8001f5c:	4290      	cmp	r0, r2
 8001f5e:	d007      	beq.n	8001f70 <TIM_Base_SetConfig+0x90>
 8001f60:	f502 6280 	add.w	r2, r2, #1024	; 0x400
 8001f64:	4290      	cmp	r0, r2
 8001f66:	d003      	beq.n	8001f70 <TIM_Base_SetConfig+0x90>
 8001f68:	f502 6280 	add.w	r2, r2, #1024	; 0x400
 8001f6c:	4290      	cmp	r0, r2
 8001f6e:	d103      	bne.n	8001f78 <TIM_Base_SetConfig+0x98>
 8001f70:	68ca      	ldr	r2, [r1, #12]
 8001f72:	f423 7340 	bic.w	r3, r3, #768	; 0x300
 8001f76:	4313      	orrs	r3, r2
 8001f78:	694a      	ldr	r2, [r1, #20]
 8001f7a:	f023 0380 	bic.w	r3, r3, #128	; 0x80
 8001f7e:	4313      	orrs	r3, r2
 8001f80:	6003      	str	r3, [r0, #0]
 8001f82:	688b      	ldr	r3, [r1, #8]
 8001f84:	62c3      	str	r3, [r0, #44]	; 0x2c
 8001f86:	680b      	ldr	r3, [r1, #0]
 8001f88:	6283      	str	r3, [r0, #40]	; 0x28
 8001f8a:	4b06      	ldr	r3, [pc, #24]	; (8001fa4 <TIM_Base_SetConfig+0xc4>)
 8001f8c:	4298      	cmp	r0, r3
 8001f8e:	d003      	beq.n	8001f98 <TIM_Base_SetConfig+0xb8>
 8001f90:	f503 6380 	add.w	r3, r3, #1024	; 0x400
 8001f94:	4298      	cmp	r0, r3
 8001f96:	d101      	bne.n	8001f9c <TIM_Base_SetConfig+0xbc>
 8001f98:	690b      	ldr	r3, [r1, #16]
 8001f9a:	6303      	str	r3, [r0, #48]	; 0x30
 8001f9c:	2301      	movs	r3, #1
 8001f9e:	6143      	str	r3, [r0, #20]
 8001fa0:	4770      	bx	lr
 8001fa2:	bf00      	nop
 8001fa4:	40010000 	.word	0x40010000
 8001fa8:	40014000 	.word	0x40014000

08001fac <HAL_TIM_Base_Init>:
 8001fac:	b510      	push	{r4, lr}
 8001fae:	4604      	mov	r4, r0
 8001fb0:	b330      	cbz	r0, 8002000 <HAL_TIM_Base_Init+0x54>
 8001fb2:	f890 303d 	ldrb.w	r3, [r0, #61]	; 0x3d
 8001fb6:	f003 02ff 	and.w	r2, r3, #255	; 0xff
 8001fba:	b91b      	cbnz	r3, 8001fc4 <HAL_TIM_Base_Init+0x18>
 8001fbc:	f880 203c 	strb.w	r2, [r0, #60]	; 0x3c
 8001fc0:	f7fe fe16 	bl	8000bf0 <HAL_TIM_Base_MspInit>
 8001fc4:	2302      	movs	r3, #2
 8001fc6:	6820      	ldr	r0, [r4, #0]
 8001fc8:	f884 303d 	strb.w	r3, [r4, #61]	; 0x3d
 8001fcc:	1d21      	adds	r1, r4, #4
 8001fce:	f7ff ff87 	bl	8001ee0 <TIM_Base_SetConfig>
 8001fd2:	2301      	movs	r3, #1
 8001fd4:	f884 3046 	strb.w	r3, [r4, #70]	; 0x46
 8001fd8:	2000      	movs	r0, #0
 8001fda:	f884 303e 	strb.w	r3, [r4, #62]	; 0x3e
 8001fde:	f884 303f 	strb.w	r3, [r4, #63]	; 0x3f
 8001fe2:	f884 3040 	strb.w	r3, [r4, #64]	; 0x40
 8001fe6:	f884 3041 	strb.w	r3, [r4, #65]	; 0x41
 8001fea:	f884 3042 	strb.w	r3, [r4, #66]	; 0x42
 8001fee:	f884 3043 	strb.w	r3, [r4, #67]	; 0x43
 8001ff2:	f884 3044 	strb.w	r3, [r4, #68]	; 0x44
 8001ff6:	f884 3045 	strb.w	r3, [r4, #69]	; 0x45
 8001ffa:	f884 303d 	strb.w	r3, [r4, #61]	; 0x3d
 8001ffe:	bd10      	pop	{r4, pc}
 8002000:	2001      	movs	r0, #1
 8002002:	e7fc      	b.n	8001ffe <HAL_TIM_Base_Init+0x52>

08002004 <HAL_TIM_PWM_Init>:
 8002004:	b510      	push	{r4, lr}
 8002006:	4604      	mov	r4, r0
 8002008:	b330      	cbz	r0, 8002058 <HAL_TIM_PWM_Init+0x54>
 800200a:	f890 303d 	ldrb.w	r3, [r0, #61]	; 0x3d
 800200e:	f003 02ff 	and.w	r2, r3, #255	; 0xff
 8002012:	b91b      	cbnz	r3, 800201c <HAL_TIM_PWM_Init+0x18>
 8002014:	f880 203c 	strb.w	r2, [r0, #60]	; 0x3c
 8002018:	f7fe fe22 	bl	8000c60 <HAL_TIM_PWM_MspInit>
 800201c:	2302      	movs	r3, #2
 800201e:	6820      	ldr	r0, [r4, #0]
 8002020:	f884 303d 	strb.w	r3, [r4, #61]	; 0x3d
 8002024:	1d21      	adds	r1, r4, #4
 8002026:	f7ff ff5b 	bl	8001ee0 <TIM_Base_SetConfig>
 800202a:	2301      	movs	r3, #1
 800202c:	f884 3046 	strb.w	r3, [r4, #70]	; 0x46
 8002030:	2000      	movs	r0, #0
 8002032:	f884 303e 	strb.w	r3, [r4, #62]	; 0x3e
 8002036:	f884 303f 	strb.w	r3, [r4, #63]	; 0x3f
 800203a:	f884 3040 	strb.w	r3, [r4, #64]	; 0x40
 800203e:	f884 3041 	strb.w	r3, [r4, #65]	; 0x41
 8002042:	f884 3042 	strb.w	r3, [r4, #66]	; 0x42
 8002046:	f884 3043 	strb.w	r3, [r4, #67]	; 0x43
 800204a:	f884 3044 	strb.w	r3, [r4, #68]	; 0x44
 800204e:	f884 3045 	strb.w	r3, [r4, #69]	; 0x45
 8002052:	f884 303d 	strb.w	r3, [r4, #61]	; 0x3d
 8002056:	bd10      	pop	{r4, pc}
 8002058:	2001      	movs	r0, #1
 800205a:	e7fc      	b.n	8002056 <HAL_TIM_PWM_Init+0x52>

0800205c <TIM_OC2_SetConfig>:
 800205c:	6a03      	ldr	r3, [r0, #32]
 800205e:	f023 0310 	bic.w	r3, r3, #16
 8002062:	6203      	str	r3, [r0, #32]
 8002064:	6a03      	ldr	r3, [r0, #32]
 8002066:	b570      	push	{r4, r5, r6, lr}
 8002068:	6844      	ldr	r4, [r0, #4]
 800206a:	6982      	ldr	r2, [r0, #24]
 800206c:	680d      	ldr	r5, [r1, #0]
 800206e:	f422 42e6 	bic.w	r2, r2, #29440	; 0x7300
 8002072:	ea42 2205 	orr.w	r2, r2, r5, lsl #8
 8002076:	688d      	ldr	r5, [r1, #8]
 8002078:	f023 0320 	bic.w	r3, r3, #32
 800207c:	ea43 1305 	orr.w	r3, r3, r5, lsl #4
 8002080:	4d10      	ldr	r5, [pc, #64]	; (80020c4 <TIM_OC2_SetConfig+0x68>)
 8002082:	42a8      	cmp	r0, r5
 8002084:	d003      	beq.n	800208e <TIM_OC2_SetConfig+0x32>
 8002086:	f505 6580 	add.w	r5, r5, #1024	; 0x400
 800208a:	42a8      	cmp	r0, r5
 800208c:	d114      	bne.n	80020b8 <TIM_OC2_SetConfig+0x5c>
 800208e:	68cd      	ldr	r5, [r1, #12]
 8002090:	f023 0380 	bic.w	r3, r3, #128	; 0x80
 8002094:	ea43 1305 	orr.w	r3, r3, r5, lsl #4
 8002098:	4d0a      	ldr	r5, [pc, #40]	; (80020c4 <TIM_OC2_SetConfig+0x68>)
 800209a:	42a8      	cmp	r0, r5
 800209c:	f023 0340 	bic.w	r3, r3, #64	; 0x40
 80020a0:	d003      	beq.n	80020aa <TIM_OC2_SetConfig+0x4e>
 80020a2:	f505 6580 	add.w	r5, r5, #1024	; 0x400
 80020a6:	42a8      	cmp	r0, r5
 80020a8:	d106      	bne.n	80020b8 <TIM_OC2_SetConfig+0x5c>
 80020aa:	e9d1 5605 	ldrd	r5, r6, [r1, #20]
 80020ae:	f424 6440 	bic.w	r4, r4, #3072	; 0xc00
 80020b2:	4335      	orrs	r5, r6
 80020b4:	ea44 0485 	orr.w	r4, r4, r5, lsl #2
 80020b8:	6044      	str	r4, [r0, #4]
 80020ba:	6182      	str	r2, [r0, #24]
 80020bc:	684a      	ldr	r2, [r1, #4]
 80020be:	6382      	str	r2, [r0, #56]	; 0x38
 80020c0:	6203      	str	r3, [r0, #32]
 80020c2:	bd70      	pop	{r4, r5, r6, pc}
 80020c4:	40010000 	.word	0x40010000

080020c8 <HAL_TIM_PWM_ConfigChannel>:
 80020c8:	b538      	push	{r3, r4, r5, lr}
 80020ca:	f890 303c 	ldrb.w	r3, [r0, #60]	; 0x3c
 80020ce:	2b01      	cmp	r3, #1
 80020d0:	4604      	mov	r4, r0
 80020d2:	d052      	beq.n	800217a <HAL_TIM_PWM_ConfigChannel+0xb2>
 80020d4:	2301      	movs	r3, #1
 80020d6:	2a08      	cmp	r2, #8
 80020d8:	f880 303c 	strb.w	r3, [r0, #60]	; 0x3c
 80020dc:	d03c      	beq.n	8002158 <HAL_TIM_PWM_ConfigChannel+0x90>
 80020de:	d806      	bhi.n	80020ee <HAL_TIM_PWM_ConfigChannel+0x26>
 80020e0:	b1c2      	cbz	r2, 8002114 <HAL_TIM_PWM_ConfigChannel+0x4c>
 80020e2:	2a04      	cmp	r2, #4
 80020e4:	d027      	beq.n	8002136 <HAL_TIM_PWM_ConfigChannel+0x6e>
 80020e6:	2000      	movs	r0, #0
 80020e8:	f884 003c 	strb.w	r0, [r4, #60]	; 0x3c
 80020ec:	bd38      	pop	{r3, r4, r5, pc}
 80020ee:	2a0c      	cmp	r2, #12
 80020f0:	d1f9      	bne.n	80020e6 <HAL_TIM_PWM_ConfigChannel+0x1e>
 80020f2:	6800      	ldr	r0, [r0, #0]
 80020f4:	f7ff fdf0 	bl	8001cd8 <TIM_OC4_SetConfig>
 80020f8:	6823      	ldr	r3, [r4, #0]
 80020fa:	6909      	ldr	r1, [r1, #16]
 80020fc:	69da      	ldr	r2, [r3, #28]
 80020fe:	f442 6200 	orr.w	r2, r2, #2048	; 0x800
 8002102:	61da      	str	r2, [r3, #28]
 8002104:	69da      	ldr	r2, [r3, #28]
 8002106:	f422 6280 	bic.w	r2, r2, #1024	; 0x400
 800210a:	61da      	str	r2, [r3, #28]
 800210c:	69da      	ldr	r2, [r3, #28]
 800210e:	ea42 2201 	orr.w	r2, r2, r1, lsl #8
 8002112:	e030      	b.n	8002176 <HAL_TIM_PWM_ConfigChannel+0xae>
 8002114:	6800      	ldr	r0, [r0, #0]
 8002116:	f7ff fd77 	bl	8001c08 <TIM_OC1_SetConfig>
 800211a:	6823      	ldr	r3, [r4, #0]
 800211c:	6909      	ldr	r1, [r1, #16]
 800211e:	699a      	ldr	r2, [r3, #24]
 8002120:	f042 0208 	orr.w	r2, r2, #8
 8002124:	619a      	str	r2, [r3, #24]
 8002126:	699a      	ldr	r2, [r3, #24]
 8002128:	f022 0204 	bic.w	r2, r2, #4
 800212c:	619a      	str	r2, [r3, #24]
 800212e:	699a      	ldr	r2, [r3, #24]
 8002130:	430a      	orrs	r2, r1
 8002132:	619a      	str	r2, [r3, #24]
 8002134:	e7d7      	b.n	80020e6 <HAL_TIM_PWM_ConfigChannel+0x1e>
 8002136:	6800      	ldr	r0, [r0, #0]
 8002138:	f7ff ff90 	bl	800205c <TIM_OC2_SetConfig>
 800213c:	6823      	ldr	r3, [r4, #0]
 800213e:	6909      	ldr	r1, [r1, #16]
 8002140:	699a      	ldr	r2, [r3, #24]
 8002142:	f442 6200 	orr.w	r2, r2, #2048	; 0x800
 8002146:	619a      	str	r2, [r3, #24]
 8002148:	699a      	ldr	r2, [r3, #24]
 800214a:	f422 6280 	bic.w	r2, r2, #1024	; 0x400
 800214e:	619a      	str	r2, [r3, #24]
 8002150:	699a      	ldr	r2, [r3, #24]
 8002152:	ea42 2201 	orr.w	r2, r2, r1, lsl #8
 8002156:	e7ec      	b.n	8002132 <HAL_TIM_PWM_ConfigChannel+0x6a>
 8002158:	6800      	ldr	r0, [r0, #0]
 800215a:	f7ff fd87 	bl	8001c6c <TIM_OC3_SetConfig>
 800215e:	6823      	ldr	r3, [r4, #0]
 8002160:	6909      	ldr	r1, [r1, #16]
 8002162:	69da      	ldr	r2, [r3, #28]
 8002164:	f042 0208 	orr.w	r2, r2, #8
 8002168:	61da      	str	r2, [r3, #28]
 800216a:	69da      	ldr	r2, [r3, #28]
 800216c:	f022 0204 	bic.w	r2, r2, #4
 8002170:	61da      	str	r2, [r3, #28]
 8002172:	69da      	ldr	r2, [r3, #28]
 8002174:	430a      	orrs	r2, r1
 8002176:	61da      	str	r2, [r3, #28]
 8002178:	e7b5      	b.n	80020e6 <HAL_TIM_PWM_ConfigChannel+0x1e>
 800217a:	2002      	movs	r0, #2
 800217c:	e7b6      	b.n	80020ec <HAL_TIM_PWM_ConfigChannel+0x24>

0800217e <TIM_ETR_SetConfig>:
 800217e:	b510      	push	{r4, lr}
 8002180:	6884      	ldr	r4, [r0, #8]
 8002182:	4311      	orrs	r1, r2
 8002184:	f424 447f 	bic.w	r4, r4, #65280	; 0xff00
 8002188:	ea41 2303 	orr.w	r3, r1, r3, lsl #8
 800218c:	4323      	orrs	r3, r4
 800218e:	6083      	str	r3, [r0, #8]
 8002190:	bd10      	pop	{r4, pc}

08002192 <HAL_TIM_ConfigClockSource>:
 8002192:	b570      	push	{r4, r5, r6, lr}
 8002194:	f890 303c 	ldrb.w	r3, [r0, #60]	; 0x3c
 8002198:	2b01      	cmp	r3, #1
 800219a:	4604      	mov	r4, r0
 800219c:	f04f 0002 	mov.w	r0, #2
 80021a0:	d027      	beq.n	80021f2 <HAL_TIM_ConfigClockSource+0x60>
 80021a2:	f884 003d 	strb.w	r0, [r4, #61]	; 0x3d
 80021a6:	2301      	movs	r3, #1
 80021a8:	6820      	ldr	r0, [r4, #0]
 80021aa:	f884 303c 	strb.w	r3, [r4, #60]	; 0x3c
 80021ae:	6883      	ldr	r3, [r0, #8]
 80021b0:	f423 437f 	bic.w	r3, r3, #65280	; 0xff00
 80021b4:	f023 0377 	bic.w	r3, r3, #119	; 0x77
 80021b8:	6083      	str	r3, [r0, #8]
 80021ba:	680b      	ldr	r3, [r1, #0]
 80021bc:	2b60      	cmp	r3, #96	; 0x60
 80021be:	d04d      	beq.n	800225c <HAL_TIM_ConfigClockSource+0xca>
 80021c0:	d832      	bhi.n	8002228 <HAL_TIM_ConfigClockSource+0x96>
 80021c2:	2b40      	cmp	r3, #64	; 0x40
 80021c4:	d062      	beq.n	800228c <HAL_TIM_ConfigClockSource+0xfa>
 80021c6:	d815      	bhi.n	80021f4 <HAL_TIM_ConfigClockSource+0x62>
 80021c8:	2b20      	cmp	r3, #32
 80021ca:	d003      	beq.n	80021d4 <HAL_TIM_ConfigClockSource+0x42>
 80021cc:	d809      	bhi.n	80021e2 <HAL_TIM_ConfigClockSource+0x50>
 80021ce:	f033 0210 	bics.w	r2, r3, #16
 80021d2:	d108      	bne.n	80021e6 <HAL_TIM_ConfigClockSource+0x54>
 80021d4:	6882      	ldr	r2, [r0, #8]
 80021d6:	f022 0270 	bic.w	r2, r2, #112	; 0x70
 80021da:	4313      	orrs	r3, r2
 80021dc:	f043 0307 	orr.w	r3, r3, #7
 80021e0:	e020      	b.n	8002224 <HAL_TIM_ConfigClockSource+0x92>
 80021e2:	2b30      	cmp	r3, #48	; 0x30
 80021e4:	d0f6      	beq.n	80021d4 <HAL_TIM_ConfigClockSource+0x42>
 80021e6:	2301      	movs	r3, #1
 80021e8:	2000      	movs	r0, #0
 80021ea:	f884 303d 	strb.w	r3, [r4, #61]	; 0x3d
 80021ee:	f884 003c 	strb.w	r0, [r4, #60]	; 0x3c
 80021f2:	bd70      	pop	{r4, r5, r6, pc}
 80021f4:	2b50      	cmp	r3, #80	; 0x50
 80021f6:	d1f6      	bne.n	80021e6 <HAL_TIM_ConfigClockSource+0x54>
 80021f8:	684a      	ldr	r2, [r1, #4]
 80021fa:	68ce      	ldr	r6, [r1, #12]
 80021fc:	6a01      	ldr	r1, [r0, #32]
 80021fe:	6a05      	ldr	r5, [r0, #32]
 8002200:	f025 0501 	bic.w	r5, r5, #1
 8002204:	6205      	str	r5, [r0, #32]
 8002206:	6983      	ldr	r3, [r0, #24]
 8002208:	f021 010a 	bic.w	r1, r1, #10
 800220c:	f023 03f0 	bic.w	r3, r3, #240	; 0xf0
 8002210:	ea43 1306 	orr.w	r3, r3, r6, lsl #4
 8002214:	430a      	orrs	r2, r1
 8002216:	6183      	str	r3, [r0, #24]
 8002218:	6202      	str	r2, [r0, #32]
 800221a:	6883      	ldr	r3, [r0, #8]
 800221c:	f023 0370 	bic.w	r3, r3, #112	; 0x70
 8002220:	f043 0357 	orr.w	r3, r3, #87	; 0x57
 8002224:	6083      	str	r3, [r0, #8]
 8002226:	e7de      	b.n	80021e6 <HAL_TIM_ConfigClockSource+0x54>
 8002228:	2b70      	cmp	r3, #112	; 0x70
 800222a:	d00c      	beq.n	8002246 <HAL_TIM_ConfigClockSource+0xb4>
 800222c:	f5b3 5f00 	cmp.w	r3, #8192	; 0x2000
 8002230:	d1d9      	bne.n	80021e6 <HAL_TIM_ConfigClockSource+0x54>
 8002232:	68cb      	ldr	r3, [r1, #12]
 8002234:	e9d1 2101 	ldrd	r2, r1, [r1, #4]
 8002238:	f7ff ffa1 	bl	800217e <TIM_ETR_SetConfig>
 800223c:	6822      	ldr	r2, [r4, #0]
 800223e:	6893      	ldr	r3, [r2, #8]
 8002240:	f443 4380 	orr.w	r3, r3, #16384	; 0x4000
 8002244:	e008      	b.n	8002258 <HAL_TIM_ConfigClockSource+0xc6>
 8002246:	68cb      	ldr	r3, [r1, #12]
 8002248:	e9d1 2101 	ldrd	r2, r1, [r1, #4]
 800224c:	f7ff ff97 	bl	800217e <TIM_ETR_SetConfig>
 8002250:	6822      	ldr	r2, [r4, #0]
 8002252:	6893      	ldr	r3, [r2, #8]
 8002254:	f043 0377 	orr.w	r3, r3, #119	; 0x77
 8002258:	6093      	str	r3, [r2, #8]
 800225a:	e7c4      	b.n	80021e6 <HAL_TIM_ConfigClockSource+0x54>
 800225c:	684d      	ldr	r5, [r1, #4]
 800225e:	68ce      	ldr	r6, [r1, #12]
 8002260:	6a01      	ldr	r1, [r0, #32]
 8002262:	f021 0110 	bic.w	r1, r1, #16
 8002266:	6201      	str	r1, [r0, #32]
 8002268:	6982      	ldr	r2, [r0, #24]
 800226a:	6a03      	ldr	r3, [r0, #32]
 800226c:	f422 4270 	bic.w	r2, r2, #61440	; 0xf000
 8002270:	f023 03a0 	bic.w	r3, r3, #160	; 0xa0
 8002274:	ea43 1305 	orr.w	r3, r3, r5, lsl #4
 8002278:	ea42 3206 	orr.w	r2, r2, r6, lsl #12
 800227c:	6182      	str	r2, [r0, #24]
 800227e:	6203      	str	r3, [r0, #32]
 8002280:	6883      	ldr	r3, [r0, #8]
 8002282:	f023 0370 	bic.w	r3, r3, #112	; 0x70
 8002286:	f043 0367 	orr.w	r3, r3, #103	; 0x67
 800228a:	e7cb      	b.n	8002224 <HAL_TIM_ConfigClockSource+0x92>
 800228c:	684a      	ldr	r2, [r1, #4]
 800228e:	68ce      	ldr	r6, [r1, #12]
 8002290:	6a01      	ldr	r1, [r0, #32]
 8002292:	6a05      	ldr	r5, [r0, #32]
 8002294:	f025 0501 	bic.w	r5, r5, #1
 8002298:	6205      	str	r5, [r0, #32]
 800229a:	6983      	ldr	r3, [r0, #24]
 800229c:	f021 010a 	bic.w	r1, r1, #10
 80022a0:	f023 03f0 	bic.w	r3, r3, #240	; 0xf0
 80022a4:	ea43 1306 	orr.w	r3, r3, r6, lsl #4
 80022a8:	430a      	orrs	r2, r1
 80022aa:	6183      	str	r3, [r0, #24]
 80022ac:	6202      	str	r2, [r0, #32]
 80022ae:	6883      	ldr	r3, [r0, #8]
 80022b0:	f023 0370 	bic.w	r3, r3, #112	; 0x70
 80022b4:	f043 0347 	orr.w	r3, r3, #71	; 0x47
 80022b8:	e7b4      	b.n	8002224 <HAL_TIM_ConfigClockSource+0x92>

080022ba <TIM_CCxChannelCmd>:
 80022ba:	6a03      	ldr	r3, [r0, #32]
 80022bc:	f001 011f 	and.w	r1, r1, #31
 80022c0:	b510      	push	{r4, lr}
 80022c2:	2401      	movs	r4, #1
 80022c4:	408c      	lsls	r4, r1
 80022c6:	ea23 0304 	bic.w	r3, r3, r4
 80022ca:	6203      	str	r3, [r0, #32]
 80022cc:	6a03      	ldr	r3, [r0, #32]
 80022ce:	408a      	lsls	r2, r1
 80022d0:	431a      	orrs	r2, r3
 80022d2:	6202      	str	r2, [r0, #32]
 80022d4:	bd10      	pop	{r4, pc}
	...

080022d8 <HAL_TIM_OC_Start>:
 80022d8:	b510      	push	{r4, lr}
 80022da:	4604      	mov	r4, r0
 80022dc:	b929      	cbnz	r1, 80022ea <HAL_TIM_OC_Start+0x12>
 80022de:	f890 303e 	ldrb.w	r3, [r0, #62]	; 0x3e
 80022e2:	2b01      	cmp	r3, #1
 80022e4:	d01d      	beq.n	8002322 <HAL_TIM_OC_Start+0x4a>
 80022e6:	2001      	movs	r0, #1
 80022e8:	e032      	b.n	8002350 <HAL_TIM_OC_Start+0x78>
 80022ea:	2904      	cmp	r1, #4
 80022ec:	d107      	bne.n	80022fe <HAL_TIM_OC_Start+0x26>
 80022ee:	f890 303f 	ldrb.w	r3, [r0, #63]	; 0x3f
 80022f2:	2b01      	cmp	r3, #1
 80022f4:	d1f7      	bne.n	80022e6 <HAL_TIM_OC_Start+0xe>
 80022f6:	2302      	movs	r3, #2
 80022f8:	f880 303f 	strb.w	r3, [r0, #63]	; 0x3f
 80022fc:	e014      	b.n	8002328 <HAL_TIM_OC_Start+0x50>
 80022fe:	2908      	cmp	r1, #8
 8002300:	d107      	bne.n	8002312 <HAL_TIM_OC_Start+0x3a>
 8002302:	f890 3040 	ldrb.w	r3, [r0, #64]	; 0x40
 8002306:	2b01      	cmp	r3, #1
 8002308:	d1ed      	bne.n	80022e6 <HAL_TIM_OC_Start+0xe>
 800230a:	2302      	movs	r3, #2
 800230c:	f880 3040 	strb.w	r3, [r0, #64]	; 0x40
 8002310:	e00a      	b.n	8002328 <HAL_TIM_OC_Start+0x50>
 8002312:	f890 3041 	ldrb.w	r3, [r0, #65]	; 0x41
 8002316:	2b01      	cmp	r3, #1
 8002318:	d1e5      	bne.n	80022e6 <HAL_TIM_OC_Start+0xe>
 800231a:	2302      	movs	r3, #2
 800231c:	f880 3041 	strb.w	r3, [r0, #65]	; 0x41
 8002320:	e002      	b.n	8002328 <HAL_TIM_OC_Start+0x50>
 8002322:	2302      	movs	r3, #2
 8002324:	f880 303e 	strb.w	r3, [r0, #62]	; 0x3e
 8002328:	2201      	movs	r2, #1
 800232a:	6820      	ldr	r0, [r4, #0]
 800232c:	f7ff ffc5 	bl	80022ba <TIM_CCxChannelCmd>
 8002330:	6823      	ldr	r3, [r4, #0]
 8002332:	4a19      	ldr	r2, [pc, #100]	; (8002398 <HAL_TIM_OC_Start+0xc0>)
 8002334:	4293      	cmp	r3, r2
 8002336:	d00c      	beq.n	8002352 <HAL_TIM_OC_Start+0x7a>
 8002338:	4918      	ldr	r1, [pc, #96]	; (800239c <HAL_TIM_OC_Start+0xc4>)
 800233a:	428b      	cmp	r3, r1
 800233c:	d009      	beq.n	8002352 <HAL_TIM_OC_Start+0x7a>
 800233e:	f1b3 4f80 	cmp.w	r3, #1073741824	; 0x40000000
 8002342:	d10d      	bne.n	8002360 <HAL_TIM_OC_Start+0x88>
 8002344:	689a      	ldr	r2, [r3, #8]
 8002346:	f002 0207 	and.w	r2, r2, #7
 800234a:	2a06      	cmp	r2, #6
 800234c:	d11f      	bne.n	800238e <HAL_TIM_OC_Start+0xb6>
 800234e:	2000      	movs	r0, #0
 8002350:	bd10      	pop	{r4, pc}
 8002352:	6c59      	ldr	r1, [r3, #68]	; 0x44
 8002354:	4293      	cmp	r3, r2
 8002356:	f441 4100 	orr.w	r1, r1, #32768	; 0x8000
 800235a:	6459      	str	r1, [r3, #68]	; 0x44
 800235c:	d0f2      	beq.n	8002344 <HAL_TIM_OC_Start+0x6c>
 800235e:	e7ee      	b.n	800233e <HAL_TIM_OC_Start+0x66>
 8002360:	4a0f      	ldr	r2, [pc, #60]	; (80023a0 <HAL_TIM_OC_Start+0xc8>)
 8002362:	4293      	cmp	r3, r2
 8002364:	d0ee      	beq.n	8002344 <HAL_TIM_OC_Start+0x6c>
 8002366:	f502 6280 	add.w	r2, r2, #1024	; 0x400
 800236a:	4293      	cmp	r3, r2
 800236c:	d0ea      	beq.n	8002344 <HAL_TIM_OC_Start+0x6c>
 800236e:	f502 6280 	add.w	r2, r2, #1024	; 0x400
 8002372:	4293      	cmp	r3, r2
 8002374:	d0e6      	beq.n	8002344 <HAL_TIM_OC_Start+0x6c>
 8002376:	f502 4278 	add.w	r2, r2, #63488	; 0xf800
 800237a:	4293      	cmp	r3, r2
 800237c:	d0e2      	beq.n	8002344 <HAL_TIM_OC_Start+0x6c>
 800237e:	f502 5270 	add.w	r2, r2, #15360	; 0x3c00
 8002382:	4293      	cmp	r3, r2
 8002384:	d0de      	beq.n	8002344 <HAL_TIM_OC_Start+0x6c>
 8002386:	f5a2 3294 	sub.w	r2, r2, #75776	; 0x12800
 800238a:	4293      	cmp	r3, r2
 800238c:	d0da      	beq.n	8002344 <HAL_TIM_OC_Start+0x6c>
 800238e:	681a      	ldr	r2, [r3, #0]
 8002390:	f042 0201 	orr.w	r2, r2, #1
 8002394:	601a      	str	r2, [r3, #0]
 8002396:	e7da      	b.n	800234e <HAL_TIM_OC_Start+0x76>
 8002398:	40010000 	.word	0x40010000
 800239c:	40010400 	.word	0x40010400
 80023a0:	40000400 	.word	0x40000400

080023a4 <HAL_TIM_PWM_Start>:
 80023a4:	f7ff bf98 	b.w	80022d8 <HAL_TIM_OC_Start>

080023a8 <HAL_TIM_OC_Start_IT>:
 80023a8:	b510      	push	{r4, lr}
 80023aa:	4604      	mov	r4, r0
 80023ac:	b929      	cbnz	r1, 80023ba <HAL_TIM_OC_Start_IT+0x12>
 80023ae:	f890 303e 	ldrb.w	r3, [r0, #62]	; 0x3e
 80023b2:	2b01      	cmp	r3, #1
 80023b4:	d02b      	beq.n	800240e <HAL_TIM_OC_Start_IT+0x66>
 80023b6:	2001      	movs	r0, #1
 80023b8:	e045      	b.n	8002446 <HAL_TIM_OC_Start_IT+0x9e>
 80023ba:	2904      	cmp	r1, #4
 80023bc:	d10b      	bne.n	80023d6 <HAL_TIM_OC_Start_IT+0x2e>
 80023be:	f890 303f 	ldrb.w	r3, [r0, #63]	; 0x3f
 80023c2:	2b01      	cmp	r3, #1
 80023c4:	d1f7      	bne.n	80023b6 <HAL_TIM_OC_Start_IT+0xe>
 80023c6:	2302      	movs	r3, #2
 80023c8:	6802      	ldr	r2, [r0, #0]
 80023ca:	f880 303f 	strb.w	r3, [r0, #63]	; 0x3f
 80023ce:	68d3      	ldr	r3, [r2, #12]
 80023d0:	f043 0304 	orr.w	r3, r3, #4
 80023d4:	e022      	b.n	800241c <HAL_TIM_OC_Start_IT+0x74>
 80023d6:	2908      	cmp	r1, #8
 80023d8:	d10b      	bne.n	80023f2 <HAL_TIM_OC_Start_IT+0x4a>
 80023da:	f890 3040 	ldrb.w	r3, [r0, #64]	; 0x40
 80023de:	2b01      	cmp	r3, #1
 80023e0:	d1e9      	bne.n	80023b6 <HAL_TIM_OC_Start_IT+0xe>
 80023e2:	2302      	movs	r3, #2
 80023e4:	6802      	ldr	r2, [r0, #0]
 80023e6:	f880 3040 	strb.w	r3, [r0, #64]	; 0x40
 80023ea:	68d3      	ldr	r3, [r2, #12]
 80023ec:	f043 0308 	orr.w	r3, r3, #8
 80023f0:	e014      	b.n	800241c <HAL_TIM_OC_Start_IT+0x74>
 80023f2:	f890 3041 	ldrb.w	r3, [r0, #65]	; 0x41
 80023f6:	2b01      	cmp	r3, #1
 80023f8:	d1dd      	bne.n	80023b6 <HAL_TIM_OC_Start_IT+0xe>
 80023fa:	2302      	movs	r3, #2
 80023fc:	290c      	cmp	r1, #12
 80023fe:	f880 3041 	strb.w	r3, [r0, #65]	; 0x41
 8002402:	d10c      	bne.n	800241e <HAL_TIM_OC_Start_IT+0x76>
 8002404:	6802      	ldr	r2, [r0, #0]
 8002406:	68d3      	ldr	r3, [r2, #12]
 8002408:	f043 0310 	orr.w	r3, r3, #16
 800240c:	e006      	b.n	800241c <HAL_TIM_OC_Start_IT+0x74>
 800240e:	2302      	movs	r3, #2
 8002410:	6802      	ldr	r2, [r0, #0]
 8002412:	f880 303e 	strb.w	r3, [r0, #62]	; 0x3e
 8002416:	68d3      	ldr	r3, [r2, #12]
 8002418:	f043 0302 	orr.w	r3, r3, #2
 800241c:	60d3      	str	r3, [r2, #12]
 800241e:	2201      	movs	r2, #1
 8002420:	6820      	ldr	r0, [r4, #0]
 8002422:	f7ff ff4a 	bl	80022ba <TIM_CCxChannelCmd>
 8002426:	6823      	ldr	r3, [r4, #0]
 8002428:	4a19      	ldr	r2, [pc, #100]	; (8002490 <HAL_TIM_OC_Start_IT+0xe8>)
 800242a:	4293      	cmp	r3, r2
 800242c:	d00c      	beq.n	8002448 <HAL_TIM_OC_Start_IT+0xa0>
 800242e:	4919      	ldr	r1, [pc, #100]	; (8002494 <HAL_TIM_OC_Start_IT+0xec>)
 8002430:	428b      	cmp	r3, r1
 8002432:	d009      	beq.n	8002448 <HAL_TIM_OC_Start_IT+0xa0>
 8002434:	f1b3 4f80 	cmp.w	r3, #1073741824	; 0x40000000
 8002438:	d10d      	bne.n	8002456 <HAL_TIM_OC_Start_IT+0xae>
 800243a:	689a      	ldr	r2, [r3, #8]
 800243c:	f002 0207 	and.w	r2, r2, #7
 8002440:	2a06      	cmp	r2, #6
 8002442:	d11f      	bne.n	8002484 <HAL_TIM_OC_Start_IT+0xdc>
 8002444:	2000      	movs	r0, #0
 8002446:	bd10      	pop	{r4, pc}
 8002448:	6c59      	ldr	r1, [r3, #68]	; 0x44
 800244a:	4293      	cmp	r3, r2
 800244c:	f441 4100 	orr.w	r1, r1, #32768	; 0x8000
 8002450:	6459      	str	r1, [r3, #68]	; 0x44
 8002452:	d0f2      	beq.n	800243a <HAL_TIM_OC_Start_IT+0x92>
 8002454:	e7ee      	b.n	8002434 <HAL_TIM_OC_Start_IT+0x8c>
 8002456:	4a10      	ldr	r2, [pc, #64]	; (8002498 <HAL_TIM_OC_Start_IT+0xf0>)
 8002458:	4293      	cmp	r3, r2
 800245a:	d0ee      	beq.n	800243a <HAL_TIM_OC_Start_IT+0x92>
 800245c:	f502 6280 	add.w	r2, r2, #1024	; 0x400
 8002460:	4293      	cmp	r3, r2
 8002462:	d0ea      	beq.n	800243a <HAL_TIM_OC_Start_IT+0x92>
 8002464:	f502 6280 	add.w	r2, r2, #1024	; 0x400
 8002468:	4293      	cmp	r3, r2
 800246a:	d0e6      	beq.n	800243a <HAL_TIM_OC_Start_IT+0x92>
 800246c:	f502 4278 	add.w	r2, r2, #63488	; 0xf800
 8002470:	4293      	cmp	r3, r2
 8002472:	d0e2      	beq.n	800243a <HAL_TIM_OC_Start_IT+0x92>
 8002474:	f502 5270 	add.w	r2, r2, #15360	; 0x3c00
 8002478:	4293      	cmp	r3, r2
 800247a:	d0de      	beq.n	800243a <HAL_TIM_OC_Start_IT+0x92>
 800247c:	f5a2 3294 	sub.w	r2, r2, #75776	; 0x12800
 8002480:	4293      	cmp	r3, r2
 8002482:	d0da      	beq.n	800243a <HAL_TIM_OC_Start_IT+0x92>
 8002484:	681a      	ldr	r2, [r3, #0]
 8002486:	f042 0201 	orr.w	r2, r2, #1
 800248a:	601a      	str	r2, [r3, #0]
 800248c:	e7da      	b.n	8002444 <HAL_TIM_OC_Start_IT+0x9c>
 800248e:	bf00      	nop
 8002490:	40010000 	.word	0x40010000
 8002494:	40010400 	.word	0x40010400
 8002498:	40000400 	.word	0x40000400

0800249c <HAL_TIM_PWM_Start_IT>:
 800249c:	f7ff bf84 	b.w	80023a8 <HAL_TIM_OC_Start_IT>

080024a0 <HAL_TIMEx_MasterConfigSynchronization>:
 80024a0:	b530      	push	{r4, r5, lr}
 80024a2:	f890 303c 	ldrb.w	r3, [r0, #60]	; 0x3c
 80024a6:	2b01      	cmp	r3, #1
 80024a8:	f04f 0302 	mov.w	r3, #2
 80024ac:	d032      	beq.n	8002514 <HAL_TIMEx_MasterConfigSynchronization+0x74>
 80024ae:	f880 303d 	strb.w	r3, [r0, #61]	; 0x3d
 80024b2:	6803      	ldr	r3, [r0, #0]
 80024b4:	680d      	ldr	r5, [r1, #0]
 80024b6:	685c      	ldr	r4, [r3, #4]
 80024b8:	689a      	ldr	r2, [r3, #8]
 80024ba:	f024 0470 	bic.w	r4, r4, #112	; 0x70
 80024be:	432c      	orrs	r4, r5
 80024c0:	605c      	str	r4, [r3, #4]
 80024c2:	4c15      	ldr	r4, [pc, #84]	; (8002518 <HAL_TIMEx_MasterConfigSynchronization+0x78>)
 80024c4:	42a3      	cmp	r3, r4
 80024c6:	d01a      	beq.n	80024fe <HAL_TIMEx_MasterConfigSynchronization+0x5e>
 80024c8:	f1b3 4f80 	cmp.w	r3, #1073741824	; 0x40000000
 80024cc:	d017      	beq.n	80024fe <HAL_TIMEx_MasterConfigSynchronization+0x5e>
 80024ce:	f5a4 447c 	sub.w	r4, r4, #64512	; 0xfc00
 80024d2:	42a3      	cmp	r3, r4
 80024d4:	d013      	beq.n	80024fe <HAL_TIMEx_MasterConfigSynchronization+0x5e>
 80024d6:	f504 6480 	add.w	r4, r4, #1024	; 0x400
 80024da:	42a3      	cmp	r3, r4
 80024dc:	d00f      	beq.n	80024fe <HAL_TIMEx_MasterConfigSynchronization+0x5e>
 80024de:	f504 6480 	add.w	r4, r4, #1024	; 0x400
 80024e2:	42a3      	cmp	r3, r4
 80024e4:	d00b      	beq.n	80024fe <HAL_TIMEx_MasterConfigSynchronization+0x5e>
 80024e6:	f504 4478 	add.w	r4, r4, #63488	; 0xf800
 80024ea:	42a3      	cmp	r3, r4
 80024ec:	d007      	beq.n	80024fe <HAL_TIMEx_MasterConfigSynchronization+0x5e>
 80024ee:	f504 5470 	add.w	r4, r4, #15360	; 0x3c00
 80024f2:	42a3      	cmp	r3, r4
 80024f4:	d003      	beq.n	80024fe <HAL_TIMEx_MasterConfigSynchronization+0x5e>
 80024f6:	f5a4 3494 	sub.w	r4, r4, #75776	; 0x12800
 80024fa:	42a3      	cmp	r3, r4
 80024fc:	d104      	bne.n	8002508 <HAL_TIMEx_MasterConfigSynchronization+0x68>
 80024fe:	6849      	ldr	r1, [r1, #4]
 8002500:	f022 0280 	bic.w	r2, r2, #128	; 0x80
 8002504:	430a      	orrs	r2, r1
 8002506:	609a      	str	r2, [r3, #8]
 8002508:	2301      	movs	r3, #1
 800250a:	f880 303d 	strb.w	r3, [r0, #61]	; 0x3d
 800250e:	2300      	movs	r3, #0
 8002510:	f880 303c 	strb.w	r3, [r0, #60]	; 0x3c
 8002514:	4618      	mov	r0, r3
 8002516:	bd30      	pop	{r4, r5, pc}
 8002518:	40010000 	.word	0x40010000

0800251c <HAL_TIMEx_CommutCallback>:
 800251c:	4770      	bx	lr

0800251e <HAL_TIMEx_BreakCallback>:
 800251e:	4770      	bx	lr

08002520 <UART_EndRxTransfer>:
 8002520:	6803      	ldr	r3, [r0, #0]
 8002522:	68da      	ldr	r2, [r3, #12]
 8002524:	f422 7290 	bic.w	r2, r2, #288	; 0x120
 8002528:	60da      	str	r2, [r3, #12]
 800252a:	695a      	ldr	r2, [r3, #20]
 800252c:	f022 0201 	bic.w	r2, r2, #1
 8002530:	615a      	str	r2, [r3, #20]
 8002532:	6b02      	ldr	r2, [r0, #48]	; 0x30
 8002534:	2a01      	cmp	r2, #1
 8002536:	bf02      	ittt	eq
 8002538:	68da      	ldreq	r2, [r3, #12]
 800253a:	f022 0210 	biceq.w	r2, r2, #16
 800253e:	60da      	streq	r2, [r3, #12]
 8002540:	2320      	movs	r3, #32
 8002542:	f880 303e 	strb.w	r3, [r0, #62]	; 0x3e
 8002546:	2300      	movs	r3, #0
 8002548:	6303      	str	r3, [r0, #48]	; 0x30
 800254a:	4770      	bx	lr

0800254c <UART_SetConfig>:
 800254c:	6802      	ldr	r2, [r0, #0]
 800254e:	68c1      	ldr	r1, [r0, #12]
 8002550:	b538      	push	{r3, r4, r5, lr}
 8002552:	6913      	ldr	r3, [r2, #16]
 8002554:	f423 5340 	bic.w	r3, r3, #12288	; 0x3000
 8002558:	430b      	orrs	r3, r1
 800255a:	6113      	str	r3, [r2, #16]
 800255c:	4605      	mov	r5, r0
 800255e:	6883      	ldr	r3, [r0, #8]
 8002560:	6900      	ldr	r0, [r0, #16]
 8002562:	68d1      	ldr	r1, [r2, #12]
 8002564:	4303      	orrs	r3, r0
 8002566:	6968      	ldr	r0, [r5, #20]
 8002568:	4303      	orrs	r3, r0
 800256a:	69e8      	ldr	r0, [r5, #28]
 800256c:	f421 4116 	bic.w	r1, r1, #38400	; 0x9600
 8002570:	f021 010c 	bic.w	r1, r1, #12
 8002574:	4303      	orrs	r3, r0
 8002576:	430b      	orrs	r3, r1
 8002578:	60d3      	str	r3, [r2, #12]
 800257a:	6953      	ldr	r3, [r2, #20]
 800257c:	69a9      	ldr	r1, [r5, #24]
 800257e:	f423 7340 	bic.w	r3, r3, #768	; 0x300
 8002582:	430b      	orrs	r3, r1
 8002584:	6153      	str	r3, [r2, #20]
 8002586:	4b1f      	ldr	r3, [pc, #124]	; (8002604 <UART_SetConfig+0xb8>)
 8002588:	429a      	cmp	r2, r3
 800258a:	d003      	beq.n	8002594 <UART_SetConfig+0x48>
 800258c:	f503 6380 	add.w	r3, r3, #1024	; 0x400
 8002590:	429a      	cmp	r2, r3
 8002592:	d124      	bne.n	80025de <UART_SetConfig+0x92>
 8002594:	f7ff fb28 	bl	8001be8 <HAL_RCC_GetPCLK2Freq>
 8002598:	69ea      	ldr	r2, [r5, #28]
 800259a:	2319      	movs	r3, #25
 800259c:	f5b2 4f00 	cmp.w	r2, #32768	; 0x8000
 80025a0:	fba0 0103 	umull	r0, r1, r0, r3
 80025a4:	e9d5 4300 	ldrd	r4, r3, [r5]
 80025a8:	d11c      	bne.n	80025e4 <UART_SetConfig+0x98>
 80025aa:	461a      	mov	r2, r3
 80025ac:	1892      	adds	r2, r2, r2
 80025ae:	f04f 0300 	mov.w	r3, #0
 80025b2:	415b      	adcs	r3, r3
 80025b4:	f7fd fe74 	bl	80002a0 <__aeabi_uldivmod>
 80025b8:	2164      	movs	r1, #100	; 0x64
 80025ba:	fbb0 f5f1 	udiv	r5, r0, r1
 80025be:	fb01 0315 	mls	r3, r1, r5, r0
 80025c2:	00db      	lsls	r3, r3, #3
 80025c4:	3332      	adds	r3, #50	; 0x32
 80025c6:	fbb3 f3f1 	udiv	r3, r3, r1
 80025ca:	f003 0207 	and.w	r2, r3, #7
 80025ce:	005b      	lsls	r3, r3, #1
 80025d0:	eb02 1205 	add.w	r2, r2, r5, lsl #4
 80025d4:	f403 73f8 	and.w	r3, r3, #496	; 0x1f0
 80025d8:	4413      	add	r3, r2
 80025da:	60a3      	str	r3, [r4, #8]
 80025dc:	bd38      	pop	{r3, r4, r5, pc}
 80025de:	f7ff faf3 	bl	8001bc8 <HAL_RCC_GetPCLK1Freq>
 80025e2:	e7d9      	b.n	8002598 <UART_SetConfig+0x4c>
 80025e4:	009a      	lsls	r2, r3, #2
 80025e6:	0f9b      	lsrs	r3, r3, #30
 80025e8:	f7fd fe5a 	bl	80002a0 <__aeabi_uldivmod>
 80025ec:	2264      	movs	r2, #100	; 0x64
 80025ee:	fbb0 f1f2 	udiv	r1, r0, r2
 80025f2:	fb02 0311 	mls	r3, r2, r1, r0
 80025f6:	011b      	lsls	r3, r3, #4
 80025f8:	3332      	adds	r3, #50	; 0x32
 80025fa:	fbb3 f3f2 	udiv	r3, r3, r2
 80025fe:	eb03 1301 	add.w	r3, r3, r1, lsl #4
 8002602:	e7ea      	b.n	80025da <UART_SetConfig+0x8e>
 8002604:	40011000 	.word	0x40011000

08002608 <UART_WaitOnFlagUntilTimeout.constprop.0>:
 8002608:	b5f8      	push	{r3, r4, r5, r6, r7, lr}
 800260a:	4604      	mov	r4, r0
 800260c:	460e      	mov	r6, r1
 800260e:	4617      	mov	r7, r2
 8002610:	461d      	mov	r5, r3
 8002612:	6822      	ldr	r2, [r4, #0]
 8002614:	6813      	ldr	r3, [r2, #0]
 8002616:	ea36 0303 	bics.w	r3, r6, r3
 800261a:	d101      	bne.n	8002620 <UART_WaitOnFlagUntilTimeout.constprop.0+0x18>
 800261c:	2000      	movs	r0, #0
 800261e:	e014      	b.n	800264a <UART_WaitOnFlagUntilTimeout.constprop.0+0x42>
 8002620:	1c6b      	adds	r3, r5, #1
 8002622:	d0f7      	beq.n	8002614 <UART_WaitOnFlagUntilTimeout.constprop.0+0xc>
 8002624:	b995      	cbnz	r5, 800264c <UART_WaitOnFlagUntilTimeout.constprop.0+0x44>
 8002626:	6823      	ldr	r3, [r4, #0]
 8002628:	68da      	ldr	r2, [r3, #12]
 800262a:	f422 72d0 	bic.w	r2, r2, #416	; 0x1a0
 800262e:	60da      	str	r2, [r3, #12]
 8002630:	695a      	ldr	r2, [r3, #20]
 8002632:	f022 0201 	bic.w	r2, r2, #1
 8002636:	615a      	str	r2, [r3, #20]
 8002638:	2320      	movs	r3, #32
 800263a:	f884 303d 	strb.w	r3, [r4, #61]	; 0x3d
 800263e:	f884 303e 	strb.w	r3, [r4, #62]	; 0x3e
 8002642:	2300      	movs	r3, #0
 8002644:	f884 303c 	strb.w	r3, [r4, #60]	; 0x3c
 8002648:	2003      	movs	r0, #3
 800264a:	bdf8      	pop	{r3, r4, r5, r6, r7, pc}
 800264c:	f7fe fd14 	bl	8001078 <HAL_GetTick>
 8002650:	1bc0      	subs	r0, r0, r7
 8002652:	4285      	cmp	r5, r0
 8002654:	d2dd      	bcs.n	8002612 <UART_WaitOnFlagUntilTimeout.constprop.0+0xa>
 8002656:	e7e6      	b.n	8002626 <UART_WaitOnFlagUntilTimeout.constprop.0+0x1e>

08002658 <HAL_UART_Init>:
 8002658:	b510      	push	{r4, lr}
 800265a:	4604      	mov	r4, r0
 800265c:	b340      	cbz	r0, 80026b0 <HAL_UART_Init+0x58>
 800265e:	f890 303d 	ldrb.w	r3, [r0, #61]	; 0x3d
 8002662:	f003 02ff 	and.w	r2, r3, #255	; 0xff
 8002666:	b91b      	cbnz	r3, 8002670 <HAL_UART_Init+0x18>
 8002668:	f880 203c 	strb.w	r2, [r0, #60]	; 0x3c
 800266c:	f7fe fba8 	bl	8000dc0 <HAL_UART_MspInit>
 8002670:	6822      	ldr	r2, [r4, #0]
 8002672:	2324      	movs	r3, #36	; 0x24
 8002674:	f884 303d 	strb.w	r3, [r4, #61]	; 0x3d
 8002678:	68d3      	ldr	r3, [r2, #12]
 800267a:	f423 5300 	bic.w	r3, r3, #8192	; 0x2000
 800267e:	60d3      	str	r3, [r2, #12]
 8002680:	4620      	mov	r0, r4
 8002682:	f7ff ff63 	bl	800254c <UART_SetConfig>
 8002686:	6823      	ldr	r3, [r4, #0]
 8002688:	691a      	ldr	r2, [r3, #16]
 800268a:	f422 4290 	bic.w	r2, r2, #18432	; 0x4800
 800268e:	611a      	str	r2, [r3, #16]
 8002690:	695a      	ldr	r2, [r3, #20]
 8002692:	f022 022a 	bic.w	r2, r2, #42	; 0x2a
 8002696:	615a      	str	r2, [r3, #20]
 8002698:	68da      	ldr	r2, [r3, #12]
 800269a:	f442 5200 	orr.w	r2, r2, #8192	; 0x2000
 800269e:	60da      	str	r2, [r3, #12]
 80026a0:	2000      	movs	r0, #0
 80026a2:	2320      	movs	r3, #32
 80026a4:	6420      	str	r0, [r4, #64]	; 0x40
 80026a6:	f884 303d 	strb.w	r3, [r4, #61]	; 0x3d
 80026aa:	f884 303e 	strb.w	r3, [r4, #62]	; 0x3e
 80026ae:	bd10      	pop	{r4, pc}
 80026b0:	2001      	movs	r0, #1
 80026b2:	e7fc      	b.n	80026ae <HAL_UART_Init+0x56>

080026b4 <HAL_UART_Transmit>:
 80026b4:	b5f7      	push	{r0, r1, r2, r4, r5, r6, r7, lr}
 80026b6:	4617      	mov	r7, r2
 80026b8:	f890 203d 	ldrb.w	r2, [r0, #61]	; 0x3d
 80026bc:	9300      	str	r3, [sp, #0]
 80026be:	2a20      	cmp	r2, #32
 80026c0:	4604      	mov	r4, r0
 80026c2:	460e      	mov	r6, r1
 80026c4:	d149      	bne.n	800275a <HAL_UART_Transmit+0xa6>
 80026c6:	2900      	cmp	r1, #0
 80026c8:	d045      	beq.n	8002756 <HAL_UART_Transmit+0xa2>
 80026ca:	2f00      	cmp	r7, #0
 80026cc:	d043      	beq.n	8002756 <HAL_UART_Transmit+0xa2>
 80026ce:	f890 203c 	ldrb.w	r2, [r0, #60]	; 0x3c
 80026d2:	2a01      	cmp	r2, #1
 80026d4:	d041      	beq.n	800275a <HAL_UART_Transmit+0xa6>
 80026d6:	2201      	movs	r2, #1
 80026d8:	f880 203c 	strb.w	r2, [r0, #60]	; 0x3c
 80026dc:	2500      	movs	r5, #0
 80026de:	2221      	movs	r2, #33	; 0x21
 80026e0:	6405      	str	r5, [r0, #64]	; 0x40
 80026e2:	f880 203d 	strb.w	r2, [r0, #61]	; 0x3d
 80026e6:	f7fe fcc7 	bl	8001078 <HAL_GetTick>
 80026ea:	68a1      	ldr	r1, [r4, #8]
 80026ec:	9b00      	ldr	r3, [sp, #0]
 80026ee:	84a7      	strh	r7, [r4, #36]	; 0x24
 80026f0:	f5b1 5f80 	cmp.w	r1, #4096	; 0x1000
 80026f4:	4602      	mov	r2, r0
 80026f6:	84e7      	strh	r7, [r4, #38]	; 0x26
 80026f8:	d103      	bne.n	8002702 <HAL_UART_Transmit+0x4e>
 80026fa:	6921      	ldr	r1, [r4, #16]
 80026fc:	b909      	cbnz	r1, 8002702 <HAL_UART_Transmit+0x4e>
 80026fe:	4635      	mov	r5, r6
 8002700:	460e      	mov	r6, r1
 8002702:	2100      	movs	r1, #0
 8002704:	f884 103c 	strb.w	r1, [r4, #60]	; 0x3c
 8002708:	8ce1      	ldrh	r1, [r4, #38]	; 0x26
 800270a:	b289      	uxth	r1, r1
 800270c:	b941      	cbnz	r1, 8002720 <HAL_UART_Transmit+0x6c>
 800270e:	2140      	movs	r1, #64	; 0x40
 8002710:	4620      	mov	r0, r4
 8002712:	f7ff ff79 	bl	8002608 <UART_WaitOnFlagUntilTimeout.constprop.0>
 8002716:	b960      	cbnz	r0, 8002732 <HAL_UART_Transmit+0x7e>
 8002718:	2320      	movs	r3, #32
 800271a:	f884 303d 	strb.w	r3, [r4, #61]	; 0x3d
 800271e:	e009      	b.n	8002734 <HAL_UART_Transmit+0x80>
 8002720:	2180      	movs	r1, #128	; 0x80
 8002722:	4620      	mov	r0, r4
 8002724:	e9cd 2300 	strd	r2, r3, [sp]
 8002728:	f7ff ff6e 	bl	8002608 <UART_WaitOnFlagUntilTimeout.constprop.0>
 800272c:	e9dd 2300 	ldrd	r2, r3, [sp]
 8002730:	b110      	cbz	r0, 8002738 <HAL_UART_Transmit+0x84>
 8002732:	2003      	movs	r0, #3
 8002734:	b003      	add	sp, #12
 8002736:	bdf0      	pop	{r4, r5, r6, r7, pc}
 8002738:	6820      	ldr	r0, [r4, #0]
 800273a:	b94e      	cbnz	r6, 8002750 <HAL_UART_Transmit+0x9c>
 800273c:	f835 1b02 	ldrh.w	r1, [r5], #2
 8002740:	f3c1 0108 	ubfx	r1, r1, #0, #9
 8002744:	6041      	str	r1, [r0, #4]
 8002746:	8ce1      	ldrh	r1, [r4, #38]	; 0x26
 8002748:	3901      	subs	r1, #1
 800274a:	b289      	uxth	r1, r1
 800274c:	84e1      	strh	r1, [r4, #38]	; 0x26
 800274e:	e7db      	b.n	8002708 <HAL_UART_Transmit+0x54>
 8002750:	f816 1b01 	ldrb.w	r1, [r6], #1
 8002754:	e7f6      	b.n	8002744 <HAL_UART_Transmit+0x90>
 8002756:	2001      	movs	r0, #1
 8002758:	e7ec      	b.n	8002734 <HAL_UART_Transmit+0x80>
 800275a:	2002      	movs	r0, #2
 800275c:	e7ea      	b.n	8002734 <HAL_UART_Transmit+0x80>
	...

08002760 <HAL_UART_Transmit_DMA>:
 8002760:	b538      	push	{r3, r4, r5, lr}
 8002762:	4604      	mov	r4, r0
 8002764:	4613      	mov	r3, r2
 8002766:	f894 203d 	ldrb.w	r2, [r4, #61]	; 0x3d
 800276a:	2a20      	cmp	r2, #32
 800276c:	d12a      	bne.n	80027c4 <HAL_UART_Transmit_DMA+0x64>
 800276e:	b339      	cbz	r1, 80027c0 <HAL_UART_Transmit_DMA+0x60>
 8002770:	b333      	cbz	r3, 80027c0 <HAL_UART_Transmit_DMA+0x60>
 8002772:	f894 203c 	ldrb.w	r2, [r4, #60]	; 0x3c
 8002776:	2a01      	cmp	r2, #1
 8002778:	d024      	beq.n	80027c4 <HAL_UART_Transmit_DMA+0x64>
 800277a:	2201      	movs	r2, #1
 800277c:	f884 203c 	strb.w	r2, [r4, #60]	; 0x3c
 8002780:	6b60      	ldr	r0, [r4, #52]	; 0x34
 8002782:	84e3      	strh	r3, [r4, #38]	; 0x26
 8002784:	2500      	movs	r5, #0
 8002786:	2221      	movs	r2, #33	; 0x21
 8002788:	6425      	str	r5, [r4, #64]	; 0x40
 800278a:	f884 203d 	strb.w	r2, [r4, #61]	; 0x3d
 800278e:	4a0e      	ldr	r2, [pc, #56]	; (80027c8 <HAL_UART_Transmit_DMA+0x68>)
 8002790:	84a3      	strh	r3, [r4, #36]	; 0x24
 8002792:	6221      	str	r1, [r4, #32]
 8002794:	63c2      	str	r2, [r0, #60]	; 0x3c
 8002796:	4a0d      	ldr	r2, [pc, #52]	; (80027cc <HAL_UART_Transmit_DMA+0x6c>)
 8002798:	6402      	str	r2, [r0, #64]	; 0x40
 800279a:	4a0d      	ldr	r2, [pc, #52]	; (80027d0 <HAL_UART_Transmit_DMA+0x70>)
 800279c:	e9c0 2513 	strd	r2, r5, [r0, #76]	; 0x4c
 80027a0:	6822      	ldr	r2, [r4, #0]
 80027a2:	3204      	adds	r2, #4
 80027a4:	f7fe fd6c 	bl	8001280 <HAL_DMA_Start_IT>
 80027a8:	6823      	ldr	r3, [r4, #0]
 80027aa:	f06f 0240 	mvn.w	r2, #64	; 0x40
 80027ae:	601a      	str	r2, [r3, #0]
 80027b0:	f884 503c 	strb.w	r5, [r4, #60]	; 0x3c
 80027b4:	695a      	ldr	r2, [r3, #20]
 80027b6:	f042 0280 	orr.w	r2, r2, #128	; 0x80
 80027ba:	615a      	str	r2, [r3, #20]
 80027bc:	4628      	mov	r0, r5
 80027be:	bd38      	pop	{r3, r4, r5, pc}
 80027c0:	2001      	movs	r0, #1
 80027c2:	e7fc      	b.n	80027be <HAL_UART_Transmit_DMA+0x5e>
 80027c4:	2002      	movs	r0, #2
 80027c6:	e7fa      	b.n	80027be <HAL_UART_Transmit_DMA+0x5e>
 80027c8:	080027d5 	.word	0x080027d5
 80027cc:	08002803 	.word	0x08002803
 80027d0:	08002811 	.word	0x08002811

080027d4 <UART_DMATransmitCplt>:
 80027d4:	b508      	push	{r3, lr}
 80027d6:	6803      	ldr	r3, [r0, #0]
 80027d8:	6b82      	ldr	r2, [r0, #56]	; 0x38
 80027da:	681b      	ldr	r3, [r3, #0]
 80027dc:	f413 7380 	ands.w	r3, r3, #256	; 0x100
 80027e0:	d10a      	bne.n	80027f8 <UART_DMATransmitCplt+0x24>
 80027e2:	84d3      	strh	r3, [r2, #38]	; 0x26
 80027e4:	6813      	ldr	r3, [r2, #0]
 80027e6:	695a      	ldr	r2, [r3, #20]
 80027e8:	f022 0280 	bic.w	r2, r2, #128	; 0x80
 80027ec:	615a      	str	r2, [r3, #20]
 80027ee:	68da      	ldr	r2, [r3, #12]
 80027f0:	f042 0240 	orr.w	r2, r2, #64	; 0x40
 80027f4:	60da      	str	r2, [r3, #12]
 80027f6:	bd08      	pop	{r3, pc}
 80027f8:	4610      	mov	r0, r2
 80027fa:	f7fe fbc1 	bl	8000f80 <HAL_UART_TxCpltCallback>
 80027fe:	e7fa      	b.n	80027f6 <UART_DMATransmitCplt+0x22>

08002800 <HAL_UART_TxHalfCpltCallback>:
 8002800:	4770      	bx	lr

08002802 <UART_DMATxHalfCplt>:
 8002802:	b508      	push	{r3, lr}
 8002804:	6b80      	ldr	r0, [r0, #56]	; 0x38
 8002806:	f7ff fffb 	bl	8002800 <HAL_UART_TxHalfCpltCallback>
 800280a:	bd08      	pop	{r3, pc}

0800280c <HAL_UART_RxHalfCpltCallback>:
 800280c:	4770      	bx	lr

0800280e <HAL_UART_ErrorCallback>:
 800280e:	4770      	bx	lr

08002810 <UART_DMAError>:
 8002810:	b508      	push	{r3, lr}
 8002812:	6b80      	ldr	r0, [r0, #56]	; 0x38
 8002814:	6803      	ldr	r3, [r0, #0]
 8002816:	695a      	ldr	r2, [r3, #20]
 8002818:	f890 103d 	ldrb.w	r1, [r0, #61]	; 0x3d
 800281c:	2921      	cmp	r1, #33	; 0x21
 800281e:	d10a      	bne.n	8002836 <UART_DMAError+0x26>
 8002820:	0612      	lsls	r2, r2, #24
 8002822:	d508      	bpl.n	8002836 <UART_DMAError+0x26>
 8002824:	2200      	movs	r2, #0
 8002826:	84c2      	strh	r2, [r0, #38]	; 0x26
 8002828:	68da      	ldr	r2, [r3, #12]
 800282a:	f022 02c0 	bic.w	r2, r2, #192	; 0xc0
 800282e:	60da      	str	r2, [r3, #12]
 8002830:	2220      	movs	r2, #32
 8002832:	f880 203d 	strb.w	r2, [r0, #61]	; 0x3d
 8002836:	695b      	ldr	r3, [r3, #20]
 8002838:	f890 203e 	ldrb.w	r2, [r0, #62]	; 0x3e
 800283c:	2a22      	cmp	r2, #34	; 0x22
 800283e:	d105      	bne.n	800284c <UART_DMAError+0x3c>
 8002840:	065b      	lsls	r3, r3, #25
 8002842:	d503      	bpl.n	800284c <UART_DMAError+0x3c>
 8002844:	2300      	movs	r3, #0
 8002846:	85c3      	strh	r3, [r0, #46]	; 0x2e
 8002848:	f7ff fe6a 	bl	8002520 <UART_EndRxTransfer>
 800284c:	6c03      	ldr	r3, [r0, #64]	; 0x40
 800284e:	f043 0310 	orr.w	r3, r3, #16
 8002852:	6403      	str	r3, [r0, #64]	; 0x40
 8002854:	f7ff ffdb 	bl	800280e <HAL_UART_ErrorCallback>
 8002858:	bd08      	pop	{r3, pc}

0800285a <UART_DMAAbortOnError>:
 800285a:	b508      	push	{r3, lr}
 800285c:	6b80      	ldr	r0, [r0, #56]	; 0x38
 800285e:	2300      	movs	r3, #0
 8002860:	85c3      	strh	r3, [r0, #46]	; 0x2e
 8002862:	84c3      	strh	r3, [r0, #38]	; 0x26
 8002864:	f7ff ffd3 	bl	800280e <HAL_UART_ErrorCallback>
 8002868:	bd08      	pop	{r3, pc}

0800286a <HAL_UARTEx_RxEventCallback>:
 800286a:	4770      	bx	lr

0800286c <UART_Receive_IT>:
 800286c:	b510      	push	{r4, lr}
 800286e:	f890 303e 	ldrb.w	r3, [r0, #62]	; 0x3e
 8002872:	2b22      	cmp	r3, #34	; 0x22
 8002874:	4604      	mov	r4, r0
 8002876:	d143      	bne.n	8002900 <UART_Receive_IT+0x94>
 8002878:	6881      	ldr	r1, [r0, #8]
 800287a:	6a83      	ldr	r3, [r0, #40]	; 0x28
 800287c:	6802      	ldr	r2, [r0, #0]
 800287e:	f5b1 5f80 	cmp.w	r1, #4096	; 0x1000
 8002882:	d12c      	bne.n	80028de <UART_Receive_IT+0x72>
 8002884:	6901      	ldr	r1, [r0, #16]
 8002886:	2900      	cmp	r1, #0
 8002888:	d12c      	bne.n	80028e4 <UART_Receive_IT+0x78>
 800288a:	6852      	ldr	r2, [r2, #4]
 800288c:	f3c2 0208 	ubfx	r2, r2, #0, #9
 8002890:	f823 2b02 	strh.w	r2, [r3], #2
 8002894:	62a3      	str	r3, [r4, #40]	; 0x28
 8002896:	8de3      	ldrh	r3, [r4, #46]	; 0x2e
 8002898:	3b01      	subs	r3, #1
 800289a:	b29b      	uxth	r3, r3
 800289c:	85e3      	strh	r3, [r4, #46]	; 0x2e
 800289e:	2b00      	cmp	r3, #0
 80028a0:	d130      	bne.n	8002904 <UART_Receive_IT+0x98>
 80028a2:	6823      	ldr	r3, [r4, #0]
 80028a4:	68da      	ldr	r2, [r3, #12]
 80028a6:	f022 0220 	bic.w	r2, r2, #32
 80028aa:	60da      	str	r2, [r3, #12]
 80028ac:	68da      	ldr	r2, [r3, #12]
 80028ae:	f422 7280 	bic.w	r2, r2, #256	; 0x100
 80028b2:	60da      	str	r2, [r3, #12]
 80028b4:	695a      	ldr	r2, [r3, #20]
 80028b6:	f022 0201 	bic.w	r2, r2, #1
 80028ba:	615a      	str	r2, [r3, #20]
 80028bc:	2220      	movs	r2, #32
 80028be:	f884 203e 	strb.w	r2, [r4, #62]	; 0x3e
 80028c2:	6b22      	ldr	r2, [r4, #48]	; 0x30
 80028c4:	2a01      	cmp	r2, #1
 80028c6:	d117      	bne.n	80028f8 <UART_Receive_IT+0x8c>
 80028c8:	68da      	ldr	r2, [r3, #12]
 80028ca:	8da1      	ldrh	r1, [r4, #44]	; 0x2c
 80028cc:	f022 0210 	bic.w	r2, r2, #16
 80028d0:	60da      	str	r2, [r3, #12]
 80028d2:	4620      	mov	r0, r4
 80028d4:	f7ff ffc9 	bl	800286a <HAL_UARTEx_RxEventCallback>
 80028d8:	2000      	movs	r0, #0
 80028da:	6320      	str	r0, [r4, #48]	; 0x30
 80028dc:	bd10      	pop	{r4, pc}
 80028de:	b939      	cbnz	r1, 80028f0 <UART_Receive_IT+0x84>
 80028e0:	6901      	ldr	r1, [r0, #16]
 80028e2:	b929      	cbnz	r1, 80028f0 <UART_Receive_IT+0x84>
 80028e4:	6852      	ldr	r2, [r2, #4]
 80028e6:	b2d2      	uxtb	r2, r2
 80028e8:	701a      	strb	r2, [r3, #0]
 80028ea:	6aa3      	ldr	r3, [r4, #40]	; 0x28
 80028ec:	3301      	adds	r3, #1
 80028ee:	e7d1      	b.n	8002894 <UART_Receive_IT+0x28>
 80028f0:	6852      	ldr	r2, [r2, #4]
 80028f2:	f002 027f 	and.w	r2, r2, #127	; 0x7f
 80028f6:	e7f7      	b.n	80028e8 <UART_Receive_IT+0x7c>
 80028f8:	4620      	mov	r0, r4
 80028fa:	f7fe fadd 	bl	8000eb8 <HAL_UART_RxCpltCallback>
 80028fe:	e7eb      	b.n	80028d8 <UART_Receive_IT+0x6c>
 8002900:	2002      	movs	r0, #2
 8002902:	e7eb      	b.n	80028dc <UART_Receive_IT+0x70>
 8002904:	2000      	movs	r0, #0
 8002906:	e7e9      	b.n	80028dc <UART_Receive_IT+0x70>

08002908 <HAL_UART_IRQHandler>:
 8002908:	6803      	ldr	r3, [r0, #0]
 800290a:	b537      	push	{r0, r1, r2, r4, r5, lr}
 800290c:	681a      	ldr	r2, [r3, #0]
 800290e:	68d9      	ldr	r1, [r3, #12]
 8002910:	695d      	ldr	r5, [r3, #20]
 8002912:	f012 0f0f 	tst.w	r2, #15
 8002916:	4604      	mov	r4, r0
 8002918:	d108      	bne.n	800292c <HAL_UART_IRQHandler+0x24>
 800291a:	0695      	lsls	r5, r2, #26
 800291c:	d55f      	bpl.n	80029de <HAL_UART_IRQHandler+0xd6>
 800291e:	068d      	lsls	r5, r1, #26
 8002920:	d55d      	bpl.n	80029de <HAL_UART_IRQHandler+0xd6>
 8002922:	b003      	add	sp, #12
 8002924:	e8bd 4030 	ldmia.w	sp!, {r4, r5, lr}
 8002928:	f7ff bfa0 	b.w	800286c <UART_Receive_IT>
 800292c:	f005 0001 	and.w	r0, r5, #1
 8002930:	f401 7590 	and.w	r5, r1, #288	; 0x120
 8002934:	4305      	orrs	r5, r0
 8002936:	d052      	beq.n	80029de <HAL_UART_IRQHandler+0xd6>
 8002938:	07d5      	lsls	r5, r2, #31
 800293a:	d505      	bpl.n	8002948 <HAL_UART_IRQHandler+0x40>
 800293c:	05cb      	lsls	r3, r1, #23
 800293e:	bf42      	ittt	mi
 8002940:	6c23      	ldrmi	r3, [r4, #64]	; 0x40
 8002942:	f043 0301 	orrmi.w	r3, r3, #1
 8002946:	6423      	strmi	r3, [r4, #64]	; 0x40
 8002948:	0755      	lsls	r5, r2, #29
 800294a:	d504      	bpl.n	8002956 <HAL_UART_IRQHandler+0x4e>
 800294c:	b118      	cbz	r0, 8002956 <HAL_UART_IRQHandler+0x4e>
 800294e:	6c23      	ldr	r3, [r4, #64]	; 0x40
 8002950:	f043 0302 	orr.w	r3, r3, #2
 8002954:	6423      	str	r3, [r4, #64]	; 0x40
 8002956:	0793      	lsls	r3, r2, #30
 8002958:	d504      	bpl.n	8002964 <HAL_UART_IRQHandler+0x5c>
 800295a:	b118      	cbz	r0, 8002964 <HAL_UART_IRQHandler+0x5c>
 800295c:	6c23      	ldr	r3, [r4, #64]	; 0x40
 800295e:	f043 0304 	orr.w	r3, r3, #4
 8002962:	6423      	str	r3, [r4, #64]	; 0x40
 8002964:	0715      	lsls	r5, r2, #28
 8002966:	d507      	bpl.n	8002978 <HAL_UART_IRQHandler+0x70>
 8002968:	f001 0320 	and.w	r3, r1, #32
 800296c:	4303      	orrs	r3, r0
 800296e:	bf1e      	ittt	ne
 8002970:	6c23      	ldrne	r3, [r4, #64]	; 0x40
 8002972:	f043 0308 	orrne.w	r3, r3, #8
 8002976:	6423      	strne	r3, [r4, #64]	; 0x40
 8002978:	6c23      	ldr	r3, [r4, #64]	; 0x40
 800297a:	b353      	cbz	r3, 80029d2 <HAL_UART_IRQHandler+0xca>
 800297c:	0692      	lsls	r2, r2, #26
 800297e:	d504      	bpl.n	800298a <HAL_UART_IRQHandler+0x82>
 8002980:	068b      	lsls	r3, r1, #26
 8002982:	d502      	bpl.n	800298a <HAL_UART_IRQHandler+0x82>
 8002984:	4620      	mov	r0, r4
 8002986:	f7ff ff71 	bl	800286c <UART_Receive_IT>
 800298a:	6823      	ldr	r3, [r4, #0]
 800298c:	695b      	ldr	r3, [r3, #20]
 800298e:	6c25      	ldr	r5, [r4, #64]	; 0x40
 8002990:	f003 0340 	and.w	r3, r3, #64	; 0x40
 8002994:	f005 0508 	and.w	r5, r5, #8
 8002998:	431d      	orrs	r5, r3
 800299a:	4620      	mov	r0, r4
 800299c:	d01b      	beq.n	80029d6 <HAL_UART_IRQHandler+0xce>
 800299e:	f7ff fdbf 	bl	8002520 <UART_EndRxTransfer>
 80029a2:	6823      	ldr	r3, [r4, #0]
 80029a4:	695a      	ldr	r2, [r3, #20]
 80029a6:	0655      	lsls	r5, r2, #25
 80029a8:	d510      	bpl.n	80029cc <HAL_UART_IRQHandler+0xc4>
 80029aa:	695a      	ldr	r2, [r3, #20]
 80029ac:	6ba0      	ldr	r0, [r4, #56]	; 0x38
 80029ae:	f022 0240 	bic.w	r2, r2, #64	; 0x40
 80029b2:	615a      	str	r2, [r3, #20]
 80029b4:	b150      	cbz	r0, 80029cc <HAL_UART_IRQHandler+0xc4>
 80029b6:	4b54      	ldr	r3, [pc, #336]	; (8002b08 <HAL_UART_IRQHandler+0x200>)
 80029b8:	6503      	str	r3, [r0, #80]	; 0x50
 80029ba:	f7fe fcdf 	bl	800137c <HAL_DMA_Abort_IT>
 80029be:	b140      	cbz	r0, 80029d2 <HAL_UART_IRQHandler+0xca>
 80029c0:	6ba0      	ldr	r0, [r4, #56]	; 0x38
 80029c2:	6d03      	ldr	r3, [r0, #80]	; 0x50
 80029c4:	b003      	add	sp, #12
 80029c6:	e8bd 4030 	ldmia.w	sp!, {r4, r5, lr}
 80029ca:	4718      	bx	r3
 80029cc:	4620      	mov	r0, r4
 80029ce:	f7ff ff1e 	bl	800280e <HAL_UART_ErrorCallback>
 80029d2:	b003      	add	sp, #12
 80029d4:	bd30      	pop	{r4, r5, pc}
 80029d6:	f7ff ff1a 	bl	800280e <HAL_UART_ErrorCallback>
 80029da:	6425      	str	r5, [r4, #64]	; 0x40
 80029dc:	e7f9      	b.n	80029d2 <HAL_UART_IRQHandler+0xca>
 80029de:	6b20      	ldr	r0, [r4, #48]	; 0x30
 80029e0:	2801      	cmp	r0, #1
 80029e2:	d156      	bne.n	8002a92 <HAL_UART_IRQHandler+0x18a>
 80029e4:	06d0      	lsls	r0, r2, #27
 80029e6:	d554      	bpl.n	8002a92 <HAL_UART_IRQHandler+0x18a>
 80029e8:	06cd      	lsls	r5, r1, #27
 80029ea:	d552      	bpl.n	8002a92 <HAL_UART_IRQHandler+0x18a>
 80029ec:	2100      	movs	r1, #0
 80029ee:	9101      	str	r1, [sp, #4]
 80029f0:	681a      	ldr	r2, [r3, #0]
 80029f2:	9201      	str	r2, [sp, #4]
 80029f4:	685a      	ldr	r2, [r3, #4]
 80029f6:	9201      	str	r2, [sp, #4]
 80029f8:	9a01      	ldr	r2, [sp, #4]
 80029fa:	695a      	ldr	r2, [r3, #20]
 80029fc:	f012 0240 	ands.w	r2, r2, #64	; 0x40
 8002a00:	d02b      	beq.n	8002a5a <HAL_UART_IRQHandler+0x152>
 8002a02:	6ba0      	ldr	r0, [r4, #56]	; 0x38
 8002a04:	6802      	ldr	r2, [r0, #0]
 8002a06:	6852      	ldr	r2, [r2, #4]
 8002a08:	b292      	uxth	r2, r2
 8002a0a:	2a00      	cmp	r2, #0
 8002a0c:	d0e1      	beq.n	80029d2 <HAL_UART_IRQHandler+0xca>
 8002a0e:	8da5      	ldrh	r5, [r4, #44]	; 0x2c
 8002a10:	4295      	cmp	r5, r2
 8002a12:	d9de      	bls.n	80029d2 <HAL_UART_IRQHandler+0xca>
 8002a14:	85e2      	strh	r2, [r4, #46]	; 0x2e
 8002a16:	69c2      	ldr	r2, [r0, #28]
 8002a18:	f5b2 7f80 	cmp.w	r2, #256	; 0x100
 8002a1c:	d015      	beq.n	8002a4a <HAL_UART_IRQHandler+0x142>
 8002a1e:	68da      	ldr	r2, [r3, #12]
 8002a20:	f422 7280 	bic.w	r2, r2, #256	; 0x100
 8002a24:	60da      	str	r2, [r3, #12]
 8002a26:	695a      	ldr	r2, [r3, #20]
 8002a28:	f022 0201 	bic.w	r2, r2, #1
 8002a2c:	615a      	str	r2, [r3, #20]
 8002a2e:	695a      	ldr	r2, [r3, #20]
 8002a30:	f022 0240 	bic.w	r2, r2, #64	; 0x40
 8002a34:	615a      	str	r2, [r3, #20]
 8002a36:	2220      	movs	r2, #32
 8002a38:	f884 203e 	strb.w	r2, [r4, #62]	; 0x3e
 8002a3c:	6321      	str	r1, [r4, #48]	; 0x30
 8002a3e:	68da      	ldr	r2, [r3, #12]
 8002a40:	f022 0210 	bic.w	r2, r2, #16
 8002a44:	60da      	str	r2, [r3, #12]
 8002a46:	f7fe fc55 	bl	80012f4 <HAL_DMA_Abort>
 8002a4a:	8de3      	ldrh	r3, [r4, #46]	; 0x2e
 8002a4c:	8da1      	ldrh	r1, [r4, #44]	; 0x2c
 8002a4e:	1ac9      	subs	r1, r1, r3
 8002a50:	b289      	uxth	r1, r1
 8002a52:	4620      	mov	r0, r4
 8002a54:	f7ff ff09 	bl	800286a <HAL_UARTEx_RxEventCallback>
 8002a58:	e7bb      	b.n	80029d2 <HAL_UART_IRQHandler+0xca>
 8002a5a:	8de1      	ldrh	r1, [r4, #46]	; 0x2e
 8002a5c:	b288      	uxth	r0, r1
 8002a5e:	8de1      	ldrh	r1, [r4, #46]	; 0x2e
 8002a60:	b289      	uxth	r1, r1
 8002a62:	2900      	cmp	r1, #0
 8002a64:	d0b5      	beq.n	80029d2 <HAL_UART_IRQHandler+0xca>
 8002a66:	8da1      	ldrh	r1, [r4, #44]	; 0x2c
 8002a68:	1a09      	subs	r1, r1, r0
 8002a6a:	b289      	uxth	r1, r1
 8002a6c:	2900      	cmp	r1, #0
 8002a6e:	d0b0      	beq.n	80029d2 <HAL_UART_IRQHandler+0xca>
 8002a70:	68d8      	ldr	r0, [r3, #12]
 8002a72:	f420 7090 	bic.w	r0, r0, #288	; 0x120
 8002a76:	60d8      	str	r0, [r3, #12]
 8002a78:	6958      	ldr	r0, [r3, #20]
 8002a7a:	f020 0001 	bic.w	r0, r0, #1
 8002a7e:	6158      	str	r0, [r3, #20]
 8002a80:	2020      	movs	r0, #32
 8002a82:	f884 003e 	strb.w	r0, [r4, #62]	; 0x3e
 8002a86:	6322      	str	r2, [r4, #48]	; 0x30
 8002a88:	68da      	ldr	r2, [r3, #12]
 8002a8a:	f022 0210 	bic.w	r2, r2, #16
 8002a8e:	60da      	str	r2, [r3, #12]
 8002a90:	e7df      	b.n	8002a52 <HAL_UART_IRQHandler+0x14a>
 8002a92:	0610      	lsls	r0, r2, #24
 8002a94:	d526      	bpl.n	8002ae4 <HAL_UART_IRQHandler+0x1dc>
 8002a96:	060d      	lsls	r5, r1, #24
 8002a98:	d524      	bpl.n	8002ae4 <HAL_UART_IRQHandler+0x1dc>
 8002a9a:	f894 203d 	ldrb.w	r2, [r4, #61]	; 0x3d
 8002a9e:	2a21      	cmp	r2, #33	; 0x21
 8002aa0:	d197      	bne.n	80029d2 <HAL_UART_IRQHandler+0xca>
 8002aa2:	68a1      	ldr	r1, [r4, #8]
 8002aa4:	6a22      	ldr	r2, [r4, #32]
 8002aa6:	f5b1 5f80 	cmp.w	r1, #4096	; 0x1000
 8002aaa:	d116      	bne.n	8002ada <HAL_UART_IRQHandler+0x1d2>
 8002aac:	6921      	ldr	r1, [r4, #16]
 8002aae:	b9a1      	cbnz	r1, 8002ada <HAL_UART_IRQHandler+0x1d2>
 8002ab0:	f832 1b02 	ldrh.w	r1, [r2], #2
 8002ab4:	f3c1 0108 	ubfx	r1, r1, #0, #9
 8002ab8:	6059      	str	r1, [r3, #4]
 8002aba:	6222      	str	r2, [r4, #32]
 8002abc:	8ce2      	ldrh	r2, [r4, #38]	; 0x26
 8002abe:	3a01      	subs	r2, #1
 8002ac0:	b292      	uxth	r2, r2
 8002ac2:	84e2      	strh	r2, [r4, #38]	; 0x26
 8002ac4:	2a00      	cmp	r2, #0
 8002ac6:	d184      	bne.n	80029d2 <HAL_UART_IRQHandler+0xca>
 8002ac8:	68da      	ldr	r2, [r3, #12]
 8002aca:	f022 0280 	bic.w	r2, r2, #128	; 0x80
 8002ace:	60da      	str	r2, [r3, #12]
 8002ad0:	68da      	ldr	r2, [r3, #12]
 8002ad2:	f042 0240 	orr.w	r2, r2, #64	; 0x40
 8002ad6:	60da      	str	r2, [r3, #12]
 8002ad8:	e77b      	b.n	80029d2 <HAL_UART_IRQHandler+0xca>
 8002ada:	1c51      	adds	r1, r2, #1
 8002adc:	6221      	str	r1, [r4, #32]
 8002ade:	7812      	ldrb	r2, [r2, #0]
 8002ae0:	605a      	str	r2, [r3, #4]
 8002ae2:	e7eb      	b.n	8002abc <HAL_UART_IRQHandler+0x1b4>
 8002ae4:	0650      	lsls	r0, r2, #25
 8002ae6:	f57f af74 	bpl.w	80029d2 <HAL_UART_IRQHandler+0xca>
 8002aea:	064a      	lsls	r2, r1, #25
 8002aec:	f57f af71 	bpl.w	80029d2 <HAL_UART_IRQHandler+0xca>
 8002af0:	68da      	ldr	r2, [r3, #12]
 8002af2:	f022 0240 	bic.w	r2, r2, #64	; 0x40
 8002af6:	60da      	str	r2, [r3, #12]
 8002af8:	2320      	movs	r3, #32
 8002afa:	f884 303d 	strb.w	r3, [r4, #61]	; 0x3d
 8002afe:	4620      	mov	r0, r4
 8002b00:	f7fe fa3e 	bl	8000f80 <HAL_UART_TxCpltCallback>
 8002b04:	e765      	b.n	80029d2 <HAL_UART_IRQHandler+0xca>
 8002b06:	bf00      	nop
 8002b08:	0800285b 	.word	0x0800285b

08002b0c <UART_DMARxHalfCplt>:
 8002b0c:	6b80      	ldr	r0, [r0, #56]	; 0x38
 8002b0e:	b508      	push	{r3, lr}
 8002b10:	6b03      	ldr	r3, [r0, #48]	; 0x30
 8002b12:	2b01      	cmp	r3, #1
 8002b14:	d104      	bne.n	8002b20 <UART_DMARxHalfCplt+0x14>
 8002b16:	8d81      	ldrh	r1, [r0, #44]	; 0x2c
 8002b18:	0849      	lsrs	r1, r1, #1
 8002b1a:	f7ff fea6 	bl	800286a <HAL_UARTEx_RxEventCallback>
 8002b1e:	bd08      	pop	{r3, pc}
 8002b20:	f7ff fe74 	bl	800280c <HAL_UART_RxHalfCpltCallback>
 8002b24:	e7fb      	b.n	8002b1e <UART_DMARxHalfCplt+0x12>

08002b26 <UART_DMAReceiveCplt>:
 8002b26:	b508      	push	{r3, lr}
 8002b28:	4603      	mov	r3, r0
 8002b2a:	6b80      	ldr	r0, [r0, #56]	; 0x38
 8002b2c:	681b      	ldr	r3, [r3, #0]
 8002b2e:	681b      	ldr	r3, [r3, #0]
 8002b30:	f413 7380 	ands.w	r3, r3, #256	; 0x100
 8002b34:	d117      	bne.n	8002b66 <UART_DMAReceiveCplt+0x40>
 8002b36:	85c3      	strh	r3, [r0, #46]	; 0x2e
 8002b38:	6803      	ldr	r3, [r0, #0]
 8002b3a:	68da      	ldr	r2, [r3, #12]
 8002b3c:	f422 7280 	bic.w	r2, r2, #256	; 0x100
 8002b40:	60da      	str	r2, [r3, #12]
 8002b42:	695a      	ldr	r2, [r3, #20]
 8002b44:	f022 0201 	bic.w	r2, r2, #1
 8002b48:	615a      	str	r2, [r3, #20]
 8002b4a:	695a      	ldr	r2, [r3, #20]
 8002b4c:	f022 0240 	bic.w	r2, r2, #64	; 0x40
 8002b50:	615a      	str	r2, [r3, #20]
 8002b52:	2220      	movs	r2, #32
 8002b54:	f880 203e 	strb.w	r2, [r0, #62]	; 0x3e
 8002b58:	6b02      	ldr	r2, [r0, #48]	; 0x30
 8002b5a:	2a01      	cmp	r2, #1
 8002b5c:	bf02      	ittt	eq
 8002b5e:	68da      	ldreq	r2, [r3, #12]
 8002b60:	f022 0210 	biceq.w	r2, r2, #16
 8002b64:	60da      	streq	r2, [r3, #12]
 8002b66:	6b03      	ldr	r3, [r0, #48]	; 0x30
 8002b68:	2b01      	cmp	r3, #1
 8002b6a:	d103      	bne.n	8002b74 <UART_DMAReceiveCplt+0x4e>
 8002b6c:	8d81      	ldrh	r1, [r0, #44]	; 0x2c
 8002b6e:	f7ff fe7c 	bl	800286a <HAL_UARTEx_RxEventCallback>
 8002b72:	bd08      	pop	{r3, pc}
 8002b74:	f7fe f9a0 	bl	8000eb8 <HAL_UART_RxCpltCallback>
 8002b78:	e7fb      	b.n	8002b72 <UART_DMAReceiveCplt+0x4c>
	...

08002b7c <UART_Start_Receive_DMA>:
 8002b7c:	b573      	push	{r0, r1, r4, r5, r6, lr}
 8002b7e:	2322      	movs	r3, #34	; 0x22
 8002b80:	2500      	movs	r5, #0
 8002b82:	4604      	mov	r4, r0
 8002b84:	6405      	str	r5, [r0, #64]	; 0x40
 8002b86:	6281      	str	r1, [r0, #40]	; 0x28
 8002b88:	f880 303e 	strb.w	r3, [r0, #62]	; 0x3e
 8002b8c:	8582      	strh	r2, [r0, #44]	; 0x2c
 8002b8e:	6b80      	ldr	r0, [r0, #56]	; 0x38
 8002b90:	4b12      	ldr	r3, [pc, #72]	; (8002bdc <UART_Start_Receive_DMA+0x60>)
 8002b92:	63c3      	str	r3, [r0, #60]	; 0x3c
 8002b94:	4b12      	ldr	r3, [pc, #72]	; (8002be0 <UART_Start_Receive_DMA+0x64>)
 8002b96:	6826      	ldr	r6, [r4, #0]
 8002b98:	6403      	str	r3, [r0, #64]	; 0x40
 8002b9a:	4b12      	ldr	r3, [pc, #72]	; (8002be4 <UART_Start_Receive_DMA+0x68>)
 8002b9c:	e9c0 3513 	strd	r3, r5, [r0, #76]	; 0x4c
 8002ba0:	4613      	mov	r3, r2
 8002ba2:	460a      	mov	r2, r1
 8002ba4:	1d31      	adds	r1, r6, #4
 8002ba6:	f7fe fb6b 	bl	8001280 <HAL_DMA_Start_IT>
 8002baa:	6823      	ldr	r3, [r4, #0]
 8002bac:	9501      	str	r5, [sp, #4]
 8002bae:	681a      	ldr	r2, [r3, #0]
 8002bb0:	9201      	str	r2, [sp, #4]
 8002bb2:	685a      	ldr	r2, [r3, #4]
 8002bb4:	9201      	str	r2, [sp, #4]
 8002bb6:	f884 503c 	strb.w	r5, [r4, #60]	; 0x3c
 8002bba:	9a01      	ldr	r2, [sp, #4]
 8002bbc:	68da      	ldr	r2, [r3, #12]
 8002bbe:	f442 7280 	orr.w	r2, r2, #256	; 0x100
 8002bc2:	60da      	str	r2, [r3, #12]
 8002bc4:	695a      	ldr	r2, [r3, #20]
 8002bc6:	f042 0201 	orr.w	r2, r2, #1
 8002bca:	615a      	str	r2, [r3, #20]
 8002bcc:	695a      	ldr	r2, [r3, #20]
 8002bce:	4628      	mov	r0, r5
 8002bd0:	f042 0240 	orr.w	r2, r2, #64	; 0x40
 8002bd4:	615a      	str	r2, [r3, #20]
 8002bd6:	b002      	add	sp, #8
 8002bd8:	bd70      	pop	{r4, r5, r6, pc}
 8002bda:	bf00      	nop
 8002bdc:	08002b27 	.word	0x08002b27
 8002be0:	08002b0d 	.word	0x08002b0d
 8002be4:	08002811 	.word	0x08002811

08002be8 <HAL_UART_Receive_DMA>:
 8002be8:	b470      	push	{r4, r5, r6}
 8002bea:	f890 603e 	ldrb.w	r6, [r0, #62]	; 0x3e
 8002bee:	2e20      	cmp	r6, #32
 8002bf0:	d110      	bne.n	8002c14 <HAL_UART_Receive_DMA+0x2c>
 8002bf2:	b161      	cbz	r1, 8002c0e <HAL_UART_Receive_DMA+0x26>
 8002bf4:	b15a      	cbz	r2, 8002c0e <HAL_UART_Receive_DMA+0x26>
 8002bf6:	f890 403c 	ldrb.w	r4, [r0, #60]	; 0x3c
 8002bfa:	2c01      	cmp	r4, #1
 8002bfc:	d00a      	beq.n	8002c14 <HAL_UART_Receive_DMA+0x2c>
 8002bfe:	2401      	movs	r4, #1
 8002c00:	f880 403c 	strb.w	r4, [r0, #60]	; 0x3c
 8002c04:	2400      	movs	r4, #0
 8002c06:	6304      	str	r4, [r0, #48]	; 0x30
 8002c08:	bc70      	pop	{r4, r5, r6}
 8002c0a:	f7ff bfb7 	b.w	8002b7c <UART_Start_Receive_DMA>
 8002c0e:	2001      	movs	r0, #1
 8002c10:	bc70      	pop	{r4, r5, r6}
 8002c12:	4770      	bx	lr
 8002c14:	2002      	movs	r0, #2
 8002c16:	e7fb      	b.n	8002c10 <HAL_UART_Receive_DMA+0x28>

08002c18 <__errno>:
 8002c18:	4b01      	ldr	r3, [pc, #4]	; (8002c20 <__errno+0x8>)
 8002c1a:	6818      	ldr	r0, [r3, #0]
 8002c1c:	4770      	bx	lr
 8002c1e:	bf00      	nop
 8002c20:	2000002c 	.word	0x2000002c

08002c24 <__libc_init_array>:
 8002c24:	b570      	push	{r4, r5, r6, lr}
 8002c26:	4d0d      	ldr	r5, [pc, #52]	; (8002c5c <__libc_init_array+0x38>)
 8002c28:	4c0d      	ldr	r4, [pc, #52]	; (8002c60 <__libc_init_array+0x3c>)
 8002c2a:	1b64      	subs	r4, r4, r5
 8002c2c:	10a4      	asrs	r4, r4, #2
 8002c2e:	2600      	movs	r6, #0
 8002c30:	42a6      	cmp	r6, r4
 8002c32:	d109      	bne.n	8002c48 <__libc_init_array+0x24>
 8002c34:	4d0b      	ldr	r5, [pc, #44]	; (8002c64 <__libc_init_array+0x40>)
 8002c36:	4c0c      	ldr	r4, [pc, #48]	; (8002c68 <__libc_init_array+0x44>)
 8002c38:	f001 fa10 	bl	800405c <_init>
 8002c3c:	1b64      	subs	r4, r4, r5
 8002c3e:	10a4      	asrs	r4, r4, #2
 8002c40:	2600      	movs	r6, #0
 8002c42:	42a6      	cmp	r6, r4
 8002c44:	d105      	bne.n	8002c52 <__libc_init_array+0x2e>
 8002c46:	bd70      	pop	{r4, r5, r6, pc}
 8002c48:	f855 3b04 	ldr.w	r3, [r5], #4
 8002c4c:	4798      	blx	r3
 8002c4e:	3601      	adds	r6, #1
 8002c50:	e7ee      	b.n	8002c30 <__libc_init_array+0xc>
 8002c52:	f855 3b04 	ldr.w	r3, [r5], #4
 8002c56:	4798      	blx	r3
 8002c58:	3601      	adds	r6, #1
 8002c5a:	e7f2      	b.n	8002c42 <__libc_init_array+0x1e>
 8002c5c:	08004290 	.word	0x08004290
 8002c60:	08004290 	.word	0x08004290
 8002c64:	08004290 	.word	0x08004290
 8002c68:	08004294 	.word	0x08004294

08002c6c <memset>:
 8002c6c:	4402      	add	r2, r0
 8002c6e:	4603      	mov	r3, r0
 8002c70:	4293      	cmp	r3, r2
 8002c72:	d100      	bne.n	8002c76 <memset+0xa>
 8002c74:	4770      	bx	lr
 8002c76:	f803 1b01 	strb.w	r1, [r3], #1
 8002c7a:	e7f9      	b.n	8002c70 <memset+0x4>

08002c7c <siprintf>:
 8002c7c:	b40e      	push	{r1, r2, r3}
 8002c7e:	b500      	push	{lr}
 8002c80:	b09c      	sub	sp, #112	; 0x70
 8002c82:	ab1d      	add	r3, sp, #116	; 0x74
 8002c84:	9002      	str	r0, [sp, #8]
 8002c86:	9006      	str	r0, [sp, #24]
 8002c88:	f06f 4100 	mvn.w	r1, #2147483648	; 0x80000000
 8002c8c:	4809      	ldr	r0, [pc, #36]	; (8002cb4 <siprintf+0x38>)
 8002c8e:	9107      	str	r1, [sp, #28]
 8002c90:	9104      	str	r1, [sp, #16]
 8002c92:	4909      	ldr	r1, [pc, #36]	; (8002cb8 <siprintf+0x3c>)
 8002c94:	f853 2b04 	ldr.w	r2, [r3], #4
 8002c98:	9105      	str	r1, [sp, #20]
 8002c9a:	6800      	ldr	r0, [r0, #0]
 8002c9c:	9301      	str	r3, [sp, #4]
 8002c9e:	a902      	add	r1, sp, #8
 8002ca0:	f000 f9a6 	bl	8002ff0 <_svfiprintf_r>
 8002ca4:	9b02      	ldr	r3, [sp, #8]
 8002ca6:	2200      	movs	r2, #0
 8002ca8:	701a      	strb	r2, [r3, #0]
 8002caa:	b01c      	add	sp, #112	; 0x70
 8002cac:	f85d eb04 	ldr.w	lr, [sp], #4
 8002cb0:	b003      	add	sp, #12
 8002cb2:	4770      	bx	lr
 8002cb4:	2000002c 	.word	0x2000002c
 8002cb8:	ffff0208 	.word	0xffff0208

08002cbc <strtok>:
 8002cbc:	4b16      	ldr	r3, [pc, #88]	; (8002d18 <strtok+0x5c>)
 8002cbe:	b573      	push	{r0, r1, r4, r5, r6, lr}
 8002cc0:	681e      	ldr	r6, [r3, #0]
 8002cc2:	6db4      	ldr	r4, [r6, #88]	; 0x58
 8002cc4:	4605      	mov	r5, r0
 8002cc6:	b9fc      	cbnz	r4, 8002d08 <strtok+0x4c>
 8002cc8:	2050      	movs	r0, #80	; 0x50
 8002cca:	9101      	str	r1, [sp, #4]
 8002ccc:	f000 f882 	bl	8002dd4 <malloc>
 8002cd0:	9901      	ldr	r1, [sp, #4]
 8002cd2:	65b0      	str	r0, [r6, #88]	; 0x58
 8002cd4:	4602      	mov	r2, r0
 8002cd6:	b920      	cbnz	r0, 8002ce2 <strtok+0x26>
 8002cd8:	4b10      	ldr	r3, [pc, #64]	; (8002d1c <strtok+0x60>)
 8002cda:	4811      	ldr	r0, [pc, #68]	; (8002d20 <strtok+0x64>)
 8002cdc:	2157      	movs	r1, #87	; 0x57
 8002cde:	f000 f849 	bl	8002d74 <__assert_func>
 8002ce2:	e9c0 4400 	strd	r4, r4, [r0]
 8002ce6:	e9c0 4402 	strd	r4, r4, [r0, #8]
 8002cea:	e9c0 4404 	strd	r4, r4, [r0, #16]
 8002cee:	e9c0 440a 	strd	r4, r4, [r0, #40]	; 0x28
 8002cf2:	e9c0 440c 	strd	r4, r4, [r0, #48]	; 0x30
 8002cf6:	e9c0 440e 	strd	r4, r4, [r0, #56]	; 0x38
 8002cfa:	e9c0 4410 	strd	r4, r4, [r0, #64]	; 0x40
 8002cfe:	e9c0 4412 	strd	r4, r4, [r0, #72]	; 0x48
 8002d02:	6184      	str	r4, [r0, #24]
 8002d04:	7704      	strb	r4, [r0, #28]
 8002d06:	6244      	str	r4, [r0, #36]	; 0x24
 8002d08:	6db2      	ldr	r2, [r6, #88]	; 0x58
 8002d0a:	2301      	movs	r3, #1
 8002d0c:	4628      	mov	r0, r5
 8002d0e:	b002      	add	sp, #8
 8002d10:	e8bd 4070 	ldmia.w	sp!, {r4, r5, r6, lr}
 8002d14:	f000 b806 	b.w	8002d24 <__strtok_r>
 8002d18:	2000002c 	.word	0x2000002c
 8002d1c:	08004140 	.word	0x08004140
 8002d20:	08004157 	.word	0x08004157

08002d24 <__strtok_r>:
 8002d24:	b5f0      	push	{r4, r5, r6, r7, lr}
 8002d26:	b908      	cbnz	r0, 8002d2c <__strtok_r+0x8>
 8002d28:	6810      	ldr	r0, [r2, #0]
 8002d2a:	b188      	cbz	r0, 8002d50 <__strtok_r+0x2c>
 8002d2c:	4604      	mov	r4, r0
 8002d2e:	4620      	mov	r0, r4
 8002d30:	f814 5b01 	ldrb.w	r5, [r4], #1
 8002d34:	460f      	mov	r7, r1
 8002d36:	f817 6b01 	ldrb.w	r6, [r7], #1
 8002d3a:	b91e      	cbnz	r6, 8002d44 <__strtok_r+0x20>
 8002d3c:	b965      	cbnz	r5, 8002d58 <__strtok_r+0x34>
 8002d3e:	6015      	str	r5, [r2, #0]
 8002d40:	4628      	mov	r0, r5
 8002d42:	e005      	b.n	8002d50 <__strtok_r+0x2c>
 8002d44:	42b5      	cmp	r5, r6
 8002d46:	d1f6      	bne.n	8002d36 <__strtok_r+0x12>
 8002d48:	2b00      	cmp	r3, #0
 8002d4a:	d1f0      	bne.n	8002d2e <__strtok_r+0xa>
 8002d4c:	6014      	str	r4, [r2, #0]
 8002d4e:	7003      	strb	r3, [r0, #0]
 8002d50:	bdf0      	pop	{r4, r5, r6, r7, pc}
 8002d52:	461c      	mov	r4, r3
 8002d54:	e00c      	b.n	8002d70 <__strtok_r+0x4c>
 8002d56:	b915      	cbnz	r5, 8002d5e <__strtok_r+0x3a>
 8002d58:	f814 3b01 	ldrb.w	r3, [r4], #1
 8002d5c:	460e      	mov	r6, r1
 8002d5e:	f816 5b01 	ldrb.w	r5, [r6], #1
 8002d62:	42ab      	cmp	r3, r5
 8002d64:	d1f7      	bne.n	8002d56 <__strtok_r+0x32>
 8002d66:	2b00      	cmp	r3, #0
 8002d68:	d0f3      	beq.n	8002d52 <__strtok_r+0x2e>
 8002d6a:	2300      	movs	r3, #0
 8002d6c:	f804 3c01 	strb.w	r3, [r4, #-1]
 8002d70:	6014      	str	r4, [r2, #0]
 8002d72:	e7ed      	b.n	8002d50 <__strtok_r+0x2c>

08002d74 <__assert_func>:
 8002d74:	b51f      	push	{r0, r1, r2, r3, r4, lr}
 8002d76:	4614      	mov	r4, r2
 8002d78:	461a      	mov	r2, r3
 8002d7a:	4b09      	ldr	r3, [pc, #36]	; (8002da0 <__assert_func+0x2c>)
 8002d7c:	681b      	ldr	r3, [r3, #0]
 8002d7e:	4605      	mov	r5, r0
 8002d80:	68d8      	ldr	r0, [r3, #12]
 8002d82:	b14c      	cbz	r4, 8002d98 <__assert_func+0x24>
 8002d84:	4b07      	ldr	r3, [pc, #28]	; (8002da4 <__assert_func+0x30>)
 8002d86:	9100      	str	r1, [sp, #0]
 8002d88:	e9cd 3401 	strd	r3, r4, [sp, #4]
 8002d8c:	4906      	ldr	r1, [pc, #24]	; (8002da8 <__assert_func+0x34>)
 8002d8e:	462b      	mov	r3, r5
 8002d90:	f000 f80e 	bl	8002db0 <fiprintf>
 8002d94:	f000 fdea 	bl	800396c <abort>
 8002d98:	4b04      	ldr	r3, [pc, #16]	; (8002dac <__assert_func+0x38>)
 8002d9a:	461c      	mov	r4, r3
 8002d9c:	e7f3      	b.n	8002d86 <__assert_func+0x12>
 8002d9e:	bf00      	nop
 8002da0:	2000002c 	.word	0x2000002c
 8002da4:	080041b8 	.word	0x080041b8
 8002da8:	080041c5 	.word	0x080041c5
 8002dac:	08004133 	.word	0x08004133

08002db0 <fiprintf>:
 8002db0:	b40e      	push	{r1, r2, r3}
 8002db2:	b503      	push	{r0, r1, lr}
 8002db4:	4601      	mov	r1, r0
 8002db6:	ab03      	add	r3, sp, #12
 8002db8:	4805      	ldr	r0, [pc, #20]	; (8002dd0 <fiprintf+0x20>)
 8002dba:	f853 2b04 	ldr.w	r2, [r3], #4
 8002dbe:	6800      	ldr	r0, [r0, #0]
 8002dc0:	9301      	str	r3, [sp, #4]
 8002dc2:	f000 fa3f 	bl	8003244 <_vfiprintf_r>
 8002dc6:	b002      	add	sp, #8
 8002dc8:	f85d eb04 	ldr.w	lr, [sp], #4
 8002dcc:	b003      	add	sp, #12
 8002dce:	4770      	bx	lr
 8002dd0:	2000002c 	.word	0x2000002c

08002dd4 <malloc>:
 8002dd4:	4b02      	ldr	r3, [pc, #8]	; (8002de0 <malloc+0xc>)
 8002dd6:	4601      	mov	r1, r0
 8002dd8:	6818      	ldr	r0, [r3, #0]
 8002dda:	f000 b853 	b.w	8002e84 <_malloc_r>
 8002dde:	bf00      	nop
 8002de0:	2000002c 	.word	0x2000002c

08002de4 <_free_r>:
 8002de4:	b537      	push	{r0, r1, r2, r4, r5, lr}
 8002de6:	2900      	cmp	r1, #0
 8002de8:	d048      	beq.n	8002e7c <_free_r+0x98>
 8002dea:	f851 3c04 	ldr.w	r3, [r1, #-4]
 8002dee:	9001      	str	r0, [sp, #4]
 8002df0:	2b00      	cmp	r3, #0
 8002df2:	f1a1 0404 	sub.w	r4, r1, #4
 8002df6:	bfb8      	it	lt
 8002df8:	18e4      	addlt	r4, r4, r3
 8002dfa:	f001 f805 	bl	8003e08 <__malloc_lock>
 8002dfe:	4a20      	ldr	r2, [pc, #128]	; (8002e80 <_free_r+0x9c>)
 8002e00:	9801      	ldr	r0, [sp, #4]
 8002e02:	6813      	ldr	r3, [r2, #0]
 8002e04:	4615      	mov	r5, r2
 8002e06:	b933      	cbnz	r3, 8002e16 <_free_r+0x32>
 8002e08:	6063      	str	r3, [r4, #4]
 8002e0a:	6014      	str	r4, [r2, #0]
 8002e0c:	b003      	add	sp, #12
 8002e0e:	e8bd 4030 	ldmia.w	sp!, {r4, r5, lr}
 8002e12:	f000 bfff 	b.w	8003e14 <__malloc_unlock>
 8002e16:	42a3      	cmp	r3, r4
 8002e18:	d90b      	bls.n	8002e32 <_free_r+0x4e>
 8002e1a:	6821      	ldr	r1, [r4, #0]
 8002e1c:	1862      	adds	r2, r4, r1
 8002e1e:	4293      	cmp	r3, r2
 8002e20:	bf04      	itt	eq
 8002e22:	681a      	ldreq	r2, [r3, #0]
 8002e24:	685b      	ldreq	r3, [r3, #4]
 8002e26:	6063      	str	r3, [r4, #4]
 8002e28:	bf04      	itt	eq
 8002e2a:	1852      	addeq	r2, r2, r1
 8002e2c:	6022      	streq	r2, [r4, #0]
 8002e2e:	602c      	str	r4, [r5, #0]
 8002e30:	e7ec      	b.n	8002e0c <_free_r+0x28>
 8002e32:	461a      	mov	r2, r3
 8002e34:	685b      	ldr	r3, [r3, #4]
 8002e36:	b10b      	cbz	r3, 8002e3c <_free_r+0x58>
 8002e38:	42a3      	cmp	r3, r4
 8002e3a:	d9fa      	bls.n	8002e32 <_free_r+0x4e>
 8002e3c:	6811      	ldr	r1, [r2, #0]
 8002e3e:	1855      	adds	r5, r2, r1
 8002e40:	42a5      	cmp	r5, r4
 8002e42:	d10b      	bne.n	8002e5c <_free_r+0x78>
 8002e44:	6824      	ldr	r4, [r4, #0]
 8002e46:	4421      	add	r1, r4
 8002e48:	1854      	adds	r4, r2, r1
 8002e4a:	42a3      	cmp	r3, r4
 8002e4c:	6011      	str	r1, [r2, #0]
 8002e4e:	d1dd      	bne.n	8002e0c <_free_r+0x28>
 8002e50:	681c      	ldr	r4, [r3, #0]
 8002e52:	685b      	ldr	r3, [r3, #4]
 8002e54:	6053      	str	r3, [r2, #4]
 8002e56:	4421      	add	r1, r4
 8002e58:	6011      	str	r1, [r2, #0]
 8002e5a:	e7d7      	b.n	8002e0c <_free_r+0x28>
 8002e5c:	d902      	bls.n	8002e64 <_free_r+0x80>
 8002e5e:	230c      	movs	r3, #12
 8002e60:	6003      	str	r3, [r0, #0]
 8002e62:	e7d3      	b.n	8002e0c <_free_r+0x28>
 8002e64:	6825      	ldr	r5, [r4, #0]
 8002e66:	1961      	adds	r1, r4, r5
 8002e68:	428b      	cmp	r3, r1
 8002e6a:	bf04      	itt	eq
 8002e6c:	6819      	ldreq	r1, [r3, #0]
 8002e6e:	685b      	ldreq	r3, [r3, #4]
 8002e70:	6063      	str	r3, [r4, #4]
 8002e72:	bf04      	itt	eq
 8002e74:	1949      	addeq	r1, r1, r5
 8002e76:	6021      	streq	r1, [r4, #0]
 8002e78:	6054      	str	r4, [r2, #4]
 8002e7a:	e7c7      	b.n	8002e0c <_free_r+0x28>
 8002e7c:	b003      	add	sp, #12
 8002e7e:	bd30      	pop	{r4, r5, pc}
 8002e80:	200000b4 	.word	0x200000b4

08002e84 <_malloc_r>:
 8002e84:	b5f8      	push	{r3, r4, r5, r6, r7, lr}
 8002e86:	1ccd      	adds	r5, r1, #3
 8002e88:	f025 0503 	bic.w	r5, r5, #3
 8002e8c:	3508      	adds	r5, #8
 8002e8e:	2d0c      	cmp	r5, #12
 8002e90:	bf38      	it	cc
 8002e92:	250c      	movcc	r5, #12
 8002e94:	2d00      	cmp	r5, #0
 8002e96:	4606      	mov	r6, r0
 8002e98:	db01      	blt.n	8002e9e <_malloc_r+0x1a>
 8002e9a:	42a9      	cmp	r1, r5
 8002e9c:	d903      	bls.n	8002ea6 <_malloc_r+0x22>
 8002e9e:	230c      	movs	r3, #12
 8002ea0:	6033      	str	r3, [r6, #0]
 8002ea2:	2000      	movs	r0, #0
 8002ea4:	bdf8      	pop	{r3, r4, r5, r6, r7, pc}
 8002ea6:	f000 ffaf 	bl	8003e08 <__malloc_lock>
 8002eaa:	4921      	ldr	r1, [pc, #132]	; (8002f30 <_malloc_r+0xac>)
 8002eac:	680a      	ldr	r2, [r1, #0]
 8002eae:	4614      	mov	r4, r2
 8002eb0:	b99c      	cbnz	r4, 8002eda <_malloc_r+0x56>
 8002eb2:	4f20      	ldr	r7, [pc, #128]	; (8002f34 <_malloc_r+0xb0>)
 8002eb4:	683b      	ldr	r3, [r7, #0]
 8002eb6:	b923      	cbnz	r3, 8002ec2 <_malloc_r+0x3e>
 8002eb8:	4621      	mov	r1, r4
 8002eba:	4630      	mov	r0, r6
 8002ebc:	f000 fc86 	bl	80037cc <_sbrk_r>
 8002ec0:	6038      	str	r0, [r7, #0]
 8002ec2:	4629      	mov	r1, r5
 8002ec4:	4630      	mov	r0, r6
 8002ec6:	f000 fc81 	bl	80037cc <_sbrk_r>
 8002eca:	1c43      	adds	r3, r0, #1
 8002ecc:	d123      	bne.n	8002f16 <_malloc_r+0x92>
 8002ece:	230c      	movs	r3, #12
 8002ed0:	6033      	str	r3, [r6, #0]
 8002ed2:	4630      	mov	r0, r6
 8002ed4:	f000 ff9e 	bl	8003e14 <__malloc_unlock>
 8002ed8:	e7e3      	b.n	8002ea2 <_malloc_r+0x1e>
 8002eda:	6823      	ldr	r3, [r4, #0]
 8002edc:	1b5b      	subs	r3, r3, r5
 8002ede:	d417      	bmi.n	8002f10 <_malloc_r+0x8c>
 8002ee0:	2b0b      	cmp	r3, #11
 8002ee2:	d903      	bls.n	8002eec <_malloc_r+0x68>
 8002ee4:	6023      	str	r3, [r4, #0]
 8002ee6:	441c      	add	r4, r3
 8002ee8:	6025      	str	r5, [r4, #0]
 8002eea:	e004      	b.n	8002ef6 <_malloc_r+0x72>
 8002eec:	6863      	ldr	r3, [r4, #4]
 8002eee:	42a2      	cmp	r2, r4
 8002ef0:	bf0c      	ite	eq
 8002ef2:	600b      	streq	r3, [r1, #0]
 8002ef4:	6053      	strne	r3, [r2, #4]
 8002ef6:	4630      	mov	r0, r6
 8002ef8:	f000 ff8c 	bl	8003e14 <__malloc_unlock>
 8002efc:	f104 000b 	add.w	r0, r4, #11
 8002f00:	1d23      	adds	r3, r4, #4
 8002f02:	f020 0007 	bic.w	r0, r0, #7
 8002f06:	1ac2      	subs	r2, r0, r3
 8002f08:	d0cc      	beq.n	8002ea4 <_malloc_r+0x20>
 8002f0a:	1a1b      	subs	r3, r3, r0
 8002f0c:	50a3      	str	r3, [r4, r2]
 8002f0e:	e7c9      	b.n	8002ea4 <_malloc_r+0x20>
 8002f10:	4622      	mov	r2, r4
 8002f12:	6864      	ldr	r4, [r4, #4]
 8002f14:	e7cc      	b.n	8002eb0 <_malloc_r+0x2c>
 8002f16:	1cc4      	adds	r4, r0, #3
 8002f18:	f024 0403 	bic.w	r4, r4, #3
 8002f1c:	42a0      	cmp	r0, r4
 8002f1e:	d0e3      	beq.n	8002ee8 <_malloc_r+0x64>
 8002f20:	1a21      	subs	r1, r4, r0
 8002f22:	4630      	mov	r0, r6
 8002f24:	f000 fc52 	bl	80037cc <_sbrk_r>
 8002f28:	3001      	adds	r0, #1
 8002f2a:	d1dd      	bne.n	8002ee8 <_malloc_r+0x64>
 8002f2c:	e7cf      	b.n	8002ece <_malloc_r+0x4a>
 8002f2e:	bf00      	nop
 8002f30:	200000b4 	.word	0x200000b4
 8002f34:	200000b8 	.word	0x200000b8

08002f38 <__ssputs_r>:
 8002f38:	e92d 47f0 	stmdb	sp!, {r4, r5, r6, r7, r8, r9, sl, lr}
 8002f3c:	688e      	ldr	r6, [r1, #8]
 8002f3e:	429e      	cmp	r6, r3
 8002f40:	4682      	mov	sl, r0
 8002f42:	460c      	mov	r4, r1
 8002f44:	4690      	mov	r8, r2
 8002f46:	461f      	mov	r7, r3
 8002f48:	d838      	bhi.n	8002fbc <__ssputs_r+0x84>
 8002f4a:	898a      	ldrh	r2, [r1, #12]
 8002f4c:	f412 6f90 	tst.w	r2, #1152	; 0x480
 8002f50:	d032      	beq.n	8002fb8 <__ssputs_r+0x80>
 8002f52:	6825      	ldr	r5, [r4, #0]
 8002f54:	6909      	ldr	r1, [r1, #16]
 8002f56:	eba5 0901 	sub.w	r9, r5, r1
 8002f5a:	6965      	ldr	r5, [r4, #20]
 8002f5c:	eb05 0545 	add.w	r5, r5, r5, lsl #1
 8002f60:	eb05 75d5 	add.w	r5, r5, r5, lsr #31
 8002f64:	3301      	adds	r3, #1
 8002f66:	444b      	add	r3, r9
 8002f68:	106d      	asrs	r5, r5, #1
 8002f6a:	429d      	cmp	r5, r3
 8002f6c:	bf38      	it	cc
 8002f6e:	461d      	movcc	r5, r3
 8002f70:	0553      	lsls	r3, r2, #21
 8002f72:	d531      	bpl.n	8002fd8 <__ssputs_r+0xa0>
 8002f74:	4629      	mov	r1, r5
 8002f76:	f7ff ff85 	bl	8002e84 <_malloc_r>
 8002f7a:	4606      	mov	r6, r0
 8002f7c:	b950      	cbnz	r0, 8002f94 <__ssputs_r+0x5c>
 8002f7e:	230c      	movs	r3, #12
 8002f80:	f8ca 3000 	str.w	r3, [sl]
 8002f84:	89a3      	ldrh	r3, [r4, #12]
 8002f86:	f043 0340 	orr.w	r3, r3, #64	; 0x40
 8002f8a:	81a3      	strh	r3, [r4, #12]
 8002f8c:	f04f 30ff 	mov.w	r0, #4294967295
 8002f90:	e8bd 87f0 	ldmia.w	sp!, {r4, r5, r6, r7, r8, r9, sl, pc}
 8002f94:	6921      	ldr	r1, [r4, #16]
 8002f96:	464a      	mov	r2, r9
 8002f98:	f000 ff0e 	bl	8003db8 <memcpy>
 8002f9c:	89a3      	ldrh	r3, [r4, #12]
 8002f9e:	f423 6390 	bic.w	r3, r3, #1152	; 0x480
 8002fa2:	f043 0380 	orr.w	r3, r3, #128	; 0x80
 8002fa6:	81a3      	strh	r3, [r4, #12]
 8002fa8:	6126      	str	r6, [r4, #16]
 8002faa:	6165      	str	r5, [r4, #20]
 8002fac:	444e      	add	r6, r9
 8002fae:	eba5 0509 	sub.w	r5, r5, r9
 8002fb2:	6026      	str	r6, [r4, #0]
 8002fb4:	60a5      	str	r5, [r4, #8]
 8002fb6:	463e      	mov	r6, r7
 8002fb8:	42be      	cmp	r6, r7
 8002fba:	d900      	bls.n	8002fbe <__ssputs_r+0x86>
 8002fbc:	463e      	mov	r6, r7
 8002fbe:	4632      	mov	r2, r6
 8002fc0:	6820      	ldr	r0, [r4, #0]
 8002fc2:	4641      	mov	r1, r8
 8002fc4:	f000 ff06 	bl	8003dd4 <memmove>
 8002fc8:	68a3      	ldr	r3, [r4, #8]
 8002fca:	6822      	ldr	r2, [r4, #0]
 8002fcc:	1b9b      	subs	r3, r3, r6
 8002fce:	4432      	add	r2, r6
 8002fd0:	60a3      	str	r3, [r4, #8]
 8002fd2:	6022      	str	r2, [r4, #0]
 8002fd4:	2000      	movs	r0, #0
 8002fd6:	e7db      	b.n	8002f90 <__ssputs_r+0x58>
 8002fd8:	462a      	mov	r2, r5
 8002fda:	f000 ff21 	bl	8003e20 <_realloc_r>
 8002fde:	4606      	mov	r6, r0
 8002fe0:	2800      	cmp	r0, #0
 8002fe2:	d1e1      	bne.n	8002fa8 <__ssputs_r+0x70>
 8002fe4:	6921      	ldr	r1, [r4, #16]
 8002fe6:	4650      	mov	r0, sl
 8002fe8:	f7ff fefc 	bl	8002de4 <_free_r>
 8002fec:	e7c7      	b.n	8002f7e <__ssputs_r+0x46>
	...

08002ff0 <_svfiprintf_r>:
 8002ff0:	e92d 4ff0 	stmdb	sp!, {r4, r5, r6, r7, r8, r9, sl, fp, lr}
 8002ff4:	4698      	mov	r8, r3
 8002ff6:	898b      	ldrh	r3, [r1, #12]
 8002ff8:	061b      	lsls	r3, r3, #24
 8002ffa:	b09d      	sub	sp, #116	; 0x74
 8002ffc:	4607      	mov	r7, r0
 8002ffe:	460d      	mov	r5, r1
 8003000:	4614      	mov	r4, r2
 8003002:	d50e      	bpl.n	8003022 <_svfiprintf_r+0x32>
 8003004:	690b      	ldr	r3, [r1, #16]
 8003006:	b963      	cbnz	r3, 8003022 <_svfiprintf_r+0x32>
 8003008:	2140      	movs	r1, #64	; 0x40
 800300a:	f7ff ff3b 	bl	8002e84 <_malloc_r>
 800300e:	6028      	str	r0, [r5, #0]
 8003010:	6128      	str	r0, [r5, #16]
 8003012:	b920      	cbnz	r0, 800301e <_svfiprintf_r+0x2e>
 8003014:	230c      	movs	r3, #12
 8003016:	603b      	str	r3, [r7, #0]
 8003018:	f04f 30ff 	mov.w	r0, #4294967295
 800301c:	e0d1      	b.n	80031c2 <_svfiprintf_r+0x1d2>
 800301e:	2340      	movs	r3, #64	; 0x40
 8003020:	616b      	str	r3, [r5, #20]
 8003022:	2300      	movs	r3, #0
 8003024:	9309      	str	r3, [sp, #36]	; 0x24
 8003026:	2320      	movs	r3, #32
 8003028:	f88d 3029 	strb.w	r3, [sp, #41]	; 0x29
 800302c:	f8cd 800c 	str.w	r8, [sp, #12]
 8003030:	2330      	movs	r3, #48	; 0x30
 8003032:	f8df 81a8 	ldr.w	r8, [pc, #424]	; 80031dc <_svfiprintf_r+0x1ec>
 8003036:	f88d 302a 	strb.w	r3, [sp, #42]	; 0x2a
 800303a:	f04f 0901 	mov.w	r9, #1
 800303e:	4623      	mov	r3, r4
 8003040:	469a      	mov	sl, r3
 8003042:	f813 2b01 	ldrb.w	r2, [r3], #1
 8003046:	b10a      	cbz	r2, 800304c <_svfiprintf_r+0x5c>
 8003048:	2a25      	cmp	r2, #37	; 0x25
 800304a:	d1f9      	bne.n	8003040 <_svfiprintf_r+0x50>
 800304c:	ebba 0b04 	subs.w	fp, sl, r4
 8003050:	d00b      	beq.n	800306a <_svfiprintf_r+0x7a>
 8003052:	465b      	mov	r3, fp
 8003054:	4622      	mov	r2, r4
 8003056:	4629      	mov	r1, r5
 8003058:	4638      	mov	r0, r7
 800305a:	f7ff ff6d 	bl	8002f38 <__ssputs_r>
 800305e:	3001      	adds	r0, #1
 8003060:	f000 80aa 	beq.w	80031b8 <_svfiprintf_r+0x1c8>
 8003064:	9a09      	ldr	r2, [sp, #36]	; 0x24
 8003066:	445a      	add	r2, fp
 8003068:	9209      	str	r2, [sp, #36]	; 0x24
 800306a:	f89a 3000 	ldrb.w	r3, [sl]
 800306e:	2b00      	cmp	r3, #0
 8003070:	f000 80a2 	beq.w	80031b8 <_svfiprintf_r+0x1c8>
 8003074:	2300      	movs	r3, #0
 8003076:	f04f 32ff 	mov.w	r2, #4294967295
 800307a:	e9cd 2305 	strd	r2, r3, [sp, #20]
 800307e:	f10a 0a01 	add.w	sl, sl, #1
 8003082:	9304      	str	r3, [sp, #16]
 8003084:	9307      	str	r3, [sp, #28]
 8003086:	f88d 3053 	strb.w	r3, [sp, #83]	; 0x53
 800308a:	931a      	str	r3, [sp, #104]	; 0x68
 800308c:	4654      	mov	r4, sl
 800308e:	2205      	movs	r2, #5
 8003090:	f814 1b01 	ldrb.w	r1, [r4], #1
 8003094:	4851      	ldr	r0, [pc, #324]	; (80031dc <_svfiprintf_r+0x1ec>)
 8003096:	f7fd f8b3 	bl	8000200 <memchr>
 800309a:	9a04      	ldr	r2, [sp, #16]
 800309c:	b9d8      	cbnz	r0, 80030d6 <_svfiprintf_r+0xe6>
 800309e:	06d0      	lsls	r0, r2, #27
 80030a0:	bf44      	itt	mi
 80030a2:	2320      	movmi	r3, #32
 80030a4:	f88d 3053 	strbmi.w	r3, [sp, #83]	; 0x53
 80030a8:	0711      	lsls	r1, r2, #28
 80030aa:	bf44      	itt	mi
 80030ac:	232b      	movmi	r3, #43	; 0x2b
 80030ae:	f88d 3053 	strbmi.w	r3, [sp, #83]	; 0x53
 80030b2:	f89a 3000 	ldrb.w	r3, [sl]
 80030b6:	2b2a      	cmp	r3, #42	; 0x2a
 80030b8:	d015      	beq.n	80030e6 <_svfiprintf_r+0xf6>
 80030ba:	9a07      	ldr	r2, [sp, #28]
 80030bc:	4654      	mov	r4, sl
 80030be:	2000      	movs	r0, #0
 80030c0:	f04f 0c0a 	mov.w	ip, #10
 80030c4:	4621      	mov	r1, r4
 80030c6:	f811 3b01 	ldrb.w	r3, [r1], #1
 80030ca:	3b30      	subs	r3, #48	; 0x30
 80030cc:	2b09      	cmp	r3, #9
 80030ce:	d94e      	bls.n	800316e <_svfiprintf_r+0x17e>
 80030d0:	b1b0      	cbz	r0, 8003100 <_svfiprintf_r+0x110>
 80030d2:	9207      	str	r2, [sp, #28]
 80030d4:	e014      	b.n	8003100 <_svfiprintf_r+0x110>
 80030d6:	eba0 0308 	sub.w	r3, r0, r8
 80030da:	fa09 f303 	lsl.w	r3, r9, r3
 80030de:	4313      	orrs	r3, r2
 80030e0:	9304      	str	r3, [sp, #16]
 80030e2:	46a2      	mov	sl, r4
 80030e4:	e7d2      	b.n	800308c <_svfiprintf_r+0x9c>
 80030e6:	9b03      	ldr	r3, [sp, #12]
 80030e8:	1d19      	adds	r1, r3, #4
 80030ea:	681b      	ldr	r3, [r3, #0]
 80030ec:	9103      	str	r1, [sp, #12]
 80030ee:	2b00      	cmp	r3, #0
 80030f0:	bfbb      	ittet	lt
 80030f2:	425b      	neglt	r3, r3
 80030f4:	f042 0202 	orrlt.w	r2, r2, #2
 80030f8:	9307      	strge	r3, [sp, #28]
 80030fa:	9307      	strlt	r3, [sp, #28]
 80030fc:	bfb8      	it	lt
 80030fe:	9204      	strlt	r2, [sp, #16]
 8003100:	7823      	ldrb	r3, [r4, #0]
 8003102:	2b2e      	cmp	r3, #46	; 0x2e
 8003104:	d10c      	bne.n	8003120 <_svfiprintf_r+0x130>
 8003106:	7863      	ldrb	r3, [r4, #1]
 8003108:	2b2a      	cmp	r3, #42	; 0x2a
 800310a:	d135      	bne.n	8003178 <_svfiprintf_r+0x188>
 800310c:	9b03      	ldr	r3, [sp, #12]
 800310e:	1d1a      	adds	r2, r3, #4
 8003110:	681b      	ldr	r3, [r3, #0]
 8003112:	9203      	str	r2, [sp, #12]
 8003114:	2b00      	cmp	r3, #0
 8003116:	bfb8      	it	lt
 8003118:	f04f 33ff 	movlt.w	r3, #4294967295
 800311c:	3402      	adds	r4, #2
 800311e:	9305      	str	r3, [sp, #20]
 8003120:	f8df a0c8 	ldr.w	sl, [pc, #200]	; 80031ec <_svfiprintf_r+0x1fc>
 8003124:	7821      	ldrb	r1, [r4, #0]
 8003126:	2203      	movs	r2, #3
 8003128:	4650      	mov	r0, sl
 800312a:	f7fd f869 	bl	8000200 <memchr>
 800312e:	b140      	cbz	r0, 8003142 <_svfiprintf_r+0x152>
 8003130:	2340      	movs	r3, #64	; 0x40
 8003132:	eba0 000a 	sub.w	r0, r0, sl
 8003136:	fa03 f000 	lsl.w	r0, r3, r0
 800313a:	9b04      	ldr	r3, [sp, #16]
 800313c:	4303      	orrs	r3, r0
 800313e:	3401      	adds	r4, #1
 8003140:	9304      	str	r3, [sp, #16]
 8003142:	f814 1b01 	ldrb.w	r1, [r4], #1
 8003146:	4826      	ldr	r0, [pc, #152]	; (80031e0 <_svfiprintf_r+0x1f0>)
 8003148:	f88d 1028 	strb.w	r1, [sp, #40]	; 0x28
 800314c:	2206      	movs	r2, #6
 800314e:	f7fd f857 	bl	8000200 <memchr>
 8003152:	2800      	cmp	r0, #0
 8003154:	d038      	beq.n	80031c8 <_svfiprintf_r+0x1d8>
 8003156:	4b23      	ldr	r3, [pc, #140]	; (80031e4 <_svfiprintf_r+0x1f4>)
 8003158:	bb1b      	cbnz	r3, 80031a2 <_svfiprintf_r+0x1b2>
 800315a:	9b03      	ldr	r3, [sp, #12]
 800315c:	3307      	adds	r3, #7
 800315e:	f023 0307 	bic.w	r3, r3, #7
 8003162:	3308      	adds	r3, #8
 8003164:	9303      	str	r3, [sp, #12]
 8003166:	9b09      	ldr	r3, [sp, #36]	; 0x24
 8003168:	4433      	add	r3, r6
 800316a:	9309      	str	r3, [sp, #36]	; 0x24
 800316c:	e767      	b.n	800303e <_svfiprintf_r+0x4e>
 800316e:	fb0c 3202 	mla	r2, ip, r2, r3
 8003172:	460c      	mov	r4, r1
 8003174:	2001      	movs	r0, #1
 8003176:	e7a5      	b.n	80030c4 <_svfiprintf_r+0xd4>
 8003178:	2300      	movs	r3, #0
 800317a:	3401      	adds	r4, #1
 800317c:	9305      	str	r3, [sp, #20]
 800317e:	4619      	mov	r1, r3
 8003180:	f04f 0c0a 	mov.w	ip, #10
 8003184:	4620      	mov	r0, r4
 8003186:	f810 2b01 	ldrb.w	r2, [r0], #1
 800318a:	3a30      	subs	r2, #48	; 0x30
 800318c:	2a09      	cmp	r2, #9
 800318e:	d903      	bls.n	8003198 <_svfiprintf_r+0x1a8>
 8003190:	2b00      	cmp	r3, #0
 8003192:	d0c5      	beq.n	8003120 <_svfiprintf_r+0x130>
 8003194:	9105      	str	r1, [sp, #20]
 8003196:	e7c3      	b.n	8003120 <_svfiprintf_r+0x130>
 8003198:	fb0c 2101 	mla	r1, ip, r1, r2
 800319c:	4604      	mov	r4, r0
 800319e:	2301      	movs	r3, #1
 80031a0:	e7f0      	b.n	8003184 <_svfiprintf_r+0x194>
 80031a2:	ab03      	add	r3, sp, #12
 80031a4:	9300      	str	r3, [sp, #0]
 80031a6:	462a      	mov	r2, r5
 80031a8:	4b0f      	ldr	r3, [pc, #60]	; (80031e8 <_svfiprintf_r+0x1f8>)
 80031aa:	a904      	add	r1, sp, #16
 80031ac:	4638      	mov	r0, r7
 80031ae:	f3af 8000 	nop.w
 80031b2:	1c42      	adds	r2, r0, #1
 80031b4:	4606      	mov	r6, r0
 80031b6:	d1d6      	bne.n	8003166 <_svfiprintf_r+0x176>
 80031b8:	89ab      	ldrh	r3, [r5, #12]
 80031ba:	065b      	lsls	r3, r3, #25
 80031bc:	f53f af2c 	bmi.w	8003018 <_svfiprintf_r+0x28>
 80031c0:	9809      	ldr	r0, [sp, #36]	; 0x24
 80031c2:	b01d      	add	sp, #116	; 0x74
 80031c4:	e8bd 8ff0 	ldmia.w	sp!, {r4, r5, r6, r7, r8, r9, sl, fp, pc}
 80031c8:	ab03      	add	r3, sp, #12
 80031ca:	9300      	str	r3, [sp, #0]
 80031cc:	462a      	mov	r2, r5
 80031ce:	4b06      	ldr	r3, [pc, #24]	; (80031e8 <_svfiprintf_r+0x1f8>)
 80031d0:	a904      	add	r1, sp, #16
 80031d2:	4638      	mov	r0, r7
 80031d4:	f000 f9d4 	bl	8003580 <_printf_i>
 80031d8:	e7eb      	b.n	80031b2 <_svfiprintf_r+0x1c2>
 80031da:	bf00      	nop
 80031dc:	080041f4 	.word	0x080041f4
 80031e0:	080041fe 	.word	0x080041fe
 80031e4:	00000000 	.word	0x00000000
 80031e8:	08002f39 	.word	0x08002f39
 80031ec:	080041fa 	.word	0x080041fa

080031f0 <__sfputc_r>:
 80031f0:	6893      	ldr	r3, [r2, #8]
 80031f2:	3b01      	subs	r3, #1
 80031f4:	2b00      	cmp	r3, #0
 80031f6:	b410      	push	{r4}
 80031f8:	6093      	str	r3, [r2, #8]
 80031fa:	da08      	bge.n	800320e <__sfputc_r+0x1e>
 80031fc:	6994      	ldr	r4, [r2, #24]
 80031fe:	42a3      	cmp	r3, r4
 8003200:	db01      	blt.n	8003206 <__sfputc_r+0x16>
 8003202:	290a      	cmp	r1, #10
 8003204:	d103      	bne.n	800320e <__sfputc_r+0x1e>
 8003206:	f85d 4b04 	ldr.w	r4, [sp], #4
 800320a:	f000 baef 	b.w	80037ec <__swbuf_r>
 800320e:	6813      	ldr	r3, [r2, #0]
 8003210:	1c58      	adds	r0, r3, #1
 8003212:	6010      	str	r0, [r2, #0]
 8003214:	7019      	strb	r1, [r3, #0]
 8003216:	4608      	mov	r0, r1
 8003218:	f85d 4b04 	ldr.w	r4, [sp], #4
 800321c:	4770      	bx	lr

0800321e <__sfputs_r>:
 800321e:	b5f8      	push	{r3, r4, r5, r6, r7, lr}
 8003220:	4606      	mov	r6, r0
 8003222:	460f      	mov	r7, r1
 8003224:	4614      	mov	r4, r2
 8003226:	18d5      	adds	r5, r2, r3
 8003228:	42ac      	cmp	r4, r5
 800322a:	d101      	bne.n	8003230 <__sfputs_r+0x12>
 800322c:	2000      	movs	r0, #0
 800322e:	e007      	b.n	8003240 <__sfputs_r+0x22>
 8003230:	f814 1b01 	ldrb.w	r1, [r4], #1
 8003234:	463a      	mov	r2, r7
 8003236:	4630      	mov	r0, r6
 8003238:	f7ff ffda 	bl	80031f0 <__sfputc_r>
 800323c:	1c43      	adds	r3, r0, #1
 800323e:	d1f3      	bne.n	8003228 <__sfputs_r+0xa>
 8003240:	bdf8      	pop	{r3, r4, r5, r6, r7, pc}
	...

08003244 <_vfiprintf_r>:
 8003244:	e92d 4ff0 	stmdb	sp!, {r4, r5, r6, r7, r8, r9, sl, fp, lr}
 8003248:	460d      	mov	r5, r1
 800324a:	b09d      	sub	sp, #116	; 0x74
 800324c:	4614      	mov	r4, r2
 800324e:	4698      	mov	r8, r3
 8003250:	4606      	mov	r6, r0
 8003252:	b118      	cbz	r0, 800325c <_vfiprintf_r+0x18>
 8003254:	6983      	ldr	r3, [r0, #24]
 8003256:	b90b      	cbnz	r3, 800325c <_vfiprintf_r+0x18>
 8003258:	f000 fcaa 	bl	8003bb0 <__sinit>
 800325c:	4b89      	ldr	r3, [pc, #548]	; (8003484 <_vfiprintf_r+0x240>)
 800325e:	429d      	cmp	r5, r3
 8003260:	d11b      	bne.n	800329a <_vfiprintf_r+0x56>
 8003262:	6875      	ldr	r5, [r6, #4]
 8003264:	6e6b      	ldr	r3, [r5, #100]	; 0x64
 8003266:	07d9      	lsls	r1, r3, #31
 8003268:	d405      	bmi.n	8003276 <_vfiprintf_r+0x32>
 800326a:	89ab      	ldrh	r3, [r5, #12]
 800326c:	059a      	lsls	r2, r3, #22
 800326e:	d402      	bmi.n	8003276 <_vfiprintf_r+0x32>
 8003270:	6da8      	ldr	r0, [r5, #88]	; 0x58
 8003272:	f000 fd3b 	bl	8003cec <__retarget_lock_acquire_recursive>
 8003276:	89ab      	ldrh	r3, [r5, #12]
 8003278:	071b      	lsls	r3, r3, #28
 800327a:	d501      	bpl.n	8003280 <_vfiprintf_r+0x3c>
 800327c:	692b      	ldr	r3, [r5, #16]
 800327e:	b9eb      	cbnz	r3, 80032bc <_vfiprintf_r+0x78>
 8003280:	4629      	mov	r1, r5
 8003282:	4630      	mov	r0, r6
 8003284:	f000 fb04 	bl	8003890 <__swsetup_r>
 8003288:	b1c0      	cbz	r0, 80032bc <_vfiprintf_r+0x78>
 800328a:	6e6b      	ldr	r3, [r5, #100]	; 0x64
 800328c:	07dc      	lsls	r4, r3, #31
 800328e:	d50e      	bpl.n	80032ae <_vfiprintf_r+0x6a>
 8003290:	f04f 30ff 	mov.w	r0, #4294967295
 8003294:	b01d      	add	sp, #116	; 0x74
 8003296:	e8bd 8ff0 	ldmia.w	sp!, {r4, r5, r6, r7, r8, r9, sl, fp, pc}
 800329a:	4b7b      	ldr	r3, [pc, #492]	; (8003488 <_vfiprintf_r+0x244>)
 800329c:	429d      	cmp	r5, r3
 800329e:	d101      	bne.n	80032a4 <_vfiprintf_r+0x60>
 80032a0:	68b5      	ldr	r5, [r6, #8]
 80032a2:	e7df      	b.n	8003264 <_vfiprintf_r+0x20>
 80032a4:	4b79      	ldr	r3, [pc, #484]	; (800348c <_vfiprintf_r+0x248>)
 80032a6:	429d      	cmp	r5, r3
 80032a8:	bf08      	it	eq
 80032aa:	68f5      	ldreq	r5, [r6, #12]
 80032ac:	e7da      	b.n	8003264 <_vfiprintf_r+0x20>
 80032ae:	89ab      	ldrh	r3, [r5, #12]
 80032b0:	0598      	lsls	r0, r3, #22
 80032b2:	d4ed      	bmi.n	8003290 <_vfiprintf_r+0x4c>
 80032b4:	6da8      	ldr	r0, [r5, #88]	; 0x58
 80032b6:	f000 fd1a 	bl	8003cee <__retarget_lock_release_recursive>
 80032ba:	e7e9      	b.n	8003290 <_vfiprintf_r+0x4c>
 80032bc:	2300      	movs	r3, #0
 80032be:	9309      	str	r3, [sp, #36]	; 0x24
 80032c0:	2320      	movs	r3, #32
 80032c2:	f88d 3029 	strb.w	r3, [sp, #41]	; 0x29
 80032c6:	f8cd 800c 	str.w	r8, [sp, #12]
 80032ca:	2330      	movs	r3, #48	; 0x30
 80032cc:	f8df 81c0 	ldr.w	r8, [pc, #448]	; 8003490 <_vfiprintf_r+0x24c>
 80032d0:	f88d 302a 	strb.w	r3, [sp, #42]	; 0x2a
 80032d4:	f04f 0901 	mov.w	r9, #1
 80032d8:	4623      	mov	r3, r4
 80032da:	469a      	mov	sl, r3
 80032dc:	f813 2b01 	ldrb.w	r2, [r3], #1
 80032e0:	b10a      	cbz	r2, 80032e6 <_vfiprintf_r+0xa2>
 80032e2:	2a25      	cmp	r2, #37	; 0x25
 80032e4:	d1f9      	bne.n	80032da <_vfiprintf_r+0x96>
 80032e6:	ebba 0b04 	subs.w	fp, sl, r4
 80032ea:	d00b      	beq.n	8003304 <_vfiprintf_r+0xc0>
 80032ec:	465b      	mov	r3, fp
 80032ee:	4622      	mov	r2, r4
 80032f0:	4629      	mov	r1, r5
 80032f2:	4630      	mov	r0, r6
 80032f4:	f7ff ff93 	bl	800321e <__sfputs_r>
 80032f8:	3001      	adds	r0, #1
 80032fa:	f000 80aa 	beq.w	8003452 <_vfiprintf_r+0x20e>
 80032fe:	9a09      	ldr	r2, [sp, #36]	; 0x24
 8003300:	445a      	add	r2, fp
 8003302:	9209      	str	r2, [sp, #36]	; 0x24
 8003304:	f89a 3000 	ldrb.w	r3, [sl]
 8003308:	2b00      	cmp	r3, #0
 800330a:	f000 80a2 	beq.w	8003452 <_vfiprintf_r+0x20e>
 800330e:	2300      	movs	r3, #0
 8003310:	f04f 32ff 	mov.w	r2, #4294967295
 8003314:	e9cd 2305 	strd	r2, r3, [sp, #20]
 8003318:	f10a 0a01 	add.w	sl, sl, #1
 800331c:	9304      	str	r3, [sp, #16]
 800331e:	9307      	str	r3, [sp, #28]
 8003320:	f88d 3053 	strb.w	r3, [sp, #83]	; 0x53
 8003324:	931a      	str	r3, [sp, #104]	; 0x68
 8003326:	4654      	mov	r4, sl
 8003328:	2205      	movs	r2, #5
 800332a:	f814 1b01 	ldrb.w	r1, [r4], #1
 800332e:	4858      	ldr	r0, [pc, #352]	; (8003490 <_vfiprintf_r+0x24c>)
 8003330:	f7fc ff66 	bl	8000200 <memchr>
 8003334:	9a04      	ldr	r2, [sp, #16]
 8003336:	b9d8      	cbnz	r0, 8003370 <_vfiprintf_r+0x12c>
 8003338:	06d1      	lsls	r1, r2, #27
 800333a:	bf44      	itt	mi
 800333c:	2320      	movmi	r3, #32
 800333e:	f88d 3053 	strbmi.w	r3, [sp, #83]	; 0x53
 8003342:	0713      	lsls	r3, r2, #28
 8003344:	bf44      	itt	mi
 8003346:	232b      	movmi	r3, #43	; 0x2b
 8003348:	f88d 3053 	strbmi.w	r3, [sp, #83]	; 0x53
 800334c:	f89a 3000 	ldrb.w	r3, [sl]
 8003350:	2b2a      	cmp	r3, #42	; 0x2a
 8003352:	d015      	beq.n	8003380 <_vfiprintf_r+0x13c>
 8003354:	9a07      	ldr	r2, [sp, #28]
 8003356:	4654      	mov	r4, sl
 8003358:	2000      	movs	r0, #0
 800335a:	f04f 0c0a 	mov.w	ip, #10
 800335e:	4621      	mov	r1, r4
 8003360:	f811 3b01 	ldrb.w	r3, [r1], #1
 8003364:	3b30      	subs	r3, #48	; 0x30
 8003366:	2b09      	cmp	r3, #9
 8003368:	d94e      	bls.n	8003408 <_vfiprintf_r+0x1c4>
 800336a:	b1b0      	cbz	r0, 800339a <_vfiprintf_r+0x156>
 800336c:	9207      	str	r2, [sp, #28]
 800336e:	e014      	b.n	800339a <_vfiprintf_r+0x156>
 8003370:	eba0 0308 	sub.w	r3, r0, r8
 8003374:	fa09 f303 	lsl.w	r3, r9, r3
 8003378:	4313      	orrs	r3, r2
 800337a:	9304      	str	r3, [sp, #16]
 800337c:	46a2      	mov	sl, r4
 800337e:	e7d2      	b.n	8003326 <_vfiprintf_r+0xe2>
 8003380:	9b03      	ldr	r3, [sp, #12]
 8003382:	1d19      	adds	r1, r3, #4
 8003384:	681b      	ldr	r3, [r3, #0]
 8003386:	9103      	str	r1, [sp, #12]
 8003388:	2b00      	cmp	r3, #0
 800338a:	bfbb      	ittet	lt
 800338c:	425b      	neglt	r3, r3
 800338e:	f042 0202 	orrlt.w	r2, r2, #2
 8003392:	9307      	strge	r3, [sp, #28]
 8003394:	9307      	strlt	r3, [sp, #28]
 8003396:	bfb8      	it	lt
 8003398:	9204      	strlt	r2, [sp, #16]
 800339a:	7823      	ldrb	r3, [r4, #0]
 800339c:	2b2e      	cmp	r3, #46	; 0x2e
 800339e:	d10c      	bne.n	80033ba <_vfiprintf_r+0x176>
 80033a0:	7863      	ldrb	r3, [r4, #1]
 80033a2:	2b2a      	cmp	r3, #42	; 0x2a
 80033a4:	d135      	bne.n	8003412 <_vfiprintf_r+0x1ce>
 80033a6:	9b03      	ldr	r3, [sp, #12]
 80033a8:	1d1a      	adds	r2, r3, #4
 80033aa:	681b      	ldr	r3, [r3, #0]
 80033ac:	9203      	str	r2, [sp, #12]
 80033ae:	2b00      	cmp	r3, #0
 80033b0:	bfb8      	it	lt
 80033b2:	f04f 33ff 	movlt.w	r3, #4294967295
 80033b6:	3402      	adds	r4, #2
 80033b8:	9305      	str	r3, [sp, #20]
 80033ba:	f8df a0e4 	ldr.w	sl, [pc, #228]	; 80034a0 <_vfiprintf_r+0x25c>
 80033be:	7821      	ldrb	r1, [r4, #0]
 80033c0:	2203      	movs	r2, #3
 80033c2:	4650      	mov	r0, sl
 80033c4:	f7fc ff1c 	bl	8000200 <memchr>
 80033c8:	b140      	cbz	r0, 80033dc <_vfiprintf_r+0x198>
 80033ca:	2340      	movs	r3, #64	; 0x40
 80033cc:	eba0 000a 	sub.w	r0, r0, sl
 80033d0:	fa03 f000 	lsl.w	r0, r3, r0
 80033d4:	9b04      	ldr	r3, [sp, #16]
 80033d6:	4303      	orrs	r3, r0
 80033d8:	3401      	adds	r4, #1
 80033da:	9304      	str	r3, [sp, #16]
 80033dc:	f814 1b01 	ldrb.w	r1, [r4], #1
 80033e0:	482c      	ldr	r0, [pc, #176]	; (8003494 <_vfiprintf_r+0x250>)
 80033e2:	f88d 1028 	strb.w	r1, [sp, #40]	; 0x28
 80033e6:	2206      	movs	r2, #6
 80033e8:	f7fc ff0a 	bl	8000200 <memchr>
 80033ec:	2800      	cmp	r0, #0
 80033ee:	d03f      	beq.n	8003470 <_vfiprintf_r+0x22c>
 80033f0:	4b29      	ldr	r3, [pc, #164]	; (8003498 <_vfiprintf_r+0x254>)
 80033f2:	bb1b      	cbnz	r3, 800343c <_vfiprintf_r+0x1f8>
 80033f4:	9b03      	ldr	r3, [sp, #12]
 80033f6:	3307      	adds	r3, #7
 80033f8:	f023 0307 	bic.w	r3, r3, #7
 80033fc:	3308      	adds	r3, #8
 80033fe:	9303      	str	r3, [sp, #12]
 8003400:	9b09      	ldr	r3, [sp, #36]	; 0x24
 8003402:	443b      	add	r3, r7
 8003404:	9309      	str	r3, [sp, #36]	; 0x24
 8003406:	e767      	b.n	80032d8 <_vfiprintf_r+0x94>
 8003408:	fb0c 3202 	mla	r2, ip, r2, r3
 800340c:	460c      	mov	r4, r1
 800340e:	2001      	movs	r0, #1
 8003410:	e7a5      	b.n	800335e <_vfiprintf_r+0x11a>
 8003412:	2300      	movs	r3, #0
 8003414:	3401      	adds	r4, #1
 8003416:	9305      	str	r3, [sp, #20]
 8003418:	4619      	mov	r1, r3
 800341a:	f04f 0c0a 	mov.w	ip, #10
 800341e:	4620      	mov	r0, r4
 8003420:	f810 2b01 	ldrb.w	r2, [r0], #1
 8003424:	3a30      	subs	r2, #48	; 0x30
 8003426:	2a09      	cmp	r2, #9
 8003428:	d903      	bls.n	8003432 <_vfiprintf_r+0x1ee>
 800342a:	2b00      	cmp	r3, #0
 800342c:	d0c5      	beq.n	80033ba <_vfiprintf_r+0x176>
 800342e:	9105      	str	r1, [sp, #20]
 8003430:	e7c3      	b.n	80033ba <_vfiprintf_r+0x176>
 8003432:	fb0c 2101 	mla	r1, ip, r1, r2
 8003436:	4604      	mov	r4, r0
 8003438:	2301      	movs	r3, #1
 800343a:	e7f0      	b.n	800341e <_vfiprintf_r+0x1da>
 800343c:	ab03      	add	r3, sp, #12
 800343e:	9300      	str	r3, [sp, #0]
 8003440:	462a      	mov	r2, r5
 8003442:	4b16      	ldr	r3, [pc, #88]	; (800349c <_vfiprintf_r+0x258>)
 8003444:	a904      	add	r1, sp, #16
 8003446:	4630      	mov	r0, r6
 8003448:	f3af 8000 	nop.w
 800344c:	4607      	mov	r7, r0
 800344e:	1c78      	adds	r0, r7, #1
 8003450:	d1d6      	bne.n	8003400 <_vfiprintf_r+0x1bc>
 8003452:	6e6b      	ldr	r3, [r5, #100]	; 0x64
 8003454:	07d9      	lsls	r1, r3, #31
 8003456:	d405      	bmi.n	8003464 <_vfiprintf_r+0x220>
 8003458:	89ab      	ldrh	r3, [r5, #12]
 800345a:	059a      	lsls	r2, r3, #22
 800345c:	d402      	bmi.n	8003464 <_vfiprintf_r+0x220>
 800345e:	6da8      	ldr	r0, [r5, #88]	; 0x58
 8003460:	f000 fc45 	bl	8003cee <__retarget_lock_release_recursive>
 8003464:	89ab      	ldrh	r3, [r5, #12]
 8003466:	065b      	lsls	r3, r3, #25
 8003468:	f53f af12 	bmi.w	8003290 <_vfiprintf_r+0x4c>
 800346c:	9809      	ldr	r0, [sp, #36]	; 0x24
 800346e:	e711      	b.n	8003294 <_vfiprintf_r+0x50>
 8003470:	ab03      	add	r3, sp, #12
 8003472:	9300      	str	r3, [sp, #0]
 8003474:	462a      	mov	r2, r5
 8003476:	4b09      	ldr	r3, [pc, #36]	; (800349c <_vfiprintf_r+0x258>)
 8003478:	a904      	add	r1, sp, #16
 800347a:	4630      	mov	r0, r6
 800347c:	f000 f880 	bl	8003580 <_printf_i>
 8003480:	e7e4      	b.n	800344c <_vfiprintf_r+0x208>
 8003482:	bf00      	nop
 8003484:	08004248 	.word	0x08004248
 8003488:	08004268 	.word	0x08004268
 800348c:	08004228 	.word	0x08004228
 8003490:	080041f4 	.word	0x080041f4
 8003494:	080041fe 	.word	0x080041fe
 8003498:	00000000 	.word	0x00000000
 800349c:	0800321f 	.word	0x0800321f
 80034a0:	080041fa 	.word	0x080041fa

080034a4 <_printf_common>:
 80034a4:	e92d 47f0 	stmdb	sp!, {r4, r5, r6, r7, r8, r9, sl, lr}
 80034a8:	4616      	mov	r6, r2
 80034aa:	4699      	mov	r9, r3
 80034ac:	688a      	ldr	r2, [r1, #8]
 80034ae:	690b      	ldr	r3, [r1, #16]
 80034b0:	f8dd 8020 	ldr.w	r8, [sp, #32]
 80034b4:	4293      	cmp	r3, r2
 80034b6:	bfb8      	it	lt
 80034b8:	4613      	movlt	r3, r2
 80034ba:	6033      	str	r3, [r6, #0]
 80034bc:	f891 2043 	ldrb.w	r2, [r1, #67]	; 0x43
 80034c0:	4607      	mov	r7, r0
 80034c2:	460c      	mov	r4, r1
 80034c4:	b10a      	cbz	r2, 80034ca <_printf_common+0x26>
 80034c6:	3301      	adds	r3, #1
 80034c8:	6033      	str	r3, [r6, #0]
 80034ca:	6823      	ldr	r3, [r4, #0]
 80034cc:	0699      	lsls	r1, r3, #26
 80034ce:	bf42      	ittt	mi
 80034d0:	6833      	ldrmi	r3, [r6, #0]
 80034d2:	3302      	addmi	r3, #2
 80034d4:	6033      	strmi	r3, [r6, #0]
 80034d6:	6825      	ldr	r5, [r4, #0]
 80034d8:	f015 0506 	ands.w	r5, r5, #6
 80034dc:	d106      	bne.n	80034ec <_printf_common+0x48>
 80034de:	f104 0a19 	add.w	sl, r4, #25
 80034e2:	68e3      	ldr	r3, [r4, #12]
 80034e4:	6832      	ldr	r2, [r6, #0]
 80034e6:	1a9b      	subs	r3, r3, r2
 80034e8:	42ab      	cmp	r3, r5
 80034ea:	dc26      	bgt.n	800353a <_printf_common+0x96>
 80034ec:	f894 2043 	ldrb.w	r2, [r4, #67]	; 0x43
 80034f0:	1e13      	subs	r3, r2, #0
 80034f2:	6822      	ldr	r2, [r4, #0]
 80034f4:	bf18      	it	ne
 80034f6:	2301      	movne	r3, #1
 80034f8:	0692      	lsls	r2, r2, #26
 80034fa:	d42b      	bmi.n	8003554 <_printf_common+0xb0>
 80034fc:	f104 0243 	add.w	r2, r4, #67	; 0x43
 8003500:	4649      	mov	r1, r9
 8003502:	4638      	mov	r0, r7
 8003504:	47c0      	blx	r8
 8003506:	3001      	adds	r0, #1
 8003508:	d01e      	beq.n	8003548 <_printf_common+0xa4>
 800350a:	6823      	ldr	r3, [r4, #0]
 800350c:	68e5      	ldr	r5, [r4, #12]
 800350e:	6832      	ldr	r2, [r6, #0]
 8003510:	f003 0306 	and.w	r3, r3, #6
 8003514:	2b04      	cmp	r3, #4
 8003516:	bf08      	it	eq
 8003518:	1aad      	subeq	r5, r5, r2
 800351a:	68a3      	ldr	r3, [r4, #8]
 800351c:	6922      	ldr	r2, [r4, #16]
 800351e:	bf0c      	ite	eq
 8003520:	ea25 75e5 	biceq.w	r5, r5, r5, asr #31
 8003524:	2500      	movne	r5, #0
 8003526:	4293      	cmp	r3, r2
 8003528:	bfc4      	itt	gt
 800352a:	1a9b      	subgt	r3, r3, r2
 800352c:	18ed      	addgt	r5, r5, r3
 800352e:	2600      	movs	r6, #0
 8003530:	341a      	adds	r4, #26
 8003532:	42b5      	cmp	r5, r6
 8003534:	d11a      	bne.n	800356c <_printf_common+0xc8>
 8003536:	2000      	movs	r0, #0
 8003538:	e008      	b.n	800354c <_printf_common+0xa8>
 800353a:	2301      	movs	r3, #1
 800353c:	4652      	mov	r2, sl
 800353e:	4649      	mov	r1, r9
 8003540:	4638      	mov	r0, r7
 8003542:	47c0      	blx	r8
 8003544:	3001      	adds	r0, #1
 8003546:	d103      	bne.n	8003550 <_printf_common+0xac>
 8003548:	f04f 30ff 	mov.w	r0, #4294967295
 800354c:	e8bd 87f0 	ldmia.w	sp!, {r4, r5, r6, r7, r8, r9, sl, pc}
 8003550:	3501      	adds	r5, #1
 8003552:	e7c6      	b.n	80034e2 <_printf_common+0x3e>
 8003554:	18e1      	adds	r1, r4, r3
 8003556:	1c5a      	adds	r2, r3, #1
 8003558:	2030      	movs	r0, #48	; 0x30
 800355a:	f881 0043 	strb.w	r0, [r1, #67]	; 0x43
 800355e:	4422      	add	r2, r4
 8003560:	f894 1045 	ldrb.w	r1, [r4, #69]	; 0x45
 8003564:	f882 1043 	strb.w	r1, [r2, #67]	; 0x43
 8003568:	3302      	adds	r3, #2
 800356a:	e7c7      	b.n	80034fc <_printf_common+0x58>
 800356c:	2301      	movs	r3, #1
 800356e:	4622      	mov	r2, r4
 8003570:	4649      	mov	r1, r9
 8003572:	4638      	mov	r0, r7
 8003574:	47c0      	blx	r8
 8003576:	3001      	adds	r0, #1
 8003578:	d0e6      	beq.n	8003548 <_printf_common+0xa4>
 800357a:	3601      	adds	r6, #1
 800357c:	e7d9      	b.n	8003532 <_printf_common+0x8e>
	...

08003580 <_printf_i>:
 8003580:	e92d 47ff 	stmdb	sp!, {r0, r1, r2, r3, r4, r5, r6, r7, r8, r9, sl, lr}
 8003584:	460c      	mov	r4, r1
 8003586:	4691      	mov	r9, r2
 8003588:	7e27      	ldrb	r7, [r4, #24]
 800358a:	990c      	ldr	r1, [sp, #48]	; 0x30
 800358c:	2f78      	cmp	r7, #120	; 0x78
 800358e:	4680      	mov	r8, r0
 8003590:	469a      	mov	sl, r3
 8003592:	f104 0243 	add.w	r2, r4, #67	; 0x43
 8003596:	d807      	bhi.n	80035a8 <_printf_i+0x28>
 8003598:	2f62      	cmp	r7, #98	; 0x62
 800359a:	d80a      	bhi.n	80035b2 <_printf_i+0x32>
 800359c:	2f00      	cmp	r7, #0
 800359e:	f000 80d8 	beq.w	8003752 <_printf_i+0x1d2>
 80035a2:	2f58      	cmp	r7, #88	; 0x58
 80035a4:	f000 80a3 	beq.w	80036ee <_printf_i+0x16e>
 80035a8:	f104 0642 	add.w	r6, r4, #66	; 0x42
 80035ac:	f884 7042 	strb.w	r7, [r4, #66]	; 0x42
 80035b0:	e03a      	b.n	8003628 <_printf_i+0xa8>
 80035b2:	f1a7 0363 	sub.w	r3, r7, #99	; 0x63
 80035b6:	2b15      	cmp	r3, #21
 80035b8:	d8f6      	bhi.n	80035a8 <_printf_i+0x28>
 80035ba:	a001      	add	r0, pc, #4	; (adr r0, 80035c0 <_printf_i+0x40>)
 80035bc:	f850 f023 	ldr.w	pc, [r0, r3, lsl #2]
 80035c0:	08003619 	.word	0x08003619
 80035c4:	0800362d 	.word	0x0800362d
 80035c8:	080035a9 	.word	0x080035a9
 80035cc:	080035a9 	.word	0x080035a9
 80035d0:	080035a9 	.word	0x080035a9
 80035d4:	080035a9 	.word	0x080035a9
 80035d8:	0800362d 	.word	0x0800362d
 80035dc:	080035a9 	.word	0x080035a9
 80035e0:	080035a9 	.word	0x080035a9
 80035e4:	080035a9 	.word	0x080035a9
 80035e8:	080035a9 	.word	0x080035a9
 80035ec:	08003739 	.word	0x08003739
 80035f0:	0800365d 	.word	0x0800365d
 80035f4:	0800371b 	.word	0x0800371b
 80035f8:	080035a9 	.word	0x080035a9
 80035fc:	080035a9 	.word	0x080035a9
 8003600:	0800375b 	.word	0x0800375b
 8003604:	080035a9 	.word	0x080035a9
 8003608:	0800365d 	.word	0x0800365d
 800360c:	080035a9 	.word	0x080035a9
 8003610:	080035a9 	.word	0x080035a9
 8003614:	08003723 	.word	0x08003723
 8003618:	680b      	ldr	r3, [r1, #0]
 800361a:	1d1a      	adds	r2, r3, #4
 800361c:	681b      	ldr	r3, [r3, #0]
 800361e:	600a      	str	r2, [r1, #0]
 8003620:	f104 0642 	add.w	r6, r4, #66	; 0x42
 8003624:	f884 3042 	strb.w	r3, [r4, #66]	; 0x42
 8003628:	2301      	movs	r3, #1
 800362a:	e0a3      	b.n	8003774 <_printf_i+0x1f4>
 800362c:	6825      	ldr	r5, [r4, #0]
 800362e:	6808      	ldr	r0, [r1, #0]
 8003630:	062e      	lsls	r6, r5, #24
 8003632:	f100 0304 	add.w	r3, r0, #4
 8003636:	d50a      	bpl.n	800364e <_printf_i+0xce>
 8003638:	6805      	ldr	r5, [r0, #0]
 800363a:	600b      	str	r3, [r1, #0]
 800363c:	2d00      	cmp	r5, #0
 800363e:	da03      	bge.n	8003648 <_printf_i+0xc8>
 8003640:	232d      	movs	r3, #45	; 0x2d
 8003642:	426d      	negs	r5, r5
 8003644:	f884 3043 	strb.w	r3, [r4, #67]	; 0x43
 8003648:	485e      	ldr	r0, [pc, #376]	; (80037c4 <_printf_i+0x244>)
 800364a:	230a      	movs	r3, #10
 800364c:	e019      	b.n	8003682 <_printf_i+0x102>
 800364e:	f015 0f40 	tst.w	r5, #64	; 0x40
 8003652:	6805      	ldr	r5, [r0, #0]
 8003654:	600b      	str	r3, [r1, #0]
 8003656:	bf18      	it	ne
 8003658:	b22d      	sxthne	r5, r5
 800365a:	e7ef      	b.n	800363c <_printf_i+0xbc>
 800365c:	680b      	ldr	r3, [r1, #0]
 800365e:	6825      	ldr	r5, [r4, #0]
 8003660:	1d18      	adds	r0, r3, #4
 8003662:	6008      	str	r0, [r1, #0]
 8003664:	0628      	lsls	r0, r5, #24
 8003666:	d501      	bpl.n	800366c <_printf_i+0xec>
 8003668:	681d      	ldr	r5, [r3, #0]
 800366a:	e002      	b.n	8003672 <_printf_i+0xf2>
 800366c:	0669      	lsls	r1, r5, #25
 800366e:	d5fb      	bpl.n	8003668 <_printf_i+0xe8>
 8003670:	881d      	ldrh	r5, [r3, #0]
 8003672:	4854      	ldr	r0, [pc, #336]	; (80037c4 <_printf_i+0x244>)
 8003674:	2f6f      	cmp	r7, #111	; 0x6f
 8003676:	bf0c      	ite	eq
 8003678:	2308      	moveq	r3, #8
 800367a:	230a      	movne	r3, #10
 800367c:	2100      	movs	r1, #0
 800367e:	f884 1043 	strb.w	r1, [r4, #67]	; 0x43
 8003682:	6866      	ldr	r6, [r4, #4]
 8003684:	60a6      	str	r6, [r4, #8]
 8003686:	2e00      	cmp	r6, #0
 8003688:	bfa2      	ittt	ge
 800368a:	6821      	ldrge	r1, [r4, #0]
 800368c:	f021 0104 	bicge.w	r1, r1, #4
 8003690:	6021      	strge	r1, [r4, #0]
 8003692:	b90d      	cbnz	r5, 8003698 <_printf_i+0x118>
 8003694:	2e00      	cmp	r6, #0
 8003696:	d04d      	beq.n	8003734 <_printf_i+0x1b4>
 8003698:	4616      	mov	r6, r2
 800369a:	fbb5 f1f3 	udiv	r1, r5, r3
 800369e:	fb03 5711 	mls	r7, r3, r1, r5
 80036a2:	5dc7      	ldrb	r7, [r0, r7]
 80036a4:	f806 7d01 	strb.w	r7, [r6, #-1]!
 80036a8:	462f      	mov	r7, r5
 80036aa:	42bb      	cmp	r3, r7
 80036ac:	460d      	mov	r5, r1
 80036ae:	d9f4      	bls.n	800369a <_printf_i+0x11a>
 80036b0:	2b08      	cmp	r3, #8
 80036b2:	d10b      	bne.n	80036cc <_printf_i+0x14c>
 80036b4:	6823      	ldr	r3, [r4, #0]
 80036b6:	07df      	lsls	r7, r3, #31
 80036b8:	d508      	bpl.n	80036cc <_printf_i+0x14c>
 80036ba:	6923      	ldr	r3, [r4, #16]
 80036bc:	6861      	ldr	r1, [r4, #4]
 80036be:	4299      	cmp	r1, r3
 80036c0:	bfde      	ittt	le
 80036c2:	2330      	movle	r3, #48	; 0x30
 80036c4:	f806 3c01 	strble.w	r3, [r6, #-1]
 80036c8:	f106 36ff 	addle.w	r6, r6, #4294967295
 80036cc:	1b92      	subs	r2, r2, r6
 80036ce:	6122      	str	r2, [r4, #16]
 80036d0:	f8cd a000 	str.w	sl, [sp]
 80036d4:	464b      	mov	r3, r9
 80036d6:	aa03      	add	r2, sp, #12
 80036d8:	4621      	mov	r1, r4
 80036da:	4640      	mov	r0, r8
 80036dc:	f7ff fee2 	bl	80034a4 <_printf_common>
 80036e0:	3001      	adds	r0, #1
 80036e2:	d14c      	bne.n	800377e <_printf_i+0x1fe>
 80036e4:	f04f 30ff 	mov.w	r0, #4294967295
 80036e8:	b004      	add	sp, #16
 80036ea:	e8bd 87f0 	ldmia.w	sp!, {r4, r5, r6, r7, r8, r9, sl, pc}
 80036ee:	4835      	ldr	r0, [pc, #212]	; (80037c4 <_printf_i+0x244>)
 80036f0:	f884 7045 	strb.w	r7, [r4, #69]	; 0x45
 80036f4:	6823      	ldr	r3, [r4, #0]
 80036f6:	680e      	ldr	r6, [r1, #0]
 80036f8:	061f      	lsls	r7, r3, #24
 80036fa:	f856 5b04 	ldr.w	r5, [r6], #4
 80036fe:	600e      	str	r6, [r1, #0]
 8003700:	d514      	bpl.n	800372c <_printf_i+0x1ac>
 8003702:	07d9      	lsls	r1, r3, #31
 8003704:	bf44      	itt	mi
 8003706:	f043 0320 	orrmi.w	r3, r3, #32
 800370a:	6023      	strmi	r3, [r4, #0]
 800370c:	b91d      	cbnz	r5, 8003716 <_printf_i+0x196>
 800370e:	6823      	ldr	r3, [r4, #0]
 8003710:	f023 0320 	bic.w	r3, r3, #32
 8003714:	6023      	str	r3, [r4, #0]
 8003716:	2310      	movs	r3, #16
 8003718:	e7b0      	b.n	800367c <_printf_i+0xfc>
 800371a:	6823      	ldr	r3, [r4, #0]
 800371c:	f043 0320 	orr.w	r3, r3, #32
 8003720:	6023      	str	r3, [r4, #0]
 8003722:	2378      	movs	r3, #120	; 0x78
 8003724:	4828      	ldr	r0, [pc, #160]	; (80037c8 <_printf_i+0x248>)
 8003726:	f884 3045 	strb.w	r3, [r4, #69]	; 0x45
 800372a:	e7e3      	b.n	80036f4 <_printf_i+0x174>
 800372c:	065e      	lsls	r6, r3, #25
 800372e:	bf48      	it	mi
 8003730:	b2ad      	uxthmi	r5, r5
 8003732:	e7e6      	b.n	8003702 <_printf_i+0x182>
 8003734:	4616      	mov	r6, r2
 8003736:	e7bb      	b.n	80036b0 <_printf_i+0x130>
 8003738:	680b      	ldr	r3, [r1, #0]
 800373a:	6826      	ldr	r6, [r4, #0]
 800373c:	6960      	ldr	r0, [r4, #20]
 800373e:	1d1d      	adds	r5, r3, #4
 8003740:	600d      	str	r5, [r1, #0]
 8003742:	0635      	lsls	r5, r6, #24
 8003744:	681b      	ldr	r3, [r3, #0]
 8003746:	d501      	bpl.n	800374c <_printf_i+0x1cc>
 8003748:	6018      	str	r0, [r3, #0]
 800374a:	e002      	b.n	8003752 <_printf_i+0x1d2>
 800374c:	0671      	lsls	r1, r6, #25
 800374e:	d5fb      	bpl.n	8003748 <_printf_i+0x1c8>
 8003750:	8018      	strh	r0, [r3, #0]
 8003752:	2300      	movs	r3, #0
 8003754:	6123      	str	r3, [r4, #16]
 8003756:	4616      	mov	r6, r2
 8003758:	e7ba      	b.n	80036d0 <_printf_i+0x150>
 800375a:	680b      	ldr	r3, [r1, #0]
 800375c:	1d1a      	adds	r2, r3, #4
 800375e:	600a      	str	r2, [r1, #0]
 8003760:	681e      	ldr	r6, [r3, #0]
 8003762:	6862      	ldr	r2, [r4, #4]
 8003764:	2100      	movs	r1, #0
 8003766:	4630      	mov	r0, r6
 8003768:	f7fc fd4a 	bl	8000200 <memchr>
 800376c:	b108      	cbz	r0, 8003772 <_printf_i+0x1f2>
 800376e:	1b80      	subs	r0, r0, r6
 8003770:	6060      	str	r0, [r4, #4]
 8003772:	6863      	ldr	r3, [r4, #4]
 8003774:	6123      	str	r3, [r4, #16]
 8003776:	2300      	movs	r3, #0
 8003778:	f884 3043 	strb.w	r3, [r4, #67]	; 0x43
 800377c:	e7a8      	b.n	80036d0 <_printf_i+0x150>
 800377e:	6923      	ldr	r3, [r4, #16]
 8003780:	4632      	mov	r2, r6
 8003782:	4649      	mov	r1, r9
 8003784:	4640      	mov	r0, r8
 8003786:	47d0      	blx	sl
 8003788:	3001      	adds	r0, #1
 800378a:	d0ab      	beq.n	80036e4 <_printf_i+0x164>
 800378c:	6823      	ldr	r3, [r4, #0]
 800378e:	079b      	lsls	r3, r3, #30
 8003790:	d413      	bmi.n	80037ba <_printf_i+0x23a>
 8003792:	68e0      	ldr	r0, [r4, #12]
 8003794:	9b03      	ldr	r3, [sp, #12]
 8003796:	4298      	cmp	r0, r3
 8003798:	bfb8      	it	lt
 800379a:	4618      	movlt	r0, r3
 800379c:	e7a4      	b.n	80036e8 <_printf_i+0x168>
 800379e:	2301      	movs	r3, #1
 80037a0:	4632      	mov	r2, r6
 80037a2:	4649      	mov	r1, r9
 80037a4:	4640      	mov	r0, r8
 80037a6:	47d0      	blx	sl
 80037a8:	3001      	adds	r0, #1
 80037aa:	d09b      	beq.n	80036e4 <_printf_i+0x164>
 80037ac:	3501      	adds	r5, #1
 80037ae:	68e3      	ldr	r3, [r4, #12]
 80037b0:	9903      	ldr	r1, [sp, #12]
 80037b2:	1a5b      	subs	r3, r3, r1
 80037b4:	42ab      	cmp	r3, r5
 80037b6:	dcf2      	bgt.n	800379e <_printf_i+0x21e>
 80037b8:	e7eb      	b.n	8003792 <_printf_i+0x212>
 80037ba:	2500      	movs	r5, #0
 80037bc:	f104 0619 	add.w	r6, r4, #25
 80037c0:	e7f5      	b.n	80037ae <_printf_i+0x22e>
 80037c2:	bf00      	nop
 80037c4:	08004205 	.word	0x08004205
 80037c8:	08004216 	.word	0x08004216

080037cc <_sbrk_r>:
 80037cc:	b538      	push	{r3, r4, r5, lr}
 80037ce:	4d06      	ldr	r5, [pc, #24]	; (80037e8 <_sbrk_r+0x1c>)
 80037d0:	2300      	movs	r3, #0
 80037d2:	4604      	mov	r4, r0
 80037d4:	4608      	mov	r0, r1
 80037d6:	602b      	str	r3, [r5, #0]
 80037d8:	f7fd f9ae 	bl	8000b38 <_sbrk>
 80037dc:	1c43      	adds	r3, r0, #1
 80037de:	d102      	bne.n	80037e6 <_sbrk_r+0x1a>
 80037e0:	682b      	ldr	r3, [r5, #0]
 80037e2:	b103      	cbz	r3, 80037e6 <_sbrk_r+0x1a>
 80037e4:	6023      	str	r3, [r4, #0]
 80037e6:	bd38      	pop	{r3, r4, r5, pc}
 80037e8:	2001307c 	.word	0x2001307c

080037ec <__swbuf_r>:
 80037ec:	b5f8      	push	{r3, r4, r5, r6, r7, lr}
 80037ee:	460e      	mov	r6, r1
 80037f0:	4614      	mov	r4, r2
 80037f2:	4605      	mov	r5, r0
 80037f4:	b118      	cbz	r0, 80037fe <__swbuf_r+0x12>
 80037f6:	6983      	ldr	r3, [r0, #24]
 80037f8:	b90b      	cbnz	r3, 80037fe <__swbuf_r+0x12>
 80037fa:	f000 f9d9 	bl	8003bb0 <__sinit>
 80037fe:	4b21      	ldr	r3, [pc, #132]	; (8003884 <__swbuf_r+0x98>)
 8003800:	429c      	cmp	r4, r3
 8003802:	d12b      	bne.n	800385c <__swbuf_r+0x70>
 8003804:	686c      	ldr	r4, [r5, #4]
 8003806:	69a3      	ldr	r3, [r4, #24]
 8003808:	60a3      	str	r3, [r4, #8]
 800380a:	89a3      	ldrh	r3, [r4, #12]
 800380c:	071a      	lsls	r2, r3, #28
 800380e:	d52f      	bpl.n	8003870 <__swbuf_r+0x84>
 8003810:	6923      	ldr	r3, [r4, #16]
 8003812:	b36b      	cbz	r3, 8003870 <__swbuf_r+0x84>
 8003814:	6923      	ldr	r3, [r4, #16]
 8003816:	6820      	ldr	r0, [r4, #0]
 8003818:	1ac0      	subs	r0, r0, r3
 800381a:	6963      	ldr	r3, [r4, #20]
 800381c:	b2f6      	uxtb	r6, r6
 800381e:	4283      	cmp	r3, r0
 8003820:	4637      	mov	r7, r6
 8003822:	dc04      	bgt.n	800382e <__swbuf_r+0x42>
 8003824:	4621      	mov	r1, r4
 8003826:	4628      	mov	r0, r5
 8003828:	f000 f92e 	bl	8003a88 <_fflush_r>
 800382c:	bb30      	cbnz	r0, 800387c <__swbuf_r+0x90>
 800382e:	68a3      	ldr	r3, [r4, #8]
 8003830:	3b01      	subs	r3, #1
 8003832:	60a3      	str	r3, [r4, #8]
 8003834:	6823      	ldr	r3, [r4, #0]
 8003836:	1c5a      	adds	r2, r3, #1
 8003838:	6022      	str	r2, [r4, #0]
 800383a:	701e      	strb	r6, [r3, #0]
 800383c:	6963      	ldr	r3, [r4, #20]
 800383e:	3001      	adds	r0, #1
 8003840:	4283      	cmp	r3, r0
 8003842:	d004      	beq.n	800384e <__swbuf_r+0x62>
 8003844:	89a3      	ldrh	r3, [r4, #12]
 8003846:	07db      	lsls	r3, r3, #31
 8003848:	d506      	bpl.n	8003858 <__swbuf_r+0x6c>
 800384a:	2e0a      	cmp	r6, #10
 800384c:	d104      	bne.n	8003858 <__swbuf_r+0x6c>
 800384e:	4621      	mov	r1, r4
 8003850:	4628      	mov	r0, r5
 8003852:	f000 f919 	bl	8003a88 <_fflush_r>
 8003856:	b988      	cbnz	r0, 800387c <__swbuf_r+0x90>
 8003858:	4638      	mov	r0, r7
 800385a:	bdf8      	pop	{r3, r4, r5, r6, r7, pc}
 800385c:	4b0a      	ldr	r3, [pc, #40]	; (8003888 <__swbuf_r+0x9c>)
 800385e:	429c      	cmp	r4, r3
 8003860:	d101      	bne.n	8003866 <__swbuf_r+0x7a>
 8003862:	68ac      	ldr	r4, [r5, #8]
 8003864:	e7cf      	b.n	8003806 <__swbuf_r+0x1a>
 8003866:	4b09      	ldr	r3, [pc, #36]	; (800388c <__swbuf_r+0xa0>)
 8003868:	429c      	cmp	r4, r3
 800386a:	bf08      	it	eq
 800386c:	68ec      	ldreq	r4, [r5, #12]
 800386e:	e7ca      	b.n	8003806 <__swbuf_r+0x1a>
 8003870:	4621      	mov	r1, r4
 8003872:	4628      	mov	r0, r5
 8003874:	f000 f80c 	bl	8003890 <__swsetup_r>
 8003878:	2800      	cmp	r0, #0
 800387a:	d0cb      	beq.n	8003814 <__swbuf_r+0x28>
 800387c:	f04f 37ff 	mov.w	r7, #4294967295
 8003880:	e7ea      	b.n	8003858 <__swbuf_r+0x6c>
 8003882:	bf00      	nop
 8003884:	08004248 	.word	0x08004248
 8003888:	08004268 	.word	0x08004268
 800388c:	08004228 	.word	0x08004228

08003890 <__swsetup_r>:
 8003890:	4b32      	ldr	r3, [pc, #200]	; (800395c <__swsetup_r+0xcc>)
 8003892:	b570      	push	{r4, r5, r6, lr}
 8003894:	681d      	ldr	r5, [r3, #0]
 8003896:	4606      	mov	r6, r0
 8003898:	460c      	mov	r4, r1
 800389a:	b125      	cbz	r5, 80038a6 <__swsetup_r+0x16>
 800389c:	69ab      	ldr	r3, [r5, #24]
 800389e:	b913      	cbnz	r3, 80038a6 <__swsetup_r+0x16>
 80038a0:	4628      	mov	r0, r5
 80038a2:	f000 f985 	bl	8003bb0 <__sinit>
 80038a6:	4b2e      	ldr	r3, [pc, #184]	; (8003960 <__swsetup_r+0xd0>)
 80038a8:	429c      	cmp	r4, r3
 80038aa:	d10f      	bne.n	80038cc <__swsetup_r+0x3c>
 80038ac:	686c      	ldr	r4, [r5, #4]
 80038ae:	89a3      	ldrh	r3, [r4, #12]
 80038b0:	f9b4 200c 	ldrsh.w	r2, [r4, #12]
 80038b4:	0719      	lsls	r1, r3, #28
 80038b6:	d42c      	bmi.n	8003912 <__swsetup_r+0x82>
 80038b8:	06dd      	lsls	r5, r3, #27
 80038ba:	d411      	bmi.n	80038e0 <__swsetup_r+0x50>
 80038bc:	2309      	movs	r3, #9
 80038be:	6033      	str	r3, [r6, #0]
 80038c0:	f042 0340 	orr.w	r3, r2, #64	; 0x40
 80038c4:	81a3      	strh	r3, [r4, #12]
 80038c6:	f04f 30ff 	mov.w	r0, #4294967295
 80038ca:	e03e      	b.n	800394a <__swsetup_r+0xba>
 80038cc:	4b25      	ldr	r3, [pc, #148]	; (8003964 <__swsetup_r+0xd4>)
 80038ce:	429c      	cmp	r4, r3
 80038d0:	d101      	bne.n	80038d6 <__swsetup_r+0x46>
 80038d2:	68ac      	ldr	r4, [r5, #8]
 80038d4:	e7eb      	b.n	80038ae <__swsetup_r+0x1e>
 80038d6:	4b24      	ldr	r3, [pc, #144]	; (8003968 <__swsetup_r+0xd8>)
 80038d8:	429c      	cmp	r4, r3
 80038da:	bf08      	it	eq
 80038dc:	68ec      	ldreq	r4, [r5, #12]
 80038de:	e7e6      	b.n	80038ae <__swsetup_r+0x1e>
 80038e0:	0758      	lsls	r0, r3, #29
 80038e2:	d512      	bpl.n	800390a <__swsetup_r+0x7a>
 80038e4:	6b61      	ldr	r1, [r4, #52]	; 0x34
 80038e6:	b141      	cbz	r1, 80038fa <__swsetup_r+0x6a>
 80038e8:	f104 0344 	add.w	r3, r4, #68	; 0x44
 80038ec:	4299      	cmp	r1, r3
 80038ee:	d002      	beq.n	80038f6 <__swsetup_r+0x66>
 80038f0:	4630      	mov	r0, r6
 80038f2:	f7ff fa77 	bl	8002de4 <_free_r>
 80038f6:	2300      	movs	r3, #0
 80038f8:	6363      	str	r3, [r4, #52]	; 0x34
 80038fa:	89a3      	ldrh	r3, [r4, #12]
 80038fc:	f023 0324 	bic.w	r3, r3, #36	; 0x24
 8003900:	81a3      	strh	r3, [r4, #12]
 8003902:	2300      	movs	r3, #0
 8003904:	6063      	str	r3, [r4, #4]
 8003906:	6923      	ldr	r3, [r4, #16]
 8003908:	6023      	str	r3, [r4, #0]
 800390a:	89a3      	ldrh	r3, [r4, #12]
 800390c:	f043 0308 	orr.w	r3, r3, #8
 8003910:	81a3      	strh	r3, [r4, #12]
 8003912:	6923      	ldr	r3, [r4, #16]
 8003914:	b94b      	cbnz	r3, 800392a <__swsetup_r+0x9a>
 8003916:	89a3      	ldrh	r3, [r4, #12]
 8003918:	f403 7320 	and.w	r3, r3, #640	; 0x280
 800391c:	f5b3 7f00 	cmp.w	r3, #512	; 0x200
 8003920:	d003      	beq.n	800392a <__swsetup_r+0x9a>
 8003922:	4621      	mov	r1, r4
 8003924:	4630      	mov	r0, r6
 8003926:	f000 fa07 	bl	8003d38 <__smakebuf_r>
 800392a:	89a0      	ldrh	r0, [r4, #12]
 800392c:	f9b4 200c 	ldrsh.w	r2, [r4, #12]
 8003930:	f010 0301 	ands.w	r3, r0, #1
 8003934:	d00a      	beq.n	800394c <__swsetup_r+0xbc>
 8003936:	2300      	movs	r3, #0
 8003938:	60a3      	str	r3, [r4, #8]
 800393a:	6963      	ldr	r3, [r4, #20]
 800393c:	425b      	negs	r3, r3
 800393e:	61a3      	str	r3, [r4, #24]
 8003940:	6923      	ldr	r3, [r4, #16]
 8003942:	b943      	cbnz	r3, 8003956 <__swsetup_r+0xc6>
 8003944:	f010 0080 	ands.w	r0, r0, #128	; 0x80
 8003948:	d1ba      	bne.n	80038c0 <__swsetup_r+0x30>
 800394a:	bd70      	pop	{r4, r5, r6, pc}
 800394c:	0781      	lsls	r1, r0, #30
 800394e:	bf58      	it	pl
 8003950:	6963      	ldrpl	r3, [r4, #20]
 8003952:	60a3      	str	r3, [r4, #8]
 8003954:	e7f4      	b.n	8003940 <__swsetup_r+0xb0>
 8003956:	2000      	movs	r0, #0
 8003958:	e7f7      	b.n	800394a <__swsetup_r+0xba>
 800395a:	bf00      	nop
 800395c:	2000002c 	.word	0x2000002c
 8003960:	08004248 	.word	0x08004248
 8003964:	08004268 	.word	0x08004268
 8003968:	08004228 	.word	0x08004228

0800396c <abort>:
 800396c:	b508      	push	{r3, lr}
 800396e:	2006      	movs	r0, #6
 8003970:	f000 faa4 	bl	8003ebc <raise>
 8003974:	2001      	movs	r0, #1
 8003976:	f7fd f8b3 	bl	8000ae0 <_exit>
	...

0800397c <__sflush_r>:
 800397c:	898a      	ldrh	r2, [r1, #12]
 800397e:	e92d 41f0 	stmdb	sp!, {r4, r5, r6, r7, r8, lr}
 8003982:	4605      	mov	r5, r0
 8003984:	0710      	lsls	r0, r2, #28
 8003986:	460c      	mov	r4, r1
 8003988:	d458      	bmi.n	8003a3c <__sflush_r+0xc0>
 800398a:	684b      	ldr	r3, [r1, #4]
 800398c:	2b00      	cmp	r3, #0
 800398e:	dc05      	bgt.n	800399c <__sflush_r+0x20>
 8003990:	6c0b      	ldr	r3, [r1, #64]	; 0x40
 8003992:	2b00      	cmp	r3, #0
 8003994:	dc02      	bgt.n	800399c <__sflush_r+0x20>
 8003996:	2000      	movs	r0, #0
 8003998:	e8bd 81f0 	ldmia.w	sp!, {r4, r5, r6, r7, r8, pc}
 800399c:	6ae6      	ldr	r6, [r4, #44]	; 0x2c
 800399e:	2e00      	cmp	r6, #0
 80039a0:	d0f9      	beq.n	8003996 <__sflush_r+0x1a>
 80039a2:	2300      	movs	r3, #0
 80039a4:	f412 5280 	ands.w	r2, r2, #4096	; 0x1000
 80039a8:	682f      	ldr	r7, [r5, #0]
 80039aa:	602b      	str	r3, [r5, #0]
 80039ac:	d032      	beq.n	8003a14 <__sflush_r+0x98>
 80039ae:	6d60      	ldr	r0, [r4, #84]	; 0x54
 80039b0:	89a3      	ldrh	r3, [r4, #12]
 80039b2:	075a      	lsls	r2, r3, #29
 80039b4:	d505      	bpl.n	80039c2 <__sflush_r+0x46>
 80039b6:	6863      	ldr	r3, [r4, #4]
 80039b8:	1ac0      	subs	r0, r0, r3
 80039ba:	6b63      	ldr	r3, [r4, #52]	; 0x34
 80039bc:	b10b      	cbz	r3, 80039c2 <__sflush_r+0x46>
 80039be:	6c23      	ldr	r3, [r4, #64]	; 0x40
 80039c0:	1ac0      	subs	r0, r0, r3
 80039c2:	2300      	movs	r3, #0
 80039c4:	4602      	mov	r2, r0
 80039c6:	6ae6      	ldr	r6, [r4, #44]	; 0x2c
 80039c8:	6a21      	ldr	r1, [r4, #32]
 80039ca:	4628      	mov	r0, r5
 80039cc:	47b0      	blx	r6
 80039ce:	1c43      	adds	r3, r0, #1
 80039d0:	89a3      	ldrh	r3, [r4, #12]
 80039d2:	d106      	bne.n	80039e2 <__sflush_r+0x66>
 80039d4:	6829      	ldr	r1, [r5, #0]
 80039d6:	291d      	cmp	r1, #29
 80039d8:	d82c      	bhi.n	8003a34 <__sflush_r+0xb8>
 80039da:	4a2a      	ldr	r2, [pc, #168]	; (8003a84 <__sflush_r+0x108>)
 80039dc:	40ca      	lsrs	r2, r1
 80039de:	07d6      	lsls	r6, r2, #31
 80039e0:	d528      	bpl.n	8003a34 <__sflush_r+0xb8>
 80039e2:	2200      	movs	r2, #0
 80039e4:	6062      	str	r2, [r4, #4]
 80039e6:	04d9      	lsls	r1, r3, #19
 80039e8:	6922      	ldr	r2, [r4, #16]
 80039ea:	6022      	str	r2, [r4, #0]
 80039ec:	d504      	bpl.n	80039f8 <__sflush_r+0x7c>
 80039ee:	1c42      	adds	r2, r0, #1
 80039f0:	d101      	bne.n	80039f6 <__sflush_r+0x7a>
 80039f2:	682b      	ldr	r3, [r5, #0]
 80039f4:	b903      	cbnz	r3, 80039f8 <__sflush_r+0x7c>
 80039f6:	6560      	str	r0, [r4, #84]	; 0x54
 80039f8:	6b61      	ldr	r1, [r4, #52]	; 0x34
 80039fa:	602f      	str	r7, [r5, #0]
 80039fc:	2900      	cmp	r1, #0
 80039fe:	d0ca      	beq.n	8003996 <__sflush_r+0x1a>
 8003a00:	f104 0344 	add.w	r3, r4, #68	; 0x44
 8003a04:	4299      	cmp	r1, r3
 8003a06:	d002      	beq.n	8003a0e <__sflush_r+0x92>
 8003a08:	4628      	mov	r0, r5
 8003a0a:	f7ff f9eb 	bl	8002de4 <_free_r>
 8003a0e:	2000      	movs	r0, #0
 8003a10:	6360      	str	r0, [r4, #52]	; 0x34
 8003a12:	e7c1      	b.n	8003998 <__sflush_r+0x1c>
 8003a14:	6a21      	ldr	r1, [r4, #32]
 8003a16:	2301      	movs	r3, #1
 8003a18:	4628      	mov	r0, r5
 8003a1a:	47b0      	blx	r6
 8003a1c:	1c41      	adds	r1, r0, #1
 8003a1e:	d1c7      	bne.n	80039b0 <__sflush_r+0x34>
 8003a20:	682b      	ldr	r3, [r5, #0]
 8003a22:	2b00      	cmp	r3, #0
 8003a24:	d0c4      	beq.n	80039b0 <__sflush_r+0x34>
 8003a26:	2b1d      	cmp	r3, #29
 8003a28:	d001      	beq.n	8003a2e <__sflush_r+0xb2>
 8003a2a:	2b16      	cmp	r3, #22
 8003a2c:	d101      	bne.n	8003a32 <__sflush_r+0xb6>
 8003a2e:	602f      	str	r7, [r5, #0]
 8003a30:	e7b1      	b.n	8003996 <__sflush_r+0x1a>
 8003a32:	89a3      	ldrh	r3, [r4, #12]
 8003a34:	f043 0340 	orr.w	r3, r3, #64	; 0x40
 8003a38:	81a3      	strh	r3, [r4, #12]
 8003a3a:	e7ad      	b.n	8003998 <__sflush_r+0x1c>
 8003a3c:	690f      	ldr	r7, [r1, #16]
 8003a3e:	2f00      	cmp	r7, #0
 8003a40:	d0a9      	beq.n	8003996 <__sflush_r+0x1a>
 8003a42:	0793      	lsls	r3, r2, #30
 8003a44:	680e      	ldr	r6, [r1, #0]
 8003a46:	bf08      	it	eq
 8003a48:	694b      	ldreq	r3, [r1, #20]
 8003a4a:	600f      	str	r7, [r1, #0]
 8003a4c:	bf18      	it	ne
 8003a4e:	2300      	movne	r3, #0
 8003a50:	eba6 0807 	sub.w	r8, r6, r7
 8003a54:	608b      	str	r3, [r1, #8]
 8003a56:	f1b8 0f00 	cmp.w	r8, #0
 8003a5a:	dd9c      	ble.n	8003996 <__sflush_r+0x1a>
 8003a5c:	6a21      	ldr	r1, [r4, #32]
 8003a5e:	6aa6      	ldr	r6, [r4, #40]	; 0x28
 8003a60:	4643      	mov	r3, r8
 8003a62:	463a      	mov	r2, r7
 8003a64:	4628      	mov	r0, r5
 8003a66:	47b0      	blx	r6
 8003a68:	2800      	cmp	r0, #0
 8003a6a:	dc06      	bgt.n	8003a7a <__sflush_r+0xfe>
 8003a6c:	89a3      	ldrh	r3, [r4, #12]
 8003a6e:	f043 0340 	orr.w	r3, r3, #64	; 0x40
 8003a72:	81a3      	strh	r3, [r4, #12]
 8003a74:	f04f 30ff 	mov.w	r0, #4294967295
 8003a78:	e78e      	b.n	8003998 <__sflush_r+0x1c>
 8003a7a:	4407      	add	r7, r0
 8003a7c:	eba8 0800 	sub.w	r8, r8, r0
 8003a80:	e7e9      	b.n	8003a56 <__sflush_r+0xda>
 8003a82:	bf00      	nop
 8003a84:	20400001 	.word	0x20400001

08003a88 <_fflush_r>:
 8003a88:	b538      	push	{r3, r4, r5, lr}
 8003a8a:	690b      	ldr	r3, [r1, #16]
 8003a8c:	4605      	mov	r5, r0
 8003a8e:	460c      	mov	r4, r1
 8003a90:	b913      	cbnz	r3, 8003a98 <_fflush_r+0x10>
 8003a92:	2500      	movs	r5, #0
 8003a94:	4628      	mov	r0, r5
 8003a96:	bd38      	pop	{r3, r4, r5, pc}
 8003a98:	b118      	cbz	r0, 8003aa2 <_fflush_r+0x1a>
 8003a9a:	6983      	ldr	r3, [r0, #24]
 8003a9c:	b90b      	cbnz	r3, 8003aa2 <_fflush_r+0x1a>
 8003a9e:	f000 f887 	bl	8003bb0 <__sinit>
 8003aa2:	4b14      	ldr	r3, [pc, #80]	; (8003af4 <_fflush_r+0x6c>)
 8003aa4:	429c      	cmp	r4, r3
 8003aa6:	d11b      	bne.n	8003ae0 <_fflush_r+0x58>
 8003aa8:	686c      	ldr	r4, [r5, #4]
 8003aaa:	f9b4 300c 	ldrsh.w	r3, [r4, #12]
 8003aae:	2b00      	cmp	r3, #0
 8003ab0:	d0ef      	beq.n	8003a92 <_fflush_r+0xa>
 8003ab2:	6e62      	ldr	r2, [r4, #100]	; 0x64
 8003ab4:	07d0      	lsls	r0, r2, #31
 8003ab6:	d404      	bmi.n	8003ac2 <_fflush_r+0x3a>
 8003ab8:	0599      	lsls	r1, r3, #22
 8003aba:	d402      	bmi.n	8003ac2 <_fflush_r+0x3a>
 8003abc:	6da0      	ldr	r0, [r4, #88]	; 0x58
 8003abe:	f000 f915 	bl	8003cec <__retarget_lock_acquire_recursive>
 8003ac2:	4628      	mov	r0, r5
 8003ac4:	4621      	mov	r1, r4
 8003ac6:	f7ff ff59 	bl	800397c <__sflush_r>
 8003aca:	6e63      	ldr	r3, [r4, #100]	; 0x64
 8003acc:	07da      	lsls	r2, r3, #31
 8003ace:	4605      	mov	r5, r0
 8003ad0:	d4e0      	bmi.n	8003a94 <_fflush_r+0xc>
 8003ad2:	89a3      	ldrh	r3, [r4, #12]
 8003ad4:	059b      	lsls	r3, r3, #22
 8003ad6:	d4dd      	bmi.n	8003a94 <_fflush_r+0xc>
 8003ad8:	6da0      	ldr	r0, [r4, #88]	; 0x58
 8003ada:	f000 f908 	bl	8003cee <__retarget_lock_release_recursive>
 8003ade:	e7d9      	b.n	8003a94 <_fflush_r+0xc>
 8003ae0:	4b05      	ldr	r3, [pc, #20]	; (8003af8 <_fflush_r+0x70>)
 8003ae2:	429c      	cmp	r4, r3
 8003ae4:	d101      	bne.n	8003aea <_fflush_r+0x62>
 8003ae6:	68ac      	ldr	r4, [r5, #8]
 8003ae8:	e7df      	b.n	8003aaa <_fflush_r+0x22>
 8003aea:	4b04      	ldr	r3, [pc, #16]	; (8003afc <_fflush_r+0x74>)
 8003aec:	429c      	cmp	r4, r3
 8003aee:	bf08      	it	eq
 8003af0:	68ec      	ldreq	r4, [r5, #12]
 8003af2:	e7da      	b.n	8003aaa <_fflush_r+0x22>
 8003af4:	08004248 	.word	0x08004248
 8003af8:	08004268 	.word	0x08004268
 8003afc:	08004228 	.word	0x08004228

08003b00 <std>:
 8003b00:	2300      	movs	r3, #0
 8003b02:	b510      	push	{r4, lr}
 8003b04:	4604      	mov	r4, r0
 8003b06:	e9c0 3300 	strd	r3, r3, [r0]
 8003b0a:	e9c0 3304 	strd	r3, r3, [r0, #16]
 8003b0e:	6083      	str	r3, [r0, #8]
 8003b10:	8181      	strh	r1, [r0, #12]
 8003b12:	6643      	str	r3, [r0, #100]	; 0x64
 8003b14:	81c2      	strh	r2, [r0, #14]
 8003b16:	6183      	str	r3, [r0, #24]
 8003b18:	4619      	mov	r1, r3
 8003b1a:	2208      	movs	r2, #8
 8003b1c:	305c      	adds	r0, #92	; 0x5c
 8003b1e:	f7ff f8a5 	bl	8002c6c <memset>
 8003b22:	4b05      	ldr	r3, [pc, #20]	; (8003b38 <std+0x38>)
 8003b24:	6263      	str	r3, [r4, #36]	; 0x24
 8003b26:	4b05      	ldr	r3, [pc, #20]	; (8003b3c <std+0x3c>)
 8003b28:	62a3      	str	r3, [r4, #40]	; 0x28
 8003b2a:	4b05      	ldr	r3, [pc, #20]	; (8003b40 <std+0x40>)
 8003b2c:	62e3      	str	r3, [r4, #44]	; 0x2c
 8003b2e:	4b05      	ldr	r3, [pc, #20]	; (8003b44 <std+0x44>)
 8003b30:	6224      	str	r4, [r4, #32]
 8003b32:	6323      	str	r3, [r4, #48]	; 0x30
 8003b34:	bd10      	pop	{r4, pc}
 8003b36:	bf00      	nop
 8003b38:	08003ef5 	.word	0x08003ef5
 8003b3c:	08003f17 	.word	0x08003f17
 8003b40:	08003f4f 	.word	0x08003f4f
 8003b44:	08003f73 	.word	0x08003f73

08003b48 <_cleanup_r>:
 8003b48:	4901      	ldr	r1, [pc, #4]	; (8003b50 <_cleanup_r+0x8>)
 8003b4a:	f000 b8af 	b.w	8003cac <_fwalk_reent>
 8003b4e:	bf00      	nop
 8003b50:	08003a89 	.word	0x08003a89

08003b54 <__sfmoreglue>:
 8003b54:	b570      	push	{r4, r5, r6, lr}
 8003b56:	1e4a      	subs	r2, r1, #1
 8003b58:	2568      	movs	r5, #104	; 0x68
 8003b5a:	4355      	muls	r5, r2
 8003b5c:	460e      	mov	r6, r1
 8003b5e:	f105 0174 	add.w	r1, r5, #116	; 0x74
 8003b62:	f7ff f98f 	bl	8002e84 <_malloc_r>
 8003b66:	4604      	mov	r4, r0
 8003b68:	b140      	cbz	r0, 8003b7c <__sfmoreglue+0x28>
 8003b6a:	2100      	movs	r1, #0
 8003b6c:	e9c0 1600 	strd	r1, r6, [r0]
 8003b70:	300c      	adds	r0, #12
 8003b72:	60a0      	str	r0, [r4, #8]
 8003b74:	f105 0268 	add.w	r2, r5, #104	; 0x68
 8003b78:	f7ff f878 	bl	8002c6c <memset>
 8003b7c:	4620      	mov	r0, r4
 8003b7e:	bd70      	pop	{r4, r5, r6, pc}

08003b80 <__sfp_lock_acquire>:
 8003b80:	4801      	ldr	r0, [pc, #4]	; (8003b88 <__sfp_lock_acquire+0x8>)
 8003b82:	f000 b8b3 	b.w	8003cec <__retarget_lock_acquire_recursive>
 8003b86:	bf00      	nop
 8003b88:	20013078 	.word	0x20013078

08003b8c <__sfp_lock_release>:
 8003b8c:	4801      	ldr	r0, [pc, #4]	; (8003b94 <__sfp_lock_release+0x8>)
 8003b8e:	f000 b8ae 	b.w	8003cee <__retarget_lock_release_recursive>
 8003b92:	bf00      	nop
 8003b94:	20013078 	.word	0x20013078

08003b98 <__sinit_lock_acquire>:
 8003b98:	4801      	ldr	r0, [pc, #4]	; (8003ba0 <__sinit_lock_acquire+0x8>)
 8003b9a:	f000 b8a7 	b.w	8003cec <__retarget_lock_acquire_recursive>
 8003b9e:	bf00      	nop
 8003ba0:	20013073 	.word	0x20013073

08003ba4 <__sinit_lock_release>:
 8003ba4:	4801      	ldr	r0, [pc, #4]	; (8003bac <__sinit_lock_release+0x8>)
 8003ba6:	f000 b8a2 	b.w	8003cee <__retarget_lock_release_recursive>
 8003baa:	bf00      	nop
 8003bac:	20013073 	.word	0x20013073

08003bb0 <__sinit>:
 8003bb0:	b510      	push	{r4, lr}
 8003bb2:	4604      	mov	r4, r0
 8003bb4:	f7ff fff0 	bl	8003b98 <__sinit_lock_acquire>
 8003bb8:	69a3      	ldr	r3, [r4, #24]
 8003bba:	b11b      	cbz	r3, 8003bc4 <__sinit+0x14>
 8003bbc:	e8bd 4010 	ldmia.w	sp!, {r4, lr}
 8003bc0:	f7ff bff0 	b.w	8003ba4 <__sinit_lock_release>
 8003bc4:	e9c4 3312 	strd	r3, r3, [r4, #72]	; 0x48
 8003bc8:	6523      	str	r3, [r4, #80]	; 0x50
 8003bca:	4b13      	ldr	r3, [pc, #76]	; (8003c18 <__sinit+0x68>)
 8003bcc:	4a13      	ldr	r2, [pc, #76]	; (8003c1c <__sinit+0x6c>)
 8003bce:	681b      	ldr	r3, [r3, #0]
 8003bd0:	62a2      	str	r2, [r4, #40]	; 0x28
 8003bd2:	42a3      	cmp	r3, r4
 8003bd4:	bf04      	itt	eq
 8003bd6:	2301      	moveq	r3, #1
 8003bd8:	61a3      	streq	r3, [r4, #24]
 8003bda:	4620      	mov	r0, r4
 8003bdc:	f000 f820 	bl	8003c20 <__sfp>
 8003be0:	6060      	str	r0, [r4, #4]
 8003be2:	4620      	mov	r0, r4
 8003be4:	f000 f81c 	bl	8003c20 <__sfp>
 8003be8:	60a0      	str	r0, [r4, #8]
 8003bea:	4620      	mov	r0, r4
 8003bec:	f000 f818 	bl	8003c20 <__sfp>
 8003bf0:	2200      	movs	r2, #0
 8003bf2:	60e0      	str	r0, [r4, #12]
 8003bf4:	2104      	movs	r1, #4
 8003bf6:	6860      	ldr	r0, [r4, #4]
 8003bf8:	f7ff ff82 	bl	8003b00 <std>
 8003bfc:	68a0      	ldr	r0, [r4, #8]
 8003bfe:	2201      	movs	r2, #1
 8003c00:	2109      	movs	r1, #9
 8003c02:	f7ff ff7d 	bl	8003b00 <std>
 8003c06:	68e0      	ldr	r0, [r4, #12]
 8003c08:	2202      	movs	r2, #2
 8003c0a:	2112      	movs	r1, #18
 8003c0c:	f7ff ff78 	bl	8003b00 <std>
 8003c10:	2301      	movs	r3, #1
 8003c12:	61a3      	str	r3, [r4, #24]
 8003c14:	e7d2      	b.n	8003bbc <__sinit+0xc>
 8003c16:	bf00      	nop
 8003c18:	0800413c 	.word	0x0800413c
 8003c1c:	08003b49 	.word	0x08003b49

08003c20 <__sfp>:
 8003c20:	b5f8      	push	{r3, r4, r5, r6, r7, lr}
 8003c22:	4607      	mov	r7, r0
 8003c24:	f7ff ffac 	bl	8003b80 <__sfp_lock_acquire>
 8003c28:	4b1e      	ldr	r3, [pc, #120]	; (8003ca4 <__sfp+0x84>)
 8003c2a:	681e      	ldr	r6, [r3, #0]
 8003c2c:	69b3      	ldr	r3, [r6, #24]
 8003c2e:	b913      	cbnz	r3, 8003c36 <__sfp+0x16>
 8003c30:	4630      	mov	r0, r6
 8003c32:	f7ff ffbd 	bl	8003bb0 <__sinit>
 8003c36:	3648      	adds	r6, #72	; 0x48
 8003c38:	e9d6 3401 	ldrd	r3, r4, [r6, #4]
 8003c3c:	3b01      	subs	r3, #1
 8003c3e:	d503      	bpl.n	8003c48 <__sfp+0x28>
 8003c40:	6833      	ldr	r3, [r6, #0]
 8003c42:	b30b      	cbz	r3, 8003c88 <__sfp+0x68>
 8003c44:	6836      	ldr	r6, [r6, #0]
 8003c46:	e7f7      	b.n	8003c38 <__sfp+0x18>
 8003c48:	f9b4 500c 	ldrsh.w	r5, [r4, #12]
 8003c4c:	b9d5      	cbnz	r5, 8003c84 <__sfp+0x64>
 8003c4e:	4b16      	ldr	r3, [pc, #88]	; (8003ca8 <__sfp+0x88>)
 8003c50:	60e3      	str	r3, [r4, #12]
 8003c52:	f104 0058 	add.w	r0, r4, #88	; 0x58
 8003c56:	6665      	str	r5, [r4, #100]	; 0x64
 8003c58:	f000 f847 	bl	8003cea <__retarget_lock_init_recursive>
 8003c5c:	f7ff ff96 	bl	8003b8c <__sfp_lock_release>
 8003c60:	e9c4 5501 	strd	r5, r5, [r4, #4]
 8003c64:	e9c4 5504 	strd	r5, r5, [r4, #16]
 8003c68:	6025      	str	r5, [r4, #0]
 8003c6a:	61a5      	str	r5, [r4, #24]
 8003c6c:	2208      	movs	r2, #8
 8003c6e:	4629      	mov	r1, r5
 8003c70:	f104 005c 	add.w	r0, r4, #92	; 0x5c
 8003c74:	f7fe fffa 	bl	8002c6c <memset>
 8003c78:	e9c4 550d 	strd	r5, r5, [r4, #52]	; 0x34
 8003c7c:	e9c4 5512 	strd	r5, r5, [r4, #72]	; 0x48
 8003c80:	4620      	mov	r0, r4
 8003c82:	bdf8      	pop	{r3, r4, r5, r6, r7, pc}
 8003c84:	3468      	adds	r4, #104	; 0x68
 8003c86:	e7d9      	b.n	8003c3c <__sfp+0x1c>
 8003c88:	2104      	movs	r1, #4
 8003c8a:	4638      	mov	r0, r7
 8003c8c:	f7ff ff62 	bl	8003b54 <__sfmoreglue>
 8003c90:	4604      	mov	r4, r0
 8003c92:	6030      	str	r0, [r6, #0]
 8003c94:	2800      	cmp	r0, #0
 8003c96:	d1d5      	bne.n	8003c44 <__sfp+0x24>
 8003c98:	f7ff ff78 	bl	8003b8c <__sfp_lock_release>
 8003c9c:	230c      	movs	r3, #12
 8003c9e:	603b      	str	r3, [r7, #0]
 8003ca0:	e7ee      	b.n	8003c80 <__sfp+0x60>
 8003ca2:	bf00      	nop
 8003ca4:	0800413c 	.word	0x0800413c
 8003ca8:	ffff0001 	.word	0xffff0001

08003cac <_fwalk_reent>:
 8003cac:	e92d 43f8 	stmdb	sp!, {r3, r4, r5, r6, r7, r8, r9, lr}
 8003cb0:	4606      	mov	r6, r0
 8003cb2:	4688      	mov	r8, r1
 8003cb4:	f100 0448 	add.w	r4, r0, #72	; 0x48
 8003cb8:	2700      	movs	r7, #0
 8003cba:	e9d4 9501 	ldrd	r9, r5, [r4, #4]
 8003cbe:	f1b9 0901 	subs.w	r9, r9, #1
 8003cc2:	d505      	bpl.n	8003cd0 <_fwalk_reent+0x24>
 8003cc4:	6824      	ldr	r4, [r4, #0]
 8003cc6:	2c00      	cmp	r4, #0
 8003cc8:	d1f7      	bne.n	8003cba <_fwalk_reent+0xe>
 8003cca:	4638      	mov	r0, r7
 8003ccc:	e8bd 83f8 	ldmia.w	sp!, {r3, r4, r5, r6, r7, r8, r9, pc}
 8003cd0:	89ab      	ldrh	r3, [r5, #12]
 8003cd2:	2b01      	cmp	r3, #1
 8003cd4:	d907      	bls.n	8003ce6 <_fwalk_reent+0x3a>
 8003cd6:	f9b5 300e 	ldrsh.w	r3, [r5, #14]
 8003cda:	3301      	adds	r3, #1
 8003cdc:	d003      	beq.n	8003ce6 <_fwalk_reent+0x3a>
 8003cde:	4629      	mov	r1, r5
 8003ce0:	4630      	mov	r0, r6
 8003ce2:	47c0      	blx	r8
 8003ce4:	4307      	orrs	r7, r0
 8003ce6:	3568      	adds	r5, #104	; 0x68
 8003ce8:	e7e9      	b.n	8003cbe <_fwalk_reent+0x12>

08003cea <__retarget_lock_init_recursive>:
 8003cea:	4770      	bx	lr

08003cec <__retarget_lock_acquire_recursive>:
 8003cec:	4770      	bx	lr

08003cee <__retarget_lock_release_recursive>:
 8003cee:	4770      	bx	lr

08003cf0 <__swhatbuf_r>:
 8003cf0:	b570      	push	{r4, r5, r6, lr}
 8003cf2:	460e      	mov	r6, r1
 8003cf4:	f9b1 100e 	ldrsh.w	r1, [r1, #14]
 8003cf8:	2900      	cmp	r1, #0
 8003cfa:	b096      	sub	sp, #88	; 0x58
 8003cfc:	4614      	mov	r4, r2
 8003cfe:	461d      	mov	r5, r3
 8003d00:	da07      	bge.n	8003d12 <__swhatbuf_r+0x22>
 8003d02:	2300      	movs	r3, #0
 8003d04:	602b      	str	r3, [r5, #0]
 8003d06:	89b3      	ldrh	r3, [r6, #12]
 8003d08:	061a      	lsls	r2, r3, #24
 8003d0a:	d410      	bmi.n	8003d2e <__swhatbuf_r+0x3e>
 8003d0c:	f44f 6380 	mov.w	r3, #1024	; 0x400
 8003d10:	e00e      	b.n	8003d30 <__swhatbuf_r+0x40>
 8003d12:	466a      	mov	r2, sp
 8003d14:	f000 f954 	bl	8003fc0 <_fstat_r>
 8003d18:	2800      	cmp	r0, #0
 8003d1a:	dbf2      	blt.n	8003d02 <__swhatbuf_r+0x12>
 8003d1c:	9a01      	ldr	r2, [sp, #4]
 8003d1e:	f402 4270 	and.w	r2, r2, #61440	; 0xf000
 8003d22:	f5a2 5300 	sub.w	r3, r2, #8192	; 0x2000
 8003d26:	425a      	negs	r2, r3
 8003d28:	415a      	adcs	r2, r3
 8003d2a:	602a      	str	r2, [r5, #0]
 8003d2c:	e7ee      	b.n	8003d0c <__swhatbuf_r+0x1c>
 8003d2e:	2340      	movs	r3, #64	; 0x40
 8003d30:	2000      	movs	r0, #0
 8003d32:	6023      	str	r3, [r4, #0]
 8003d34:	b016      	add	sp, #88	; 0x58
 8003d36:	bd70      	pop	{r4, r5, r6, pc}

08003d38 <__smakebuf_r>:
 8003d38:	898b      	ldrh	r3, [r1, #12]
 8003d3a:	b573      	push	{r0, r1, r4, r5, r6, lr}
 8003d3c:	079d      	lsls	r5, r3, #30
 8003d3e:	4606      	mov	r6, r0
 8003d40:	460c      	mov	r4, r1
 8003d42:	d507      	bpl.n	8003d54 <__smakebuf_r+0x1c>
 8003d44:	f104 0347 	add.w	r3, r4, #71	; 0x47
 8003d48:	6023      	str	r3, [r4, #0]
 8003d4a:	6123      	str	r3, [r4, #16]
 8003d4c:	2301      	movs	r3, #1
 8003d4e:	6163      	str	r3, [r4, #20]
 8003d50:	b002      	add	sp, #8
 8003d52:	bd70      	pop	{r4, r5, r6, pc}
 8003d54:	ab01      	add	r3, sp, #4
 8003d56:	466a      	mov	r2, sp
 8003d58:	f7ff ffca 	bl	8003cf0 <__swhatbuf_r>
 8003d5c:	9900      	ldr	r1, [sp, #0]
 8003d5e:	4605      	mov	r5, r0
 8003d60:	4630      	mov	r0, r6
 8003d62:	f7ff f88f 	bl	8002e84 <_malloc_r>
 8003d66:	b948      	cbnz	r0, 8003d7c <__smakebuf_r+0x44>
 8003d68:	f9b4 300c 	ldrsh.w	r3, [r4, #12]
 8003d6c:	059a      	lsls	r2, r3, #22
 8003d6e:	d4ef      	bmi.n	8003d50 <__smakebuf_r+0x18>
 8003d70:	f023 0303 	bic.w	r3, r3, #3
 8003d74:	f043 0302 	orr.w	r3, r3, #2
 8003d78:	81a3      	strh	r3, [r4, #12]
 8003d7a:	e7e3      	b.n	8003d44 <__smakebuf_r+0xc>
 8003d7c:	4b0d      	ldr	r3, [pc, #52]	; (8003db4 <__smakebuf_r+0x7c>)
 8003d7e:	62b3      	str	r3, [r6, #40]	; 0x28
 8003d80:	89a3      	ldrh	r3, [r4, #12]
 8003d82:	6020      	str	r0, [r4, #0]
 8003d84:	f043 0380 	orr.w	r3, r3, #128	; 0x80
 8003d88:	81a3      	strh	r3, [r4, #12]
 8003d8a:	9b00      	ldr	r3, [sp, #0]
 8003d8c:	6163      	str	r3, [r4, #20]
 8003d8e:	9b01      	ldr	r3, [sp, #4]
 8003d90:	6120      	str	r0, [r4, #16]
 8003d92:	b15b      	cbz	r3, 8003dac <__smakebuf_r+0x74>
 8003d94:	f9b4 100e 	ldrsh.w	r1, [r4, #14]
 8003d98:	4630      	mov	r0, r6
 8003d9a:	f000 f923 	bl	8003fe4 <_isatty_r>
 8003d9e:	b128      	cbz	r0, 8003dac <__smakebuf_r+0x74>
 8003da0:	89a3      	ldrh	r3, [r4, #12]
 8003da2:	f023 0303 	bic.w	r3, r3, #3
 8003da6:	f043 0301 	orr.w	r3, r3, #1
 8003daa:	81a3      	strh	r3, [r4, #12]
 8003dac:	89a0      	ldrh	r0, [r4, #12]
 8003dae:	4305      	orrs	r5, r0
 8003db0:	81a5      	strh	r5, [r4, #12]
 8003db2:	e7cd      	b.n	8003d50 <__smakebuf_r+0x18>
 8003db4:	08003b49 	.word	0x08003b49

08003db8 <memcpy>:
 8003db8:	440a      	add	r2, r1
 8003dba:	4291      	cmp	r1, r2
 8003dbc:	f100 33ff 	add.w	r3, r0, #4294967295
 8003dc0:	d100      	bne.n	8003dc4 <memcpy+0xc>
 8003dc2:	4770      	bx	lr
 8003dc4:	b510      	push	{r4, lr}
 8003dc6:	f811 4b01 	ldrb.w	r4, [r1], #1
 8003dca:	f803 4f01 	strb.w	r4, [r3, #1]!
 8003dce:	4291      	cmp	r1, r2
 8003dd0:	d1f9      	bne.n	8003dc6 <memcpy+0xe>
 8003dd2:	bd10      	pop	{r4, pc}

08003dd4 <memmove>:
 8003dd4:	4288      	cmp	r0, r1
 8003dd6:	b510      	push	{r4, lr}
 8003dd8:	eb01 0402 	add.w	r4, r1, r2
 8003ddc:	d902      	bls.n	8003de4 <memmove+0x10>
 8003dde:	4284      	cmp	r4, r0
 8003de0:	4623      	mov	r3, r4
 8003de2:	d807      	bhi.n	8003df4 <memmove+0x20>
 8003de4:	1e43      	subs	r3, r0, #1
 8003de6:	42a1      	cmp	r1, r4
 8003de8:	d008      	beq.n	8003dfc <memmove+0x28>
 8003dea:	f811 2b01 	ldrb.w	r2, [r1], #1
 8003dee:	f803 2f01 	strb.w	r2, [r3, #1]!
 8003df2:	e7f8      	b.n	8003de6 <memmove+0x12>
 8003df4:	4402      	add	r2, r0
 8003df6:	4601      	mov	r1, r0
 8003df8:	428a      	cmp	r2, r1
 8003dfa:	d100      	bne.n	8003dfe <memmove+0x2a>
 8003dfc:	bd10      	pop	{r4, pc}
 8003dfe:	f813 4d01 	ldrb.w	r4, [r3, #-1]!
 8003e02:	f802 4d01 	strb.w	r4, [r2, #-1]!
 8003e06:	e7f7      	b.n	8003df8 <memmove+0x24>

08003e08 <__malloc_lock>:
 8003e08:	4801      	ldr	r0, [pc, #4]	; (8003e10 <__malloc_lock+0x8>)
 8003e0a:	f7ff bf6f 	b.w	8003cec <__retarget_lock_acquire_recursive>
 8003e0e:	bf00      	nop
 8003e10:	20013074 	.word	0x20013074

08003e14 <__malloc_unlock>:
 8003e14:	4801      	ldr	r0, [pc, #4]	; (8003e1c <__malloc_unlock+0x8>)
 8003e16:	f7ff bf6a 	b.w	8003cee <__retarget_lock_release_recursive>
 8003e1a:	bf00      	nop
 8003e1c:	20013074 	.word	0x20013074

08003e20 <_realloc_r>:
 8003e20:	b5f8      	push	{r3, r4, r5, r6, r7, lr}
 8003e22:	4607      	mov	r7, r0
 8003e24:	4614      	mov	r4, r2
 8003e26:	460e      	mov	r6, r1
 8003e28:	b921      	cbnz	r1, 8003e34 <_realloc_r+0x14>
 8003e2a:	e8bd 40f8 	ldmia.w	sp!, {r3, r4, r5, r6, r7, lr}
 8003e2e:	4611      	mov	r1, r2
 8003e30:	f7ff b828 	b.w	8002e84 <_malloc_r>
 8003e34:	b922      	cbnz	r2, 8003e40 <_realloc_r+0x20>
 8003e36:	f7fe ffd5 	bl	8002de4 <_free_r>
 8003e3a:	4625      	mov	r5, r4
 8003e3c:	4628      	mov	r0, r5
 8003e3e:	bdf8      	pop	{r3, r4, r5, r6, r7, pc}
 8003e40:	f000 f8f2 	bl	8004028 <_malloc_usable_size_r>
 8003e44:	42a0      	cmp	r0, r4
 8003e46:	d20f      	bcs.n	8003e68 <_realloc_r+0x48>
 8003e48:	4621      	mov	r1, r4
 8003e4a:	4638      	mov	r0, r7
 8003e4c:	f7ff f81a 	bl	8002e84 <_malloc_r>
 8003e50:	4605      	mov	r5, r0
 8003e52:	2800      	cmp	r0, #0
 8003e54:	d0f2      	beq.n	8003e3c <_realloc_r+0x1c>
 8003e56:	4631      	mov	r1, r6
 8003e58:	4622      	mov	r2, r4
 8003e5a:	f7ff ffad 	bl	8003db8 <memcpy>
 8003e5e:	4631      	mov	r1, r6
 8003e60:	4638      	mov	r0, r7
 8003e62:	f7fe ffbf 	bl	8002de4 <_free_r>
 8003e66:	e7e9      	b.n	8003e3c <_realloc_r+0x1c>
 8003e68:	4635      	mov	r5, r6
 8003e6a:	e7e7      	b.n	8003e3c <_realloc_r+0x1c>

08003e6c <_raise_r>:
 8003e6c:	291f      	cmp	r1, #31
 8003e6e:	b538      	push	{r3, r4, r5, lr}
 8003e70:	4604      	mov	r4, r0
 8003e72:	460d      	mov	r5, r1
 8003e74:	d904      	bls.n	8003e80 <_raise_r+0x14>
 8003e76:	2316      	movs	r3, #22
 8003e78:	6003      	str	r3, [r0, #0]
 8003e7a:	f04f 30ff 	mov.w	r0, #4294967295
 8003e7e:	bd38      	pop	{r3, r4, r5, pc}
 8003e80:	6c42      	ldr	r2, [r0, #68]	; 0x44
 8003e82:	b112      	cbz	r2, 8003e8a <_raise_r+0x1e>
 8003e84:	f852 3021 	ldr.w	r3, [r2, r1, lsl #2]
 8003e88:	b94b      	cbnz	r3, 8003e9e <_raise_r+0x32>
 8003e8a:	4620      	mov	r0, r4
 8003e8c:	f000 f830 	bl	8003ef0 <_getpid_r>
 8003e90:	462a      	mov	r2, r5
 8003e92:	4601      	mov	r1, r0
 8003e94:	4620      	mov	r0, r4
 8003e96:	e8bd 4038 	ldmia.w	sp!, {r3, r4, r5, lr}
 8003e9a:	f000 b817 	b.w	8003ecc <_kill_r>
 8003e9e:	2b01      	cmp	r3, #1
 8003ea0:	d00a      	beq.n	8003eb8 <_raise_r+0x4c>
 8003ea2:	1c59      	adds	r1, r3, #1
 8003ea4:	d103      	bne.n	8003eae <_raise_r+0x42>
 8003ea6:	2316      	movs	r3, #22
 8003ea8:	6003      	str	r3, [r0, #0]
 8003eaa:	2001      	movs	r0, #1
 8003eac:	e7e7      	b.n	8003e7e <_raise_r+0x12>
 8003eae:	2400      	movs	r4, #0
 8003eb0:	f842 4025 	str.w	r4, [r2, r5, lsl #2]
 8003eb4:	4628      	mov	r0, r5
 8003eb6:	4798      	blx	r3
 8003eb8:	2000      	movs	r0, #0
 8003eba:	e7e0      	b.n	8003e7e <_raise_r+0x12>

08003ebc <raise>:
 8003ebc:	4b02      	ldr	r3, [pc, #8]	; (8003ec8 <raise+0xc>)
 8003ebe:	4601      	mov	r1, r0
 8003ec0:	6818      	ldr	r0, [r3, #0]
 8003ec2:	f7ff bfd3 	b.w	8003e6c <_raise_r>
 8003ec6:	bf00      	nop
 8003ec8:	2000002c 	.word	0x2000002c

08003ecc <_kill_r>:
 8003ecc:	b538      	push	{r3, r4, r5, lr}
 8003ece:	4d07      	ldr	r5, [pc, #28]	; (8003eec <_kill_r+0x20>)
 8003ed0:	2300      	movs	r3, #0
 8003ed2:	4604      	mov	r4, r0
 8003ed4:	4608      	mov	r0, r1
 8003ed6:	4611      	mov	r1, r2
 8003ed8:	602b      	str	r3, [r5, #0]
 8003eda:	f7fc fdf9 	bl	8000ad0 <_kill>
 8003ede:	1c43      	adds	r3, r0, #1
 8003ee0:	d102      	bne.n	8003ee8 <_kill_r+0x1c>
 8003ee2:	682b      	ldr	r3, [r5, #0]
 8003ee4:	b103      	cbz	r3, 8003ee8 <_kill_r+0x1c>
 8003ee6:	6023      	str	r3, [r4, #0]
 8003ee8:	bd38      	pop	{r3, r4, r5, pc}
 8003eea:	bf00      	nop
 8003eec:	2001307c 	.word	0x2001307c

08003ef0 <_getpid_r>:
 8003ef0:	f7fc bdec 	b.w	8000acc <_getpid>

08003ef4 <__sread>:
 8003ef4:	b510      	push	{r4, lr}
 8003ef6:	460c      	mov	r4, r1
 8003ef8:	f9b1 100e 	ldrsh.w	r1, [r1, #14]
 8003efc:	f000 f89c 	bl	8004038 <_read_r>
 8003f00:	2800      	cmp	r0, #0
 8003f02:	bfab      	itete	ge
 8003f04:	6d63      	ldrge	r3, [r4, #84]	; 0x54
 8003f06:	89a3      	ldrhlt	r3, [r4, #12]
 8003f08:	181b      	addge	r3, r3, r0
 8003f0a:	f423 5380 	biclt.w	r3, r3, #4096	; 0x1000
 8003f0e:	bfac      	ite	ge
 8003f10:	6563      	strge	r3, [r4, #84]	; 0x54
 8003f12:	81a3      	strhlt	r3, [r4, #12]
 8003f14:	bd10      	pop	{r4, pc}

08003f16 <__swrite>:
 8003f16:	e92d 41f0 	stmdb	sp!, {r4, r5, r6, r7, r8, lr}
 8003f1a:	461f      	mov	r7, r3
 8003f1c:	898b      	ldrh	r3, [r1, #12]
 8003f1e:	05db      	lsls	r3, r3, #23
 8003f20:	4605      	mov	r5, r0
 8003f22:	460c      	mov	r4, r1
 8003f24:	4616      	mov	r6, r2
 8003f26:	d505      	bpl.n	8003f34 <__swrite+0x1e>
 8003f28:	f9b1 100e 	ldrsh.w	r1, [r1, #14]
 8003f2c:	2302      	movs	r3, #2
 8003f2e:	2200      	movs	r2, #0
 8003f30:	f000 f868 	bl	8004004 <_lseek_r>
 8003f34:	89a3      	ldrh	r3, [r4, #12]
 8003f36:	f9b4 100e 	ldrsh.w	r1, [r4, #14]
 8003f3a:	f423 5380 	bic.w	r3, r3, #4096	; 0x1000
 8003f3e:	81a3      	strh	r3, [r4, #12]
 8003f40:	4632      	mov	r2, r6
 8003f42:	463b      	mov	r3, r7
 8003f44:	4628      	mov	r0, r5
 8003f46:	e8bd 41f0 	ldmia.w	sp!, {r4, r5, r6, r7, r8, lr}
 8003f4a:	f000 b817 	b.w	8003f7c <_write_r>

08003f4e <__sseek>:
 8003f4e:	b510      	push	{r4, lr}
 8003f50:	460c      	mov	r4, r1
 8003f52:	f9b1 100e 	ldrsh.w	r1, [r1, #14]
 8003f56:	f000 f855 	bl	8004004 <_lseek_r>
 8003f5a:	1c43      	adds	r3, r0, #1
 8003f5c:	89a3      	ldrh	r3, [r4, #12]
 8003f5e:	bf15      	itete	ne
 8003f60:	6560      	strne	r0, [r4, #84]	; 0x54
 8003f62:	f423 5380 	biceq.w	r3, r3, #4096	; 0x1000
 8003f66:	f443 5380 	orrne.w	r3, r3, #4096	; 0x1000
 8003f6a:	81a3      	strheq	r3, [r4, #12]
 8003f6c:	bf18      	it	ne
 8003f6e:	81a3      	strhne	r3, [r4, #12]
 8003f70:	bd10      	pop	{r4, pc}

08003f72 <__sclose>:
 8003f72:	f9b1 100e 	ldrsh.w	r1, [r1, #14]
 8003f76:	f000 b813 	b.w	8003fa0 <_close_r>
	...

08003f7c <_write_r>:
 8003f7c:	b538      	push	{r3, r4, r5, lr}
 8003f7e:	4d07      	ldr	r5, [pc, #28]	; (8003f9c <_write_r+0x20>)
 8003f80:	4604      	mov	r4, r0
 8003f82:	4608      	mov	r0, r1
 8003f84:	4611      	mov	r1, r2
 8003f86:	2200      	movs	r2, #0
 8003f88:	602a      	str	r2, [r5, #0]
 8003f8a:	461a      	mov	r2, r3
 8003f8c:	f7fc fdbb 	bl	8000b06 <_write>
 8003f90:	1c43      	adds	r3, r0, #1
 8003f92:	d102      	bne.n	8003f9a <_write_r+0x1e>
 8003f94:	682b      	ldr	r3, [r5, #0]
 8003f96:	b103      	cbz	r3, 8003f9a <_write_r+0x1e>
 8003f98:	6023      	str	r3, [r4, #0]
 8003f9a:	bd38      	pop	{r3, r4, r5, pc}
 8003f9c:	2001307c 	.word	0x2001307c

08003fa0 <_close_r>:
 8003fa0:	b538      	push	{r3, r4, r5, lr}
 8003fa2:	4d06      	ldr	r5, [pc, #24]	; (8003fbc <_close_r+0x1c>)
 8003fa4:	2300      	movs	r3, #0
 8003fa6:	4604      	mov	r4, r0
 8003fa8:	4608      	mov	r0, r1
 8003faa:	602b      	str	r3, [r5, #0]
 8003fac:	f7fc fdb8 	bl	8000b20 <_close>
 8003fb0:	1c43      	adds	r3, r0, #1
 8003fb2:	d102      	bne.n	8003fba <_close_r+0x1a>
 8003fb4:	682b      	ldr	r3, [r5, #0]
 8003fb6:	b103      	cbz	r3, 8003fba <_close_r+0x1a>
 8003fb8:	6023      	str	r3, [r4, #0]
 8003fba:	bd38      	pop	{r3, r4, r5, pc}
 8003fbc:	2001307c 	.word	0x2001307c

08003fc0 <_fstat_r>:
 8003fc0:	b538      	push	{r3, r4, r5, lr}
 8003fc2:	4d07      	ldr	r5, [pc, #28]	; (8003fe0 <_fstat_r+0x20>)
 8003fc4:	2300      	movs	r3, #0
 8003fc6:	4604      	mov	r4, r0
 8003fc8:	4608      	mov	r0, r1
 8003fca:	4611      	mov	r1, r2
 8003fcc:	602b      	str	r3, [r5, #0]
 8003fce:	f7fc fdaa 	bl	8000b26 <_fstat>
 8003fd2:	1c43      	adds	r3, r0, #1
 8003fd4:	d102      	bne.n	8003fdc <_fstat_r+0x1c>
 8003fd6:	682b      	ldr	r3, [r5, #0]
 8003fd8:	b103      	cbz	r3, 8003fdc <_fstat_r+0x1c>
 8003fda:	6023      	str	r3, [r4, #0]
 8003fdc:	bd38      	pop	{r3, r4, r5, pc}
 8003fde:	bf00      	nop
 8003fe0:	2001307c 	.word	0x2001307c

08003fe4 <_isatty_r>:
 8003fe4:	b538      	push	{r3, r4, r5, lr}
 8003fe6:	4d06      	ldr	r5, [pc, #24]	; (8004000 <_isatty_r+0x1c>)
 8003fe8:	2300      	movs	r3, #0
 8003fea:	4604      	mov	r4, r0
 8003fec:	4608      	mov	r0, r1
 8003fee:	602b      	str	r3, [r5, #0]
 8003ff0:	f7fc fd9e 	bl	8000b30 <_isatty>
 8003ff4:	1c43      	adds	r3, r0, #1
 8003ff6:	d102      	bne.n	8003ffe <_isatty_r+0x1a>
 8003ff8:	682b      	ldr	r3, [r5, #0]
 8003ffa:	b103      	cbz	r3, 8003ffe <_isatty_r+0x1a>
 8003ffc:	6023      	str	r3, [r4, #0]
 8003ffe:	bd38      	pop	{r3, r4, r5, pc}
 8004000:	2001307c 	.word	0x2001307c

08004004 <_lseek_r>:
 8004004:	b538      	push	{r3, r4, r5, lr}
 8004006:	4d07      	ldr	r5, [pc, #28]	; (8004024 <_lseek_r+0x20>)
 8004008:	4604      	mov	r4, r0
 800400a:	4608      	mov	r0, r1
 800400c:	4611      	mov	r1, r2
 800400e:	2200      	movs	r2, #0
 8004010:	602a      	str	r2, [r5, #0]
 8004012:	461a      	mov	r2, r3
 8004014:	f7fc fd8e 	bl	8000b34 <_lseek>
 8004018:	1c43      	adds	r3, r0, #1
 800401a:	d102      	bne.n	8004022 <_lseek_r+0x1e>
 800401c:	682b      	ldr	r3, [r5, #0]
 800401e:	b103      	cbz	r3, 8004022 <_lseek_r+0x1e>
 8004020:	6023      	str	r3, [r4, #0]
 8004022:	bd38      	pop	{r3, r4, r5, pc}
 8004024:	2001307c 	.word	0x2001307c

08004028 <_malloc_usable_size_r>:
 8004028:	f851 3c04 	ldr.w	r3, [r1, #-4]
 800402c:	1f18      	subs	r0, r3, #4
 800402e:	2b00      	cmp	r3, #0
 8004030:	bfbc      	itt	lt
 8004032:	580b      	ldrlt	r3, [r1, r0]
 8004034:	18c0      	addlt	r0, r0, r3
 8004036:	4770      	bx	lr

08004038 <_read_r>:
 8004038:	b538      	push	{r3, r4, r5, lr}
 800403a:	4d07      	ldr	r5, [pc, #28]	; (8004058 <_read_r+0x20>)
 800403c:	4604      	mov	r4, r0
 800403e:	4608      	mov	r0, r1
 8004040:	4611      	mov	r1, r2
 8004042:	2200      	movs	r2, #0
 8004044:	602a      	str	r2, [r5, #0]
 8004046:	461a      	mov	r2, r3
 8004048:	f7fc fd50 	bl	8000aec <_read>
 800404c:	1c43      	adds	r3, r0, #1
 800404e:	d102      	bne.n	8004056 <_read_r+0x1e>
 8004050:	682b      	ldr	r3, [r5, #0]
 8004052:	b103      	cbz	r3, 8004056 <_read_r+0x1e>
 8004054:	6023      	str	r3, [r4, #0]
 8004056:	bd38      	pop	{r3, r4, r5, pc}
 8004058:	2001307c 	.word	0x2001307c

0800405c <_init>:
 800405c:	b5f8      	push	{r3, r4, r5, r6, r7, lr}
 800405e:	bf00      	nop
 8004060:	bcf8      	pop	{r3, r4, r5, r6, r7}
 8004062:	bc08      	pop	{r3}
 8004064:	469e      	mov	lr, r3
 8004066:	4770      	bx	lr

08004068 <_fini>:
 8004068:	b5f8      	push	{r3, r4, r5, r6, r7, lr}
 800406a:	bf00      	nop
 800406c:	bcf8      	pop	{r3, r4, r5, r6, r7}
 800406e:	bc08      	pop	{r3}
 8004070:	469e      	mov	lr, r3
 8004072:	4770      	bx	lr
