
VGAnuS_Software-Ontwikkeling.elf:     file format elf32-littlearm

Sections:
Idx Name          Size      VMA       LMA       File off  Algn
  0 .isr_vector   00000188  08000000  08000000  00010000  2**0
                  CONTENTS, ALLOC, LOAD, READONLY, DATA
  1 .text         00002380  08000188  08000188  00010188  2**2
                  CONTENTS, ALLOC, LOAD, READONLY, CODE
  2 .rodata       00000020  08002508  08002508  00012508  2**0
                  CONTENTS, ALLOC, LOAD, READONLY, DATA
  3 .ARM.extab    00000000  08002528  08002528  0002001c  2**0
                  CONTENTS
  4 .ARM          00000008  08002528  08002528  00012528  2**2
                  CONTENTS, ALLOC, LOAD, READONLY, DATA
  5 .preinit_array 00000000  08002530  08002530  0002001c  2**0
                  CONTENTS, ALLOC, LOAD, DATA
  6 .init_array   00000004  08002530  08002530  00012530  2**2
                  CONTENTS, ALLOC, LOAD, DATA
  7 .fini_array   00000004  08002534  08002534  00012534  2**2
                  CONTENTS, ALLOC, LOAD, DATA
  8 .data         0000001c  20000000  08002538  00020000  2**2
                  CONTENTS, ALLOC, LOAD, DATA
  9 .bss          00012ee4  2000001c  08002554  0002001c  2**2
                  ALLOC
 10 ._user_heap_stack 00000600  20012f00  08002554  00022f00  2**0
                  ALLOC
 11 .ARM.attributes 00000030  00000000  00000000  0002001c  2**0
                  CONTENTS, READONLY
 12 .comment      00000053  00000000  00000000  0002004c  2**0
                  CONTENTS, READONLY
 13 .debug_frame  000000ac  00000000  00000000  000200a0  2**2
                  CONTENTS, READONLY, DEBUGGING, OCTETS

Disassembly of section .text:

08000188 <__do_global_dtors_aux>:
 8000188:	b510      	push	{r4, lr}
 800018a:	4c05      	ldr	r4, [pc, #20]	; (80001a0 <__do_global_dtors_aux+0x18>)
 800018c:	7823      	ldrb	r3, [r4, #0]
 800018e:	b933      	cbnz	r3, 800019e <__do_global_dtors_aux+0x16>
 8000190:	4b04      	ldr	r3, [pc, #16]	; (80001a4 <__do_global_dtors_aux+0x1c>)
 8000192:	b113      	cbz	r3, 800019a <__do_global_dtors_aux+0x12>
 8000194:	4804      	ldr	r0, [pc, #16]	; (80001a8 <__do_global_dtors_aux+0x20>)
 8000196:	f3af 8000 	nop.w
 800019a:	2301      	movs	r3, #1
 800019c:	7023      	strb	r3, [r4, #0]
 800019e:	bd10      	pop	{r4, pc}
 80001a0:	2000001c 	.word	0x2000001c
 80001a4:	00000000 	.word	0x00000000
 80001a8:	080024f0 	.word	0x080024f0

080001ac <frame_dummy>:
 80001ac:	b508      	push	{r3, lr}
 80001ae:	4b03      	ldr	r3, [pc, #12]	; (80001bc <frame_dummy+0x10>)
 80001b0:	b11b      	cbz	r3, 80001ba <frame_dummy+0xe>
 80001b2:	4903      	ldr	r1, [pc, #12]	; (80001c0 <frame_dummy+0x14>)
 80001b4:	4803      	ldr	r0, [pc, #12]	; (80001c4 <frame_dummy+0x18>)
 80001b6:	f3af 8000 	nop.w
 80001ba:	bd08      	pop	{r3, pc}
 80001bc:	00000000 	.word	0x00000000
 80001c0:	20000020 	.word	0x20000020
 80001c4:	080024f0 	.word	0x080024f0

080001c8 <strlen>:
 80001c8:	4603      	mov	r3, r0
 80001ca:	f813 2b01 	ldrb.w	r2, [r3], #1
 80001ce:	2a00      	cmp	r2, #0
 80001d0:	d1fb      	bne.n	80001ca <strlen+0x2>
 80001d2:	1a18      	subs	r0, r3, r0
 80001d4:	3801      	subs	r0, #1
 80001d6:	4770      	bx	lr

080001d8 <__aeabi_uldivmod>:
 80001d8:	b953      	cbnz	r3, 80001f0 <__aeabi_uldivmod+0x18>
 80001da:	b94a      	cbnz	r2, 80001f0 <__aeabi_uldivmod+0x18>
 80001dc:	2900      	cmp	r1, #0
 80001de:	bf08      	it	eq
 80001e0:	2800      	cmpeq	r0, #0
 80001e2:	bf1c      	itt	ne
 80001e4:	f04f 31ff 	movne.w	r1, #4294967295
 80001e8:	f04f 30ff 	movne.w	r0, #4294967295
 80001ec:	f000 b96e 	b.w	80004cc <__aeabi_idiv0>
 80001f0:	f1ad 0c08 	sub.w	ip, sp, #8
 80001f4:	e96d ce04 	strd	ip, lr, [sp, #-16]!
 80001f8:	f000 f806 	bl	8000208 <__udivmoddi4>
 80001fc:	f8dd e004 	ldr.w	lr, [sp, #4]
 8000200:	e9dd 2302 	ldrd	r2, r3, [sp, #8]
 8000204:	b004      	add	sp, #16
 8000206:	4770      	bx	lr

08000208 <__udivmoddi4>:
 8000208:	e92d 47f0 	stmdb	sp!, {r4, r5, r6, r7, r8, r9, sl, lr}
 800020c:	9d08      	ldr	r5, [sp, #32]
 800020e:	4604      	mov	r4, r0
 8000210:	468c      	mov	ip, r1
 8000212:	2b00      	cmp	r3, #0
 8000214:	f040 8083 	bne.w	800031e <__udivmoddi4+0x116>
 8000218:	428a      	cmp	r2, r1
 800021a:	4617      	mov	r7, r2
 800021c:	d947      	bls.n	80002ae <__udivmoddi4+0xa6>
 800021e:	fab2 f282 	clz	r2, r2
 8000222:	b142      	cbz	r2, 8000236 <__udivmoddi4+0x2e>
 8000224:	f1c2 0020 	rsb	r0, r2, #32
 8000228:	fa24 f000 	lsr.w	r0, r4, r0
 800022c:	4091      	lsls	r1, r2
 800022e:	4097      	lsls	r7, r2
 8000230:	ea40 0c01 	orr.w	ip, r0, r1
 8000234:	4094      	lsls	r4, r2
 8000236:	ea4f 4817 	mov.w	r8, r7, lsr #16
 800023a:	0c23      	lsrs	r3, r4, #16
 800023c:	fbbc f6f8 	udiv	r6, ip, r8
 8000240:	fa1f fe87 	uxth.w	lr, r7
 8000244:	fb08 c116 	mls	r1, r8, r6, ip
 8000248:	ea43 4301 	orr.w	r3, r3, r1, lsl #16
 800024c:	fb06 f10e 	mul.w	r1, r6, lr
 8000250:	4299      	cmp	r1, r3
 8000252:	d909      	bls.n	8000268 <__udivmoddi4+0x60>
 8000254:	18fb      	adds	r3, r7, r3
 8000256:	f106 30ff 	add.w	r0, r6, #4294967295
 800025a:	f080 8119 	bcs.w	8000490 <__udivmoddi4+0x288>
 800025e:	4299      	cmp	r1, r3
 8000260:	f240 8116 	bls.w	8000490 <__udivmoddi4+0x288>
 8000264:	3e02      	subs	r6, #2
 8000266:	443b      	add	r3, r7
 8000268:	1a5b      	subs	r3, r3, r1
 800026a:	b2a4      	uxth	r4, r4
 800026c:	fbb3 f0f8 	udiv	r0, r3, r8
 8000270:	fb08 3310 	mls	r3, r8, r0, r3
 8000274:	ea44 4403 	orr.w	r4, r4, r3, lsl #16
 8000278:	fb00 fe0e 	mul.w	lr, r0, lr
 800027c:	45a6      	cmp	lr, r4
 800027e:	d909      	bls.n	8000294 <__udivmoddi4+0x8c>
 8000280:	193c      	adds	r4, r7, r4
 8000282:	f100 33ff 	add.w	r3, r0, #4294967295
 8000286:	f080 8105 	bcs.w	8000494 <__udivmoddi4+0x28c>
 800028a:	45a6      	cmp	lr, r4
 800028c:	f240 8102 	bls.w	8000494 <__udivmoddi4+0x28c>
 8000290:	3802      	subs	r0, #2
 8000292:	443c      	add	r4, r7
 8000294:	ea40 4006 	orr.w	r0, r0, r6, lsl #16
 8000298:	eba4 040e 	sub.w	r4, r4, lr
 800029c:	2600      	movs	r6, #0
 800029e:	b11d      	cbz	r5, 80002a8 <__udivmoddi4+0xa0>
 80002a0:	40d4      	lsrs	r4, r2
 80002a2:	2300      	movs	r3, #0
 80002a4:	e9c5 4300 	strd	r4, r3, [r5]
 80002a8:	4631      	mov	r1, r6
 80002aa:	e8bd 87f0 	ldmia.w	sp!, {r4, r5, r6, r7, r8, r9, sl, pc}
 80002ae:	b902      	cbnz	r2, 80002b2 <__udivmoddi4+0xaa>
 80002b0:	deff      	udf	#255	; 0xff
 80002b2:	fab2 f282 	clz	r2, r2
 80002b6:	2a00      	cmp	r2, #0
 80002b8:	d150      	bne.n	800035c <__udivmoddi4+0x154>
 80002ba:	1bcb      	subs	r3, r1, r7
 80002bc:	ea4f 4e17 	mov.w	lr, r7, lsr #16
 80002c0:	fa1f f887 	uxth.w	r8, r7
 80002c4:	2601      	movs	r6, #1
 80002c6:	fbb3 fcfe 	udiv	ip, r3, lr
 80002ca:	0c21      	lsrs	r1, r4, #16
 80002cc:	fb0e 331c 	mls	r3, lr, ip, r3
 80002d0:	ea41 4103 	orr.w	r1, r1, r3, lsl #16
 80002d4:	fb08 f30c 	mul.w	r3, r8, ip
 80002d8:	428b      	cmp	r3, r1
 80002da:	d907      	bls.n	80002ec <__udivmoddi4+0xe4>
 80002dc:	1879      	adds	r1, r7, r1
 80002de:	f10c 30ff 	add.w	r0, ip, #4294967295
 80002e2:	d202      	bcs.n	80002ea <__udivmoddi4+0xe2>
 80002e4:	428b      	cmp	r3, r1
 80002e6:	f200 80e9 	bhi.w	80004bc <__udivmoddi4+0x2b4>
 80002ea:	4684      	mov	ip, r0
 80002ec:	1ac9      	subs	r1, r1, r3
 80002ee:	b2a3      	uxth	r3, r4
 80002f0:	fbb1 f0fe 	udiv	r0, r1, lr
 80002f4:	fb0e 1110 	mls	r1, lr, r0, r1
 80002f8:	ea43 4401 	orr.w	r4, r3, r1, lsl #16
 80002fc:	fb08 f800 	mul.w	r8, r8, r0
 8000300:	45a0      	cmp	r8, r4
 8000302:	d907      	bls.n	8000314 <__udivmoddi4+0x10c>
 8000304:	193c      	adds	r4, r7, r4
 8000306:	f100 33ff 	add.w	r3, r0, #4294967295
 800030a:	d202      	bcs.n	8000312 <__udivmoddi4+0x10a>
 800030c:	45a0      	cmp	r8, r4
 800030e:	f200 80d9 	bhi.w	80004c4 <__udivmoddi4+0x2bc>
 8000312:	4618      	mov	r0, r3
 8000314:	eba4 0408 	sub.w	r4, r4, r8
 8000318:	ea40 400c 	orr.w	r0, r0, ip, lsl #16
 800031c:	e7bf      	b.n	800029e <__udivmoddi4+0x96>
 800031e:	428b      	cmp	r3, r1
 8000320:	d909      	bls.n	8000336 <__udivmoddi4+0x12e>
 8000322:	2d00      	cmp	r5, #0
 8000324:	f000 80b1 	beq.w	800048a <__udivmoddi4+0x282>
 8000328:	2600      	movs	r6, #0
 800032a:	e9c5 0100 	strd	r0, r1, [r5]
 800032e:	4630      	mov	r0, r6
 8000330:	4631      	mov	r1, r6
 8000332:	e8bd 87f0 	ldmia.w	sp!, {r4, r5, r6, r7, r8, r9, sl, pc}
 8000336:	fab3 f683 	clz	r6, r3
 800033a:	2e00      	cmp	r6, #0
 800033c:	d14a      	bne.n	80003d4 <__udivmoddi4+0x1cc>
 800033e:	428b      	cmp	r3, r1
 8000340:	d302      	bcc.n	8000348 <__udivmoddi4+0x140>
 8000342:	4282      	cmp	r2, r0
 8000344:	f200 80b8 	bhi.w	80004b8 <__udivmoddi4+0x2b0>
 8000348:	1a84      	subs	r4, r0, r2
 800034a:	eb61 0103 	sbc.w	r1, r1, r3
 800034e:	2001      	movs	r0, #1
 8000350:	468c      	mov	ip, r1
 8000352:	2d00      	cmp	r5, #0
 8000354:	d0a8      	beq.n	80002a8 <__udivmoddi4+0xa0>
 8000356:	e9c5 4c00 	strd	r4, ip, [r5]
 800035a:	e7a5      	b.n	80002a8 <__udivmoddi4+0xa0>
 800035c:	f1c2 0320 	rsb	r3, r2, #32
 8000360:	fa20 f603 	lsr.w	r6, r0, r3
 8000364:	4097      	lsls	r7, r2
 8000366:	fa01 f002 	lsl.w	r0, r1, r2
 800036a:	ea4f 4e17 	mov.w	lr, r7, lsr #16
 800036e:	40d9      	lsrs	r1, r3
 8000370:	4330      	orrs	r0, r6
 8000372:	0c03      	lsrs	r3, r0, #16
 8000374:	fbb1 f6fe 	udiv	r6, r1, lr
 8000378:	fa1f f887 	uxth.w	r8, r7
 800037c:	fb0e 1116 	mls	r1, lr, r6, r1
 8000380:	ea43 4301 	orr.w	r3, r3, r1, lsl #16
 8000384:	fb06 f108 	mul.w	r1, r6, r8
 8000388:	4299      	cmp	r1, r3
 800038a:	fa04 f402 	lsl.w	r4, r4, r2
 800038e:	d909      	bls.n	80003a4 <__udivmoddi4+0x19c>
 8000390:	18fb      	adds	r3, r7, r3
 8000392:	f106 3cff 	add.w	ip, r6, #4294967295
 8000396:	f080 808d 	bcs.w	80004b4 <__udivmoddi4+0x2ac>
 800039a:	4299      	cmp	r1, r3
 800039c:	f240 808a 	bls.w	80004b4 <__udivmoddi4+0x2ac>
 80003a0:	3e02      	subs	r6, #2
 80003a2:	443b      	add	r3, r7
 80003a4:	1a5b      	subs	r3, r3, r1
 80003a6:	b281      	uxth	r1, r0
 80003a8:	fbb3 f0fe 	udiv	r0, r3, lr
 80003ac:	fb0e 3310 	mls	r3, lr, r0, r3
 80003b0:	ea41 4103 	orr.w	r1, r1, r3, lsl #16
 80003b4:	fb00 f308 	mul.w	r3, r0, r8
 80003b8:	428b      	cmp	r3, r1
 80003ba:	d907      	bls.n	80003cc <__udivmoddi4+0x1c4>
 80003bc:	1879      	adds	r1, r7, r1
 80003be:	f100 3cff 	add.w	ip, r0, #4294967295
 80003c2:	d273      	bcs.n	80004ac <__udivmoddi4+0x2a4>
 80003c4:	428b      	cmp	r3, r1
 80003c6:	d971      	bls.n	80004ac <__udivmoddi4+0x2a4>
 80003c8:	3802      	subs	r0, #2
 80003ca:	4439      	add	r1, r7
 80003cc:	1acb      	subs	r3, r1, r3
 80003ce:	ea40 4606 	orr.w	r6, r0, r6, lsl #16
 80003d2:	e778      	b.n	80002c6 <__udivmoddi4+0xbe>
 80003d4:	f1c6 0c20 	rsb	ip, r6, #32
 80003d8:	fa03 f406 	lsl.w	r4, r3, r6
 80003dc:	fa22 f30c 	lsr.w	r3, r2, ip
 80003e0:	431c      	orrs	r4, r3
 80003e2:	fa20 f70c 	lsr.w	r7, r0, ip
 80003e6:	fa01 f306 	lsl.w	r3, r1, r6
 80003ea:	ea4f 4e14 	mov.w	lr, r4, lsr #16
 80003ee:	fa21 f10c 	lsr.w	r1, r1, ip
 80003f2:	431f      	orrs	r7, r3
 80003f4:	0c3b      	lsrs	r3, r7, #16
 80003f6:	fbb1 f9fe 	udiv	r9, r1, lr
 80003fa:	fa1f f884 	uxth.w	r8, r4
 80003fe:	fb0e 1119 	mls	r1, lr, r9, r1
 8000402:	ea43 4101 	orr.w	r1, r3, r1, lsl #16
 8000406:	fb09 fa08 	mul.w	sl, r9, r8
 800040a:	458a      	cmp	sl, r1
 800040c:	fa02 f206 	lsl.w	r2, r2, r6
 8000410:	fa00 f306 	lsl.w	r3, r0, r6
 8000414:	d908      	bls.n	8000428 <__udivmoddi4+0x220>
 8000416:	1861      	adds	r1, r4, r1
 8000418:	f109 30ff 	add.w	r0, r9, #4294967295
 800041c:	d248      	bcs.n	80004b0 <__udivmoddi4+0x2a8>
 800041e:	458a      	cmp	sl, r1
 8000420:	d946      	bls.n	80004b0 <__udivmoddi4+0x2a8>
 8000422:	f1a9 0902 	sub.w	r9, r9, #2
 8000426:	4421      	add	r1, r4
 8000428:	eba1 010a 	sub.w	r1, r1, sl
 800042c:	b2bf      	uxth	r7, r7
 800042e:	fbb1 f0fe 	udiv	r0, r1, lr
 8000432:	fb0e 1110 	mls	r1, lr, r0, r1
 8000436:	ea47 4701 	orr.w	r7, r7, r1, lsl #16
 800043a:	fb00 f808 	mul.w	r8, r0, r8
 800043e:	45b8      	cmp	r8, r7
 8000440:	d907      	bls.n	8000452 <__udivmoddi4+0x24a>
 8000442:	19e7      	adds	r7, r4, r7
 8000444:	f100 31ff 	add.w	r1, r0, #4294967295
 8000448:	d22e      	bcs.n	80004a8 <__udivmoddi4+0x2a0>
 800044a:	45b8      	cmp	r8, r7
 800044c:	d92c      	bls.n	80004a8 <__udivmoddi4+0x2a0>
 800044e:	3802      	subs	r0, #2
 8000450:	4427      	add	r7, r4
 8000452:	ea40 4009 	orr.w	r0, r0, r9, lsl #16
 8000456:	eba7 0708 	sub.w	r7, r7, r8
 800045a:	fba0 8902 	umull	r8, r9, r0, r2
 800045e:	454f      	cmp	r7, r9
 8000460:	46c6      	mov	lr, r8
 8000462:	4649      	mov	r1, r9
 8000464:	d31a      	bcc.n	800049c <__udivmoddi4+0x294>
 8000466:	d017      	beq.n	8000498 <__udivmoddi4+0x290>
 8000468:	b15d      	cbz	r5, 8000482 <__udivmoddi4+0x27a>
 800046a:	ebb3 020e 	subs.w	r2, r3, lr
 800046e:	eb67 0701 	sbc.w	r7, r7, r1
 8000472:	fa07 fc0c 	lsl.w	ip, r7, ip
 8000476:	40f2      	lsrs	r2, r6
 8000478:	ea4c 0202 	orr.w	r2, ip, r2
 800047c:	40f7      	lsrs	r7, r6
 800047e:	e9c5 2700 	strd	r2, r7, [r5]
 8000482:	2600      	movs	r6, #0
 8000484:	4631      	mov	r1, r6
 8000486:	e8bd 87f0 	ldmia.w	sp!, {r4, r5, r6, r7, r8, r9, sl, pc}
 800048a:	462e      	mov	r6, r5
 800048c:	4628      	mov	r0, r5
 800048e:	e70b      	b.n	80002a8 <__udivmoddi4+0xa0>
 8000490:	4606      	mov	r6, r0
 8000492:	e6e9      	b.n	8000268 <__udivmoddi4+0x60>
 8000494:	4618      	mov	r0, r3
 8000496:	e6fd      	b.n	8000294 <__udivmoddi4+0x8c>
 8000498:	4543      	cmp	r3, r8
 800049a:	d2e5      	bcs.n	8000468 <__udivmoddi4+0x260>
 800049c:	ebb8 0e02 	subs.w	lr, r8, r2
 80004a0:	eb69 0104 	sbc.w	r1, r9, r4
 80004a4:	3801      	subs	r0, #1
 80004a6:	e7df      	b.n	8000468 <__udivmoddi4+0x260>
 80004a8:	4608      	mov	r0, r1
 80004aa:	e7d2      	b.n	8000452 <__udivmoddi4+0x24a>
 80004ac:	4660      	mov	r0, ip
 80004ae:	e78d      	b.n	80003cc <__udivmoddi4+0x1c4>
 80004b0:	4681      	mov	r9, r0
 80004b2:	e7b9      	b.n	8000428 <__udivmoddi4+0x220>
 80004b4:	4666      	mov	r6, ip
 80004b6:	e775      	b.n	80003a4 <__udivmoddi4+0x19c>
 80004b8:	4630      	mov	r0, r6
 80004ba:	e74a      	b.n	8000352 <__udivmoddi4+0x14a>
 80004bc:	f1ac 0c02 	sub.w	ip, ip, #2
 80004c0:	4439      	add	r1, r7
 80004c2:	e713      	b.n	80002ec <__udivmoddi4+0xe4>
 80004c4:	3802      	subs	r0, #2
 80004c6:	443c      	add	r4, r7
 80004c8:	e724      	b.n	8000314 <__udivmoddi4+0x10c>
 80004ca:	bf00      	nop

080004cc <__aeabi_idiv0>:
 80004cc:	4770      	bx	lr
 80004ce:	bf00      	nop

080004d0 <MX_DMA_Init>:
 80004d0:	b507      	push	{r0, r1, r2, lr}
 80004d2:	4b14      	ldr	r3, [pc, #80]	; (8000524 <MX_DMA_Init+0x54>)
 80004d4:	2200      	movs	r2, #0
 80004d6:	9200      	str	r2, [sp, #0]
 80004d8:	6b19      	ldr	r1, [r3, #48]	; 0x30
 80004da:	f441 0180 	orr.w	r1, r1, #4194304	; 0x400000
 80004de:	6319      	str	r1, [r3, #48]	; 0x30
 80004e0:	6b19      	ldr	r1, [r3, #48]	; 0x30
 80004e2:	f401 0180 	and.w	r1, r1, #4194304	; 0x400000
 80004e6:	9100      	str	r1, [sp, #0]
 80004e8:	9900      	ldr	r1, [sp, #0]
 80004ea:	9201      	str	r2, [sp, #4]
 80004ec:	6b19      	ldr	r1, [r3, #48]	; 0x30
 80004ee:	f441 1100 	orr.w	r1, r1, #2097152	; 0x200000
 80004f2:	6319      	str	r1, [r3, #48]	; 0x30
 80004f4:	6b1b      	ldr	r3, [r3, #48]	; 0x30
 80004f6:	f403 1300 	and.w	r3, r3, #2097152	; 0x200000
 80004fa:	4611      	mov	r1, r2
 80004fc:	9301      	str	r3, [sp, #4]
 80004fe:	2010      	movs	r0, #16
 8000500:	9b01      	ldr	r3, [sp, #4]
 8000502:	f000 fc17 	bl	8000d34 <HAL_NVIC_SetPriority>
 8000506:	2010      	movs	r0, #16
 8000508:	f000 fc46 	bl	8000d98 <HAL_NVIC_EnableIRQ>
 800050c:	2200      	movs	r2, #0
 800050e:	4611      	mov	r1, r2
 8000510:	2044      	movs	r0, #68	; 0x44
 8000512:	f000 fc0f 	bl	8000d34 <HAL_NVIC_SetPriority>
 8000516:	2044      	movs	r0, #68	; 0x44
 8000518:	b003      	add	sp, #12
 800051a:	f85d eb04 	ldr.w	lr, [sp], #4
 800051e:	f000 bc3b 	b.w	8000d98 <HAL_NVIC_EnableIRQ>
 8000522:	bf00      	nop
 8000524:	40023800 	.word	0x40023800

08000528 <MX_GPIO_Init>:
 8000528:	e92d 41f0 	stmdb	sp!, {r4, r5, r6, r7, r8, lr}
 800052c:	2214      	movs	r2, #20
 800052e:	b08a      	sub	sp, #40	; 0x28
 8000530:	eb0d 0002 	add.w	r0, sp, r2
 8000534:	2100      	movs	r1, #0
 8000536:	f001 ffd3 	bl	80024e0 <memset>
 800053a:	2400      	movs	r4, #0
 800053c:	4b28      	ldr	r3, [pc, #160]	; (80005e0 <MX_GPIO_Init+0xb8>)
 800053e:	9401      	str	r4, [sp, #4]
 8000540:	6b1a      	ldr	r2, [r3, #48]	; 0x30
 8000542:	f8df 80a4 	ldr.w	r8, [pc, #164]	; 80005e8 <MX_GPIO_Init+0xc0>
 8000546:	4d27      	ldr	r5, [pc, #156]	; (80005e4 <MX_GPIO_Init+0xbc>)
 8000548:	f042 0280 	orr.w	r2, r2, #128	; 0x80
 800054c:	631a      	str	r2, [r3, #48]	; 0x30
 800054e:	6b1a      	ldr	r2, [r3, #48]	; 0x30
 8000550:	f002 0280 	and.w	r2, r2, #128	; 0x80
 8000554:	9201      	str	r2, [sp, #4]
 8000556:	9a01      	ldr	r2, [sp, #4]
 8000558:	9402      	str	r4, [sp, #8]
 800055a:	6b1a      	ldr	r2, [r3, #48]	; 0x30
 800055c:	f042 0201 	orr.w	r2, r2, #1
 8000560:	631a      	str	r2, [r3, #48]	; 0x30
 8000562:	6b1a      	ldr	r2, [r3, #48]	; 0x30
 8000564:	f002 0201 	and.w	r2, r2, #1
 8000568:	9202      	str	r2, [sp, #8]
 800056a:	9a02      	ldr	r2, [sp, #8]
 800056c:	9403      	str	r4, [sp, #12]
 800056e:	6b1a      	ldr	r2, [r3, #48]	; 0x30
 8000570:	f042 0210 	orr.w	r2, r2, #16
 8000574:	631a      	str	r2, [r3, #48]	; 0x30
 8000576:	6b1a      	ldr	r2, [r3, #48]	; 0x30
 8000578:	f002 0210 	and.w	r2, r2, #16
 800057c:	9203      	str	r2, [sp, #12]
 800057e:	9a03      	ldr	r2, [sp, #12]
 8000580:	9404      	str	r4, [sp, #16]
 8000582:	6b1a      	ldr	r2, [r3, #48]	; 0x30
 8000584:	f042 0202 	orr.w	r2, r2, #2
 8000588:	631a      	str	r2, [r3, #48]	; 0x30
 800058a:	6b1b      	ldr	r3, [r3, #48]	; 0x30
 800058c:	f003 0302 	and.w	r3, r3, #2
 8000590:	9304      	str	r3, [sp, #16]
 8000592:	4622      	mov	r2, r4
 8000594:	4640      	mov	r0, r8
 8000596:	f44f 417f 	mov.w	r1, #65280	; 0xff00
 800059a:	9b04      	ldr	r3, [sp, #16]
 800059c:	f000 fe88 	bl	80012b0 <HAL_GPIO_WritePin>
 80005a0:	4622      	mov	r2, r4
 80005a2:	4628      	mov	r0, r5
 80005a4:	f44f 5180 	mov.w	r1, #4096	; 0x1000
 80005a8:	f000 fe82 	bl	80012b0 <HAL_GPIO_WritePin>
 80005ac:	2701      	movs	r7, #1
 80005ae:	f44f 437f 	mov.w	r3, #65280	; 0xff00
 80005b2:	2603      	movs	r6, #3
 80005b4:	a905      	add	r1, sp, #20
 80005b6:	4640      	mov	r0, r8
 80005b8:	e9cd 3705 	strd	r3, r7, [sp, #20]
 80005bc:	9407      	str	r4, [sp, #28]
 80005be:	9608      	str	r6, [sp, #32]
 80005c0:	f000 fd9c 	bl	80010fc <HAL_GPIO_Init>
 80005c4:	f44f 5380 	mov.w	r3, #4096	; 0x1000
 80005c8:	a905      	add	r1, sp, #20
 80005ca:	4628      	mov	r0, r5
 80005cc:	e9cd 3705 	strd	r3, r7, [sp, #20]
 80005d0:	e9cd 4607 	strd	r4, r6, [sp, #28]
 80005d4:	f000 fd92 	bl	80010fc <HAL_GPIO_Init>
 80005d8:	b00a      	add	sp, #40	; 0x28
 80005da:	e8bd 81f0 	ldmia.w	sp!, {r4, r5, r6, r7, r8, pc}
 80005de:	bf00      	nop
 80005e0:	40023800 	.word	0x40023800
 80005e4:	40020400 	.word	0x40020400
 80005e8:	40021000 	.word	0x40021000

080005ec <SystemClock_Config>:
 80005ec:	b530      	push	{r4, r5, lr}
 80005ee:	b095      	sub	sp, #84	; 0x54
 80005f0:	2210      	movs	r2, #16
 80005f2:	2100      	movs	r1, #0
 80005f4:	a80a      	add	r0, sp, #40	; 0x28
 80005f6:	f001 ff73 	bl	80024e0 <memset>
 80005fa:	2100      	movs	r1, #0
 80005fc:	2214      	movs	r2, #20
 80005fe:	a803      	add	r0, sp, #12
 8000600:	f001 ff6e 	bl	80024e0 <memset>
 8000604:	2400      	movs	r4, #0
 8000606:	4b1c      	ldr	r3, [pc, #112]	; (8000678 <SystemClock_Config+0x8c>)
 8000608:	9401      	str	r4, [sp, #4]
 800060a:	6c1a      	ldr	r2, [r3, #64]	; 0x40
 800060c:	f042 5280 	orr.w	r2, r2, #268435456	; 0x10000000
 8000610:	641a      	str	r2, [r3, #64]	; 0x40
 8000612:	6c1b      	ldr	r3, [r3, #64]	; 0x40
 8000614:	f003 5380 	and.w	r3, r3, #268435456	; 0x10000000
 8000618:	9301      	str	r3, [sp, #4]
 800061a:	9b01      	ldr	r3, [sp, #4]
 800061c:	4b17      	ldr	r3, [pc, #92]	; (800067c <SystemClock_Config+0x90>)
 800061e:	9402      	str	r4, [sp, #8]
 8000620:	681a      	ldr	r2, [r3, #0]
 8000622:	f442 4280 	orr.w	r2, r2, #16384	; 0x4000
 8000626:	601a      	str	r2, [r3, #0]
 8000628:	681b      	ldr	r3, [r3, #0]
 800062a:	f403 4380 	and.w	r3, r3, #16384	; 0x4000
 800062e:	9302      	str	r3, [sp, #8]
 8000630:	9b02      	ldr	r3, [sp, #8]
 8000632:	2201      	movs	r2, #1
 8000634:	f44f 3380 	mov.w	r3, #65536	; 0x10000
 8000638:	e9cd 2308 	strd	r2, r3, [sp, #32]
 800063c:	2502      	movs	r5, #2
 800063e:	f44f 0380 	mov.w	r3, #4194304	; 0x400000
 8000642:	22a8      	movs	r2, #168	; 0xa8
 8000644:	e9cd 530e 	strd	r5, r3, [sp, #56]	; 0x38
 8000648:	a808      	add	r0, sp, #32
 800064a:	2304      	movs	r3, #4
 800064c:	e9cd 3210 	strd	r3, r2, [sp, #64]	; 0x40
 8000650:	e9cd 5312 	strd	r5, r3, [sp, #72]	; 0x48
 8000654:	f000 fe32 	bl	80012bc <HAL_RCC_OscConfig>
 8000658:	230f      	movs	r3, #15
 800065a:	e9cd 3503 	strd	r3, r5, [sp, #12]
 800065e:	f44f 51a0 	mov.w	r1, #5120	; 0x1400
 8000662:	f44f 5380 	mov.w	r3, #4096	; 0x1000
 8000666:	e9cd 1306 	strd	r1, r3, [sp, #24]
 800066a:	a803      	add	r0, sp, #12
 800066c:	2105      	movs	r1, #5
 800066e:	9405      	str	r4, [sp, #20]
 8000670:	f000 fffe 	bl	8001670 <HAL_RCC_ClockConfig>
 8000674:	b015      	add	sp, #84	; 0x54
 8000676:	bd30      	pop	{r4, r5, pc}
 8000678:	40023800 	.word	0x40023800
 800067c:	40007000 	.word	0x40007000

08000680 <main>:
 8000680:	b508      	push	{r3, lr}
 8000682:	f000 fb19 	bl	8000cb8 <HAL_Init>
 8000686:	f7ff ffb1 	bl	80005ec <SystemClock_Config>
 800068a:	f7ff ff4d 	bl	8000528 <MX_GPIO_Init>
 800068e:	f7ff ff1f 	bl	80004d0 <MX_DMA_Init>
 8000692:	f000 f955 	bl	8000940 <MX_TIM1_Init>
 8000696:	f000 fa0b 	bl	8000ab0 <MX_TIM2_Init>
 800069a:	f000 fa51 	bl	8000b40 <MX_USART2_UART_Init>
 800069e:	f000 f843 	bl	8000728 <UB_VGA_Screen_Init>
 80006a2:	20ff      	movs	r0, #255	; 0xff
 80006a4:	f000 f898 	bl	80007d8 <UB_VGA_FillScreen>
 80006a8:	220a      	movs	r2, #10
 80006aa:	4611      	mov	r1, r2
 80006ac:	4610      	mov	r0, r2
 80006ae:	f000 f881 	bl	80007b4 <UB_VGA_SetPixel>
 80006b2:	2100      	movs	r1, #0
 80006b4:	4608      	mov	r0, r1
 80006b6:	220a      	movs	r2, #10
 80006b8:	f000 f87c 	bl	80007b4 <UB_VGA_SetPixel>
 80006bc:	220a      	movs	r2, #10
 80006be:	2100      	movs	r1, #0
 80006c0:	f240 103f 	movw	r0, #319	; 0x13f
 80006c4:	f000 f876 	bl	80007b4 <UB_VGA_SetPixel>
 80006c8:	4907      	ldr	r1, [pc, #28]	; (80006e8 <main+0x68>)
 80006ca:	4808      	ldr	r0, [pc, #32]	; (80006ec <main+0x6c>)
 80006cc:	2232      	movs	r2, #50	; 0x32
 80006ce:	f001 fecb 	bl	8002468 <HAL_UART_Receive_DMA>
 80006d2:	4807      	ldr	r0, [pc, #28]	; (80006f0 <main+0x70>)
 80006d4:	f7ff fd78 	bl	80001c8 <strlen>
 80006d8:	4905      	ldr	r1, [pc, #20]	; (80006f0 <main+0x70>)
 80006da:	b282      	uxth	r2, r0
 80006dc:	2364      	movs	r3, #100	; 0x64
 80006de:	4803      	ldr	r0, [pc, #12]	; (80006ec <main+0x6c>)
 80006e0:	f001 fdd8 	bl	8002294 <HAL_UART_Transmit>
 80006e4:	e7fe      	b.n	80006e4 <main+0x64>
 80006e6:	bf00      	nop
 80006e8:	20000038 	.word	0x20000038
 80006ec:	20012eb8 	.word	0x20012eb8
 80006f0:	20000000 	.word	0x20000000

080006f4 <HAL_UART_RxCpltCallback>:
 80006f4:	b510      	push	{r4, lr}
 80006f6:	4c09      	ldr	r4, [pc, #36]	; (800071c <HAL_UART_RxCpltCallback+0x28>)
 80006f8:	4909      	ldr	r1, [pc, #36]	; (8000720 <HAL_UART_RxCpltCallback+0x2c>)
 80006fa:	2232      	movs	r2, #50	; 0x32
 80006fc:	4620      	mov	r0, r4
 80006fe:	f001 feb3 	bl	8002468 <HAL_UART_Receive_DMA>
 8000702:	4907      	ldr	r1, [pc, #28]	; (8000720 <HAL_UART_RxCpltCallback+0x2c>)
 8000704:	4608      	mov	r0, r1
 8000706:	f7ff fd5f 	bl	80001c8 <strlen>
 800070a:	4905      	ldr	r1, [pc, #20]	; (8000720 <HAL_UART_RxCpltCallback+0x2c>)
 800070c:	b282      	uxth	r2, r0
 800070e:	2364      	movs	r3, #100	; 0x64
 8000710:	4620      	mov	r0, r4
 8000712:	e8bd 4010 	ldmia.w	sp!, {r4, lr}
 8000716:	f001 bdbd 	b.w	8002294 <HAL_UART_Transmit>
 800071a:	bf00      	nop
 800071c:	20012eb8 	.word	0x20012eb8
 8000720:	20000038 	.word	0x20000038

08000724 <Error_Handler>:
 8000724:	4770      	bx	lr
	...

08000728 <UB_VGA_Screen_Init>:
 8000728:	b538      	push	{r3, r4, r5, lr}
 800072a:	4c1b      	ldr	r4, [pc, #108]	; (8000798 <UB_VGA_Screen_Init+0x70>)
 800072c:	4d1b      	ldr	r5, [pc, #108]	; (800079c <UB_VGA_Screen_Init+0x74>)
 800072e:	2300      	movs	r3, #0
 8000730:	e9c4 3301 	strd	r3, r3, [r4, #4]
 8000734:	8023      	strh	r3, [r4, #0]
 8000736:	f103 4380 	add.w	r3, r3, #1073741824	; 0x40000000
 800073a:	f503 3301 	add.w	r3, r3, #132096	; 0x20400
 800073e:	f44f 5280 	mov.w	r2, #4096	; 0x1000
 8000742:	619a      	str	r2, [r3, #24]
 8000744:	4628      	mov	r0, r5
 8000746:	f001 f8dd 	bl	8001904 <HAL_TIM_Base_Start>
 800074a:	210c      	movs	r1, #12
 800074c:	4628      	mov	r0, r5
 800074e:	f001 fc19 	bl	8001f84 <HAL_TIM_PWM_Start>
 8000752:	2108      	movs	r1, #8
 8000754:	4628      	mov	r0, r5
 8000756:	f001 fc91 	bl	800207c <HAL_TIM_PWM_Start_IT>
 800075a:	4b11      	ldr	r3, [pc, #68]	; (80007a0 <UB_VGA_Screen_Init+0x78>)
 800075c:	4d11      	ldr	r5, [pc, #68]	; (80007a4 <UB_VGA_Screen_Init+0x7c>)
 800075e:	681b      	ldr	r3, [r3, #0]
 8000760:	4911      	ldr	r1, [pc, #68]	; (80007a8 <UB_VGA_Screen_Init+0x80>)
 8000762:	68da      	ldr	r2, [r3, #12]
 8000764:	f442 7280 	orr.w	r2, r2, #256	; 0x100
 8000768:	60da      	str	r2, [r3, #12]
 800076a:	681a      	ldr	r2, [r3, #0]
 800076c:	f042 0201 	orr.w	r2, r2, #1
 8000770:	601a      	str	r2, [r3, #0]
 8000772:	4628      	mov	r0, r5
 8000774:	4a0d      	ldr	r2, [pc, #52]	; (80007ac <UB_VGA_Screen_Init+0x84>)
 8000776:	f240 1341 	movw	r3, #321	; 0x141
 800077a:	f000 fbc7 	bl	8000f0c <HAL_DMA_Start_IT>
 800077e:	4628      	mov	r0, r5
 8000780:	f000 fb44 	bl	8000e0c <HAL_DMA_Init>
 8000784:	682a      	ldr	r2, [r5, #0]
 8000786:	6813      	ldr	r3, [r2, #0]
 8000788:	f043 0310 	orr.w	r3, r3, #16
 800078c:	6013      	str	r3, [r2, #0]
 800078e:	4b08      	ldr	r3, [pc, #32]	; (80007b0 <UB_VGA_Screen_Init+0x88>)
 8000790:	681b      	ldr	r3, [r3, #0]
 8000792:	60a3      	str	r3, [r4, #8]
 8000794:	bd38      	pop	{r3, r4, r5, pc}
 8000796:	bf00      	nop
 8000798:	2000006c 	.word	0x2000006c
 800079c:	20012e10 	.word	0x20012e10
 80007a0:	20012d68 	.word	0x20012d68
 80007a4:	20012db0 	.word	0x20012db0
 80007a8:	20000078 	.word	0x20000078
 80007ac:	40021015 	.word	0x40021015
 80007b0:	40026488 	.word	0x40026488

080007b4 <UB_VGA_SetPixel>:
 80007b4:	4b07      	ldr	r3, [pc, #28]	; (80007d4 <UB_VGA_SetPixel+0x20>)
 80007b6:	b510      	push	{r4, lr}
 80007b8:	29ef      	cmp	r1, #239	; 0xef
 80007ba:	bf88      	it	hi
 80007bc:	2100      	movhi	r1, #0
 80007be:	f240 1441 	movw	r4, #321	; 0x141
 80007c2:	f5b0 7fa0 	cmp.w	r0, #320	; 0x140
 80007c6:	bf28      	it	cs
 80007c8:	2000      	movcs	r0, #0
 80007ca:	fb04 3101 	mla	r1, r4, r1, r3
 80007ce:	540a      	strb	r2, [r1, r0]
 80007d0:	bd10      	pop	{r4, pc}
 80007d2:	bf00      	nop
 80007d4:	20000078 	.word	0x20000078

080007d8 <UB_VGA_FillScreen>:
 80007d8:	b538      	push	{r3, r4, r5, lr}
 80007da:	4602      	mov	r2, r0
 80007dc:	2400      	movs	r4, #0
 80007de:	2500      	movs	r5, #0
 80007e0:	b2a8      	uxth	r0, r5
 80007e2:	4621      	mov	r1, r4
 80007e4:	3501      	adds	r5, #1
 80007e6:	f7ff ffe5 	bl	80007b4 <UB_VGA_SetPixel>
 80007ea:	f5b5 7fa0 	cmp.w	r5, #320	; 0x140
 80007ee:	d1f7      	bne.n	80007e0 <UB_VGA_FillScreen+0x8>
 80007f0:	3401      	adds	r4, #1
 80007f2:	b2a4      	uxth	r4, r4
 80007f4:	2cf0      	cmp	r4, #240	; 0xf0
 80007f6:	d1f2      	bne.n	80007de <UB_VGA_FillScreen+0x6>
 80007f8:	bd38      	pop	{r3, r4, r5, pc}
	...

080007fc <HAL_MspInit>:
 80007fc:	b082      	sub	sp, #8
 80007fe:	4b0c      	ldr	r3, [pc, #48]	; (8000830 <HAL_MspInit+0x34>)
 8000800:	2100      	movs	r1, #0
 8000802:	9100      	str	r1, [sp, #0]
 8000804:	6c5a      	ldr	r2, [r3, #68]	; 0x44
 8000806:	f442 4280 	orr.w	r2, r2, #16384	; 0x4000
 800080a:	645a      	str	r2, [r3, #68]	; 0x44
 800080c:	6c5a      	ldr	r2, [r3, #68]	; 0x44
 800080e:	f402 4280 	and.w	r2, r2, #16384	; 0x4000
 8000812:	9200      	str	r2, [sp, #0]
 8000814:	9a00      	ldr	r2, [sp, #0]
 8000816:	9101      	str	r1, [sp, #4]
 8000818:	6c1a      	ldr	r2, [r3, #64]	; 0x40
 800081a:	f042 5280 	orr.w	r2, r2, #268435456	; 0x10000000
 800081e:	641a      	str	r2, [r3, #64]	; 0x40
 8000820:	6c1b      	ldr	r3, [r3, #64]	; 0x40
 8000822:	f003 5380 	and.w	r3, r3, #268435456	; 0x10000000
 8000826:	9301      	str	r3, [sp, #4]
 8000828:	9b01      	ldr	r3, [sp, #4]
 800082a:	b002      	add	sp, #8
 800082c:	4770      	bx	lr
 800082e:	bf00      	nop
 8000830:	40023800 	.word	0x40023800

08000834 <NMI_Handler>:
 8000834:	4770      	bx	lr

08000836 <HardFault_Handler>:
 8000836:	e7fe      	b.n	8000836 <HardFault_Handler>

08000838 <MemManage_Handler>:
 8000838:	e7fe      	b.n	8000838 <MemManage_Handler>

0800083a <BusFault_Handler>:
 800083a:	e7fe      	b.n	800083a <BusFault_Handler>

0800083c <UsageFault_Handler>:
 800083c:	e7fe      	b.n	800083c <UsageFault_Handler>

0800083e <SVC_Handler>:
 800083e:	4770      	bx	lr

08000840 <DebugMon_Handler>:
 8000840:	4770      	bx	lr

08000842 <PendSV_Handler>:
 8000842:	4770      	bx	lr

08000844 <SysTick_Handler>:
 8000844:	f000 ba52 	b.w	8000cec <HAL_IncTick>

08000848 <DMA1_Stream5_IRQHandler>:
 8000848:	4801      	ldr	r0, [pc, #4]	; (8000850 <DMA1_Stream5_IRQHandler+0x8>)
 800084a:	f000 bb99 	b.w	8000f80 <HAL_DMA_IRQHandler>
 800084e:	bf00      	nop
 8000850:	20012e58 	.word	0x20012e58

08000854 <TIM2_IRQHandler>:
 8000854:	b510      	push	{r4, lr}
 8000856:	4c1d      	ldr	r4, [pc, #116]	; (80008cc <TIM2_IRQHandler+0x78>)
 8000858:	4620      	mov	r0, r4
 800085a:	f001 f88e 	bl	800197a <HAL_TIM_IRQHandler>
 800085e:	6823      	ldr	r3, [r4, #0]
 8000860:	f06f 0208 	mvn.w	r2, #8
 8000864:	611a      	str	r2, [r3, #16]
 8000866:	4b1a      	ldr	r3, [pc, #104]	; (80008d0 <TIM2_IRQHandler+0x7c>)
 8000868:	881a      	ldrh	r2, [r3, #0]
 800086a:	3201      	adds	r2, #1
 800086c:	b292      	uxth	r2, r2
 800086e:	f5b2 7f03 	cmp.w	r2, #524	; 0x20c
 8000872:	bf86      	itte	hi
 8000874:	2200      	movhi	r2, #0
 8000876:	801a      	strhhi	r2, [r3, #0]
 8000878:	801a      	strhls	r2, [r3, #0]
 800087a:	8819      	ldrh	r1, [r3, #0]
 800087c:	bf84      	itt	hi
 800087e:	4a15      	ldrhi	r2, [pc, #84]	; (80008d4 <TIM2_IRQHandler+0x80>)
 8000880:	605a      	strhi	r2, [r3, #4]
 8000882:	2902      	cmp	r1, #2
 8000884:	4a14      	ldr	r2, [pc, #80]	; (80008d8 <TIM2_IRQHandler+0x84>)
 8000886:	bf34      	ite	cc
 8000888:	f04f 5080 	movcc.w	r0, #268435456	; 0x10000000
 800088c:	f44f 5080 	movcs.w	r0, #4096	; 0x1000
 8000890:	6190      	str	r0, [r2, #24]
 8000892:	f1a1 0224 	sub.w	r2, r1, #36	; 0x24
 8000896:	f5b2 7fef 	cmp.w	r2, #478	; 0x1de
 800089a:	d815      	bhi.n	80008c8 <TIM2_IRQHandler+0x74>
 800089c:	480f      	ldr	r0, [pc, #60]	; (80008dc <TIM2_IRQHandler+0x88>)
 800089e:	689a      	ldr	r2, [r3, #8]
 80008a0:	6002      	str	r2, [r0, #0]
 80008a2:	685a      	ldr	r2, [r3, #4]
 80008a4:	4c0e      	ldr	r4, [pc, #56]	; (80008e0 <TIM2_IRQHandler+0x8c>)
 80008a6:	60c2      	str	r2, [r0, #12]
 80008a8:	6820      	ldr	r0, [r4, #0]
 80008aa:	f040 0001 	orr.w	r0, r0, #1
 80008ae:	6020      	str	r0, [r4, #0]
 80008b0:	480c      	ldr	r0, [pc, #48]	; (80008e4 <TIM2_IRQHandler+0x90>)
 80008b2:	6804      	ldr	r4, [r0, #0]
 80008b4:	6820      	ldr	r0, [r4, #0]
 80008b6:	07c9      	lsls	r1, r1, #31
 80008b8:	f040 0001 	orr.w	r0, r0, #1
 80008bc:	bf48      	it	mi
 80008be:	f202 1241 	addwmi	r2, r2, #321	; 0x141
 80008c2:	6020      	str	r0, [r4, #0]
 80008c4:	bf48      	it	mi
 80008c6:	605a      	strmi	r2, [r3, #4]
 80008c8:	bd10      	pop	{r4, pc}
 80008ca:	bf00      	nop
 80008cc:	20012e10 	.word	0x20012e10
 80008d0:	2000006c 	.word	0x2000006c
 80008d4:	20000078 	.word	0x20000078
 80008d8:	40020400 	.word	0x40020400
 80008dc:	40026488 	.word	0x40026488
 80008e0:	40010000 	.word	0x40010000
 80008e4:	20012db0 	.word	0x20012db0

080008e8 <DMA2_Stream5_IRQHandler>:
 80008e8:	4b0b      	ldr	r3, [pc, #44]	; (8000918 <DMA2_Stream5_IRQHandler+0x30>)
 80008ea:	681b      	ldr	r3, [r3, #0]
 80008ec:	6a19      	ldr	r1, [r3, #32]
 80008ee:	f241 1211 	movw	r2, #4369	; 0x1111
 80008f2:	4211      	tst	r1, r2
 80008f4:	d108      	bne.n	8000908 <DMA2_Stream5_IRQHandler+0x20>
 80008f6:	6a19      	ldr	r1, [r3, #32]
 80008f8:	f240 4244 	movw	r2, #1092	; 0x444
 80008fc:	4211      	tst	r1, r2
 80008fe:	bf02      	ittt	eq
 8000900:	681a      	ldreq	r2, [r3, #0]
 8000902:	f022 0201 	biceq.w	r2, r2, #1
 8000906:	601a      	streq	r2, [r3, #0]
 8000908:	4b04      	ldr	r3, [pc, #16]	; (800091c <DMA2_Stream5_IRQHandler+0x34>)
 800090a:	4805      	ldr	r0, [pc, #20]	; (8000920 <DMA2_Stream5_IRQHandler+0x38>)
 800090c:	f04f 427f 	mov.w	r2, #4278190080	; 0xff000000
 8000910:	619a      	str	r2, [r3, #24]
 8000912:	f000 bb35 	b.w	8000f80 <HAL_DMA_IRQHandler>
 8000916:	bf00      	nop
 8000918:	20012d68 	.word	0x20012d68
 800091c:	40021000 	.word	0x40021000
 8000920:	20012db0 	.word	0x20012db0

08000924 <SystemInit>:
 8000924:	4b05      	ldr	r3, [pc, #20]	; (800093c <SystemInit+0x18>)
 8000926:	f8d3 2088 	ldr.w	r2, [r3, #136]	; 0x88
 800092a:	f442 0270 	orr.w	r2, r2, #15728640	; 0xf00000
 800092e:	f8c3 2088 	str.w	r2, [r3, #136]	; 0x88
 8000932:	f04f 6200 	mov.w	r2, #134217728	; 0x8000000
 8000936:	609a      	str	r2, [r3, #8]
 8000938:	4770      	bx	lr
 800093a:	bf00      	nop
 800093c:	e000ed00 	.word	0xe000ed00

08000940 <MX_TIM1_Init>:
 8000940:	b57f      	push	{r0, r1, r2, r3, r4, r5, r6, lr}
 8000942:	2210      	movs	r2, #16
 8000944:	2100      	movs	r1, #0
 8000946:	a802      	add	r0, sp, #8
 8000948:	f001 fdca 	bl	80024e0 <memset>
 800094c:	4814      	ldr	r0, [pc, #80]	; (80009a0 <MX_TIM1_Init+0x60>)
 800094e:	4a15      	ldr	r2, [pc, #84]	; (80009a4 <MX_TIM1_Init+0x64>)
 8000950:	2300      	movs	r3, #0
 8000952:	e9c0 2300 	strd	r2, r3, [r0]
 8000956:	220b      	movs	r2, #11
 8000958:	e9cd 3300 	strd	r3, r3, [sp]
 800095c:	e9c0 2303 	strd	r2, r3, [r0, #12]
 8000960:	e9c0 3305 	strd	r3, r3, [r0, #20]
 8000964:	6083      	str	r3, [r0, #8]
 8000966:	f001 f911 	bl	8001b8c <HAL_TIM_Base_Init>
 800096a:	b108      	cbz	r0, 8000970 <MX_TIM1_Init+0x30>
 800096c:	f7ff feda 	bl	8000724 <Error_Handler>
 8000970:	f44f 5380 	mov.w	r3, #4096	; 0x1000
 8000974:	480a      	ldr	r0, [pc, #40]	; (80009a0 <MX_TIM1_Init+0x60>)
 8000976:	9302      	str	r3, [sp, #8]
 8000978:	a902      	add	r1, sp, #8
 800097a:	f001 f9fa 	bl	8001d72 <HAL_TIM_ConfigClockSource>
 800097e:	b108      	cbz	r0, 8000984 <MX_TIM1_Init+0x44>
 8000980:	f7ff fed0 	bl	8000724 <Error_Handler>
 8000984:	2300      	movs	r3, #0
 8000986:	4806      	ldr	r0, [pc, #24]	; (80009a0 <MX_TIM1_Init+0x60>)
 8000988:	4669      	mov	r1, sp
 800098a:	e9cd 3300 	strd	r3, r3, [sp]
 800098e:	f001 fb77 	bl	8002080 <HAL_TIMEx_MasterConfigSynchronization>
 8000992:	b108      	cbz	r0, 8000998 <MX_TIM1_Init+0x58>
 8000994:	f7ff fec6 	bl	8000724 <Error_Handler>
 8000998:	b007      	add	sp, #28
 800099a:	f85d fb04 	ldr.w	pc, [sp], #4
 800099e:	bf00      	nop
 80009a0:	20012d68 	.word	0x20012d68
 80009a4:	40010000 	.word	0x40010000

080009a8 <HAL_TIM_Base_MspInit>:
 80009a8:	b537      	push	{r0, r1, r2, r4, r5, lr}
 80009aa:	4b17      	ldr	r3, [pc, #92]	; (8000a08 <HAL_TIM_Base_MspInit+0x60>)
 80009ac:	6802      	ldr	r2, [r0, #0]
 80009ae:	429a      	cmp	r2, r3
 80009b0:	4605      	mov	r5, r0
 80009b2:	d126      	bne.n	8000a02 <HAL_TIM_Base_MspInit+0x5a>
 80009b4:	2300      	movs	r3, #0
 80009b6:	4a15      	ldr	r2, [pc, #84]	; (8000a0c <HAL_TIM_Base_MspInit+0x64>)
 80009b8:	9301      	str	r3, [sp, #4]
 80009ba:	6c51      	ldr	r1, [r2, #68]	; 0x44
 80009bc:	4c14      	ldr	r4, [pc, #80]	; (8000a10 <HAL_TIM_Base_MspInit+0x68>)
 80009be:	f041 0101 	orr.w	r1, r1, #1
 80009c2:	6451      	str	r1, [r2, #68]	; 0x44
 80009c4:	6c52      	ldr	r2, [r2, #68]	; 0x44
 80009c6:	4913      	ldr	r1, [pc, #76]	; (8000a14 <HAL_TIM_Base_MspInit+0x6c>)
 80009c8:	f002 0201 	and.w	r2, r2, #1
 80009cc:	9201      	str	r2, [sp, #4]
 80009ce:	9a01      	ldr	r2, [sp, #4]
 80009d0:	f04f 6240 	mov.w	r2, #201326592	; 0xc000000
 80009d4:	e9c4 1200 	strd	r1, r2, [r4]
 80009d8:	2240      	movs	r2, #64	; 0x40
 80009da:	e9c4 2302 	strd	r2, r3, [r4, #8]
 80009de:	f44f 6280 	mov.w	r2, #1024	; 0x400
 80009e2:	e9c4 2304 	strd	r2, r3, [r4, #16]
 80009e6:	4620      	mov	r0, r4
 80009e8:	f44f 3240 	mov.w	r2, #196608	; 0x30000
 80009ec:	e9c4 3306 	strd	r3, r3, [r4, #24]
 80009f0:	e9c4 2308 	strd	r2, r3, [r4, #32]
 80009f4:	f000 fa0a 	bl	8000e0c <HAL_DMA_Init>
 80009f8:	b108      	cbz	r0, 80009fe <HAL_TIM_Base_MspInit+0x56>
 80009fa:	f7ff fe93 	bl	8000724 <Error_Handler>
 80009fe:	622c      	str	r4, [r5, #32]
 8000a00:	63a5      	str	r5, [r4, #56]	; 0x38
 8000a02:	b003      	add	sp, #12
 8000a04:	bd30      	pop	{r4, r5, pc}
 8000a06:	bf00      	nop
 8000a08:	40010000 	.word	0x40010000
 8000a0c:	40023800 	.word	0x40023800
 8000a10:	20012db0 	.word	0x20012db0
 8000a14:	40026488 	.word	0x40026488

08000a18 <HAL_TIM_PWM_MspInit>:
 8000a18:	6803      	ldr	r3, [r0, #0]
 8000a1a:	f1b3 4f80 	cmp.w	r3, #1073741824	; 0x40000000
 8000a1e:	b507      	push	{r0, r1, r2, lr}
 8000a20:	d116      	bne.n	8000a50 <HAL_TIM_PWM_MspInit+0x38>
 8000a22:	2200      	movs	r2, #0
 8000a24:	f503 330e 	add.w	r3, r3, #145408	; 0x23800
 8000a28:	9201      	str	r2, [sp, #4]
 8000a2a:	6c19      	ldr	r1, [r3, #64]	; 0x40
 8000a2c:	f041 0101 	orr.w	r1, r1, #1
 8000a30:	6419      	str	r1, [r3, #64]	; 0x40
 8000a32:	6c1b      	ldr	r3, [r3, #64]	; 0x40
 8000a34:	f003 0301 	and.w	r3, r3, #1
 8000a38:	9301      	str	r3, [sp, #4]
 8000a3a:	4611      	mov	r1, r2
 8000a3c:	201c      	movs	r0, #28
 8000a3e:	9b01      	ldr	r3, [sp, #4]
 8000a40:	f000 f978 	bl	8000d34 <HAL_NVIC_SetPriority>
 8000a44:	201c      	movs	r0, #28
 8000a46:	b003      	add	sp, #12
 8000a48:	f85d eb04 	ldr.w	lr, [sp], #4
 8000a4c:	f000 b9a4 	b.w	8000d98 <HAL_NVIC_EnableIRQ>
 8000a50:	b003      	add	sp, #12
 8000a52:	f85d fb04 	ldr.w	pc, [sp], #4
	...

08000a58 <HAL_TIM_MspPostInit>:
 8000a58:	b510      	push	{r4, lr}
 8000a5a:	4604      	mov	r4, r0
 8000a5c:	b086      	sub	sp, #24
 8000a5e:	2214      	movs	r2, #20
 8000a60:	2100      	movs	r1, #0
 8000a62:	a801      	add	r0, sp, #4
 8000a64:	f001 fd3c 	bl	80024e0 <memset>
 8000a68:	6823      	ldr	r3, [r4, #0]
 8000a6a:	f1b3 4f80 	cmp.w	r3, #1073741824	; 0x40000000
 8000a6e:	d11a      	bne.n	8000aa6 <HAL_TIM_MspPostInit+0x4e>
 8000a70:	2100      	movs	r1, #0
 8000a72:	f503 330e 	add.w	r3, r3, #145408	; 0x23800
 8000a76:	9100      	str	r1, [sp, #0]
 8000a78:	6b1a      	ldr	r2, [r3, #48]	; 0x30
 8000a7a:	480c      	ldr	r0, [pc, #48]	; (8000aac <HAL_TIM_MspPostInit+0x54>)
 8000a7c:	f042 0202 	orr.w	r2, r2, #2
 8000a80:	631a      	str	r2, [r3, #48]	; 0x30
 8000a82:	6b1b      	ldr	r3, [r3, #48]	; 0x30
 8000a84:	9103      	str	r1, [sp, #12]
 8000a86:	f003 0302 	and.w	r3, r3, #2
 8000a8a:	9300      	str	r3, [sp, #0]
 8000a8c:	9b00      	ldr	r3, [sp, #0]
 8000a8e:	f44f 6200 	mov.w	r2, #2048	; 0x800
 8000a92:	2302      	movs	r3, #2
 8000a94:	2103      	movs	r1, #3
 8000a96:	e9cd 2301 	strd	r2, r3, [sp, #4]
 8000a9a:	2301      	movs	r3, #1
 8000a9c:	e9cd 1304 	strd	r1, r3, [sp, #16]
 8000aa0:	a901      	add	r1, sp, #4
 8000aa2:	f000 fb2b 	bl	80010fc <HAL_GPIO_Init>
 8000aa6:	b006      	add	sp, #24
 8000aa8:	bd10      	pop	{r4, pc}
 8000aaa:	bf00      	nop
 8000aac:	40020400 	.word	0x40020400

08000ab0 <MX_TIM2_Init>:
 8000ab0:	b510      	push	{r4, lr}
 8000ab2:	2400      	movs	r4, #0
 8000ab4:	b08a      	sub	sp, #40	; 0x28
 8000ab6:	221c      	movs	r2, #28
 8000ab8:	4621      	mov	r1, r4
 8000aba:	a803      	add	r0, sp, #12
 8000abc:	e9cd 4401 	strd	r4, r4, [sp, #4]
 8000ac0:	f001 fd0e 	bl	80024e0 <memset>
 8000ac4:	481d      	ldr	r0, [pc, #116]	; (8000b3c <MX_TIM2_Init+0x8c>)
 8000ac6:	f04f 4380 	mov.w	r3, #1073741824	; 0x40000000
 8000aca:	e9c0 3400 	strd	r3, r4, [r0]
 8000ace:	f640 236b 	movw	r3, #2667	; 0xa6b
 8000ad2:	e9c0 3403 	strd	r3, r4, [r0, #12]
 8000ad6:	6084      	str	r4, [r0, #8]
 8000ad8:	6184      	str	r4, [r0, #24]
 8000ada:	f001 f883 	bl	8001be4 <HAL_TIM_PWM_Init>
 8000ade:	b108      	cbz	r0, 8000ae4 <MX_TIM2_Init+0x34>
 8000ae0:	f7ff fe20 	bl	8000724 <Error_Handler>
 8000ae4:	4815      	ldr	r0, [pc, #84]	; (8000b3c <MX_TIM2_Init+0x8c>)
 8000ae6:	a901      	add	r1, sp, #4
 8000ae8:	e9cd 4401 	strd	r4, r4, [sp, #4]
 8000aec:	f001 fac8 	bl	8002080 <HAL_TIMEx_MasterConfigSynchronization>
 8000af0:	b108      	cbz	r0, 8000af6 <MX_TIM2_Init+0x46>
 8000af2:	f7ff fe17 	bl	8000724 <Error_Handler>
 8000af6:	2260      	movs	r2, #96	; 0x60
 8000af8:	f240 13bb 	movw	r3, #443	; 0x1bb
 8000afc:	e9cd 2303 	strd	r2, r3, [sp, #12]
 8000b00:	2302      	movs	r3, #2
 8000b02:	9305      	str	r3, [sp, #20]
 8000b04:	480d      	ldr	r0, [pc, #52]	; (8000b3c <MX_TIM2_Init+0x8c>)
 8000b06:	2300      	movs	r3, #0
 8000b08:	2208      	movs	r2, #8
 8000b0a:	a903      	add	r1, sp, #12
 8000b0c:	9307      	str	r3, [sp, #28]
 8000b0e:	f001 f8cb 	bl	8001ca8 <HAL_TIM_PWM_ConfigChannel>
 8000b12:	b108      	cbz	r0, 8000b18 <MX_TIM2_Init+0x68>
 8000b14:	f7ff fe06 	bl	8000724 <Error_Handler>
 8000b18:	220c      	movs	r2, #12
 8000b1a:	f44f 73a0 	mov.w	r3, #320	; 0x140
 8000b1e:	4807      	ldr	r0, [pc, #28]	; (8000b3c <MX_TIM2_Init+0x8c>)
 8000b20:	9304      	str	r3, [sp, #16]
 8000b22:	eb0d 0102 	add.w	r1, sp, r2
 8000b26:	f001 f8bf 	bl	8001ca8 <HAL_TIM_PWM_ConfigChannel>
 8000b2a:	b108      	cbz	r0, 8000b30 <MX_TIM2_Init+0x80>
 8000b2c:	f7ff fdfa 	bl	8000724 <Error_Handler>
 8000b30:	4802      	ldr	r0, [pc, #8]	; (8000b3c <MX_TIM2_Init+0x8c>)
 8000b32:	f7ff ff91 	bl	8000a58 <HAL_TIM_MspPostInit>
 8000b36:	b00a      	add	sp, #40	; 0x28
 8000b38:	bd10      	pop	{r4, pc}
 8000b3a:	bf00      	nop
 8000b3c:	20012e10 	.word	0x20012e10

08000b40 <MX_USART2_UART_Init>:
 8000b40:	480b      	ldr	r0, [pc, #44]	; (8000b70 <MX_USART2_UART_Init+0x30>)
 8000b42:	4a0c      	ldr	r2, [pc, #48]	; (8000b74 <MX_USART2_UART_Init+0x34>)
 8000b44:	b508      	push	{r3, lr}
 8000b46:	f44f 5316 	mov.w	r3, #9600	; 0x2580
 8000b4a:	e9c0 2300 	strd	r2, r3, [r0]
 8000b4e:	2300      	movs	r3, #0
 8000b50:	220c      	movs	r2, #12
 8000b52:	e9c0 3302 	strd	r3, r3, [r0, #8]
 8000b56:	e9c0 2305 	strd	r2, r3, [r0, #20]
 8000b5a:	6103      	str	r3, [r0, #16]
 8000b5c:	61c3      	str	r3, [r0, #28]
 8000b5e:	f001 fb6b 	bl	8002238 <HAL_UART_Init>
 8000b62:	b118      	cbz	r0, 8000b6c <MX_USART2_UART_Init+0x2c>
 8000b64:	e8bd 4008 	ldmia.w	sp!, {r3, lr}
 8000b68:	f7ff bddc 	b.w	8000724 <Error_Handler>
 8000b6c:	bd08      	pop	{r3, pc}
 8000b6e:	bf00      	nop
 8000b70:	20012eb8 	.word	0x20012eb8
 8000b74:	40004400 	.word	0x40004400

08000b78 <HAL_UART_MspInit>:
 8000b78:	b570      	push	{r4, r5, r6, lr}
 8000b7a:	4606      	mov	r6, r0
 8000b7c:	b088      	sub	sp, #32
 8000b7e:	2214      	movs	r2, #20
 8000b80:	2100      	movs	r1, #0
 8000b82:	a803      	add	r0, sp, #12
 8000b84:	f001 fcac 	bl	80024e0 <memset>
 8000b88:	6832      	ldr	r2, [r6, #0]
 8000b8a:	4b20      	ldr	r3, [pc, #128]	; (8000c0c <HAL_UART_MspInit+0x94>)
 8000b8c:	429a      	cmp	r2, r3
 8000b8e:	d13b      	bne.n	8000c08 <HAL_UART_MspInit+0x90>
 8000b90:	2500      	movs	r5, #0
 8000b92:	f503 33fa 	add.w	r3, r3, #128000	; 0x1f400
 8000b96:	9501      	str	r5, [sp, #4]
 8000b98:	6c1a      	ldr	r2, [r3, #64]	; 0x40
 8000b9a:	481d      	ldr	r0, [pc, #116]	; (8000c10 <HAL_UART_MspInit+0x98>)
 8000b9c:	4c1d      	ldr	r4, [pc, #116]	; (8000c14 <HAL_UART_MspInit+0x9c>)
 8000b9e:	f442 3200 	orr.w	r2, r2, #131072	; 0x20000
 8000ba2:	641a      	str	r2, [r3, #64]	; 0x40
 8000ba4:	6c1a      	ldr	r2, [r3, #64]	; 0x40
 8000ba6:	f402 3200 	and.w	r2, r2, #131072	; 0x20000
 8000baa:	9201      	str	r2, [sp, #4]
 8000bac:	9a01      	ldr	r2, [sp, #4]
 8000bae:	9502      	str	r5, [sp, #8]
 8000bb0:	6b1a      	ldr	r2, [r3, #48]	; 0x30
 8000bb2:	f042 0201 	orr.w	r2, r2, #1
 8000bb6:	631a      	str	r2, [r3, #48]	; 0x30
 8000bb8:	6b1b      	ldr	r3, [r3, #48]	; 0x30
 8000bba:	9505      	str	r5, [sp, #20]
 8000bbc:	f003 0301 	and.w	r3, r3, #1
 8000bc0:	9302      	str	r3, [sp, #8]
 8000bc2:	9b02      	ldr	r3, [sp, #8]
 8000bc4:	220c      	movs	r2, #12
 8000bc6:	2302      	movs	r3, #2
 8000bc8:	e9cd 2303 	strd	r2, r3, [sp, #12]
 8000bcc:	2103      	movs	r1, #3
 8000bce:	2307      	movs	r3, #7
 8000bd0:	e9cd 1306 	strd	r1, r3, [sp, #24]
 8000bd4:	a903      	add	r1, sp, #12
 8000bd6:	f000 fa91 	bl	80010fc <HAL_GPIO_Init>
 8000bda:	480f      	ldr	r0, [pc, #60]	; (8000c18 <HAL_UART_MspInit+0xa0>)
 8000bdc:	f04f 6300 	mov.w	r3, #134217728	; 0x8000000
 8000be0:	e9c4 0300 	strd	r0, r3, [r4]
 8000be4:	f44f 6380 	mov.w	r3, #1024	; 0x400
 8000be8:	4620      	mov	r0, r4
 8000bea:	e9c4 5502 	strd	r5, r5, [r4, #8]
 8000bee:	e9c4 3504 	strd	r3, r5, [r4, #16]
 8000bf2:	e9c4 5506 	strd	r5, r5, [r4, #24]
 8000bf6:	e9c4 5508 	strd	r5, r5, [r4, #32]
 8000bfa:	f000 f907 	bl	8000e0c <HAL_DMA_Init>
 8000bfe:	b108      	cbz	r0, 8000c04 <HAL_UART_MspInit+0x8c>
 8000c00:	f7ff fd90 	bl	8000724 <Error_Handler>
 8000c04:	63b4      	str	r4, [r6, #56]	; 0x38
 8000c06:	63a6      	str	r6, [r4, #56]	; 0x38
 8000c08:	b008      	add	sp, #32
 8000c0a:	bd70      	pop	{r4, r5, r6, pc}
 8000c0c:	40004400 	.word	0x40004400
 8000c10:	40020000 	.word	0x40020000
 8000c14:	20012e58 	.word	0x20012e58
 8000c18:	40026088 	.word	0x40026088

08000c1c <Reset_Handler>:
 8000c1c:	f8df d034 	ldr.w	sp, [pc, #52]	; 8000c54 <LoopFillZerobss+0x14>
 8000c20:	2100      	movs	r1, #0
 8000c22:	e003      	b.n	8000c2c <LoopCopyDataInit>

08000c24 <CopyDataInit>:
 8000c24:	4b0c      	ldr	r3, [pc, #48]	; (8000c58 <LoopFillZerobss+0x18>)
 8000c26:	585b      	ldr	r3, [r3, r1]
 8000c28:	5043      	str	r3, [r0, r1]
 8000c2a:	3104      	adds	r1, #4

08000c2c <LoopCopyDataInit>:
 8000c2c:	480b      	ldr	r0, [pc, #44]	; (8000c5c <LoopFillZerobss+0x1c>)
 8000c2e:	4b0c      	ldr	r3, [pc, #48]	; (8000c60 <LoopFillZerobss+0x20>)
 8000c30:	1842      	adds	r2, r0, r1
 8000c32:	429a      	cmp	r2, r3
 8000c34:	d3f6      	bcc.n	8000c24 <CopyDataInit>
 8000c36:	4a0b      	ldr	r2, [pc, #44]	; (8000c64 <LoopFillZerobss+0x24>)
 8000c38:	e002      	b.n	8000c40 <LoopFillZerobss>

08000c3a <FillZerobss>:
 8000c3a:	2300      	movs	r3, #0
 8000c3c:	f842 3b04 	str.w	r3, [r2], #4

08000c40 <LoopFillZerobss>:
 8000c40:	4b09      	ldr	r3, [pc, #36]	; (8000c68 <LoopFillZerobss+0x28>)
 8000c42:	429a      	cmp	r2, r3
 8000c44:	d3f9      	bcc.n	8000c3a <FillZerobss>
 8000c46:	f7ff fe6d 	bl	8000924 <SystemInit>
 8000c4a:	f001 fc25 	bl	8002498 <__libc_init_array>
 8000c4e:	f7ff fd17 	bl	8000680 <main>
 8000c52:	4770      	bx	lr
 8000c54:	20020000 	.word	0x20020000
 8000c58:	08002538 	.word	0x08002538
 8000c5c:	20000000 	.word	0x20000000
 8000c60:	2000001c 	.word	0x2000001c
 8000c64:	2000001c 	.word	0x2000001c
 8000c68:	20012f00 	.word	0x20012f00

08000c6c <ADC_IRQHandler>:
 8000c6c:	e7fe      	b.n	8000c6c <ADC_IRQHandler>
	...

08000c70 <HAL_InitTick>:
 8000c70:	b538      	push	{r3, r4, r5, lr}
 8000c72:	4a0e      	ldr	r2, [pc, #56]	; (8000cac <HAL_InitTick+0x3c>)
 8000c74:	4b0e      	ldr	r3, [pc, #56]	; (8000cb0 <HAL_InitTick+0x40>)
 8000c76:	4605      	mov	r5, r0
 8000c78:	7818      	ldrb	r0, [r3, #0]
 8000c7a:	f44f 737a 	mov.w	r3, #1000	; 0x3e8
 8000c7e:	fbb3 f3f0 	udiv	r3, r3, r0
 8000c82:	6810      	ldr	r0, [r2, #0]
 8000c84:	fbb0 f0f3 	udiv	r0, r0, r3
 8000c88:	f000 f894 	bl	8000db4 <HAL_SYSTICK_Config>
 8000c8c:	4604      	mov	r4, r0
 8000c8e:	b958      	cbnz	r0, 8000ca8 <HAL_InitTick+0x38>
 8000c90:	2d0f      	cmp	r5, #15
 8000c92:	d809      	bhi.n	8000ca8 <HAL_InitTick+0x38>
 8000c94:	4602      	mov	r2, r0
 8000c96:	4629      	mov	r1, r5
 8000c98:	f04f 30ff 	mov.w	r0, #4294967295
 8000c9c:	f000 f84a 	bl	8000d34 <HAL_NVIC_SetPriority>
 8000ca0:	4b04      	ldr	r3, [pc, #16]	; (8000cb4 <HAL_InitTick+0x44>)
 8000ca2:	4620      	mov	r0, r4
 8000ca4:	601d      	str	r5, [r3, #0]
 8000ca6:	bd38      	pop	{r3, r4, r5, pc}
 8000ca8:	2001      	movs	r0, #1
 8000caa:	e7fc      	b.n	8000ca6 <HAL_InitTick+0x36>
 8000cac:	20000010 	.word	0x20000010
 8000cb0:	20000014 	.word	0x20000014
 8000cb4:	20000018 	.word	0x20000018

08000cb8 <HAL_Init>:
 8000cb8:	b508      	push	{r3, lr}
 8000cba:	4b0b      	ldr	r3, [pc, #44]	; (8000ce8 <HAL_Init+0x30>)
 8000cbc:	681a      	ldr	r2, [r3, #0]
 8000cbe:	f442 7200 	orr.w	r2, r2, #512	; 0x200
 8000cc2:	601a      	str	r2, [r3, #0]
 8000cc4:	681a      	ldr	r2, [r3, #0]
 8000cc6:	f442 6280 	orr.w	r2, r2, #1024	; 0x400
 8000cca:	601a      	str	r2, [r3, #0]
 8000ccc:	681a      	ldr	r2, [r3, #0]
 8000cce:	f442 7280 	orr.w	r2, r2, #256	; 0x100
 8000cd2:	601a      	str	r2, [r3, #0]
 8000cd4:	2003      	movs	r0, #3
 8000cd6:	f000 f81b 	bl	8000d10 <HAL_NVIC_SetPriorityGrouping>
 8000cda:	2000      	movs	r0, #0
 8000cdc:	f7ff ffc8 	bl	8000c70 <HAL_InitTick>
 8000ce0:	f7ff fd8c 	bl	80007fc <HAL_MspInit>
 8000ce4:	2000      	movs	r0, #0
 8000ce6:	bd08      	pop	{r3, pc}
 8000ce8:	40023c00 	.word	0x40023c00

08000cec <HAL_IncTick>:
 8000cec:	4a03      	ldr	r2, [pc, #12]	; (8000cfc <HAL_IncTick+0x10>)
 8000cee:	4b04      	ldr	r3, [pc, #16]	; (8000d00 <HAL_IncTick+0x14>)
 8000cf0:	6811      	ldr	r1, [r2, #0]
 8000cf2:	781b      	ldrb	r3, [r3, #0]
 8000cf4:	440b      	add	r3, r1
 8000cf6:	6013      	str	r3, [r2, #0]
 8000cf8:	4770      	bx	lr
 8000cfa:	bf00      	nop
 8000cfc:	20012efc 	.word	0x20012efc
 8000d00:	20000014 	.word	0x20000014

08000d04 <HAL_GetTick>:
 8000d04:	4b01      	ldr	r3, [pc, #4]	; (8000d0c <HAL_GetTick+0x8>)
 8000d06:	6818      	ldr	r0, [r3, #0]
 8000d08:	4770      	bx	lr
 8000d0a:	bf00      	nop
 8000d0c:	20012efc 	.word	0x20012efc

08000d10 <HAL_NVIC_SetPriorityGrouping>:
 8000d10:	4907      	ldr	r1, [pc, #28]	; (8000d30 <HAL_NVIC_SetPriorityGrouping+0x20>)
 8000d12:	68ca      	ldr	r2, [r1, #12]
 8000d14:	f422 62e0 	bic.w	r2, r2, #1792	; 0x700
 8000d18:	0203      	lsls	r3, r0, #8
 8000d1a:	0412      	lsls	r2, r2, #16
 8000d1c:	f403 63e0 	and.w	r3, r3, #1792	; 0x700
 8000d20:	0c12      	lsrs	r2, r2, #16
 8000d22:	4313      	orrs	r3, r2
 8000d24:	f043 63bf 	orr.w	r3, r3, #100139008	; 0x5f80000
 8000d28:	f443 3300 	orr.w	r3, r3, #131072	; 0x20000
 8000d2c:	60cb      	str	r3, [r1, #12]
 8000d2e:	4770      	bx	lr
 8000d30:	e000ed00 	.word	0xe000ed00

08000d34 <HAL_NVIC_SetPriority>:
 8000d34:	4b16      	ldr	r3, [pc, #88]	; (8000d90 <HAL_NVIC_SetPriority+0x5c>)
 8000d36:	b530      	push	{r4, r5, lr}
 8000d38:	68dc      	ldr	r4, [r3, #12]
 8000d3a:	f3c4 2402 	ubfx	r4, r4, #8, #3
 8000d3e:	f1c4 0507 	rsb	r5, r4, #7
 8000d42:	1d23      	adds	r3, r4, #4
 8000d44:	2d04      	cmp	r5, #4
 8000d46:	bf28      	it	cs
 8000d48:	2504      	movcs	r5, #4
 8000d4a:	2b06      	cmp	r3, #6
 8000d4c:	f04f 33ff 	mov.w	r3, #4294967295
 8000d50:	bf8c      	ite	hi
 8000d52:	3c03      	subhi	r4, #3
 8000d54:	2400      	movls	r4, #0
 8000d56:	fa03 f505 	lsl.w	r5, r3, r5
 8000d5a:	ea21 0105 	bic.w	r1, r1, r5
 8000d5e:	40a3      	lsls	r3, r4
 8000d60:	ea22 0203 	bic.w	r2, r2, r3
 8000d64:	40a1      	lsls	r1, r4
 8000d66:	2800      	cmp	r0, #0
 8000d68:	ea41 0302 	orr.w	r3, r1, r2
 8000d6c:	bfac      	ite	ge
 8000d6e:	f100 4060 	addge.w	r0, r0, #3758096384	; 0xe0000000
 8000d72:	4a08      	ldrlt	r2, [pc, #32]	; (8000d94 <HAL_NVIC_SetPriority+0x60>)
 8000d74:	ea4f 1303 	mov.w	r3, r3, lsl #4
 8000d78:	bfb8      	it	lt
 8000d7a:	f000 000f 	andlt.w	r0, r0, #15
 8000d7e:	b2db      	uxtb	r3, r3
 8000d80:	bfaa      	itet	ge
 8000d82:	f500 4061 	addge.w	r0, r0, #57600	; 0xe100
 8000d86:	5413      	strblt	r3, [r2, r0]
 8000d88:	f880 3300 	strbge.w	r3, [r0, #768]	; 0x300
 8000d8c:	bd30      	pop	{r4, r5, pc}
 8000d8e:	bf00      	nop
 8000d90:	e000ed00 	.word	0xe000ed00
 8000d94:	e000ed14 	.word	0xe000ed14

08000d98 <HAL_NVIC_EnableIRQ>:
 8000d98:	2800      	cmp	r0, #0
 8000d9a:	db08      	blt.n	8000dae <HAL_NVIC_EnableIRQ+0x16>
 8000d9c:	0942      	lsrs	r2, r0, #5
 8000d9e:	2301      	movs	r3, #1
 8000da0:	f000 001f 	and.w	r0, r0, #31
 8000da4:	fa03 f000 	lsl.w	r0, r3, r0
 8000da8:	4b01      	ldr	r3, [pc, #4]	; (8000db0 <HAL_NVIC_EnableIRQ+0x18>)
 8000daa:	f843 0022 	str.w	r0, [r3, r2, lsl #2]
 8000dae:	4770      	bx	lr
 8000db0:	e000e100 	.word	0xe000e100

08000db4 <HAL_SYSTICK_Config>:
 8000db4:	3801      	subs	r0, #1
 8000db6:	f1b0 7f80 	cmp.w	r0, #16777216	; 0x1000000
 8000dba:	d20a      	bcs.n	8000dd2 <HAL_SYSTICK_Config+0x1e>
 8000dbc:	4b06      	ldr	r3, [pc, #24]	; (8000dd8 <HAL_SYSTICK_Config+0x24>)
 8000dbe:	4a07      	ldr	r2, [pc, #28]	; (8000ddc <HAL_SYSTICK_Config+0x28>)
 8000dc0:	6058      	str	r0, [r3, #4]
 8000dc2:	21f0      	movs	r1, #240	; 0xf0
 8000dc4:	f882 1023 	strb.w	r1, [r2, #35]	; 0x23
 8000dc8:	2000      	movs	r0, #0
 8000dca:	2207      	movs	r2, #7
 8000dcc:	6098      	str	r0, [r3, #8]
 8000dce:	601a      	str	r2, [r3, #0]
 8000dd0:	4770      	bx	lr
 8000dd2:	2001      	movs	r0, #1
 8000dd4:	4770      	bx	lr
 8000dd6:	bf00      	nop
 8000dd8:	e000e010 	.word	0xe000e010
 8000ddc:	e000ed00 	.word	0xe000ed00

08000de0 <DMA_CalcBaseAndBitshift>:
 8000de0:	6803      	ldr	r3, [r0, #0]
 8000de2:	b510      	push	{r4, lr}
 8000de4:	4c08      	ldr	r4, [pc, #32]	; (8000e08 <DMA_CalcBaseAndBitshift+0x28>)
 8000de6:	4602      	mov	r2, r0
 8000de8:	b2d9      	uxtb	r1, r3
 8000dea:	3910      	subs	r1, #16
 8000dec:	2018      	movs	r0, #24
 8000dee:	fbb1 f0f0 	udiv	r0, r1, r0
 8000df2:	5c20      	ldrb	r0, [r4, r0]
 8000df4:	65d0      	str	r0, [r2, #92]	; 0x5c
 8000df6:	f423 707f 	bic.w	r0, r3, #1020	; 0x3fc
 8000dfa:	f020 0003 	bic.w	r0, r0, #3
 8000dfe:	295f      	cmp	r1, #95	; 0x5f
 8000e00:	bf88      	it	hi
 8000e02:	3004      	addhi	r0, #4
 8000e04:	6590      	str	r0, [r2, #88]	; 0x58
 8000e06:	bd10      	pop	{r4, pc}
 8000e08:	08002520 	.word	0x08002520

08000e0c <HAL_DMA_Init>:
 8000e0c:	b570      	push	{r4, r5, r6, lr}
 8000e0e:	4604      	mov	r4, r0
 8000e10:	f7ff ff78 	bl	8000d04 <HAL_GetTick>
 8000e14:	4605      	mov	r5, r0
 8000e16:	2c00      	cmp	r4, #0
 8000e18:	d073      	beq.n	8000f02 <HAL_DMA_Init+0xf6>
 8000e1a:	2300      	movs	r3, #0
 8000e1c:	f884 3034 	strb.w	r3, [r4, #52]	; 0x34
 8000e20:	6822      	ldr	r2, [r4, #0]
 8000e22:	2302      	movs	r3, #2
 8000e24:	f884 3035 	strb.w	r3, [r4, #53]	; 0x35
 8000e28:	6813      	ldr	r3, [r2, #0]
 8000e2a:	f023 0301 	bic.w	r3, r3, #1
 8000e2e:	6013      	str	r3, [r2, #0]
 8000e30:	6821      	ldr	r1, [r4, #0]
 8000e32:	680b      	ldr	r3, [r1, #0]
 8000e34:	07d8      	lsls	r0, r3, #31
 8000e36:	d42f      	bmi.n	8000e98 <HAL_DMA_Init+0x8c>
 8000e38:	680b      	ldr	r3, [r1, #0]
 8000e3a:	4d33      	ldr	r5, [pc, #204]	; (8000f08 <HAL_DMA_Init+0xfc>)
 8000e3c:	69a0      	ldr	r0, [r4, #24]
 8000e3e:	401d      	ands	r5, r3
 8000e40:	e9d4 2301 	ldrd	r2, r3, [r4, #4]
 8000e44:	4313      	orrs	r3, r2
 8000e46:	68e2      	ldr	r2, [r4, #12]
 8000e48:	4313      	orrs	r3, r2
 8000e4a:	6922      	ldr	r2, [r4, #16]
 8000e4c:	4313      	orrs	r3, r2
 8000e4e:	6962      	ldr	r2, [r4, #20]
 8000e50:	4313      	orrs	r3, r2
 8000e52:	69e2      	ldr	r2, [r4, #28]
 8000e54:	4303      	orrs	r3, r0
 8000e56:	4313      	orrs	r3, r2
 8000e58:	6a22      	ldr	r2, [r4, #32]
 8000e5a:	4313      	orrs	r3, r2
 8000e5c:	6a62      	ldr	r2, [r4, #36]	; 0x24
 8000e5e:	2a04      	cmp	r2, #4
 8000e60:	ea43 0305 	orr.w	r3, r3, r5
 8000e64:	bf02      	ittt	eq
 8000e66:	e9d4 560b 	ldrdeq	r5, r6, [r4, #44]	; 0x2c
 8000e6a:	4335      	orreq	r5, r6
 8000e6c:	432b      	orreq	r3, r5
 8000e6e:	600b      	str	r3, [r1, #0]
 8000e70:	694b      	ldr	r3, [r1, #20]
 8000e72:	2a04      	cmp	r2, #4
 8000e74:	f023 0307 	bic.w	r3, r3, #7
 8000e78:	ea43 0302 	orr.w	r3, r3, r2
 8000e7c:	d133      	bne.n	8000ee6 <HAL_DMA_Init+0xda>
 8000e7e:	6aa2      	ldr	r2, [r4, #40]	; 0x28
 8000e80:	6ae5      	ldr	r5, [r4, #44]	; 0x2c
 8000e82:	4313      	orrs	r3, r2
 8000e84:	b37d      	cbz	r5, 8000ee6 <HAL_DMA_Init+0xda>
 8000e86:	b990      	cbnz	r0, 8000eae <HAL_DMA_Init+0xa2>
 8000e88:	2a01      	cmp	r2, #1
 8000e8a:	d021      	beq.n	8000ed0 <HAL_DMA_Init+0xc4>
 8000e8c:	f032 0202 	bics.w	r2, r2, #2
 8000e90:	d129      	bne.n	8000ee6 <HAL_DMA_Init+0xda>
 8000e92:	01ea      	lsls	r2, r5, #7
 8000e94:	d527      	bpl.n	8000ee6 <HAL_DMA_Init+0xda>
 8000e96:	e01e      	b.n	8000ed6 <HAL_DMA_Init+0xca>
 8000e98:	f7ff ff34 	bl	8000d04 <HAL_GetTick>
 8000e9c:	1b40      	subs	r0, r0, r5
 8000e9e:	2805      	cmp	r0, #5
 8000ea0:	d9c6      	bls.n	8000e30 <HAL_DMA_Init+0x24>
 8000ea2:	2320      	movs	r3, #32
 8000ea4:	6563      	str	r3, [r4, #84]	; 0x54
 8000ea6:	2003      	movs	r0, #3
 8000ea8:	f884 0035 	strb.w	r0, [r4, #53]	; 0x35
 8000eac:	bd70      	pop	{r4, r5, r6, pc}
 8000eae:	f5b0 5f00 	cmp.w	r0, #8192	; 0x2000
 8000eb2:	d114      	bne.n	8000ede <HAL_DMA_Init+0xd2>
 8000eb4:	2a03      	cmp	r2, #3
 8000eb6:	d816      	bhi.n	8000ee6 <HAL_DMA_Init+0xda>
 8000eb8:	a001      	add	r0, pc, #4	; (adr r0, 8000ec0 <HAL_DMA_Init+0xb4>)
 8000eba:	f850 f022 	ldr.w	pc, [r0, r2, lsl #2]
 8000ebe:	bf00      	nop
 8000ec0:	08000ed7 	.word	0x08000ed7
 8000ec4:	08000e93 	.word	0x08000e93
 8000ec8:	08000ed7 	.word	0x08000ed7
 8000ecc:	08000ed1 	.word	0x08000ed1
 8000ed0:	f1b5 7fc0 	cmp.w	r5, #25165824	; 0x1800000
 8000ed4:	d107      	bne.n	8000ee6 <HAL_DMA_Init+0xda>
 8000ed6:	2340      	movs	r3, #64	; 0x40
 8000ed8:	6563      	str	r3, [r4, #84]	; 0x54
 8000eda:	2001      	movs	r0, #1
 8000edc:	e7e4      	b.n	8000ea8 <HAL_DMA_Init+0x9c>
 8000ede:	2a02      	cmp	r2, #2
 8000ee0:	d9f9      	bls.n	8000ed6 <HAL_DMA_Init+0xca>
 8000ee2:	2a03      	cmp	r2, #3
 8000ee4:	d0d5      	beq.n	8000e92 <HAL_DMA_Init+0x86>
 8000ee6:	614b      	str	r3, [r1, #20]
 8000ee8:	4620      	mov	r0, r4
 8000eea:	f7ff ff79 	bl	8000de0 <DMA_CalcBaseAndBitshift>
 8000eee:	6de2      	ldr	r2, [r4, #92]	; 0x5c
 8000ef0:	233f      	movs	r3, #63	; 0x3f
 8000ef2:	4093      	lsls	r3, r2
 8000ef4:	6083      	str	r3, [r0, #8]
 8000ef6:	2000      	movs	r0, #0
 8000ef8:	2301      	movs	r3, #1
 8000efa:	6560      	str	r0, [r4, #84]	; 0x54
 8000efc:	f884 3035 	strb.w	r3, [r4, #53]	; 0x35
 8000f00:	e7d4      	b.n	8000eac <HAL_DMA_Init+0xa0>
 8000f02:	2001      	movs	r0, #1
 8000f04:	e7d2      	b.n	8000eac <HAL_DMA_Init+0xa0>
 8000f06:	bf00      	nop
 8000f08:	f010803f 	.word	0xf010803f

08000f0c <HAL_DMA_Start_IT>:
 8000f0c:	b570      	push	{r4, r5, r6, lr}
 8000f0e:	f890 4034 	ldrb.w	r4, [r0, #52]	; 0x34
 8000f12:	6d86      	ldr	r6, [r0, #88]	; 0x58
 8000f14:	2c01      	cmp	r4, #1
 8000f16:	d031      	beq.n	8000f7c <HAL_DMA_Start_IT+0x70>
 8000f18:	2401      	movs	r4, #1
 8000f1a:	f880 4034 	strb.w	r4, [r0, #52]	; 0x34
 8000f1e:	f890 4035 	ldrb.w	r4, [r0, #53]	; 0x35
 8000f22:	2c01      	cmp	r4, #1
 8000f24:	f04f 0500 	mov.w	r5, #0
 8000f28:	f04f 0402 	mov.w	r4, #2
 8000f2c:	d124      	bne.n	8000f78 <HAL_DMA_Start_IT+0x6c>
 8000f2e:	f880 4035 	strb.w	r4, [r0, #53]	; 0x35
 8000f32:	6804      	ldr	r4, [r0, #0]
 8000f34:	6545      	str	r5, [r0, #84]	; 0x54
 8000f36:	6825      	ldr	r5, [r4, #0]
 8000f38:	f425 2580 	bic.w	r5, r5, #262144	; 0x40000
 8000f3c:	6025      	str	r5, [r4, #0]
 8000f3e:	6063      	str	r3, [r4, #4]
 8000f40:	6883      	ldr	r3, [r0, #8]
 8000f42:	2b40      	cmp	r3, #64	; 0x40
 8000f44:	bf0e      	itee	eq
 8000f46:	60a2      	streq	r2, [r4, #8]
 8000f48:	60a1      	strne	r1, [r4, #8]
 8000f4a:	60e2      	strne	r2, [r4, #12]
 8000f4c:	6dc2      	ldr	r2, [r0, #92]	; 0x5c
 8000f4e:	bf08      	it	eq
 8000f50:	60e1      	streq	r1, [r4, #12]
 8000f52:	233f      	movs	r3, #63	; 0x3f
 8000f54:	4093      	lsls	r3, r2
 8000f56:	60b3      	str	r3, [r6, #8]
 8000f58:	6823      	ldr	r3, [r4, #0]
 8000f5a:	f043 0316 	orr.w	r3, r3, #22
 8000f5e:	6023      	str	r3, [r4, #0]
 8000f60:	6c03      	ldr	r3, [r0, #64]	; 0x40
 8000f62:	b11b      	cbz	r3, 8000f6c <HAL_DMA_Start_IT+0x60>
 8000f64:	6823      	ldr	r3, [r4, #0]
 8000f66:	f043 0308 	orr.w	r3, r3, #8
 8000f6a:	6023      	str	r3, [r4, #0]
 8000f6c:	6823      	ldr	r3, [r4, #0]
 8000f6e:	f043 0301 	orr.w	r3, r3, #1
 8000f72:	6023      	str	r3, [r4, #0]
 8000f74:	2000      	movs	r0, #0
 8000f76:	bd70      	pop	{r4, r5, r6, pc}
 8000f78:	f880 5034 	strb.w	r5, [r0, #52]	; 0x34
 8000f7c:	2002      	movs	r0, #2
 8000f7e:	e7fa      	b.n	8000f76 <HAL_DMA_Start_IT+0x6a>

08000f80 <HAL_DMA_IRQHandler>:
 8000f80:	b5f7      	push	{r0, r1, r2, r4, r5, r6, r7, lr}
 8000f82:	2300      	movs	r3, #0
 8000f84:	9301      	str	r3, [sp, #4]
 8000f86:	4b5c      	ldr	r3, [pc, #368]	; (80010f8 <HAL_DMA_IRQHandler+0x178>)
 8000f88:	6d85      	ldr	r5, [r0, #88]	; 0x58
 8000f8a:	681f      	ldr	r7, [r3, #0]
 8000f8c:	6dc3      	ldr	r3, [r0, #92]	; 0x5c
 8000f8e:	682e      	ldr	r6, [r5, #0]
 8000f90:	2208      	movs	r2, #8
 8000f92:	409a      	lsls	r2, r3
 8000f94:	4232      	tst	r2, r6
 8000f96:	4604      	mov	r4, r0
 8000f98:	d00c      	beq.n	8000fb4 <HAL_DMA_IRQHandler+0x34>
 8000f9a:	6801      	ldr	r1, [r0, #0]
 8000f9c:	6808      	ldr	r0, [r1, #0]
 8000f9e:	0740      	lsls	r0, r0, #29
 8000fa0:	d508      	bpl.n	8000fb4 <HAL_DMA_IRQHandler+0x34>
 8000fa2:	6808      	ldr	r0, [r1, #0]
 8000fa4:	f020 0004 	bic.w	r0, r0, #4
 8000fa8:	6008      	str	r0, [r1, #0]
 8000faa:	60aa      	str	r2, [r5, #8]
 8000fac:	6d62      	ldr	r2, [r4, #84]	; 0x54
 8000fae:	f042 0201 	orr.w	r2, r2, #1
 8000fb2:	6562      	str	r2, [r4, #84]	; 0x54
 8000fb4:	2201      	movs	r2, #1
 8000fb6:	409a      	lsls	r2, r3
 8000fb8:	4232      	tst	r2, r6
 8000fba:	d008      	beq.n	8000fce <HAL_DMA_IRQHandler+0x4e>
 8000fbc:	6821      	ldr	r1, [r4, #0]
 8000fbe:	6949      	ldr	r1, [r1, #20]
 8000fc0:	0609      	lsls	r1, r1, #24
 8000fc2:	bf41      	itttt	mi
 8000fc4:	60aa      	strmi	r2, [r5, #8]
 8000fc6:	6d62      	ldrmi	r2, [r4, #84]	; 0x54
 8000fc8:	f042 0202 	orrmi.w	r2, r2, #2
 8000fcc:	6562      	strmi	r2, [r4, #84]	; 0x54
 8000fce:	2204      	movs	r2, #4
 8000fd0:	409a      	lsls	r2, r3
 8000fd2:	4232      	tst	r2, r6
 8000fd4:	d008      	beq.n	8000fe8 <HAL_DMA_IRQHandler+0x68>
 8000fd6:	6821      	ldr	r1, [r4, #0]
 8000fd8:	6809      	ldr	r1, [r1, #0]
 8000fda:	0788      	lsls	r0, r1, #30
 8000fdc:	bf41      	itttt	mi
 8000fde:	60aa      	strmi	r2, [r5, #8]
 8000fe0:	6d62      	ldrmi	r2, [r4, #84]	; 0x54
 8000fe2:	f042 0204 	orrmi.w	r2, r2, #4
 8000fe6:	6562      	strmi	r2, [r4, #84]	; 0x54
 8000fe8:	2210      	movs	r2, #16
 8000fea:	409a      	lsls	r2, r3
 8000fec:	4232      	tst	r2, r6
 8000fee:	d010      	beq.n	8001012 <HAL_DMA_IRQHandler+0x92>
 8000ff0:	6823      	ldr	r3, [r4, #0]
 8000ff2:	6819      	ldr	r1, [r3, #0]
 8000ff4:	0709      	lsls	r1, r1, #28
 8000ff6:	d50c      	bpl.n	8001012 <HAL_DMA_IRQHandler+0x92>
 8000ff8:	60aa      	str	r2, [r5, #8]
 8000ffa:	681a      	ldr	r2, [r3, #0]
 8000ffc:	0350      	lsls	r0, r2, #13
 8000ffe:	d537      	bpl.n	8001070 <HAL_DMA_IRQHandler+0xf0>
 8001000:	681b      	ldr	r3, [r3, #0]
 8001002:	0319      	lsls	r1, r3, #12
 8001004:	d401      	bmi.n	800100a <HAL_DMA_IRQHandler+0x8a>
 8001006:	6c23      	ldr	r3, [r4, #64]	; 0x40
 8001008:	e000      	b.n	800100c <HAL_DMA_IRQHandler+0x8c>
 800100a:	6ca3      	ldr	r3, [r4, #72]	; 0x48
 800100c:	b10b      	cbz	r3, 8001012 <HAL_DMA_IRQHandler+0x92>
 800100e:	4620      	mov	r0, r4
 8001010:	4798      	blx	r3
 8001012:	6de1      	ldr	r1, [r4, #92]	; 0x5c
 8001014:	2220      	movs	r2, #32
 8001016:	408a      	lsls	r2, r1
 8001018:	4232      	tst	r2, r6
 800101a:	d03a      	beq.n	8001092 <HAL_DMA_IRQHandler+0x112>
 800101c:	6823      	ldr	r3, [r4, #0]
 800101e:	6818      	ldr	r0, [r3, #0]
 8001020:	06c6      	lsls	r6, r0, #27
 8001022:	d536      	bpl.n	8001092 <HAL_DMA_IRQHandler+0x112>
 8001024:	60aa      	str	r2, [r5, #8]
 8001026:	f894 2035 	ldrb.w	r2, [r4, #53]	; 0x35
 800102a:	2a05      	cmp	r2, #5
 800102c:	681a      	ldr	r2, [r3, #0]
 800102e:	d127      	bne.n	8001080 <HAL_DMA_IRQHandler+0x100>
 8001030:	f022 0216 	bic.w	r2, r2, #22
 8001034:	601a      	str	r2, [r3, #0]
 8001036:	695a      	ldr	r2, [r3, #20]
 8001038:	f022 0280 	bic.w	r2, r2, #128	; 0x80
 800103c:	615a      	str	r2, [r3, #20]
 800103e:	6c22      	ldr	r2, [r4, #64]	; 0x40
 8001040:	b90a      	cbnz	r2, 8001046 <HAL_DMA_IRQHandler+0xc6>
 8001042:	6ca2      	ldr	r2, [r4, #72]	; 0x48
 8001044:	b11a      	cbz	r2, 800104e <HAL_DMA_IRQHandler+0xce>
 8001046:	681a      	ldr	r2, [r3, #0]
 8001048:	f022 0208 	bic.w	r2, r2, #8
 800104c:	601a      	str	r2, [r3, #0]
 800104e:	233f      	movs	r3, #63	; 0x3f
 8001050:	408b      	lsls	r3, r1
 8001052:	60ab      	str	r3, [r5, #8]
 8001054:	2300      	movs	r3, #0
 8001056:	f884 3034 	strb.w	r3, [r4, #52]	; 0x34
 800105a:	2301      	movs	r3, #1
 800105c:	f884 3035 	strb.w	r3, [r4, #53]	; 0x35
 8001060:	6d23      	ldr	r3, [r4, #80]	; 0x50
 8001062:	2b00      	cmp	r3, #0
 8001064:	d045      	beq.n	80010f2 <HAL_DMA_IRQHandler+0x172>
 8001066:	4620      	mov	r0, r4
 8001068:	b003      	add	sp, #12
 800106a:	e8bd 40f0 	ldmia.w	sp!, {r4, r5, r6, r7, lr}
 800106e:	4718      	bx	r3
 8001070:	681a      	ldr	r2, [r3, #0]
 8001072:	05d2      	lsls	r2, r2, #23
 8001074:	bf5e      	ittt	pl
 8001076:	681a      	ldrpl	r2, [r3, #0]
 8001078:	f022 0208 	bicpl.w	r2, r2, #8
 800107c:	601a      	strpl	r2, [r3, #0]
 800107e:	e7c2      	b.n	8001006 <HAL_DMA_IRQHandler+0x86>
 8001080:	0350      	lsls	r0, r2, #13
 8001082:	d527      	bpl.n	80010d4 <HAL_DMA_IRQHandler+0x154>
 8001084:	681b      	ldr	r3, [r3, #0]
 8001086:	0319      	lsls	r1, r3, #12
 8001088:	d431      	bmi.n	80010ee <HAL_DMA_IRQHandler+0x16e>
 800108a:	6c63      	ldr	r3, [r4, #68]	; 0x44
 800108c:	b10b      	cbz	r3, 8001092 <HAL_DMA_IRQHandler+0x112>
 800108e:	4620      	mov	r0, r4
 8001090:	4798      	blx	r3
 8001092:	6d63      	ldr	r3, [r4, #84]	; 0x54
 8001094:	b36b      	cbz	r3, 80010f2 <HAL_DMA_IRQHandler+0x172>
 8001096:	6d63      	ldr	r3, [r4, #84]	; 0x54
 8001098:	07da      	lsls	r2, r3, #31
 800109a:	d519      	bpl.n	80010d0 <HAL_DMA_IRQHandler+0x150>
 800109c:	6822      	ldr	r2, [r4, #0]
 800109e:	f44f 5316 	mov.w	r3, #9600	; 0x2580
 80010a2:	fbb7 f7f3 	udiv	r7, r7, r3
 80010a6:	2305      	movs	r3, #5
 80010a8:	f884 3035 	strb.w	r3, [r4, #53]	; 0x35
 80010ac:	6813      	ldr	r3, [r2, #0]
 80010ae:	f023 0301 	bic.w	r3, r3, #1
 80010b2:	6013      	str	r3, [r2, #0]
 80010b4:	9b01      	ldr	r3, [sp, #4]
 80010b6:	3301      	adds	r3, #1
 80010b8:	42bb      	cmp	r3, r7
 80010ba:	9301      	str	r3, [sp, #4]
 80010bc:	d802      	bhi.n	80010c4 <HAL_DMA_IRQHandler+0x144>
 80010be:	6813      	ldr	r3, [r2, #0]
 80010c0:	07db      	lsls	r3, r3, #31
 80010c2:	d4f7      	bmi.n	80010b4 <HAL_DMA_IRQHandler+0x134>
 80010c4:	2300      	movs	r3, #0
 80010c6:	f884 3034 	strb.w	r3, [r4, #52]	; 0x34
 80010ca:	2301      	movs	r3, #1
 80010cc:	f884 3035 	strb.w	r3, [r4, #53]	; 0x35
 80010d0:	6ce3      	ldr	r3, [r4, #76]	; 0x4c
 80010d2:	e7c6      	b.n	8001062 <HAL_DMA_IRQHandler+0xe2>
 80010d4:	681a      	ldr	r2, [r3, #0]
 80010d6:	f412 7280 	ands.w	r2, r2, #256	; 0x100
 80010da:	d108      	bne.n	80010ee <HAL_DMA_IRQHandler+0x16e>
 80010dc:	6819      	ldr	r1, [r3, #0]
 80010de:	f021 0110 	bic.w	r1, r1, #16
 80010e2:	6019      	str	r1, [r3, #0]
 80010e4:	2301      	movs	r3, #1
 80010e6:	f884 2034 	strb.w	r2, [r4, #52]	; 0x34
 80010ea:	f884 3035 	strb.w	r3, [r4, #53]	; 0x35
 80010ee:	6be3      	ldr	r3, [r4, #60]	; 0x3c
 80010f0:	e7cc      	b.n	800108c <HAL_DMA_IRQHandler+0x10c>
 80010f2:	b003      	add	sp, #12
 80010f4:	bdf0      	pop	{r4, r5, r6, r7, pc}
 80010f6:	bf00      	nop
 80010f8:	20000010 	.word	0x20000010

080010fc <HAL_GPIO_Init>:
 80010fc:	e92d 4ff7 	stmdb	sp!, {r0, r1, r2, r4, r5, r6, r7, r8, r9, sl, fp, lr}
 8001100:	f8df 91a8 	ldr.w	r9, [pc, #424]	; 80012ac <HAL_GPIO_Init+0x1b0>
 8001104:	4a67      	ldr	r2, [pc, #412]	; (80012a4 <HAL_GPIO_Init+0x1a8>)
 8001106:	2300      	movs	r3, #0
 8001108:	680d      	ldr	r5, [r1, #0]
 800110a:	2401      	movs	r4, #1
 800110c:	409c      	lsls	r4, r3
 800110e:	ea04 0c05 	and.w	ip, r4, r5
 8001112:	43ac      	bics	r4, r5
 8001114:	f040 80b0 	bne.w	8001278 <HAL_GPIO_Init+0x17c>
 8001118:	684d      	ldr	r5, [r1, #4]
 800111a:	f005 0403 	and.w	r4, r5, #3
 800111e:	ea4f 0843 	mov.w	r8, r3, lsl #1
 8001122:	2603      	movs	r6, #3
 8001124:	1e67      	subs	r7, r4, #1
 8001126:	fa06 f608 	lsl.w	r6, r6, r8
 800112a:	2f01      	cmp	r7, #1
 800112c:	ea6f 0606 	mvn.w	r6, r6
 8001130:	d834      	bhi.n	800119c <HAL_GPIO_Init+0xa0>
 8001132:	6887      	ldr	r7, [r0, #8]
 8001134:	ea07 0e06 	and.w	lr, r7, r6
 8001138:	68cf      	ldr	r7, [r1, #12]
 800113a:	fa07 f708 	lsl.w	r7, r7, r8
 800113e:	ea47 070e 	orr.w	r7, r7, lr
 8001142:	6087      	str	r7, [r0, #8]
 8001144:	6847      	ldr	r7, [r0, #4]
 8001146:	ea27 0e0c 	bic.w	lr, r7, ip
 800114a:	f3c5 1700 	ubfx	r7, r5, #4, #1
 800114e:	409f      	lsls	r7, r3
 8001150:	ea47 070e 	orr.w	r7, r7, lr
 8001154:	6047      	str	r7, [r0, #4]
 8001156:	68c7      	ldr	r7, [r0, #12]
 8001158:	ea07 0e06 	and.w	lr, r7, r6
 800115c:	688f      	ldr	r7, [r1, #8]
 800115e:	fa07 f708 	lsl.w	r7, r7, r8
 8001162:	ea47 070e 	orr.w	r7, r7, lr
 8001166:	2c02      	cmp	r4, #2
 8001168:	60c7      	str	r7, [r0, #12]
 800116a:	d119      	bne.n	80011a0 <HAL_GPIO_Init+0xa4>
 800116c:	ea4f 0ad3 	mov.w	sl, r3, lsr #3
 8001170:	eb00 0a8a 	add.w	sl, r0, sl, lsl #2
 8001174:	f003 0b07 	and.w	fp, r3, #7
 8001178:	f8da 7020 	ldr.w	r7, [sl, #32]
 800117c:	ea4f 0b8b 	mov.w	fp, fp, lsl #2
 8001180:	f04f 0e0f 	mov.w	lr, #15
 8001184:	fa0e fe0b 	lsl.w	lr, lr, fp
 8001188:	ea27 0e0e 	bic.w	lr, r7, lr
 800118c:	690f      	ldr	r7, [r1, #16]
 800118e:	fa07 f70b 	lsl.w	r7, r7, fp
 8001192:	ea47 070e 	orr.w	r7, r7, lr
 8001196:	f8ca 7020 	str.w	r7, [sl, #32]
 800119a:	e001      	b.n	80011a0 <HAL_GPIO_Init+0xa4>
 800119c:	2c03      	cmp	r4, #3
 800119e:	d1da      	bne.n	8001156 <HAL_GPIO_Init+0x5a>
 80011a0:	6807      	ldr	r7, [r0, #0]
 80011a2:	fa04 f408 	lsl.w	r4, r4, r8
 80011a6:	403e      	ands	r6, r7
 80011a8:	4326      	orrs	r6, r4
 80011aa:	00ec      	lsls	r4, r5, #3
 80011ac:	6006      	str	r6, [r0, #0]
 80011ae:	d563      	bpl.n	8001278 <HAL_GPIO_Init+0x17c>
 80011b0:	f04f 0a00 	mov.w	sl, #0
 80011b4:	f8cd a004 	str.w	sl, [sp, #4]
 80011b8:	f8d9 6044 	ldr.w	r6, [r9, #68]	; 0x44
 80011bc:	4c3a      	ldr	r4, [pc, #232]	; (80012a8 <HAL_GPIO_Init+0x1ac>)
 80011be:	f446 4680 	orr.w	r6, r6, #16384	; 0x4000
 80011c2:	f8c9 6044 	str.w	r6, [r9, #68]	; 0x44
 80011c6:	f8d9 6044 	ldr.w	r6, [r9, #68]	; 0x44
 80011ca:	f406 4680 	and.w	r6, r6, #16384	; 0x4000
 80011ce:	9601      	str	r6, [sp, #4]
 80011d0:	9e01      	ldr	r6, [sp, #4]
 80011d2:	f023 0603 	bic.w	r6, r3, #3
 80011d6:	f106 4680 	add.w	r6, r6, #1073741824	; 0x40000000
 80011da:	f506 369c 	add.w	r6, r6, #79872	; 0x13800
 80011de:	f003 0e03 	and.w	lr, r3, #3
 80011e2:	f8d6 8008 	ldr.w	r8, [r6, #8]
 80011e6:	ea4f 0e8e 	mov.w	lr, lr, lsl #2
 80011ea:	270f      	movs	r7, #15
 80011ec:	fa07 f70e 	lsl.w	r7, r7, lr
 80011f0:	42a0      	cmp	r0, r4
 80011f2:	ea28 0707 	bic.w	r7, r8, r7
 80011f6:	d046      	beq.n	8001286 <HAL_GPIO_Init+0x18a>
 80011f8:	f504 6480 	add.w	r4, r4, #1024	; 0x400
 80011fc:	42a0      	cmp	r0, r4
 80011fe:	d044      	beq.n	800128a <HAL_GPIO_Init+0x18e>
 8001200:	f504 6480 	add.w	r4, r4, #1024	; 0x400
 8001204:	42a0      	cmp	r0, r4
 8001206:	d042      	beq.n	800128e <HAL_GPIO_Init+0x192>
 8001208:	f504 6480 	add.w	r4, r4, #1024	; 0x400
 800120c:	42a0      	cmp	r0, r4
 800120e:	d040      	beq.n	8001292 <HAL_GPIO_Init+0x196>
 8001210:	f504 6480 	add.w	r4, r4, #1024	; 0x400
 8001214:	42a0      	cmp	r0, r4
 8001216:	d03e      	beq.n	8001296 <HAL_GPIO_Init+0x19a>
 8001218:	f504 6480 	add.w	r4, r4, #1024	; 0x400
 800121c:	42a0      	cmp	r0, r4
 800121e:	d03c      	beq.n	800129a <HAL_GPIO_Init+0x19e>
 8001220:	f504 6480 	add.w	r4, r4, #1024	; 0x400
 8001224:	42a0      	cmp	r0, r4
 8001226:	d03a      	beq.n	800129e <HAL_GPIO_Init+0x1a2>
 8001228:	f504 6480 	add.w	r4, r4, #1024	; 0x400
 800122c:	42a0      	cmp	r0, r4
 800122e:	bf0c      	ite	eq
 8001230:	2407      	moveq	r4, #7
 8001232:	2408      	movne	r4, #8
 8001234:	fa04 f40e 	lsl.w	r4, r4, lr
 8001238:	433c      	orrs	r4, r7
 800123a:	60b4      	str	r4, [r6, #8]
 800123c:	6814      	ldr	r4, [r2, #0]
 800123e:	ea6f 060c 	mvn.w	r6, ip
 8001242:	03ef      	lsls	r7, r5, #15
 8001244:	bf54      	ite	pl
 8001246:	4034      	andpl	r4, r6
 8001248:	ea4c 0404 	orrmi.w	r4, ip, r4
 800124c:	6014      	str	r4, [r2, #0]
 800124e:	6854      	ldr	r4, [r2, #4]
 8001250:	03af      	lsls	r7, r5, #14
 8001252:	bf54      	ite	pl
 8001254:	4034      	andpl	r4, r6
 8001256:	ea4c 0404 	orrmi.w	r4, ip, r4
 800125a:	6054      	str	r4, [r2, #4]
 800125c:	6894      	ldr	r4, [r2, #8]
 800125e:	02ef      	lsls	r7, r5, #11
 8001260:	bf54      	ite	pl
 8001262:	4034      	andpl	r4, r6
 8001264:	ea4c 0404 	orrmi.w	r4, ip, r4
 8001268:	6094      	str	r4, [r2, #8]
 800126a:	68d4      	ldr	r4, [r2, #12]
 800126c:	02ad      	lsls	r5, r5, #10
 800126e:	bf54      	ite	pl
 8001270:	4034      	andpl	r4, r6
 8001272:	ea4c 0404 	orrmi.w	r4, ip, r4
 8001276:	60d4      	str	r4, [r2, #12]
 8001278:	3301      	adds	r3, #1
 800127a:	2b10      	cmp	r3, #16
 800127c:	f47f af44 	bne.w	8001108 <HAL_GPIO_Init+0xc>
 8001280:	b003      	add	sp, #12
 8001282:	e8bd 8ff0 	ldmia.w	sp!, {r4, r5, r6, r7, r8, r9, sl, fp, pc}
 8001286:	4654      	mov	r4, sl
 8001288:	e7d4      	b.n	8001234 <HAL_GPIO_Init+0x138>
 800128a:	2401      	movs	r4, #1
 800128c:	e7d2      	b.n	8001234 <HAL_GPIO_Init+0x138>
 800128e:	2402      	movs	r4, #2
 8001290:	e7d0      	b.n	8001234 <HAL_GPIO_Init+0x138>
 8001292:	2403      	movs	r4, #3
 8001294:	e7ce      	b.n	8001234 <HAL_GPIO_Init+0x138>
 8001296:	2404      	movs	r4, #4
 8001298:	e7cc      	b.n	8001234 <HAL_GPIO_Init+0x138>
 800129a:	2405      	movs	r4, #5
 800129c:	e7ca      	b.n	8001234 <HAL_GPIO_Init+0x138>
 800129e:	2406      	movs	r4, #6
 80012a0:	e7c8      	b.n	8001234 <HAL_GPIO_Init+0x138>
 80012a2:	bf00      	nop
 80012a4:	40013c00 	.word	0x40013c00
 80012a8:	40020000 	.word	0x40020000
 80012ac:	40023800 	.word	0x40023800

080012b0 <HAL_GPIO_WritePin>:
 80012b0:	b10a      	cbz	r2, 80012b6 <HAL_GPIO_WritePin+0x6>
 80012b2:	6181      	str	r1, [r0, #24]
 80012b4:	4770      	bx	lr
 80012b6:	0409      	lsls	r1, r1, #16
 80012b8:	e7fb      	b.n	80012b2 <HAL_GPIO_WritePin+0x2>
	...

080012bc <HAL_RCC_OscConfig>:
 80012bc:	e92d 41f3 	stmdb	sp!, {r0, r1, r4, r5, r6, r7, r8, lr}
 80012c0:	4604      	mov	r4, r0
 80012c2:	b340      	cbz	r0, 8001316 <HAL_RCC_OscConfig+0x5a>
 80012c4:	6803      	ldr	r3, [r0, #0]
 80012c6:	07dd      	lsls	r5, r3, #31
 80012c8:	d410      	bmi.n	80012ec <HAL_RCC_OscConfig+0x30>
 80012ca:	6823      	ldr	r3, [r4, #0]
 80012cc:	0798      	lsls	r0, r3, #30
 80012ce:	d45e      	bmi.n	800138e <HAL_RCC_OscConfig+0xd2>
 80012d0:	6823      	ldr	r3, [r4, #0]
 80012d2:	071a      	lsls	r2, r3, #28
 80012d4:	f100 80a0 	bmi.w	8001418 <HAL_RCC_OscConfig+0x15c>
 80012d8:	6823      	ldr	r3, [r4, #0]
 80012da:	075b      	lsls	r3, r3, #29
 80012dc:	f100 80be 	bmi.w	800145c <HAL_RCC_OscConfig+0x1a0>
 80012e0:	69a0      	ldr	r0, [r4, #24]
 80012e2:	2800      	cmp	r0, #0
 80012e4:	f040 811f 	bne.w	8001526 <HAL_RCC_OscConfig+0x26a>
 80012e8:	2000      	movs	r0, #0
 80012ea:	e02b      	b.n	8001344 <HAL_RCC_OscConfig+0x88>
 80012ec:	4ba6      	ldr	r3, [pc, #664]	; (8001588 <HAL_RCC_OscConfig+0x2cc>)
 80012ee:	689a      	ldr	r2, [r3, #8]
 80012f0:	f002 020c 	and.w	r2, r2, #12
 80012f4:	2a04      	cmp	r2, #4
 80012f6:	d007      	beq.n	8001308 <HAL_RCC_OscConfig+0x4c>
 80012f8:	689a      	ldr	r2, [r3, #8]
 80012fa:	f002 020c 	and.w	r2, r2, #12
 80012fe:	2a08      	cmp	r2, #8
 8001300:	d10b      	bne.n	800131a <HAL_RCC_OscConfig+0x5e>
 8001302:	685a      	ldr	r2, [r3, #4]
 8001304:	0251      	lsls	r1, r2, #9
 8001306:	d508      	bpl.n	800131a <HAL_RCC_OscConfig+0x5e>
 8001308:	4b9f      	ldr	r3, [pc, #636]	; (8001588 <HAL_RCC_OscConfig+0x2cc>)
 800130a:	681b      	ldr	r3, [r3, #0]
 800130c:	039a      	lsls	r2, r3, #14
 800130e:	d5dc      	bpl.n	80012ca <HAL_RCC_OscConfig+0xe>
 8001310:	6863      	ldr	r3, [r4, #4]
 8001312:	2b00      	cmp	r3, #0
 8001314:	d1d9      	bne.n	80012ca <HAL_RCC_OscConfig+0xe>
 8001316:	2001      	movs	r0, #1
 8001318:	e014      	b.n	8001344 <HAL_RCC_OscConfig+0x88>
 800131a:	6862      	ldr	r2, [r4, #4]
 800131c:	f5b2 3f80 	cmp.w	r2, #65536	; 0x10000
 8001320:	d113      	bne.n	800134a <HAL_RCC_OscConfig+0x8e>
 8001322:	681a      	ldr	r2, [r3, #0]
 8001324:	f442 3280 	orr.w	r2, r2, #65536	; 0x10000
 8001328:	601a      	str	r2, [r3, #0]
 800132a:	f7ff fceb 	bl	8000d04 <HAL_GetTick>
 800132e:	4e96      	ldr	r6, [pc, #600]	; (8001588 <HAL_RCC_OscConfig+0x2cc>)
 8001330:	4605      	mov	r5, r0
 8001332:	6833      	ldr	r3, [r6, #0]
 8001334:	039b      	lsls	r3, r3, #14
 8001336:	d4c8      	bmi.n	80012ca <HAL_RCC_OscConfig+0xe>
 8001338:	f7ff fce4 	bl	8000d04 <HAL_GetTick>
 800133c:	1b40      	subs	r0, r0, r5
 800133e:	2864      	cmp	r0, #100	; 0x64
 8001340:	d9f7      	bls.n	8001332 <HAL_RCC_OscConfig+0x76>
 8001342:	2003      	movs	r0, #3
 8001344:	b002      	add	sp, #8
 8001346:	e8bd 81f0 	ldmia.w	sp!, {r4, r5, r6, r7, r8, pc}
 800134a:	4d8f      	ldr	r5, [pc, #572]	; (8001588 <HAL_RCC_OscConfig+0x2cc>)
 800134c:	f5b2 2fa0 	cmp.w	r2, #327680	; 0x50000
 8001350:	682b      	ldr	r3, [r5, #0]
 8001352:	d107      	bne.n	8001364 <HAL_RCC_OscConfig+0xa8>
 8001354:	f443 2380 	orr.w	r3, r3, #262144	; 0x40000
 8001358:	602b      	str	r3, [r5, #0]
 800135a:	682b      	ldr	r3, [r5, #0]
 800135c:	f443 3380 	orr.w	r3, r3, #65536	; 0x10000
 8001360:	602b      	str	r3, [r5, #0]
 8001362:	e7e2      	b.n	800132a <HAL_RCC_OscConfig+0x6e>
 8001364:	f423 3380 	bic.w	r3, r3, #65536	; 0x10000
 8001368:	602b      	str	r3, [r5, #0]
 800136a:	682b      	ldr	r3, [r5, #0]
 800136c:	f423 2380 	bic.w	r3, r3, #262144	; 0x40000
 8001370:	602b      	str	r3, [r5, #0]
 8001372:	2a00      	cmp	r2, #0
 8001374:	d1d9      	bne.n	800132a <HAL_RCC_OscConfig+0x6e>
 8001376:	f7ff fcc5 	bl	8000d04 <HAL_GetTick>
 800137a:	4606      	mov	r6, r0
 800137c:	682b      	ldr	r3, [r5, #0]
 800137e:	039f      	lsls	r7, r3, #14
 8001380:	d5a3      	bpl.n	80012ca <HAL_RCC_OscConfig+0xe>
 8001382:	f7ff fcbf 	bl	8000d04 <HAL_GetTick>
 8001386:	1b80      	subs	r0, r0, r6
 8001388:	2864      	cmp	r0, #100	; 0x64
 800138a:	d9f7      	bls.n	800137c <HAL_RCC_OscConfig+0xc0>
 800138c:	e7d9      	b.n	8001342 <HAL_RCC_OscConfig+0x86>
 800138e:	4b7e      	ldr	r3, [pc, #504]	; (8001588 <HAL_RCC_OscConfig+0x2cc>)
 8001390:	689a      	ldr	r2, [r3, #8]
 8001392:	f012 0f0c 	tst.w	r2, #12
 8001396:	d007      	beq.n	80013a8 <HAL_RCC_OscConfig+0xec>
 8001398:	689a      	ldr	r2, [r3, #8]
 800139a:	f002 020c 	and.w	r2, r2, #12
 800139e:	2a08      	cmp	r2, #8
 80013a0:	d111      	bne.n	80013c6 <HAL_RCC_OscConfig+0x10a>
 80013a2:	685b      	ldr	r3, [r3, #4]
 80013a4:	025e      	lsls	r6, r3, #9
 80013a6:	d40e      	bmi.n	80013c6 <HAL_RCC_OscConfig+0x10a>
 80013a8:	4b77      	ldr	r3, [pc, #476]	; (8001588 <HAL_RCC_OscConfig+0x2cc>)
 80013aa:	681a      	ldr	r2, [r3, #0]
 80013ac:	0795      	lsls	r5, r2, #30
 80013ae:	d502      	bpl.n	80013b6 <HAL_RCC_OscConfig+0xfa>
 80013b0:	68e2      	ldr	r2, [r4, #12]
 80013b2:	2a01      	cmp	r2, #1
 80013b4:	d1af      	bne.n	8001316 <HAL_RCC_OscConfig+0x5a>
 80013b6:	681a      	ldr	r2, [r3, #0]
 80013b8:	6921      	ldr	r1, [r4, #16]
 80013ba:	f022 02f8 	bic.w	r2, r2, #248	; 0xf8
 80013be:	ea42 02c1 	orr.w	r2, r2, r1, lsl #3
 80013c2:	601a      	str	r2, [r3, #0]
 80013c4:	e784      	b.n	80012d0 <HAL_RCC_OscConfig+0x14>
 80013c6:	68e2      	ldr	r2, [r4, #12]
 80013c8:	4b70      	ldr	r3, [pc, #448]	; (800158c <HAL_RCC_OscConfig+0x2d0>)
 80013ca:	b1b2      	cbz	r2, 80013fa <HAL_RCC_OscConfig+0x13e>
 80013cc:	2201      	movs	r2, #1
 80013ce:	601a      	str	r2, [r3, #0]
 80013d0:	f7ff fc98 	bl	8000d04 <HAL_GetTick>
 80013d4:	4d6c      	ldr	r5, [pc, #432]	; (8001588 <HAL_RCC_OscConfig+0x2cc>)
 80013d6:	4606      	mov	r6, r0
 80013d8:	682b      	ldr	r3, [r5, #0]
 80013da:	0798      	lsls	r0, r3, #30
 80013dc:	d507      	bpl.n	80013ee <HAL_RCC_OscConfig+0x132>
 80013de:	682b      	ldr	r3, [r5, #0]
 80013e0:	6922      	ldr	r2, [r4, #16]
 80013e2:	f023 03f8 	bic.w	r3, r3, #248	; 0xf8
 80013e6:	ea43 03c2 	orr.w	r3, r3, r2, lsl #3
 80013ea:	602b      	str	r3, [r5, #0]
 80013ec:	e770      	b.n	80012d0 <HAL_RCC_OscConfig+0x14>
 80013ee:	f7ff fc89 	bl	8000d04 <HAL_GetTick>
 80013f2:	1b80      	subs	r0, r0, r6
 80013f4:	2802      	cmp	r0, #2
 80013f6:	d9ef      	bls.n	80013d8 <HAL_RCC_OscConfig+0x11c>
 80013f8:	e7a3      	b.n	8001342 <HAL_RCC_OscConfig+0x86>
 80013fa:	601a      	str	r2, [r3, #0]
 80013fc:	f7ff fc82 	bl	8000d04 <HAL_GetTick>
 8001400:	4e61      	ldr	r6, [pc, #388]	; (8001588 <HAL_RCC_OscConfig+0x2cc>)
 8001402:	4605      	mov	r5, r0
 8001404:	6833      	ldr	r3, [r6, #0]
 8001406:	0799      	lsls	r1, r3, #30
 8001408:	f57f af62 	bpl.w	80012d0 <HAL_RCC_OscConfig+0x14>
 800140c:	f7ff fc7a 	bl	8000d04 <HAL_GetTick>
 8001410:	1b40      	subs	r0, r0, r5
 8001412:	2802      	cmp	r0, #2
 8001414:	d9f6      	bls.n	8001404 <HAL_RCC_OscConfig+0x148>
 8001416:	e794      	b.n	8001342 <HAL_RCC_OscConfig+0x86>
 8001418:	6962      	ldr	r2, [r4, #20]
 800141a:	4b5d      	ldr	r3, [pc, #372]	; (8001590 <HAL_RCC_OscConfig+0x2d4>)
 800141c:	b17a      	cbz	r2, 800143e <HAL_RCC_OscConfig+0x182>
 800141e:	2201      	movs	r2, #1
 8001420:	601a      	str	r2, [r3, #0]
 8001422:	f7ff fc6f 	bl	8000d04 <HAL_GetTick>
 8001426:	4e58      	ldr	r6, [pc, #352]	; (8001588 <HAL_RCC_OscConfig+0x2cc>)
 8001428:	4605      	mov	r5, r0
 800142a:	6f73      	ldr	r3, [r6, #116]	; 0x74
 800142c:	079f      	lsls	r7, r3, #30
 800142e:	f53f af53 	bmi.w	80012d8 <HAL_RCC_OscConfig+0x1c>
 8001432:	f7ff fc67 	bl	8000d04 <HAL_GetTick>
 8001436:	1b40      	subs	r0, r0, r5
 8001438:	2802      	cmp	r0, #2
 800143a:	d9f6      	bls.n	800142a <HAL_RCC_OscConfig+0x16e>
 800143c:	e781      	b.n	8001342 <HAL_RCC_OscConfig+0x86>
 800143e:	601a      	str	r2, [r3, #0]
 8001440:	f7ff fc60 	bl	8000d04 <HAL_GetTick>
 8001444:	4e50      	ldr	r6, [pc, #320]	; (8001588 <HAL_RCC_OscConfig+0x2cc>)
 8001446:	4605      	mov	r5, r0
 8001448:	6f73      	ldr	r3, [r6, #116]	; 0x74
 800144a:	0798      	lsls	r0, r3, #30
 800144c:	f57f af44 	bpl.w	80012d8 <HAL_RCC_OscConfig+0x1c>
 8001450:	f7ff fc58 	bl	8000d04 <HAL_GetTick>
 8001454:	1b40      	subs	r0, r0, r5
 8001456:	2802      	cmp	r0, #2
 8001458:	d9f6      	bls.n	8001448 <HAL_RCC_OscConfig+0x18c>
 800145a:	e772      	b.n	8001342 <HAL_RCC_OscConfig+0x86>
 800145c:	4b4a      	ldr	r3, [pc, #296]	; (8001588 <HAL_RCC_OscConfig+0x2cc>)
 800145e:	6c1a      	ldr	r2, [r3, #64]	; 0x40
 8001460:	f012 5280 	ands.w	r2, r2, #268435456	; 0x10000000
 8001464:	d128      	bne.n	80014b8 <HAL_RCC_OscConfig+0x1fc>
 8001466:	9201      	str	r2, [sp, #4]
 8001468:	6c1a      	ldr	r2, [r3, #64]	; 0x40
 800146a:	f042 5280 	orr.w	r2, r2, #268435456	; 0x10000000
 800146e:	641a      	str	r2, [r3, #64]	; 0x40
 8001470:	6c1b      	ldr	r3, [r3, #64]	; 0x40
 8001472:	f003 5380 	and.w	r3, r3, #268435456	; 0x10000000
 8001476:	9301      	str	r3, [sp, #4]
 8001478:	9b01      	ldr	r3, [sp, #4]
 800147a:	2701      	movs	r7, #1
 800147c:	4d45      	ldr	r5, [pc, #276]	; (8001594 <HAL_RCC_OscConfig+0x2d8>)
 800147e:	682b      	ldr	r3, [r5, #0]
 8001480:	05d9      	lsls	r1, r3, #23
 8001482:	d51b      	bpl.n	80014bc <HAL_RCC_OscConfig+0x200>
 8001484:	68a3      	ldr	r3, [r4, #8]
 8001486:	4d40      	ldr	r5, [pc, #256]	; (8001588 <HAL_RCC_OscConfig+0x2cc>)
 8001488:	2b01      	cmp	r3, #1
 800148a:	d127      	bne.n	80014dc <HAL_RCC_OscConfig+0x220>
 800148c:	6f2b      	ldr	r3, [r5, #112]	; 0x70
 800148e:	f043 0301 	orr.w	r3, r3, #1
 8001492:	672b      	str	r3, [r5, #112]	; 0x70
 8001494:	f7ff fc36 	bl	8000d04 <HAL_GetTick>
 8001498:	4e3b      	ldr	r6, [pc, #236]	; (8001588 <HAL_RCC_OscConfig+0x2cc>)
 800149a:	4605      	mov	r5, r0
 800149c:	f241 3888 	movw	r8, #5000	; 0x1388
 80014a0:	6f33      	ldr	r3, [r6, #112]	; 0x70
 80014a2:	079b      	lsls	r3, r3, #30
 80014a4:	d539      	bpl.n	800151a <HAL_RCC_OscConfig+0x25e>
 80014a6:	2f00      	cmp	r7, #0
 80014a8:	f43f af1a 	beq.w	80012e0 <HAL_RCC_OscConfig+0x24>
 80014ac:	4a36      	ldr	r2, [pc, #216]	; (8001588 <HAL_RCC_OscConfig+0x2cc>)
 80014ae:	6c13      	ldr	r3, [r2, #64]	; 0x40
 80014b0:	f023 5380 	bic.w	r3, r3, #268435456	; 0x10000000
 80014b4:	6413      	str	r3, [r2, #64]	; 0x40
 80014b6:	e713      	b.n	80012e0 <HAL_RCC_OscConfig+0x24>
 80014b8:	2700      	movs	r7, #0
 80014ba:	e7df      	b.n	800147c <HAL_RCC_OscConfig+0x1c0>
 80014bc:	682b      	ldr	r3, [r5, #0]
 80014be:	f443 7380 	orr.w	r3, r3, #256	; 0x100
 80014c2:	602b      	str	r3, [r5, #0]
 80014c4:	f7ff fc1e 	bl	8000d04 <HAL_GetTick>
 80014c8:	4606      	mov	r6, r0
 80014ca:	682b      	ldr	r3, [r5, #0]
 80014cc:	05da      	lsls	r2, r3, #23
 80014ce:	d4d9      	bmi.n	8001484 <HAL_RCC_OscConfig+0x1c8>
 80014d0:	f7ff fc18 	bl	8000d04 <HAL_GetTick>
 80014d4:	1b80      	subs	r0, r0, r6
 80014d6:	2802      	cmp	r0, #2
 80014d8:	d9f7      	bls.n	80014ca <HAL_RCC_OscConfig+0x20e>
 80014da:	e732      	b.n	8001342 <HAL_RCC_OscConfig+0x86>
 80014dc:	2b05      	cmp	r3, #5
 80014de:	d104      	bne.n	80014ea <HAL_RCC_OscConfig+0x22e>
 80014e0:	6f2b      	ldr	r3, [r5, #112]	; 0x70
 80014e2:	f043 0304 	orr.w	r3, r3, #4
 80014e6:	672b      	str	r3, [r5, #112]	; 0x70
 80014e8:	e7d0      	b.n	800148c <HAL_RCC_OscConfig+0x1d0>
 80014ea:	6f2a      	ldr	r2, [r5, #112]	; 0x70
 80014ec:	f022 0201 	bic.w	r2, r2, #1
 80014f0:	672a      	str	r2, [r5, #112]	; 0x70
 80014f2:	6f2a      	ldr	r2, [r5, #112]	; 0x70
 80014f4:	f022 0204 	bic.w	r2, r2, #4
 80014f8:	672a      	str	r2, [r5, #112]	; 0x70
 80014fa:	2b00      	cmp	r3, #0
 80014fc:	d1ca      	bne.n	8001494 <HAL_RCC_OscConfig+0x1d8>
 80014fe:	f7ff fc01 	bl	8000d04 <HAL_GetTick>
 8001502:	f241 3888 	movw	r8, #5000	; 0x1388
 8001506:	4606      	mov	r6, r0
 8001508:	6f2b      	ldr	r3, [r5, #112]	; 0x70
 800150a:	0798      	lsls	r0, r3, #30
 800150c:	d5cb      	bpl.n	80014a6 <HAL_RCC_OscConfig+0x1ea>
 800150e:	f7ff fbf9 	bl	8000d04 <HAL_GetTick>
 8001512:	1b80      	subs	r0, r0, r6
 8001514:	4540      	cmp	r0, r8
 8001516:	d9f7      	bls.n	8001508 <HAL_RCC_OscConfig+0x24c>
 8001518:	e713      	b.n	8001342 <HAL_RCC_OscConfig+0x86>
 800151a:	f7ff fbf3 	bl	8000d04 <HAL_GetTick>
 800151e:	1b40      	subs	r0, r0, r5
 8001520:	4540      	cmp	r0, r8
 8001522:	d9bd      	bls.n	80014a0 <HAL_RCC_OscConfig+0x1e4>
 8001524:	e70d      	b.n	8001342 <HAL_RCC_OscConfig+0x86>
 8001526:	4d18      	ldr	r5, [pc, #96]	; (8001588 <HAL_RCC_OscConfig+0x2cc>)
 8001528:	68ab      	ldr	r3, [r5, #8]
 800152a:	f003 030c 	and.w	r3, r3, #12
 800152e:	2b08      	cmp	r3, #8
 8001530:	d047      	beq.n	80015c2 <HAL_RCC_OscConfig+0x306>
 8001532:	4e19      	ldr	r6, [pc, #100]	; (8001598 <HAL_RCC_OscConfig+0x2dc>)
 8001534:	2300      	movs	r3, #0
 8001536:	2802      	cmp	r0, #2
 8001538:	6033      	str	r3, [r6, #0]
 800153a:	d135      	bne.n	80015a8 <HAL_RCC_OscConfig+0x2ec>
 800153c:	f7ff fbe2 	bl	8000d04 <HAL_GetTick>
 8001540:	4607      	mov	r7, r0
 8001542:	682b      	ldr	r3, [r5, #0]
 8001544:	0199      	lsls	r1, r3, #6
 8001546:	d429      	bmi.n	800159c <HAL_RCC_OscConfig+0x2e0>
 8001548:	e9d4 3207 	ldrd	r3, r2, [r4, #28]
 800154c:	4313      	orrs	r3, r2
 800154e:	6a62      	ldr	r2, [r4, #36]	; 0x24
 8001550:	ea43 1382 	orr.w	r3, r3, r2, lsl #6
 8001554:	6ae2      	ldr	r2, [r4, #44]	; 0x2c
 8001556:	ea43 6302 	orr.w	r3, r3, r2, lsl #24
 800155a:	6aa2      	ldr	r2, [r4, #40]	; 0x28
 800155c:	0852      	lsrs	r2, r2, #1
 800155e:	3a01      	subs	r2, #1
 8001560:	ea43 4302 	orr.w	r3, r3, r2, lsl #16
 8001564:	606b      	str	r3, [r5, #4]
 8001566:	2301      	movs	r3, #1
 8001568:	6033      	str	r3, [r6, #0]
 800156a:	f7ff fbcb 	bl	8000d04 <HAL_GetTick>
 800156e:	4d06      	ldr	r5, [pc, #24]	; (8001588 <HAL_RCC_OscConfig+0x2cc>)
 8001570:	4604      	mov	r4, r0
 8001572:	682b      	ldr	r3, [r5, #0]
 8001574:	019a      	lsls	r2, r3, #6
 8001576:	f53f aeb7 	bmi.w	80012e8 <HAL_RCC_OscConfig+0x2c>
 800157a:	f7ff fbc3 	bl	8000d04 <HAL_GetTick>
 800157e:	1b00      	subs	r0, r0, r4
 8001580:	2802      	cmp	r0, #2
 8001582:	d9f6      	bls.n	8001572 <HAL_RCC_OscConfig+0x2b6>
 8001584:	e6dd      	b.n	8001342 <HAL_RCC_OscConfig+0x86>
 8001586:	bf00      	nop
 8001588:	40023800 	.word	0x40023800
 800158c:	42470000 	.word	0x42470000
 8001590:	42470e80 	.word	0x42470e80
 8001594:	40007000 	.word	0x40007000
 8001598:	42470060 	.word	0x42470060
 800159c:	f7ff fbb2 	bl	8000d04 <HAL_GetTick>
 80015a0:	1bc0      	subs	r0, r0, r7
 80015a2:	2802      	cmp	r0, #2
 80015a4:	d9cd      	bls.n	8001542 <HAL_RCC_OscConfig+0x286>
 80015a6:	e6cc      	b.n	8001342 <HAL_RCC_OscConfig+0x86>
 80015a8:	f7ff fbac 	bl	8000d04 <HAL_GetTick>
 80015ac:	4604      	mov	r4, r0
 80015ae:	682b      	ldr	r3, [r5, #0]
 80015b0:	019b      	lsls	r3, r3, #6
 80015b2:	f57f ae99 	bpl.w	80012e8 <HAL_RCC_OscConfig+0x2c>
 80015b6:	f7ff fba5 	bl	8000d04 <HAL_GetTick>
 80015ba:	1b00      	subs	r0, r0, r4
 80015bc:	2802      	cmp	r0, #2
 80015be:	d9f6      	bls.n	80015ae <HAL_RCC_OscConfig+0x2f2>
 80015c0:	e6bf      	b.n	8001342 <HAL_RCC_OscConfig+0x86>
 80015c2:	2801      	cmp	r0, #1
 80015c4:	f43f aebe 	beq.w	8001344 <HAL_RCC_OscConfig+0x88>
 80015c8:	686b      	ldr	r3, [r5, #4]
 80015ca:	69e2      	ldr	r2, [r4, #28]
 80015cc:	f403 0180 	and.w	r1, r3, #4194304	; 0x400000
 80015d0:	4291      	cmp	r1, r2
 80015d2:	f47f aea0 	bne.w	8001316 <HAL_RCC_OscConfig+0x5a>
 80015d6:	6a21      	ldr	r1, [r4, #32]
 80015d8:	f003 023f 	and.w	r2, r3, #63	; 0x3f
 80015dc:	428a      	cmp	r2, r1
 80015de:	f47f ae9a 	bne.w	8001316 <HAL_RCC_OscConfig+0x5a>
 80015e2:	6a61      	ldr	r1, [r4, #36]	; 0x24
 80015e4:	f647 72c0 	movw	r2, #32704	; 0x7fc0
 80015e8:	401a      	ands	r2, r3
 80015ea:	ebb2 1f81 	cmp.w	r2, r1, lsl #6
 80015ee:	f47f ae92 	bne.w	8001316 <HAL_RCC_OscConfig+0x5a>
 80015f2:	6aa2      	ldr	r2, [r4, #40]	; 0x28
 80015f4:	0852      	lsrs	r2, r2, #1
 80015f6:	f403 3140 	and.w	r1, r3, #196608	; 0x30000
 80015fa:	3a01      	subs	r2, #1
 80015fc:	ebb1 4f02 	cmp.w	r1, r2, lsl #16
 8001600:	f47f ae89 	bne.w	8001316 <HAL_RCC_OscConfig+0x5a>
 8001604:	6ae2      	ldr	r2, [r4, #44]	; 0x2c
 8001606:	f003 6370 	and.w	r3, r3, #251658240	; 0xf000000
 800160a:	ebb3 6f02 	cmp.w	r3, r2, lsl #24
 800160e:	f43f ae6b 	beq.w	80012e8 <HAL_RCC_OscConfig+0x2c>
 8001612:	e680      	b.n	8001316 <HAL_RCC_OscConfig+0x5a>

08001614 <HAL_RCC_GetSysClockFreq>:
 8001614:	4913      	ldr	r1, [pc, #76]	; (8001664 <HAL_RCC_GetSysClockFreq+0x50>)
 8001616:	b508      	push	{r3, lr}
 8001618:	688b      	ldr	r3, [r1, #8]
 800161a:	f003 030c 	and.w	r3, r3, #12
 800161e:	2b04      	cmp	r3, #4
 8001620:	d01c      	beq.n	800165c <HAL_RCC_GetSysClockFreq+0x48>
 8001622:	2b08      	cmp	r3, #8
 8001624:	d11c      	bne.n	8001660 <HAL_RCC_GetSysClockFreq+0x4c>
 8001626:	684a      	ldr	r2, [r1, #4]
 8001628:	684b      	ldr	r3, [r1, #4]
 800162a:	6849      	ldr	r1, [r1, #4]
 800162c:	f413 0380 	ands.w	r3, r3, #4194304	; 0x400000
 8001630:	bf14      	ite	ne
 8001632:	480d      	ldrne	r0, [pc, #52]	; (8001668 <HAL_RCC_GetSysClockFreq+0x54>)
 8001634:	480d      	ldreq	r0, [pc, #52]	; (800166c <HAL_RCC_GetSysClockFreq+0x58>)
 8001636:	f3c1 1188 	ubfx	r1, r1, #6, #9
 800163a:	bf18      	it	ne
 800163c:	2300      	movne	r3, #0
 800163e:	f002 023f 	and.w	r2, r2, #63	; 0x3f
 8001642:	fba1 0100 	umull	r0, r1, r1, r0
 8001646:	f7fe fdc7 	bl	80001d8 <__aeabi_uldivmod>
 800164a:	4b06      	ldr	r3, [pc, #24]	; (8001664 <HAL_RCC_GetSysClockFreq+0x50>)
 800164c:	685b      	ldr	r3, [r3, #4]
 800164e:	f3c3 4301 	ubfx	r3, r3, #16, #2
 8001652:	3301      	adds	r3, #1
 8001654:	005b      	lsls	r3, r3, #1
 8001656:	fbb0 f0f3 	udiv	r0, r0, r3
 800165a:	bd08      	pop	{r3, pc}
 800165c:	4802      	ldr	r0, [pc, #8]	; (8001668 <HAL_RCC_GetSysClockFreq+0x54>)
 800165e:	e7fc      	b.n	800165a <HAL_RCC_GetSysClockFreq+0x46>
 8001660:	4802      	ldr	r0, [pc, #8]	; (800166c <HAL_RCC_GetSysClockFreq+0x58>)
 8001662:	e7fa      	b.n	800165a <HAL_RCC_GetSysClockFreq+0x46>
 8001664:	40023800 	.word	0x40023800
 8001668:	007a1200 	.word	0x007a1200
 800166c:	00f42400 	.word	0x00f42400

08001670 <HAL_RCC_ClockConfig>:
 8001670:	e92d 41f0 	stmdb	sp!, {r4, r5, r6, r7, r8, lr}
 8001674:	460d      	mov	r5, r1
 8001676:	4604      	mov	r4, r0
 8001678:	b910      	cbnz	r0, 8001680 <HAL_RCC_ClockConfig+0x10>
 800167a:	2001      	movs	r0, #1
 800167c:	e8bd 81f0 	ldmia.w	sp!, {r4, r5, r6, r7, r8, pc}
 8001680:	4b44      	ldr	r3, [pc, #272]	; (8001794 <HAL_RCC_ClockConfig+0x124>)
 8001682:	681a      	ldr	r2, [r3, #0]
 8001684:	f002 0207 	and.w	r2, r2, #7
 8001688:	428a      	cmp	r2, r1
 800168a:	d328      	bcc.n	80016de <HAL_RCC_ClockConfig+0x6e>
 800168c:	6822      	ldr	r2, [r4, #0]
 800168e:	0797      	lsls	r7, r2, #30
 8001690:	d42d      	bmi.n	80016ee <HAL_RCC_ClockConfig+0x7e>
 8001692:	07d0      	lsls	r0, r2, #31
 8001694:	d441      	bmi.n	800171a <HAL_RCC_ClockConfig+0xaa>
 8001696:	4b3f      	ldr	r3, [pc, #252]	; (8001794 <HAL_RCC_ClockConfig+0x124>)
 8001698:	681a      	ldr	r2, [r3, #0]
 800169a:	f002 0207 	and.w	r2, r2, #7
 800169e:	42aa      	cmp	r2, r5
 80016a0:	d866      	bhi.n	8001770 <HAL_RCC_ClockConfig+0x100>
 80016a2:	6822      	ldr	r2, [r4, #0]
 80016a4:	0751      	lsls	r1, r2, #29
 80016a6:	d46c      	bmi.n	8001782 <HAL_RCC_ClockConfig+0x112>
 80016a8:	0713      	lsls	r3, r2, #28
 80016aa:	d507      	bpl.n	80016bc <HAL_RCC_ClockConfig+0x4c>
 80016ac:	4a3a      	ldr	r2, [pc, #232]	; (8001798 <HAL_RCC_ClockConfig+0x128>)
 80016ae:	6921      	ldr	r1, [r4, #16]
 80016b0:	6893      	ldr	r3, [r2, #8]
 80016b2:	f423 4360 	bic.w	r3, r3, #57344	; 0xe000
 80016b6:	ea43 03c1 	orr.w	r3, r3, r1, lsl #3
 80016ba:	6093      	str	r3, [r2, #8]
 80016bc:	f7ff ffaa 	bl	8001614 <HAL_RCC_GetSysClockFreq>
 80016c0:	4b35      	ldr	r3, [pc, #212]	; (8001798 <HAL_RCC_ClockConfig+0x128>)
 80016c2:	4a36      	ldr	r2, [pc, #216]	; (800179c <HAL_RCC_ClockConfig+0x12c>)
 80016c4:	689b      	ldr	r3, [r3, #8]
 80016c6:	f3c3 1303 	ubfx	r3, r3, #4, #4
 80016ca:	5cd3      	ldrb	r3, [r2, r3]
 80016cc:	40d8      	lsrs	r0, r3
 80016ce:	4b34      	ldr	r3, [pc, #208]	; (80017a0 <HAL_RCC_ClockConfig+0x130>)
 80016d0:	6018      	str	r0, [r3, #0]
 80016d2:	4b34      	ldr	r3, [pc, #208]	; (80017a4 <HAL_RCC_ClockConfig+0x134>)
 80016d4:	6818      	ldr	r0, [r3, #0]
 80016d6:	f7ff facb 	bl	8000c70 <HAL_InitTick>
 80016da:	2000      	movs	r0, #0
 80016dc:	e7ce      	b.n	800167c <HAL_RCC_ClockConfig+0xc>
 80016de:	b2ca      	uxtb	r2, r1
 80016e0:	701a      	strb	r2, [r3, #0]
 80016e2:	681b      	ldr	r3, [r3, #0]
 80016e4:	f003 0307 	and.w	r3, r3, #7
 80016e8:	428b      	cmp	r3, r1
 80016ea:	d1c6      	bne.n	800167a <HAL_RCC_ClockConfig+0xa>
 80016ec:	e7ce      	b.n	800168c <HAL_RCC_ClockConfig+0x1c>
 80016ee:	4b2a      	ldr	r3, [pc, #168]	; (8001798 <HAL_RCC_ClockConfig+0x128>)
 80016f0:	f012 0f04 	tst.w	r2, #4
 80016f4:	bf1e      	ittt	ne
 80016f6:	6899      	ldrne	r1, [r3, #8]
 80016f8:	f441 51e0 	orrne.w	r1, r1, #7168	; 0x1c00
 80016fc:	6099      	strne	r1, [r3, #8]
 80016fe:	0716      	lsls	r6, r2, #28
 8001700:	bf42      	ittt	mi
 8001702:	6899      	ldrmi	r1, [r3, #8]
 8001704:	f441 4160 	orrmi.w	r1, r1, #57344	; 0xe000
 8001708:	6099      	strmi	r1, [r3, #8]
 800170a:	4923      	ldr	r1, [pc, #140]	; (8001798 <HAL_RCC_ClockConfig+0x128>)
 800170c:	68a0      	ldr	r0, [r4, #8]
 800170e:	688b      	ldr	r3, [r1, #8]
 8001710:	f023 03f0 	bic.w	r3, r3, #240	; 0xf0
 8001714:	4303      	orrs	r3, r0
 8001716:	608b      	str	r3, [r1, #8]
 8001718:	e7bb      	b.n	8001692 <HAL_RCC_ClockConfig+0x22>
 800171a:	6862      	ldr	r2, [r4, #4]
 800171c:	4b1e      	ldr	r3, [pc, #120]	; (8001798 <HAL_RCC_ClockConfig+0x128>)
 800171e:	2a01      	cmp	r2, #1
 8001720:	d11c      	bne.n	800175c <HAL_RCC_ClockConfig+0xec>
 8001722:	681b      	ldr	r3, [r3, #0]
 8001724:	f413 3f00 	tst.w	r3, #131072	; 0x20000
 8001728:	d0a7      	beq.n	800167a <HAL_RCC_ClockConfig+0xa>
 800172a:	4e1b      	ldr	r6, [pc, #108]	; (8001798 <HAL_RCC_ClockConfig+0x128>)
 800172c:	68b3      	ldr	r3, [r6, #8]
 800172e:	f023 0303 	bic.w	r3, r3, #3
 8001732:	4313      	orrs	r3, r2
 8001734:	60b3      	str	r3, [r6, #8]
 8001736:	f7ff fae5 	bl	8000d04 <HAL_GetTick>
 800173a:	f241 3888 	movw	r8, #5000	; 0x1388
 800173e:	4607      	mov	r7, r0
 8001740:	68b3      	ldr	r3, [r6, #8]
 8001742:	6862      	ldr	r2, [r4, #4]
 8001744:	f003 030c 	and.w	r3, r3, #12
 8001748:	ebb3 0f82 	cmp.w	r3, r2, lsl #2
 800174c:	d0a3      	beq.n	8001696 <HAL_RCC_ClockConfig+0x26>
 800174e:	f7ff fad9 	bl	8000d04 <HAL_GetTick>
 8001752:	1bc0      	subs	r0, r0, r7
 8001754:	4540      	cmp	r0, r8
 8001756:	d9f3      	bls.n	8001740 <HAL_RCC_ClockConfig+0xd0>
 8001758:	2003      	movs	r0, #3
 800175a:	e78f      	b.n	800167c <HAL_RCC_ClockConfig+0xc>
 800175c:	1e91      	subs	r1, r2, #2
 800175e:	2901      	cmp	r1, #1
 8001760:	681b      	ldr	r3, [r3, #0]
 8001762:	d802      	bhi.n	800176a <HAL_RCC_ClockConfig+0xfa>
 8001764:	f013 7f00 	tst.w	r3, #33554432	; 0x2000000
 8001768:	e7de      	b.n	8001728 <HAL_RCC_ClockConfig+0xb8>
 800176a:	f013 0f02 	tst.w	r3, #2
 800176e:	e7db      	b.n	8001728 <HAL_RCC_ClockConfig+0xb8>
 8001770:	b2ea      	uxtb	r2, r5
 8001772:	701a      	strb	r2, [r3, #0]
 8001774:	681b      	ldr	r3, [r3, #0]
 8001776:	f003 0307 	and.w	r3, r3, #7
 800177a:	42ab      	cmp	r3, r5
 800177c:	f47f af7d 	bne.w	800167a <HAL_RCC_ClockConfig+0xa>
 8001780:	e78f      	b.n	80016a2 <HAL_RCC_ClockConfig+0x32>
 8001782:	4905      	ldr	r1, [pc, #20]	; (8001798 <HAL_RCC_ClockConfig+0x128>)
 8001784:	68e0      	ldr	r0, [r4, #12]
 8001786:	688b      	ldr	r3, [r1, #8]
 8001788:	f423 53e0 	bic.w	r3, r3, #7168	; 0x1c00
 800178c:	4303      	orrs	r3, r0
 800178e:	608b      	str	r3, [r1, #8]
 8001790:	e78a      	b.n	80016a8 <HAL_RCC_ClockConfig+0x38>
 8001792:	bf00      	nop
 8001794:	40023c00 	.word	0x40023c00
 8001798:	40023800 	.word	0x40023800
 800179c:	08002508 	.word	0x08002508
 80017a0:	20000010 	.word	0x20000010
 80017a4:	20000018 	.word	0x20000018

080017a8 <HAL_RCC_GetPCLK1Freq>:
 80017a8:	4b04      	ldr	r3, [pc, #16]	; (80017bc <HAL_RCC_GetPCLK1Freq+0x14>)
 80017aa:	4a05      	ldr	r2, [pc, #20]	; (80017c0 <HAL_RCC_GetPCLK1Freq+0x18>)
 80017ac:	689b      	ldr	r3, [r3, #8]
 80017ae:	f3c3 2382 	ubfx	r3, r3, #10, #3
 80017b2:	5cd3      	ldrb	r3, [r2, r3]
 80017b4:	4a03      	ldr	r2, [pc, #12]	; (80017c4 <HAL_RCC_GetPCLK1Freq+0x1c>)
 80017b6:	6810      	ldr	r0, [r2, #0]
 80017b8:	40d8      	lsrs	r0, r3
 80017ba:	4770      	bx	lr
 80017bc:	40023800 	.word	0x40023800
 80017c0:	08002518 	.word	0x08002518
 80017c4:	20000010 	.word	0x20000010

080017c8 <HAL_RCC_GetPCLK2Freq>:
 80017c8:	4b04      	ldr	r3, [pc, #16]	; (80017dc <HAL_RCC_GetPCLK2Freq+0x14>)
 80017ca:	4a05      	ldr	r2, [pc, #20]	; (80017e0 <HAL_RCC_GetPCLK2Freq+0x18>)
 80017cc:	689b      	ldr	r3, [r3, #8]
 80017ce:	f3c3 3342 	ubfx	r3, r3, #13, #3
 80017d2:	5cd3      	ldrb	r3, [r2, r3]
 80017d4:	4a03      	ldr	r2, [pc, #12]	; (80017e4 <HAL_RCC_GetPCLK2Freq+0x1c>)
 80017d6:	6810      	ldr	r0, [r2, #0]
 80017d8:	40d8      	lsrs	r0, r3
 80017da:	4770      	bx	lr
 80017dc:	40023800 	.word	0x40023800
 80017e0:	08002518 	.word	0x08002518
 80017e4:	20000010 	.word	0x20000010

080017e8 <TIM_OC1_SetConfig>:
 80017e8:	6a03      	ldr	r3, [r0, #32]
 80017ea:	f023 0301 	bic.w	r3, r3, #1
 80017ee:	6203      	str	r3, [r0, #32]
 80017f0:	6a03      	ldr	r3, [r0, #32]
 80017f2:	b570      	push	{r4, r5, r6, lr}
 80017f4:	6844      	ldr	r4, [r0, #4]
 80017f6:	6982      	ldr	r2, [r0, #24]
 80017f8:	680d      	ldr	r5, [r1, #0]
 80017fa:	f022 0273 	bic.w	r2, r2, #115	; 0x73
 80017fe:	432a      	orrs	r2, r5
 8001800:	688d      	ldr	r5, [r1, #8]
 8001802:	f023 0302 	bic.w	r3, r3, #2
 8001806:	432b      	orrs	r3, r5
 8001808:	4d0e      	ldr	r5, [pc, #56]	; (8001844 <TIM_OC1_SetConfig+0x5c>)
 800180a:	42a8      	cmp	r0, r5
 800180c:	d002      	beq.n	8001814 <TIM_OC1_SetConfig+0x2c>
 800180e:	4e0e      	ldr	r6, [pc, #56]	; (8001848 <TIM_OC1_SetConfig+0x60>)
 8001810:	42b0      	cmp	r0, r6
 8001812:	d110      	bne.n	8001836 <TIM_OC1_SetConfig+0x4e>
 8001814:	68ce      	ldr	r6, [r1, #12]
 8001816:	f023 0308 	bic.w	r3, r3, #8
 800181a:	4333      	orrs	r3, r6
 800181c:	42a8      	cmp	r0, r5
 800181e:	f023 0304 	bic.w	r3, r3, #4
 8001822:	d002      	beq.n	800182a <TIM_OC1_SetConfig+0x42>
 8001824:	4d08      	ldr	r5, [pc, #32]	; (8001848 <TIM_OC1_SetConfig+0x60>)
 8001826:	42a8      	cmp	r0, r5
 8001828:	d105      	bne.n	8001836 <TIM_OC1_SetConfig+0x4e>
 800182a:	e9d1 5605 	ldrd	r5, r6, [r1, #20]
 800182e:	f424 7440 	bic.w	r4, r4, #768	; 0x300
 8001832:	4335      	orrs	r5, r6
 8001834:	432c      	orrs	r4, r5
 8001836:	6044      	str	r4, [r0, #4]
 8001838:	6182      	str	r2, [r0, #24]
 800183a:	684a      	ldr	r2, [r1, #4]
 800183c:	6342      	str	r2, [r0, #52]	; 0x34
 800183e:	6203      	str	r3, [r0, #32]
 8001840:	bd70      	pop	{r4, r5, r6, pc}
 8001842:	bf00      	nop
 8001844:	40010000 	.word	0x40010000
 8001848:	40010400 	.word	0x40010400

0800184c <TIM_OC3_SetConfig>:
 800184c:	6a03      	ldr	r3, [r0, #32]
 800184e:	f423 7380 	bic.w	r3, r3, #256	; 0x100
 8001852:	6203      	str	r3, [r0, #32]
 8001854:	6a03      	ldr	r3, [r0, #32]
 8001856:	b570      	push	{r4, r5, r6, lr}
 8001858:	6844      	ldr	r4, [r0, #4]
 800185a:	69c2      	ldr	r2, [r0, #28]
 800185c:	680d      	ldr	r5, [r1, #0]
 800185e:	f022 0273 	bic.w	r2, r2, #115	; 0x73
 8001862:	432a      	orrs	r2, r5
 8001864:	688d      	ldr	r5, [r1, #8]
 8001866:	f423 7300 	bic.w	r3, r3, #512	; 0x200
 800186a:	ea43 2305 	orr.w	r3, r3, r5, lsl #8
 800186e:	4d11      	ldr	r5, [pc, #68]	; (80018b4 <TIM_OC3_SetConfig+0x68>)
 8001870:	42a8      	cmp	r0, r5
 8001872:	d003      	beq.n	800187c <TIM_OC3_SetConfig+0x30>
 8001874:	f505 6580 	add.w	r5, r5, #1024	; 0x400
 8001878:	42a8      	cmp	r0, r5
 800187a:	d114      	bne.n	80018a6 <TIM_OC3_SetConfig+0x5a>
 800187c:	68cd      	ldr	r5, [r1, #12]
 800187e:	f423 6300 	bic.w	r3, r3, #2048	; 0x800
 8001882:	ea43 2305 	orr.w	r3, r3, r5, lsl #8
 8001886:	4d0b      	ldr	r5, [pc, #44]	; (80018b4 <TIM_OC3_SetConfig+0x68>)
 8001888:	42a8      	cmp	r0, r5
 800188a:	f423 6380 	bic.w	r3, r3, #1024	; 0x400
 800188e:	d003      	beq.n	8001898 <TIM_OC3_SetConfig+0x4c>
 8001890:	f505 6580 	add.w	r5, r5, #1024	; 0x400
 8001894:	42a8      	cmp	r0, r5
 8001896:	d106      	bne.n	80018a6 <TIM_OC3_SetConfig+0x5a>
 8001898:	e9d1 5605 	ldrd	r5, r6, [r1, #20]
 800189c:	f424 5440 	bic.w	r4, r4, #12288	; 0x3000
 80018a0:	4335      	orrs	r5, r6
 80018a2:	ea44 1405 	orr.w	r4, r4, r5, lsl #4
 80018a6:	6044      	str	r4, [r0, #4]
 80018a8:	61c2      	str	r2, [r0, #28]
 80018aa:	684a      	ldr	r2, [r1, #4]
 80018ac:	63c2      	str	r2, [r0, #60]	; 0x3c
 80018ae:	6203      	str	r3, [r0, #32]
 80018b0:	bd70      	pop	{r4, r5, r6, pc}
 80018b2:	bf00      	nop
 80018b4:	40010000 	.word	0x40010000

080018b8 <TIM_OC4_SetConfig>:
 80018b8:	6a03      	ldr	r3, [r0, #32]
 80018ba:	f423 5380 	bic.w	r3, r3, #4096	; 0x1000
 80018be:	6203      	str	r3, [r0, #32]
 80018c0:	6a03      	ldr	r3, [r0, #32]
 80018c2:	b530      	push	{r4, r5, lr}
 80018c4:	6844      	ldr	r4, [r0, #4]
 80018c6:	69c2      	ldr	r2, [r0, #28]
 80018c8:	680d      	ldr	r5, [r1, #0]
 80018ca:	f422 42e6 	bic.w	r2, r2, #29440	; 0x7300
 80018ce:	ea42 2205 	orr.w	r2, r2, r5, lsl #8
 80018d2:	688d      	ldr	r5, [r1, #8]
 80018d4:	f423 5300 	bic.w	r3, r3, #8192	; 0x2000
 80018d8:	ea43 3305 	orr.w	r3, r3, r5, lsl #12
 80018dc:	4d08      	ldr	r5, [pc, #32]	; (8001900 <TIM_OC4_SetConfig+0x48>)
 80018de:	42a8      	cmp	r0, r5
 80018e0:	d003      	beq.n	80018ea <TIM_OC4_SetConfig+0x32>
 80018e2:	f505 6580 	add.w	r5, r5, #1024	; 0x400
 80018e6:	42a8      	cmp	r0, r5
 80018e8:	d104      	bne.n	80018f4 <TIM_OC4_SetConfig+0x3c>
 80018ea:	694d      	ldr	r5, [r1, #20]
 80018ec:	f424 4480 	bic.w	r4, r4, #16384	; 0x4000
 80018f0:	ea44 1485 	orr.w	r4, r4, r5, lsl #6
 80018f4:	6044      	str	r4, [r0, #4]
 80018f6:	61c2      	str	r2, [r0, #28]
 80018f8:	684a      	ldr	r2, [r1, #4]
 80018fa:	6402      	str	r2, [r0, #64]	; 0x40
 80018fc:	6203      	str	r3, [r0, #32]
 80018fe:	bd30      	pop	{r4, r5, pc}
 8001900:	40010000 	.word	0x40010000

08001904 <HAL_TIM_Base_Start>:
 8001904:	f890 303d 	ldrb.w	r3, [r0, #61]	; 0x3d
 8001908:	2b01      	cmp	r3, #1
 800190a:	d12c      	bne.n	8001966 <HAL_TIM_Base_Start+0x62>
 800190c:	2302      	movs	r3, #2
 800190e:	4a17      	ldr	r2, [pc, #92]	; (800196c <HAL_TIM_Base_Start+0x68>)
 8001910:	f880 303d 	strb.w	r3, [r0, #61]	; 0x3d
 8001914:	6803      	ldr	r3, [r0, #0]
 8001916:	4293      	cmp	r3, r2
 8001918:	d01a      	beq.n	8001950 <HAL_TIM_Base_Start+0x4c>
 800191a:	f1b3 4f80 	cmp.w	r3, #1073741824	; 0x40000000
 800191e:	d017      	beq.n	8001950 <HAL_TIM_Base_Start+0x4c>
 8001920:	f5a2 427c 	sub.w	r2, r2, #64512	; 0xfc00
 8001924:	4293      	cmp	r3, r2
 8001926:	d013      	beq.n	8001950 <HAL_TIM_Base_Start+0x4c>
 8001928:	f502 6280 	add.w	r2, r2, #1024	; 0x400
 800192c:	4293      	cmp	r3, r2
 800192e:	d00f      	beq.n	8001950 <HAL_TIM_Base_Start+0x4c>
 8001930:	f502 6280 	add.w	r2, r2, #1024	; 0x400
 8001934:	4293      	cmp	r3, r2
 8001936:	d00b      	beq.n	8001950 <HAL_TIM_Base_Start+0x4c>
 8001938:	f502 4278 	add.w	r2, r2, #63488	; 0xf800
 800193c:	4293      	cmp	r3, r2
 800193e:	d007      	beq.n	8001950 <HAL_TIM_Base_Start+0x4c>
 8001940:	f502 5270 	add.w	r2, r2, #15360	; 0x3c00
 8001944:	4293      	cmp	r3, r2
 8001946:	d003      	beq.n	8001950 <HAL_TIM_Base_Start+0x4c>
 8001948:	f5a2 3294 	sub.w	r2, r2, #75776	; 0x12800
 800194c:	4293      	cmp	r3, r2
 800194e:	d104      	bne.n	800195a <HAL_TIM_Base_Start+0x56>
 8001950:	689a      	ldr	r2, [r3, #8]
 8001952:	f002 0207 	and.w	r2, r2, #7
 8001956:	2a06      	cmp	r2, #6
 8001958:	d003      	beq.n	8001962 <HAL_TIM_Base_Start+0x5e>
 800195a:	681a      	ldr	r2, [r3, #0]
 800195c:	f042 0201 	orr.w	r2, r2, #1
 8001960:	601a      	str	r2, [r3, #0]
 8001962:	2000      	movs	r0, #0
 8001964:	4770      	bx	lr
 8001966:	2001      	movs	r0, #1
 8001968:	4770      	bx	lr
 800196a:	bf00      	nop
 800196c:	40010000 	.word	0x40010000

08001970 <HAL_TIM_PeriodElapsedCallback>:
 8001970:	4770      	bx	lr

08001972 <HAL_TIM_OC_DelayElapsedCallback>:
 8001972:	4770      	bx	lr

08001974 <HAL_TIM_IC_CaptureCallback>:
 8001974:	4770      	bx	lr

08001976 <HAL_TIM_PWM_PulseFinishedCallback>:
 8001976:	4770      	bx	lr

08001978 <HAL_TIM_TriggerCallback>:
 8001978:	4770      	bx	lr

0800197a <HAL_TIM_IRQHandler>:
 800197a:	6803      	ldr	r3, [r0, #0]
 800197c:	691a      	ldr	r2, [r3, #16]
 800197e:	0791      	lsls	r1, r2, #30
 8001980:	b510      	push	{r4, lr}
 8001982:	4604      	mov	r4, r0
 8001984:	d50e      	bpl.n	80019a4 <HAL_TIM_IRQHandler+0x2a>
 8001986:	68da      	ldr	r2, [r3, #12]
 8001988:	0792      	lsls	r2, r2, #30
 800198a:	d50b      	bpl.n	80019a4 <HAL_TIM_IRQHandler+0x2a>
 800198c:	f06f 0202 	mvn.w	r2, #2
 8001990:	611a      	str	r2, [r3, #16]
 8001992:	2201      	movs	r2, #1
 8001994:	7702      	strb	r2, [r0, #28]
 8001996:	699b      	ldr	r3, [r3, #24]
 8001998:	079b      	lsls	r3, r3, #30
 800199a:	d077      	beq.n	8001a8c <HAL_TIM_IRQHandler+0x112>
 800199c:	f7ff ffea 	bl	8001974 <HAL_TIM_IC_CaptureCallback>
 80019a0:	2300      	movs	r3, #0
 80019a2:	7723      	strb	r3, [r4, #28]
 80019a4:	6823      	ldr	r3, [r4, #0]
 80019a6:	691a      	ldr	r2, [r3, #16]
 80019a8:	0750      	lsls	r0, r2, #29
 80019aa:	d510      	bpl.n	80019ce <HAL_TIM_IRQHandler+0x54>
 80019ac:	68da      	ldr	r2, [r3, #12]
 80019ae:	0751      	lsls	r1, r2, #29
 80019b0:	d50d      	bpl.n	80019ce <HAL_TIM_IRQHandler+0x54>
 80019b2:	f06f 0204 	mvn.w	r2, #4
 80019b6:	611a      	str	r2, [r3, #16]
 80019b8:	2202      	movs	r2, #2
 80019ba:	7722      	strb	r2, [r4, #28]
 80019bc:	699b      	ldr	r3, [r3, #24]
 80019be:	f413 7f40 	tst.w	r3, #768	; 0x300
 80019c2:	4620      	mov	r0, r4
 80019c4:	d068      	beq.n	8001a98 <HAL_TIM_IRQHandler+0x11e>
 80019c6:	f7ff ffd5 	bl	8001974 <HAL_TIM_IC_CaptureCallback>
 80019ca:	2300      	movs	r3, #0
 80019cc:	7723      	strb	r3, [r4, #28]
 80019ce:	6823      	ldr	r3, [r4, #0]
 80019d0:	691a      	ldr	r2, [r3, #16]
 80019d2:	0712      	lsls	r2, r2, #28
 80019d4:	d50f      	bpl.n	80019f6 <HAL_TIM_IRQHandler+0x7c>
 80019d6:	68da      	ldr	r2, [r3, #12]
 80019d8:	0710      	lsls	r0, r2, #28
 80019da:	d50c      	bpl.n	80019f6 <HAL_TIM_IRQHandler+0x7c>
 80019dc:	f06f 0208 	mvn.w	r2, #8
 80019e0:	611a      	str	r2, [r3, #16]
 80019e2:	2204      	movs	r2, #4
 80019e4:	7722      	strb	r2, [r4, #28]
 80019e6:	69db      	ldr	r3, [r3, #28]
 80019e8:	0799      	lsls	r1, r3, #30
 80019ea:	4620      	mov	r0, r4
 80019ec:	d05a      	beq.n	8001aa4 <HAL_TIM_IRQHandler+0x12a>
 80019ee:	f7ff ffc1 	bl	8001974 <HAL_TIM_IC_CaptureCallback>
 80019f2:	2300      	movs	r3, #0
 80019f4:	7723      	strb	r3, [r4, #28]
 80019f6:	6823      	ldr	r3, [r4, #0]
 80019f8:	691a      	ldr	r2, [r3, #16]
 80019fa:	06d2      	lsls	r2, r2, #27
 80019fc:	d510      	bpl.n	8001a20 <HAL_TIM_IRQHandler+0xa6>
 80019fe:	68da      	ldr	r2, [r3, #12]
 8001a00:	06d0      	lsls	r0, r2, #27
 8001a02:	d50d      	bpl.n	8001a20 <HAL_TIM_IRQHandler+0xa6>
 8001a04:	f06f 0210 	mvn.w	r2, #16
 8001a08:	611a      	str	r2, [r3, #16]
 8001a0a:	2208      	movs	r2, #8
 8001a0c:	7722      	strb	r2, [r4, #28]
 8001a0e:	69db      	ldr	r3, [r3, #28]
 8001a10:	f413 7f40 	tst.w	r3, #768	; 0x300
 8001a14:	4620      	mov	r0, r4
 8001a16:	d04b      	beq.n	8001ab0 <HAL_TIM_IRQHandler+0x136>
 8001a18:	f7ff ffac 	bl	8001974 <HAL_TIM_IC_CaptureCallback>
 8001a1c:	2300      	movs	r3, #0
 8001a1e:	7723      	strb	r3, [r4, #28]
 8001a20:	6823      	ldr	r3, [r4, #0]
 8001a22:	691a      	ldr	r2, [r3, #16]
 8001a24:	07d1      	lsls	r1, r2, #31
 8001a26:	d508      	bpl.n	8001a3a <HAL_TIM_IRQHandler+0xc0>
 8001a28:	68da      	ldr	r2, [r3, #12]
 8001a2a:	07d2      	lsls	r2, r2, #31
 8001a2c:	d505      	bpl.n	8001a3a <HAL_TIM_IRQHandler+0xc0>
 8001a2e:	f06f 0201 	mvn.w	r2, #1
 8001a32:	611a      	str	r2, [r3, #16]
 8001a34:	4620      	mov	r0, r4
 8001a36:	f7ff ff9b 	bl	8001970 <HAL_TIM_PeriodElapsedCallback>
 8001a3a:	6823      	ldr	r3, [r4, #0]
 8001a3c:	691a      	ldr	r2, [r3, #16]
 8001a3e:	0610      	lsls	r0, r2, #24
 8001a40:	d508      	bpl.n	8001a54 <HAL_TIM_IRQHandler+0xda>
 8001a42:	68da      	ldr	r2, [r3, #12]
 8001a44:	0611      	lsls	r1, r2, #24
 8001a46:	d505      	bpl.n	8001a54 <HAL_TIM_IRQHandler+0xda>
 8001a48:	f06f 0280 	mvn.w	r2, #128	; 0x80
 8001a4c:	611a      	str	r2, [r3, #16]
 8001a4e:	4620      	mov	r0, r4
 8001a50:	f000 fb55 	bl	80020fe <HAL_TIMEx_BreakCallback>
 8001a54:	6823      	ldr	r3, [r4, #0]
 8001a56:	691a      	ldr	r2, [r3, #16]
 8001a58:	0652      	lsls	r2, r2, #25
 8001a5a:	d508      	bpl.n	8001a6e <HAL_TIM_IRQHandler+0xf4>
 8001a5c:	68da      	ldr	r2, [r3, #12]
 8001a5e:	0650      	lsls	r0, r2, #25
 8001a60:	d505      	bpl.n	8001a6e <HAL_TIM_IRQHandler+0xf4>
 8001a62:	f06f 0240 	mvn.w	r2, #64	; 0x40
 8001a66:	611a      	str	r2, [r3, #16]
 8001a68:	4620      	mov	r0, r4
 8001a6a:	f7ff ff85 	bl	8001978 <HAL_TIM_TriggerCallback>
 8001a6e:	6823      	ldr	r3, [r4, #0]
 8001a70:	691a      	ldr	r2, [r3, #16]
 8001a72:	0691      	lsls	r1, r2, #26
 8001a74:	d522      	bpl.n	8001abc <HAL_TIM_IRQHandler+0x142>
 8001a76:	68da      	ldr	r2, [r3, #12]
 8001a78:	0692      	lsls	r2, r2, #26
 8001a7a:	d51f      	bpl.n	8001abc <HAL_TIM_IRQHandler+0x142>
 8001a7c:	f06f 0220 	mvn.w	r2, #32
 8001a80:	4620      	mov	r0, r4
 8001a82:	611a      	str	r2, [r3, #16]
 8001a84:	e8bd 4010 	ldmia.w	sp!, {r4, lr}
 8001a88:	f000 bb38 	b.w	80020fc <HAL_TIMEx_CommutCallback>
 8001a8c:	f7ff ff71 	bl	8001972 <HAL_TIM_OC_DelayElapsedCallback>
 8001a90:	4620      	mov	r0, r4
 8001a92:	f7ff ff70 	bl	8001976 <HAL_TIM_PWM_PulseFinishedCallback>
 8001a96:	e783      	b.n	80019a0 <HAL_TIM_IRQHandler+0x26>
 8001a98:	f7ff ff6b 	bl	8001972 <HAL_TIM_OC_DelayElapsedCallback>
 8001a9c:	4620      	mov	r0, r4
 8001a9e:	f7ff ff6a 	bl	8001976 <HAL_TIM_PWM_PulseFinishedCallback>
 8001aa2:	e792      	b.n	80019ca <HAL_TIM_IRQHandler+0x50>
 8001aa4:	f7ff ff65 	bl	8001972 <HAL_TIM_OC_DelayElapsedCallback>
 8001aa8:	4620      	mov	r0, r4
 8001aaa:	f7ff ff64 	bl	8001976 <HAL_TIM_PWM_PulseFinishedCallback>
 8001aae:	e7a0      	b.n	80019f2 <HAL_TIM_IRQHandler+0x78>
 8001ab0:	f7ff ff5f 	bl	8001972 <HAL_TIM_OC_DelayElapsedCallback>
 8001ab4:	4620      	mov	r0, r4
 8001ab6:	f7ff ff5e 	bl	8001976 <HAL_TIM_PWM_PulseFinishedCallback>
 8001aba:	e7af      	b.n	8001a1c <HAL_TIM_IRQHandler+0xa2>
 8001abc:	bd10      	pop	{r4, pc}
	...

08001ac0 <TIM_Base_SetConfig>:
 8001ac0:	4a30      	ldr	r2, [pc, #192]	; (8001b84 <TIM_Base_SetConfig+0xc4>)
 8001ac2:	6803      	ldr	r3, [r0, #0]
 8001ac4:	4290      	cmp	r0, r2
 8001ac6:	d012      	beq.n	8001aee <TIM_Base_SetConfig+0x2e>
 8001ac8:	f1b0 4f80 	cmp.w	r0, #1073741824	; 0x40000000
 8001acc:	d00f      	beq.n	8001aee <TIM_Base_SetConfig+0x2e>
 8001ace:	f5a2 427c 	sub.w	r2, r2, #64512	; 0xfc00
 8001ad2:	4290      	cmp	r0, r2
 8001ad4:	d00b      	beq.n	8001aee <TIM_Base_SetConfig+0x2e>
 8001ad6:	f502 6280 	add.w	r2, r2, #1024	; 0x400
 8001ada:	4290      	cmp	r0, r2
 8001adc:	d007      	beq.n	8001aee <TIM_Base_SetConfig+0x2e>
 8001ade:	f502 6280 	add.w	r2, r2, #1024	; 0x400
 8001ae2:	4290      	cmp	r0, r2
 8001ae4:	d003      	beq.n	8001aee <TIM_Base_SetConfig+0x2e>
 8001ae6:	f502 4278 	add.w	r2, r2, #63488	; 0xf800
 8001aea:	4290      	cmp	r0, r2
 8001aec:	d119      	bne.n	8001b22 <TIM_Base_SetConfig+0x62>
 8001aee:	684a      	ldr	r2, [r1, #4]
 8001af0:	f023 0370 	bic.w	r3, r3, #112	; 0x70
 8001af4:	4313      	orrs	r3, r2
 8001af6:	4a23      	ldr	r2, [pc, #140]	; (8001b84 <TIM_Base_SetConfig+0xc4>)
 8001af8:	4290      	cmp	r0, r2
 8001afa:	d029      	beq.n	8001b50 <TIM_Base_SetConfig+0x90>
 8001afc:	f1b0 4f80 	cmp.w	r0, #1073741824	; 0x40000000
 8001b00:	d026      	beq.n	8001b50 <TIM_Base_SetConfig+0x90>
 8001b02:	f5a2 427c 	sub.w	r2, r2, #64512	; 0xfc00
 8001b06:	4290      	cmp	r0, r2
 8001b08:	d022      	beq.n	8001b50 <TIM_Base_SetConfig+0x90>
 8001b0a:	f502 6280 	add.w	r2, r2, #1024	; 0x400
 8001b0e:	4290      	cmp	r0, r2
 8001b10:	d01e      	beq.n	8001b50 <TIM_Base_SetConfig+0x90>
 8001b12:	f502 6280 	add.w	r2, r2, #1024	; 0x400
 8001b16:	4290      	cmp	r0, r2
 8001b18:	d01a      	beq.n	8001b50 <TIM_Base_SetConfig+0x90>
 8001b1a:	f502 4278 	add.w	r2, r2, #63488	; 0xf800
 8001b1e:	4290      	cmp	r0, r2
 8001b20:	d016      	beq.n	8001b50 <TIM_Base_SetConfig+0x90>
 8001b22:	4a19      	ldr	r2, [pc, #100]	; (8001b88 <TIM_Base_SetConfig+0xc8>)
 8001b24:	4290      	cmp	r0, r2
 8001b26:	d013      	beq.n	8001b50 <TIM_Base_SetConfig+0x90>
 8001b28:	f502 6280 	add.w	r2, r2, #1024	; 0x400
 8001b2c:	4290      	cmp	r0, r2
 8001b2e:	d00f      	beq.n	8001b50 <TIM_Base_SetConfig+0x90>
 8001b30:	f502 6280 	add.w	r2, r2, #1024	; 0x400
 8001b34:	4290      	cmp	r0, r2
 8001b36:	d00b      	beq.n	8001b50 <TIM_Base_SetConfig+0x90>
 8001b38:	f5a2 3298 	sub.w	r2, r2, #77824	; 0x13000
 8001b3c:	4290      	cmp	r0, r2
 8001b3e:	d007      	beq.n	8001b50 <TIM_Base_SetConfig+0x90>
 8001b40:	f502 6280 	add.w	r2, r2, #1024	; 0x400
 8001b44:	4290      	cmp	r0, r2
 8001b46:	d003      	beq.n	8001b50 <TIM_Base_SetConfig+0x90>
 8001b48:	f502 6280 	add.w	r2, r2, #1024	; 0x400
 8001b4c:	4290      	cmp	r0, r2
 8001b4e:	d103      	bne.n	8001b58 <TIM_Base_SetConfig+0x98>
 8001b50:	68ca      	ldr	r2, [r1, #12]
 8001b52:	f423 7340 	bic.w	r3, r3, #768	; 0x300
 8001b56:	4313      	orrs	r3, r2
 8001b58:	694a      	ldr	r2, [r1, #20]
 8001b5a:	f023 0380 	bic.w	r3, r3, #128	; 0x80
 8001b5e:	4313      	orrs	r3, r2
 8001b60:	6003      	str	r3, [r0, #0]
 8001b62:	688b      	ldr	r3, [r1, #8]
 8001b64:	62c3      	str	r3, [r0, #44]	; 0x2c
 8001b66:	680b      	ldr	r3, [r1, #0]
 8001b68:	6283      	str	r3, [r0, #40]	; 0x28
 8001b6a:	4b06      	ldr	r3, [pc, #24]	; (8001b84 <TIM_Base_SetConfig+0xc4>)
 8001b6c:	4298      	cmp	r0, r3
 8001b6e:	d003      	beq.n	8001b78 <TIM_Base_SetConfig+0xb8>
 8001b70:	f503 6380 	add.w	r3, r3, #1024	; 0x400
 8001b74:	4298      	cmp	r0, r3
 8001b76:	d101      	bne.n	8001b7c <TIM_Base_SetConfig+0xbc>
 8001b78:	690b      	ldr	r3, [r1, #16]
 8001b7a:	6303      	str	r3, [r0, #48]	; 0x30
 8001b7c:	2301      	movs	r3, #1
 8001b7e:	6143      	str	r3, [r0, #20]
 8001b80:	4770      	bx	lr
 8001b82:	bf00      	nop
 8001b84:	40010000 	.word	0x40010000
 8001b88:	40014000 	.word	0x40014000

08001b8c <HAL_TIM_Base_Init>:
 8001b8c:	b510      	push	{r4, lr}
 8001b8e:	4604      	mov	r4, r0
 8001b90:	b330      	cbz	r0, 8001be0 <HAL_TIM_Base_Init+0x54>
 8001b92:	f890 303d 	ldrb.w	r3, [r0, #61]	; 0x3d
 8001b96:	f003 02ff 	and.w	r2, r3, #255	; 0xff
 8001b9a:	b91b      	cbnz	r3, 8001ba4 <HAL_TIM_Base_Init+0x18>
 8001b9c:	f880 203c 	strb.w	r2, [r0, #60]	; 0x3c
 8001ba0:	f7fe ff02 	bl	80009a8 <HAL_TIM_Base_MspInit>
 8001ba4:	2302      	movs	r3, #2
 8001ba6:	6820      	ldr	r0, [r4, #0]
 8001ba8:	f884 303d 	strb.w	r3, [r4, #61]	; 0x3d
 8001bac:	1d21      	adds	r1, r4, #4
 8001bae:	f7ff ff87 	bl	8001ac0 <TIM_Base_SetConfig>
 8001bb2:	2301      	movs	r3, #1
 8001bb4:	f884 3046 	strb.w	r3, [r4, #70]	; 0x46
 8001bb8:	2000      	movs	r0, #0
 8001bba:	f884 303e 	strb.w	r3, [r4, #62]	; 0x3e
 8001bbe:	f884 303f 	strb.w	r3, [r4, #63]	; 0x3f
 8001bc2:	f884 3040 	strb.w	r3, [r4, #64]	; 0x40
 8001bc6:	f884 3041 	strb.w	r3, [r4, #65]	; 0x41
 8001bca:	f884 3042 	strb.w	r3, [r4, #66]	; 0x42
 8001bce:	f884 3043 	strb.w	r3, [r4, #67]	; 0x43
 8001bd2:	f884 3044 	strb.w	r3, [r4, #68]	; 0x44
 8001bd6:	f884 3045 	strb.w	r3, [r4, #69]	; 0x45
 8001bda:	f884 303d 	strb.w	r3, [r4, #61]	; 0x3d
 8001bde:	bd10      	pop	{r4, pc}
 8001be0:	2001      	movs	r0, #1
 8001be2:	e7fc      	b.n	8001bde <HAL_TIM_Base_Init+0x52>

08001be4 <HAL_TIM_PWM_Init>:
 8001be4:	b510      	push	{r4, lr}
 8001be6:	4604      	mov	r4, r0
 8001be8:	b330      	cbz	r0, 8001c38 <HAL_TIM_PWM_Init+0x54>
 8001bea:	f890 303d 	ldrb.w	r3, [r0, #61]	; 0x3d
 8001bee:	f003 02ff 	and.w	r2, r3, #255	; 0xff
 8001bf2:	b91b      	cbnz	r3, 8001bfc <HAL_TIM_PWM_Init+0x18>
 8001bf4:	f880 203c 	strb.w	r2, [r0, #60]	; 0x3c
 8001bf8:	f7fe ff0e 	bl	8000a18 <HAL_TIM_PWM_MspInit>
 8001bfc:	2302      	movs	r3, #2
 8001bfe:	6820      	ldr	r0, [r4, #0]
 8001c00:	f884 303d 	strb.w	r3, [r4, #61]	; 0x3d
 8001c04:	1d21      	adds	r1, r4, #4
 8001c06:	f7ff ff5b 	bl	8001ac0 <TIM_Base_SetConfig>
 8001c0a:	2301      	movs	r3, #1
 8001c0c:	f884 3046 	strb.w	r3, [r4, #70]	; 0x46
 8001c10:	2000      	movs	r0, #0
 8001c12:	f884 303e 	strb.w	r3, [r4, #62]	; 0x3e
 8001c16:	f884 303f 	strb.w	r3, [r4, #63]	; 0x3f
 8001c1a:	f884 3040 	strb.w	r3, [r4, #64]	; 0x40
 8001c1e:	f884 3041 	strb.w	r3, [r4, #65]	; 0x41
 8001c22:	f884 3042 	strb.w	r3, [r4, #66]	; 0x42
 8001c26:	f884 3043 	strb.w	r3, [r4, #67]	; 0x43
 8001c2a:	f884 3044 	strb.w	r3, [r4, #68]	; 0x44
 8001c2e:	f884 3045 	strb.w	r3, [r4, #69]	; 0x45
 8001c32:	f884 303d 	strb.w	r3, [r4, #61]	; 0x3d
 8001c36:	bd10      	pop	{r4, pc}
 8001c38:	2001      	movs	r0, #1
 8001c3a:	e7fc      	b.n	8001c36 <HAL_TIM_PWM_Init+0x52>

08001c3c <TIM_OC2_SetConfig>:
 8001c3c:	6a03      	ldr	r3, [r0, #32]
 8001c3e:	f023 0310 	bic.w	r3, r3, #16
 8001c42:	6203      	str	r3, [r0, #32]
 8001c44:	6a03      	ldr	r3, [r0, #32]
 8001c46:	b570      	push	{r4, r5, r6, lr}
 8001c48:	6844      	ldr	r4, [r0, #4]
 8001c4a:	6982      	ldr	r2, [r0, #24]
 8001c4c:	680d      	ldr	r5, [r1, #0]
 8001c4e:	f422 42e6 	bic.w	r2, r2, #29440	; 0x7300
 8001c52:	ea42 2205 	orr.w	r2, r2, r5, lsl #8
 8001c56:	688d      	ldr	r5, [r1, #8]
 8001c58:	f023 0320 	bic.w	r3, r3, #32
 8001c5c:	ea43 1305 	orr.w	r3, r3, r5, lsl #4
 8001c60:	4d10      	ldr	r5, [pc, #64]	; (8001ca4 <TIM_OC2_SetConfig+0x68>)
 8001c62:	42a8      	cmp	r0, r5
 8001c64:	d003      	beq.n	8001c6e <TIM_OC2_SetConfig+0x32>
 8001c66:	f505 6580 	add.w	r5, r5, #1024	; 0x400
 8001c6a:	42a8      	cmp	r0, r5
 8001c6c:	d114      	bne.n	8001c98 <TIM_OC2_SetConfig+0x5c>
 8001c6e:	68cd      	ldr	r5, [r1, #12]
 8001c70:	f023 0380 	bic.w	r3, r3, #128	; 0x80
 8001c74:	ea43 1305 	orr.w	r3, r3, r5, lsl #4
 8001c78:	4d0a      	ldr	r5, [pc, #40]	; (8001ca4 <TIM_OC2_SetConfig+0x68>)
 8001c7a:	42a8      	cmp	r0, r5
 8001c7c:	f023 0340 	bic.w	r3, r3, #64	; 0x40
 8001c80:	d003      	beq.n	8001c8a <TIM_OC2_SetConfig+0x4e>
 8001c82:	f505 6580 	add.w	r5, r5, #1024	; 0x400
 8001c86:	42a8      	cmp	r0, r5
 8001c88:	d106      	bne.n	8001c98 <TIM_OC2_SetConfig+0x5c>
 8001c8a:	e9d1 5605 	ldrd	r5, r6, [r1, #20]
 8001c8e:	f424 6440 	bic.w	r4, r4, #3072	; 0xc00
 8001c92:	4335      	orrs	r5, r6
 8001c94:	ea44 0485 	orr.w	r4, r4, r5, lsl #2
 8001c98:	6044      	str	r4, [r0, #4]
 8001c9a:	6182      	str	r2, [r0, #24]
 8001c9c:	684a      	ldr	r2, [r1, #4]
 8001c9e:	6382      	str	r2, [r0, #56]	; 0x38
 8001ca0:	6203      	str	r3, [r0, #32]
 8001ca2:	bd70      	pop	{r4, r5, r6, pc}
 8001ca4:	40010000 	.word	0x40010000

08001ca8 <HAL_TIM_PWM_ConfigChannel>:
 8001ca8:	b538      	push	{r3, r4, r5, lr}
 8001caa:	f890 303c 	ldrb.w	r3, [r0, #60]	; 0x3c
 8001cae:	2b01      	cmp	r3, #1
 8001cb0:	4604      	mov	r4, r0
 8001cb2:	d052      	beq.n	8001d5a <HAL_TIM_PWM_ConfigChannel+0xb2>
 8001cb4:	2301      	movs	r3, #1
 8001cb6:	2a08      	cmp	r2, #8
 8001cb8:	f880 303c 	strb.w	r3, [r0, #60]	; 0x3c
 8001cbc:	d03c      	beq.n	8001d38 <HAL_TIM_PWM_ConfigChannel+0x90>
 8001cbe:	d806      	bhi.n	8001cce <HAL_TIM_PWM_ConfigChannel+0x26>
 8001cc0:	b1c2      	cbz	r2, 8001cf4 <HAL_TIM_PWM_ConfigChannel+0x4c>
 8001cc2:	2a04      	cmp	r2, #4
 8001cc4:	d027      	beq.n	8001d16 <HAL_TIM_PWM_ConfigChannel+0x6e>
 8001cc6:	2000      	movs	r0, #0
 8001cc8:	f884 003c 	strb.w	r0, [r4, #60]	; 0x3c
 8001ccc:	bd38      	pop	{r3, r4, r5, pc}
 8001cce:	2a0c      	cmp	r2, #12
 8001cd0:	d1f9      	bne.n	8001cc6 <HAL_TIM_PWM_ConfigChannel+0x1e>
 8001cd2:	6800      	ldr	r0, [r0, #0]
 8001cd4:	f7ff fdf0 	bl	80018b8 <TIM_OC4_SetConfig>
 8001cd8:	6823      	ldr	r3, [r4, #0]
 8001cda:	6909      	ldr	r1, [r1, #16]
 8001cdc:	69da      	ldr	r2, [r3, #28]
 8001cde:	f442 6200 	orr.w	r2, r2, #2048	; 0x800
 8001ce2:	61da      	str	r2, [r3, #28]
 8001ce4:	69da      	ldr	r2, [r3, #28]
 8001ce6:	f422 6280 	bic.w	r2, r2, #1024	; 0x400
 8001cea:	61da      	str	r2, [r3, #28]
 8001cec:	69da      	ldr	r2, [r3, #28]
 8001cee:	ea42 2201 	orr.w	r2, r2, r1, lsl #8
 8001cf2:	e030      	b.n	8001d56 <HAL_TIM_PWM_ConfigChannel+0xae>
 8001cf4:	6800      	ldr	r0, [r0, #0]
 8001cf6:	f7ff fd77 	bl	80017e8 <TIM_OC1_SetConfig>
 8001cfa:	6823      	ldr	r3, [r4, #0]
 8001cfc:	6909      	ldr	r1, [r1, #16]
 8001cfe:	699a      	ldr	r2, [r3, #24]
 8001d00:	f042 0208 	orr.w	r2, r2, #8
 8001d04:	619a      	str	r2, [r3, #24]
 8001d06:	699a      	ldr	r2, [r3, #24]
 8001d08:	f022 0204 	bic.w	r2, r2, #4
 8001d0c:	619a      	str	r2, [r3, #24]
 8001d0e:	699a      	ldr	r2, [r3, #24]
 8001d10:	430a      	orrs	r2, r1
 8001d12:	619a      	str	r2, [r3, #24]
 8001d14:	e7d7      	b.n	8001cc6 <HAL_TIM_PWM_ConfigChannel+0x1e>
 8001d16:	6800      	ldr	r0, [r0, #0]
 8001d18:	f7ff ff90 	bl	8001c3c <TIM_OC2_SetConfig>
 8001d1c:	6823      	ldr	r3, [r4, #0]
 8001d1e:	6909      	ldr	r1, [r1, #16]
 8001d20:	699a      	ldr	r2, [r3, #24]
 8001d22:	f442 6200 	orr.w	r2, r2, #2048	; 0x800
 8001d26:	619a      	str	r2, [r3, #24]
 8001d28:	699a      	ldr	r2, [r3, #24]
 8001d2a:	f422 6280 	bic.w	r2, r2, #1024	; 0x400
 8001d2e:	619a      	str	r2, [r3, #24]
 8001d30:	699a      	ldr	r2, [r3, #24]
 8001d32:	ea42 2201 	orr.w	r2, r2, r1, lsl #8
 8001d36:	e7ec      	b.n	8001d12 <HAL_TIM_PWM_ConfigChannel+0x6a>
 8001d38:	6800      	ldr	r0, [r0, #0]
 8001d3a:	f7ff fd87 	bl	800184c <TIM_OC3_SetConfig>
 8001d3e:	6823      	ldr	r3, [r4, #0]
 8001d40:	6909      	ldr	r1, [r1, #16]
 8001d42:	69da      	ldr	r2, [r3, #28]
 8001d44:	f042 0208 	orr.w	r2, r2, #8
 8001d48:	61da      	str	r2, [r3, #28]
 8001d4a:	69da      	ldr	r2, [r3, #28]
 8001d4c:	f022 0204 	bic.w	r2, r2, #4
 8001d50:	61da      	str	r2, [r3, #28]
 8001d52:	69da      	ldr	r2, [r3, #28]
 8001d54:	430a      	orrs	r2, r1
 8001d56:	61da      	str	r2, [r3, #28]
 8001d58:	e7b5      	b.n	8001cc6 <HAL_TIM_PWM_ConfigChannel+0x1e>
 8001d5a:	2002      	movs	r0, #2
 8001d5c:	e7b6      	b.n	8001ccc <HAL_TIM_PWM_ConfigChannel+0x24>

08001d5e <TIM_ETR_SetConfig>:
 8001d5e:	b510      	push	{r4, lr}
 8001d60:	6884      	ldr	r4, [r0, #8]
 8001d62:	4311      	orrs	r1, r2
 8001d64:	f424 447f 	bic.w	r4, r4, #65280	; 0xff00
 8001d68:	ea41 2303 	orr.w	r3, r1, r3, lsl #8
 8001d6c:	4323      	orrs	r3, r4
 8001d6e:	6083      	str	r3, [r0, #8]
 8001d70:	bd10      	pop	{r4, pc}

08001d72 <HAL_TIM_ConfigClockSource>:
 8001d72:	b570      	push	{r4, r5, r6, lr}
 8001d74:	f890 303c 	ldrb.w	r3, [r0, #60]	; 0x3c
 8001d78:	2b01      	cmp	r3, #1
 8001d7a:	4604      	mov	r4, r0
 8001d7c:	f04f 0002 	mov.w	r0, #2
 8001d80:	d027      	beq.n	8001dd2 <HAL_TIM_ConfigClockSource+0x60>
 8001d82:	f884 003d 	strb.w	r0, [r4, #61]	; 0x3d
 8001d86:	2301      	movs	r3, #1
 8001d88:	6820      	ldr	r0, [r4, #0]
 8001d8a:	f884 303c 	strb.w	r3, [r4, #60]	; 0x3c
 8001d8e:	6883      	ldr	r3, [r0, #8]
 8001d90:	f423 437f 	bic.w	r3, r3, #65280	; 0xff00
 8001d94:	f023 0377 	bic.w	r3, r3, #119	; 0x77
 8001d98:	6083      	str	r3, [r0, #8]
 8001d9a:	680b      	ldr	r3, [r1, #0]
 8001d9c:	2b60      	cmp	r3, #96	; 0x60
 8001d9e:	d04d      	beq.n	8001e3c <HAL_TIM_ConfigClockSource+0xca>
 8001da0:	d832      	bhi.n	8001e08 <HAL_TIM_ConfigClockSource+0x96>
 8001da2:	2b40      	cmp	r3, #64	; 0x40
 8001da4:	d062      	beq.n	8001e6c <HAL_TIM_ConfigClockSource+0xfa>
 8001da6:	d815      	bhi.n	8001dd4 <HAL_TIM_ConfigClockSource+0x62>
 8001da8:	2b20      	cmp	r3, #32
 8001daa:	d003      	beq.n	8001db4 <HAL_TIM_ConfigClockSource+0x42>
 8001dac:	d809      	bhi.n	8001dc2 <HAL_TIM_ConfigClockSource+0x50>
 8001dae:	f033 0210 	bics.w	r2, r3, #16
 8001db2:	d108      	bne.n	8001dc6 <HAL_TIM_ConfigClockSource+0x54>
 8001db4:	6882      	ldr	r2, [r0, #8]
 8001db6:	f022 0270 	bic.w	r2, r2, #112	; 0x70
 8001dba:	4313      	orrs	r3, r2
 8001dbc:	f043 0307 	orr.w	r3, r3, #7
 8001dc0:	e020      	b.n	8001e04 <HAL_TIM_ConfigClockSource+0x92>
 8001dc2:	2b30      	cmp	r3, #48	; 0x30
 8001dc4:	d0f6      	beq.n	8001db4 <HAL_TIM_ConfigClockSource+0x42>
 8001dc6:	2301      	movs	r3, #1
 8001dc8:	2000      	movs	r0, #0
 8001dca:	f884 303d 	strb.w	r3, [r4, #61]	; 0x3d
 8001dce:	f884 003c 	strb.w	r0, [r4, #60]	; 0x3c
 8001dd2:	bd70      	pop	{r4, r5, r6, pc}
 8001dd4:	2b50      	cmp	r3, #80	; 0x50
 8001dd6:	d1f6      	bne.n	8001dc6 <HAL_TIM_ConfigClockSource+0x54>
 8001dd8:	684a      	ldr	r2, [r1, #4]
 8001dda:	68ce      	ldr	r6, [r1, #12]
 8001ddc:	6a01      	ldr	r1, [r0, #32]
 8001dde:	6a05      	ldr	r5, [r0, #32]
 8001de0:	f025 0501 	bic.w	r5, r5, #1
 8001de4:	6205      	str	r5, [r0, #32]
 8001de6:	6983      	ldr	r3, [r0, #24]
 8001de8:	f021 010a 	bic.w	r1, r1, #10
 8001dec:	f023 03f0 	bic.w	r3, r3, #240	; 0xf0
 8001df0:	ea43 1306 	orr.w	r3, r3, r6, lsl #4
 8001df4:	430a      	orrs	r2, r1
 8001df6:	6183      	str	r3, [r0, #24]
 8001df8:	6202      	str	r2, [r0, #32]
 8001dfa:	6883      	ldr	r3, [r0, #8]
 8001dfc:	f023 0370 	bic.w	r3, r3, #112	; 0x70
 8001e00:	f043 0357 	orr.w	r3, r3, #87	; 0x57
 8001e04:	6083      	str	r3, [r0, #8]
 8001e06:	e7de      	b.n	8001dc6 <HAL_TIM_ConfigClockSource+0x54>
 8001e08:	2b70      	cmp	r3, #112	; 0x70
 8001e0a:	d00c      	beq.n	8001e26 <HAL_TIM_ConfigClockSource+0xb4>
 8001e0c:	f5b3 5f00 	cmp.w	r3, #8192	; 0x2000
 8001e10:	d1d9      	bne.n	8001dc6 <HAL_TIM_ConfigClockSource+0x54>
 8001e12:	68cb      	ldr	r3, [r1, #12]
 8001e14:	e9d1 2101 	ldrd	r2, r1, [r1, #4]
 8001e18:	f7ff ffa1 	bl	8001d5e <TIM_ETR_SetConfig>
 8001e1c:	6822      	ldr	r2, [r4, #0]
 8001e1e:	6893      	ldr	r3, [r2, #8]
 8001e20:	f443 4380 	orr.w	r3, r3, #16384	; 0x4000
 8001e24:	e008      	b.n	8001e38 <HAL_TIM_ConfigClockSource+0xc6>
 8001e26:	68cb      	ldr	r3, [r1, #12]
 8001e28:	e9d1 2101 	ldrd	r2, r1, [r1, #4]
 8001e2c:	f7ff ff97 	bl	8001d5e <TIM_ETR_SetConfig>
 8001e30:	6822      	ldr	r2, [r4, #0]
 8001e32:	6893      	ldr	r3, [r2, #8]
 8001e34:	f043 0377 	orr.w	r3, r3, #119	; 0x77
 8001e38:	6093      	str	r3, [r2, #8]
 8001e3a:	e7c4      	b.n	8001dc6 <HAL_TIM_ConfigClockSource+0x54>
 8001e3c:	684d      	ldr	r5, [r1, #4]
 8001e3e:	68ce      	ldr	r6, [r1, #12]
 8001e40:	6a01      	ldr	r1, [r0, #32]
 8001e42:	f021 0110 	bic.w	r1, r1, #16
 8001e46:	6201      	str	r1, [r0, #32]
 8001e48:	6982      	ldr	r2, [r0, #24]
 8001e4a:	6a03      	ldr	r3, [r0, #32]
 8001e4c:	f422 4270 	bic.w	r2, r2, #61440	; 0xf000
 8001e50:	f023 03a0 	bic.w	r3, r3, #160	; 0xa0
 8001e54:	ea43 1305 	orr.w	r3, r3, r5, lsl #4
 8001e58:	ea42 3206 	orr.w	r2, r2, r6, lsl #12
 8001e5c:	6182      	str	r2, [r0, #24]
 8001e5e:	6203      	str	r3, [r0, #32]
 8001e60:	6883      	ldr	r3, [r0, #8]
 8001e62:	f023 0370 	bic.w	r3, r3, #112	; 0x70
 8001e66:	f043 0367 	orr.w	r3, r3, #103	; 0x67
 8001e6a:	e7cb      	b.n	8001e04 <HAL_TIM_ConfigClockSource+0x92>
 8001e6c:	684a      	ldr	r2, [r1, #4]
 8001e6e:	68ce      	ldr	r6, [r1, #12]
 8001e70:	6a01      	ldr	r1, [r0, #32]
 8001e72:	6a05      	ldr	r5, [r0, #32]
 8001e74:	f025 0501 	bic.w	r5, r5, #1
 8001e78:	6205      	str	r5, [r0, #32]
 8001e7a:	6983      	ldr	r3, [r0, #24]
 8001e7c:	f021 010a 	bic.w	r1, r1, #10
 8001e80:	f023 03f0 	bic.w	r3, r3, #240	; 0xf0
 8001e84:	ea43 1306 	orr.w	r3, r3, r6, lsl #4
 8001e88:	430a      	orrs	r2, r1
 8001e8a:	6183      	str	r3, [r0, #24]
 8001e8c:	6202      	str	r2, [r0, #32]
 8001e8e:	6883      	ldr	r3, [r0, #8]
 8001e90:	f023 0370 	bic.w	r3, r3, #112	; 0x70
 8001e94:	f043 0347 	orr.w	r3, r3, #71	; 0x47
 8001e98:	e7b4      	b.n	8001e04 <HAL_TIM_ConfigClockSource+0x92>

08001e9a <TIM_CCxChannelCmd>:
 8001e9a:	6a03      	ldr	r3, [r0, #32]
 8001e9c:	f001 011f 	and.w	r1, r1, #31
 8001ea0:	b510      	push	{r4, lr}
 8001ea2:	2401      	movs	r4, #1
 8001ea4:	408c      	lsls	r4, r1
 8001ea6:	ea23 0304 	bic.w	r3, r3, r4
 8001eaa:	6203      	str	r3, [r0, #32]
 8001eac:	6a03      	ldr	r3, [r0, #32]
 8001eae:	408a      	lsls	r2, r1
 8001eb0:	431a      	orrs	r2, r3
 8001eb2:	6202      	str	r2, [r0, #32]
 8001eb4:	bd10      	pop	{r4, pc}
	...

08001eb8 <HAL_TIM_OC_Start>:
 8001eb8:	b510      	push	{r4, lr}
 8001eba:	4604      	mov	r4, r0
 8001ebc:	b929      	cbnz	r1, 8001eca <HAL_TIM_OC_Start+0x12>
 8001ebe:	f890 303e 	ldrb.w	r3, [r0, #62]	; 0x3e
 8001ec2:	2b01      	cmp	r3, #1
 8001ec4:	d01d      	beq.n	8001f02 <HAL_TIM_OC_Start+0x4a>
 8001ec6:	2001      	movs	r0, #1
 8001ec8:	e032      	b.n	8001f30 <HAL_TIM_OC_Start+0x78>
 8001eca:	2904      	cmp	r1, #4
 8001ecc:	d107      	bne.n	8001ede <HAL_TIM_OC_Start+0x26>
 8001ece:	f890 303f 	ldrb.w	r3, [r0, #63]	; 0x3f
 8001ed2:	2b01      	cmp	r3, #1
 8001ed4:	d1f7      	bne.n	8001ec6 <HAL_TIM_OC_Start+0xe>
 8001ed6:	2302      	movs	r3, #2
 8001ed8:	f880 303f 	strb.w	r3, [r0, #63]	; 0x3f
 8001edc:	e014      	b.n	8001f08 <HAL_TIM_OC_Start+0x50>
 8001ede:	2908      	cmp	r1, #8
 8001ee0:	d107      	bne.n	8001ef2 <HAL_TIM_OC_Start+0x3a>
 8001ee2:	f890 3040 	ldrb.w	r3, [r0, #64]	; 0x40
 8001ee6:	2b01      	cmp	r3, #1
 8001ee8:	d1ed      	bne.n	8001ec6 <HAL_TIM_OC_Start+0xe>
 8001eea:	2302      	movs	r3, #2
 8001eec:	f880 3040 	strb.w	r3, [r0, #64]	; 0x40
 8001ef0:	e00a      	b.n	8001f08 <HAL_TIM_OC_Start+0x50>
 8001ef2:	f890 3041 	ldrb.w	r3, [r0, #65]	; 0x41
 8001ef6:	2b01      	cmp	r3, #1
 8001ef8:	d1e5      	bne.n	8001ec6 <HAL_TIM_OC_Start+0xe>
 8001efa:	2302      	movs	r3, #2
 8001efc:	f880 3041 	strb.w	r3, [r0, #65]	; 0x41
 8001f00:	e002      	b.n	8001f08 <HAL_TIM_OC_Start+0x50>
 8001f02:	2302      	movs	r3, #2
 8001f04:	f880 303e 	strb.w	r3, [r0, #62]	; 0x3e
 8001f08:	2201      	movs	r2, #1
 8001f0a:	6820      	ldr	r0, [r4, #0]
 8001f0c:	f7ff ffc5 	bl	8001e9a <TIM_CCxChannelCmd>
 8001f10:	6823      	ldr	r3, [r4, #0]
 8001f12:	4a19      	ldr	r2, [pc, #100]	; (8001f78 <HAL_TIM_OC_Start+0xc0>)
 8001f14:	4293      	cmp	r3, r2
 8001f16:	d00c      	beq.n	8001f32 <HAL_TIM_OC_Start+0x7a>
 8001f18:	4918      	ldr	r1, [pc, #96]	; (8001f7c <HAL_TIM_OC_Start+0xc4>)
 8001f1a:	428b      	cmp	r3, r1
 8001f1c:	d009      	beq.n	8001f32 <HAL_TIM_OC_Start+0x7a>
 8001f1e:	f1b3 4f80 	cmp.w	r3, #1073741824	; 0x40000000
 8001f22:	d10d      	bne.n	8001f40 <HAL_TIM_OC_Start+0x88>
 8001f24:	689a      	ldr	r2, [r3, #8]
 8001f26:	f002 0207 	and.w	r2, r2, #7
 8001f2a:	2a06      	cmp	r2, #6
 8001f2c:	d11f      	bne.n	8001f6e <HAL_TIM_OC_Start+0xb6>
 8001f2e:	2000      	movs	r0, #0
 8001f30:	bd10      	pop	{r4, pc}
 8001f32:	6c59      	ldr	r1, [r3, #68]	; 0x44
 8001f34:	4293      	cmp	r3, r2
 8001f36:	f441 4100 	orr.w	r1, r1, #32768	; 0x8000
 8001f3a:	6459      	str	r1, [r3, #68]	; 0x44
 8001f3c:	d0f2      	beq.n	8001f24 <HAL_TIM_OC_Start+0x6c>
 8001f3e:	e7ee      	b.n	8001f1e <HAL_TIM_OC_Start+0x66>
 8001f40:	4a0f      	ldr	r2, [pc, #60]	; (8001f80 <HAL_TIM_OC_Start+0xc8>)
 8001f42:	4293      	cmp	r3, r2
 8001f44:	d0ee      	beq.n	8001f24 <HAL_TIM_OC_Start+0x6c>
 8001f46:	f502 6280 	add.w	r2, r2, #1024	; 0x400
 8001f4a:	4293      	cmp	r3, r2
 8001f4c:	d0ea      	beq.n	8001f24 <HAL_TIM_OC_Start+0x6c>
 8001f4e:	f502 6280 	add.w	r2, r2, #1024	; 0x400
 8001f52:	4293      	cmp	r3, r2
 8001f54:	d0e6      	beq.n	8001f24 <HAL_TIM_OC_Start+0x6c>
 8001f56:	f502 4278 	add.w	r2, r2, #63488	; 0xf800
 8001f5a:	4293      	cmp	r3, r2
 8001f5c:	d0e2      	beq.n	8001f24 <HAL_TIM_OC_Start+0x6c>
 8001f5e:	f502 5270 	add.w	r2, r2, #15360	; 0x3c00
 8001f62:	4293      	cmp	r3, r2
 8001f64:	d0de      	beq.n	8001f24 <HAL_TIM_OC_Start+0x6c>
 8001f66:	f5a2 3294 	sub.w	r2, r2, #75776	; 0x12800
 8001f6a:	4293      	cmp	r3, r2
 8001f6c:	d0da      	beq.n	8001f24 <HAL_TIM_OC_Start+0x6c>
 8001f6e:	681a      	ldr	r2, [r3, #0]
 8001f70:	f042 0201 	orr.w	r2, r2, #1
 8001f74:	601a      	str	r2, [r3, #0]
 8001f76:	e7da      	b.n	8001f2e <HAL_TIM_OC_Start+0x76>
 8001f78:	40010000 	.word	0x40010000
 8001f7c:	40010400 	.word	0x40010400
 8001f80:	40000400 	.word	0x40000400

08001f84 <HAL_TIM_PWM_Start>:
 8001f84:	f7ff bf98 	b.w	8001eb8 <HAL_TIM_OC_Start>

08001f88 <HAL_TIM_OC_Start_IT>:
 8001f88:	b510      	push	{r4, lr}
 8001f8a:	4604      	mov	r4, r0
 8001f8c:	b929      	cbnz	r1, 8001f9a <HAL_TIM_OC_Start_IT+0x12>
 8001f8e:	f890 303e 	ldrb.w	r3, [r0, #62]	; 0x3e
 8001f92:	2b01      	cmp	r3, #1
 8001f94:	d02b      	beq.n	8001fee <HAL_TIM_OC_Start_IT+0x66>
 8001f96:	2001      	movs	r0, #1
 8001f98:	e045      	b.n	8002026 <HAL_TIM_OC_Start_IT+0x9e>
 8001f9a:	2904      	cmp	r1, #4
 8001f9c:	d10b      	bne.n	8001fb6 <HAL_TIM_OC_Start_IT+0x2e>
 8001f9e:	f890 303f 	ldrb.w	r3, [r0, #63]	; 0x3f
 8001fa2:	2b01      	cmp	r3, #1
 8001fa4:	d1f7      	bne.n	8001f96 <HAL_TIM_OC_Start_IT+0xe>
 8001fa6:	2302      	movs	r3, #2
 8001fa8:	6802      	ldr	r2, [r0, #0]
 8001faa:	f880 303f 	strb.w	r3, [r0, #63]	; 0x3f
 8001fae:	68d3      	ldr	r3, [r2, #12]
 8001fb0:	f043 0304 	orr.w	r3, r3, #4
 8001fb4:	e022      	b.n	8001ffc <HAL_TIM_OC_Start_IT+0x74>
 8001fb6:	2908      	cmp	r1, #8
 8001fb8:	d10b      	bne.n	8001fd2 <HAL_TIM_OC_Start_IT+0x4a>
 8001fba:	f890 3040 	ldrb.w	r3, [r0, #64]	; 0x40
 8001fbe:	2b01      	cmp	r3, #1
 8001fc0:	d1e9      	bne.n	8001f96 <HAL_TIM_OC_Start_IT+0xe>
 8001fc2:	2302      	movs	r3, #2
 8001fc4:	6802      	ldr	r2, [r0, #0]
 8001fc6:	f880 3040 	strb.w	r3, [r0, #64]	; 0x40
 8001fca:	68d3      	ldr	r3, [r2, #12]
 8001fcc:	f043 0308 	orr.w	r3, r3, #8
 8001fd0:	e014      	b.n	8001ffc <HAL_TIM_OC_Start_IT+0x74>
 8001fd2:	f890 3041 	ldrb.w	r3, [r0, #65]	; 0x41
 8001fd6:	2b01      	cmp	r3, #1
 8001fd8:	d1dd      	bne.n	8001f96 <HAL_TIM_OC_Start_IT+0xe>
 8001fda:	2302      	movs	r3, #2
 8001fdc:	290c      	cmp	r1, #12
 8001fde:	f880 3041 	strb.w	r3, [r0, #65]	; 0x41
 8001fe2:	d10c      	bne.n	8001ffe <HAL_TIM_OC_Start_IT+0x76>
 8001fe4:	6802      	ldr	r2, [r0, #0]
 8001fe6:	68d3      	ldr	r3, [r2, #12]
 8001fe8:	f043 0310 	orr.w	r3, r3, #16
 8001fec:	e006      	b.n	8001ffc <HAL_TIM_OC_Start_IT+0x74>
 8001fee:	2302      	movs	r3, #2
 8001ff0:	6802      	ldr	r2, [r0, #0]
 8001ff2:	f880 303e 	strb.w	r3, [r0, #62]	; 0x3e
 8001ff6:	68d3      	ldr	r3, [r2, #12]
 8001ff8:	f043 0302 	orr.w	r3, r3, #2
 8001ffc:	60d3      	str	r3, [r2, #12]
 8001ffe:	2201      	movs	r2, #1
 8002000:	6820      	ldr	r0, [r4, #0]
 8002002:	f7ff ff4a 	bl	8001e9a <TIM_CCxChannelCmd>
 8002006:	6823      	ldr	r3, [r4, #0]
 8002008:	4a19      	ldr	r2, [pc, #100]	; (8002070 <HAL_TIM_OC_Start_IT+0xe8>)
 800200a:	4293      	cmp	r3, r2
 800200c:	d00c      	beq.n	8002028 <HAL_TIM_OC_Start_IT+0xa0>
 800200e:	4919      	ldr	r1, [pc, #100]	; (8002074 <HAL_TIM_OC_Start_IT+0xec>)
 8002010:	428b      	cmp	r3, r1
 8002012:	d009      	beq.n	8002028 <HAL_TIM_OC_Start_IT+0xa0>
 8002014:	f1b3 4f80 	cmp.w	r3, #1073741824	; 0x40000000
 8002018:	d10d      	bne.n	8002036 <HAL_TIM_OC_Start_IT+0xae>
 800201a:	689a      	ldr	r2, [r3, #8]
 800201c:	f002 0207 	and.w	r2, r2, #7
 8002020:	2a06      	cmp	r2, #6
 8002022:	d11f      	bne.n	8002064 <HAL_TIM_OC_Start_IT+0xdc>
 8002024:	2000      	movs	r0, #0
 8002026:	bd10      	pop	{r4, pc}
 8002028:	6c59      	ldr	r1, [r3, #68]	; 0x44
 800202a:	4293      	cmp	r3, r2
 800202c:	f441 4100 	orr.w	r1, r1, #32768	; 0x8000
 8002030:	6459      	str	r1, [r3, #68]	; 0x44
 8002032:	d0f2      	beq.n	800201a <HAL_TIM_OC_Start_IT+0x92>
 8002034:	e7ee      	b.n	8002014 <HAL_TIM_OC_Start_IT+0x8c>
 8002036:	4a10      	ldr	r2, [pc, #64]	; (8002078 <HAL_TIM_OC_Start_IT+0xf0>)
 8002038:	4293      	cmp	r3, r2
 800203a:	d0ee      	beq.n	800201a <HAL_TIM_OC_Start_IT+0x92>
 800203c:	f502 6280 	add.w	r2, r2, #1024	; 0x400
 8002040:	4293      	cmp	r3, r2
 8002042:	d0ea      	beq.n	800201a <HAL_TIM_OC_Start_IT+0x92>
 8002044:	f502 6280 	add.w	r2, r2, #1024	; 0x400
 8002048:	4293      	cmp	r3, r2
 800204a:	d0e6      	beq.n	800201a <HAL_TIM_OC_Start_IT+0x92>
 800204c:	f502 4278 	add.w	r2, r2, #63488	; 0xf800
 8002050:	4293      	cmp	r3, r2
 8002052:	d0e2      	beq.n	800201a <HAL_TIM_OC_Start_IT+0x92>
 8002054:	f502 5270 	add.w	r2, r2, #15360	; 0x3c00
 8002058:	4293      	cmp	r3, r2
 800205a:	d0de      	beq.n	800201a <HAL_TIM_OC_Start_IT+0x92>
 800205c:	f5a2 3294 	sub.w	r2, r2, #75776	; 0x12800
 8002060:	4293      	cmp	r3, r2
 8002062:	d0da      	beq.n	800201a <HAL_TIM_OC_Start_IT+0x92>
 8002064:	681a      	ldr	r2, [r3, #0]
 8002066:	f042 0201 	orr.w	r2, r2, #1
 800206a:	601a      	str	r2, [r3, #0]
 800206c:	e7da      	b.n	8002024 <HAL_TIM_OC_Start_IT+0x9c>
 800206e:	bf00      	nop
 8002070:	40010000 	.word	0x40010000
 8002074:	40010400 	.word	0x40010400
 8002078:	40000400 	.word	0x40000400

0800207c <HAL_TIM_PWM_Start_IT>:
 800207c:	f7ff bf84 	b.w	8001f88 <HAL_TIM_OC_Start_IT>

08002080 <HAL_TIMEx_MasterConfigSynchronization>:
 8002080:	b530      	push	{r4, r5, lr}
 8002082:	f890 303c 	ldrb.w	r3, [r0, #60]	; 0x3c
 8002086:	2b01      	cmp	r3, #1
 8002088:	f04f 0302 	mov.w	r3, #2
 800208c:	d032      	beq.n	80020f4 <HAL_TIMEx_MasterConfigSynchronization+0x74>
 800208e:	f880 303d 	strb.w	r3, [r0, #61]	; 0x3d
 8002092:	6803      	ldr	r3, [r0, #0]
 8002094:	680d      	ldr	r5, [r1, #0]
 8002096:	685c      	ldr	r4, [r3, #4]
 8002098:	689a      	ldr	r2, [r3, #8]
 800209a:	f024 0470 	bic.w	r4, r4, #112	; 0x70
 800209e:	432c      	orrs	r4, r5
 80020a0:	605c      	str	r4, [r3, #4]
 80020a2:	4c15      	ldr	r4, [pc, #84]	; (80020f8 <HAL_TIMEx_MasterConfigSynchronization+0x78>)
 80020a4:	42a3      	cmp	r3, r4
 80020a6:	d01a      	beq.n	80020de <HAL_TIMEx_MasterConfigSynchronization+0x5e>
 80020a8:	f1b3 4f80 	cmp.w	r3, #1073741824	; 0x40000000
 80020ac:	d017      	beq.n	80020de <HAL_TIMEx_MasterConfigSynchronization+0x5e>
 80020ae:	f5a4 447c 	sub.w	r4, r4, #64512	; 0xfc00
 80020b2:	42a3      	cmp	r3, r4
 80020b4:	d013      	beq.n	80020de <HAL_TIMEx_MasterConfigSynchronization+0x5e>
 80020b6:	f504 6480 	add.w	r4, r4, #1024	; 0x400
 80020ba:	42a3      	cmp	r3, r4
 80020bc:	d00f      	beq.n	80020de <HAL_TIMEx_MasterConfigSynchronization+0x5e>
 80020be:	f504 6480 	add.w	r4, r4, #1024	; 0x400
 80020c2:	42a3      	cmp	r3, r4
 80020c4:	d00b      	beq.n	80020de <HAL_TIMEx_MasterConfigSynchronization+0x5e>
 80020c6:	f504 4478 	add.w	r4, r4, #63488	; 0xf800
 80020ca:	42a3      	cmp	r3, r4
 80020cc:	d007      	beq.n	80020de <HAL_TIMEx_MasterConfigSynchronization+0x5e>
 80020ce:	f504 5470 	add.w	r4, r4, #15360	; 0x3c00
 80020d2:	42a3      	cmp	r3, r4
 80020d4:	d003      	beq.n	80020de <HAL_TIMEx_MasterConfigSynchronization+0x5e>
 80020d6:	f5a4 3494 	sub.w	r4, r4, #75776	; 0x12800
 80020da:	42a3      	cmp	r3, r4
 80020dc:	d104      	bne.n	80020e8 <HAL_TIMEx_MasterConfigSynchronization+0x68>
 80020de:	6849      	ldr	r1, [r1, #4]
 80020e0:	f022 0280 	bic.w	r2, r2, #128	; 0x80
 80020e4:	430a      	orrs	r2, r1
 80020e6:	609a      	str	r2, [r3, #8]
 80020e8:	2301      	movs	r3, #1
 80020ea:	f880 303d 	strb.w	r3, [r0, #61]	; 0x3d
 80020ee:	2300      	movs	r3, #0
 80020f0:	f880 303c 	strb.w	r3, [r0, #60]	; 0x3c
 80020f4:	4618      	mov	r0, r3
 80020f6:	bd30      	pop	{r4, r5, pc}
 80020f8:	40010000 	.word	0x40010000

080020fc <HAL_TIMEx_CommutCallback>:
 80020fc:	4770      	bx	lr

080020fe <HAL_TIMEx_BreakCallback>:
 80020fe:	4770      	bx	lr

08002100 <UART_EndRxTransfer>:
 8002100:	6803      	ldr	r3, [r0, #0]
 8002102:	68da      	ldr	r2, [r3, #12]
 8002104:	f422 7290 	bic.w	r2, r2, #288	; 0x120
 8002108:	60da      	str	r2, [r3, #12]
 800210a:	695a      	ldr	r2, [r3, #20]
 800210c:	f022 0201 	bic.w	r2, r2, #1
 8002110:	615a      	str	r2, [r3, #20]
 8002112:	6b02      	ldr	r2, [r0, #48]	; 0x30
 8002114:	2a01      	cmp	r2, #1
 8002116:	bf02      	ittt	eq
 8002118:	68da      	ldreq	r2, [r3, #12]
 800211a:	f022 0210 	biceq.w	r2, r2, #16
 800211e:	60da      	streq	r2, [r3, #12]
 8002120:	2320      	movs	r3, #32
 8002122:	f880 303e 	strb.w	r3, [r0, #62]	; 0x3e
 8002126:	2300      	movs	r3, #0
 8002128:	6303      	str	r3, [r0, #48]	; 0x30
 800212a:	4770      	bx	lr

0800212c <UART_SetConfig>:
 800212c:	6802      	ldr	r2, [r0, #0]
 800212e:	68c1      	ldr	r1, [r0, #12]
 8002130:	b538      	push	{r3, r4, r5, lr}
 8002132:	6913      	ldr	r3, [r2, #16]
 8002134:	f423 5340 	bic.w	r3, r3, #12288	; 0x3000
 8002138:	430b      	orrs	r3, r1
 800213a:	6113      	str	r3, [r2, #16]
 800213c:	4605      	mov	r5, r0
 800213e:	6883      	ldr	r3, [r0, #8]
 8002140:	6900      	ldr	r0, [r0, #16]
 8002142:	68d1      	ldr	r1, [r2, #12]
 8002144:	4303      	orrs	r3, r0
 8002146:	6968      	ldr	r0, [r5, #20]
 8002148:	4303      	orrs	r3, r0
 800214a:	69e8      	ldr	r0, [r5, #28]
 800214c:	f421 4116 	bic.w	r1, r1, #38400	; 0x9600
 8002150:	f021 010c 	bic.w	r1, r1, #12
 8002154:	4303      	orrs	r3, r0
 8002156:	430b      	orrs	r3, r1
 8002158:	60d3      	str	r3, [r2, #12]
 800215a:	6953      	ldr	r3, [r2, #20]
 800215c:	69a9      	ldr	r1, [r5, #24]
 800215e:	f423 7340 	bic.w	r3, r3, #768	; 0x300
 8002162:	430b      	orrs	r3, r1
 8002164:	6153      	str	r3, [r2, #20]
 8002166:	4b1f      	ldr	r3, [pc, #124]	; (80021e4 <UART_SetConfig+0xb8>)
 8002168:	429a      	cmp	r2, r3
 800216a:	d003      	beq.n	8002174 <UART_SetConfig+0x48>
 800216c:	f503 6380 	add.w	r3, r3, #1024	; 0x400
 8002170:	429a      	cmp	r2, r3
 8002172:	d124      	bne.n	80021be <UART_SetConfig+0x92>
 8002174:	f7ff fb28 	bl	80017c8 <HAL_RCC_GetPCLK2Freq>
 8002178:	69ea      	ldr	r2, [r5, #28]
 800217a:	2319      	movs	r3, #25
 800217c:	f5b2 4f00 	cmp.w	r2, #32768	; 0x8000
 8002180:	fba0 0103 	umull	r0, r1, r0, r3
 8002184:	e9d5 4300 	ldrd	r4, r3, [r5]
 8002188:	d11c      	bne.n	80021c4 <UART_SetConfig+0x98>
 800218a:	461a      	mov	r2, r3
 800218c:	1892      	adds	r2, r2, r2
 800218e:	f04f 0300 	mov.w	r3, #0
 8002192:	415b      	adcs	r3, r3
 8002194:	f7fe f820 	bl	80001d8 <__aeabi_uldivmod>
 8002198:	2164      	movs	r1, #100	; 0x64
 800219a:	fbb0 f5f1 	udiv	r5, r0, r1
 800219e:	fb01 0315 	mls	r3, r1, r5, r0
 80021a2:	00db      	lsls	r3, r3, #3
 80021a4:	3332      	adds	r3, #50	; 0x32
 80021a6:	fbb3 f3f1 	udiv	r3, r3, r1
 80021aa:	f003 0207 	and.w	r2, r3, #7
 80021ae:	005b      	lsls	r3, r3, #1
 80021b0:	eb02 1205 	add.w	r2, r2, r5, lsl #4
 80021b4:	f403 73f8 	and.w	r3, r3, #496	; 0x1f0
 80021b8:	4413      	add	r3, r2
 80021ba:	60a3      	str	r3, [r4, #8]
 80021bc:	bd38      	pop	{r3, r4, r5, pc}
 80021be:	f7ff faf3 	bl	80017a8 <HAL_RCC_GetPCLK1Freq>
 80021c2:	e7d9      	b.n	8002178 <UART_SetConfig+0x4c>
 80021c4:	009a      	lsls	r2, r3, #2
 80021c6:	0f9b      	lsrs	r3, r3, #30
 80021c8:	f7fe f806 	bl	80001d8 <__aeabi_uldivmod>
 80021cc:	2264      	movs	r2, #100	; 0x64
 80021ce:	fbb0 f1f2 	udiv	r1, r0, r2
 80021d2:	fb02 0311 	mls	r3, r2, r1, r0
 80021d6:	011b      	lsls	r3, r3, #4
 80021d8:	3332      	adds	r3, #50	; 0x32
 80021da:	fbb3 f3f2 	udiv	r3, r3, r2
 80021de:	eb03 1301 	add.w	r3, r3, r1, lsl #4
 80021e2:	e7ea      	b.n	80021ba <UART_SetConfig+0x8e>
 80021e4:	40011000 	.word	0x40011000

080021e8 <UART_WaitOnFlagUntilTimeout.constprop.0>:
 80021e8:	b5f8      	push	{r3, r4, r5, r6, r7, lr}
 80021ea:	4604      	mov	r4, r0
 80021ec:	460e      	mov	r6, r1
 80021ee:	4617      	mov	r7, r2
 80021f0:	461d      	mov	r5, r3
 80021f2:	6822      	ldr	r2, [r4, #0]
 80021f4:	6813      	ldr	r3, [r2, #0]
 80021f6:	ea36 0303 	bics.w	r3, r6, r3
 80021fa:	d101      	bne.n	8002200 <UART_WaitOnFlagUntilTimeout.constprop.0+0x18>
 80021fc:	2000      	movs	r0, #0
 80021fe:	e014      	b.n	800222a <UART_WaitOnFlagUntilTimeout.constprop.0+0x42>
 8002200:	1c6b      	adds	r3, r5, #1
 8002202:	d0f7      	beq.n	80021f4 <UART_WaitOnFlagUntilTimeout.constprop.0+0xc>
 8002204:	b995      	cbnz	r5, 800222c <UART_WaitOnFlagUntilTimeout.constprop.0+0x44>
 8002206:	6823      	ldr	r3, [r4, #0]
 8002208:	68da      	ldr	r2, [r3, #12]
 800220a:	f422 72d0 	bic.w	r2, r2, #416	; 0x1a0
 800220e:	60da      	str	r2, [r3, #12]
 8002210:	695a      	ldr	r2, [r3, #20]
 8002212:	f022 0201 	bic.w	r2, r2, #1
 8002216:	615a      	str	r2, [r3, #20]
 8002218:	2320      	movs	r3, #32
 800221a:	f884 303d 	strb.w	r3, [r4, #61]	; 0x3d
 800221e:	f884 303e 	strb.w	r3, [r4, #62]	; 0x3e
 8002222:	2300      	movs	r3, #0
 8002224:	f884 303c 	strb.w	r3, [r4, #60]	; 0x3c
 8002228:	2003      	movs	r0, #3
 800222a:	bdf8      	pop	{r3, r4, r5, r6, r7, pc}
 800222c:	f7fe fd6a 	bl	8000d04 <HAL_GetTick>
 8002230:	1bc0      	subs	r0, r0, r7
 8002232:	4285      	cmp	r5, r0
 8002234:	d2dd      	bcs.n	80021f2 <UART_WaitOnFlagUntilTimeout.constprop.0+0xa>
 8002236:	e7e6      	b.n	8002206 <UART_WaitOnFlagUntilTimeout.constprop.0+0x1e>

08002238 <HAL_UART_Init>:
 8002238:	b510      	push	{r4, lr}
 800223a:	4604      	mov	r4, r0
 800223c:	b340      	cbz	r0, 8002290 <HAL_UART_Init+0x58>
 800223e:	f890 303d 	ldrb.w	r3, [r0, #61]	; 0x3d
 8002242:	f003 02ff 	and.w	r2, r3, #255	; 0xff
 8002246:	b91b      	cbnz	r3, 8002250 <HAL_UART_Init+0x18>
 8002248:	f880 203c 	strb.w	r2, [r0, #60]	; 0x3c
 800224c:	f7fe fc94 	bl	8000b78 <HAL_UART_MspInit>
 8002250:	6822      	ldr	r2, [r4, #0]
 8002252:	2324      	movs	r3, #36	; 0x24
 8002254:	f884 303d 	strb.w	r3, [r4, #61]	; 0x3d
 8002258:	68d3      	ldr	r3, [r2, #12]
 800225a:	f423 5300 	bic.w	r3, r3, #8192	; 0x2000
 800225e:	60d3      	str	r3, [r2, #12]
 8002260:	4620      	mov	r0, r4
 8002262:	f7ff ff63 	bl	800212c <UART_SetConfig>
 8002266:	6823      	ldr	r3, [r4, #0]
 8002268:	691a      	ldr	r2, [r3, #16]
 800226a:	f422 4290 	bic.w	r2, r2, #18432	; 0x4800
 800226e:	611a      	str	r2, [r3, #16]
 8002270:	695a      	ldr	r2, [r3, #20]
 8002272:	f022 022a 	bic.w	r2, r2, #42	; 0x2a
 8002276:	615a      	str	r2, [r3, #20]
 8002278:	68da      	ldr	r2, [r3, #12]
 800227a:	f442 5200 	orr.w	r2, r2, #8192	; 0x2000
 800227e:	60da      	str	r2, [r3, #12]
 8002280:	2000      	movs	r0, #0
 8002282:	2320      	movs	r3, #32
 8002284:	6420      	str	r0, [r4, #64]	; 0x40
 8002286:	f884 303d 	strb.w	r3, [r4, #61]	; 0x3d
 800228a:	f884 303e 	strb.w	r3, [r4, #62]	; 0x3e
 800228e:	bd10      	pop	{r4, pc}
 8002290:	2001      	movs	r0, #1
 8002292:	e7fc      	b.n	800228e <HAL_UART_Init+0x56>

08002294 <HAL_UART_Transmit>:
 8002294:	b5f7      	push	{r0, r1, r2, r4, r5, r6, r7, lr}
 8002296:	4617      	mov	r7, r2
 8002298:	f890 203d 	ldrb.w	r2, [r0, #61]	; 0x3d
 800229c:	9300      	str	r3, [sp, #0]
 800229e:	2a20      	cmp	r2, #32
 80022a0:	4604      	mov	r4, r0
 80022a2:	460e      	mov	r6, r1
 80022a4:	d149      	bne.n	800233a <HAL_UART_Transmit+0xa6>
 80022a6:	2900      	cmp	r1, #0
 80022a8:	d045      	beq.n	8002336 <HAL_UART_Transmit+0xa2>
 80022aa:	2f00      	cmp	r7, #0
 80022ac:	d043      	beq.n	8002336 <HAL_UART_Transmit+0xa2>
 80022ae:	f890 203c 	ldrb.w	r2, [r0, #60]	; 0x3c
 80022b2:	2a01      	cmp	r2, #1
 80022b4:	d041      	beq.n	800233a <HAL_UART_Transmit+0xa6>
 80022b6:	2201      	movs	r2, #1
 80022b8:	f880 203c 	strb.w	r2, [r0, #60]	; 0x3c
 80022bc:	2500      	movs	r5, #0
 80022be:	2221      	movs	r2, #33	; 0x21
 80022c0:	6405      	str	r5, [r0, #64]	; 0x40
 80022c2:	f880 203d 	strb.w	r2, [r0, #61]	; 0x3d
 80022c6:	f7fe fd1d 	bl	8000d04 <HAL_GetTick>
 80022ca:	68a1      	ldr	r1, [r4, #8]
 80022cc:	9b00      	ldr	r3, [sp, #0]
 80022ce:	84a7      	strh	r7, [r4, #36]	; 0x24
 80022d0:	f5b1 5f80 	cmp.w	r1, #4096	; 0x1000
 80022d4:	4602      	mov	r2, r0
 80022d6:	84e7      	strh	r7, [r4, #38]	; 0x26
 80022d8:	d103      	bne.n	80022e2 <HAL_UART_Transmit+0x4e>
 80022da:	6921      	ldr	r1, [r4, #16]
 80022dc:	b909      	cbnz	r1, 80022e2 <HAL_UART_Transmit+0x4e>
 80022de:	4635      	mov	r5, r6
 80022e0:	460e      	mov	r6, r1
 80022e2:	2100      	movs	r1, #0
 80022e4:	f884 103c 	strb.w	r1, [r4, #60]	; 0x3c
 80022e8:	8ce1      	ldrh	r1, [r4, #38]	; 0x26
 80022ea:	b289      	uxth	r1, r1
 80022ec:	b941      	cbnz	r1, 8002300 <HAL_UART_Transmit+0x6c>
 80022ee:	2140      	movs	r1, #64	; 0x40
 80022f0:	4620      	mov	r0, r4
 80022f2:	f7ff ff79 	bl	80021e8 <UART_WaitOnFlagUntilTimeout.constprop.0>
 80022f6:	b960      	cbnz	r0, 8002312 <HAL_UART_Transmit+0x7e>
 80022f8:	2320      	movs	r3, #32
 80022fa:	f884 303d 	strb.w	r3, [r4, #61]	; 0x3d
 80022fe:	e009      	b.n	8002314 <HAL_UART_Transmit+0x80>
 8002300:	2180      	movs	r1, #128	; 0x80
 8002302:	4620      	mov	r0, r4
 8002304:	e9cd 2300 	strd	r2, r3, [sp]
 8002308:	f7ff ff6e 	bl	80021e8 <UART_WaitOnFlagUntilTimeout.constprop.0>
 800230c:	e9dd 2300 	ldrd	r2, r3, [sp]
 8002310:	b110      	cbz	r0, 8002318 <HAL_UART_Transmit+0x84>
 8002312:	2003      	movs	r0, #3
 8002314:	b003      	add	sp, #12
 8002316:	bdf0      	pop	{r4, r5, r6, r7, pc}
 8002318:	6820      	ldr	r0, [r4, #0]
 800231a:	b94e      	cbnz	r6, 8002330 <HAL_UART_Transmit+0x9c>
 800231c:	f835 1b02 	ldrh.w	r1, [r5], #2
 8002320:	f3c1 0108 	ubfx	r1, r1, #0, #9
 8002324:	6041      	str	r1, [r0, #4]
 8002326:	8ce1      	ldrh	r1, [r4, #38]	; 0x26
 8002328:	3901      	subs	r1, #1
 800232a:	b289      	uxth	r1, r1
 800232c:	84e1      	strh	r1, [r4, #38]	; 0x26
 800232e:	e7db      	b.n	80022e8 <HAL_UART_Transmit+0x54>
 8002330:	f816 1b01 	ldrb.w	r1, [r6], #1
 8002334:	e7f6      	b.n	8002324 <HAL_UART_Transmit+0x90>
 8002336:	2001      	movs	r0, #1
 8002338:	e7ec      	b.n	8002314 <HAL_UART_Transmit+0x80>
 800233a:	2002      	movs	r0, #2
 800233c:	e7ea      	b.n	8002314 <HAL_UART_Transmit+0x80>

0800233e <HAL_UART_RxHalfCpltCallback>:
 800233e:	4770      	bx	lr

08002340 <HAL_UART_ErrorCallback>:
 8002340:	4770      	bx	lr

08002342 <UART_DMAError>:
 8002342:	b508      	push	{r3, lr}
 8002344:	6b80      	ldr	r0, [r0, #56]	; 0x38
 8002346:	6803      	ldr	r3, [r0, #0]
 8002348:	695a      	ldr	r2, [r3, #20]
 800234a:	f890 103d 	ldrb.w	r1, [r0, #61]	; 0x3d
 800234e:	2921      	cmp	r1, #33	; 0x21
 8002350:	d10a      	bne.n	8002368 <UART_DMAError+0x26>
 8002352:	0612      	lsls	r2, r2, #24
 8002354:	d508      	bpl.n	8002368 <UART_DMAError+0x26>
 8002356:	2200      	movs	r2, #0
 8002358:	84c2      	strh	r2, [r0, #38]	; 0x26
 800235a:	68da      	ldr	r2, [r3, #12]
 800235c:	f022 02c0 	bic.w	r2, r2, #192	; 0xc0
 8002360:	60da      	str	r2, [r3, #12]
 8002362:	2220      	movs	r2, #32
 8002364:	f880 203d 	strb.w	r2, [r0, #61]	; 0x3d
 8002368:	695b      	ldr	r3, [r3, #20]
 800236a:	f890 203e 	ldrb.w	r2, [r0, #62]	; 0x3e
 800236e:	2a22      	cmp	r2, #34	; 0x22
 8002370:	d105      	bne.n	800237e <UART_DMAError+0x3c>
 8002372:	065b      	lsls	r3, r3, #25
 8002374:	d503      	bpl.n	800237e <UART_DMAError+0x3c>
 8002376:	2300      	movs	r3, #0
 8002378:	85c3      	strh	r3, [r0, #46]	; 0x2e
 800237a:	f7ff fec1 	bl	8002100 <UART_EndRxTransfer>
 800237e:	6c03      	ldr	r3, [r0, #64]	; 0x40
 8002380:	f043 0310 	orr.w	r3, r3, #16
 8002384:	6403      	str	r3, [r0, #64]	; 0x40
 8002386:	f7ff ffdb 	bl	8002340 <HAL_UART_ErrorCallback>
 800238a:	bd08      	pop	{r3, pc}

0800238c <HAL_UARTEx_RxEventCallback>:
 800238c:	4770      	bx	lr

0800238e <UART_DMARxHalfCplt>:
 800238e:	6b80      	ldr	r0, [r0, #56]	; 0x38
 8002390:	b508      	push	{r3, lr}
 8002392:	6b03      	ldr	r3, [r0, #48]	; 0x30
 8002394:	2b01      	cmp	r3, #1
 8002396:	d104      	bne.n	80023a2 <UART_DMARxHalfCplt+0x14>
 8002398:	8d81      	ldrh	r1, [r0, #44]	; 0x2c
 800239a:	0849      	lsrs	r1, r1, #1
 800239c:	f7ff fff6 	bl	800238c <HAL_UARTEx_RxEventCallback>
 80023a0:	bd08      	pop	{r3, pc}
 80023a2:	f7ff ffcc 	bl	800233e <HAL_UART_RxHalfCpltCallback>
 80023a6:	e7fb      	b.n	80023a0 <UART_DMARxHalfCplt+0x12>

080023a8 <UART_DMAReceiveCplt>:
 80023a8:	b508      	push	{r3, lr}
 80023aa:	4603      	mov	r3, r0
 80023ac:	6b80      	ldr	r0, [r0, #56]	; 0x38
 80023ae:	681b      	ldr	r3, [r3, #0]
 80023b0:	681b      	ldr	r3, [r3, #0]
 80023b2:	f413 7380 	ands.w	r3, r3, #256	; 0x100
 80023b6:	d117      	bne.n	80023e8 <UART_DMAReceiveCplt+0x40>
 80023b8:	85c3      	strh	r3, [r0, #46]	; 0x2e
 80023ba:	6803      	ldr	r3, [r0, #0]
 80023bc:	68da      	ldr	r2, [r3, #12]
 80023be:	f422 7280 	bic.w	r2, r2, #256	; 0x100
 80023c2:	60da      	str	r2, [r3, #12]
 80023c4:	695a      	ldr	r2, [r3, #20]
 80023c6:	f022 0201 	bic.w	r2, r2, #1
 80023ca:	615a      	str	r2, [r3, #20]
 80023cc:	695a      	ldr	r2, [r3, #20]
 80023ce:	f022 0240 	bic.w	r2, r2, #64	; 0x40
 80023d2:	615a      	str	r2, [r3, #20]
 80023d4:	2220      	movs	r2, #32
 80023d6:	f880 203e 	strb.w	r2, [r0, #62]	; 0x3e
 80023da:	6b02      	ldr	r2, [r0, #48]	; 0x30
 80023dc:	2a01      	cmp	r2, #1
 80023de:	bf02      	ittt	eq
 80023e0:	68da      	ldreq	r2, [r3, #12]
 80023e2:	f022 0210 	biceq.w	r2, r2, #16
 80023e6:	60da      	streq	r2, [r3, #12]
 80023e8:	6b03      	ldr	r3, [r0, #48]	; 0x30
 80023ea:	2b01      	cmp	r3, #1
 80023ec:	d103      	bne.n	80023f6 <UART_DMAReceiveCplt+0x4e>
 80023ee:	8d81      	ldrh	r1, [r0, #44]	; 0x2c
 80023f0:	f7ff ffcc 	bl	800238c <HAL_UARTEx_RxEventCallback>
 80023f4:	bd08      	pop	{r3, pc}
 80023f6:	f7fe f97d 	bl	80006f4 <HAL_UART_RxCpltCallback>
 80023fa:	e7fb      	b.n	80023f4 <UART_DMAReceiveCplt+0x4c>

080023fc <UART_Start_Receive_DMA>:
 80023fc:	b573      	push	{r0, r1, r4, r5, r6, lr}
 80023fe:	2322      	movs	r3, #34	; 0x22
 8002400:	2500      	movs	r5, #0
 8002402:	4604      	mov	r4, r0
 8002404:	6405      	str	r5, [r0, #64]	; 0x40
 8002406:	6281      	str	r1, [r0, #40]	; 0x28
 8002408:	f880 303e 	strb.w	r3, [r0, #62]	; 0x3e
 800240c:	8582      	strh	r2, [r0, #44]	; 0x2c
 800240e:	6b80      	ldr	r0, [r0, #56]	; 0x38
 8002410:	4b12      	ldr	r3, [pc, #72]	; (800245c <UART_Start_Receive_DMA+0x60>)
 8002412:	63c3      	str	r3, [r0, #60]	; 0x3c
 8002414:	4b12      	ldr	r3, [pc, #72]	; (8002460 <UART_Start_Receive_DMA+0x64>)
 8002416:	6826      	ldr	r6, [r4, #0]
 8002418:	6403      	str	r3, [r0, #64]	; 0x40
 800241a:	4b12      	ldr	r3, [pc, #72]	; (8002464 <UART_Start_Receive_DMA+0x68>)
 800241c:	e9c0 3513 	strd	r3, r5, [r0, #76]	; 0x4c
 8002420:	4613      	mov	r3, r2
 8002422:	460a      	mov	r2, r1
 8002424:	1d31      	adds	r1, r6, #4
 8002426:	f7fe fd71 	bl	8000f0c <HAL_DMA_Start_IT>
 800242a:	6823      	ldr	r3, [r4, #0]
 800242c:	9501      	str	r5, [sp, #4]
 800242e:	681a      	ldr	r2, [r3, #0]
 8002430:	9201      	str	r2, [sp, #4]
 8002432:	685a      	ldr	r2, [r3, #4]
 8002434:	9201      	str	r2, [sp, #4]
 8002436:	f884 503c 	strb.w	r5, [r4, #60]	; 0x3c
 800243a:	9a01      	ldr	r2, [sp, #4]
 800243c:	68da      	ldr	r2, [r3, #12]
 800243e:	f442 7280 	orr.w	r2, r2, #256	; 0x100
 8002442:	60da      	str	r2, [r3, #12]
 8002444:	695a      	ldr	r2, [r3, #20]
 8002446:	f042 0201 	orr.w	r2, r2, #1
 800244a:	615a      	str	r2, [r3, #20]
 800244c:	695a      	ldr	r2, [r3, #20]
 800244e:	4628      	mov	r0, r5
 8002450:	f042 0240 	orr.w	r2, r2, #64	; 0x40
 8002454:	615a      	str	r2, [r3, #20]
 8002456:	b002      	add	sp, #8
 8002458:	bd70      	pop	{r4, r5, r6, pc}
 800245a:	bf00      	nop
 800245c:	080023a9 	.word	0x080023a9
 8002460:	0800238f 	.word	0x0800238f
 8002464:	08002343 	.word	0x08002343

08002468 <HAL_UART_Receive_DMA>:
 8002468:	b470      	push	{r4, r5, r6}
 800246a:	f890 603e 	ldrb.w	r6, [r0, #62]	; 0x3e
 800246e:	2e20      	cmp	r6, #32
 8002470:	d110      	bne.n	8002494 <HAL_UART_Receive_DMA+0x2c>
 8002472:	b161      	cbz	r1, 800248e <HAL_UART_Receive_DMA+0x26>
 8002474:	b15a      	cbz	r2, 800248e <HAL_UART_Receive_DMA+0x26>
 8002476:	f890 403c 	ldrb.w	r4, [r0, #60]	; 0x3c
 800247a:	2c01      	cmp	r4, #1
 800247c:	d00a      	beq.n	8002494 <HAL_UART_Receive_DMA+0x2c>
 800247e:	2401      	movs	r4, #1
 8002480:	f880 403c 	strb.w	r4, [r0, #60]	; 0x3c
 8002484:	2400      	movs	r4, #0
 8002486:	6304      	str	r4, [r0, #48]	; 0x30
 8002488:	bc70      	pop	{r4, r5, r6}
 800248a:	f7ff bfb7 	b.w	80023fc <UART_Start_Receive_DMA>
 800248e:	2001      	movs	r0, #1
 8002490:	bc70      	pop	{r4, r5, r6}
 8002492:	4770      	bx	lr
 8002494:	2002      	movs	r0, #2
 8002496:	e7fb      	b.n	8002490 <HAL_UART_Receive_DMA+0x28>

08002498 <__libc_init_array>:
 8002498:	b570      	push	{r4, r5, r6, lr}
 800249a:	4d0d      	ldr	r5, [pc, #52]	; (80024d0 <__libc_init_array+0x38>)
 800249c:	4c0d      	ldr	r4, [pc, #52]	; (80024d4 <__libc_init_array+0x3c>)
 800249e:	1b64      	subs	r4, r4, r5
 80024a0:	10a4      	asrs	r4, r4, #2
 80024a2:	2600      	movs	r6, #0
 80024a4:	42a6      	cmp	r6, r4
 80024a6:	d109      	bne.n	80024bc <__libc_init_array+0x24>
 80024a8:	4d0b      	ldr	r5, [pc, #44]	; (80024d8 <__libc_init_array+0x40>)
 80024aa:	4c0c      	ldr	r4, [pc, #48]	; (80024dc <__libc_init_array+0x44>)
 80024ac:	f000 f820 	bl	80024f0 <_init>
 80024b0:	1b64      	subs	r4, r4, r5
 80024b2:	10a4      	asrs	r4, r4, #2
 80024b4:	2600      	movs	r6, #0
 80024b6:	42a6      	cmp	r6, r4
 80024b8:	d105      	bne.n	80024c6 <__libc_init_array+0x2e>
 80024ba:	bd70      	pop	{r4, r5, r6, pc}
 80024bc:	f855 3b04 	ldr.w	r3, [r5], #4
 80024c0:	4798      	blx	r3
 80024c2:	3601      	adds	r6, #1
 80024c4:	e7ee      	b.n	80024a4 <__libc_init_array+0xc>
 80024c6:	f855 3b04 	ldr.w	r3, [r5], #4
 80024ca:	4798      	blx	r3
 80024cc:	3601      	adds	r6, #1
 80024ce:	e7f2      	b.n	80024b6 <__libc_init_array+0x1e>
 80024d0:	08002530 	.word	0x08002530
 80024d4:	08002530 	.word	0x08002530
 80024d8:	08002530 	.word	0x08002530
 80024dc:	08002534 	.word	0x08002534

080024e0 <memset>:
 80024e0:	4402      	add	r2, r0
 80024e2:	4603      	mov	r3, r0
 80024e4:	4293      	cmp	r3, r2
 80024e6:	d100      	bne.n	80024ea <memset+0xa>
 80024e8:	4770      	bx	lr
 80024ea:	f803 1b01 	strb.w	r1, [r3], #1
 80024ee:	e7f9      	b.n	80024e4 <memset+0x4>

080024f0 <_init>:
 80024f0:	b5f8      	push	{r3, r4, r5, r6, r7, lr}
 80024f2:	bf00      	nop
 80024f4:	bcf8      	pop	{r3, r4, r5, r6, r7}
 80024f6:	bc08      	pop	{r3}
 80024f8:	469e      	mov	lr, r3
 80024fa:	4770      	bx	lr

080024fc <_fini>:
 80024fc:	b5f8      	push	{r3, r4, r5, r6, r7, lr}
 80024fe:	bf00      	nop
 8002500:	bcf8      	pop	{r3, r4, r5, r6, r7}
 8002502:	bc08      	pop	{r3}
 8002504:	469e      	mov	lr, r3
 8002506:	4770      	bx	lr
