
VGAnuS_Software-Ontwikkeling.elf:     file format elf32-littlearm

Sections:
Idx Name          Size      VMA       LMA       File off  Algn
  0 .isr_vector   00000188  08000000  08000000  00010000  2**0
                  CONTENTS, ALLOC, LOAD, READONLY, DATA
  1 .text         00003f2c  08000190  08000190  00010190  2**4
                  CONTENTS, ALLOC, LOAD, READONLY, CODE
  2 .rodata       00000254  080040bc  080040bc  000140bc  2**2
                  CONTENTS, ALLOC, LOAD, READONLY, DATA
  3 .ARM.extab    00000000  08004310  08004310  00020090  2**0
                  CONTENTS
  4 .ARM          00000008  08004310  08004310  00014310  2**2
                  CONTENTS, ALLOC, LOAD, READONLY, DATA
  5 .preinit_array 00000000  08004318  08004318  00020090  2**0
                  CONTENTS, ALLOC, LOAD, DATA
  6 .init_array   00000004  08004318  08004318  00014318  2**2
                  CONTENTS, ALLOC, LOAD, DATA
  7 .fini_array   00000004  0800431c  0800431c  0001431c  2**2
                  CONTENTS, ALLOC, LOAD, DATA
  8 .data         00000090  20000000  08004320  00020000  2**2
                  CONTENTS, ALLOC, LOAD, DATA
  9 .bss          00012ff0  20000090  080043b0  00020090  2**2
                  ALLOC
 10 ._user_heap_stack 00000600  20013080  080043b0  00023080  2**0
                  ALLOC
 11 .ARM.attributes 00000030  00000000  00000000  00020090  2**0
                  CONTENTS, READONLY
 12 .comment      00000053  00000000  00000000  000200c0  2**0
                  CONTENTS, READONLY
 13 .debug_frame  00000c3c  00000000  00000000  00020114  2**2
                  CONTENTS, READONLY, DEBUGGING, OCTETS

Disassembly of section .text:

08000190 <__do_global_dtors_aux>:
 8000190:	b510      	push	{r4, lr}
 8000192:	4c05      	ldr	r4, [pc, #20]	; (80001a8 <__do_global_dtors_aux+0x18>)
 8000194:	7823      	ldrb	r3, [r4, #0]
 8000196:	b933      	cbnz	r3, 80001a6 <__do_global_dtors_aux+0x16>
 8000198:	4b04      	ldr	r3, [pc, #16]	; (80001ac <__do_global_dtors_aux+0x1c>)
 800019a:	b113      	cbz	r3, 80001a2 <__do_global_dtors_aux+0x12>
 800019c:	4804      	ldr	r0, [pc, #16]	; (80001b0 <__do_global_dtors_aux+0x20>)
 800019e:	f3af 8000 	nop.w
 80001a2:	2301      	movs	r3, #1
 80001a4:	7023      	strb	r3, [r4, #0]
 80001a6:	bd10      	pop	{r4, pc}
 80001a8:	20000090 	.word	0x20000090
 80001ac:	00000000 	.word	0x00000000
 80001b0:	080040a4 	.word	0x080040a4

080001b4 <frame_dummy>:
 80001b4:	b508      	push	{r3, lr}
 80001b6:	4b03      	ldr	r3, [pc, #12]	; (80001c4 <frame_dummy+0x10>)
 80001b8:	b11b      	cbz	r3, 80001c2 <frame_dummy+0xe>
 80001ba:	4903      	ldr	r1, [pc, #12]	; (80001c8 <frame_dummy+0x14>)
 80001bc:	4803      	ldr	r0, [pc, #12]	; (80001cc <frame_dummy+0x18>)
 80001be:	f3af 8000 	nop.w
 80001c2:	bd08      	pop	{r3, pc}
 80001c4:	00000000 	.word	0x00000000
 80001c8:	20000094 	.word	0x20000094
 80001cc:	080040a4 	.word	0x080040a4

080001d0 <strcmp>:
 80001d0:	f810 2b01 	ldrb.w	r2, [r0], #1
 80001d4:	f811 3b01 	ldrb.w	r3, [r1], #1
 80001d8:	2a01      	cmp	r2, #1
 80001da:	bf28      	it	cs
 80001dc:	429a      	cmpcs	r2, r3
 80001de:	d0f7      	beq.n	80001d0 <strcmp>
 80001e0:	1ad0      	subs	r0, r2, r3
 80001e2:	4770      	bx	lr

080001e4 <strlen>:
 80001e4:	4603      	mov	r3, r0
 80001e6:	f813 2b01 	ldrb.w	r2, [r3], #1
 80001ea:	2a00      	cmp	r2, #0
 80001ec:	d1fb      	bne.n	80001e6 <strlen+0x2>
 80001ee:	1a18      	subs	r0, r3, r0
 80001f0:	3801      	subs	r0, #1
 80001f2:	4770      	bx	lr
	...

08000200 <memchr>:
 8000200:	f001 01ff 	and.w	r1, r1, #255	; 0xff
 8000204:	2a10      	cmp	r2, #16
 8000206:	db2b      	blt.n	8000260 <memchr+0x60>
 8000208:	f010 0f07 	tst.w	r0, #7
 800020c:	d008      	beq.n	8000220 <memchr+0x20>
 800020e:	f810 3b01 	ldrb.w	r3, [r0], #1
 8000212:	3a01      	subs	r2, #1
 8000214:	428b      	cmp	r3, r1
 8000216:	d02d      	beq.n	8000274 <memchr+0x74>
 8000218:	f010 0f07 	tst.w	r0, #7
 800021c:	b342      	cbz	r2, 8000270 <memchr+0x70>
 800021e:	d1f6      	bne.n	800020e <memchr+0xe>
 8000220:	b4f0      	push	{r4, r5, r6, r7}
 8000222:	ea41 2101 	orr.w	r1, r1, r1, lsl #8
 8000226:	ea41 4101 	orr.w	r1, r1, r1, lsl #16
 800022a:	f022 0407 	bic.w	r4, r2, #7
 800022e:	f07f 0700 	mvns.w	r7, #0
 8000232:	2300      	movs	r3, #0
 8000234:	e8f0 5602 	ldrd	r5, r6, [r0], #8
 8000238:	3c08      	subs	r4, #8
 800023a:	ea85 0501 	eor.w	r5, r5, r1
 800023e:	ea86 0601 	eor.w	r6, r6, r1
 8000242:	fa85 f547 	uadd8	r5, r5, r7
 8000246:	faa3 f587 	sel	r5, r3, r7
 800024a:	fa86 f647 	uadd8	r6, r6, r7
 800024e:	faa5 f687 	sel	r6, r5, r7
 8000252:	b98e      	cbnz	r6, 8000278 <memchr+0x78>
 8000254:	d1ee      	bne.n	8000234 <memchr+0x34>
 8000256:	bcf0      	pop	{r4, r5, r6, r7}
 8000258:	f001 01ff 	and.w	r1, r1, #255	; 0xff
 800025c:	f002 0207 	and.w	r2, r2, #7
 8000260:	b132      	cbz	r2, 8000270 <memchr+0x70>
 8000262:	f810 3b01 	ldrb.w	r3, [r0], #1
 8000266:	3a01      	subs	r2, #1
 8000268:	ea83 0301 	eor.w	r3, r3, r1
 800026c:	b113      	cbz	r3, 8000274 <memchr+0x74>
 800026e:	d1f8      	bne.n	8000262 <memchr+0x62>
 8000270:	2000      	movs	r0, #0
 8000272:	4770      	bx	lr
 8000274:	3801      	subs	r0, #1
 8000276:	4770      	bx	lr
 8000278:	2d00      	cmp	r5, #0
 800027a:	bf06      	itte	eq
 800027c:	4635      	moveq	r5, r6
 800027e:	3803      	subeq	r0, #3
 8000280:	3807      	subne	r0, #7
 8000282:	f015 0f01 	tst.w	r5, #1
 8000286:	d107      	bne.n	8000298 <memchr+0x98>
 8000288:	3001      	adds	r0, #1
 800028a:	f415 7f80 	tst.w	r5, #256	; 0x100
 800028e:	bf02      	ittt	eq
 8000290:	3001      	addeq	r0, #1
 8000292:	f415 3fc0 	tsteq.w	r5, #98304	; 0x18000
 8000296:	3001      	addeq	r0, #1
 8000298:	bcf0      	pop	{r4, r5, r6, r7}
 800029a:	3801      	subs	r0, #1
 800029c:	4770      	bx	lr
 800029e:	bf00      	nop

080002a0 <__aeabi_uldivmod>:
 80002a0:	b953      	cbnz	r3, 80002b8 <__aeabi_uldivmod+0x18>
 80002a2:	b94a      	cbnz	r2, 80002b8 <__aeabi_uldivmod+0x18>
 80002a4:	2900      	cmp	r1, #0
 80002a6:	bf08      	it	eq
 80002a8:	2800      	cmpeq	r0, #0
 80002aa:	bf1c      	itt	ne
 80002ac:	f04f 31ff 	movne.w	r1, #4294967295
 80002b0:	f04f 30ff 	movne.w	r0, #4294967295
 80002b4:	f000 b96e 	b.w	8000594 <__aeabi_idiv0>
 80002b8:	f1ad 0c08 	sub.w	ip, sp, #8
 80002bc:	e96d ce04 	strd	ip, lr, [sp, #-16]!
 80002c0:	f000 f806 	bl	80002d0 <__udivmoddi4>
 80002c4:	f8dd e004 	ldr.w	lr, [sp, #4]
 80002c8:	e9dd 2302 	ldrd	r2, r3, [sp, #8]
 80002cc:	b004      	add	sp, #16
 80002ce:	4770      	bx	lr

080002d0 <__udivmoddi4>:
 80002d0:	e92d 47f0 	stmdb	sp!, {r4, r5, r6, r7, r8, r9, sl, lr}
 80002d4:	9d08      	ldr	r5, [sp, #32]
 80002d6:	4604      	mov	r4, r0
 80002d8:	468c      	mov	ip, r1
 80002da:	2b00      	cmp	r3, #0
 80002dc:	f040 8083 	bne.w	80003e6 <__udivmoddi4+0x116>
 80002e0:	428a      	cmp	r2, r1
 80002e2:	4617      	mov	r7, r2
 80002e4:	d947      	bls.n	8000376 <__udivmoddi4+0xa6>
 80002e6:	fab2 f282 	clz	r2, r2
 80002ea:	b142      	cbz	r2, 80002fe <__udivmoddi4+0x2e>
 80002ec:	f1c2 0020 	rsb	r0, r2, #32
 80002f0:	fa24 f000 	lsr.w	r0, r4, r0
 80002f4:	4091      	lsls	r1, r2
 80002f6:	4097      	lsls	r7, r2
 80002f8:	ea40 0c01 	orr.w	ip, r0, r1
 80002fc:	4094      	lsls	r4, r2
 80002fe:	ea4f 4817 	mov.w	r8, r7, lsr #16
 8000302:	0c23      	lsrs	r3, r4, #16
 8000304:	fbbc f6f8 	udiv	r6, ip, r8
 8000308:	fa1f fe87 	uxth.w	lr, r7
 800030c:	fb08 c116 	mls	r1, r8, r6, ip
 8000310:	ea43 4301 	orr.w	r3, r3, r1, lsl #16
 8000314:	fb06 f10e 	mul.w	r1, r6, lr
 8000318:	4299      	cmp	r1, r3
 800031a:	d909      	bls.n	8000330 <__udivmoddi4+0x60>
 800031c:	18fb      	adds	r3, r7, r3
 800031e:	f106 30ff 	add.w	r0, r6, #4294967295
 8000322:	f080 8119 	bcs.w	8000558 <__udivmoddi4+0x288>
 8000326:	4299      	cmp	r1, r3
 8000328:	f240 8116 	bls.w	8000558 <__udivmoddi4+0x288>
 800032c:	3e02      	subs	r6, #2
 800032e:	443b      	add	r3, r7
 8000330:	1a5b      	subs	r3, r3, r1
 8000332:	b2a4      	uxth	r4, r4
 8000334:	fbb3 f0f8 	udiv	r0, r3, r8
 8000338:	fb08 3310 	mls	r3, r8, r0, r3
 800033c:	ea44 4403 	orr.w	r4, r4, r3, lsl #16
 8000340:	fb00 fe0e 	mul.w	lr, r0, lr
 8000344:	45a6      	cmp	lr, r4
 8000346:	d909      	bls.n	800035c <__udivmoddi4+0x8c>
 8000348:	193c      	adds	r4, r7, r4
 800034a:	f100 33ff 	add.w	r3, r0, #4294967295
 800034e:	f080 8105 	bcs.w	800055c <__udivmoddi4+0x28c>
 8000352:	45a6      	cmp	lr, r4
 8000354:	f240 8102 	bls.w	800055c <__udivmoddi4+0x28c>
 8000358:	3802      	subs	r0, #2
 800035a:	443c      	add	r4, r7
 800035c:	ea40 4006 	orr.w	r0, r0, r6, lsl #16
 8000360:	eba4 040e 	sub.w	r4, r4, lr
 8000364:	2600      	movs	r6, #0
 8000366:	b11d      	cbz	r5, 8000370 <__udivmoddi4+0xa0>
 8000368:	40d4      	lsrs	r4, r2
 800036a:	2300      	movs	r3, #0
 800036c:	e9c5 4300 	strd	r4, r3, [r5]
 8000370:	4631      	mov	r1, r6
 8000372:	e8bd 87f0 	ldmia.w	sp!, {r4, r5, r6, r7, r8, r9, sl, pc}
 8000376:	b902      	cbnz	r2, 800037a <__udivmoddi4+0xaa>
 8000378:	deff      	udf	#255	; 0xff
 800037a:	fab2 f282 	clz	r2, r2
 800037e:	2a00      	cmp	r2, #0
 8000380:	d150      	bne.n	8000424 <__udivmoddi4+0x154>
 8000382:	1bcb      	subs	r3, r1, r7
 8000384:	ea4f 4e17 	mov.w	lr, r7, lsr #16
 8000388:	fa1f f887 	uxth.w	r8, r7
 800038c:	2601      	movs	r6, #1
 800038e:	fbb3 fcfe 	udiv	ip, r3, lr
 8000392:	0c21      	lsrs	r1, r4, #16
 8000394:	fb0e 331c 	mls	r3, lr, ip, r3
 8000398:	ea41 4103 	orr.w	r1, r1, r3, lsl #16
 800039c:	fb08 f30c 	mul.w	r3, r8, ip
 80003a0:	428b      	cmp	r3, r1
 80003a2:	d907      	bls.n	80003b4 <__udivmoddi4+0xe4>
 80003a4:	1879      	adds	r1, r7, r1
 80003a6:	f10c 30ff 	add.w	r0, ip, #4294967295
 80003aa:	d202      	bcs.n	80003b2 <__udivmoddi4+0xe2>
 80003ac:	428b      	cmp	r3, r1
 80003ae:	f200 80e9 	bhi.w	8000584 <__udivmoddi4+0x2b4>
 80003b2:	4684      	mov	ip, r0
 80003b4:	1ac9      	subs	r1, r1, r3
 80003b6:	b2a3      	uxth	r3, r4
 80003b8:	fbb1 f0fe 	udiv	r0, r1, lr
 80003bc:	fb0e 1110 	mls	r1, lr, r0, r1
 80003c0:	ea43 4401 	orr.w	r4, r3, r1, lsl #16
 80003c4:	fb08 f800 	mul.w	r8, r8, r0
 80003c8:	45a0      	cmp	r8, r4
 80003ca:	d907      	bls.n	80003dc <__udivmoddi4+0x10c>
 80003cc:	193c      	adds	r4, r7, r4
 80003ce:	f100 33ff 	add.w	r3, r0, #4294967295
 80003d2:	d202      	bcs.n	80003da <__udivmoddi4+0x10a>
 80003d4:	45a0      	cmp	r8, r4
 80003d6:	f200 80d9 	bhi.w	800058c <__udivmoddi4+0x2bc>
 80003da:	4618      	mov	r0, r3
 80003dc:	eba4 0408 	sub.w	r4, r4, r8
 80003e0:	ea40 400c 	orr.w	r0, r0, ip, lsl #16
 80003e4:	e7bf      	b.n	8000366 <__udivmoddi4+0x96>
 80003e6:	428b      	cmp	r3, r1
 80003e8:	d909      	bls.n	80003fe <__udivmoddi4+0x12e>
 80003ea:	2d00      	cmp	r5, #0
 80003ec:	f000 80b1 	beq.w	8000552 <__udivmoddi4+0x282>
 80003f0:	2600      	movs	r6, #0
 80003f2:	e9c5 0100 	strd	r0, r1, [r5]
 80003f6:	4630      	mov	r0, r6
 80003f8:	4631      	mov	r1, r6
 80003fa:	e8bd 87f0 	ldmia.w	sp!, {r4, r5, r6, r7, r8, r9, sl, pc}
 80003fe:	fab3 f683 	clz	r6, r3
 8000402:	2e00      	cmp	r6, #0
 8000404:	d14a      	bne.n	800049c <__udivmoddi4+0x1cc>
 8000406:	428b      	cmp	r3, r1
 8000408:	d302      	bcc.n	8000410 <__udivmoddi4+0x140>
 800040a:	4282      	cmp	r2, r0
 800040c:	f200 80b8 	bhi.w	8000580 <__udivmoddi4+0x2b0>
 8000410:	1a84      	subs	r4, r0, r2
 8000412:	eb61 0103 	sbc.w	r1, r1, r3
 8000416:	2001      	movs	r0, #1
 8000418:	468c      	mov	ip, r1
 800041a:	2d00      	cmp	r5, #0
 800041c:	d0a8      	beq.n	8000370 <__udivmoddi4+0xa0>
 800041e:	e9c5 4c00 	strd	r4, ip, [r5]
 8000422:	e7a5      	b.n	8000370 <__udivmoddi4+0xa0>
 8000424:	f1c2 0320 	rsb	r3, r2, #32
 8000428:	fa20 f603 	lsr.w	r6, r0, r3
 800042c:	4097      	lsls	r7, r2
 800042e:	fa01 f002 	lsl.w	r0, r1, r2
 8000432:	ea4f 4e17 	mov.w	lr, r7, lsr #16
 8000436:	40d9      	lsrs	r1, r3
 8000438:	4330      	orrs	r0, r6
 800043a:	0c03      	lsrs	r3, r0, #16
 800043c:	fbb1 f6fe 	udiv	r6, r1, lr
 8000440:	fa1f f887 	uxth.w	r8, r7
 8000444:	fb0e 1116 	mls	r1, lr, r6, r1
 8000448:	ea43 4301 	orr.w	r3, r3, r1, lsl #16
 800044c:	fb06 f108 	mul.w	r1, r6, r8
 8000450:	4299      	cmp	r1, r3
 8000452:	fa04 f402 	lsl.w	r4, r4, r2
 8000456:	d909      	bls.n	800046c <__udivmoddi4+0x19c>
 8000458:	18fb      	adds	r3, r7, r3
 800045a:	f106 3cff 	add.w	ip, r6, #4294967295
 800045e:	f080 808d 	bcs.w	800057c <__udivmoddi4+0x2ac>
 8000462:	4299      	cmp	r1, r3
 8000464:	f240 808a 	bls.w	800057c <__udivmoddi4+0x2ac>
 8000468:	3e02      	subs	r6, #2
 800046a:	443b      	add	r3, r7
 800046c:	1a5b      	subs	r3, r3, r1
 800046e:	b281      	uxth	r1, r0
 8000470:	fbb3 f0fe 	udiv	r0, r3, lr
 8000474:	fb0e 3310 	mls	r3, lr, r0, r3
 8000478:	ea41 4103 	orr.w	r1, r1, r3, lsl #16
 800047c:	fb00 f308 	mul.w	r3, r0, r8
 8000480:	428b      	cmp	r3, r1
 8000482:	d907      	bls.n	8000494 <__udivmoddi4+0x1c4>
 8000484:	1879      	adds	r1, r7, r1
 8000486:	f100 3cff 	add.w	ip, r0, #4294967295
 800048a:	d273      	bcs.n	8000574 <__udivmoddi4+0x2a4>
 800048c:	428b      	cmp	r3, r1
 800048e:	d971      	bls.n	8000574 <__udivmoddi4+0x2a4>
 8000490:	3802      	subs	r0, #2
 8000492:	4439      	add	r1, r7
 8000494:	1acb      	subs	r3, r1, r3
 8000496:	ea40 4606 	orr.w	r6, r0, r6, lsl #16
 800049a:	e778      	b.n	800038e <__udivmoddi4+0xbe>
 800049c:	f1c6 0c20 	rsb	ip, r6, #32
 80004a0:	fa03 f406 	lsl.w	r4, r3, r6
 80004a4:	fa22 f30c 	lsr.w	r3, r2, ip
 80004a8:	431c      	orrs	r4, r3
 80004aa:	fa20 f70c 	lsr.w	r7, r0, ip
 80004ae:	fa01 f306 	lsl.w	r3, r1, r6
 80004b2:	ea4f 4e14 	mov.w	lr, r4, lsr #16
 80004b6:	fa21 f10c 	lsr.w	r1, r1, ip
 80004ba:	431f      	orrs	r7, r3
 80004bc:	0c3b      	lsrs	r3, r7, #16
 80004be:	fbb1 f9fe 	udiv	r9, r1, lr
 80004c2:	fa1f f884 	uxth.w	r8, r4
 80004c6:	fb0e 1119 	mls	r1, lr, r9, r1
 80004ca:	ea43 4101 	orr.w	r1, r3, r1, lsl #16
 80004ce:	fb09 fa08 	mul.w	sl, r9, r8
 80004d2:	458a      	cmp	sl, r1
 80004d4:	fa02 f206 	lsl.w	r2, r2, r6
 80004d8:	fa00 f306 	lsl.w	r3, r0, r6
 80004dc:	d908      	bls.n	80004f0 <__udivmoddi4+0x220>
 80004de:	1861      	adds	r1, r4, r1
 80004e0:	f109 30ff 	add.w	r0, r9, #4294967295
 80004e4:	d248      	bcs.n	8000578 <__udivmoddi4+0x2a8>
 80004e6:	458a      	cmp	sl, r1
 80004e8:	d946      	bls.n	8000578 <__udivmoddi4+0x2a8>
 80004ea:	f1a9 0902 	sub.w	r9, r9, #2
 80004ee:	4421      	add	r1, r4
 80004f0:	eba1 010a 	sub.w	r1, r1, sl
 80004f4:	b2bf      	uxth	r7, r7
 80004f6:	fbb1 f0fe 	udiv	r0, r1, lr
 80004fa:	fb0e 1110 	mls	r1, lr, r0, r1
 80004fe:	ea47 4701 	orr.w	r7, r7, r1, lsl #16
 8000502:	fb00 f808 	mul.w	r8, r0, r8
 8000506:	45b8      	cmp	r8, r7
 8000508:	d907      	bls.n	800051a <__udivmoddi4+0x24a>
 800050a:	19e7      	adds	r7, r4, r7
 800050c:	f100 31ff 	add.w	r1, r0, #4294967295
 8000510:	d22e      	bcs.n	8000570 <__udivmoddi4+0x2a0>
 8000512:	45b8      	cmp	r8, r7
 8000514:	d92c      	bls.n	8000570 <__udivmoddi4+0x2a0>
 8000516:	3802      	subs	r0, #2
 8000518:	4427      	add	r7, r4
 800051a:	ea40 4009 	orr.w	r0, r0, r9, lsl #16
 800051e:	eba7 0708 	sub.w	r7, r7, r8
 8000522:	fba0 8902 	umull	r8, r9, r0, r2
 8000526:	454f      	cmp	r7, r9
 8000528:	46c6      	mov	lr, r8
 800052a:	4649      	mov	r1, r9
 800052c:	d31a      	bcc.n	8000564 <__udivmoddi4+0x294>
 800052e:	d017      	beq.n	8000560 <__udivmoddi4+0x290>
 8000530:	b15d      	cbz	r5, 800054a <__udivmoddi4+0x27a>
 8000532:	ebb3 020e 	subs.w	r2, r3, lr
 8000536:	eb67 0701 	sbc.w	r7, r7, r1
 800053a:	fa07 fc0c 	lsl.w	ip, r7, ip
 800053e:	40f2      	lsrs	r2, r6
 8000540:	ea4c 0202 	orr.w	r2, ip, r2
 8000544:	40f7      	lsrs	r7, r6
 8000546:	e9c5 2700 	strd	r2, r7, [r5]
 800054a:	2600      	movs	r6, #0
 800054c:	4631      	mov	r1, r6
 800054e:	e8bd 87f0 	ldmia.w	sp!, {r4, r5, r6, r7, r8, r9, sl, pc}
 8000552:	462e      	mov	r6, r5
 8000554:	4628      	mov	r0, r5
 8000556:	e70b      	b.n	8000370 <__udivmoddi4+0xa0>
 8000558:	4606      	mov	r6, r0
 800055a:	e6e9      	b.n	8000330 <__udivmoddi4+0x60>
 800055c:	4618      	mov	r0, r3
 800055e:	e6fd      	b.n	800035c <__udivmoddi4+0x8c>
 8000560:	4543      	cmp	r3, r8
 8000562:	d2e5      	bcs.n	8000530 <__udivmoddi4+0x260>
 8000564:	ebb8 0e02 	subs.w	lr, r8, r2
 8000568:	eb69 0104 	sbc.w	r1, r9, r4
 800056c:	3801      	subs	r0, #1
 800056e:	e7df      	b.n	8000530 <__udivmoddi4+0x260>
 8000570:	4608      	mov	r0, r1
 8000572:	e7d2      	b.n	800051a <__udivmoddi4+0x24a>
 8000574:	4660      	mov	r0, ip
 8000576:	e78d      	b.n	8000494 <__udivmoddi4+0x1c4>
 8000578:	4681      	mov	r9, r0
 800057a:	e7b9      	b.n	80004f0 <__udivmoddi4+0x220>
 800057c:	4666      	mov	r6, ip
 800057e:	e775      	b.n	800046c <__udivmoddi4+0x19c>
 8000580:	4630      	mov	r0, r6
 8000582:	e74a      	b.n	800041a <__udivmoddi4+0x14a>
 8000584:	f1ac 0c02 	sub.w	ip, ip, #2
 8000588:	4439      	add	r1, r7
 800058a:	e713      	b.n	80003b4 <__udivmoddi4+0xe4>
 800058c:	3802      	subs	r0, #2
 800058e:	443c      	add	r4, r7
 8000590:	e724      	b.n	80003dc <__udivmoddi4+0x10c>
 8000592:	bf00      	nop

08000594 <__aeabi_idiv0>:
 8000594:	4770      	bx	lr
 8000596:	bf00      	nop

08000598 <FL_Parse>:
 8000598:	b570      	push	{r4, r5, r6, lr}
 800059a:	492f      	ldr	r1, [pc, #188]	; (8000658 <FL_Parse+0xc0>)
 800059c:	4e2e      	ldr	r6, [pc, #184]	; (8000658 <FL_Parse+0xc0>)
 800059e:	b09a      	sub	sp, #104	; 0x68
 80005a0:	f002 fbb0 	bl	8002d04 <strtok>
 80005a4:	4601      	mov	r1, r0
 80005a6:	4604      	mov	r4, r0
 80005a8:	a801      	add	r0, sp, #4
 80005aa:	f002 fb8b 	bl	8002cc4 <siprintf>
 80005ae:	ad01      	add	r5, sp, #4
 80005b0:	4621      	mov	r1, r4
 80005b2:	4628      	mov	r0, r5
 80005b4:	f002 fb86 	bl	8002cc4 <siprintf>
 80005b8:	4631      	mov	r1, r6
 80005ba:	2000      	movs	r0, #0
 80005bc:	f002 fba2 	bl	8002d04 <strtok>
 80005c0:	350a      	adds	r5, #10
 80005c2:	4604      	mov	r4, r0
 80005c4:	2800      	cmp	r0, #0
 80005c6:	d1f3      	bne.n	80005b0 <FL_Parse+0x18>
 80005c8:	4924      	ldr	r1, [pc, #144]	; (800065c <FL_Parse+0xc4>)
 80005ca:	a801      	add	r0, sp, #4
 80005cc:	f7ff fe00 	bl	80001d0 <strcmp>
 80005d0:	b930      	cbnz	r0, 80005e0 <FL_Parse+0x48>
 80005d2:	4923      	ldr	r1, [pc, #140]	; (8000660 <FL_Parse+0xc8>)
 80005d4:	220c      	movs	r2, #12
 80005d6:	4823      	ldr	r0, [pc, #140]	; (8000664 <FL_Parse+0xcc>)
 80005d8:	f002 f8e6 	bl	80027a8 <HAL_UART_Transmit_DMA>
 80005dc:	b01a      	add	sp, #104	; 0x68
 80005de:	bd70      	pop	{r4, r5, r6, pc}
 80005e0:	4921      	ldr	r1, [pc, #132]	; (8000668 <FL_Parse+0xd0>)
 80005e2:	a801      	add	r0, sp, #4
 80005e4:	f7ff fdf4 	bl	80001d0 <strcmp>
 80005e8:	b910      	cbnz	r0, 80005f0 <FL_Parse+0x58>
 80005ea:	4920      	ldr	r1, [pc, #128]	; (800066c <FL_Parse+0xd4>)
 80005ec:	2211      	movs	r2, #17
 80005ee:	e7f2      	b.n	80005d6 <FL_Parse+0x3e>
 80005f0:	491f      	ldr	r1, [pc, #124]	; (8000670 <FL_Parse+0xd8>)
 80005f2:	a801      	add	r0, sp, #4
 80005f4:	f7ff fdec 	bl	80001d0 <strcmp>
 80005f8:	b910      	cbnz	r0, 8000600 <FL_Parse+0x68>
 80005fa:	491e      	ldr	r1, [pc, #120]	; (8000674 <FL_Parse+0xdc>)
 80005fc:	220d      	movs	r2, #13
 80005fe:	e7ea      	b.n	80005d6 <FL_Parse+0x3e>
 8000600:	491d      	ldr	r1, [pc, #116]	; (8000678 <FL_Parse+0xe0>)
 8000602:	a801      	add	r0, sp, #4
 8000604:	f7ff fde4 	bl	80001d0 <strcmp>
 8000608:	b910      	cbnz	r0, 8000610 <FL_Parse+0x78>
 800060a:	491c      	ldr	r1, [pc, #112]	; (800067c <FL_Parse+0xe4>)
 800060c:	220e      	movs	r2, #14
 800060e:	e7e2      	b.n	80005d6 <FL_Parse+0x3e>
 8000610:	491b      	ldr	r1, [pc, #108]	; (8000680 <FL_Parse+0xe8>)
 8000612:	a801      	add	r0, sp, #4
 8000614:	f7ff fddc 	bl	80001d0 <strcmp>
 8000618:	b910      	cbnz	r0, 8000620 <FL_Parse+0x88>
 800061a:	491a      	ldr	r1, [pc, #104]	; (8000684 <FL_Parse+0xec>)
 800061c:	2213      	movs	r2, #19
 800061e:	e7da      	b.n	80005d6 <FL_Parse+0x3e>
 8000620:	4919      	ldr	r1, [pc, #100]	; (8000688 <FL_Parse+0xf0>)
 8000622:	a801      	add	r0, sp, #4
 8000624:	f7ff fdd4 	bl	80001d0 <strcmp>
 8000628:	b910      	cbnz	r0, 8000630 <FL_Parse+0x98>
 800062a:	4918      	ldr	r1, [pc, #96]	; (800068c <FL_Parse+0xf4>)
 800062c:	220d      	movs	r2, #13
 800062e:	e7d2      	b.n	80005d6 <FL_Parse+0x3e>
 8000630:	4917      	ldr	r1, [pc, #92]	; (8000690 <FL_Parse+0xf8>)
 8000632:	a801      	add	r0, sp, #4
 8000634:	f7ff fdcc 	bl	80001d0 <strcmp>
 8000638:	b910      	cbnz	r0, 8000640 <FL_Parse+0xa8>
 800063a:	4916      	ldr	r1, [pc, #88]	; (8000694 <FL_Parse+0xfc>)
 800063c:	220e      	movs	r2, #14
 800063e:	e7ca      	b.n	80005d6 <FL_Parse+0x3e>
 8000640:	4915      	ldr	r1, [pc, #84]	; (8000698 <FL_Parse+0x100>)
 8000642:	a801      	add	r0, sp, #4
 8000644:	f7ff fdc4 	bl	80001d0 <strcmp>
 8000648:	b910      	cbnz	r0, 8000650 <FL_Parse+0xb8>
 800064a:	4914      	ldr	r1, [pc, #80]	; (800069c <FL_Parse+0x104>)
 800064c:	220e      	movs	r2, #14
 800064e:	e7c2      	b.n	80005d6 <FL_Parse+0x3e>
 8000650:	4913      	ldr	r1, [pc, #76]	; (80006a0 <FL_Parse+0x108>)
 8000652:	220b      	movs	r2, #11
 8000654:	e7bf      	b.n	80005d6 <FL_Parse+0x3e>
 8000656:	bf00      	nop
 8000658:	080040bc 	.word	0x080040bc
 800065c:	080040be 	.word	0x080040be
 8000660:	080040c3 	.word	0x080040c3
 8000664:	20013028 	.word	0x20013028
 8000668:	080040d0 	.word	0x080040d0
 800066c:	080040da 	.word	0x080040da
 8000670:	080040ec 	.word	0x080040ec
 8000674:	080040f2 	.word	0x080040f2
 8000678:	08004100 	.word	0x08004100
 800067c:	08004107 	.word	0x08004107
 8000680:	08004116 	.word	0x08004116
 8000684:	08004122 	.word	0x08004122
 8000688:	08004136 	.word	0x08004136
 800068c:	0800413c 	.word	0x0800413c
 8000690:	0800414a 	.word	0x0800414a
 8000694:	08004151 	.word	0x08004151
 8000698:	08004160 	.word	0x08004160
 800069c:	08004167 	.word	0x08004167
 80006a0:	08004176 	.word	0x08004176

080006a4 <MX_DMA_Init>:
 80006a4:	b507      	push	{r0, r1, r2, lr}
 80006a6:	4b18      	ldr	r3, [pc, #96]	; (8000708 <MX_DMA_Init+0x64>)
 80006a8:	2200      	movs	r2, #0
 80006aa:	9200      	str	r2, [sp, #0]
 80006ac:	6b19      	ldr	r1, [r3, #48]	; 0x30
 80006ae:	f441 0180 	orr.w	r1, r1, #4194304	; 0x400000
 80006b2:	6319      	str	r1, [r3, #48]	; 0x30
 80006b4:	6b19      	ldr	r1, [r3, #48]	; 0x30
 80006b6:	f401 0180 	and.w	r1, r1, #4194304	; 0x400000
 80006ba:	9100      	str	r1, [sp, #0]
 80006bc:	9900      	ldr	r1, [sp, #0]
 80006be:	9201      	str	r2, [sp, #4]
 80006c0:	6b19      	ldr	r1, [r3, #48]	; 0x30
 80006c2:	f441 1100 	orr.w	r1, r1, #2097152	; 0x200000
 80006c6:	6319      	str	r1, [r3, #48]	; 0x30
 80006c8:	6b1b      	ldr	r3, [r3, #48]	; 0x30
 80006ca:	f403 1300 	and.w	r3, r3, #2097152	; 0x200000
 80006ce:	4611      	mov	r1, r2
 80006d0:	9301      	str	r3, [sp, #4]
 80006d2:	2010      	movs	r0, #16
 80006d4:	9b01      	ldr	r3, [sp, #4]
 80006d6:	f000 fd0b 	bl	80010f0 <HAL_NVIC_SetPriority>
 80006da:	2010      	movs	r0, #16
 80006dc:	f000 fd3a 	bl	8001154 <HAL_NVIC_EnableIRQ>
 80006e0:	2200      	movs	r2, #0
 80006e2:	4611      	mov	r1, r2
 80006e4:	2011      	movs	r0, #17
 80006e6:	f000 fd03 	bl	80010f0 <HAL_NVIC_SetPriority>
 80006ea:	2011      	movs	r0, #17
 80006ec:	f000 fd32 	bl	8001154 <HAL_NVIC_EnableIRQ>
 80006f0:	2200      	movs	r2, #0
 80006f2:	4611      	mov	r1, r2
 80006f4:	2044      	movs	r0, #68	; 0x44
 80006f6:	f000 fcfb 	bl	80010f0 <HAL_NVIC_SetPriority>
 80006fa:	2044      	movs	r0, #68	; 0x44
 80006fc:	b003      	add	sp, #12
 80006fe:	f85d eb04 	ldr.w	lr, [sp], #4
 8000702:	f000 bd27 	b.w	8001154 <HAL_NVIC_EnableIRQ>
 8000706:	bf00      	nop
 8000708:	40023800 	.word	0x40023800

0800070c <MX_GPIO_Init>:
 800070c:	e92d 41f0 	stmdb	sp!, {r4, r5, r6, r7, r8, lr}
 8000710:	2214      	movs	r2, #20
 8000712:	b08a      	sub	sp, #40	; 0x28
 8000714:	eb0d 0002 	add.w	r0, sp, r2
 8000718:	2100      	movs	r1, #0
 800071a:	f002 facb 	bl	8002cb4 <memset>
 800071e:	2400      	movs	r4, #0
 8000720:	4b28      	ldr	r3, [pc, #160]	; (80007c4 <MX_GPIO_Init+0xb8>)
 8000722:	9401      	str	r4, [sp, #4]
 8000724:	6b1a      	ldr	r2, [r3, #48]	; 0x30
 8000726:	f8df 80a4 	ldr.w	r8, [pc, #164]	; 80007cc <MX_GPIO_Init+0xc0>
 800072a:	4d27      	ldr	r5, [pc, #156]	; (80007c8 <MX_GPIO_Init+0xbc>)
 800072c:	f042 0280 	orr.w	r2, r2, #128	; 0x80
 8000730:	631a      	str	r2, [r3, #48]	; 0x30
 8000732:	6b1a      	ldr	r2, [r3, #48]	; 0x30
 8000734:	f002 0280 	and.w	r2, r2, #128	; 0x80
 8000738:	9201      	str	r2, [sp, #4]
 800073a:	9a01      	ldr	r2, [sp, #4]
 800073c:	9402      	str	r4, [sp, #8]
 800073e:	6b1a      	ldr	r2, [r3, #48]	; 0x30
 8000740:	f042 0201 	orr.w	r2, r2, #1
 8000744:	631a      	str	r2, [r3, #48]	; 0x30
 8000746:	6b1a      	ldr	r2, [r3, #48]	; 0x30
 8000748:	f002 0201 	and.w	r2, r2, #1
 800074c:	9202      	str	r2, [sp, #8]
 800074e:	9a02      	ldr	r2, [sp, #8]
 8000750:	9403      	str	r4, [sp, #12]
 8000752:	6b1a      	ldr	r2, [r3, #48]	; 0x30
 8000754:	f042 0210 	orr.w	r2, r2, #16
 8000758:	631a      	str	r2, [r3, #48]	; 0x30
 800075a:	6b1a      	ldr	r2, [r3, #48]	; 0x30
 800075c:	f002 0210 	and.w	r2, r2, #16
 8000760:	9203      	str	r2, [sp, #12]
 8000762:	9a03      	ldr	r2, [sp, #12]
 8000764:	9404      	str	r4, [sp, #16]
 8000766:	6b1a      	ldr	r2, [r3, #48]	; 0x30
 8000768:	f042 0202 	orr.w	r2, r2, #2
 800076c:	631a      	str	r2, [r3, #48]	; 0x30
 800076e:	6b1b      	ldr	r3, [r3, #48]	; 0x30
 8000770:	f003 0302 	and.w	r3, r3, #2
 8000774:	9304      	str	r3, [sp, #16]
 8000776:	4622      	mov	r2, r4
 8000778:	4640      	mov	r0, r8
 800077a:	f44f 417f 	mov.w	r1, #65280	; 0xff00
 800077e:	9b04      	ldr	r3, [sp, #16]
 8000780:	f000 ffca 	bl	8001718 <HAL_GPIO_WritePin>
 8000784:	4622      	mov	r2, r4
 8000786:	4628      	mov	r0, r5
 8000788:	f44f 5180 	mov.w	r1, #4096	; 0x1000
 800078c:	f000 ffc4 	bl	8001718 <HAL_GPIO_WritePin>
 8000790:	2701      	movs	r7, #1
 8000792:	f44f 437f 	mov.w	r3, #65280	; 0xff00
 8000796:	2603      	movs	r6, #3
 8000798:	a905      	add	r1, sp, #20
 800079a:	4640      	mov	r0, r8
 800079c:	e9cd 3705 	strd	r3, r7, [sp, #20]
 80007a0:	9407      	str	r4, [sp, #28]
 80007a2:	9608      	str	r6, [sp, #32]
 80007a4:	f000 fede 	bl	8001564 <HAL_GPIO_Init>
 80007a8:	f44f 5380 	mov.w	r3, #4096	; 0x1000
 80007ac:	a905      	add	r1, sp, #20
 80007ae:	4628      	mov	r0, r5
 80007b0:	e9cd 3705 	strd	r3, r7, [sp, #20]
 80007b4:	e9cd 4607 	strd	r4, r6, [sp, #28]
 80007b8:	f000 fed4 	bl	8001564 <HAL_GPIO_Init>
 80007bc:	b00a      	add	sp, #40	; 0x28
 80007be:	e8bd 81f0 	ldmia.w	sp!, {r4, r5, r6, r7, r8, pc}
 80007c2:	bf00      	nop
 80007c4:	40023800 	.word	0x40023800
 80007c8:	40020400 	.word	0x40020400
 80007cc:	40021000 	.word	0x40021000

080007d0 <SystemClock_Config>:
 80007d0:	b530      	push	{r4, r5, lr}
 80007d2:	b095      	sub	sp, #84	; 0x54
 80007d4:	2210      	movs	r2, #16
 80007d6:	2100      	movs	r1, #0
 80007d8:	a80a      	add	r0, sp, #40	; 0x28
 80007da:	f002 fa6b 	bl	8002cb4 <memset>
 80007de:	2100      	movs	r1, #0
 80007e0:	2214      	movs	r2, #20
 80007e2:	a803      	add	r0, sp, #12
 80007e4:	f002 fa66 	bl	8002cb4 <memset>
 80007e8:	2400      	movs	r4, #0
 80007ea:	4b1c      	ldr	r3, [pc, #112]	; (800085c <SystemClock_Config+0x8c>)
 80007ec:	9401      	str	r4, [sp, #4]
 80007ee:	6c1a      	ldr	r2, [r3, #64]	; 0x40
 80007f0:	f042 5280 	orr.w	r2, r2, #268435456	; 0x10000000
 80007f4:	641a      	str	r2, [r3, #64]	; 0x40
 80007f6:	6c1b      	ldr	r3, [r3, #64]	; 0x40
 80007f8:	f003 5380 	and.w	r3, r3, #268435456	; 0x10000000
 80007fc:	9301      	str	r3, [sp, #4]
 80007fe:	9b01      	ldr	r3, [sp, #4]
 8000800:	4b17      	ldr	r3, [pc, #92]	; (8000860 <SystemClock_Config+0x90>)
 8000802:	9402      	str	r4, [sp, #8]
 8000804:	681a      	ldr	r2, [r3, #0]
 8000806:	f442 4280 	orr.w	r2, r2, #16384	; 0x4000
 800080a:	601a      	str	r2, [r3, #0]
 800080c:	681b      	ldr	r3, [r3, #0]
 800080e:	f403 4380 	and.w	r3, r3, #16384	; 0x4000
 8000812:	9302      	str	r3, [sp, #8]
 8000814:	9b02      	ldr	r3, [sp, #8]
 8000816:	2201      	movs	r2, #1
 8000818:	f44f 3380 	mov.w	r3, #65536	; 0x10000
 800081c:	e9cd 2308 	strd	r2, r3, [sp, #32]
 8000820:	2502      	movs	r5, #2
 8000822:	f44f 0380 	mov.w	r3, #4194304	; 0x400000
 8000826:	22a8      	movs	r2, #168	; 0xa8
 8000828:	e9cd 530e 	strd	r5, r3, [sp, #56]	; 0x38
 800082c:	a808      	add	r0, sp, #32
 800082e:	2304      	movs	r3, #4
 8000830:	e9cd 3210 	strd	r3, r2, [sp, #64]	; 0x40
 8000834:	e9cd 5312 	strd	r5, r3, [sp, #72]	; 0x48
 8000838:	f000 ff74 	bl	8001724 <HAL_RCC_OscConfig>
 800083c:	230f      	movs	r3, #15
 800083e:	e9cd 3503 	strd	r3, r5, [sp, #12]
 8000842:	f44f 51a0 	mov.w	r1, #5120	; 0x1400
 8000846:	f44f 5380 	mov.w	r3, #4096	; 0x1000
 800084a:	e9cd 1306 	strd	r1, r3, [sp, #24]
 800084e:	a803      	add	r0, sp, #12
 8000850:	2105      	movs	r1, #5
 8000852:	9405      	str	r4, [sp, #20]
 8000854:	f001 f940 	bl	8001ad8 <HAL_RCC_ClockConfig>
 8000858:	b015      	add	sp, #84	; 0x54
 800085a:	bd30      	pop	{r4, r5, pc}
 800085c:	40023800 	.word	0x40023800
 8000860:	40007000 	.word	0x40007000

08000864 <main>:
 8000864:	b508      	push	{r3, lr}
 8000866:	f000 fc05 	bl	8001074 <HAL_Init>
 800086a:	f7ff ffb1 	bl	80007d0 <SystemClock_Config>
 800086e:	f7ff ff4d 	bl	800070c <MX_GPIO_Init>
 8000872:	f7ff ff17 	bl	80006a4 <MX_DMA_Init>
 8000876:	f000 f9ab 	bl	8000bd0 <MX_TIM1_Init>
 800087a:	f000 fa61 	bl	8000d40 <MX_TIM2_Init>
 800087e:	f000 faa7 	bl	8000dd0 <MX_USART2_UART_Init>
 8000882:	f000 f831 	bl	80008e8 <UB_VGA_Screen_Init>
 8000886:	20ff      	movs	r0, #255	; 0xff
 8000888:	f000 f886 	bl	8000998 <UB_VGA_FillScreen>
 800088c:	220a      	movs	r2, #10
 800088e:	4611      	mov	r1, r2
 8000890:	4610      	mov	r0, r2
 8000892:	f000 f86f 	bl	8000974 <UB_VGA_SetPixel>
 8000896:	2100      	movs	r1, #0
 8000898:	4c0f      	ldr	r4, [pc, #60]	; (80008d8 <main+0x74>)
 800089a:	4608      	mov	r0, r1
 800089c:	220a      	movs	r2, #10
 800089e:	f000 f869 	bl	8000974 <UB_VGA_SetPixel>
 80008a2:	220a      	movs	r2, #10
 80008a4:	2100      	movs	r1, #0
 80008a6:	f240 103f 	movw	r0, #319	; 0x13f
 80008aa:	f000 f863 	bl	8000974 <UB_VGA_SetPixel>
 80008ae:	6822      	ldr	r2, [r4, #0]
 80008b0:	490a      	ldr	r1, [pc, #40]	; (80008dc <main+0x78>)
 80008b2:	68d3      	ldr	r3, [r2, #12]
 80008b4:	f043 0310 	orr.w	r3, r3, #16
 80008b8:	60d3      	str	r3, [r2, #12]
 80008ba:	4620      	mov	r0, r4
 80008bc:	2280      	movs	r2, #128	; 0x80
 80008be:	f002 f9b7 	bl	8002c30 <HAL_UART_Receive_DMA>
 80008c2:	4807      	ldr	r0, [pc, #28]	; (80008e0 <main+0x7c>)
 80008c4:	f7ff fc8e 	bl	80001e4 <strlen>
 80008c8:	4905      	ldr	r1, [pc, #20]	; (80008e0 <main+0x7c>)
 80008ca:	b282      	uxth	r2, r0
 80008cc:	2364      	movs	r3, #100	; 0x64
 80008ce:	4620      	mov	r0, r4
 80008d0:	f001 ff14 	bl	80026fc <HAL_UART_Transmit>
 80008d4:	e7fe      	b.n	80008d4 <main+0x70>
 80008d6:	bf00      	nop
 80008d8:	20013028 	.word	0x20013028
 80008dc:	20012ea8 	.word	0x20012ea8
 80008e0:	20000000 	.word	0x20000000

080008e4 <Error_Handler>:
 80008e4:	4770      	bx	lr
	...

080008e8 <UB_VGA_Screen_Init>:
 80008e8:	b538      	push	{r3, r4, r5, lr}
 80008ea:	4c1b      	ldr	r4, [pc, #108]	; (8000958 <UB_VGA_Screen_Init+0x70>)
 80008ec:	4d1b      	ldr	r5, [pc, #108]	; (800095c <UB_VGA_Screen_Init+0x74>)
 80008ee:	2300      	movs	r3, #0
 80008f0:	e9c4 3301 	strd	r3, r3, [r4, #4]
 80008f4:	8023      	strh	r3, [r4, #0]
 80008f6:	f103 4380 	add.w	r3, r3, #1073741824	; 0x40000000
 80008fa:	f503 3301 	add.w	r3, r3, #132096	; 0x20400
 80008fe:	f44f 5280 	mov.w	r2, #4096	; 0x1000
 8000902:	619a      	str	r2, [r3, #24]
 8000904:	4628      	mov	r0, r5
 8000906:	f001 fa31 	bl	8001d6c <HAL_TIM_Base_Start>
 800090a:	210c      	movs	r1, #12
 800090c:	4628      	mov	r0, r5
 800090e:	f001 fd6d 	bl	80023ec <HAL_TIM_PWM_Start>
 8000912:	2108      	movs	r1, #8
 8000914:	4628      	mov	r0, r5
 8000916:	f001 fde5 	bl	80024e4 <HAL_TIM_PWM_Start_IT>
 800091a:	4b11      	ldr	r3, [pc, #68]	; (8000960 <UB_VGA_Screen_Init+0x78>)
 800091c:	4d11      	ldr	r5, [pc, #68]	; (8000964 <UB_VGA_Screen_Init+0x7c>)
 800091e:	681b      	ldr	r3, [r3, #0]
 8000920:	4911      	ldr	r1, [pc, #68]	; (8000968 <UB_VGA_Screen_Init+0x80>)
 8000922:	68da      	ldr	r2, [r3, #12]
 8000924:	f442 7280 	orr.w	r2, r2, #256	; 0x100
 8000928:	60da      	str	r2, [r3, #12]
 800092a:	681a      	ldr	r2, [r3, #0]
 800092c:	f042 0201 	orr.w	r2, r2, #1
 8000930:	601a      	str	r2, [r3, #0]
 8000932:	4628      	mov	r0, r5
 8000934:	4a0d      	ldr	r2, [pc, #52]	; (800096c <UB_VGA_Screen_Init+0x84>)
 8000936:	f240 1341 	movw	r3, #321	; 0x141
 800093a:	f000 fcc5 	bl	80012c8 <HAL_DMA_Start_IT>
 800093e:	4628      	mov	r0, r5
 8000940:	f000 fc42 	bl	80011c8 <HAL_DMA_Init>
 8000944:	682a      	ldr	r2, [r5, #0]
 8000946:	6813      	ldr	r3, [r2, #0]
 8000948:	f043 0310 	orr.w	r3, r3, #16
 800094c:	6013      	str	r3, [r2, #0]
 800094e:	4b08      	ldr	r3, [pc, #32]	; (8000970 <UB_VGA_Screen_Init+0x88>)
 8000950:	681b      	ldr	r3, [r3, #0]
 8000952:	60a3      	str	r3, [r4, #8]
 8000954:	bd38      	pop	{r3, r4, r5, pc}
 8000956:	bf00      	nop
 8000958:	200000bc 	.word	0x200000bc
 800095c:	20012e60 	.word	0x20012e60
 8000960:	20012db8 	.word	0x20012db8
 8000964:	20012e00 	.word	0x20012e00
 8000968:	200000c8 	.word	0x200000c8
 800096c:	40021015 	.word	0x40021015
 8000970:	40026488 	.word	0x40026488

08000974 <UB_VGA_SetPixel>:
 8000974:	4b07      	ldr	r3, [pc, #28]	; (8000994 <UB_VGA_SetPixel+0x20>)
 8000976:	b510      	push	{r4, lr}
 8000978:	29ef      	cmp	r1, #239	; 0xef
 800097a:	bf88      	it	hi
 800097c:	2100      	movhi	r1, #0
 800097e:	f240 1441 	movw	r4, #321	; 0x141
 8000982:	f5b0 7fa0 	cmp.w	r0, #320	; 0x140
 8000986:	bf28      	it	cs
 8000988:	2000      	movcs	r0, #0
 800098a:	fb04 3101 	mla	r1, r4, r1, r3
 800098e:	540a      	strb	r2, [r1, r0]
 8000990:	bd10      	pop	{r4, pc}
 8000992:	bf00      	nop
 8000994:	200000c8 	.word	0x200000c8

08000998 <UB_VGA_FillScreen>:
 8000998:	b538      	push	{r3, r4, r5, lr}
 800099a:	4602      	mov	r2, r0
 800099c:	2400      	movs	r4, #0
 800099e:	2500      	movs	r5, #0
 80009a0:	b2a8      	uxth	r0, r5
 80009a2:	4621      	mov	r1, r4
 80009a4:	3501      	adds	r5, #1
 80009a6:	f7ff ffe5 	bl	8000974 <UB_VGA_SetPixel>
 80009aa:	f5b5 7fa0 	cmp.w	r5, #320	; 0x140
 80009ae:	d1f7      	bne.n	80009a0 <UB_VGA_FillScreen+0x8>
 80009b0:	3401      	adds	r4, #1
 80009b2:	b2a4      	uxth	r4, r4
 80009b4:	2cf0      	cmp	r4, #240	; 0xf0
 80009b6:	d1f2      	bne.n	800099e <UB_VGA_FillScreen+0x6>
 80009b8:	bd38      	pop	{r3, r4, r5, pc}
	...

080009bc <HAL_MspInit>:
 80009bc:	b082      	sub	sp, #8
 80009be:	4b0c      	ldr	r3, [pc, #48]	; (80009f0 <HAL_MspInit+0x34>)
 80009c0:	2100      	movs	r1, #0
 80009c2:	9100      	str	r1, [sp, #0]
 80009c4:	6c5a      	ldr	r2, [r3, #68]	; 0x44
 80009c6:	f442 4280 	orr.w	r2, r2, #16384	; 0x4000
 80009ca:	645a      	str	r2, [r3, #68]	; 0x44
 80009cc:	6c5a      	ldr	r2, [r3, #68]	; 0x44
 80009ce:	f402 4280 	and.w	r2, r2, #16384	; 0x4000
 80009d2:	9200      	str	r2, [sp, #0]
 80009d4:	9a00      	ldr	r2, [sp, #0]
 80009d6:	9101      	str	r1, [sp, #4]
 80009d8:	6c1a      	ldr	r2, [r3, #64]	; 0x40
 80009da:	f042 5280 	orr.w	r2, r2, #268435456	; 0x10000000
 80009de:	641a      	str	r2, [r3, #64]	; 0x40
 80009e0:	6c1b      	ldr	r3, [r3, #64]	; 0x40
 80009e2:	f003 5380 	and.w	r3, r3, #268435456	; 0x10000000
 80009e6:	9301      	str	r3, [sp, #4]
 80009e8:	9b01      	ldr	r3, [sp, #4]
 80009ea:	b002      	add	sp, #8
 80009ec:	4770      	bx	lr
 80009ee:	bf00      	nop
 80009f0:	40023800 	.word	0x40023800

080009f4 <NMI_Handler>:
 80009f4:	4770      	bx	lr

080009f6 <HardFault_Handler>:
 80009f6:	e7fe      	b.n	80009f6 <HardFault_Handler>

080009f8 <MemManage_Handler>:
 80009f8:	e7fe      	b.n	80009f8 <MemManage_Handler>

080009fa <BusFault_Handler>:
 80009fa:	e7fe      	b.n	80009fa <BusFault_Handler>

080009fc <UsageFault_Handler>:
 80009fc:	e7fe      	b.n	80009fc <UsageFault_Handler>

080009fe <SVC_Handler>:
 80009fe:	4770      	bx	lr

08000a00 <DebugMon_Handler>:
 8000a00:	4770      	bx	lr

08000a02 <PendSV_Handler>:
 8000a02:	4770      	bx	lr

08000a04 <SysTick_Handler>:
 8000a04:	f000 bb50 	b.w	80010a8 <HAL_IncTick>

08000a08 <DMA1_Stream5_IRQHandler>:
 8000a08:	4801      	ldr	r0, [pc, #4]	; (8000a10 <DMA1_Stream5_IRQHandler+0x8>)
 8000a0a:	f000 bced 	b.w	80013e8 <HAL_DMA_IRQHandler>
 8000a0e:	bf00      	nop
 8000a10:	20012f28 	.word	0x20012f28

08000a14 <DMA1_Stream6_IRQHandler>:
 8000a14:	4801      	ldr	r0, [pc, #4]	; (8000a1c <DMA1_Stream6_IRQHandler+0x8>)
 8000a16:	f000 bce7 	b.w	80013e8 <HAL_DMA_IRQHandler>
 8000a1a:	bf00      	nop
 8000a1c:	20012f88 	.word	0x20012f88

08000a20 <TIM2_IRQHandler>:
 8000a20:	b510      	push	{r4, lr}
 8000a22:	4c1d      	ldr	r4, [pc, #116]	; (8000a98 <TIM2_IRQHandler+0x78>)
 8000a24:	4620      	mov	r0, r4
 8000a26:	f001 f9dc 	bl	8001de2 <HAL_TIM_IRQHandler>
 8000a2a:	6823      	ldr	r3, [r4, #0]
 8000a2c:	f06f 0208 	mvn.w	r2, #8
 8000a30:	611a      	str	r2, [r3, #16]
 8000a32:	4b1a      	ldr	r3, [pc, #104]	; (8000a9c <TIM2_IRQHandler+0x7c>)
 8000a34:	881a      	ldrh	r2, [r3, #0]
 8000a36:	3201      	adds	r2, #1
 8000a38:	b292      	uxth	r2, r2
 8000a3a:	f5b2 7f03 	cmp.w	r2, #524	; 0x20c
 8000a3e:	bf86      	itte	hi
 8000a40:	2200      	movhi	r2, #0
 8000a42:	801a      	strhhi	r2, [r3, #0]
 8000a44:	801a      	strhls	r2, [r3, #0]
 8000a46:	8819      	ldrh	r1, [r3, #0]
 8000a48:	bf84      	itt	hi
 8000a4a:	4a15      	ldrhi	r2, [pc, #84]	; (8000aa0 <TIM2_IRQHandler+0x80>)
 8000a4c:	605a      	strhi	r2, [r3, #4]
 8000a4e:	2902      	cmp	r1, #2
 8000a50:	4a14      	ldr	r2, [pc, #80]	; (8000aa4 <TIM2_IRQHandler+0x84>)
 8000a52:	bf34      	ite	cc
 8000a54:	f04f 5080 	movcc.w	r0, #268435456	; 0x10000000
 8000a58:	f44f 5080 	movcs.w	r0, #4096	; 0x1000
 8000a5c:	6190      	str	r0, [r2, #24]
 8000a5e:	f1a1 0224 	sub.w	r2, r1, #36	; 0x24
 8000a62:	f5b2 7fef 	cmp.w	r2, #478	; 0x1de
 8000a66:	d815      	bhi.n	8000a94 <TIM2_IRQHandler+0x74>
 8000a68:	480f      	ldr	r0, [pc, #60]	; (8000aa8 <TIM2_IRQHandler+0x88>)
 8000a6a:	689a      	ldr	r2, [r3, #8]
 8000a6c:	6002      	str	r2, [r0, #0]
 8000a6e:	685a      	ldr	r2, [r3, #4]
 8000a70:	4c0e      	ldr	r4, [pc, #56]	; (8000aac <TIM2_IRQHandler+0x8c>)
 8000a72:	60c2      	str	r2, [r0, #12]
 8000a74:	6820      	ldr	r0, [r4, #0]
 8000a76:	f040 0001 	orr.w	r0, r0, #1
 8000a7a:	6020      	str	r0, [r4, #0]
 8000a7c:	480c      	ldr	r0, [pc, #48]	; (8000ab0 <TIM2_IRQHandler+0x90>)
 8000a7e:	6804      	ldr	r4, [r0, #0]
 8000a80:	6820      	ldr	r0, [r4, #0]
 8000a82:	07c9      	lsls	r1, r1, #31
 8000a84:	f040 0001 	orr.w	r0, r0, #1
 8000a88:	bf48      	it	mi
 8000a8a:	f202 1241 	addwmi	r2, r2, #321	; 0x141
 8000a8e:	6020      	str	r0, [r4, #0]
 8000a90:	bf48      	it	mi
 8000a92:	605a      	strmi	r2, [r3, #4]
 8000a94:	bd10      	pop	{r4, pc}
 8000a96:	bf00      	nop
 8000a98:	20012e60 	.word	0x20012e60
 8000a9c:	200000bc 	.word	0x200000bc
 8000aa0:	200000c8 	.word	0x200000c8
 8000aa4:	40020400 	.word	0x40020400
 8000aa8:	40026488 	.word	0x40026488
 8000aac:	40010000 	.word	0x40010000
 8000ab0:	20012e00 	.word	0x20012e00

08000ab4 <USART2_IRQHandler>:
 8000ab4:	b510      	push	{r4, lr}
 8000ab6:	4c07      	ldr	r4, [pc, #28]	; (8000ad4 <USART2_IRQHandler+0x20>)
 8000ab8:	4620      	mov	r0, r4
 8000aba:	f001 ff49 	bl	8002950 <HAL_UART_IRQHandler>
 8000abe:	6823      	ldr	r3, [r4, #0]
 8000ac0:	681b      	ldr	r3, [r3, #0]
 8000ac2:	06db      	lsls	r3, r3, #27
 8000ac4:	d504      	bpl.n	8000ad0 <USART2_IRQHandler+0x1c>
 8000ac6:	4620      	mov	r0, r4
 8000ac8:	e8bd 4010 	ldmia.w	sp!, {r4, lr}
 8000acc:	f000 ba18 	b.w	8000f00 <HAL_UART_RxCpltCallback>
 8000ad0:	bd10      	pop	{r4, pc}
 8000ad2:	bf00      	nop
 8000ad4:	20013028 	.word	0x20013028

08000ad8 <DMA2_Stream5_IRQHandler>:
 8000ad8:	4b0b      	ldr	r3, [pc, #44]	; (8000b08 <DMA2_Stream5_IRQHandler+0x30>)
 8000ada:	681b      	ldr	r3, [r3, #0]
 8000adc:	6a19      	ldr	r1, [r3, #32]
 8000ade:	f241 1211 	movw	r2, #4369	; 0x1111
 8000ae2:	4211      	tst	r1, r2
 8000ae4:	d108      	bne.n	8000af8 <DMA2_Stream5_IRQHandler+0x20>
 8000ae6:	6a19      	ldr	r1, [r3, #32]
 8000ae8:	f240 4244 	movw	r2, #1092	; 0x444
 8000aec:	4211      	tst	r1, r2
 8000aee:	bf02      	ittt	eq
 8000af0:	681a      	ldreq	r2, [r3, #0]
 8000af2:	f022 0201 	biceq.w	r2, r2, #1
 8000af6:	601a      	streq	r2, [r3, #0]
 8000af8:	4b04      	ldr	r3, [pc, #16]	; (8000b0c <DMA2_Stream5_IRQHandler+0x34>)
 8000afa:	4805      	ldr	r0, [pc, #20]	; (8000b10 <DMA2_Stream5_IRQHandler+0x38>)
 8000afc:	f04f 427f 	mov.w	r2, #4278190080	; 0xff000000
 8000b00:	619a      	str	r2, [r3, #24]
 8000b02:	f000 bc71 	b.w	80013e8 <HAL_DMA_IRQHandler>
 8000b06:	bf00      	nop
 8000b08:	20012db8 	.word	0x20012db8
 8000b0c:	40021000 	.word	0x40021000
 8000b10:	20012e00 	.word	0x20012e00

08000b14 <_getpid>:
 8000b14:	2001      	movs	r0, #1
 8000b16:	4770      	bx	lr

08000b18 <_kill>:
 8000b18:	b508      	push	{r3, lr}
 8000b1a:	f002 f8a1 	bl	8002c60 <__errno>
 8000b1e:	2316      	movs	r3, #22
 8000b20:	6003      	str	r3, [r0, #0]
 8000b22:	f04f 30ff 	mov.w	r0, #4294967295
 8000b26:	bd08      	pop	{r3, pc}

08000b28 <_exit>:
 8000b28:	b508      	push	{r3, lr}
 8000b2a:	f002 f899 	bl	8002c60 <__errno>
 8000b2e:	2316      	movs	r3, #22
 8000b30:	6003      	str	r3, [r0, #0]
 8000b32:	e7fe      	b.n	8000b32 <_exit+0xa>

08000b34 <_read>:
 8000b34:	b570      	push	{r4, r5, r6, lr}
 8000b36:	460e      	mov	r6, r1
 8000b38:	4614      	mov	r4, r2
 8000b3a:	2500      	movs	r5, #0
 8000b3c:	42a5      	cmp	r5, r4
 8000b3e:	db01      	blt.n	8000b44 <_read+0x10>
 8000b40:	4620      	mov	r0, r4
 8000b42:	bd70      	pop	{r4, r5, r6, pc}
 8000b44:	f3af 8000 	nop.w
 8000b48:	5570      	strb	r0, [r6, r5]
 8000b4a:	3501      	adds	r5, #1
 8000b4c:	e7f6      	b.n	8000b3c <_read+0x8>

08000b4e <_write>:
 8000b4e:	b570      	push	{r4, r5, r6, lr}
 8000b50:	460e      	mov	r6, r1
 8000b52:	4614      	mov	r4, r2
 8000b54:	2500      	movs	r5, #0
 8000b56:	42a5      	cmp	r5, r4
 8000b58:	db01      	blt.n	8000b5e <_write+0x10>
 8000b5a:	4620      	mov	r0, r4
 8000b5c:	bd70      	pop	{r4, r5, r6, pc}
 8000b5e:	5d70      	ldrb	r0, [r6, r5]
 8000b60:	f3af 8000 	nop.w
 8000b64:	3501      	adds	r5, #1
 8000b66:	e7f6      	b.n	8000b56 <_write+0x8>

08000b68 <_close>:
 8000b68:	f04f 30ff 	mov.w	r0, #4294967295
 8000b6c:	4770      	bx	lr

08000b6e <_fstat>:
 8000b6e:	f44f 5300 	mov.w	r3, #8192	; 0x2000
 8000b72:	604b      	str	r3, [r1, #4]
 8000b74:	2000      	movs	r0, #0
 8000b76:	4770      	bx	lr

08000b78 <_isatty>:
 8000b78:	2001      	movs	r0, #1
 8000b7a:	4770      	bx	lr

08000b7c <_lseek>:
 8000b7c:	2000      	movs	r0, #0
 8000b7e:	4770      	bx	lr

08000b80 <_sbrk>:
 8000b80:	b508      	push	{r3, lr}
 8000b82:	4b0a      	ldr	r3, [pc, #40]	; (8000bac <_sbrk+0x2c>)
 8000b84:	6819      	ldr	r1, [r3, #0]
 8000b86:	4602      	mov	r2, r0
 8000b88:	b909      	cbnz	r1, 8000b8e <_sbrk+0xe>
 8000b8a:	4909      	ldr	r1, [pc, #36]	; (8000bb0 <_sbrk+0x30>)
 8000b8c:	6019      	str	r1, [r3, #0]
 8000b8e:	6818      	ldr	r0, [r3, #0]
 8000b90:	4669      	mov	r1, sp
 8000b92:	4402      	add	r2, r0
 8000b94:	428a      	cmp	r2, r1
 8000b96:	d906      	bls.n	8000ba6 <_sbrk+0x26>
 8000b98:	f002 f862 	bl	8002c60 <__errno>
 8000b9c:	230c      	movs	r3, #12
 8000b9e:	6003      	str	r3, [r0, #0]
 8000ba0:	f04f 30ff 	mov.w	r0, #4294967295
 8000ba4:	bd08      	pop	{r3, pc}
 8000ba6:	601a      	str	r2, [r3, #0]
 8000ba8:	e7fc      	b.n	8000ba4 <_sbrk+0x24>
 8000baa:	bf00      	nop
 8000bac:	200000ac 	.word	0x200000ac
 8000bb0:	20013080 	.word	0x20013080

08000bb4 <SystemInit>:
 8000bb4:	4b05      	ldr	r3, [pc, #20]	; (8000bcc <SystemInit+0x18>)
 8000bb6:	f8d3 2088 	ldr.w	r2, [r3, #136]	; 0x88
 8000bba:	f442 0270 	orr.w	r2, r2, #15728640	; 0xf00000
 8000bbe:	f8c3 2088 	str.w	r2, [r3, #136]	; 0x88
 8000bc2:	f04f 6200 	mov.w	r2, #134217728	; 0x8000000
 8000bc6:	609a      	str	r2, [r3, #8]
 8000bc8:	4770      	bx	lr
 8000bca:	bf00      	nop
 8000bcc:	e000ed00 	.word	0xe000ed00

08000bd0 <MX_TIM1_Init>:
 8000bd0:	b57f      	push	{r0, r1, r2, r3, r4, r5, r6, lr}
 8000bd2:	2210      	movs	r2, #16
 8000bd4:	2100      	movs	r1, #0
 8000bd6:	a802      	add	r0, sp, #8
 8000bd8:	f002 f86c 	bl	8002cb4 <memset>
 8000bdc:	4814      	ldr	r0, [pc, #80]	; (8000c30 <MX_TIM1_Init+0x60>)
 8000bde:	4a15      	ldr	r2, [pc, #84]	; (8000c34 <MX_TIM1_Init+0x64>)
 8000be0:	2300      	movs	r3, #0
 8000be2:	e9c0 2300 	strd	r2, r3, [r0]
 8000be6:	220b      	movs	r2, #11
 8000be8:	e9cd 3300 	strd	r3, r3, [sp]
 8000bec:	e9c0 2303 	strd	r2, r3, [r0, #12]
 8000bf0:	e9c0 3305 	strd	r3, r3, [r0, #20]
 8000bf4:	6083      	str	r3, [r0, #8]
 8000bf6:	f001 f9fd 	bl	8001ff4 <HAL_TIM_Base_Init>
 8000bfa:	b108      	cbz	r0, 8000c00 <MX_TIM1_Init+0x30>
 8000bfc:	f7ff fe72 	bl	80008e4 <Error_Handler>
 8000c00:	f44f 5380 	mov.w	r3, #4096	; 0x1000
 8000c04:	480a      	ldr	r0, [pc, #40]	; (8000c30 <MX_TIM1_Init+0x60>)
 8000c06:	9302      	str	r3, [sp, #8]
 8000c08:	a902      	add	r1, sp, #8
 8000c0a:	f001 fae6 	bl	80021da <HAL_TIM_ConfigClockSource>
 8000c0e:	b108      	cbz	r0, 8000c14 <MX_TIM1_Init+0x44>
 8000c10:	f7ff fe68 	bl	80008e4 <Error_Handler>
 8000c14:	2300      	movs	r3, #0
 8000c16:	4806      	ldr	r0, [pc, #24]	; (8000c30 <MX_TIM1_Init+0x60>)
 8000c18:	4669      	mov	r1, sp
 8000c1a:	e9cd 3300 	strd	r3, r3, [sp]
 8000c1e:	f001 fc63 	bl	80024e8 <HAL_TIMEx_MasterConfigSynchronization>
 8000c22:	b108      	cbz	r0, 8000c28 <MX_TIM1_Init+0x58>
 8000c24:	f7ff fe5e 	bl	80008e4 <Error_Handler>
 8000c28:	b007      	add	sp, #28
 8000c2a:	f85d fb04 	ldr.w	pc, [sp], #4
 8000c2e:	bf00      	nop
 8000c30:	20012db8 	.word	0x20012db8
 8000c34:	40010000 	.word	0x40010000

08000c38 <HAL_TIM_Base_MspInit>:
 8000c38:	b537      	push	{r0, r1, r2, r4, r5, lr}
 8000c3a:	4b17      	ldr	r3, [pc, #92]	; (8000c98 <HAL_TIM_Base_MspInit+0x60>)
 8000c3c:	6802      	ldr	r2, [r0, #0]
 8000c3e:	429a      	cmp	r2, r3
 8000c40:	4605      	mov	r5, r0
 8000c42:	d126      	bne.n	8000c92 <HAL_TIM_Base_MspInit+0x5a>
 8000c44:	2300      	movs	r3, #0
 8000c46:	4a15      	ldr	r2, [pc, #84]	; (8000c9c <HAL_TIM_Base_MspInit+0x64>)
 8000c48:	9301      	str	r3, [sp, #4]
 8000c4a:	6c51      	ldr	r1, [r2, #68]	; 0x44
 8000c4c:	4c14      	ldr	r4, [pc, #80]	; (8000ca0 <HAL_TIM_Base_MspInit+0x68>)
 8000c4e:	f041 0101 	orr.w	r1, r1, #1
 8000c52:	6451      	str	r1, [r2, #68]	; 0x44
 8000c54:	6c52      	ldr	r2, [r2, #68]	; 0x44
 8000c56:	4913      	ldr	r1, [pc, #76]	; (8000ca4 <HAL_TIM_Base_MspInit+0x6c>)
 8000c58:	f002 0201 	and.w	r2, r2, #1
 8000c5c:	9201      	str	r2, [sp, #4]
 8000c5e:	9a01      	ldr	r2, [sp, #4]
 8000c60:	f04f 6240 	mov.w	r2, #201326592	; 0xc000000
 8000c64:	e9c4 1200 	strd	r1, r2, [r4]
 8000c68:	2240      	movs	r2, #64	; 0x40
 8000c6a:	e9c4 2302 	strd	r2, r3, [r4, #8]
 8000c6e:	f44f 6280 	mov.w	r2, #1024	; 0x400
 8000c72:	e9c4 2304 	strd	r2, r3, [r4, #16]
 8000c76:	4620      	mov	r0, r4
 8000c78:	f44f 3240 	mov.w	r2, #196608	; 0x30000
 8000c7c:	e9c4 3306 	strd	r3, r3, [r4, #24]
 8000c80:	e9c4 2308 	strd	r2, r3, [r4, #32]
 8000c84:	f000 faa0 	bl	80011c8 <HAL_DMA_Init>
 8000c88:	b108      	cbz	r0, 8000c8e <HAL_TIM_Base_MspInit+0x56>
 8000c8a:	f7ff fe2b 	bl	80008e4 <Error_Handler>
 8000c8e:	622c      	str	r4, [r5, #32]
 8000c90:	63a5      	str	r5, [r4, #56]	; 0x38
 8000c92:	b003      	add	sp, #12
 8000c94:	bd30      	pop	{r4, r5, pc}
 8000c96:	bf00      	nop
 8000c98:	40010000 	.word	0x40010000
 8000c9c:	40023800 	.word	0x40023800
 8000ca0:	20012e00 	.word	0x20012e00
 8000ca4:	40026488 	.word	0x40026488

08000ca8 <HAL_TIM_PWM_MspInit>:
 8000ca8:	6803      	ldr	r3, [r0, #0]
 8000caa:	f1b3 4f80 	cmp.w	r3, #1073741824	; 0x40000000
 8000cae:	b507      	push	{r0, r1, r2, lr}
 8000cb0:	d116      	bne.n	8000ce0 <HAL_TIM_PWM_MspInit+0x38>
 8000cb2:	2200      	movs	r2, #0
 8000cb4:	f503 330e 	add.w	r3, r3, #145408	; 0x23800
 8000cb8:	9201      	str	r2, [sp, #4]
 8000cba:	6c19      	ldr	r1, [r3, #64]	; 0x40
 8000cbc:	f041 0101 	orr.w	r1, r1, #1
 8000cc0:	6419      	str	r1, [r3, #64]	; 0x40
 8000cc2:	6c1b      	ldr	r3, [r3, #64]	; 0x40
 8000cc4:	f003 0301 	and.w	r3, r3, #1
 8000cc8:	9301      	str	r3, [sp, #4]
 8000cca:	4611      	mov	r1, r2
 8000ccc:	201c      	movs	r0, #28
 8000cce:	9b01      	ldr	r3, [sp, #4]
 8000cd0:	f000 fa0e 	bl	80010f0 <HAL_NVIC_SetPriority>
 8000cd4:	201c      	movs	r0, #28
 8000cd6:	b003      	add	sp, #12
 8000cd8:	f85d eb04 	ldr.w	lr, [sp], #4
 8000cdc:	f000 ba3a 	b.w	8001154 <HAL_NVIC_EnableIRQ>
 8000ce0:	b003      	add	sp, #12
 8000ce2:	f85d fb04 	ldr.w	pc, [sp], #4
	...

08000ce8 <HAL_TIM_MspPostInit>:
 8000ce8:	b510      	push	{r4, lr}
 8000cea:	4604      	mov	r4, r0
 8000cec:	b086      	sub	sp, #24
 8000cee:	2214      	movs	r2, #20
 8000cf0:	2100      	movs	r1, #0
 8000cf2:	a801      	add	r0, sp, #4
 8000cf4:	f001 ffde 	bl	8002cb4 <memset>
 8000cf8:	6823      	ldr	r3, [r4, #0]
 8000cfa:	f1b3 4f80 	cmp.w	r3, #1073741824	; 0x40000000
 8000cfe:	d11a      	bne.n	8000d36 <HAL_TIM_MspPostInit+0x4e>
 8000d00:	2100      	movs	r1, #0
 8000d02:	f503 330e 	add.w	r3, r3, #145408	; 0x23800
 8000d06:	9100      	str	r1, [sp, #0]
 8000d08:	6b1a      	ldr	r2, [r3, #48]	; 0x30
 8000d0a:	480c      	ldr	r0, [pc, #48]	; (8000d3c <HAL_TIM_MspPostInit+0x54>)
 8000d0c:	f042 0202 	orr.w	r2, r2, #2
 8000d10:	631a      	str	r2, [r3, #48]	; 0x30
 8000d12:	6b1b      	ldr	r3, [r3, #48]	; 0x30
 8000d14:	9103      	str	r1, [sp, #12]
 8000d16:	f003 0302 	and.w	r3, r3, #2
 8000d1a:	9300      	str	r3, [sp, #0]
 8000d1c:	9b00      	ldr	r3, [sp, #0]
 8000d1e:	f44f 6200 	mov.w	r2, #2048	; 0x800
 8000d22:	2302      	movs	r3, #2
 8000d24:	2103      	movs	r1, #3
 8000d26:	e9cd 2301 	strd	r2, r3, [sp, #4]
 8000d2a:	2301      	movs	r3, #1
 8000d2c:	e9cd 1304 	strd	r1, r3, [sp, #16]
 8000d30:	a901      	add	r1, sp, #4
 8000d32:	f000 fc17 	bl	8001564 <HAL_GPIO_Init>
 8000d36:	b006      	add	sp, #24
 8000d38:	bd10      	pop	{r4, pc}
 8000d3a:	bf00      	nop
 8000d3c:	40020400 	.word	0x40020400

08000d40 <MX_TIM2_Init>:
 8000d40:	b510      	push	{r4, lr}
 8000d42:	2400      	movs	r4, #0
 8000d44:	b08a      	sub	sp, #40	; 0x28
 8000d46:	221c      	movs	r2, #28
 8000d48:	4621      	mov	r1, r4
 8000d4a:	a803      	add	r0, sp, #12
 8000d4c:	e9cd 4401 	strd	r4, r4, [sp, #4]
 8000d50:	f001 ffb0 	bl	8002cb4 <memset>
 8000d54:	481d      	ldr	r0, [pc, #116]	; (8000dcc <MX_TIM2_Init+0x8c>)
 8000d56:	f04f 4380 	mov.w	r3, #1073741824	; 0x40000000
 8000d5a:	e9c0 3400 	strd	r3, r4, [r0]
 8000d5e:	f640 236b 	movw	r3, #2667	; 0xa6b
 8000d62:	e9c0 3403 	strd	r3, r4, [r0, #12]
 8000d66:	6084      	str	r4, [r0, #8]
 8000d68:	6184      	str	r4, [r0, #24]
 8000d6a:	f001 f96f 	bl	800204c <HAL_TIM_PWM_Init>
 8000d6e:	b108      	cbz	r0, 8000d74 <MX_TIM2_Init+0x34>
 8000d70:	f7ff fdb8 	bl	80008e4 <Error_Handler>
 8000d74:	4815      	ldr	r0, [pc, #84]	; (8000dcc <MX_TIM2_Init+0x8c>)
 8000d76:	a901      	add	r1, sp, #4
 8000d78:	e9cd 4401 	strd	r4, r4, [sp, #4]
 8000d7c:	f001 fbb4 	bl	80024e8 <HAL_TIMEx_MasterConfigSynchronization>
 8000d80:	b108      	cbz	r0, 8000d86 <MX_TIM2_Init+0x46>
 8000d82:	f7ff fdaf 	bl	80008e4 <Error_Handler>
 8000d86:	2260      	movs	r2, #96	; 0x60
 8000d88:	f240 13bb 	movw	r3, #443	; 0x1bb
 8000d8c:	e9cd 2303 	strd	r2, r3, [sp, #12]
 8000d90:	2302      	movs	r3, #2
 8000d92:	9305      	str	r3, [sp, #20]
 8000d94:	480d      	ldr	r0, [pc, #52]	; (8000dcc <MX_TIM2_Init+0x8c>)
 8000d96:	2300      	movs	r3, #0
 8000d98:	2208      	movs	r2, #8
 8000d9a:	a903      	add	r1, sp, #12
 8000d9c:	9307      	str	r3, [sp, #28]
 8000d9e:	f001 f9b7 	bl	8002110 <HAL_TIM_PWM_ConfigChannel>
 8000da2:	b108      	cbz	r0, 8000da8 <MX_TIM2_Init+0x68>
 8000da4:	f7ff fd9e 	bl	80008e4 <Error_Handler>
 8000da8:	220c      	movs	r2, #12
 8000daa:	f44f 73a0 	mov.w	r3, #320	; 0x140
 8000dae:	4807      	ldr	r0, [pc, #28]	; (8000dcc <MX_TIM2_Init+0x8c>)
 8000db0:	9304      	str	r3, [sp, #16]
 8000db2:	eb0d 0102 	add.w	r1, sp, r2
 8000db6:	f001 f9ab 	bl	8002110 <HAL_TIM_PWM_ConfigChannel>
 8000dba:	b108      	cbz	r0, 8000dc0 <MX_TIM2_Init+0x80>
 8000dbc:	f7ff fd92 	bl	80008e4 <Error_Handler>
 8000dc0:	4802      	ldr	r0, [pc, #8]	; (8000dcc <MX_TIM2_Init+0x8c>)
 8000dc2:	f7ff ff91 	bl	8000ce8 <HAL_TIM_MspPostInit>
 8000dc6:	b00a      	add	sp, #40	; 0x28
 8000dc8:	bd10      	pop	{r4, pc}
 8000dca:	bf00      	nop
 8000dcc:	20012e60 	.word	0x20012e60

08000dd0 <MX_USART2_UART_Init>:
 8000dd0:	480b      	ldr	r0, [pc, #44]	; (8000e00 <MX_USART2_UART_Init+0x30>)
 8000dd2:	4a0c      	ldr	r2, [pc, #48]	; (8000e04 <MX_USART2_UART_Init+0x34>)
 8000dd4:	b508      	push	{r3, lr}
 8000dd6:	f44f 33e1 	mov.w	r3, #115200	; 0x1c200
 8000dda:	e9c0 2300 	strd	r2, r3, [r0]
 8000dde:	2300      	movs	r3, #0
 8000de0:	220c      	movs	r2, #12
 8000de2:	e9c0 3302 	strd	r3, r3, [r0, #8]
 8000de6:	e9c0 2305 	strd	r2, r3, [r0, #20]
 8000dea:	6103      	str	r3, [r0, #16]
 8000dec:	61c3      	str	r3, [r0, #28]
 8000dee:	f001 fc57 	bl	80026a0 <HAL_UART_Init>
 8000df2:	b118      	cbz	r0, 8000dfc <MX_USART2_UART_Init+0x2c>
 8000df4:	e8bd 4008 	ldmia.w	sp!, {r3, lr}
 8000df8:	f7ff bd74 	b.w	80008e4 <Error_Handler>
 8000dfc:	bd08      	pop	{r3, pc}
 8000dfe:	bf00      	nop
 8000e00:	20013028 	.word	0x20013028
 8000e04:	40004400 	.word	0x40004400

08000e08 <HAL_UART_MspInit>:
 8000e08:	b570      	push	{r4, r5, r6, lr}
 8000e0a:	4606      	mov	r6, r0
 8000e0c:	b088      	sub	sp, #32
 8000e0e:	2214      	movs	r2, #20
 8000e10:	2100      	movs	r1, #0
 8000e12:	a803      	add	r0, sp, #12
 8000e14:	f001 ff4e 	bl	8002cb4 <memset>
 8000e18:	6832      	ldr	r2, [r6, #0]
 8000e1a:	4b33      	ldr	r3, [pc, #204]	; (8000ee8 <HAL_UART_MspInit+0xe0>)
 8000e1c:	429a      	cmp	r2, r3
 8000e1e:	d160      	bne.n	8000ee2 <HAL_UART_MspInit+0xda>
 8000e20:	2500      	movs	r5, #0
 8000e22:	f503 33fa 	add.w	r3, r3, #128000	; 0x1f400
 8000e26:	9501      	str	r5, [sp, #4]
 8000e28:	6c1a      	ldr	r2, [r3, #64]	; 0x40
 8000e2a:	f442 3200 	orr.w	r2, r2, #131072	; 0x20000
 8000e2e:	641a      	str	r2, [r3, #64]	; 0x40
 8000e30:	6c1a      	ldr	r2, [r3, #64]	; 0x40
 8000e32:	f402 3200 	and.w	r2, r2, #131072	; 0x20000
 8000e36:	9201      	str	r2, [sp, #4]
 8000e38:	9a01      	ldr	r2, [sp, #4]
 8000e3a:	9502      	str	r5, [sp, #8]
 8000e3c:	6b1a      	ldr	r2, [r3, #48]	; 0x30
 8000e3e:	f042 0201 	orr.w	r2, r2, #1
 8000e42:	631a      	str	r2, [r3, #48]	; 0x30
 8000e44:	6b1b      	ldr	r3, [r3, #48]	; 0x30
 8000e46:	9505      	str	r5, [sp, #20]
 8000e48:	f003 0301 	and.w	r3, r3, #1
 8000e4c:	9302      	str	r3, [sp, #8]
 8000e4e:	9b02      	ldr	r3, [sp, #8]
 8000e50:	200c      	movs	r0, #12
 8000e52:	2302      	movs	r3, #2
 8000e54:	e9cd 0303 	strd	r0, r3, [sp, #12]
 8000e58:	2403      	movs	r4, #3
 8000e5a:	2307      	movs	r3, #7
 8000e5c:	4823      	ldr	r0, [pc, #140]	; (8000eec <HAL_UART_MspInit+0xe4>)
 8000e5e:	a903      	add	r1, sp, #12
 8000e60:	e9cd 4306 	strd	r4, r3, [sp, #24]
 8000e64:	f000 fb7e 	bl	8001564 <HAL_GPIO_Init>
 8000e68:	4c21      	ldr	r4, [pc, #132]	; (8000ef0 <HAL_UART_MspInit+0xe8>)
 8000e6a:	f8df c090 	ldr.w	ip, [pc, #144]	; 8000efc <HAL_UART_MspInit+0xf4>
 8000e6e:	61a5      	str	r5, [r4, #24]
 8000e70:	f04f 6300 	mov.w	r3, #134217728	; 0x8000000
 8000e74:	e9c4 c300 	strd	ip, r3, [r4]
 8000e78:	f44f 6380 	mov.w	r3, #1024	; 0x400
 8000e7c:	e9c4 3504 	strd	r3, r5, [r4, #16]
 8000e80:	4620      	mov	r0, r4
 8000e82:	f44f 7380 	mov.w	r3, #256	; 0x100
 8000e86:	e9c4 5502 	strd	r5, r5, [r4, #8]
 8000e8a:	e9c4 3507 	strd	r3, r5, [r4, #28]
 8000e8e:	6265      	str	r5, [r4, #36]	; 0x24
 8000e90:	f000 f99a 	bl	80011c8 <HAL_DMA_Init>
 8000e94:	b108      	cbz	r0, 8000e9a <HAL_UART_MspInit+0x92>
 8000e96:	f7ff fd25 	bl	80008e4 <Error_Handler>
 8000e9a:	4a16      	ldr	r2, [pc, #88]	; (8000ef4 <HAL_UART_MspInit+0xec>)
 8000e9c:	63b4      	str	r4, [r6, #56]	; 0x38
 8000e9e:	63a6      	str	r6, [r4, #56]	; 0x38
 8000ea0:	4c15      	ldr	r4, [pc, #84]	; (8000ef8 <HAL_UART_MspInit+0xf0>)
 8000ea2:	f04f 6300 	mov.w	r3, #134217728	; 0x8000000
 8000ea6:	e9c4 2300 	strd	r2, r3, [r4]
 8000eaa:	2140      	movs	r1, #64	; 0x40
 8000eac:	2300      	movs	r3, #0
 8000eae:	f44f 6280 	mov.w	r2, #1024	; 0x400
 8000eb2:	4620      	mov	r0, r4
 8000eb4:	e9c4 1302 	strd	r1, r3, [r4, #8]
 8000eb8:	e9c4 2304 	strd	r2, r3, [r4, #16]
 8000ebc:	e9c4 3306 	strd	r3, r3, [r4, #24]
 8000ec0:	e9c4 3308 	strd	r3, r3, [r4, #32]
 8000ec4:	f000 f980 	bl	80011c8 <HAL_DMA_Init>
 8000ec8:	b108      	cbz	r0, 8000ece <HAL_UART_MspInit+0xc6>
 8000eca:	f7ff fd0b 	bl	80008e4 <Error_Handler>
 8000ece:	2200      	movs	r2, #0
 8000ed0:	6374      	str	r4, [r6, #52]	; 0x34
 8000ed2:	2026      	movs	r0, #38	; 0x26
 8000ed4:	4611      	mov	r1, r2
 8000ed6:	63a6      	str	r6, [r4, #56]	; 0x38
 8000ed8:	f000 f90a 	bl	80010f0 <HAL_NVIC_SetPriority>
 8000edc:	2026      	movs	r0, #38	; 0x26
 8000ede:	f000 f939 	bl	8001154 <HAL_NVIC_EnableIRQ>
 8000ee2:	b008      	add	sp, #32
 8000ee4:	bd70      	pop	{r4, r5, r6, pc}
 8000ee6:	bf00      	nop
 8000ee8:	40004400 	.word	0x40004400
 8000eec:	40020000 	.word	0x40020000
 8000ef0:	20012f28 	.word	0x20012f28
 8000ef4:	400260a0 	.word	0x400260a0
 8000ef8:	20012f88 	.word	0x20012f88
 8000efc:	40026088 	.word	0x40026088

08000f00 <HAL_UART_RxCpltCallback>:
 8000f00:	b5f7      	push	{r0, r1, r2, r4, r5, r6, r7, lr}
 8000f02:	6803      	ldr	r3, [r0, #0]
 8000f04:	4a29      	ldr	r2, [pc, #164]	; (8000fac <HAL_UART_RxCpltCallback+0xac>)
 8000f06:	681b      	ldr	r3, [r3, #0]
 8000f08:	7811      	ldrb	r1, [r2, #0]
 8000f0a:	f013 0f10 	tst.w	r3, #16
 8000f0e:	4615      	mov	r5, r2
 8000f10:	d049      	beq.n	8000fa6 <HAL_UART_RxCpltCallback+0xa6>
 8000f12:	4b27      	ldr	r3, [pc, #156]	; (8000fb0 <HAL_UART_RxCpltCallback+0xb0>)
 8000f14:	4f27      	ldr	r7, [pc, #156]	; (8000fb4 <HAL_UART_RxCpltCallback+0xb4>)
 8000f16:	681b      	ldr	r3, [r3, #0]
 8000f18:	2400      	movs	r4, #0
 8000f1a:	9401      	str	r4, [sp, #4]
 8000f1c:	681a      	ldr	r2, [r3, #0]
 8000f1e:	9201      	str	r2, [sp, #4]
 8000f20:	685b      	ldr	r3, [r3, #4]
 8000f22:	9301      	str	r3, [sp, #4]
 8000f24:	9b01      	ldr	r3, [sp, #4]
 8000f26:	4b24      	ldr	r3, [pc, #144]	; (8000fb8 <HAL_UART_RxCpltCallback+0xb8>)
 8000f28:	781a      	ldrb	r2, [r3, #0]
 8000f2a:	3201      	adds	r2, #1
 8000f2c:	701a      	strb	r2, [r3, #0]
 8000f2e:	6b83      	ldr	r3, [r0, #56]	; 0x38
 8000f30:	4a22      	ldr	r2, [pc, #136]	; (8000fbc <HAL_UART_RxCpltCallback+0xbc>)
 8000f32:	681b      	ldr	r3, [r3, #0]
 8000f34:	7816      	ldrb	r6, [r2, #0]
 8000f36:	685b      	ldr	r3, [r3, #4]
 8000f38:	703c      	strb	r4, [r7, #0]
 8000f3a:	f1c3 0380 	rsb	r3, r3, #128	; 0x80
 8000f3e:	b2db      	uxtb	r3, r3
 8000f40:	2901      	cmp	r1, #1
 8000f42:	7013      	strb	r3, [r2, #0]
 8000f44:	d824      	bhi.n	8000f90 <HAL_UART_RxCpltCallback+0x90>
 8000f46:	b2b2      	uxth	r2, r6
 8000f48:	b29c      	uxth	r4, r3
 8000f4a:	b1f9      	cbz	r1, 8000f8c <HAL_UART_RxCpltCallback+0x8c>
 8000f4c:	429e      	cmp	r6, r3
 8000f4e:	d321      	bcc.n	8000f94 <HAL_UART_RxCpltCallback+0x94>
 8000f50:	f1c2 0280 	rsb	r2, r2, #128	; 0x80
 8000f54:	4414      	add	r4, r2
 8000f56:	b2a4      	uxth	r4, r4
 8000f58:	1e63      	subs	r3, r4, #1
 8000f5a:	2b7f      	cmp	r3, #127	; 0x7f
 8000f5c:	d81c      	bhi.n	8000f98 <HAL_UART_RxCpltCallback+0x98>
 8000f5e:	4815      	ldr	r0, [pc, #84]	; (8000fb4 <HAL_UART_RxCpltCallback+0xb4>)
 8000f60:	f7ff f940 	bl	80001e4 <strlen>
 8000f64:	4916      	ldr	r1, [pc, #88]	; (8000fc0 <HAL_UART_RxCpltCallback+0xc0>)
 8000f66:	4438      	add	r0, r7
 8000f68:	2300      	movs	r3, #0
 8000f6a:	18f2      	adds	r2, r6, r3
 8000f6c:	f002 027f 	and.w	r2, r2, #127	; 0x7f
 8000f70:	3301      	adds	r3, #1
 8000f72:	5c52      	ldrb	r2, [r2, r1]
 8000f74:	f800 2b01 	strb.w	r2, [r0], #1
 8000f78:	b29a      	uxth	r2, r3
 8000f7a:	4294      	cmp	r4, r2
 8000f7c:	d8f5      	bhi.n	8000f6a <HAL_UART_RxCpltCallback+0x6a>
 8000f7e:	480d      	ldr	r0, [pc, #52]	; (8000fb4 <HAL_UART_RxCpltCallback+0xb4>)
 8000f80:	f7ff fb0a 	bl	8000598 <FL_Parse>
 8000f84:	2300      	movs	r3, #0
 8000f86:	702b      	strb	r3, [r5, #0]
 8000f88:	b003      	add	sp, #12
 8000f8a:	bdf0      	pop	{r4, r5, r6, r7, pc}
 8000f8c:	1aa4      	subs	r4, r4, r2
 8000f8e:	e7e2      	b.n	8000f56 <HAL_UART_RxCpltCallback+0x56>
 8000f90:	2482      	movs	r4, #130	; 0x82
 8000f92:	e7e1      	b.n	8000f58 <HAL_UART_RxCpltCallback+0x58>
 8000f94:	2481      	movs	r4, #129	; 0x81
 8000f96:	e7df      	b.n	8000f58 <HAL_UART_RxCpltCallback+0x58>
 8000f98:	490a      	ldr	r1, [pc, #40]	; (8000fc4 <HAL_UART_RxCpltCallback+0xc4>)
 8000f9a:	4806      	ldr	r0, [pc, #24]	; (8000fb4 <HAL_UART_RxCpltCallback+0xb4>)
 8000f9c:	f1a4 0280 	sub.w	r2, r4, #128	; 0x80
 8000fa0:	f001 fe90 	bl	8002cc4 <siprintf>
 8000fa4:	e7eb      	b.n	8000f7e <HAL_UART_RxCpltCallback+0x7e>
 8000fa6:	1c4b      	adds	r3, r1, #1
 8000fa8:	7013      	strb	r3, [r2, #0]
 8000faa:	e7ed      	b.n	8000f88 <HAL_UART_RxCpltCallback+0x88>
 8000fac:	200000b2 	.word	0x200000b2
 8000fb0:	20013028 	.word	0x20013028
 8000fb4:	20012fe8 	.word	0x20012fe8
 8000fb8:	200000b1 	.word	0x200000b1
 8000fbc:	200000b0 	.word	0x200000b0
 8000fc0:	20012ea8 	.word	0x20012ea8
 8000fc4:	0800419a 	.word	0x0800419a

08000fc8 <HAL_UART_TxCpltCallback>:
 8000fc8:	4a02      	ldr	r2, [pc, #8]	; (8000fd4 <HAL_UART_TxCpltCallback+0xc>)
 8000fca:	7813      	ldrb	r3, [r2, #0]
 8000fcc:	3301      	adds	r3, #1
 8000fce:	7013      	strb	r3, [r2, #0]
 8000fd0:	4770      	bx	lr
 8000fd2:	bf00      	nop
 8000fd4:	200000b3 	.word	0x200000b3

08000fd8 <Reset_Handler>:
 8000fd8:	f8df d034 	ldr.w	sp, [pc, #52]	; 8001010 <LoopFillZerobss+0x14>
 8000fdc:	2100      	movs	r1, #0
 8000fde:	e003      	b.n	8000fe8 <LoopCopyDataInit>

08000fe0 <CopyDataInit>:
 8000fe0:	4b0c      	ldr	r3, [pc, #48]	; (8001014 <LoopFillZerobss+0x18>)
 8000fe2:	585b      	ldr	r3, [r3, r1]
 8000fe4:	5043      	str	r3, [r0, r1]
 8000fe6:	3104      	adds	r1, #4

08000fe8 <LoopCopyDataInit>:
 8000fe8:	480b      	ldr	r0, [pc, #44]	; (8001018 <LoopFillZerobss+0x1c>)
 8000fea:	4b0c      	ldr	r3, [pc, #48]	; (800101c <LoopFillZerobss+0x20>)
 8000fec:	1842      	adds	r2, r0, r1
 8000fee:	429a      	cmp	r2, r3
 8000ff0:	d3f6      	bcc.n	8000fe0 <CopyDataInit>
 8000ff2:	4a0b      	ldr	r2, [pc, #44]	; (8001020 <LoopFillZerobss+0x24>)
 8000ff4:	e002      	b.n	8000ffc <LoopFillZerobss>

08000ff6 <FillZerobss>:
 8000ff6:	2300      	movs	r3, #0
 8000ff8:	f842 3b04 	str.w	r3, [r2], #4

08000ffc <LoopFillZerobss>:
 8000ffc:	4b09      	ldr	r3, [pc, #36]	; (8001024 <LoopFillZerobss+0x28>)
 8000ffe:	429a      	cmp	r2, r3
 8001000:	d3f9      	bcc.n	8000ff6 <FillZerobss>
 8001002:	f7ff fdd7 	bl	8000bb4 <SystemInit>
 8001006:	f001 fe31 	bl	8002c6c <__libc_init_array>
 800100a:	f7ff fc2b 	bl	8000864 <main>
 800100e:	4770      	bx	lr
 8001010:	20020000 	.word	0x20020000
 8001014:	08004320 	.word	0x08004320
 8001018:	20000000 	.word	0x20000000
 800101c:	20000090 	.word	0x20000090
 8001020:	20000090 	.word	0x20000090
 8001024:	20013080 	.word	0x20013080

08001028 <ADC_IRQHandler>:
 8001028:	e7fe      	b.n	8001028 <ADC_IRQHandler>
	...

0800102c <HAL_InitTick>:
 800102c:	b538      	push	{r3, r4, r5, lr}
 800102e:	4a0e      	ldr	r2, [pc, #56]	; (8001068 <HAL_InitTick+0x3c>)
 8001030:	4b0e      	ldr	r3, [pc, #56]	; (800106c <HAL_InitTick+0x40>)
 8001032:	4605      	mov	r5, r0
 8001034:	7818      	ldrb	r0, [r3, #0]
 8001036:	f44f 737a 	mov.w	r3, #1000	; 0x3e8
 800103a:	fbb3 f3f0 	udiv	r3, r3, r0
 800103e:	6810      	ldr	r0, [r2, #0]
 8001040:	fbb0 f0f3 	udiv	r0, r0, r3
 8001044:	f000 f894 	bl	8001170 <HAL_SYSTICK_Config>
 8001048:	4604      	mov	r4, r0
 800104a:	b958      	cbnz	r0, 8001064 <HAL_InitTick+0x38>
 800104c:	2d0f      	cmp	r5, #15
 800104e:	d809      	bhi.n	8001064 <HAL_InitTick+0x38>
 8001050:	4602      	mov	r2, r0
 8001052:	4629      	mov	r1, r5
 8001054:	f04f 30ff 	mov.w	r0, #4294967295
 8001058:	f000 f84a 	bl	80010f0 <HAL_NVIC_SetPriority>
 800105c:	4b04      	ldr	r3, [pc, #16]	; (8001070 <HAL_InitTick+0x44>)
 800105e:	4620      	mov	r0, r4
 8001060:	601d      	str	r5, [r3, #0]
 8001062:	bd38      	pop	{r3, r4, r5, pc}
 8001064:	2001      	movs	r0, #1
 8001066:	e7fc      	b.n	8001062 <HAL_InitTick+0x36>
 8001068:	20000020 	.word	0x20000020
 800106c:	20000024 	.word	0x20000024
 8001070:	20000028 	.word	0x20000028

08001074 <HAL_Init>:
 8001074:	b508      	push	{r3, lr}
 8001076:	4b0b      	ldr	r3, [pc, #44]	; (80010a4 <HAL_Init+0x30>)
 8001078:	681a      	ldr	r2, [r3, #0]
 800107a:	f442 7200 	orr.w	r2, r2, #512	; 0x200
 800107e:	601a      	str	r2, [r3, #0]
 8001080:	681a      	ldr	r2, [r3, #0]
 8001082:	f442 6280 	orr.w	r2, r2, #1024	; 0x400
 8001086:	601a      	str	r2, [r3, #0]
 8001088:	681a      	ldr	r2, [r3, #0]
 800108a:	f442 7280 	orr.w	r2, r2, #256	; 0x100
 800108e:	601a      	str	r2, [r3, #0]
 8001090:	2003      	movs	r0, #3
 8001092:	f000 f81b 	bl	80010cc <HAL_NVIC_SetPriorityGrouping>
 8001096:	2000      	movs	r0, #0
 8001098:	f7ff ffc8 	bl	800102c <HAL_InitTick>
 800109c:	f7ff fc8e 	bl	80009bc <HAL_MspInit>
 80010a0:	2000      	movs	r0, #0
 80010a2:	bd08      	pop	{r3, pc}
 80010a4:	40023c00 	.word	0x40023c00

080010a8 <HAL_IncTick>:
 80010a8:	4a03      	ldr	r2, [pc, #12]	; (80010b8 <HAL_IncTick+0x10>)
 80010aa:	4b04      	ldr	r3, [pc, #16]	; (80010bc <HAL_IncTick+0x14>)
 80010ac:	6811      	ldr	r1, [r2, #0]
 80010ae:	781b      	ldrb	r3, [r3, #0]
 80010b0:	440b      	add	r3, r1
 80010b2:	6013      	str	r3, [r2, #0]
 80010b4:	4770      	bx	lr
 80010b6:	bf00      	nop
 80010b8:	2001306c 	.word	0x2001306c
 80010bc:	20000024 	.word	0x20000024

080010c0 <HAL_GetTick>:
 80010c0:	4b01      	ldr	r3, [pc, #4]	; (80010c8 <HAL_GetTick+0x8>)
 80010c2:	6818      	ldr	r0, [r3, #0]
 80010c4:	4770      	bx	lr
 80010c6:	bf00      	nop
 80010c8:	2001306c 	.word	0x2001306c

080010cc <HAL_NVIC_SetPriorityGrouping>:
 80010cc:	4907      	ldr	r1, [pc, #28]	; (80010ec <HAL_NVIC_SetPriorityGrouping+0x20>)
 80010ce:	68ca      	ldr	r2, [r1, #12]
 80010d0:	f422 62e0 	bic.w	r2, r2, #1792	; 0x700
 80010d4:	0203      	lsls	r3, r0, #8
 80010d6:	0412      	lsls	r2, r2, #16
 80010d8:	f403 63e0 	and.w	r3, r3, #1792	; 0x700
 80010dc:	0c12      	lsrs	r2, r2, #16
 80010de:	4313      	orrs	r3, r2
 80010e0:	f043 63bf 	orr.w	r3, r3, #100139008	; 0x5f80000
 80010e4:	f443 3300 	orr.w	r3, r3, #131072	; 0x20000
 80010e8:	60cb      	str	r3, [r1, #12]
 80010ea:	4770      	bx	lr
 80010ec:	e000ed00 	.word	0xe000ed00

080010f0 <HAL_NVIC_SetPriority>:
 80010f0:	4b16      	ldr	r3, [pc, #88]	; (800114c <HAL_NVIC_SetPriority+0x5c>)
 80010f2:	b530      	push	{r4, r5, lr}
 80010f4:	68dc      	ldr	r4, [r3, #12]
 80010f6:	f3c4 2402 	ubfx	r4, r4, #8, #3
 80010fa:	f1c4 0507 	rsb	r5, r4, #7
 80010fe:	1d23      	adds	r3, r4, #4
 8001100:	2d04      	cmp	r5, #4
 8001102:	bf28      	it	cs
 8001104:	2504      	movcs	r5, #4
 8001106:	2b06      	cmp	r3, #6
 8001108:	f04f 33ff 	mov.w	r3, #4294967295
 800110c:	bf8c      	ite	hi
 800110e:	3c03      	subhi	r4, #3
 8001110:	2400      	movls	r4, #0
 8001112:	fa03 f505 	lsl.w	r5, r3, r5
 8001116:	ea21 0105 	bic.w	r1, r1, r5
 800111a:	40a3      	lsls	r3, r4
 800111c:	ea22 0203 	bic.w	r2, r2, r3
 8001120:	40a1      	lsls	r1, r4
 8001122:	2800      	cmp	r0, #0
 8001124:	ea41 0302 	orr.w	r3, r1, r2
 8001128:	bfac      	ite	ge
 800112a:	f100 4060 	addge.w	r0, r0, #3758096384	; 0xe0000000
 800112e:	4a08      	ldrlt	r2, [pc, #32]	; (8001150 <HAL_NVIC_SetPriority+0x60>)
 8001130:	ea4f 1303 	mov.w	r3, r3, lsl #4
 8001134:	bfb8      	it	lt
 8001136:	f000 000f 	andlt.w	r0, r0, #15
 800113a:	b2db      	uxtb	r3, r3
 800113c:	bfaa      	itet	ge
 800113e:	f500 4061 	addge.w	r0, r0, #57600	; 0xe100
 8001142:	5413      	strblt	r3, [r2, r0]
 8001144:	f880 3300 	strbge.w	r3, [r0, #768]	; 0x300
 8001148:	bd30      	pop	{r4, r5, pc}
 800114a:	bf00      	nop
 800114c:	e000ed00 	.word	0xe000ed00
 8001150:	e000ed14 	.word	0xe000ed14

08001154 <HAL_NVIC_EnableIRQ>:
 8001154:	2800      	cmp	r0, #0
 8001156:	db08      	blt.n	800116a <HAL_NVIC_EnableIRQ+0x16>
 8001158:	0942      	lsrs	r2, r0, #5
 800115a:	2301      	movs	r3, #1
 800115c:	f000 001f 	and.w	r0, r0, #31
 8001160:	fa03 f000 	lsl.w	r0, r3, r0
 8001164:	4b01      	ldr	r3, [pc, #4]	; (800116c <HAL_NVIC_EnableIRQ+0x18>)
 8001166:	f843 0022 	str.w	r0, [r3, r2, lsl #2]
 800116a:	4770      	bx	lr
 800116c:	e000e100 	.word	0xe000e100

08001170 <HAL_SYSTICK_Config>:
 8001170:	3801      	subs	r0, #1
 8001172:	f1b0 7f80 	cmp.w	r0, #16777216	; 0x1000000
 8001176:	d20a      	bcs.n	800118e <HAL_SYSTICK_Config+0x1e>
 8001178:	4b06      	ldr	r3, [pc, #24]	; (8001194 <HAL_SYSTICK_Config+0x24>)
 800117a:	4a07      	ldr	r2, [pc, #28]	; (8001198 <HAL_SYSTICK_Config+0x28>)
 800117c:	6058      	str	r0, [r3, #4]
 800117e:	21f0      	movs	r1, #240	; 0xf0
 8001180:	f882 1023 	strb.w	r1, [r2, #35]	; 0x23
 8001184:	2000      	movs	r0, #0
 8001186:	2207      	movs	r2, #7
 8001188:	6098      	str	r0, [r3, #8]
 800118a:	601a      	str	r2, [r3, #0]
 800118c:	4770      	bx	lr
 800118e:	2001      	movs	r0, #1
 8001190:	4770      	bx	lr
 8001192:	bf00      	nop
 8001194:	e000e010 	.word	0xe000e010
 8001198:	e000ed00 	.word	0xe000ed00

0800119c <DMA_CalcBaseAndBitshift>:
 800119c:	6803      	ldr	r3, [r0, #0]
 800119e:	b510      	push	{r4, lr}
 80011a0:	4c08      	ldr	r4, [pc, #32]	; (80011c4 <DMA_CalcBaseAndBitshift+0x28>)
 80011a2:	4602      	mov	r2, r0
 80011a4:	b2d9      	uxtb	r1, r3
 80011a6:	3910      	subs	r1, #16
 80011a8:	2018      	movs	r0, #24
 80011aa:	fbb1 f0f0 	udiv	r0, r1, r0
 80011ae:	5c20      	ldrb	r0, [r4, r0]
 80011b0:	65d0      	str	r0, [r2, #92]	; 0x5c
 80011b2:	f423 707f 	bic.w	r0, r3, #1020	; 0x3fc
 80011b6:	f020 0003 	bic.w	r0, r0, #3
 80011ba:	295f      	cmp	r1, #95	; 0x5f
 80011bc:	bf88      	it	hi
 80011be:	3004      	addhi	r0, #4
 80011c0:	6590      	str	r0, [r2, #88]	; 0x58
 80011c2:	bd10      	pop	{r4, pc}
 80011c4:	080041bc 	.word	0x080041bc

080011c8 <HAL_DMA_Init>:
 80011c8:	b570      	push	{r4, r5, r6, lr}
 80011ca:	4604      	mov	r4, r0
 80011cc:	f7ff ff78 	bl	80010c0 <HAL_GetTick>
 80011d0:	4605      	mov	r5, r0
 80011d2:	2c00      	cmp	r4, #0
 80011d4:	d073      	beq.n	80012be <HAL_DMA_Init+0xf6>
 80011d6:	2300      	movs	r3, #0
 80011d8:	f884 3034 	strb.w	r3, [r4, #52]	; 0x34
 80011dc:	6822      	ldr	r2, [r4, #0]
 80011de:	2302      	movs	r3, #2
 80011e0:	f884 3035 	strb.w	r3, [r4, #53]	; 0x35
 80011e4:	6813      	ldr	r3, [r2, #0]
 80011e6:	f023 0301 	bic.w	r3, r3, #1
 80011ea:	6013      	str	r3, [r2, #0]
 80011ec:	6821      	ldr	r1, [r4, #0]
 80011ee:	680b      	ldr	r3, [r1, #0]
 80011f0:	07d8      	lsls	r0, r3, #31
 80011f2:	d42f      	bmi.n	8001254 <HAL_DMA_Init+0x8c>
 80011f4:	680b      	ldr	r3, [r1, #0]
 80011f6:	4d33      	ldr	r5, [pc, #204]	; (80012c4 <HAL_DMA_Init+0xfc>)
 80011f8:	69a0      	ldr	r0, [r4, #24]
 80011fa:	401d      	ands	r5, r3
 80011fc:	e9d4 2301 	ldrd	r2, r3, [r4, #4]
 8001200:	4313      	orrs	r3, r2
 8001202:	68e2      	ldr	r2, [r4, #12]
 8001204:	4313      	orrs	r3, r2
 8001206:	6922      	ldr	r2, [r4, #16]
 8001208:	4313      	orrs	r3, r2
 800120a:	6962      	ldr	r2, [r4, #20]
 800120c:	4313      	orrs	r3, r2
 800120e:	69e2      	ldr	r2, [r4, #28]
 8001210:	4303      	orrs	r3, r0
 8001212:	4313      	orrs	r3, r2
 8001214:	6a22      	ldr	r2, [r4, #32]
 8001216:	4313      	orrs	r3, r2
 8001218:	6a62      	ldr	r2, [r4, #36]	; 0x24
 800121a:	2a04      	cmp	r2, #4
 800121c:	ea43 0305 	orr.w	r3, r3, r5
 8001220:	bf02      	ittt	eq
 8001222:	e9d4 560b 	ldrdeq	r5, r6, [r4, #44]	; 0x2c
 8001226:	4335      	orreq	r5, r6
 8001228:	432b      	orreq	r3, r5
 800122a:	600b      	str	r3, [r1, #0]
 800122c:	694b      	ldr	r3, [r1, #20]
 800122e:	2a04      	cmp	r2, #4
 8001230:	f023 0307 	bic.w	r3, r3, #7
 8001234:	ea43 0302 	orr.w	r3, r3, r2
 8001238:	d133      	bne.n	80012a2 <HAL_DMA_Init+0xda>
 800123a:	6aa2      	ldr	r2, [r4, #40]	; 0x28
 800123c:	6ae5      	ldr	r5, [r4, #44]	; 0x2c
 800123e:	4313      	orrs	r3, r2
 8001240:	b37d      	cbz	r5, 80012a2 <HAL_DMA_Init+0xda>
 8001242:	b990      	cbnz	r0, 800126a <HAL_DMA_Init+0xa2>
 8001244:	2a01      	cmp	r2, #1
 8001246:	d021      	beq.n	800128c <HAL_DMA_Init+0xc4>
 8001248:	f032 0202 	bics.w	r2, r2, #2
 800124c:	d129      	bne.n	80012a2 <HAL_DMA_Init+0xda>
 800124e:	01ea      	lsls	r2, r5, #7
 8001250:	d527      	bpl.n	80012a2 <HAL_DMA_Init+0xda>
 8001252:	e01e      	b.n	8001292 <HAL_DMA_Init+0xca>
 8001254:	f7ff ff34 	bl	80010c0 <HAL_GetTick>
 8001258:	1b40      	subs	r0, r0, r5
 800125a:	2805      	cmp	r0, #5
 800125c:	d9c6      	bls.n	80011ec <HAL_DMA_Init+0x24>
 800125e:	2320      	movs	r3, #32
 8001260:	6563      	str	r3, [r4, #84]	; 0x54
 8001262:	2003      	movs	r0, #3
 8001264:	f884 0035 	strb.w	r0, [r4, #53]	; 0x35
 8001268:	bd70      	pop	{r4, r5, r6, pc}
 800126a:	f5b0 5f00 	cmp.w	r0, #8192	; 0x2000
 800126e:	d114      	bne.n	800129a <HAL_DMA_Init+0xd2>
 8001270:	2a03      	cmp	r2, #3
 8001272:	d816      	bhi.n	80012a2 <HAL_DMA_Init+0xda>
 8001274:	a001      	add	r0, pc, #4	; (adr r0, 800127c <HAL_DMA_Init+0xb4>)
 8001276:	f850 f022 	ldr.w	pc, [r0, r2, lsl #2]
 800127a:	bf00      	nop
 800127c:	08001293 	.word	0x08001293
 8001280:	0800124f 	.word	0x0800124f
 8001284:	08001293 	.word	0x08001293
 8001288:	0800128d 	.word	0x0800128d
 800128c:	f1b5 7fc0 	cmp.w	r5, #25165824	; 0x1800000
 8001290:	d107      	bne.n	80012a2 <HAL_DMA_Init+0xda>
 8001292:	2340      	movs	r3, #64	; 0x40
 8001294:	6563      	str	r3, [r4, #84]	; 0x54
 8001296:	2001      	movs	r0, #1
 8001298:	e7e4      	b.n	8001264 <HAL_DMA_Init+0x9c>
 800129a:	2a02      	cmp	r2, #2
 800129c:	d9f9      	bls.n	8001292 <HAL_DMA_Init+0xca>
 800129e:	2a03      	cmp	r2, #3
 80012a0:	d0d5      	beq.n	800124e <HAL_DMA_Init+0x86>
 80012a2:	614b      	str	r3, [r1, #20]
 80012a4:	4620      	mov	r0, r4
 80012a6:	f7ff ff79 	bl	800119c <DMA_CalcBaseAndBitshift>
 80012aa:	6de2      	ldr	r2, [r4, #92]	; 0x5c
 80012ac:	233f      	movs	r3, #63	; 0x3f
 80012ae:	4093      	lsls	r3, r2
 80012b0:	6083      	str	r3, [r0, #8]
 80012b2:	2000      	movs	r0, #0
 80012b4:	2301      	movs	r3, #1
 80012b6:	6560      	str	r0, [r4, #84]	; 0x54
 80012b8:	f884 3035 	strb.w	r3, [r4, #53]	; 0x35
 80012bc:	e7d4      	b.n	8001268 <HAL_DMA_Init+0xa0>
 80012be:	2001      	movs	r0, #1
 80012c0:	e7d2      	b.n	8001268 <HAL_DMA_Init+0xa0>
 80012c2:	bf00      	nop
 80012c4:	f010803f 	.word	0xf010803f

080012c8 <HAL_DMA_Start_IT>:
 80012c8:	b570      	push	{r4, r5, r6, lr}
 80012ca:	f890 4034 	ldrb.w	r4, [r0, #52]	; 0x34
 80012ce:	6d86      	ldr	r6, [r0, #88]	; 0x58
 80012d0:	2c01      	cmp	r4, #1
 80012d2:	d031      	beq.n	8001338 <HAL_DMA_Start_IT+0x70>
 80012d4:	2401      	movs	r4, #1
 80012d6:	f880 4034 	strb.w	r4, [r0, #52]	; 0x34
 80012da:	f890 4035 	ldrb.w	r4, [r0, #53]	; 0x35
 80012de:	2c01      	cmp	r4, #1
 80012e0:	f04f 0500 	mov.w	r5, #0
 80012e4:	f04f 0402 	mov.w	r4, #2
 80012e8:	d124      	bne.n	8001334 <HAL_DMA_Start_IT+0x6c>
 80012ea:	f880 4035 	strb.w	r4, [r0, #53]	; 0x35
 80012ee:	6804      	ldr	r4, [r0, #0]
 80012f0:	6545      	str	r5, [r0, #84]	; 0x54
 80012f2:	6825      	ldr	r5, [r4, #0]
 80012f4:	f425 2580 	bic.w	r5, r5, #262144	; 0x40000
 80012f8:	6025      	str	r5, [r4, #0]
 80012fa:	6063      	str	r3, [r4, #4]
 80012fc:	6883      	ldr	r3, [r0, #8]
 80012fe:	2b40      	cmp	r3, #64	; 0x40
 8001300:	bf0e      	itee	eq
 8001302:	60a2      	streq	r2, [r4, #8]
 8001304:	60a1      	strne	r1, [r4, #8]
 8001306:	60e2      	strne	r2, [r4, #12]
 8001308:	6dc2      	ldr	r2, [r0, #92]	; 0x5c
 800130a:	bf08      	it	eq
 800130c:	60e1      	streq	r1, [r4, #12]
 800130e:	233f      	movs	r3, #63	; 0x3f
 8001310:	4093      	lsls	r3, r2
 8001312:	60b3      	str	r3, [r6, #8]
 8001314:	6823      	ldr	r3, [r4, #0]
 8001316:	f043 0316 	orr.w	r3, r3, #22
 800131a:	6023      	str	r3, [r4, #0]
 800131c:	6c03      	ldr	r3, [r0, #64]	; 0x40
 800131e:	b11b      	cbz	r3, 8001328 <HAL_DMA_Start_IT+0x60>
 8001320:	6823      	ldr	r3, [r4, #0]
 8001322:	f043 0308 	orr.w	r3, r3, #8
 8001326:	6023      	str	r3, [r4, #0]
 8001328:	6823      	ldr	r3, [r4, #0]
 800132a:	f043 0301 	orr.w	r3, r3, #1
 800132e:	6023      	str	r3, [r4, #0]
 8001330:	2000      	movs	r0, #0
 8001332:	bd70      	pop	{r4, r5, r6, pc}
 8001334:	f880 5034 	strb.w	r5, [r0, #52]	; 0x34
 8001338:	2002      	movs	r0, #2
 800133a:	e7fa      	b.n	8001332 <HAL_DMA_Start_IT+0x6a>

0800133c <HAL_DMA_Abort>:
 800133c:	b570      	push	{r4, r5, r6, lr}
 800133e:	4604      	mov	r4, r0
 8001340:	6d86      	ldr	r6, [r0, #88]	; 0x58
 8001342:	f7ff febd 	bl	80010c0 <HAL_GetTick>
 8001346:	f894 3035 	ldrb.w	r3, [r4, #53]	; 0x35
 800134a:	2b02      	cmp	r3, #2
 800134c:	4605      	mov	r5, r0
 800134e:	d006      	beq.n	800135e <HAL_DMA_Abort+0x22>
 8001350:	2380      	movs	r3, #128	; 0x80
 8001352:	6563      	str	r3, [r4, #84]	; 0x54
 8001354:	2300      	movs	r3, #0
 8001356:	f884 3034 	strb.w	r3, [r4, #52]	; 0x34
 800135a:	2001      	movs	r0, #1
 800135c:	bd70      	pop	{r4, r5, r6, pc}
 800135e:	6823      	ldr	r3, [r4, #0]
 8001360:	681a      	ldr	r2, [r3, #0]
 8001362:	f022 0216 	bic.w	r2, r2, #22
 8001366:	601a      	str	r2, [r3, #0]
 8001368:	695a      	ldr	r2, [r3, #20]
 800136a:	f022 0280 	bic.w	r2, r2, #128	; 0x80
 800136e:	615a      	str	r2, [r3, #20]
 8001370:	6c22      	ldr	r2, [r4, #64]	; 0x40
 8001372:	b90a      	cbnz	r2, 8001378 <HAL_DMA_Abort+0x3c>
 8001374:	6ca2      	ldr	r2, [r4, #72]	; 0x48
 8001376:	b11a      	cbz	r2, 8001380 <HAL_DMA_Abort+0x44>
 8001378:	681a      	ldr	r2, [r3, #0]
 800137a:	f022 0208 	bic.w	r2, r2, #8
 800137e:	601a      	str	r2, [r3, #0]
 8001380:	681a      	ldr	r2, [r3, #0]
 8001382:	f022 0201 	bic.w	r2, r2, #1
 8001386:	601a      	str	r2, [r3, #0]
 8001388:	6823      	ldr	r3, [r4, #0]
 800138a:	681b      	ldr	r3, [r3, #0]
 800138c:	f013 0301 	ands.w	r3, r3, #1
 8001390:	d10a      	bne.n	80013a8 <HAL_DMA_Abort+0x6c>
 8001392:	6de1      	ldr	r1, [r4, #92]	; 0x5c
 8001394:	223f      	movs	r2, #63	; 0x3f
 8001396:	408a      	lsls	r2, r1
 8001398:	60b2      	str	r2, [r6, #8]
 800139a:	2201      	movs	r2, #1
 800139c:	f884 3034 	strb.w	r3, [r4, #52]	; 0x34
 80013a0:	f884 2035 	strb.w	r2, [r4, #53]	; 0x35
 80013a4:	4618      	mov	r0, r3
 80013a6:	e7d9      	b.n	800135c <HAL_DMA_Abort+0x20>
 80013a8:	f7ff fe8a 	bl	80010c0 <HAL_GetTick>
 80013ac:	1b40      	subs	r0, r0, r5
 80013ae:	2805      	cmp	r0, #5
 80013b0:	d9ea      	bls.n	8001388 <HAL_DMA_Abort+0x4c>
 80013b2:	2320      	movs	r3, #32
 80013b4:	6563      	str	r3, [r4, #84]	; 0x54
 80013b6:	2003      	movs	r0, #3
 80013b8:	2300      	movs	r3, #0
 80013ba:	f884 3034 	strb.w	r3, [r4, #52]	; 0x34
 80013be:	f884 0035 	strb.w	r0, [r4, #53]	; 0x35
 80013c2:	e7cb      	b.n	800135c <HAL_DMA_Abort+0x20>

080013c4 <HAL_DMA_Abort_IT>:
 80013c4:	f890 3035 	ldrb.w	r3, [r0, #53]	; 0x35
 80013c8:	2b02      	cmp	r3, #2
 80013ca:	d003      	beq.n	80013d4 <HAL_DMA_Abort_IT+0x10>
 80013cc:	2380      	movs	r3, #128	; 0x80
 80013ce:	6543      	str	r3, [r0, #84]	; 0x54
 80013d0:	2001      	movs	r0, #1
 80013d2:	4770      	bx	lr
 80013d4:	6802      	ldr	r2, [r0, #0]
 80013d6:	2305      	movs	r3, #5
 80013d8:	f880 3035 	strb.w	r3, [r0, #53]	; 0x35
 80013dc:	6813      	ldr	r3, [r2, #0]
 80013de:	f023 0301 	bic.w	r3, r3, #1
 80013e2:	6013      	str	r3, [r2, #0]
 80013e4:	2000      	movs	r0, #0
 80013e6:	4770      	bx	lr

080013e8 <HAL_DMA_IRQHandler>:
 80013e8:	b5f7      	push	{r0, r1, r2, r4, r5, r6, r7, lr}
 80013ea:	2300      	movs	r3, #0
 80013ec:	9301      	str	r3, [sp, #4]
 80013ee:	4b5c      	ldr	r3, [pc, #368]	; (8001560 <HAL_DMA_IRQHandler+0x178>)
 80013f0:	6d85      	ldr	r5, [r0, #88]	; 0x58
 80013f2:	681f      	ldr	r7, [r3, #0]
 80013f4:	6dc3      	ldr	r3, [r0, #92]	; 0x5c
 80013f6:	682e      	ldr	r6, [r5, #0]
 80013f8:	2208      	movs	r2, #8
 80013fa:	409a      	lsls	r2, r3
 80013fc:	4232      	tst	r2, r6
 80013fe:	4604      	mov	r4, r0
 8001400:	d00c      	beq.n	800141c <HAL_DMA_IRQHandler+0x34>
 8001402:	6801      	ldr	r1, [r0, #0]
 8001404:	6808      	ldr	r0, [r1, #0]
 8001406:	0740      	lsls	r0, r0, #29
 8001408:	d508      	bpl.n	800141c <HAL_DMA_IRQHandler+0x34>
 800140a:	6808      	ldr	r0, [r1, #0]
 800140c:	f020 0004 	bic.w	r0, r0, #4
 8001410:	6008      	str	r0, [r1, #0]
 8001412:	60aa      	str	r2, [r5, #8]
 8001414:	6d62      	ldr	r2, [r4, #84]	; 0x54
 8001416:	f042 0201 	orr.w	r2, r2, #1
 800141a:	6562      	str	r2, [r4, #84]	; 0x54
 800141c:	2201      	movs	r2, #1
 800141e:	409a      	lsls	r2, r3
 8001420:	4232      	tst	r2, r6
 8001422:	d008      	beq.n	8001436 <HAL_DMA_IRQHandler+0x4e>
 8001424:	6821      	ldr	r1, [r4, #0]
 8001426:	6949      	ldr	r1, [r1, #20]
 8001428:	0609      	lsls	r1, r1, #24
 800142a:	bf41      	itttt	mi
 800142c:	60aa      	strmi	r2, [r5, #8]
 800142e:	6d62      	ldrmi	r2, [r4, #84]	; 0x54
 8001430:	f042 0202 	orrmi.w	r2, r2, #2
 8001434:	6562      	strmi	r2, [r4, #84]	; 0x54
 8001436:	2204      	movs	r2, #4
 8001438:	409a      	lsls	r2, r3
 800143a:	4232      	tst	r2, r6
 800143c:	d008      	beq.n	8001450 <HAL_DMA_IRQHandler+0x68>
 800143e:	6821      	ldr	r1, [r4, #0]
 8001440:	6809      	ldr	r1, [r1, #0]
 8001442:	0788      	lsls	r0, r1, #30
 8001444:	bf41      	itttt	mi
 8001446:	60aa      	strmi	r2, [r5, #8]
 8001448:	6d62      	ldrmi	r2, [r4, #84]	; 0x54
 800144a:	f042 0204 	orrmi.w	r2, r2, #4
 800144e:	6562      	strmi	r2, [r4, #84]	; 0x54
 8001450:	2210      	movs	r2, #16
 8001452:	409a      	lsls	r2, r3
 8001454:	4232      	tst	r2, r6
 8001456:	d010      	beq.n	800147a <HAL_DMA_IRQHandler+0x92>
 8001458:	6823      	ldr	r3, [r4, #0]
 800145a:	6819      	ldr	r1, [r3, #0]
 800145c:	0709      	lsls	r1, r1, #28
 800145e:	d50c      	bpl.n	800147a <HAL_DMA_IRQHandler+0x92>
 8001460:	60aa      	str	r2, [r5, #8]
 8001462:	681a      	ldr	r2, [r3, #0]
 8001464:	0350      	lsls	r0, r2, #13
 8001466:	d537      	bpl.n	80014d8 <HAL_DMA_IRQHandler+0xf0>
 8001468:	681b      	ldr	r3, [r3, #0]
 800146a:	0319      	lsls	r1, r3, #12
 800146c:	d401      	bmi.n	8001472 <HAL_DMA_IRQHandler+0x8a>
 800146e:	6c23      	ldr	r3, [r4, #64]	; 0x40
 8001470:	e000      	b.n	8001474 <HAL_DMA_IRQHandler+0x8c>
 8001472:	6ca3      	ldr	r3, [r4, #72]	; 0x48
 8001474:	b10b      	cbz	r3, 800147a <HAL_DMA_IRQHandler+0x92>
 8001476:	4620      	mov	r0, r4
 8001478:	4798      	blx	r3
 800147a:	6de1      	ldr	r1, [r4, #92]	; 0x5c
 800147c:	2220      	movs	r2, #32
 800147e:	408a      	lsls	r2, r1
 8001480:	4232      	tst	r2, r6
 8001482:	d03a      	beq.n	80014fa <HAL_DMA_IRQHandler+0x112>
 8001484:	6823      	ldr	r3, [r4, #0]
 8001486:	6818      	ldr	r0, [r3, #0]
 8001488:	06c6      	lsls	r6, r0, #27
 800148a:	d536      	bpl.n	80014fa <HAL_DMA_IRQHandler+0x112>
 800148c:	60aa      	str	r2, [r5, #8]
 800148e:	f894 2035 	ldrb.w	r2, [r4, #53]	; 0x35
 8001492:	2a05      	cmp	r2, #5
 8001494:	681a      	ldr	r2, [r3, #0]
 8001496:	d127      	bne.n	80014e8 <HAL_DMA_IRQHandler+0x100>
 8001498:	f022 0216 	bic.w	r2, r2, #22
 800149c:	601a      	str	r2, [r3, #0]
 800149e:	695a      	ldr	r2, [r3, #20]
 80014a0:	f022 0280 	bic.w	r2, r2, #128	; 0x80
 80014a4:	615a      	str	r2, [r3, #20]
 80014a6:	6c22      	ldr	r2, [r4, #64]	; 0x40
 80014a8:	b90a      	cbnz	r2, 80014ae <HAL_DMA_IRQHandler+0xc6>
 80014aa:	6ca2      	ldr	r2, [r4, #72]	; 0x48
 80014ac:	b11a      	cbz	r2, 80014b6 <HAL_DMA_IRQHandler+0xce>
 80014ae:	681a      	ldr	r2, [r3, #0]
 80014b0:	f022 0208 	bic.w	r2, r2, #8
 80014b4:	601a      	str	r2, [r3, #0]
 80014b6:	233f      	movs	r3, #63	; 0x3f
 80014b8:	408b      	lsls	r3, r1
 80014ba:	60ab      	str	r3, [r5, #8]
 80014bc:	2300      	movs	r3, #0
 80014be:	f884 3034 	strb.w	r3, [r4, #52]	; 0x34
 80014c2:	2301      	movs	r3, #1
 80014c4:	f884 3035 	strb.w	r3, [r4, #53]	; 0x35
 80014c8:	6d23      	ldr	r3, [r4, #80]	; 0x50
 80014ca:	2b00      	cmp	r3, #0
 80014cc:	d045      	beq.n	800155a <HAL_DMA_IRQHandler+0x172>
 80014ce:	4620      	mov	r0, r4
 80014d0:	b003      	add	sp, #12
 80014d2:	e8bd 40f0 	ldmia.w	sp!, {r4, r5, r6, r7, lr}
 80014d6:	4718      	bx	r3
 80014d8:	681a      	ldr	r2, [r3, #0]
 80014da:	05d2      	lsls	r2, r2, #23
 80014dc:	bf5e      	ittt	pl
 80014de:	681a      	ldrpl	r2, [r3, #0]
 80014e0:	f022 0208 	bicpl.w	r2, r2, #8
 80014e4:	601a      	strpl	r2, [r3, #0]
 80014e6:	e7c2      	b.n	800146e <HAL_DMA_IRQHandler+0x86>
 80014e8:	0350      	lsls	r0, r2, #13
 80014ea:	d527      	bpl.n	800153c <HAL_DMA_IRQHandler+0x154>
 80014ec:	681b      	ldr	r3, [r3, #0]
 80014ee:	0319      	lsls	r1, r3, #12
 80014f0:	d431      	bmi.n	8001556 <HAL_DMA_IRQHandler+0x16e>
 80014f2:	6c63      	ldr	r3, [r4, #68]	; 0x44
 80014f4:	b10b      	cbz	r3, 80014fa <HAL_DMA_IRQHandler+0x112>
 80014f6:	4620      	mov	r0, r4
 80014f8:	4798      	blx	r3
 80014fa:	6d63      	ldr	r3, [r4, #84]	; 0x54
 80014fc:	b36b      	cbz	r3, 800155a <HAL_DMA_IRQHandler+0x172>
 80014fe:	6d63      	ldr	r3, [r4, #84]	; 0x54
 8001500:	07da      	lsls	r2, r3, #31
 8001502:	d519      	bpl.n	8001538 <HAL_DMA_IRQHandler+0x150>
 8001504:	6822      	ldr	r2, [r4, #0]
 8001506:	f44f 5316 	mov.w	r3, #9600	; 0x2580
 800150a:	fbb7 f7f3 	udiv	r7, r7, r3
 800150e:	2305      	movs	r3, #5
 8001510:	f884 3035 	strb.w	r3, [r4, #53]	; 0x35
 8001514:	6813      	ldr	r3, [r2, #0]
 8001516:	f023 0301 	bic.w	r3, r3, #1
 800151a:	6013      	str	r3, [r2, #0]
 800151c:	9b01      	ldr	r3, [sp, #4]
 800151e:	3301      	adds	r3, #1
 8001520:	42bb      	cmp	r3, r7
 8001522:	9301      	str	r3, [sp, #4]
 8001524:	d802      	bhi.n	800152c <HAL_DMA_IRQHandler+0x144>
 8001526:	6813      	ldr	r3, [r2, #0]
 8001528:	07db      	lsls	r3, r3, #31
 800152a:	d4f7      	bmi.n	800151c <HAL_DMA_IRQHandler+0x134>
 800152c:	2300      	movs	r3, #0
 800152e:	f884 3034 	strb.w	r3, [r4, #52]	; 0x34
 8001532:	2301      	movs	r3, #1
 8001534:	f884 3035 	strb.w	r3, [r4, #53]	; 0x35
 8001538:	6ce3      	ldr	r3, [r4, #76]	; 0x4c
 800153a:	e7c6      	b.n	80014ca <HAL_DMA_IRQHandler+0xe2>
 800153c:	681a      	ldr	r2, [r3, #0]
 800153e:	f412 7280 	ands.w	r2, r2, #256	; 0x100
 8001542:	d108      	bne.n	8001556 <HAL_DMA_IRQHandler+0x16e>
 8001544:	6819      	ldr	r1, [r3, #0]
 8001546:	f021 0110 	bic.w	r1, r1, #16
 800154a:	6019      	str	r1, [r3, #0]
 800154c:	2301      	movs	r3, #1
 800154e:	f884 2034 	strb.w	r2, [r4, #52]	; 0x34
 8001552:	f884 3035 	strb.w	r3, [r4, #53]	; 0x35
 8001556:	6be3      	ldr	r3, [r4, #60]	; 0x3c
 8001558:	e7cc      	b.n	80014f4 <HAL_DMA_IRQHandler+0x10c>
 800155a:	b003      	add	sp, #12
 800155c:	bdf0      	pop	{r4, r5, r6, r7, pc}
 800155e:	bf00      	nop
 8001560:	20000020 	.word	0x20000020

08001564 <HAL_GPIO_Init>:
 8001564:	e92d 4ff7 	stmdb	sp!, {r0, r1, r2, r4, r5, r6, r7, r8, r9, sl, fp, lr}
 8001568:	f8df 91a8 	ldr.w	r9, [pc, #424]	; 8001714 <HAL_GPIO_Init+0x1b0>
 800156c:	4a67      	ldr	r2, [pc, #412]	; (800170c <HAL_GPIO_Init+0x1a8>)
 800156e:	2300      	movs	r3, #0
 8001570:	680d      	ldr	r5, [r1, #0]
 8001572:	2401      	movs	r4, #1
 8001574:	409c      	lsls	r4, r3
 8001576:	ea04 0c05 	and.w	ip, r4, r5
 800157a:	43ac      	bics	r4, r5
 800157c:	f040 80b0 	bne.w	80016e0 <HAL_GPIO_Init+0x17c>
 8001580:	684d      	ldr	r5, [r1, #4]
 8001582:	f005 0403 	and.w	r4, r5, #3
 8001586:	ea4f 0843 	mov.w	r8, r3, lsl #1
 800158a:	2603      	movs	r6, #3
 800158c:	1e67      	subs	r7, r4, #1
 800158e:	fa06 f608 	lsl.w	r6, r6, r8
 8001592:	2f01      	cmp	r7, #1
 8001594:	ea6f 0606 	mvn.w	r6, r6
 8001598:	d834      	bhi.n	8001604 <HAL_GPIO_Init+0xa0>
 800159a:	6887      	ldr	r7, [r0, #8]
 800159c:	ea07 0e06 	and.w	lr, r7, r6
 80015a0:	68cf      	ldr	r7, [r1, #12]
 80015a2:	fa07 f708 	lsl.w	r7, r7, r8
 80015a6:	ea47 070e 	orr.w	r7, r7, lr
 80015aa:	6087      	str	r7, [r0, #8]
 80015ac:	6847      	ldr	r7, [r0, #4]
 80015ae:	ea27 0e0c 	bic.w	lr, r7, ip
 80015b2:	f3c5 1700 	ubfx	r7, r5, #4, #1
 80015b6:	409f      	lsls	r7, r3
 80015b8:	ea47 070e 	orr.w	r7, r7, lr
 80015bc:	6047      	str	r7, [r0, #4]
 80015be:	68c7      	ldr	r7, [r0, #12]
 80015c0:	ea07 0e06 	and.w	lr, r7, r6
 80015c4:	688f      	ldr	r7, [r1, #8]
 80015c6:	fa07 f708 	lsl.w	r7, r7, r8
 80015ca:	ea47 070e 	orr.w	r7, r7, lr
 80015ce:	2c02      	cmp	r4, #2
 80015d0:	60c7      	str	r7, [r0, #12]
 80015d2:	d119      	bne.n	8001608 <HAL_GPIO_Init+0xa4>
 80015d4:	ea4f 0ad3 	mov.w	sl, r3, lsr #3
 80015d8:	eb00 0a8a 	add.w	sl, r0, sl, lsl #2
 80015dc:	f003 0b07 	and.w	fp, r3, #7
 80015e0:	f8da 7020 	ldr.w	r7, [sl, #32]
 80015e4:	ea4f 0b8b 	mov.w	fp, fp, lsl #2
 80015e8:	f04f 0e0f 	mov.w	lr, #15
 80015ec:	fa0e fe0b 	lsl.w	lr, lr, fp
 80015f0:	ea27 0e0e 	bic.w	lr, r7, lr
 80015f4:	690f      	ldr	r7, [r1, #16]
 80015f6:	fa07 f70b 	lsl.w	r7, r7, fp
 80015fa:	ea47 070e 	orr.w	r7, r7, lr
 80015fe:	f8ca 7020 	str.w	r7, [sl, #32]
 8001602:	e001      	b.n	8001608 <HAL_GPIO_Init+0xa4>
 8001604:	2c03      	cmp	r4, #3
 8001606:	d1da      	bne.n	80015be <HAL_GPIO_Init+0x5a>
 8001608:	6807      	ldr	r7, [r0, #0]
 800160a:	fa04 f408 	lsl.w	r4, r4, r8
 800160e:	403e      	ands	r6, r7
 8001610:	4326      	orrs	r6, r4
 8001612:	00ec      	lsls	r4, r5, #3
 8001614:	6006      	str	r6, [r0, #0]
 8001616:	d563      	bpl.n	80016e0 <HAL_GPIO_Init+0x17c>
 8001618:	f04f 0a00 	mov.w	sl, #0
 800161c:	f8cd a004 	str.w	sl, [sp, #4]
 8001620:	f8d9 6044 	ldr.w	r6, [r9, #68]	; 0x44
 8001624:	4c3a      	ldr	r4, [pc, #232]	; (8001710 <HAL_GPIO_Init+0x1ac>)
 8001626:	f446 4680 	orr.w	r6, r6, #16384	; 0x4000
 800162a:	f8c9 6044 	str.w	r6, [r9, #68]	; 0x44
 800162e:	f8d9 6044 	ldr.w	r6, [r9, #68]	; 0x44
 8001632:	f406 4680 	and.w	r6, r6, #16384	; 0x4000
 8001636:	9601      	str	r6, [sp, #4]
 8001638:	9e01      	ldr	r6, [sp, #4]
 800163a:	f023 0603 	bic.w	r6, r3, #3
 800163e:	f106 4680 	add.w	r6, r6, #1073741824	; 0x40000000
 8001642:	f506 369c 	add.w	r6, r6, #79872	; 0x13800
 8001646:	f003 0e03 	and.w	lr, r3, #3
 800164a:	f8d6 8008 	ldr.w	r8, [r6, #8]
 800164e:	ea4f 0e8e 	mov.w	lr, lr, lsl #2
 8001652:	270f      	movs	r7, #15
 8001654:	fa07 f70e 	lsl.w	r7, r7, lr
 8001658:	42a0      	cmp	r0, r4
 800165a:	ea28 0707 	bic.w	r7, r8, r7
 800165e:	d046      	beq.n	80016ee <HAL_GPIO_Init+0x18a>
 8001660:	f504 6480 	add.w	r4, r4, #1024	; 0x400
 8001664:	42a0      	cmp	r0, r4
 8001666:	d044      	beq.n	80016f2 <HAL_GPIO_Init+0x18e>
 8001668:	f504 6480 	add.w	r4, r4, #1024	; 0x400
 800166c:	42a0      	cmp	r0, r4
 800166e:	d042      	beq.n	80016f6 <HAL_GPIO_Init+0x192>
 8001670:	f504 6480 	add.w	r4, r4, #1024	; 0x400
 8001674:	42a0      	cmp	r0, r4
 8001676:	d040      	beq.n	80016fa <HAL_GPIO_Init+0x196>
 8001678:	f504 6480 	add.w	r4, r4, #1024	; 0x400
 800167c:	42a0      	cmp	r0, r4
 800167e:	d03e      	beq.n	80016fe <HAL_GPIO_Init+0x19a>
 8001680:	f504 6480 	add.w	r4, r4, #1024	; 0x400
 8001684:	42a0      	cmp	r0, r4
 8001686:	d03c      	beq.n	8001702 <HAL_GPIO_Init+0x19e>
 8001688:	f504 6480 	add.w	r4, r4, #1024	; 0x400
 800168c:	42a0      	cmp	r0, r4
 800168e:	d03a      	beq.n	8001706 <HAL_GPIO_Init+0x1a2>
 8001690:	f504 6480 	add.w	r4, r4, #1024	; 0x400
 8001694:	42a0      	cmp	r0, r4
 8001696:	bf0c      	ite	eq
 8001698:	2407      	moveq	r4, #7
 800169a:	2408      	movne	r4, #8
 800169c:	fa04 f40e 	lsl.w	r4, r4, lr
 80016a0:	433c      	orrs	r4, r7
 80016a2:	60b4      	str	r4, [r6, #8]
 80016a4:	6814      	ldr	r4, [r2, #0]
 80016a6:	ea6f 060c 	mvn.w	r6, ip
 80016aa:	03ef      	lsls	r7, r5, #15
 80016ac:	bf54      	ite	pl
 80016ae:	4034      	andpl	r4, r6
 80016b0:	ea4c 0404 	orrmi.w	r4, ip, r4
 80016b4:	6014      	str	r4, [r2, #0]
 80016b6:	6854      	ldr	r4, [r2, #4]
 80016b8:	03af      	lsls	r7, r5, #14
 80016ba:	bf54      	ite	pl
 80016bc:	4034      	andpl	r4, r6
 80016be:	ea4c 0404 	orrmi.w	r4, ip, r4
 80016c2:	6054      	str	r4, [r2, #4]
 80016c4:	6894      	ldr	r4, [r2, #8]
 80016c6:	02ef      	lsls	r7, r5, #11
 80016c8:	bf54      	ite	pl
 80016ca:	4034      	andpl	r4, r6
 80016cc:	ea4c 0404 	orrmi.w	r4, ip, r4
 80016d0:	6094      	str	r4, [r2, #8]
 80016d2:	68d4      	ldr	r4, [r2, #12]
 80016d4:	02ad      	lsls	r5, r5, #10
 80016d6:	bf54      	ite	pl
 80016d8:	4034      	andpl	r4, r6
 80016da:	ea4c 0404 	orrmi.w	r4, ip, r4
 80016de:	60d4      	str	r4, [r2, #12]
 80016e0:	3301      	adds	r3, #1
 80016e2:	2b10      	cmp	r3, #16
 80016e4:	f47f af44 	bne.w	8001570 <HAL_GPIO_Init+0xc>
 80016e8:	b003      	add	sp, #12
 80016ea:	e8bd 8ff0 	ldmia.w	sp!, {r4, r5, r6, r7, r8, r9, sl, fp, pc}
 80016ee:	4654      	mov	r4, sl
 80016f0:	e7d4      	b.n	800169c <HAL_GPIO_Init+0x138>
 80016f2:	2401      	movs	r4, #1
 80016f4:	e7d2      	b.n	800169c <HAL_GPIO_Init+0x138>
 80016f6:	2402      	movs	r4, #2
 80016f8:	e7d0      	b.n	800169c <HAL_GPIO_Init+0x138>
 80016fa:	2403      	movs	r4, #3
 80016fc:	e7ce      	b.n	800169c <HAL_GPIO_Init+0x138>
 80016fe:	2404      	movs	r4, #4
 8001700:	e7cc      	b.n	800169c <HAL_GPIO_Init+0x138>
 8001702:	2405      	movs	r4, #5
 8001704:	e7ca      	b.n	800169c <HAL_GPIO_Init+0x138>
 8001706:	2406      	movs	r4, #6
 8001708:	e7c8      	b.n	800169c <HAL_GPIO_Init+0x138>
 800170a:	bf00      	nop
 800170c:	40013c00 	.word	0x40013c00
 8001710:	40020000 	.word	0x40020000
 8001714:	40023800 	.word	0x40023800

08001718 <HAL_GPIO_WritePin>:
 8001718:	b10a      	cbz	r2, 800171e <HAL_GPIO_WritePin+0x6>
 800171a:	6181      	str	r1, [r0, #24]
 800171c:	4770      	bx	lr
 800171e:	0409      	lsls	r1, r1, #16
 8001720:	e7fb      	b.n	800171a <HAL_GPIO_WritePin+0x2>
	...

08001724 <HAL_RCC_OscConfig>:
 8001724:	e92d 41f3 	stmdb	sp!, {r0, r1, r4, r5, r6, r7, r8, lr}
 8001728:	4604      	mov	r4, r0
 800172a:	b340      	cbz	r0, 800177e <HAL_RCC_OscConfig+0x5a>
 800172c:	6803      	ldr	r3, [r0, #0]
 800172e:	07dd      	lsls	r5, r3, #31
 8001730:	d410      	bmi.n	8001754 <HAL_RCC_OscConfig+0x30>
 8001732:	6823      	ldr	r3, [r4, #0]
 8001734:	0798      	lsls	r0, r3, #30
 8001736:	d45e      	bmi.n	80017f6 <HAL_RCC_OscConfig+0xd2>
 8001738:	6823      	ldr	r3, [r4, #0]
 800173a:	071a      	lsls	r2, r3, #28
 800173c:	f100 80a0 	bmi.w	8001880 <HAL_RCC_OscConfig+0x15c>
 8001740:	6823      	ldr	r3, [r4, #0]
 8001742:	075b      	lsls	r3, r3, #29
 8001744:	f100 80be 	bmi.w	80018c4 <HAL_RCC_OscConfig+0x1a0>
 8001748:	69a0      	ldr	r0, [r4, #24]
 800174a:	2800      	cmp	r0, #0
 800174c:	f040 811f 	bne.w	800198e <HAL_RCC_OscConfig+0x26a>
 8001750:	2000      	movs	r0, #0
 8001752:	e02b      	b.n	80017ac <HAL_RCC_OscConfig+0x88>
 8001754:	4ba6      	ldr	r3, [pc, #664]	; (80019f0 <HAL_RCC_OscConfig+0x2cc>)
 8001756:	689a      	ldr	r2, [r3, #8]
 8001758:	f002 020c 	and.w	r2, r2, #12
 800175c:	2a04      	cmp	r2, #4
 800175e:	d007      	beq.n	8001770 <HAL_RCC_OscConfig+0x4c>
 8001760:	689a      	ldr	r2, [r3, #8]
 8001762:	f002 020c 	and.w	r2, r2, #12
 8001766:	2a08      	cmp	r2, #8
 8001768:	d10b      	bne.n	8001782 <HAL_RCC_OscConfig+0x5e>
 800176a:	685a      	ldr	r2, [r3, #4]
 800176c:	0251      	lsls	r1, r2, #9
 800176e:	d508      	bpl.n	8001782 <HAL_RCC_OscConfig+0x5e>
 8001770:	4b9f      	ldr	r3, [pc, #636]	; (80019f0 <HAL_RCC_OscConfig+0x2cc>)
 8001772:	681b      	ldr	r3, [r3, #0]
 8001774:	039a      	lsls	r2, r3, #14
 8001776:	d5dc      	bpl.n	8001732 <HAL_RCC_OscConfig+0xe>
 8001778:	6863      	ldr	r3, [r4, #4]
 800177a:	2b00      	cmp	r3, #0
 800177c:	d1d9      	bne.n	8001732 <HAL_RCC_OscConfig+0xe>
 800177e:	2001      	movs	r0, #1
 8001780:	e014      	b.n	80017ac <HAL_RCC_OscConfig+0x88>
 8001782:	6862      	ldr	r2, [r4, #4]
 8001784:	f5b2 3f80 	cmp.w	r2, #65536	; 0x10000
 8001788:	d113      	bne.n	80017b2 <HAL_RCC_OscConfig+0x8e>
 800178a:	681a      	ldr	r2, [r3, #0]
 800178c:	f442 3280 	orr.w	r2, r2, #65536	; 0x10000
 8001790:	601a      	str	r2, [r3, #0]
 8001792:	f7ff fc95 	bl	80010c0 <HAL_GetTick>
 8001796:	4e96      	ldr	r6, [pc, #600]	; (80019f0 <HAL_RCC_OscConfig+0x2cc>)
 8001798:	4605      	mov	r5, r0
 800179a:	6833      	ldr	r3, [r6, #0]
 800179c:	039b      	lsls	r3, r3, #14
 800179e:	d4c8      	bmi.n	8001732 <HAL_RCC_OscConfig+0xe>
 80017a0:	f7ff fc8e 	bl	80010c0 <HAL_GetTick>
 80017a4:	1b40      	subs	r0, r0, r5
 80017a6:	2864      	cmp	r0, #100	; 0x64
 80017a8:	d9f7      	bls.n	800179a <HAL_RCC_OscConfig+0x76>
 80017aa:	2003      	movs	r0, #3
 80017ac:	b002      	add	sp, #8
 80017ae:	e8bd 81f0 	ldmia.w	sp!, {r4, r5, r6, r7, r8, pc}
 80017b2:	4d8f      	ldr	r5, [pc, #572]	; (80019f0 <HAL_RCC_OscConfig+0x2cc>)
 80017b4:	f5b2 2fa0 	cmp.w	r2, #327680	; 0x50000
 80017b8:	682b      	ldr	r3, [r5, #0]
 80017ba:	d107      	bne.n	80017cc <HAL_RCC_OscConfig+0xa8>
 80017bc:	f443 2380 	orr.w	r3, r3, #262144	; 0x40000
 80017c0:	602b      	str	r3, [r5, #0]
 80017c2:	682b      	ldr	r3, [r5, #0]
 80017c4:	f443 3380 	orr.w	r3, r3, #65536	; 0x10000
 80017c8:	602b      	str	r3, [r5, #0]
 80017ca:	e7e2      	b.n	8001792 <HAL_RCC_OscConfig+0x6e>
 80017cc:	f423 3380 	bic.w	r3, r3, #65536	; 0x10000
 80017d0:	602b      	str	r3, [r5, #0]
 80017d2:	682b      	ldr	r3, [r5, #0]
 80017d4:	f423 2380 	bic.w	r3, r3, #262144	; 0x40000
 80017d8:	602b      	str	r3, [r5, #0]
 80017da:	2a00      	cmp	r2, #0
 80017dc:	d1d9      	bne.n	8001792 <HAL_RCC_OscConfig+0x6e>
 80017de:	f7ff fc6f 	bl	80010c0 <HAL_GetTick>
 80017e2:	4606      	mov	r6, r0
 80017e4:	682b      	ldr	r3, [r5, #0]
 80017e6:	039f      	lsls	r7, r3, #14
 80017e8:	d5a3      	bpl.n	8001732 <HAL_RCC_OscConfig+0xe>
 80017ea:	f7ff fc69 	bl	80010c0 <HAL_GetTick>
 80017ee:	1b80      	subs	r0, r0, r6
 80017f0:	2864      	cmp	r0, #100	; 0x64
 80017f2:	d9f7      	bls.n	80017e4 <HAL_RCC_OscConfig+0xc0>
 80017f4:	e7d9      	b.n	80017aa <HAL_RCC_OscConfig+0x86>
 80017f6:	4b7e      	ldr	r3, [pc, #504]	; (80019f0 <HAL_RCC_OscConfig+0x2cc>)
 80017f8:	689a      	ldr	r2, [r3, #8]
 80017fa:	f012 0f0c 	tst.w	r2, #12
 80017fe:	d007      	beq.n	8001810 <HAL_RCC_OscConfig+0xec>
 8001800:	689a      	ldr	r2, [r3, #8]
 8001802:	f002 020c 	and.w	r2, r2, #12
 8001806:	2a08      	cmp	r2, #8
 8001808:	d111      	bne.n	800182e <HAL_RCC_OscConfig+0x10a>
 800180a:	685b      	ldr	r3, [r3, #4]
 800180c:	025e      	lsls	r6, r3, #9
 800180e:	d40e      	bmi.n	800182e <HAL_RCC_OscConfig+0x10a>
 8001810:	4b77      	ldr	r3, [pc, #476]	; (80019f0 <HAL_RCC_OscConfig+0x2cc>)
 8001812:	681a      	ldr	r2, [r3, #0]
 8001814:	0795      	lsls	r5, r2, #30
 8001816:	d502      	bpl.n	800181e <HAL_RCC_OscConfig+0xfa>
 8001818:	68e2      	ldr	r2, [r4, #12]
 800181a:	2a01      	cmp	r2, #1
 800181c:	d1af      	bne.n	800177e <HAL_RCC_OscConfig+0x5a>
 800181e:	681a      	ldr	r2, [r3, #0]
 8001820:	6921      	ldr	r1, [r4, #16]
 8001822:	f022 02f8 	bic.w	r2, r2, #248	; 0xf8
 8001826:	ea42 02c1 	orr.w	r2, r2, r1, lsl #3
 800182a:	601a      	str	r2, [r3, #0]
 800182c:	e784      	b.n	8001738 <HAL_RCC_OscConfig+0x14>
 800182e:	68e2      	ldr	r2, [r4, #12]
 8001830:	4b70      	ldr	r3, [pc, #448]	; (80019f4 <HAL_RCC_OscConfig+0x2d0>)
 8001832:	b1b2      	cbz	r2, 8001862 <HAL_RCC_OscConfig+0x13e>
 8001834:	2201      	movs	r2, #1
 8001836:	601a      	str	r2, [r3, #0]
 8001838:	f7ff fc42 	bl	80010c0 <HAL_GetTick>
 800183c:	4d6c      	ldr	r5, [pc, #432]	; (80019f0 <HAL_RCC_OscConfig+0x2cc>)
 800183e:	4606      	mov	r6, r0
 8001840:	682b      	ldr	r3, [r5, #0]
 8001842:	0798      	lsls	r0, r3, #30
 8001844:	d507      	bpl.n	8001856 <HAL_RCC_OscConfig+0x132>
 8001846:	682b      	ldr	r3, [r5, #0]
 8001848:	6922      	ldr	r2, [r4, #16]
 800184a:	f023 03f8 	bic.w	r3, r3, #248	; 0xf8
 800184e:	ea43 03c2 	orr.w	r3, r3, r2, lsl #3
 8001852:	602b      	str	r3, [r5, #0]
 8001854:	e770      	b.n	8001738 <HAL_RCC_OscConfig+0x14>
 8001856:	f7ff fc33 	bl	80010c0 <HAL_GetTick>
 800185a:	1b80      	subs	r0, r0, r6
 800185c:	2802      	cmp	r0, #2
 800185e:	d9ef      	bls.n	8001840 <HAL_RCC_OscConfig+0x11c>
 8001860:	e7a3      	b.n	80017aa <HAL_RCC_OscConfig+0x86>
 8001862:	601a      	str	r2, [r3, #0]
 8001864:	f7ff fc2c 	bl	80010c0 <HAL_GetTick>
 8001868:	4e61      	ldr	r6, [pc, #388]	; (80019f0 <HAL_RCC_OscConfig+0x2cc>)
 800186a:	4605      	mov	r5, r0
 800186c:	6833      	ldr	r3, [r6, #0]
 800186e:	0799      	lsls	r1, r3, #30
 8001870:	f57f af62 	bpl.w	8001738 <HAL_RCC_OscConfig+0x14>
 8001874:	f7ff fc24 	bl	80010c0 <HAL_GetTick>
 8001878:	1b40      	subs	r0, r0, r5
 800187a:	2802      	cmp	r0, #2
 800187c:	d9f6      	bls.n	800186c <HAL_RCC_OscConfig+0x148>
 800187e:	e794      	b.n	80017aa <HAL_RCC_OscConfig+0x86>
 8001880:	6962      	ldr	r2, [r4, #20]
 8001882:	4b5d      	ldr	r3, [pc, #372]	; (80019f8 <HAL_RCC_OscConfig+0x2d4>)
 8001884:	b17a      	cbz	r2, 80018a6 <HAL_RCC_OscConfig+0x182>
 8001886:	2201      	movs	r2, #1
 8001888:	601a      	str	r2, [r3, #0]
 800188a:	f7ff fc19 	bl	80010c0 <HAL_GetTick>
 800188e:	4e58      	ldr	r6, [pc, #352]	; (80019f0 <HAL_RCC_OscConfig+0x2cc>)
 8001890:	4605      	mov	r5, r0
 8001892:	6f73      	ldr	r3, [r6, #116]	; 0x74
 8001894:	079f      	lsls	r7, r3, #30
 8001896:	f53f af53 	bmi.w	8001740 <HAL_RCC_OscConfig+0x1c>
 800189a:	f7ff fc11 	bl	80010c0 <HAL_GetTick>
 800189e:	1b40      	subs	r0, r0, r5
 80018a0:	2802      	cmp	r0, #2
 80018a2:	d9f6      	bls.n	8001892 <HAL_RCC_OscConfig+0x16e>
 80018a4:	e781      	b.n	80017aa <HAL_RCC_OscConfig+0x86>
 80018a6:	601a      	str	r2, [r3, #0]
 80018a8:	f7ff fc0a 	bl	80010c0 <HAL_GetTick>
 80018ac:	4e50      	ldr	r6, [pc, #320]	; (80019f0 <HAL_RCC_OscConfig+0x2cc>)
 80018ae:	4605      	mov	r5, r0
 80018b0:	6f73      	ldr	r3, [r6, #116]	; 0x74
 80018b2:	0798      	lsls	r0, r3, #30
 80018b4:	f57f af44 	bpl.w	8001740 <HAL_RCC_OscConfig+0x1c>
 80018b8:	f7ff fc02 	bl	80010c0 <HAL_GetTick>
 80018bc:	1b40      	subs	r0, r0, r5
 80018be:	2802      	cmp	r0, #2
 80018c0:	d9f6      	bls.n	80018b0 <HAL_RCC_OscConfig+0x18c>
 80018c2:	e772      	b.n	80017aa <HAL_RCC_OscConfig+0x86>
 80018c4:	4b4a      	ldr	r3, [pc, #296]	; (80019f0 <HAL_RCC_OscConfig+0x2cc>)
 80018c6:	6c1a      	ldr	r2, [r3, #64]	; 0x40
 80018c8:	f012 5280 	ands.w	r2, r2, #268435456	; 0x10000000
 80018cc:	d128      	bne.n	8001920 <HAL_RCC_OscConfig+0x1fc>
 80018ce:	9201      	str	r2, [sp, #4]
 80018d0:	6c1a      	ldr	r2, [r3, #64]	; 0x40
 80018d2:	f042 5280 	orr.w	r2, r2, #268435456	; 0x10000000
 80018d6:	641a      	str	r2, [r3, #64]	; 0x40
 80018d8:	6c1b      	ldr	r3, [r3, #64]	; 0x40
 80018da:	f003 5380 	and.w	r3, r3, #268435456	; 0x10000000
 80018de:	9301      	str	r3, [sp, #4]
 80018e0:	9b01      	ldr	r3, [sp, #4]
 80018e2:	2701      	movs	r7, #1
 80018e4:	4d45      	ldr	r5, [pc, #276]	; (80019fc <HAL_RCC_OscConfig+0x2d8>)
 80018e6:	682b      	ldr	r3, [r5, #0]
 80018e8:	05d9      	lsls	r1, r3, #23
 80018ea:	d51b      	bpl.n	8001924 <HAL_RCC_OscConfig+0x200>
 80018ec:	68a3      	ldr	r3, [r4, #8]
 80018ee:	4d40      	ldr	r5, [pc, #256]	; (80019f0 <HAL_RCC_OscConfig+0x2cc>)
 80018f0:	2b01      	cmp	r3, #1
 80018f2:	d127      	bne.n	8001944 <HAL_RCC_OscConfig+0x220>
 80018f4:	6f2b      	ldr	r3, [r5, #112]	; 0x70
 80018f6:	f043 0301 	orr.w	r3, r3, #1
 80018fa:	672b      	str	r3, [r5, #112]	; 0x70
 80018fc:	f7ff fbe0 	bl	80010c0 <HAL_GetTick>
 8001900:	4e3b      	ldr	r6, [pc, #236]	; (80019f0 <HAL_RCC_OscConfig+0x2cc>)
 8001902:	4605      	mov	r5, r0
 8001904:	f241 3888 	movw	r8, #5000	; 0x1388
 8001908:	6f33      	ldr	r3, [r6, #112]	; 0x70
 800190a:	079b      	lsls	r3, r3, #30
 800190c:	d539      	bpl.n	8001982 <HAL_RCC_OscConfig+0x25e>
 800190e:	2f00      	cmp	r7, #0
 8001910:	f43f af1a 	beq.w	8001748 <HAL_RCC_OscConfig+0x24>
 8001914:	4a36      	ldr	r2, [pc, #216]	; (80019f0 <HAL_RCC_OscConfig+0x2cc>)
 8001916:	6c13      	ldr	r3, [r2, #64]	; 0x40
 8001918:	f023 5380 	bic.w	r3, r3, #268435456	; 0x10000000
 800191c:	6413      	str	r3, [r2, #64]	; 0x40
 800191e:	e713      	b.n	8001748 <HAL_RCC_OscConfig+0x24>
 8001920:	2700      	movs	r7, #0
 8001922:	e7df      	b.n	80018e4 <HAL_RCC_OscConfig+0x1c0>
 8001924:	682b      	ldr	r3, [r5, #0]
 8001926:	f443 7380 	orr.w	r3, r3, #256	; 0x100
 800192a:	602b      	str	r3, [r5, #0]
 800192c:	f7ff fbc8 	bl	80010c0 <HAL_GetTick>
 8001930:	4606      	mov	r6, r0
 8001932:	682b      	ldr	r3, [r5, #0]
 8001934:	05da      	lsls	r2, r3, #23
 8001936:	d4d9      	bmi.n	80018ec <HAL_RCC_OscConfig+0x1c8>
 8001938:	f7ff fbc2 	bl	80010c0 <HAL_GetTick>
 800193c:	1b80      	subs	r0, r0, r6
 800193e:	2802      	cmp	r0, #2
 8001940:	d9f7      	bls.n	8001932 <HAL_RCC_OscConfig+0x20e>
 8001942:	e732      	b.n	80017aa <HAL_RCC_OscConfig+0x86>
 8001944:	2b05      	cmp	r3, #5
 8001946:	d104      	bne.n	8001952 <HAL_RCC_OscConfig+0x22e>
 8001948:	6f2b      	ldr	r3, [r5, #112]	; 0x70
 800194a:	f043 0304 	orr.w	r3, r3, #4
 800194e:	672b      	str	r3, [r5, #112]	; 0x70
 8001950:	e7d0      	b.n	80018f4 <HAL_RCC_OscConfig+0x1d0>
 8001952:	6f2a      	ldr	r2, [r5, #112]	; 0x70
 8001954:	f022 0201 	bic.w	r2, r2, #1
 8001958:	672a      	str	r2, [r5, #112]	; 0x70
 800195a:	6f2a      	ldr	r2, [r5, #112]	; 0x70
 800195c:	f022 0204 	bic.w	r2, r2, #4
 8001960:	672a      	str	r2, [r5, #112]	; 0x70
 8001962:	2b00      	cmp	r3, #0
 8001964:	d1ca      	bne.n	80018fc <HAL_RCC_OscConfig+0x1d8>
 8001966:	f7ff fbab 	bl	80010c0 <HAL_GetTick>
 800196a:	f241 3888 	movw	r8, #5000	; 0x1388
 800196e:	4606      	mov	r6, r0
 8001970:	6f2b      	ldr	r3, [r5, #112]	; 0x70
 8001972:	0798      	lsls	r0, r3, #30
 8001974:	d5cb      	bpl.n	800190e <HAL_RCC_OscConfig+0x1ea>
 8001976:	f7ff fba3 	bl	80010c0 <HAL_GetTick>
 800197a:	1b80      	subs	r0, r0, r6
 800197c:	4540      	cmp	r0, r8
 800197e:	d9f7      	bls.n	8001970 <HAL_RCC_OscConfig+0x24c>
 8001980:	e713      	b.n	80017aa <HAL_RCC_OscConfig+0x86>
 8001982:	f7ff fb9d 	bl	80010c0 <HAL_GetTick>
 8001986:	1b40      	subs	r0, r0, r5
 8001988:	4540      	cmp	r0, r8
 800198a:	d9bd      	bls.n	8001908 <HAL_RCC_OscConfig+0x1e4>
 800198c:	e70d      	b.n	80017aa <HAL_RCC_OscConfig+0x86>
 800198e:	4d18      	ldr	r5, [pc, #96]	; (80019f0 <HAL_RCC_OscConfig+0x2cc>)
 8001990:	68ab      	ldr	r3, [r5, #8]
 8001992:	f003 030c 	and.w	r3, r3, #12
 8001996:	2b08      	cmp	r3, #8
 8001998:	d047      	beq.n	8001a2a <HAL_RCC_OscConfig+0x306>
 800199a:	4e19      	ldr	r6, [pc, #100]	; (8001a00 <HAL_RCC_OscConfig+0x2dc>)
 800199c:	2300      	movs	r3, #0
 800199e:	2802      	cmp	r0, #2
 80019a0:	6033      	str	r3, [r6, #0]
 80019a2:	d135      	bne.n	8001a10 <HAL_RCC_OscConfig+0x2ec>
 80019a4:	f7ff fb8c 	bl	80010c0 <HAL_GetTick>
 80019a8:	4607      	mov	r7, r0
 80019aa:	682b      	ldr	r3, [r5, #0]
 80019ac:	0199      	lsls	r1, r3, #6
 80019ae:	d429      	bmi.n	8001a04 <HAL_RCC_OscConfig+0x2e0>
 80019b0:	e9d4 3207 	ldrd	r3, r2, [r4, #28]
 80019b4:	4313      	orrs	r3, r2
 80019b6:	6a62      	ldr	r2, [r4, #36]	; 0x24
 80019b8:	ea43 1382 	orr.w	r3, r3, r2, lsl #6
 80019bc:	6ae2      	ldr	r2, [r4, #44]	; 0x2c
 80019be:	ea43 6302 	orr.w	r3, r3, r2, lsl #24
 80019c2:	6aa2      	ldr	r2, [r4, #40]	; 0x28
 80019c4:	0852      	lsrs	r2, r2, #1
 80019c6:	3a01      	subs	r2, #1
 80019c8:	ea43 4302 	orr.w	r3, r3, r2, lsl #16
 80019cc:	606b      	str	r3, [r5, #4]
 80019ce:	2301      	movs	r3, #1
 80019d0:	6033      	str	r3, [r6, #0]
 80019d2:	f7ff fb75 	bl	80010c0 <HAL_GetTick>
 80019d6:	4d06      	ldr	r5, [pc, #24]	; (80019f0 <HAL_RCC_OscConfig+0x2cc>)
 80019d8:	4604      	mov	r4, r0
 80019da:	682b      	ldr	r3, [r5, #0]
 80019dc:	019a      	lsls	r2, r3, #6
 80019de:	f53f aeb7 	bmi.w	8001750 <HAL_RCC_OscConfig+0x2c>
 80019e2:	f7ff fb6d 	bl	80010c0 <HAL_GetTick>
 80019e6:	1b00      	subs	r0, r0, r4
 80019e8:	2802      	cmp	r0, #2
 80019ea:	d9f6      	bls.n	80019da <HAL_RCC_OscConfig+0x2b6>
 80019ec:	e6dd      	b.n	80017aa <HAL_RCC_OscConfig+0x86>
 80019ee:	bf00      	nop
 80019f0:	40023800 	.word	0x40023800
 80019f4:	42470000 	.word	0x42470000
 80019f8:	42470e80 	.word	0x42470e80
 80019fc:	40007000 	.word	0x40007000
 8001a00:	42470060 	.word	0x42470060
 8001a04:	f7ff fb5c 	bl	80010c0 <HAL_GetTick>
 8001a08:	1bc0      	subs	r0, r0, r7
 8001a0a:	2802      	cmp	r0, #2
 8001a0c:	d9cd      	bls.n	80019aa <HAL_RCC_OscConfig+0x286>
 8001a0e:	e6cc      	b.n	80017aa <HAL_RCC_OscConfig+0x86>
 8001a10:	f7ff fb56 	bl	80010c0 <HAL_GetTick>
 8001a14:	4604      	mov	r4, r0
 8001a16:	682b      	ldr	r3, [r5, #0]
 8001a18:	019b      	lsls	r3, r3, #6
 8001a1a:	f57f ae99 	bpl.w	8001750 <HAL_RCC_OscConfig+0x2c>
 8001a1e:	f7ff fb4f 	bl	80010c0 <HAL_GetTick>
 8001a22:	1b00      	subs	r0, r0, r4
 8001a24:	2802      	cmp	r0, #2
 8001a26:	d9f6      	bls.n	8001a16 <HAL_RCC_OscConfig+0x2f2>
 8001a28:	e6bf      	b.n	80017aa <HAL_RCC_OscConfig+0x86>
 8001a2a:	2801      	cmp	r0, #1
 8001a2c:	f43f aebe 	beq.w	80017ac <HAL_RCC_OscConfig+0x88>
 8001a30:	686b      	ldr	r3, [r5, #4]
 8001a32:	69e2      	ldr	r2, [r4, #28]
 8001a34:	f403 0180 	and.w	r1, r3, #4194304	; 0x400000
 8001a38:	4291      	cmp	r1, r2
 8001a3a:	f47f aea0 	bne.w	800177e <HAL_RCC_OscConfig+0x5a>
 8001a3e:	6a21      	ldr	r1, [r4, #32]
 8001a40:	f003 023f 	and.w	r2, r3, #63	; 0x3f
 8001a44:	428a      	cmp	r2, r1
 8001a46:	f47f ae9a 	bne.w	800177e <HAL_RCC_OscConfig+0x5a>
 8001a4a:	6a61      	ldr	r1, [r4, #36]	; 0x24
 8001a4c:	f647 72c0 	movw	r2, #32704	; 0x7fc0
 8001a50:	401a      	ands	r2, r3
 8001a52:	ebb2 1f81 	cmp.w	r2, r1, lsl #6
 8001a56:	f47f ae92 	bne.w	800177e <HAL_RCC_OscConfig+0x5a>
 8001a5a:	6aa2      	ldr	r2, [r4, #40]	; 0x28
 8001a5c:	0852      	lsrs	r2, r2, #1
 8001a5e:	f403 3140 	and.w	r1, r3, #196608	; 0x30000
 8001a62:	3a01      	subs	r2, #1
 8001a64:	ebb1 4f02 	cmp.w	r1, r2, lsl #16
 8001a68:	f47f ae89 	bne.w	800177e <HAL_RCC_OscConfig+0x5a>
 8001a6c:	6ae2      	ldr	r2, [r4, #44]	; 0x2c
 8001a6e:	f003 6370 	and.w	r3, r3, #251658240	; 0xf000000
 8001a72:	ebb3 6f02 	cmp.w	r3, r2, lsl #24
 8001a76:	f43f ae6b 	beq.w	8001750 <HAL_RCC_OscConfig+0x2c>
 8001a7a:	e680      	b.n	800177e <HAL_RCC_OscConfig+0x5a>

08001a7c <HAL_RCC_GetSysClockFreq>:
 8001a7c:	4913      	ldr	r1, [pc, #76]	; (8001acc <HAL_RCC_GetSysClockFreq+0x50>)
 8001a7e:	b508      	push	{r3, lr}
 8001a80:	688b      	ldr	r3, [r1, #8]
 8001a82:	f003 030c 	and.w	r3, r3, #12
 8001a86:	2b04      	cmp	r3, #4
 8001a88:	d01c      	beq.n	8001ac4 <HAL_RCC_GetSysClockFreq+0x48>
 8001a8a:	2b08      	cmp	r3, #8
 8001a8c:	d11c      	bne.n	8001ac8 <HAL_RCC_GetSysClockFreq+0x4c>
 8001a8e:	684a      	ldr	r2, [r1, #4]
 8001a90:	684b      	ldr	r3, [r1, #4]
 8001a92:	6849      	ldr	r1, [r1, #4]
 8001a94:	f413 0380 	ands.w	r3, r3, #4194304	; 0x400000
 8001a98:	bf14      	ite	ne
 8001a9a:	480d      	ldrne	r0, [pc, #52]	; (8001ad0 <HAL_RCC_GetSysClockFreq+0x54>)
 8001a9c:	480d      	ldreq	r0, [pc, #52]	; (8001ad4 <HAL_RCC_GetSysClockFreq+0x58>)
 8001a9e:	f3c1 1188 	ubfx	r1, r1, #6, #9
 8001aa2:	bf18      	it	ne
 8001aa4:	2300      	movne	r3, #0
 8001aa6:	f002 023f 	and.w	r2, r2, #63	; 0x3f
 8001aaa:	fba1 0100 	umull	r0, r1, r1, r0
 8001aae:	f7fe fbf7 	bl	80002a0 <__aeabi_uldivmod>
 8001ab2:	4b06      	ldr	r3, [pc, #24]	; (8001acc <HAL_RCC_GetSysClockFreq+0x50>)
 8001ab4:	685b      	ldr	r3, [r3, #4]
 8001ab6:	f3c3 4301 	ubfx	r3, r3, #16, #2
 8001aba:	3301      	adds	r3, #1
 8001abc:	005b      	lsls	r3, r3, #1
 8001abe:	fbb0 f0f3 	udiv	r0, r0, r3
 8001ac2:	bd08      	pop	{r3, pc}
 8001ac4:	4802      	ldr	r0, [pc, #8]	; (8001ad0 <HAL_RCC_GetSysClockFreq+0x54>)
 8001ac6:	e7fc      	b.n	8001ac2 <HAL_RCC_GetSysClockFreq+0x46>
 8001ac8:	4802      	ldr	r0, [pc, #8]	; (8001ad4 <HAL_RCC_GetSysClockFreq+0x58>)
 8001aca:	e7fa      	b.n	8001ac2 <HAL_RCC_GetSysClockFreq+0x46>
 8001acc:	40023800 	.word	0x40023800
 8001ad0:	007a1200 	.word	0x007a1200
 8001ad4:	00f42400 	.word	0x00f42400

08001ad8 <HAL_RCC_ClockConfig>:
 8001ad8:	e92d 41f0 	stmdb	sp!, {r4, r5, r6, r7, r8, lr}
 8001adc:	460d      	mov	r5, r1
 8001ade:	4604      	mov	r4, r0
 8001ae0:	b910      	cbnz	r0, 8001ae8 <HAL_RCC_ClockConfig+0x10>
 8001ae2:	2001      	movs	r0, #1
 8001ae4:	e8bd 81f0 	ldmia.w	sp!, {r4, r5, r6, r7, r8, pc}
 8001ae8:	4b44      	ldr	r3, [pc, #272]	; (8001bfc <HAL_RCC_ClockConfig+0x124>)
 8001aea:	681a      	ldr	r2, [r3, #0]
 8001aec:	f002 0207 	and.w	r2, r2, #7
 8001af0:	428a      	cmp	r2, r1
 8001af2:	d328      	bcc.n	8001b46 <HAL_RCC_ClockConfig+0x6e>
 8001af4:	6822      	ldr	r2, [r4, #0]
 8001af6:	0797      	lsls	r7, r2, #30
 8001af8:	d42d      	bmi.n	8001b56 <HAL_RCC_ClockConfig+0x7e>
 8001afa:	07d0      	lsls	r0, r2, #31
 8001afc:	d441      	bmi.n	8001b82 <HAL_RCC_ClockConfig+0xaa>
 8001afe:	4b3f      	ldr	r3, [pc, #252]	; (8001bfc <HAL_RCC_ClockConfig+0x124>)
 8001b00:	681a      	ldr	r2, [r3, #0]
 8001b02:	f002 0207 	and.w	r2, r2, #7
 8001b06:	42aa      	cmp	r2, r5
 8001b08:	d866      	bhi.n	8001bd8 <HAL_RCC_ClockConfig+0x100>
 8001b0a:	6822      	ldr	r2, [r4, #0]
 8001b0c:	0751      	lsls	r1, r2, #29
 8001b0e:	d46c      	bmi.n	8001bea <HAL_RCC_ClockConfig+0x112>
 8001b10:	0713      	lsls	r3, r2, #28
 8001b12:	d507      	bpl.n	8001b24 <HAL_RCC_ClockConfig+0x4c>
 8001b14:	4a3a      	ldr	r2, [pc, #232]	; (8001c00 <HAL_RCC_ClockConfig+0x128>)
 8001b16:	6921      	ldr	r1, [r4, #16]
 8001b18:	6893      	ldr	r3, [r2, #8]
 8001b1a:	f423 4360 	bic.w	r3, r3, #57344	; 0xe000
 8001b1e:	ea43 03c1 	orr.w	r3, r3, r1, lsl #3
 8001b22:	6093      	str	r3, [r2, #8]
 8001b24:	f7ff ffaa 	bl	8001a7c <HAL_RCC_GetSysClockFreq>
 8001b28:	4b35      	ldr	r3, [pc, #212]	; (8001c00 <HAL_RCC_ClockConfig+0x128>)
 8001b2a:	4a36      	ldr	r2, [pc, #216]	; (8001c04 <HAL_RCC_ClockConfig+0x12c>)
 8001b2c:	689b      	ldr	r3, [r3, #8]
 8001b2e:	f3c3 1303 	ubfx	r3, r3, #4, #4
 8001b32:	5cd3      	ldrb	r3, [r2, r3]
 8001b34:	40d8      	lsrs	r0, r3
 8001b36:	4b34      	ldr	r3, [pc, #208]	; (8001c08 <HAL_RCC_ClockConfig+0x130>)
 8001b38:	6018      	str	r0, [r3, #0]
 8001b3a:	4b34      	ldr	r3, [pc, #208]	; (8001c0c <HAL_RCC_ClockConfig+0x134>)
 8001b3c:	6818      	ldr	r0, [r3, #0]
 8001b3e:	f7ff fa75 	bl	800102c <HAL_InitTick>
 8001b42:	2000      	movs	r0, #0
 8001b44:	e7ce      	b.n	8001ae4 <HAL_RCC_ClockConfig+0xc>
 8001b46:	b2ca      	uxtb	r2, r1
 8001b48:	701a      	strb	r2, [r3, #0]
 8001b4a:	681b      	ldr	r3, [r3, #0]
 8001b4c:	f003 0307 	and.w	r3, r3, #7
 8001b50:	428b      	cmp	r3, r1
 8001b52:	d1c6      	bne.n	8001ae2 <HAL_RCC_ClockConfig+0xa>
 8001b54:	e7ce      	b.n	8001af4 <HAL_RCC_ClockConfig+0x1c>
 8001b56:	4b2a      	ldr	r3, [pc, #168]	; (8001c00 <HAL_RCC_ClockConfig+0x128>)
 8001b58:	f012 0f04 	tst.w	r2, #4
 8001b5c:	bf1e      	ittt	ne
 8001b5e:	6899      	ldrne	r1, [r3, #8]
 8001b60:	f441 51e0 	orrne.w	r1, r1, #7168	; 0x1c00
 8001b64:	6099      	strne	r1, [r3, #8]
 8001b66:	0716      	lsls	r6, r2, #28
 8001b68:	bf42      	ittt	mi
 8001b6a:	6899      	ldrmi	r1, [r3, #8]
 8001b6c:	f441 4160 	orrmi.w	r1, r1, #57344	; 0xe000
 8001b70:	6099      	strmi	r1, [r3, #8]
 8001b72:	4923      	ldr	r1, [pc, #140]	; (8001c00 <HAL_RCC_ClockConfig+0x128>)
 8001b74:	68a0      	ldr	r0, [r4, #8]
 8001b76:	688b      	ldr	r3, [r1, #8]
 8001b78:	f023 03f0 	bic.w	r3, r3, #240	; 0xf0
 8001b7c:	4303      	orrs	r3, r0
 8001b7e:	608b      	str	r3, [r1, #8]
 8001b80:	e7bb      	b.n	8001afa <HAL_RCC_ClockConfig+0x22>
 8001b82:	6862      	ldr	r2, [r4, #4]
 8001b84:	4b1e      	ldr	r3, [pc, #120]	; (8001c00 <HAL_RCC_ClockConfig+0x128>)
 8001b86:	2a01      	cmp	r2, #1
 8001b88:	d11c      	bne.n	8001bc4 <HAL_RCC_ClockConfig+0xec>
 8001b8a:	681b      	ldr	r3, [r3, #0]
 8001b8c:	f413 3f00 	tst.w	r3, #131072	; 0x20000
 8001b90:	d0a7      	beq.n	8001ae2 <HAL_RCC_ClockConfig+0xa>
 8001b92:	4e1b      	ldr	r6, [pc, #108]	; (8001c00 <HAL_RCC_ClockConfig+0x128>)
 8001b94:	68b3      	ldr	r3, [r6, #8]
 8001b96:	f023 0303 	bic.w	r3, r3, #3
 8001b9a:	4313      	orrs	r3, r2
 8001b9c:	60b3      	str	r3, [r6, #8]
 8001b9e:	f7ff fa8f 	bl	80010c0 <HAL_GetTick>
 8001ba2:	f241 3888 	movw	r8, #5000	; 0x1388
 8001ba6:	4607      	mov	r7, r0
 8001ba8:	68b3      	ldr	r3, [r6, #8]
 8001baa:	6862      	ldr	r2, [r4, #4]
 8001bac:	f003 030c 	and.w	r3, r3, #12
 8001bb0:	ebb3 0f82 	cmp.w	r3, r2, lsl #2
 8001bb4:	d0a3      	beq.n	8001afe <HAL_RCC_ClockConfig+0x26>
 8001bb6:	f7ff fa83 	bl	80010c0 <HAL_GetTick>
 8001bba:	1bc0      	subs	r0, r0, r7
 8001bbc:	4540      	cmp	r0, r8
 8001bbe:	d9f3      	bls.n	8001ba8 <HAL_RCC_ClockConfig+0xd0>
 8001bc0:	2003      	movs	r0, #3
 8001bc2:	e78f      	b.n	8001ae4 <HAL_RCC_ClockConfig+0xc>
 8001bc4:	1e91      	subs	r1, r2, #2
 8001bc6:	2901      	cmp	r1, #1
 8001bc8:	681b      	ldr	r3, [r3, #0]
 8001bca:	d802      	bhi.n	8001bd2 <HAL_RCC_ClockConfig+0xfa>
 8001bcc:	f013 7f00 	tst.w	r3, #33554432	; 0x2000000
 8001bd0:	e7de      	b.n	8001b90 <HAL_RCC_ClockConfig+0xb8>
 8001bd2:	f013 0f02 	tst.w	r3, #2
 8001bd6:	e7db      	b.n	8001b90 <HAL_RCC_ClockConfig+0xb8>
 8001bd8:	b2ea      	uxtb	r2, r5
 8001bda:	701a      	strb	r2, [r3, #0]
 8001bdc:	681b      	ldr	r3, [r3, #0]
 8001bde:	f003 0307 	and.w	r3, r3, #7
 8001be2:	42ab      	cmp	r3, r5
 8001be4:	f47f af7d 	bne.w	8001ae2 <HAL_RCC_ClockConfig+0xa>
 8001be8:	e78f      	b.n	8001b0a <HAL_RCC_ClockConfig+0x32>
 8001bea:	4905      	ldr	r1, [pc, #20]	; (8001c00 <HAL_RCC_ClockConfig+0x128>)
 8001bec:	68e0      	ldr	r0, [r4, #12]
 8001bee:	688b      	ldr	r3, [r1, #8]
 8001bf0:	f423 53e0 	bic.w	r3, r3, #7168	; 0x1c00
 8001bf4:	4303      	orrs	r3, r0
 8001bf6:	608b      	str	r3, [r1, #8]
 8001bf8:	e78a      	b.n	8001b10 <HAL_RCC_ClockConfig+0x38>
 8001bfa:	bf00      	nop
 8001bfc:	40023c00 	.word	0x40023c00
 8001c00:	40023800 	.word	0x40023800
 8001c04:	08004182 	.word	0x08004182
 8001c08:	20000020 	.word	0x20000020
 8001c0c:	20000028 	.word	0x20000028

08001c10 <HAL_RCC_GetPCLK1Freq>:
 8001c10:	4b04      	ldr	r3, [pc, #16]	; (8001c24 <HAL_RCC_GetPCLK1Freq+0x14>)
 8001c12:	4a05      	ldr	r2, [pc, #20]	; (8001c28 <HAL_RCC_GetPCLK1Freq+0x18>)
 8001c14:	689b      	ldr	r3, [r3, #8]
 8001c16:	f3c3 2382 	ubfx	r3, r3, #10, #3
 8001c1a:	5cd3      	ldrb	r3, [r2, r3]
 8001c1c:	4a03      	ldr	r2, [pc, #12]	; (8001c2c <HAL_RCC_GetPCLK1Freq+0x1c>)
 8001c1e:	6810      	ldr	r0, [r2, #0]
 8001c20:	40d8      	lsrs	r0, r3
 8001c22:	4770      	bx	lr
 8001c24:	40023800 	.word	0x40023800
 8001c28:	08004192 	.word	0x08004192
 8001c2c:	20000020 	.word	0x20000020

08001c30 <HAL_RCC_GetPCLK2Freq>:
 8001c30:	4b04      	ldr	r3, [pc, #16]	; (8001c44 <HAL_RCC_GetPCLK2Freq+0x14>)
 8001c32:	4a05      	ldr	r2, [pc, #20]	; (8001c48 <HAL_RCC_GetPCLK2Freq+0x18>)
 8001c34:	689b      	ldr	r3, [r3, #8]
 8001c36:	f3c3 3342 	ubfx	r3, r3, #13, #3
 8001c3a:	5cd3      	ldrb	r3, [r2, r3]
 8001c3c:	4a03      	ldr	r2, [pc, #12]	; (8001c4c <HAL_RCC_GetPCLK2Freq+0x1c>)
 8001c3e:	6810      	ldr	r0, [r2, #0]
 8001c40:	40d8      	lsrs	r0, r3
 8001c42:	4770      	bx	lr
 8001c44:	40023800 	.word	0x40023800
 8001c48:	08004192 	.word	0x08004192
 8001c4c:	20000020 	.word	0x20000020

08001c50 <TIM_OC1_SetConfig>:
 8001c50:	6a03      	ldr	r3, [r0, #32]
 8001c52:	f023 0301 	bic.w	r3, r3, #1
 8001c56:	6203      	str	r3, [r0, #32]
 8001c58:	6a03      	ldr	r3, [r0, #32]
 8001c5a:	b570      	push	{r4, r5, r6, lr}
 8001c5c:	6844      	ldr	r4, [r0, #4]
 8001c5e:	6982      	ldr	r2, [r0, #24]
 8001c60:	680d      	ldr	r5, [r1, #0]
 8001c62:	f022 0273 	bic.w	r2, r2, #115	; 0x73
 8001c66:	432a      	orrs	r2, r5
 8001c68:	688d      	ldr	r5, [r1, #8]
 8001c6a:	f023 0302 	bic.w	r3, r3, #2
 8001c6e:	432b      	orrs	r3, r5
 8001c70:	4d0e      	ldr	r5, [pc, #56]	; (8001cac <TIM_OC1_SetConfig+0x5c>)
 8001c72:	42a8      	cmp	r0, r5
 8001c74:	d002      	beq.n	8001c7c <TIM_OC1_SetConfig+0x2c>
 8001c76:	4e0e      	ldr	r6, [pc, #56]	; (8001cb0 <TIM_OC1_SetConfig+0x60>)
 8001c78:	42b0      	cmp	r0, r6
 8001c7a:	d110      	bne.n	8001c9e <TIM_OC1_SetConfig+0x4e>
 8001c7c:	68ce      	ldr	r6, [r1, #12]
 8001c7e:	f023 0308 	bic.w	r3, r3, #8
 8001c82:	4333      	orrs	r3, r6
 8001c84:	42a8      	cmp	r0, r5
 8001c86:	f023 0304 	bic.w	r3, r3, #4
 8001c8a:	d002      	beq.n	8001c92 <TIM_OC1_SetConfig+0x42>
 8001c8c:	4d08      	ldr	r5, [pc, #32]	; (8001cb0 <TIM_OC1_SetConfig+0x60>)
 8001c8e:	42a8      	cmp	r0, r5
 8001c90:	d105      	bne.n	8001c9e <TIM_OC1_SetConfig+0x4e>
 8001c92:	e9d1 5605 	ldrd	r5, r6, [r1, #20]
 8001c96:	f424 7440 	bic.w	r4, r4, #768	; 0x300
 8001c9a:	4335      	orrs	r5, r6
 8001c9c:	432c      	orrs	r4, r5
 8001c9e:	6044      	str	r4, [r0, #4]
 8001ca0:	6182      	str	r2, [r0, #24]
 8001ca2:	684a      	ldr	r2, [r1, #4]
 8001ca4:	6342      	str	r2, [r0, #52]	; 0x34
 8001ca6:	6203      	str	r3, [r0, #32]
 8001ca8:	bd70      	pop	{r4, r5, r6, pc}
 8001caa:	bf00      	nop
 8001cac:	40010000 	.word	0x40010000
 8001cb0:	40010400 	.word	0x40010400

08001cb4 <TIM_OC3_SetConfig>:
 8001cb4:	6a03      	ldr	r3, [r0, #32]
 8001cb6:	f423 7380 	bic.w	r3, r3, #256	; 0x100
 8001cba:	6203      	str	r3, [r0, #32]
 8001cbc:	6a03      	ldr	r3, [r0, #32]
 8001cbe:	b570      	push	{r4, r5, r6, lr}
 8001cc0:	6844      	ldr	r4, [r0, #4]
 8001cc2:	69c2      	ldr	r2, [r0, #28]
 8001cc4:	680d      	ldr	r5, [r1, #0]
 8001cc6:	f022 0273 	bic.w	r2, r2, #115	; 0x73
 8001cca:	432a      	orrs	r2, r5
 8001ccc:	688d      	ldr	r5, [r1, #8]
 8001cce:	f423 7300 	bic.w	r3, r3, #512	; 0x200
 8001cd2:	ea43 2305 	orr.w	r3, r3, r5, lsl #8
 8001cd6:	4d11      	ldr	r5, [pc, #68]	; (8001d1c <TIM_OC3_SetConfig+0x68>)
 8001cd8:	42a8      	cmp	r0, r5
 8001cda:	d003      	beq.n	8001ce4 <TIM_OC3_SetConfig+0x30>
 8001cdc:	f505 6580 	add.w	r5, r5, #1024	; 0x400
 8001ce0:	42a8      	cmp	r0, r5
 8001ce2:	d114      	bne.n	8001d0e <TIM_OC3_SetConfig+0x5a>
 8001ce4:	68cd      	ldr	r5, [r1, #12]
 8001ce6:	f423 6300 	bic.w	r3, r3, #2048	; 0x800
 8001cea:	ea43 2305 	orr.w	r3, r3, r5, lsl #8
 8001cee:	4d0b      	ldr	r5, [pc, #44]	; (8001d1c <TIM_OC3_SetConfig+0x68>)
 8001cf0:	42a8      	cmp	r0, r5
 8001cf2:	f423 6380 	bic.w	r3, r3, #1024	; 0x400
 8001cf6:	d003      	beq.n	8001d00 <TIM_OC3_SetConfig+0x4c>
 8001cf8:	f505 6580 	add.w	r5, r5, #1024	; 0x400
 8001cfc:	42a8      	cmp	r0, r5
 8001cfe:	d106      	bne.n	8001d0e <TIM_OC3_SetConfig+0x5a>
 8001d00:	e9d1 5605 	ldrd	r5, r6, [r1, #20]
 8001d04:	f424 5440 	bic.w	r4, r4, #12288	; 0x3000
 8001d08:	4335      	orrs	r5, r6
 8001d0a:	ea44 1405 	orr.w	r4, r4, r5, lsl #4
 8001d0e:	6044      	str	r4, [r0, #4]
 8001d10:	61c2      	str	r2, [r0, #28]
 8001d12:	684a      	ldr	r2, [r1, #4]
 8001d14:	63c2      	str	r2, [r0, #60]	; 0x3c
 8001d16:	6203      	str	r3, [r0, #32]
 8001d18:	bd70      	pop	{r4, r5, r6, pc}
 8001d1a:	bf00      	nop
 8001d1c:	40010000 	.word	0x40010000

08001d20 <TIM_OC4_SetConfig>:
 8001d20:	6a03      	ldr	r3, [r0, #32]
 8001d22:	f423 5380 	bic.w	r3, r3, #4096	; 0x1000
 8001d26:	6203      	str	r3, [r0, #32]
 8001d28:	6a03      	ldr	r3, [r0, #32]
 8001d2a:	b530      	push	{r4, r5, lr}
 8001d2c:	6844      	ldr	r4, [r0, #4]
 8001d2e:	69c2      	ldr	r2, [r0, #28]
 8001d30:	680d      	ldr	r5, [r1, #0]
 8001d32:	f422 42e6 	bic.w	r2, r2, #29440	; 0x7300
 8001d36:	ea42 2205 	orr.w	r2, r2, r5, lsl #8
 8001d3a:	688d      	ldr	r5, [r1, #8]
 8001d3c:	f423 5300 	bic.w	r3, r3, #8192	; 0x2000
 8001d40:	ea43 3305 	orr.w	r3, r3, r5, lsl #12
 8001d44:	4d08      	ldr	r5, [pc, #32]	; (8001d68 <TIM_OC4_SetConfig+0x48>)
 8001d46:	42a8      	cmp	r0, r5
 8001d48:	d003      	beq.n	8001d52 <TIM_OC4_SetConfig+0x32>
 8001d4a:	f505 6580 	add.w	r5, r5, #1024	; 0x400
 8001d4e:	42a8      	cmp	r0, r5
 8001d50:	d104      	bne.n	8001d5c <TIM_OC4_SetConfig+0x3c>
 8001d52:	694d      	ldr	r5, [r1, #20]
 8001d54:	f424 4480 	bic.w	r4, r4, #16384	; 0x4000
 8001d58:	ea44 1485 	orr.w	r4, r4, r5, lsl #6
 8001d5c:	6044      	str	r4, [r0, #4]
 8001d5e:	61c2      	str	r2, [r0, #28]
 8001d60:	684a      	ldr	r2, [r1, #4]
 8001d62:	6402      	str	r2, [r0, #64]	; 0x40
 8001d64:	6203      	str	r3, [r0, #32]
 8001d66:	bd30      	pop	{r4, r5, pc}
 8001d68:	40010000 	.word	0x40010000

08001d6c <HAL_TIM_Base_Start>:
 8001d6c:	f890 303d 	ldrb.w	r3, [r0, #61]	; 0x3d
 8001d70:	2b01      	cmp	r3, #1
 8001d72:	d12c      	bne.n	8001dce <HAL_TIM_Base_Start+0x62>
 8001d74:	2302      	movs	r3, #2
 8001d76:	4a17      	ldr	r2, [pc, #92]	; (8001dd4 <HAL_TIM_Base_Start+0x68>)
 8001d78:	f880 303d 	strb.w	r3, [r0, #61]	; 0x3d
 8001d7c:	6803      	ldr	r3, [r0, #0]
 8001d7e:	4293      	cmp	r3, r2
 8001d80:	d01a      	beq.n	8001db8 <HAL_TIM_Base_Start+0x4c>
 8001d82:	f1b3 4f80 	cmp.w	r3, #1073741824	; 0x40000000
 8001d86:	d017      	beq.n	8001db8 <HAL_TIM_Base_Start+0x4c>
 8001d88:	f5a2 427c 	sub.w	r2, r2, #64512	; 0xfc00
 8001d8c:	4293      	cmp	r3, r2
 8001d8e:	d013      	beq.n	8001db8 <HAL_TIM_Base_Start+0x4c>
 8001d90:	f502 6280 	add.w	r2, r2, #1024	; 0x400
 8001d94:	4293      	cmp	r3, r2
 8001d96:	d00f      	beq.n	8001db8 <HAL_TIM_Base_Start+0x4c>
 8001d98:	f502 6280 	add.w	r2, r2, #1024	; 0x400
 8001d9c:	4293      	cmp	r3, r2
 8001d9e:	d00b      	beq.n	8001db8 <HAL_TIM_Base_Start+0x4c>
 8001da0:	f502 4278 	add.w	r2, r2, #63488	; 0xf800
 8001da4:	4293      	cmp	r3, r2
 8001da6:	d007      	beq.n	8001db8 <HAL_TIM_Base_Start+0x4c>
 8001da8:	f502 5270 	add.w	r2, r2, #15360	; 0x3c00
 8001dac:	4293      	cmp	r3, r2
 8001dae:	d003      	beq.n	8001db8 <HAL_TIM_Base_Start+0x4c>
 8001db0:	f5a2 3294 	sub.w	r2, r2, #75776	; 0x12800
 8001db4:	4293      	cmp	r3, r2
 8001db6:	d104      	bne.n	8001dc2 <HAL_TIM_Base_Start+0x56>
 8001db8:	689a      	ldr	r2, [r3, #8]
 8001dba:	f002 0207 	and.w	r2, r2, #7
 8001dbe:	2a06      	cmp	r2, #6
 8001dc0:	d003      	beq.n	8001dca <HAL_TIM_Base_Start+0x5e>
 8001dc2:	681a      	ldr	r2, [r3, #0]
 8001dc4:	f042 0201 	orr.w	r2, r2, #1
 8001dc8:	601a      	str	r2, [r3, #0]
 8001dca:	2000      	movs	r0, #0
 8001dcc:	4770      	bx	lr
 8001dce:	2001      	movs	r0, #1
 8001dd0:	4770      	bx	lr
 8001dd2:	bf00      	nop
 8001dd4:	40010000 	.word	0x40010000

08001dd8 <HAL_TIM_PeriodElapsedCallback>:
 8001dd8:	4770      	bx	lr

08001dda <HAL_TIM_OC_DelayElapsedCallback>:
 8001dda:	4770      	bx	lr

08001ddc <HAL_TIM_IC_CaptureCallback>:
 8001ddc:	4770      	bx	lr

08001dde <HAL_TIM_PWM_PulseFinishedCallback>:
 8001dde:	4770      	bx	lr

08001de0 <HAL_TIM_TriggerCallback>:
 8001de0:	4770      	bx	lr

08001de2 <HAL_TIM_IRQHandler>:
 8001de2:	6803      	ldr	r3, [r0, #0]
 8001de4:	691a      	ldr	r2, [r3, #16]
 8001de6:	0791      	lsls	r1, r2, #30
 8001de8:	b510      	push	{r4, lr}
 8001dea:	4604      	mov	r4, r0
 8001dec:	d50e      	bpl.n	8001e0c <HAL_TIM_IRQHandler+0x2a>
 8001dee:	68da      	ldr	r2, [r3, #12]
 8001df0:	0792      	lsls	r2, r2, #30
 8001df2:	d50b      	bpl.n	8001e0c <HAL_TIM_IRQHandler+0x2a>
 8001df4:	f06f 0202 	mvn.w	r2, #2
 8001df8:	611a      	str	r2, [r3, #16]
 8001dfa:	2201      	movs	r2, #1
 8001dfc:	7702      	strb	r2, [r0, #28]
 8001dfe:	699b      	ldr	r3, [r3, #24]
 8001e00:	079b      	lsls	r3, r3, #30
 8001e02:	d077      	beq.n	8001ef4 <HAL_TIM_IRQHandler+0x112>
 8001e04:	f7ff ffea 	bl	8001ddc <HAL_TIM_IC_CaptureCallback>
 8001e08:	2300      	movs	r3, #0
 8001e0a:	7723      	strb	r3, [r4, #28]
 8001e0c:	6823      	ldr	r3, [r4, #0]
 8001e0e:	691a      	ldr	r2, [r3, #16]
 8001e10:	0750      	lsls	r0, r2, #29
 8001e12:	d510      	bpl.n	8001e36 <HAL_TIM_IRQHandler+0x54>
 8001e14:	68da      	ldr	r2, [r3, #12]
 8001e16:	0751      	lsls	r1, r2, #29
 8001e18:	d50d      	bpl.n	8001e36 <HAL_TIM_IRQHandler+0x54>
 8001e1a:	f06f 0204 	mvn.w	r2, #4
 8001e1e:	611a      	str	r2, [r3, #16]
 8001e20:	2202      	movs	r2, #2
 8001e22:	7722      	strb	r2, [r4, #28]
 8001e24:	699b      	ldr	r3, [r3, #24]
 8001e26:	f413 7f40 	tst.w	r3, #768	; 0x300
 8001e2a:	4620      	mov	r0, r4
 8001e2c:	d068      	beq.n	8001f00 <HAL_TIM_IRQHandler+0x11e>
 8001e2e:	f7ff ffd5 	bl	8001ddc <HAL_TIM_IC_CaptureCallback>
 8001e32:	2300      	movs	r3, #0
 8001e34:	7723      	strb	r3, [r4, #28]
 8001e36:	6823      	ldr	r3, [r4, #0]
 8001e38:	691a      	ldr	r2, [r3, #16]
 8001e3a:	0712      	lsls	r2, r2, #28
 8001e3c:	d50f      	bpl.n	8001e5e <HAL_TIM_IRQHandler+0x7c>
 8001e3e:	68da      	ldr	r2, [r3, #12]
 8001e40:	0710      	lsls	r0, r2, #28
 8001e42:	d50c      	bpl.n	8001e5e <HAL_TIM_IRQHandler+0x7c>
 8001e44:	f06f 0208 	mvn.w	r2, #8
 8001e48:	611a      	str	r2, [r3, #16]
 8001e4a:	2204      	movs	r2, #4
 8001e4c:	7722      	strb	r2, [r4, #28]
 8001e4e:	69db      	ldr	r3, [r3, #28]
 8001e50:	0799      	lsls	r1, r3, #30
 8001e52:	4620      	mov	r0, r4
 8001e54:	d05a      	beq.n	8001f0c <HAL_TIM_IRQHandler+0x12a>
 8001e56:	f7ff ffc1 	bl	8001ddc <HAL_TIM_IC_CaptureCallback>
 8001e5a:	2300      	movs	r3, #0
 8001e5c:	7723      	strb	r3, [r4, #28]
 8001e5e:	6823      	ldr	r3, [r4, #0]
 8001e60:	691a      	ldr	r2, [r3, #16]
 8001e62:	06d2      	lsls	r2, r2, #27
 8001e64:	d510      	bpl.n	8001e88 <HAL_TIM_IRQHandler+0xa6>
 8001e66:	68da      	ldr	r2, [r3, #12]
 8001e68:	06d0      	lsls	r0, r2, #27
 8001e6a:	d50d      	bpl.n	8001e88 <HAL_TIM_IRQHandler+0xa6>
 8001e6c:	f06f 0210 	mvn.w	r2, #16
 8001e70:	611a      	str	r2, [r3, #16]
 8001e72:	2208      	movs	r2, #8
 8001e74:	7722      	strb	r2, [r4, #28]
 8001e76:	69db      	ldr	r3, [r3, #28]
 8001e78:	f413 7f40 	tst.w	r3, #768	; 0x300
 8001e7c:	4620      	mov	r0, r4
 8001e7e:	d04b      	beq.n	8001f18 <HAL_TIM_IRQHandler+0x136>
 8001e80:	f7ff ffac 	bl	8001ddc <HAL_TIM_IC_CaptureCallback>
 8001e84:	2300      	movs	r3, #0
 8001e86:	7723      	strb	r3, [r4, #28]
 8001e88:	6823      	ldr	r3, [r4, #0]
 8001e8a:	691a      	ldr	r2, [r3, #16]
 8001e8c:	07d1      	lsls	r1, r2, #31
 8001e8e:	d508      	bpl.n	8001ea2 <HAL_TIM_IRQHandler+0xc0>
 8001e90:	68da      	ldr	r2, [r3, #12]
 8001e92:	07d2      	lsls	r2, r2, #31
 8001e94:	d505      	bpl.n	8001ea2 <HAL_TIM_IRQHandler+0xc0>
 8001e96:	f06f 0201 	mvn.w	r2, #1
 8001e9a:	611a      	str	r2, [r3, #16]
 8001e9c:	4620      	mov	r0, r4
 8001e9e:	f7ff ff9b 	bl	8001dd8 <HAL_TIM_PeriodElapsedCallback>
 8001ea2:	6823      	ldr	r3, [r4, #0]
 8001ea4:	691a      	ldr	r2, [r3, #16]
 8001ea6:	0610      	lsls	r0, r2, #24
 8001ea8:	d508      	bpl.n	8001ebc <HAL_TIM_IRQHandler+0xda>
 8001eaa:	68da      	ldr	r2, [r3, #12]
 8001eac:	0611      	lsls	r1, r2, #24
 8001eae:	d505      	bpl.n	8001ebc <HAL_TIM_IRQHandler+0xda>
 8001eb0:	f06f 0280 	mvn.w	r2, #128	; 0x80
 8001eb4:	611a      	str	r2, [r3, #16]
 8001eb6:	4620      	mov	r0, r4
 8001eb8:	f000 fb55 	bl	8002566 <HAL_TIMEx_BreakCallback>
 8001ebc:	6823      	ldr	r3, [r4, #0]
 8001ebe:	691a      	ldr	r2, [r3, #16]
 8001ec0:	0652      	lsls	r2, r2, #25
 8001ec2:	d508      	bpl.n	8001ed6 <HAL_TIM_IRQHandler+0xf4>
 8001ec4:	68da      	ldr	r2, [r3, #12]
 8001ec6:	0650      	lsls	r0, r2, #25
 8001ec8:	d505      	bpl.n	8001ed6 <HAL_TIM_IRQHandler+0xf4>
 8001eca:	f06f 0240 	mvn.w	r2, #64	; 0x40
 8001ece:	611a      	str	r2, [r3, #16]
 8001ed0:	4620      	mov	r0, r4
 8001ed2:	f7ff ff85 	bl	8001de0 <HAL_TIM_TriggerCallback>
 8001ed6:	6823      	ldr	r3, [r4, #0]
 8001ed8:	691a      	ldr	r2, [r3, #16]
 8001eda:	0691      	lsls	r1, r2, #26
 8001edc:	d522      	bpl.n	8001f24 <HAL_TIM_IRQHandler+0x142>
 8001ede:	68da      	ldr	r2, [r3, #12]
 8001ee0:	0692      	lsls	r2, r2, #26
 8001ee2:	d51f      	bpl.n	8001f24 <HAL_TIM_IRQHandler+0x142>
 8001ee4:	f06f 0220 	mvn.w	r2, #32
 8001ee8:	4620      	mov	r0, r4
 8001eea:	611a      	str	r2, [r3, #16]
 8001eec:	e8bd 4010 	ldmia.w	sp!, {r4, lr}
 8001ef0:	f000 bb38 	b.w	8002564 <HAL_TIMEx_CommutCallback>
 8001ef4:	f7ff ff71 	bl	8001dda <HAL_TIM_OC_DelayElapsedCallback>
 8001ef8:	4620      	mov	r0, r4
 8001efa:	f7ff ff70 	bl	8001dde <HAL_TIM_PWM_PulseFinishedCallback>
 8001efe:	e783      	b.n	8001e08 <HAL_TIM_IRQHandler+0x26>
 8001f00:	f7ff ff6b 	bl	8001dda <HAL_TIM_OC_DelayElapsedCallback>
 8001f04:	4620      	mov	r0, r4
 8001f06:	f7ff ff6a 	bl	8001dde <HAL_TIM_PWM_PulseFinishedCallback>
 8001f0a:	e792      	b.n	8001e32 <HAL_TIM_IRQHandler+0x50>
 8001f0c:	f7ff ff65 	bl	8001dda <HAL_TIM_OC_DelayElapsedCallback>
 8001f10:	4620      	mov	r0, r4
 8001f12:	f7ff ff64 	bl	8001dde <HAL_TIM_PWM_PulseFinishedCallback>
 8001f16:	e7a0      	b.n	8001e5a <HAL_TIM_IRQHandler+0x78>
 8001f18:	f7ff ff5f 	bl	8001dda <HAL_TIM_OC_DelayElapsedCallback>
 8001f1c:	4620      	mov	r0, r4
 8001f1e:	f7ff ff5e 	bl	8001dde <HAL_TIM_PWM_PulseFinishedCallback>
 8001f22:	e7af      	b.n	8001e84 <HAL_TIM_IRQHandler+0xa2>
 8001f24:	bd10      	pop	{r4, pc}
	...

08001f28 <TIM_Base_SetConfig>:
 8001f28:	4a30      	ldr	r2, [pc, #192]	; (8001fec <TIM_Base_SetConfig+0xc4>)
 8001f2a:	6803      	ldr	r3, [r0, #0]
 8001f2c:	4290      	cmp	r0, r2
 8001f2e:	d012      	beq.n	8001f56 <TIM_Base_SetConfig+0x2e>
 8001f30:	f1b0 4f80 	cmp.w	r0, #1073741824	; 0x40000000
 8001f34:	d00f      	beq.n	8001f56 <TIM_Base_SetConfig+0x2e>
 8001f36:	f5a2 427c 	sub.w	r2, r2, #64512	; 0xfc00
 8001f3a:	4290      	cmp	r0, r2
 8001f3c:	d00b      	beq.n	8001f56 <TIM_Base_SetConfig+0x2e>
 8001f3e:	f502 6280 	add.w	r2, r2, #1024	; 0x400
 8001f42:	4290      	cmp	r0, r2
 8001f44:	d007      	beq.n	8001f56 <TIM_Base_SetConfig+0x2e>
 8001f46:	f502 6280 	add.w	r2, r2, #1024	; 0x400
 8001f4a:	4290      	cmp	r0, r2
 8001f4c:	d003      	beq.n	8001f56 <TIM_Base_SetConfig+0x2e>
 8001f4e:	f502 4278 	add.w	r2, r2, #63488	; 0xf800
 8001f52:	4290      	cmp	r0, r2
 8001f54:	d119      	bne.n	8001f8a <TIM_Base_SetConfig+0x62>
 8001f56:	684a      	ldr	r2, [r1, #4]
 8001f58:	f023 0370 	bic.w	r3, r3, #112	; 0x70
 8001f5c:	4313      	orrs	r3, r2
 8001f5e:	4a23      	ldr	r2, [pc, #140]	; (8001fec <TIM_Base_SetConfig+0xc4>)
 8001f60:	4290      	cmp	r0, r2
 8001f62:	d029      	beq.n	8001fb8 <TIM_Base_SetConfig+0x90>
 8001f64:	f1b0 4f80 	cmp.w	r0, #1073741824	; 0x40000000
 8001f68:	d026      	beq.n	8001fb8 <TIM_Base_SetConfig+0x90>
 8001f6a:	f5a2 427c 	sub.w	r2, r2, #64512	; 0xfc00
 8001f6e:	4290      	cmp	r0, r2
 8001f70:	d022      	beq.n	8001fb8 <TIM_Base_SetConfig+0x90>
 8001f72:	f502 6280 	add.w	r2, r2, #1024	; 0x400
 8001f76:	4290      	cmp	r0, r2
 8001f78:	d01e      	beq.n	8001fb8 <TIM_Base_SetConfig+0x90>
 8001f7a:	f502 6280 	add.w	r2, r2, #1024	; 0x400
 8001f7e:	4290      	cmp	r0, r2
 8001f80:	d01a      	beq.n	8001fb8 <TIM_Base_SetConfig+0x90>
 8001f82:	f502 4278 	add.w	r2, r2, #63488	; 0xf800
 8001f86:	4290      	cmp	r0, r2
 8001f88:	d016      	beq.n	8001fb8 <TIM_Base_SetConfig+0x90>
 8001f8a:	4a19      	ldr	r2, [pc, #100]	; (8001ff0 <TIM_Base_SetConfig+0xc8>)
 8001f8c:	4290      	cmp	r0, r2
 8001f8e:	d013      	beq.n	8001fb8 <TIM_Base_SetConfig+0x90>
 8001f90:	f502 6280 	add.w	r2, r2, #1024	; 0x400
 8001f94:	4290      	cmp	r0, r2
 8001f96:	d00f      	beq.n	8001fb8 <TIM_Base_SetConfig+0x90>
 8001f98:	f502 6280 	add.w	r2, r2, #1024	; 0x400
 8001f9c:	4290      	cmp	r0, r2
 8001f9e:	d00b      	beq.n	8001fb8 <TIM_Base_SetConfig+0x90>
 8001fa0:	f5a2 3298 	sub.w	r2, r2, #77824	; 0x13000
 8001fa4:	4290      	cmp	r0, r2
 8001fa6:	d007      	beq.n	8001fb8 <TIM_Base_SetConfig+0x90>
 8001fa8:	f502 6280 	add.w	r2, r2, #1024	; 0x400
 8001fac:	4290      	cmp	r0, r2
 8001fae:	d003      	beq.n	8001fb8 <TIM_Base_SetConfig+0x90>
 8001fb0:	f502 6280 	add.w	r2, r2, #1024	; 0x400
 8001fb4:	4290      	cmp	r0, r2
 8001fb6:	d103      	bne.n	8001fc0 <TIM_Base_SetConfig+0x98>
 8001fb8:	68ca      	ldr	r2, [r1, #12]
 8001fba:	f423 7340 	bic.w	r3, r3, #768	; 0x300
 8001fbe:	4313      	orrs	r3, r2
 8001fc0:	694a      	ldr	r2, [r1, #20]
 8001fc2:	f023 0380 	bic.w	r3, r3, #128	; 0x80
 8001fc6:	4313      	orrs	r3, r2
 8001fc8:	6003      	str	r3, [r0, #0]
 8001fca:	688b      	ldr	r3, [r1, #8]
 8001fcc:	62c3      	str	r3, [r0, #44]	; 0x2c
 8001fce:	680b      	ldr	r3, [r1, #0]
 8001fd0:	6283      	str	r3, [r0, #40]	; 0x28
 8001fd2:	4b06      	ldr	r3, [pc, #24]	; (8001fec <TIM_Base_SetConfig+0xc4>)
 8001fd4:	4298      	cmp	r0, r3
 8001fd6:	d003      	beq.n	8001fe0 <TIM_Base_SetConfig+0xb8>
 8001fd8:	f503 6380 	add.w	r3, r3, #1024	; 0x400
 8001fdc:	4298      	cmp	r0, r3
 8001fde:	d101      	bne.n	8001fe4 <TIM_Base_SetConfig+0xbc>
 8001fe0:	690b      	ldr	r3, [r1, #16]
 8001fe2:	6303      	str	r3, [r0, #48]	; 0x30
 8001fe4:	2301      	movs	r3, #1
 8001fe6:	6143      	str	r3, [r0, #20]
 8001fe8:	4770      	bx	lr
 8001fea:	bf00      	nop
 8001fec:	40010000 	.word	0x40010000
 8001ff0:	40014000 	.word	0x40014000

08001ff4 <HAL_TIM_Base_Init>:
 8001ff4:	b510      	push	{r4, lr}
 8001ff6:	4604      	mov	r4, r0
 8001ff8:	b330      	cbz	r0, 8002048 <HAL_TIM_Base_Init+0x54>
 8001ffa:	f890 303d 	ldrb.w	r3, [r0, #61]	; 0x3d
 8001ffe:	f003 02ff 	and.w	r2, r3, #255	; 0xff
 8002002:	b91b      	cbnz	r3, 800200c <HAL_TIM_Base_Init+0x18>
 8002004:	f880 203c 	strb.w	r2, [r0, #60]	; 0x3c
 8002008:	f7fe fe16 	bl	8000c38 <HAL_TIM_Base_MspInit>
 800200c:	2302      	movs	r3, #2
 800200e:	6820      	ldr	r0, [r4, #0]
 8002010:	f884 303d 	strb.w	r3, [r4, #61]	; 0x3d
 8002014:	1d21      	adds	r1, r4, #4
 8002016:	f7ff ff87 	bl	8001f28 <TIM_Base_SetConfig>
 800201a:	2301      	movs	r3, #1
 800201c:	f884 3046 	strb.w	r3, [r4, #70]	; 0x46
 8002020:	2000      	movs	r0, #0
 8002022:	f884 303e 	strb.w	r3, [r4, #62]	; 0x3e
 8002026:	f884 303f 	strb.w	r3, [r4, #63]	; 0x3f
 800202a:	f884 3040 	strb.w	r3, [r4, #64]	; 0x40
 800202e:	f884 3041 	strb.w	r3, [r4, #65]	; 0x41
 8002032:	f884 3042 	strb.w	r3, [r4, #66]	; 0x42
 8002036:	f884 3043 	strb.w	r3, [r4, #67]	; 0x43
 800203a:	f884 3044 	strb.w	r3, [r4, #68]	; 0x44
 800203e:	f884 3045 	strb.w	r3, [r4, #69]	; 0x45
 8002042:	f884 303d 	strb.w	r3, [r4, #61]	; 0x3d
 8002046:	bd10      	pop	{r4, pc}
 8002048:	2001      	movs	r0, #1
 800204a:	e7fc      	b.n	8002046 <HAL_TIM_Base_Init+0x52>

0800204c <HAL_TIM_PWM_Init>:
 800204c:	b510      	push	{r4, lr}
 800204e:	4604      	mov	r4, r0
 8002050:	b330      	cbz	r0, 80020a0 <HAL_TIM_PWM_Init+0x54>
 8002052:	f890 303d 	ldrb.w	r3, [r0, #61]	; 0x3d
 8002056:	f003 02ff 	and.w	r2, r3, #255	; 0xff
 800205a:	b91b      	cbnz	r3, 8002064 <HAL_TIM_PWM_Init+0x18>
 800205c:	f880 203c 	strb.w	r2, [r0, #60]	; 0x3c
 8002060:	f7fe fe22 	bl	8000ca8 <HAL_TIM_PWM_MspInit>
 8002064:	2302      	movs	r3, #2
 8002066:	6820      	ldr	r0, [r4, #0]
 8002068:	f884 303d 	strb.w	r3, [r4, #61]	; 0x3d
 800206c:	1d21      	adds	r1, r4, #4
 800206e:	f7ff ff5b 	bl	8001f28 <TIM_Base_SetConfig>
 8002072:	2301      	movs	r3, #1
 8002074:	f884 3046 	strb.w	r3, [r4, #70]	; 0x46
 8002078:	2000      	movs	r0, #0
 800207a:	f884 303e 	strb.w	r3, [r4, #62]	; 0x3e
 800207e:	f884 303f 	strb.w	r3, [r4, #63]	; 0x3f
 8002082:	f884 3040 	strb.w	r3, [r4, #64]	; 0x40
 8002086:	f884 3041 	strb.w	r3, [r4, #65]	; 0x41
 800208a:	f884 3042 	strb.w	r3, [r4, #66]	; 0x42
 800208e:	f884 3043 	strb.w	r3, [r4, #67]	; 0x43
 8002092:	f884 3044 	strb.w	r3, [r4, #68]	; 0x44
 8002096:	f884 3045 	strb.w	r3, [r4, #69]	; 0x45
 800209a:	f884 303d 	strb.w	r3, [r4, #61]	; 0x3d
 800209e:	bd10      	pop	{r4, pc}
 80020a0:	2001      	movs	r0, #1
 80020a2:	e7fc      	b.n	800209e <HAL_TIM_PWM_Init+0x52>

080020a4 <TIM_OC2_SetConfig>:
 80020a4:	6a03      	ldr	r3, [r0, #32]
 80020a6:	f023 0310 	bic.w	r3, r3, #16
 80020aa:	6203      	str	r3, [r0, #32]
 80020ac:	6a03      	ldr	r3, [r0, #32]
 80020ae:	b570      	push	{r4, r5, r6, lr}
 80020b0:	6844      	ldr	r4, [r0, #4]
 80020b2:	6982      	ldr	r2, [r0, #24]
 80020b4:	680d      	ldr	r5, [r1, #0]
 80020b6:	f422 42e6 	bic.w	r2, r2, #29440	; 0x7300
 80020ba:	ea42 2205 	orr.w	r2, r2, r5, lsl #8
 80020be:	688d      	ldr	r5, [r1, #8]
 80020c0:	f023 0320 	bic.w	r3, r3, #32
 80020c4:	ea43 1305 	orr.w	r3, r3, r5, lsl #4
 80020c8:	4d10      	ldr	r5, [pc, #64]	; (800210c <TIM_OC2_SetConfig+0x68>)
 80020ca:	42a8      	cmp	r0, r5
 80020cc:	d003      	beq.n	80020d6 <TIM_OC2_SetConfig+0x32>
 80020ce:	f505 6580 	add.w	r5, r5, #1024	; 0x400
 80020d2:	42a8      	cmp	r0, r5
 80020d4:	d114      	bne.n	8002100 <TIM_OC2_SetConfig+0x5c>
 80020d6:	68cd      	ldr	r5, [r1, #12]
 80020d8:	f023 0380 	bic.w	r3, r3, #128	; 0x80
 80020dc:	ea43 1305 	orr.w	r3, r3, r5, lsl #4
 80020e0:	4d0a      	ldr	r5, [pc, #40]	; (800210c <TIM_OC2_SetConfig+0x68>)
 80020e2:	42a8      	cmp	r0, r5
 80020e4:	f023 0340 	bic.w	r3, r3, #64	; 0x40
 80020e8:	d003      	beq.n	80020f2 <TIM_OC2_SetConfig+0x4e>
 80020ea:	f505 6580 	add.w	r5, r5, #1024	; 0x400
 80020ee:	42a8      	cmp	r0, r5
 80020f0:	d106      	bne.n	8002100 <TIM_OC2_SetConfig+0x5c>
 80020f2:	e9d1 5605 	ldrd	r5, r6, [r1, #20]
 80020f6:	f424 6440 	bic.w	r4, r4, #3072	; 0xc00
 80020fa:	4335      	orrs	r5, r6
 80020fc:	ea44 0485 	orr.w	r4, r4, r5, lsl #2
 8002100:	6044      	str	r4, [r0, #4]
 8002102:	6182      	str	r2, [r0, #24]
 8002104:	684a      	ldr	r2, [r1, #4]
 8002106:	6382      	str	r2, [r0, #56]	; 0x38
 8002108:	6203      	str	r3, [r0, #32]
 800210a:	bd70      	pop	{r4, r5, r6, pc}
 800210c:	40010000 	.word	0x40010000

08002110 <HAL_TIM_PWM_ConfigChannel>:
 8002110:	b538      	push	{r3, r4, r5, lr}
 8002112:	f890 303c 	ldrb.w	r3, [r0, #60]	; 0x3c
 8002116:	2b01      	cmp	r3, #1
 8002118:	4604      	mov	r4, r0
 800211a:	d052      	beq.n	80021c2 <HAL_TIM_PWM_ConfigChannel+0xb2>
 800211c:	2301      	movs	r3, #1
 800211e:	2a08      	cmp	r2, #8
 8002120:	f880 303c 	strb.w	r3, [r0, #60]	; 0x3c
 8002124:	d03c      	beq.n	80021a0 <HAL_TIM_PWM_ConfigChannel+0x90>
 8002126:	d806      	bhi.n	8002136 <HAL_TIM_PWM_ConfigChannel+0x26>
 8002128:	b1c2      	cbz	r2, 800215c <HAL_TIM_PWM_ConfigChannel+0x4c>
 800212a:	2a04      	cmp	r2, #4
 800212c:	d027      	beq.n	800217e <HAL_TIM_PWM_ConfigChannel+0x6e>
 800212e:	2000      	movs	r0, #0
 8002130:	f884 003c 	strb.w	r0, [r4, #60]	; 0x3c
 8002134:	bd38      	pop	{r3, r4, r5, pc}
 8002136:	2a0c      	cmp	r2, #12
 8002138:	d1f9      	bne.n	800212e <HAL_TIM_PWM_ConfigChannel+0x1e>
 800213a:	6800      	ldr	r0, [r0, #0]
 800213c:	f7ff fdf0 	bl	8001d20 <TIM_OC4_SetConfig>
 8002140:	6823      	ldr	r3, [r4, #0]
 8002142:	6909      	ldr	r1, [r1, #16]
 8002144:	69da      	ldr	r2, [r3, #28]
 8002146:	f442 6200 	orr.w	r2, r2, #2048	; 0x800
 800214a:	61da      	str	r2, [r3, #28]
 800214c:	69da      	ldr	r2, [r3, #28]
 800214e:	f422 6280 	bic.w	r2, r2, #1024	; 0x400
 8002152:	61da      	str	r2, [r3, #28]
 8002154:	69da      	ldr	r2, [r3, #28]
 8002156:	ea42 2201 	orr.w	r2, r2, r1, lsl #8
 800215a:	e030      	b.n	80021be <HAL_TIM_PWM_ConfigChannel+0xae>
 800215c:	6800      	ldr	r0, [r0, #0]
 800215e:	f7ff fd77 	bl	8001c50 <TIM_OC1_SetConfig>
 8002162:	6823      	ldr	r3, [r4, #0]
 8002164:	6909      	ldr	r1, [r1, #16]
 8002166:	699a      	ldr	r2, [r3, #24]
 8002168:	f042 0208 	orr.w	r2, r2, #8
 800216c:	619a      	str	r2, [r3, #24]
 800216e:	699a      	ldr	r2, [r3, #24]
 8002170:	f022 0204 	bic.w	r2, r2, #4
 8002174:	619a      	str	r2, [r3, #24]
 8002176:	699a      	ldr	r2, [r3, #24]
 8002178:	430a      	orrs	r2, r1
 800217a:	619a      	str	r2, [r3, #24]
 800217c:	e7d7      	b.n	800212e <HAL_TIM_PWM_ConfigChannel+0x1e>
 800217e:	6800      	ldr	r0, [r0, #0]
 8002180:	f7ff ff90 	bl	80020a4 <TIM_OC2_SetConfig>
 8002184:	6823      	ldr	r3, [r4, #0]
 8002186:	6909      	ldr	r1, [r1, #16]
 8002188:	699a      	ldr	r2, [r3, #24]
 800218a:	f442 6200 	orr.w	r2, r2, #2048	; 0x800
 800218e:	619a      	str	r2, [r3, #24]
 8002190:	699a      	ldr	r2, [r3, #24]
 8002192:	f422 6280 	bic.w	r2, r2, #1024	; 0x400
 8002196:	619a      	str	r2, [r3, #24]
 8002198:	699a      	ldr	r2, [r3, #24]
 800219a:	ea42 2201 	orr.w	r2, r2, r1, lsl #8
 800219e:	e7ec      	b.n	800217a <HAL_TIM_PWM_ConfigChannel+0x6a>
 80021a0:	6800      	ldr	r0, [r0, #0]
 80021a2:	f7ff fd87 	bl	8001cb4 <TIM_OC3_SetConfig>
 80021a6:	6823      	ldr	r3, [r4, #0]
 80021a8:	6909      	ldr	r1, [r1, #16]
 80021aa:	69da      	ldr	r2, [r3, #28]
 80021ac:	f042 0208 	orr.w	r2, r2, #8
 80021b0:	61da      	str	r2, [r3, #28]
 80021b2:	69da      	ldr	r2, [r3, #28]
 80021b4:	f022 0204 	bic.w	r2, r2, #4
 80021b8:	61da      	str	r2, [r3, #28]
 80021ba:	69da      	ldr	r2, [r3, #28]
 80021bc:	430a      	orrs	r2, r1
 80021be:	61da      	str	r2, [r3, #28]
 80021c0:	e7b5      	b.n	800212e <HAL_TIM_PWM_ConfigChannel+0x1e>
 80021c2:	2002      	movs	r0, #2
 80021c4:	e7b6      	b.n	8002134 <HAL_TIM_PWM_ConfigChannel+0x24>

080021c6 <TIM_ETR_SetConfig>:
 80021c6:	b510      	push	{r4, lr}
 80021c8:	6884      	ldr	r4, [r0, #8]
 80021ca:	4311      	orrs	r1, r2
 80021cc:	f424 447f 	bic.w	r4, r4, #65280	; 0xff00
 80021d0:	ea41 2303 	orr.w	r3, r1, r3, lsl #8
 80021d4:	4323      	orrs	r3, r4
 80021d6:	6083      	str	r3, [r0, #8]
 80021d8:	bd10      	pop	{r4, pc}

080021da <HAL_TIM_ConfigClockSource>:
 80021da:	b570      	push	{r4, r5, r6, lr}
 80021dc:	f890 303c 	ldrb.w	r3, [r0, #60]	; 0x3c
 80021e0:	2b01      	cmp	r3, #1
 80021e2:	4604      	mov	r4, r0
 80021e4:	f04f 0002 	mov.w	r0, #2
 80021e8:	d027      	beq.n	800223a <HAL_TIM_ConfigClockSource+0x60>
 80021ea:	f884 003d 	strb.w	r0, [r4, #61]	; 0x3d
 80021ee:	2301      	movs	r3, #1
 80021f0:	6820      	ldr	r0, [r4, #0]
 80021f2:	f884 303c 	strb.w	r3, [r4, #60]	; 0x3c
 80021f6:	6883      	ldr	r3, [r0, #8]
 80021f8:	f423 437f 	bic.w	r3, r3, #65280	; 0xff00
 80021fc:	f023 0377 	bic.w	r3, r3, #119	; 0x77
 8002200:	6083      	str	r3, [r0, #8]
 8002202:	680b      	ldr	r3, [r1, #0]
 8002204:	2b60      	cmp	r3, #96	; 0x60
 8002206:	d04d      	beq.n	80022a4 <HAL_TIM_ConfigClockSource+0xca>
 8002208:	d832      	bhi.n	8002270 <HAL_TIM_ConfigClockSource+0x96>
 800220a:	2b40      	cmp	r3, #64	; 0x40
 800220c:	d062      	beq.n	80022d4 <HAL_TIM_ConfigClockSource+0xfa>
 800220e:	d815      	bhi.n	800223c <HAL_TIM_ConfigClockSource+0x62>
 8002210:	2b20      	cmp	r3, #32
 8002212:	d003      	beq.n	800221c <HAL_TIM_ConfigClockSource+0x42>
 8002214:	d809      	bhi.n	800222a <HAL_TIM_ConfigClockSource+0x50>
 8002216:	f033 0210 	bics.w	r2, r3, #16
 800221a:	d108      	bne.n	800222e <HAL_TIM_ConfigClockSource+0x54>
 800221c:	6882      	ldr	r2, [r0, #8]
 800221e:	f022 0270 	bic.w	r2, r2, #112	; 0x70
 8002222:	4313      	orrs	r3, r2
 8002224:	f043 0307 	orr.w	r3, r3, #7
 8002228:	e020      	b.n	800226c <HAL_TIM_ConfigClockSource+0x92>
 800222a:	2b30      	cmp	r3, #48	; 0x30
 800222c:	d0f6      	beq.n	800221c <HAL_TIM_ConfigClockSource+0x42>
 800222e:	2301      	movs	r3, #1
 8002230:	2000      	movs	r0, #0
 8002232:	f884 303d 	strb.w	r3, [r4, #61]	; 0x3d
 8002236:	f884 003c 	strb.w	r0, [r4, #60]	; 0x3c
 800223a:	bd70      	pop	{r4, r5, r6, pc}
 800223c:	2b50      	cmp	r3, #80	; 0x50
 800223e:	d1f6      	bne.n	800222e <HAL_TIM_ConfigClockSource+0x54>
 8002240:	684a      	ldr	r2, [r1, #4]
 8002242:	68ce      	ldr	r6, [r1, #12]
 8002244:	6a01      	ldr	r1, [r0, #32]
 8002246:	6a05      	ldr	r5, [r0, #32]
 8002248:	f025 0501 	bic.w	r5, r5, #1
 800224c:	6205      	str	r5, [r0, #32]
 800224e:	6983      	ldr	r3, [r0, #24]
 8002250:	f021 010a 	bic.w	r1, r1, #10
 8002254:	f023 03f0 	bic.w	r3, r3, #240	; 0xf0
 8002258:	ea43 1306 	orr.w	r3, r3, r6, lsl #4
 800225c:	430a      	orrs	r2, r1
 800225e:	6183      	str	r3, [r0, #24]
 8002260:	6202      	str	r2, [r0, #32]
 8002262:	6883      	ldr	r3, [r0, #8]
 8002264:	f023 0370 	bic.w	r3, r3, #112	; 0x70
 8002268:	f043 0357 	orr.w	r3, r3, #87	; 0x57
 800226c:	6083      	str	r3, [r0, #8]
 800226e:	e7de      	b.n	800222e <HAL_TIM_ConfigClockSource+0x54>
 8002270:	2b70      	cmp	r3, #112	; 0x70
 8002272:	d00c      	beq.n	800228e <HAL_TIM_ConfigClockSource+0xb4>
 8002274:	f5b3 5f00 	cmp.w	r3, #8192	; 0x2000
 8002278:	d1d9      	bne.n	800222e <HAL_TIM_ConfigClockSource+0x54>
 800227a:	68cb      	ldr	r3, [r1, #12]
 800227c:	e9d1 2101 	ldrd	r2, r1, [r1, #4]
 8002280:	f7ff ffa1 	bl	80021c6 <TIM_ETR_SetConfig>
 8002284:	6822      	ldr	r2, [r4, #0]
 8002286:	6893      	ldr	r3, [r2, #8]
 8002288:	f443 4380 	orr.w	r3, r3, #16384	; 0x4000
 800228c:	e008      	b.n	80022a0 <HAL_TIM_ConfigClockSource+0xc6>
 800228e:	68cb      	ldr	r3, [r1, #12]
 8002290:	e9d1 2101 	ldrd	r2, r1, [r1, #4]
 8002294:	f7ff ff97 	bl	80021c6 <TIM_ETR_SetConfig>
 8002298:	6822      	ldr	r2, [r4, #0]
 800229a:	6893      	ldr	r3, [r2, #8]
 800229c:	f043 0377 	orr.w	r3, r3, #119	; 0x77
 80022a0:	6093      	str	r3, [r2, #8]
 80022a2:	e7c4      	b.n	800222e <HAL_TIM_ConfigClockSource+0x54>
 80022a4:	684d      	ldr	r5, [r1, #4]
 80022a6:	68ce      	ldr	r6, [r1, #12]
 80022a8:	6a01      	ldr	r1, [r0, #32]
 80022aa:	f021 0110 	bic.w	r1, r1, #16
 80022ae:	6201      	str	r1, [r0, #32]
 80022b0:	6982      	ldr	r2, [r0, #24]
 80022b2:	6a03      	ldr	r3, [r0, #32]
 80022b4:	f422 4270 	bic.w	r2, r2, #61440	; 0xf000
 80022b8:	f023 03a0 	bic.w	r3, r3, #160	; 0xa0
 80022bc:	ea43 1305 	orr.w	r3, r3, r5, lsl #4
 80022c0:	ea42 3206 	orr.w	r2, r2, r6, lsl #12
 80022c4:	6182      	str	r2, [r0, #24]
 80022c6:	6203      	str	r3, [r0, #32]
 80022c8:	6883      	ldr	r3, [r0, #8]
 80022ca:	f023 0370 	bic.w	r3, r3, #112	; 0x70
 80022ce:	f043 0367 	orr.w	r3, r3, #103	; 0x67
 80022d2:	e7cb      	b.n	800226c <HAL_TIM_ConfigClockSource+0x92>
 80022d4:	684a      	ldr	r2, [r1, #4]
 80022d6:	68ce      	ldr	r6, [r1, #12]
 80022d8:	6a01      	ldr	r1, [r0, #32]
 80022da:	6a05      	ldr	r5, [r0, #32]
 80022dc:	f025 0501 	bic.w	r5, r5, #1
 80022e0:	6205      	str	r5, [r0, #32]
 80022e2:	6983      	ldr	r3, [r0, #24]
 80022e4:	f021 010a 	bic.w	r1, r1, #10
 80022e8:	f023 03f0 	bic.w	r3, r3, #240	; 0xf0
 80022ec:	ea43 1306 	orr.w	r3, r3, r6, lsl #4
 80022f0:	430a      	orrs	r2, r1
 80022f2:	6183      	str	r3, [r0, #24]
 80022f4:	6202      	str	r2, [r0, #32]
 80022f6:	6883      	ldr	r3, [r0, #8]
 80022f8:	f023 0370 	bic.w	r3, r3, #112	; 0x70
 80022fc:	f043 0347 	orr.w	r3, r3, #71	; 0x47
 8002300:	e7b4      	b.n	800226c <HAL_TIM_ConfigClockSource+0x92>

08002302 <TIM_CCxChannelCmd>:
 8002302:	6a03      	ldr	r3, [r0, #32]
 8002304:	f001 011f 	and.w	r1, r1, #31
 8002308:	b510      	push	{r4, lr}
 800230a:	2401      	movs	r4, #1
 800230c:	408c      	lsls	r4, r1
 800230e:	ea23 0304 	bic.w	r3, r3, r4
 8002312:	6203      	str	r3, [r0, #32]
 8002314:	6a03      	ldr	r3, [r0, #32]
 8002316:	408a      	lsls	r2, r1
 8002318:	431a      	orrs	r2, r3
 800231a:	6202      	str	r2, [r0, #32]
 800231c:	bd10      	pop	{r4, pc}
	...

08002320 <HAL_TIM_OC_Start>:
 8002320:	b510      	push	{r4, lr}
 8002322:	4604      	mov	r4, r0
 8002324:	b929      	cbnz	r1, 8002332 <HAL_TIM_OC_Start+0x12>
 8002326:	f890 303e 	ldrb.w	r3, [r0, #62]	; 0x3e
 800232a:	2b01      	cmp	r3, #1
 800232c:	d01d      	beq.n	800236a <HAL_TIM_OC_Start+0x4a>
 800232e:	2001      	movs	r0, #1
 8002330:	e032      	b.n	8002398 <HAL_TIM_OC_Start+0x78>
 8002332:	2904      	cmp	r1, #4
 8002334:	d107      	bne.n	8002346 <HAL_TIM_OC_Start+0x26>
 8002336:	f890 303f 	ldrb.w	r3, [r0, #63]	; 0x3f
 800233a:	2b01      	cmp	r3, #1
 800233c:	d1f7      	bne.n	800232e <HAL_TIM_OC_Start+0xe>
 800233e:	2302      	movs	r3, #2
 8002340:	f880 303f 	strb.w	r3, [r0, #63]	; 0x3f
 8002344:	e014      	b.n	8002370 <HAL_TIM_OC_Start+0x50>
 8002346:	2908      	cmp	r1, #8
 8002348:	d107      	bne.n	800235a <HAL_TIM_OC_Start+0x3a>
 800234a:	f890 3040 	ldrb.w	r3, [r0, #64]	; 0x40
 800234e:	2b01      	cmp	r3, #1
 8002350:	d1ed      	bne.n	800232e <HAL_TIM_OC_Start+0xe>
 8002352:	2302      	movs	r3, #2
 8002354:	f880 3040 	strb.w	r3, [r0, #64]	; 0x40
 8002358:	e00a      	b.n	8002370 <HAL_TIM_OC_Start+0x50>
 800235a:	f890 3041 	ldrb.w	r3, [r0, #65]	; 0x41
 800235e:	2b01      	cmp	r3, #1
 8002360:	d1e5      	bne.n	800232e <HAL_TIM_OC_Start+0xe>
 8002362:	2302      	movs	r3, #2
 8002364:	f880 3041 	strb.w	r3, [r0, #65]	; 0x41
 8002368:	e002      	b.n	8002370 <HAL_TIM_OC_Start+0x50>
 800236a:	2302      	movs	r3, #2
 800236c:	f880 303e 	strb.w	r3, [r0, #62]	; 0x3e
 8002370:	2201      	movs	r2, #1
 8002372:	6820      	ldr	r0, [r4, #0]
 8002374:	f7ff ffc5 	bl	8002302 <TIM_CCxChannelCmd>
 8002378:	6823      	ldr	r3, [r4, #0]
 800237a:	4a19      	ldr	r2, [pc, #100]	; (80023e0 <HAL_TIM_OC_Start+0xc0>)
 800237c:	4293      	cmp	r3, r2
 800237e:	d00c      	beq.n	800239a <HAL_TIM_OC_Start+0x7a>
 8002380:	4918      	ldr	r1, [pc, #96]	; (80023e4 <HAL_TIM_OC_Start+0xc4>)
 8002382:	428b      	cmp	r3, r1
 8002384:	d009      	beq.n	800239a <HAL_TIM_OC_Start+0x7a>
 8002386:	f1b3 4f80 	cmp.w	r3, #1073741824	; 0x40000000
 800238a:	d10d      	bne.n	80023a8 <HAL_TIM_OC_Start+0x88>
 800238c:	689a      	ldr	r2, [r3, #8]
 800238e:	f002 0207 	and.w	r2, r2, #7
 8002392:	2a06      	cmp	r2, #6
 8002394:	d11f      	bne.n	80023d6 <HAL_TIM_OC_Start+0xb6>
 8002396:	2000      	movs	r0, #0
 8002398:	bd10      	pop	{r4, pc}
 800239a:	6c59      	ldr	r1, [r3, #68]	; 0x44
 800239c:	4293      	cmp	r3, r2
 800239e:	f441 4100 	orr.w	r1, r1, #32768	; 0x8000
 80023a2:	6459      	str	r1, [r3, #68]	; 0x44
 80023a4:	d0f2      	beq.n	800238c <HAL_TIM_OC_Start+0x6c>
 80023a6:	e7ee      	b.n	8002386 <HAL_TIM_OC_Start+0x66>
 80023a8:	4a0f      	ldr	r2, [pc, #60]	; (80023e8 <HAL_TIM_OC_Start+0xc8>)
 80023aa:	4293      	cmp	r3, r2
 80023ac:	d0ee      	beq.n	800238c <HAL_TIM_OC_Start+0x6c>
 80023ae:	f502 6280 	add.w	r2, r2, #1024	; 0x400
 80023b2:	4293      	cmp	r3, r2
 80023b4:	d0ea      	beq.n	800238c <HAL_TIM_OC_Start+0x6c>
 80023b6:	f502 6280 	add.w	r2, r2, #1024	; 0x400
 80023ba:	4293      	cmp	r3, r2
 80023bc:	d0e6      	beq.n	800238c <HAL_TIM_OC_Start+0x6c>
 80023be:	f502 4278 	add.w	r2, r2, #63488	; 0xf800
 80023c2:	4293      	cmp	r3, r2
 80023c4:	d0e2      	beq.n	800238c <HAL_TIM_OC_Start+0x6c>
 80023c6:	f502 5270 	add.w	r2, r2, #15360	; 0x3c00
 80023ca:	4293      	cmp	r3, r2
 80023cc:	d0de      	beq.n	800238c <HAL_TIM_OC_Start+0x6c>
 80023ce:	f5a2 3294 	sub.w	r2, r2, #75776	; 0x12800
 80023d2:	4293      	cmp	r3, r2
 80023d4:	d0da      	beq.n	800238c <HAL_TIM_OC_Start+0x6c>
 80023d6:	681a      	ldr	r2, [r3, #0]
 80023d8:	f042 0201 	orr.w	r2, r2, #1
 80023dc:	601a      	str	r2, [r3, #0]
 80023de:	e7da      	b.n	8002396 <HAL_TIM_OC_Start+0x76>
 80023e0:	40010000 	.word	0x40010000
 80023e4:	40010400 	.word	0x40010400
 80023e8:	40000400 	.word	0x40000400

080023ec <HAL_TIM_PWM_Start>:
 80023ec:	f7ff bf98 	b.w	8002320 <HAL_TIM_OC_Start>

080023f0 <HAL_TIM_OC_Start_IT>:
 80023f0:	b510      	push	{r4, lr}
 80023f2:	4604      	mov	r4, r0
 80023f4:	b929      	cbnz	r1, 8002402 <HAL_TIM_OC_Start_IT+0x12>
 80023f6:	f890 303e 	ldrb.w	r3, [r0, #62]	; 0x3e
 80023fa:	2b01      	cmp	r3, #1
 80023fc:	d02b      	beq.n	8002456 <HAL_TIM_OC_Start_IT+0x66>
 80023fe:	2001      	movs	r0, #1
 8002400:	e045      	b.n	800248e <HAL_TIM_OC_Start_IT+0x9e>
 8002402:	2904      	cmp	r1, #4
 8002404:	d10b      	bne.n	800241e <HAL_TIM_OC_Start_IT+0x2e>
 8002406:	f890 303f 	ldrb.w	r3, [r0, #63]	; 0x3f
 800240a:	2b01      	cmp	r3, #1
 800240c:	d1f7      	bne.n	80023fe <HAL_TIM_OC_Start_IT+0xe>
 800240e:	2302      	movs	r3, #2
 8002410:	6802      	ldr	r2, [r0, #0]
 8002412:	f880 303f 	strb.w	r3, [r0, #63]	; 0x3f
 8002416:	68d3      	ldr	r3, [r2, #12]
 8002418:	f043 0304 	orr.w	r3, r3, #4
 800241c:	e022      	b.n	8002464 <HAL_TIM_OC_Start_IT+0x74>
 800241e:	2908      	cmp	r1, #8
 8002420:	d10b      	bne.n	800243a <HAL_TIM_OC_Start_IT+0x4a>
 8002422:	f890 3040 	ldrb.w	r3, [r0, #64]	; 0x40
 8002426:	2b01      	cmp	r3, #1
 8002428:	d1e9      	bne.n	80023fe <HAL_TIM_OC_Start_IT+0xe>
 800242a:	2302      	movs	r3, #2
 800242c:	6802      	ldr	r2, [r0, #0]
 800242e:	f880 3040 	strb.w	r3, [r0, #64]	; 0x40
 8002432:	68d3      	ldr	r3, [r2, #12]
 8002434:	f043 0308 	orr.w	r3, r3, #8
 8002438:	e014      	b.n	8002464 <HAL_TIM_OC_Start_IT+0x74>
 800243a:	f890 3041 	ldrb.w	r3, [r0, #65]	; 0x41
 800243e:	2b01      	cmp	r3, #1
 8002440:	d1dd      	bne.n	80023fe <HAL_TIM_OC_Start_IT+0xe>
 8002442:	2302      	movs	r3, #2
 8002444:	290c      	cmp	r1, #12
 8002446:	f880 3041 	strb.w	r3, [r0, #65]	; 0x41
 800244a:	d10c      	bne.n	8002466 <HAL_TIM_OC_Start_IT+0x76>
 800244c:	6802      	ldr	r2, [r0, #0]
 800244e:	68d3      	ldr	r3, [r2, #12]
 8002450:	f043 0310 	orr.w	r3, r3, #16
 8002454:	e006      	b.n	8002464 <HAL_TIM_OC_Start_IT+0x74>
 8002456:	2302      	movs	r3, #2
 8002458:	6802      	ldr	r2, [r0, #0]
 800245a:	f880 303e 	strb.w	r3, [r0, #62]	; 0x3e
 800245e:	68d3      	ldr	r3, [r2, #12]
 8002460:	f043 0302 	orr.w	r3, r3, #2
 8002464:	60d3      	str	r3, [r2, #12]
 8002466:	2201      	movs	r2, #1
 8002468:	6820      	ldr	r0, [r4, #0]
 800246a:	f7ff ff4a 	bl	8002302 <TIM_CCxChannelCmd>
 800246e:	6823      	ldr	r3, [r4, #0]
 8002470:	4a19      	ldr	r2, [pc, #100]	; (80024d8 <HAL_TIM_OC_Start_IT+0xe8>)
 8002472:	4293      	cmp	r3, r2
 8002474:	d00c      	beq.n	8002490 <HAL_TIM_OC_Start_IT+0xa0>
 8002476:	4919      	ldr	r1, [pc, #100]	; (80024dc <HAL_TIM_OC_Start_IT+0xec>)
 8002478:	428b      	cmp	r3, r1
 800247a:	d009      	beq.n	8002490 <HAL_TIM_OC_Start_IT+0xa0>
 800247c:	f1b3 4f80 	cmp.w	r3, #1073741824	; 0x40000000
 8002480:	d10d      	bne.n	800249e <HAL_TIM_OC_Start_IT+0xae>
 8002482:	689a      	ldr	r2, [r3, #8]
 8002484:	f002 0207 	and.w	r2, r2, #7
 8002488:	2a06      	cmp	r2, #6
 800248a:	d11f      	bne.n	80024cc <HAL_TIM_OC_Start_IT+0xdc>
 800248c:	2000      	movs	r0, #0
 800248e:	bd10      	pop	{r4, pc}
 8002490:	6c59      	ldr	r1, [r3, #68]	; 0x44
 8002492:	4293      	cmp	r3, r2
 8002494:	f441 4100 	orr.w	r1, r1, #32768	; 0x8000
 8002498:	6459      	str	r1, [r3, #68]	; 0x44
 800249a:	d0f2      	beq.n	8002482 <HAL_TIM_OC_Start_IT+0x92>
 800249c:	e7ee      	b.n	800247c <HAL_TIM_OC_Start_IT+0x8c>
 800249e:	4a10      	ldr	r2, [pc, #64]	; (80024e0 <HAL_TIM_OC_Start_IT+0xf0>)
 80024a0:	4293      	cmp	r3, r2
 80024a2:	d0ee      	beq.n	8002482 <HAL_TIM_OC_Start_IT+0x92>
 80024a4:	f502 6280 	add.w	r2, r2, #1024	; 0x400
 80024a8:	4293      	cmp	r3, r2
 80024aa:	d0ea      	beq.n	8002482 <HAL_TIM_OC_Start_IT+0x92>
 80024ac:	f502 6280 	add.w	r2, r2, #1024	; 0x400
 80024b0:	4293      	cmp	r3, r2
 80024b2:	d0e6      	beq.n	8002482 <HAL_TIM_OC_Start_IT+0x92>
 80024b4:	f502 4278 	add.w	r2, r2, #63488	; 0xf800
 80024b8:	4293      	cmp	r3, r2
 80024ba:	d0e2      	beq.n	8002482 <HAL_TIM_OC_Start_IT+0x92>
 80024bc:	f502 5270 	add.w	r2, r2, #15360	; 0x3c00
 80024c0:	4293      	cmp	r3, r2
 80024c2:	d0de      	beq.n	8002482 <HAL_TIM_OC_Start_IT+0x92>
 80024c4:	f5a2 3294 	sub.w	r2, r2, #75776	; 0x12800
 80024c8:	4293      	cmp	r3, r2
 80024ca:	d0da      	beq.n	8002482 <HAL_TIM_OC_Start_IT+0x92>
 80024cc:	681a      	ldr	r2, [r3, #0]
 80024ce:	f042 0201 	orr.w	r2, r2, #1
 80024d2:	601a      	str	r2, [r3, #0]
 80024d4:	e7da      	b.n	800248c <HAL_TIM_OC_Start_IT+0x9c>
 80024d6:	bf00      	nop
 80024d8:	40010000 	.word	0x40010000
 80024dc:	40010400 	.word	0x40010400
 80024e0:	40000400 	.word	0x40000400

080024e4 <HAL_TIM_PWM_Start_IT>:
 80024e4:	f7ff bf84 	b.w	80023f0 <HAL_TIM_OC_Start_IT>

080024e8 <HAL_TIMEx_MasterConfigSynchronization>:
 80024e8:	b530      	push	{r4, r5, lr}
 80024ea:	f890 303c 	ldrb.w	r3, [r0, #60]	; 0x3c
 80024ee:	2b01      	cmp	r3, #1
 80024f0:	f04f 0302 	mov.w	r3, #2
 80024f4:	d032      	beq.n	800255c <HAL_TIMEx_MasterConfigSynchronization+0x74>
 80024f6:	f880 303d 	strb.w	r3, [r0, #61]	; 0x3d
 80024fa:	6803      	ldr	r3, [r0, #0]
 80024fc:	680d      	ldr	r5, [r1, #0]
 80024fe:	685c      	ldr	r4, [r3, #4]
 8002500:	689a      	ldr	r2, [r3, #8]
 8002502:	f024 0470 	bic.w	r4, r4, #112	; 0x70
 8002506:	432c      	orrs	r4, r5
 8002508:	605c      	str	r4, [r3, #4]
 800250a:	4c15      	ldr	r4, [pc, #84]	; (8002560 <HAL_TIMEx_MasterConfigSynchronization+0x78>)
 800250c:	42a3      	cmp	r3, r4
 800250e:	d01a      	beq.n	8002546 <HAL_TIMEx_MasterConfigSynchronization+0x5e>
 8002510:	f1b3 4f80 	cmp.w	r3, #1073741824	; 0x40000000
 8002514:	d017      	beq.n	8002546 <HAL_TIMEx_MasterConfigSynchronization+0x5e>
 8002516:	f5a4 447c 	sub.w	r4, r4, #64512	; 0xfc00
 800251a:	42a3      	cmp	r3, r4
 800251c:	d013      	beq.n	8002546 <HAL_TIMEx_MasterConfigSynchronization+0x5e>
 800251e:	f504 6480 	add.w	r4, r4, #1024	; 0x400
 8002522:	42a3      	cmp	r3, r4
 8002524:	d00f      	beq.n	8002546 <HAL_TIMEx_MasterConfigSynchronization+0x5e>
 8002526:	f504 6480 	add.w	r4, r4, #1024	; 0x400
 800252a:	42a3      	cmp	r3, r4
 800252c:	d00b      	beq.n	8002546 <HAL_TIMEx_MasterConfigSynchronization+0x5e>
 800252e:	f504 4478 	add.w	r4, r4, #63488	; 0xf800
 8002532:	42a3      	cmp	r3, r4
 8002534:	d007      	beq.n	8002546 <HAL_TIMEx_MasterConfigSynchronization+0x5e>
 8002536:	f504 5470 	add.w	r4, r4, #15360	; 0x3c00
 800253a:	42a3      	cmp	r3, r4
 800253c:	d003      	beq.n	8002546 <HAL_TIMEx_MasterConfigSynchronization+0x5e>
 800253e:	f5a4 3494 	sub.w	r4, r4, #75776	; 0x12800
 8002542:	42a3      	cmp	r3, r4
 8002544:	d104      	bne.n	8002550 <HAL_TIMEx_MasterConfigSynchronization+0x68>
 8002546:	6849      	ldr	r1, [r1, #4]
 8002548:	f022 0280 	bic.w	r2, r2, #128	; 0x80
 800254c:	430a      	orrs	r2, r1
 800254e:	609a      	str	r2, [r3, #8]
 8002550:	2301      	movs	r3, #1
 8002552:	f880 303d 	strb.w	r3, [r0, #61]	; 0x3d
 8002556:	2300      	movs	r3, #0
 8002558:	f880 303c 	strb.w	r3, [r0, #60]	; 0x3c
 800255c:	4618      	mov	r0, r3
 800255e:	bd30      	pop	{r4, r5, pc}
 8002560:	40010000 	.word	0x40010000

08002564 <HAL_TIMEx_CommutCallback>:
 8002564:	4770      	bx	lr

08002566 <HAL_TIMEx_BreakCallback>:
 8002566:	4770      	bx	lr

08002568 <UART_EndRxTransfer>:
 8002568:	6803      	ldr	r3, [r0, #0]
 800256a:	68da      	ldr	r2, [r3, #12]
 800256c:	f422 7290 	bic.w	r2, r2, #288	; 0x120
 8002570:	60da      	str	r2, [r3, #12]
 8002572:	695a      	ldr	r2, [r3, #20]
 8002574:	f022 0201 	bic.w	r2, r2, #1
 8002578:	615a      	str	r2, [r3, #20]
 800257a:	6b02      	ldr	r2, [r0, #48]	; 0x30
 800257c:	2a01      	cmp	r2, #1
 800257e:	bf02      	ittt	eq
 8002580:	68da      	ldreq	r2, [r3, #12]
 8002582:	f022 0210 	biceq.w	r2, r2, #16
 8002586:	60da      	streq	r2, [r3, #12]
 8002588:	2320      	movs	r3, #32
 800258a:	f880 303e 	strb.w	r3, [r0, #62]	; 0x3e
 800258e:	2300      	movs	r3, #0
 8002590:	6303      	str	r3, [r0, #48]	; 0x30
 8002592:	4770      	bx	lr

08002594 <UART_SetConfig>:
 8002594:	6802      	ldr	r2, [r0, #0]
 8002596:	68c1      	ldr	r1, [r0, #12]
 8002598:	b538      	push	{r3, r4, r5, lr}
 800259a:	6913      	ldr	r3, [r2, #16]
 800259c:	f423 5340 	bic.w	r3, r3, #12288	; 0x3000
 80025a0:	430b      	orrs	r3, r1
 80025a2:	6113      	str	r3, [r2, #16]
 80025a4:	4605      	mov	r5, r0
 80025a6:	6883      	ldr	r3, [r0, #8]
 80025a8:	6900      	ldr	r0, [r0, #16]
 80025aa:	68d1      	ldr	r1, [r2, #12]
 80025ac:	4303      	orrs	r3, r0
 80025ae:	6968      	ldr	r0, [r5, #20]
 80025b0:	4303      	orrs	r3, r0
 80025b2:	69e8      	ldr	r0, [r5, #28]
 80025b4:	f421 4116 	bic.w	r1, r1, #38400	; 0x9600
 80025b8:	f021 010c 	bic.w	r1, r1, #12
 80025bc:	4303      	orrs	r3, r0
 80025be:	430b      	orrs	r3, r1
 80025c0:	60d3      	str	r3, [r2, #12]
 80025c2:	6953      	ldr	r3, [r2, #20]
 80025c4:	69a9      	ldr	r1, [r5, #24]
 80025c6:	f423 7340 	bic.w	r3, r3, #768	; 0x300
 80025ca:	430b      	orrs	r3, r1
 80025cc:	6153      	str	r3, [r2, #20]
 80025ce:	4b1f      	ldr	r3, [pc, #124]	; (800264c <UART_SetConfig+0xb8>)
 80025d0:	429a      	cmp	r2, r3
 80025d2:	d003      	beq.n	80025dc <UART_SetConfig+0x48>
 80025d4:	f503 6380 	add.w	r3, r3, #1024	; 0x400
 80025d8:	429a      	cmp	r2, r3
 80025da:	d124      	bne.n	8002626 <UART_SetConfig+0x92>
 80025dc:	f7ff fb28 	bl	8001c30 <HAL_RCC_GetPCLK2Freq>
 80025e0:	69ea      	ldr	r2, [r5, #28]
 80025e2:	2319      	movs	r3, #25
 80025e4:	f5b2 4f00 	cmp.w	r2, #32768	; 0x8000
 80025e8:	fba0 0103 	umull	r0, r1, r0, r3
 80025ec:	e9d5 4300 	ldrd	r4, r3, [r5]
 80025f0:	d11c      	bne.n	800262c <UART_SetConfig+0x98>
 80025f2:	461a      	mov	r2, r3
 80025f4:	1892      	adds	r2, r2, r2
 80025f6:	f04f 0300 	mov.w	r3, #0
 80025fa:	415b      	adcs	r3, r3
 80025fc:	f7fd fe50 	bl	80002a0 <__aeabi_uldivmod>
 8002600:	2164      	movs	r1, #100	; 0x64
 8002602:	fbb0 f5f1 	udiv	r5, r0, r1
 8002606:	fb01 0315 	mls	r3, r1, r5, r0
 800260a:	00db      	lsls	r3, r3, #3
 800260c:	3332      	adds	r3, #50	; 0x32
 800260e:	fbb3 f3f1 	udiv	r3, r3, r1
 8002612:	f003 0207 	and.w	r2, r3, #7
 8002616:	005b      	lsls	r3, r3, #1
 8002618:	eb02 1205 	add.w	r2, r2, r5, lsl #4
 800261c:	f403 73f8 	and.w	r3, r3, #496	; 0x1f0
 8002620:	4413      	add	r3, r2
 8002622:	60a3      	str	r3, [r4, #8]
 8002624:	bd38      	pop	{r3, r4, r5, pc}
 8002626:	f7ff faf3 	bl	8001c10 <HAL_RCC_GetPCLK1Freq>
 800262a:	e7d9      	b.n	80025e0 <UART_SetConfig+0x4c>
 800262c:	009a      	lsls	r2, r3, #2
 800262e:	0f9b      	lsrs	r3, r3, #30
 8002630:	f7fd fe36 	bl	80002a0 <__aeabi_uldivmod>
 8002634:	2264      	movs	r2, #100	; 0x64
 8002636:	fbb0 f1f2 	udiv	r1, r0, r2
 800263a:	fb02 0311 	mls	r3, r2, r1, r0
 800263e:	011b      	lsls	r3, r3, #4
 8002640:	3332      	adds	r3, #50	; 0x32
 8002642:	fbb3 f3f2 	udiv	r3, r3, r2
 8002646:	eb03 1301 	add.w	r3, r3, r1, lsl #4
 800264a:	e7ea      	b.n	8002622 <UART_SetConfig+0x8e>
 800264c:	40011000 	.word	0x40011000

08002650 <UART_WaitOnFlagUntilTimeout.constprop.0>:
 8002650:	b5f8      	push	{r3, r4, r5, r6, r7, lr}
 8002652:	4604      	mov	r4, r0
 8002654:	460e      	mov	r6, r1
 8002656:	4617      	mov	r7, r2
 8002658:	461d      	mov	r5, r3
 800265a:	6822      	ldr	r2, [r4, #0]
 800265c:	6813      	ldr	r3, [r2, #0]
 800265e:	ea36 0303 	bics.w	r3, r6, r3
 8002662:	d101      	bne.n	8002668 <UART_WaitOnFlagUntilTimeout.constprop.0+0x18>
 8002664:	2000      	movs	r0, #0
 8002666:	e014      	b.n	8002692 <UART_WaitOnFlagUntilTimeout.constprop.0+0x42>
 8002668:	1c6b      	adds	r3, r5, #1
 800266a:	d0f7      	beq.n	800265c <UART_WaitOnFlagUntilTimeout.constprop.0+0xc>
 800266c:	b995      	cbnz	r5, 8002694 <UART_WaitOnFlagUntilTimeout.constprop.0+0x44>
 800266e:	6823      	ldr	r3, [r4, #0]
 8002670:	68da      	ldr	r2, [r3, #12]
 8002672:	f422 72d0 	bic.w	r2, r2, #416	; 0x1a0
 8002676:	60da      	str	r2, [r3, #12]
 8002678:	695a      	ldr	r2, [r3, #20]
 800267a:	f022 0201 	bic.w	r2, r2, #1
 800267e:	615a      	str	r2, [r3, #20]
 8002680:	2320      	movs	r3, #32
 8002682:	f884 303d 	strb.w	r3, [r4, #61]	; 0x3d
 8002686:	f884 303e 	strb.w	r3, [r4, #62]	; 0x3e
 800268a:	2300      	movs	r3, #0
 800268c:	f884 303c 	strb.w	r3, [r4, #60]	; 0x3c
 8002690:	2003      	movs	r0, #3
 8002692:	bdf8      	pop	{r3, r4, r5, r6, r7, pc}
 8002694:	f7fe fd14 	bl	80010c0 <HAL_GetTick>
 8002698:	1bc0      	subs	r0, r0, r7
 800269a:	4285      	cmp	r5, r0
 800269c:	d2dd      	bcs.n	800265a <UART_WaitOnFlagUntilTimeout.constprop.0+0xa>
 800269e:	e7e6      	b.n	800266e <UART_WaitOnFlagUntilTimeout.constprop.0+0x1e>

080026a0 <HAL_UART_Init>:
 80026a0:	b510      	push	{r4, lr}
 80026a2:	4604      	mov	r4, r0
 80026a4:	b340      	cbz	r0, 80026f8 <HAL_UART_Init+0x58>
 80026a6:	f890 303d 	ldrb.w	r3, [r0, #61]	; 0x3d
 80026aa:	f003 02ff 	and.w	r2, r3, #255	; 0xff
 80026ae:	b91b      	cbnz	r3, 80026b8 <HAL_UART_Init+0x18>
 80026b0:	f880 203c 	strb.w	r2, [r0, #60]	; 0x3c
 80026b4:	f7fe fba8 	bl	8000e08 <HAL_UART_MspInit>
 80026b8:	6822      	ldr	r2, [r4, #0]
 80026ba:	2324      	movs	r3, #36	; 0x24
 80026bc:	f884 303d 	strb.w	r3, [r4, #61]	; 0x3d
 80026c0:	68d3      	ldr	r3, [r2, #12]
 80026c2:	f423 5300 	bic.w	r3, r3, #8192	; 0x2000
 80026c6:	60d3      	str	r3, [r2, #12]
 80026c8:	4620      	mov	r0, r4
 80026ca:	f7ff ff63 	bl	8002594 <UART_SetConfig>
 80026ce:	6823      	ldr	r3, [r4, #0]
 80026d0:	691a      	ldr	r2, [r3, #16]
 80026d2:	f422 4290 	bic.w	r2, r2, #18432	; 0x4800
 80026d6:	611a      	str	r2, [r3, #16]
 80026d8:	695a      	ldr	r2, [r3, #20]
 80026da:	f022 022a 	bic.w	r2, r2, #42	; 0x2a
 80026de:	615a      	str	r2, [r3, #20]
 80026e0:	68da      	ldr	r2, [r3, #12]
 80026e2:	f442 5200 	orr.w	r2, r2, #8192	; 0x2000
 80026e6:	60da      	str	r2, [r3, #12]
 80026e8:	2000      	movs	r0, #0
 80026ea:	2320      	movs	r3, #32
 80026ec:	6420      	str	r0, [r4, #64]	; 0x40
 80026ee:	f884 303d 	strb.w	r3, [r4, #61]	; 0x3d
 80026f2:	f884 303e 	strb.w	r3, [r4, #62]	; 0x3e
 80026f6:	bd10      	pop	{r4, pc}
 80026f8:	2001      	movs	r0, #1
 80026fa:	e7fc      	b.n	80026f6 <HAL_UART_Init+0x56>

080026fc <HAL_UART_Transmit>:
 80026fc:	b5f7      	push	{r0, r1, r2, r4, r5, r6, r7, lr}
 80026fe:	4617      	mov	r7, r2
 8002700:	f890 203d 	ldrb.w	r2, [r0, #61]	; 0x3d
 8002704:	9300      	str	r3, [sp, #0]
 8002706:	2a20      	cmp	r2, #32
 8002708:	4604      	mov	r4, r0
 800270a:	460e      	mov	r6, r1
 800270c:	d149      	bne.n	80027a2 <HAL_UART_Transmit+0xa6>
 800270e:	2900      	cmp	r1, #0
 8002710:	d045      	beq.n	800279e <HAL_UART_Transmit+0xa2>
 8002712:	2f00      	cmp	r7, #0
 8002714:	d043      	beq.n	800279e <HAL_UART_Transmit+0xa2>
 8002716:	f890 203c 	ldrb.w	r2, [r0, #60]	; 0x3c
 800271a:	2a01      	cmp	r2, #1
 800271c:	d041      	beq.n	80027a2 <HAL_UART_Transmit+0xa6>
 800271e:	2201      	movs	r2, #1
 8002720:	f880 203c 	strb.w	r2, [r0, #60]	; 0x3c
 8002724:	2500      	movs	r5, #0
 8002726:	2221      	movs	r2, #33	; 0x21
 8002728:	6405      	str	r5, [r0, #64]	; 0x40
 800272a:	f880 203d 	strb.w	r2, [r0, #61]	; 0x3d
 800272e:	f7fe fcc7 	bl	80010c0 <HAL_GetTick>
 8002732:	68a1      	ldr	r1, [r4, #8]
 8002734:	9b00      	ldr	r3, [sp, #0]
 8002736:	84a7      	strh	r7, [r4, #36]	; 0x24
 8002738:	f5b1 5f80 	cmp.w	r1, #4096	; 0x1000
 800273c:	4602      	mov	r2, r0
 800273e:	84e7      	strh	r7, [r4, #38]	; 0x26
 8002740:	d103      	bne.n	800274a <HAL_UART_Transmit+0x4e>
 8002742:	6921      	ldr	r1, [r4, #16]
 8002744:	b909      	cbnz	r1, 800274a <HAL_UART_Transmit+0x4e>
 8002746:	4635      	mov	r5, r6
 8002748:	460e      	mov	r6, r1
 800274a:	2100      	movs	r1, #0
 800274c:	f884 103c 	strb.w	r1, [r4, #60]	; 0x3c
 8002750:	8ce1      	ldrh	r1, [r4, #38]	; 0x26
 8002752:	b289      	uxth	r1, r1
 8002754:	b941      	cbnz	r1, 8002768 <HAL_UART_Transmit+0x6c>
 8002756:	2140      	movs	r1, #64	; 0x40
 8002758:	4620      	mov	r0, r4
 800275a:	f7ff ff79 	bl	8002650 <UART_WaitOnFlagUntilTimeout.constprop.0>
 800275e:	b960      	cbnz	r0, 800277a <HAL_UART_Transmit+0x7e>
 8002760:	2320      	movs	r3, #32
 8002762:	f884 303d 	strb.w	r3, [r4, #61]	; 0x3d
 8002766:	e009      	b.n	800277c <HAL_UART_Transmit+0x80>
 8002768:	2180      	movs	r1, #128	; 0x80
 800276a:	4620      	mov	r0, r4
 800276c:	e9cd 2300 	strd	r2, r3, [sp]
 8002770:	f7ff ff6e 	bl	8002650 <UART_WaitOnFlagUntilTimeout.constprop.0>
 8002774:	e9dd 2300 	ldrd	r2, r3, [sp]
 8002778:	b110      	cbz	r0, 8002780 <HAL_UART_Transmit+0x84>
 800277a:	2003      	movs	r0, #3
 800277c:	b003      	add	sp, #12
 800277e:	bdf0      	pop	{r4, r5, r6, r7, pc}
 8002780:	6820      	ldr	r0, [r4, #0]
 8002782:	b94e      	cbnz	r6, 8002798 <HAL_UART_Transmit+0x9c>
 8002784:	f835 1b02 	ldrh.w	r1, [r5], #2
 8002788:	f3c1 0108 	ubfx	r1, r1, #0, #9
 800278c:	6041      	str	r1, [r0, #4]
 800278e:	8ce1      	ldrh	r1, [r4, #38]	; 0x26
 8002790:	3901      	subs	r1, #1
 8002792:	b289      	uxth	r1, r1
 8002794:	84e1      	strh	r1, [r4, #38]	; 0x26
 8002796:	e7db      	b.n	8002750 <HAL_UART_Transmit+0x54>
 8002798:	f816 1b01 	ldrb.w	r1, [r6], #1
 800279c:	e7f6      	b.n	800278c <HAL_UART_Transmit+0x90>
 800279e:	2001      	movs	r0, #1
 80027a0:	e7ec      	b.n	800277c <HAL_UART_Transmit+0x80>
 80027a2:	2002      	movs	r0, #2
 80027a4:	e7ea      	b.n	800277c <HAL_UART_Transmit+0x80>
	...

080027a8 <HAL_UART_Transmit_DMA>:
 80027a8:	b538      	push	{r3, r4, r5, lr}
 80027aa:	4604      	mov	r4, r0
 80027ac:	4613      	mov	r3, r2
 80027ae:	f894 203d 	ldrb.w	r2, [r4, #61]	; 0x3d
 80027b2:	2a20      	cmp	r2, #32
 80027b4:	d12a      	bne.n	800280c <HAL_UART_Transmit_DMA+0x64>
 80027b6:	b339      	cbz	r1, 8002808 <HAL_UART_Transmit_DMA+0x60>
 80027b8:	b333      	cbz	r3, 8002808 <HAL_UART_Transmit_DMA+0x60>
 80027ba:	f894 203c 	ldrb.w	r2, [r4, #60]	; 0x3c
 80027be:	2a01      	cmp	r2, #1
 80027c0:	d024      	beq.n	800280c <HAL_UART_Transmit_DMA+0x64>
 80027c2:	2201      	movs	r2, #1
 80027c4:	f884 203c 	strb.w	r2, [r4, #60]	; 0x3c
 80027c8:	6b60      	ldr	r0, [r4, #52]	; 0x34
 80027ca:	84e3      	strh	r3, [r4, #38]	; 0x26
 80027cc:	2500      	movs	r5, #0
 80027ce:	2221      	movs	r2, #33	; 0x21
 80027d0:	6425      	str	r5, [r4, #64]	; 0x40
 80027d2:	f884 203d 	strb.w	r2, [r4, #61]	; 0x3d
 80027d6:	4a0e      	ldr	r2, [pc, #56]	; (8002810 <HAL_UART_Transmit_DMA+0x68>)
 80027d8:	84a3      	strh	r3, [r4, #36]	; 0x24
 80027da:	6221      	str	r1, [r4, #32]
 80027dc:	63c2      	str	r2, [r0, #60]	; 0x3c
 80027de:	4a0d      	ldr	r2, [pc, #52]	; (8002814 <HAL_UART_Transmit_DMA+0x6c>)
 80027e0:	6402      	str	r2, [r0, #64]	; 0x40
 80027e2:	4a0d      	ldr	r2, [pc, #52]	; (8002818 <HAL_UART_Transmit_DMA+0x70>)
 80027e4:	e9c0 2513 	strd	r2, r5, [r0, #76]	; 0x4c
 80027e8:	6822      	ldr	r2, [r4, #0]
 80027ea:	3204      	adds	r2, #4
 80027ec:	f7fe fd6c 	bl	80012c8 <HAL_DMA_Start_IT>
 80027f0:	6823      	ldr	r3, [r4, #0]
 80027f2:	f06f 0240 	mvn.w	r2, #64	; 0x40
 80027f6:	601a      	str	r2, [r3, #0]
 80027f8:	f884 503c 	strb.w	r5, [r4, #60]	; 0x3c
 80027fc:	695a      	ldr	r2, [r3, #20]
 80027fe:	f042 0280 	orr.w	r2, r2, #128	; 0x80
 8002802:	615a      	str	r2, [r3, #20]
 8002804:	4628      	mov	r0, r5
 8002806:	bd38      	pop	{r3, r4, r5, pc}
 8002808:	2001      	movs	r0, #1
 800280a:	e7fc      	b.n	8002806 <HAL_UART_Transmit_DMA+0x5e>
 800280c:	2002      	movs	r0, #2
 800280e:	e7fa      	b.n	8002806 <HAL_UART_Transmit_DMA+0x5e>
 8002810:	0800281d 	.word	0x0800281d
 8002814:	0800284b 	.word	0x0800284b
 8002818:	08002859 	.word	0x08002859

0800281c <UART_DMATransmitCplt>:
 800281c:	b508      	push	{r3, lr}
 800281e:	6803      	ldr	r3, [r0, #0]
 8002820:	6b82      	ldr	r2, [r0, #56]	; 0x38
 8002822:	681b      	ldr	r3, [r3, #0]
 8002824:	f413 7380 	ands.w	r3, r3, #256	; 0x100
 8002828:	d10a      	bne.n	8002840 <UART_DMATransmitCplt+0x24>
 800282a:	84d3      	strh	r3, [r2, #38]	; 0x26
 800282c:	6813      	ldr	r3, [r2, #0]
 800282e:	695a      	ldr	r2, [r3, #20]
 8002830:	f022 0280 	bic.w	r2, r2, #128	; 0x80
 8002834:	615a      	str	r2, [r3, #20]
 8002836:	68da      	ldr	r2, [r3, #12]
 8002838:	f042 0240 	orr.w	r2, r2, #64	; 0x40
 800283c:	60da      	str	r2, [r3, #12]
 800283e:	bd08      	pop	{r3, pc}
 8002840:	4610      	mov	r0, r2
 8002842:	f7fe fbc1 	bl	8000fc8 <HAL_UART_TxCpltCallback>
 8002846:	e7fa      	b.n	800283e <UART_DMATransmitCplt+0x22>

08002848 <HAL_UART_TxHalfCpltCallback>:
 8002848:	4770      	bx	lr

0800284a <UART_DMATxHalfCplt>:
 800284a:	b508      	push	{r3, lr}
 800284c:	6b80      	ldr	r0, [r0, #56]	; 0x38
 800284e:	f7ff fffb 	bl	8002848 <HAL_UART_TxHalfCpltCallback>
 8002852:	bd08      	pop	{r3, pc}

08002854 <HAL_UART_RxHalfCpltCallback>:
 8002854:	4770      	bx	lr

08002856 <HAL_UART_ErrorCallback>:
 8002856:	4770      	bx	lr

08002858 <UART_DMAError>:
 8002858:	b508      	push	{r3, lr}
 800285a:	6b80      	ldr	r0, [r0, #56]	; 0x38
 800285c:	6803      	ldr	r3, [r0, #0]
 800285e:	695a      	ldr	r2, [r3, #20]
 8002860:	f890 103d 	ldrb.w	r1, [r0, #61]	; 0x3d
 8002864:	2921      	cmp	r1, #33	; 0x21
 8002866:	d10a      	bne.n	800287e <UART_DMAError+0x26>
 8002868:	0612      	lsls	r2, r2, #24
 800286a:	d508      	bpl.n	800287e <UART_DMAError+0x26>
 800286c:	2200      	movs	r2, #0
 800286e:	84c2      	strh	r2, [r0, #38]	; 0x26
 8002870:	68da      	ldr	r2, [r3, #12]
 8002872:	f022 02c0 	bic.w	r2, r2, #192	; 0xc0
 8002876:	60da      	str	r2, [r3, #12]
 8002878:	2220      	movs	r2, #32
 800287a:	f880 203d 	strb.w	r2, [r0, #61]	; 0x3d
 800287e:	695b      	ldr	r3, [r3, #20]
 8002880:	f890 203e 	ldrb.w	r2, [r0, #62]	; 0x3e
 8002884:	2a22      	cmp	r2, #34	; 0x22
 8002886:	d105      	bne.n	8002894 <UART_DMAError+0x3c>
 8002888:	065b      	lsls	r3, r3, #25
 800288a:	d503      	bpl.n	8002894 <UART_DMAError+0x3c>
 800288c:	2300      	movs	r3, #0
 800288e:	85c3      	strh	r3, [r0, #46]	; 0x2e
 8002890:	f7ff fe6a 	bl	8002568 <UART_EndRxTransfer>
 8002894:	6c03      	ldr	r3, [r0, #64]	; 0x40
 8002896:	f043 0310 	orr.w	r3, r3, #16
 800289a:	6403      	str	r3, [r0, #64]	; 0x40
 800289c:	f7ff ffdb 	bl	8002856 <HAL_UART_ErrorCallback>
 80028a0:	bd08      	pop	{r3, pc}

080028a2 <UART_DMAAbortOnError>:
 80028a2:	b508      	push	{r3, lr}
 80028a4:	6b80      	ldr	r0, [r0, #56]	; 0x38
 80028a6:	2300      	movs	r3, #0
 80028a8:	85c3      	strh	r3, [r0, #46]	; 0x2e
 80028aa:	84c3      	strh	r3, [r0, #38]	; 0x26
 80028ac:	f7ff ffd3 	bl	8002856 <HAL_UART_ErrorCallback>
 80028b0:	bd08      	pop	{r3, pc}

080028b2 <HAL_UARTEx_RxEventCallback>:
 80028b2:	4770      	bx	lr

080028b4 <UART_Receive_IT>:
 80028b4:	b510      	push	{r4, lr}
 80028b6:	f890 303e 	ldrb.w	r3, [r0, #62]	; 0x3e
 80028ba:	2b22      	cmp	r3, #34	; 0x22
 80028bc:	4604      	mov	r4, r0
 80028be:	d143      	bne.n	8002948 <UART_Receive_IT+0x94>
 80028c0:	6881      	ldr	r1, [r0, #8]
 80028c2:	6a83      	ldr	r3, [r0, #40]	; 0x28
 80028c4:	6802      	ldr	r2, [r0, #0]
 80028c6:	f5b1 5f80 	cmp.w	r1, #4096	; 0x1000
 80028ca:	d12c      	bne.n	8002926 <UART_Receive_IT+0x72>
 80028cc:	6901      	ldr	r1, [r0, #16]
 80028ce:	2900      	cmp	r1, #0
 80028d0:	d12c      	bne.n	800292c <UART_Receive_IT+0x78>
 80028d2:	6852      	ldr	r2, [r2, #4]
 80028d4:	f3c2 0208 	ubfx	r2, r2, #0, #9
 80028d8:	f823 2b02 	strh.w	r2, [r3], #2
 80028dc:	62a3      	str	r3, [r4, #40]	; 0x28
 80028de:	8de3      	ldrh	r3, [r4, #46]	; 0x2e
 80028e0:	3b01      	subs	r3, #1
 80028e2:	b29b      	uxth	r3, r3
 80028e4:	85e3      	strh	r3, [r4, #46]	; 0x2e
 80028e6:	2b00      	cmp	r3, #0
 80028e8:	d130      	bne.n	800294c <UART_Receive_IT+0x98>
 80028ea:	6823      	ldr	r3, [r4, #0]
 80028ec:	68da      	ldr	r2, [r3, #12]
 80028ee:	f022 0220 	bic.w	r2, r2, #32
 80028f2:	60da      	str	r2, [r3, #12]
 80028f4:	68da      	ldr	r2, [r3, #12]
 80028f6:	f422 7280 	bic.w	r2, r2, #256	; 0x100
 80028fa:	60da      	str	r2, [r3, #12]
 80028fc:	695a      	ldr	r2, [r3, #20]
 80028fe:	f022 0201 	bic.w	r2, r2, #1
 8002902:	615a      	str	r2, [r3, #20]
 8002904:	2220      	movs	r2, #32
 8002906:	f884 203e 	strb.w	r2, [r4, #62]	; 0x3e
 800290a:	6b22      	ldr	r2, [r4, #48]	; 0x30
 800290c:	2a01      	cmp	r2, #1
 800290e:	d117      	bne.n	8002940 <UART_Receive_IT+0x8c>
 8002910:	68da      	ldr	r2, [r3, #12]
 8002912:	8da1      	ldrh	r1, [r4, #44]	; 0x2c
 8002914:	f022 0210 	bic.w	r2, r2, #16
 8002918:	60da      	str	r2, [r3, #12]
 800291a:	4620      	mov	r0, r4
 800291c:	f7ff ffc9 	bl	80028b2 <HAL_UARTEx_RxEventCallback>
 8002920:	2000      	movs	r0, #0
 8002922:	6320      	str	r0, [r4, #48]	; 0x30
 8002924:	bd10      	pop	{r4, pc}
 8002926:	b939      	cbnz	r1, 8002938 <UART_Receive_IT+0x84>
 8002928:	6901      	ldr	r1, [r0, #16]
 800292a:	b929      	cbnz	r1, 8002938 <UART_Receive_IT+0x84>
 800292c:	6852      	ldr	r2, [r2, #4]
 800292e:	b2d2      	uxtb	r2, r2
 8002930:	701a      	strb	r2, [r3, #0]
 8002932:	6aa3      	ldr	r3, [r4, #40]	; 0x28
 8002934:	3301      	adds	r3, #1
 8002936:	e7d1      	b.n	80028dc <UART_Receive_IT+0x28>
 8002938:	6852      	ldr	r2, [r2, #4]
 800293a:	f002 027f 	and.w	r2, r2, #127	; 0x7f
 800293e:	e7f7      	b.n	8002930 <UART_Receive_IT+0x7c>
 8002940:	4620      	mov	r0, r4
 8002942:	f7fe fadd 	bl	8000f00 <HAL_UART_RxCpltCallback>
 8002946:	e7eb      	b.n	8002920 <UART_Receive_IT+0x6c>
 8002948:	2002      	movs	r0, #2
 800294a:	e7eb      	b.n	8002924 <UART_Receive_IT+0x70>
 800294c:	2000      	movs	r0, #0
 800294e:	e7e9      	b.n	8002924 <UART_Receive_IT+0x70>

08002950 <HAL_UART_IRQHandler>:
 8002950:	6803      	ldr	r3, [r0, #0]
 8002952:	b537      	push	{r0, r1, r2, r4, r5, lr}
 8002954:	681a      	ldr	r2, [r3, #0]
 8002956:	68d9      	ldr	r1, [r3, #12]
 8002958:	695d      	ldr	r5, [r3, #20]
 800295a:	f012 0f0f 	tst.w	r2, #15
 800295e:	4604      	mov	r4, r0
 8002960:	d108      	bne.n	8002974 <HAL_UART_IRQHandler+0x24>
 8002962:	0695      	lsls	r5, r2, #26
 8002964:	d55f      	bpl.n	8002a26 <HAL_UART_IRQHandler+0xd6>
 8002966:	068d      	lsls	r5, r1, #26
 8002968:	d55d      	bpl.n	8002a26 <HAL_UART_IRQHandler+0xd6>
 800296a:	b003      	add	sp, #12
 800296c:	e8bd 4030 	ldmia.w	sp!, {r4, r5, lr}
 8002970:	f7ff bfa0 	b.w	80028b4 <UART_Receive_IT>
 8002974:	f005 0001 	and.w	r0, r5, #1
 8002978:	f401 7590 	and.w	r5, r1, #288	; 0x120
 800297c:	4305      	orrs	r5, r0
 800297e:	d052      	beq.n	8002a26 <HAL_UART_IRQHandler+0xd6>
 8002980:	07d5      	lsls	r5, r2, #31
 8002982:	d505      	bpl.n	8002990 <HAL_UART_IRQHandler+0x40>
 8002984:	05cb      	lsls	r3, r1, #23
 8002986:	bf42      	ittt	mi
 8002988:	6c23      	ldrmi	r3, [r4, #64]	; 0x40
 800298a:	f043 0301 	orrmi.w	r3, r3, #1
 800298e:	6423      	strmi	r3, [r4, #64]	; 0x40
 8002990:	0755      	lsls	r5, r2, #29
 8002992:	d504      	bpl.n	800299e <HAL_UART_IRQHandler+0x4e>
 8002994:	b118      	cbz	r0, 800299e <HAL_UART_IRQHandler+0x4e>
 8002996:	6c23      	ldr	r3, [r4, #64]	; 0x40
 8002998:	f043 0302 	orr.w	r3, r3, #2
 800299c:	6423      	str	r3, [r4, #64]	; 0x40
 800299e:	0793      	lsls	r3, r2, #30
 80029a0:	d504      	bpl.n	80029ac <HAL_UART_IRQHandler+0x5c>
 80029a2:	b118      	cbz	r0, 80029ac <HAL_UART_IRQHandler+0x5c>
 80029a4:	6c23      	ldr	r3, [r4, #64]	; 0x40
 80029a6:	f043 0304 	orr.w	r3, r3, #4
 80029aa:	6423      	str	r3, [r4, #64]	; 0x40
 80029ac:	0715      	lsls	r5, r2, #28
 80029ae:	d507      	bpl.n	80029c0 <HAL_UART_IRQHandler+0x70>
 80029b0:	f001 0320 	and.w	r3, r1, #32
 80029b4:	4303      	orrs	r3, r0
 80029b6:	bf1e      	ittt	ne
 80029b8:	6c23      	ldrne	r3, [r4, #64]	; 0x40
 80029ba:	f043 0308 	orrne.w	r3, r3, #8
 80029be:	6423      	strne	r3, [r4, #64]	; 0x40
 80029c0:	6c23      	ldr	r3, [r4, #64]	; 0x40
 80029c2:	b353      	cbz	r3, 8002a1a <HAL_UART_IRQHandler+0xca>
 80029c4:	0692      	lsls	r2, r2, #26
 80029c6:	d504      	bpl.n	80029d2 <HAL_UART_IRQHandler+0x82>
 80029c8:	068b      	lsls	r3, r1, #26
 80029ca:	d502      	bpl.n	80029d2 <HAL_UART_IRQHandler+0x82>
 80029cc:	4620      	mov	r0, r4
 80029ce:	f7ff ff71 	bl	80028b4 <UART_Receive_IT>
 80029d2:	6823      	ldr	r3, [r4, #0]
 80029d4:	695b      	ldr	r3, [r3, #20]
 80029d6:	6c25      	ldr	r5, [r4, #64]	; 0x40
 80029d8:	f003 0340 	and.w	r3, r3, #64	; 0x40
 80029dc:	f005 0508 	and.w	r5, r5, #8
 80029e0:	431d      	orrs	r5, r3
 80029e2:	4620      	mov	r0, r4
 80029e4:	d01b      	beq.n	8002a1e <HAL_UART_IRQHandler+0xce>
 80029e6:	f7ff fdbf 	bl	8002568 <UART_EndRxTransfer>
 80029ea:	6823      	ldr	r3, [r4, #0]
 80029ec:	695a      	ldr	r2, [r3, #20]
 80029ee:	0655      	lsls	r5, r2, #25
 80029f0:	d510      	bpl.n	8002a14 <HAL_UART_IRQHandler+0xc4>
 80029f2:	695a      	ldr	r2, [r3, #20]
 80029f4:	6ba0      	ldr	r0, [r4, #56]	; 0x38
 80029f6:	f022 0240 	bic.w	r2, r2, #64	; 0x40
 80029fa:	615a      	str	r2, [r3, #20]
 80029fc:	b150      	cbz	r0, 8002a14 <HAL_UART_IRQHandler+0xc4>
 80029fe:	4b54      	ldr	r3, [pc, #336]	; (8002b50 <HAL_UART_IRQHandler+0x200>)
 8002a00:	6503      	str	r3, [r0, #80]	; 0x50
 8002a02:	f7fe fcdf 	bl	80013c4 <HAL_DMA_Abort_IT>
 8002a06:	b140      	cbz	r0, 8002a1a <HAL_UART_IRQHandler+0xca>
 8002a08:	6ba0      	ldr	r0, [r4, #56]	; 0x38
 8002a0a:	6d03      	ldr	r3, [r0, #80]	; 0x50
 8002a0c:	b003      	add	sp, #12
 8002a0e:	e8bd 4030 	ldmia.w	sp!, {r4, r5, lr}
 8002a12:	4718      	bx	r3
 8002a14:	4620      	mov	r0, r4
 8002a16:	f7ff ff1e 	bl	8002856 <HAL_UART_ErrorCallback>
 8002a1a:	b003      	add	sp, #12
 8002a1c:	bd30      	pop	{r4, r5, pc}
 8002a1e:	f7ff ff1a 	bl	8002856 <HAL_UART_ErrorCallback>
 8002a22:	6425      	str	r5, [r4, #64]	; 0x40
 8002a24:	e7f9      	b.n	8002a1a <HAL_UART_IRQHandler+0xca>
 8002a26:	6b20      	ldr	r0, [r4, #48]	; 0x30
 8002a28:	2801      	cmp	r0, #1
 8002a2a:	d156      	bne.n	8002ada <HAL_UART_IRQHandler+0x18a>
 8002a2c:	06d0      	lsls	r0, r2, #27
 8002a2e:	d554      	bpl.n	8002ada <HAL_UART_IRQHandler+0x18a>
 8002a30:	06cd      	lsls	r5, r1, #27
 8002a32:	d552      	bpl.n	8002ada <HAL_UART_IRQHandler+0x18a>
 8002a34:	2100      	movs	r1, #0
 8002a36:	9101      	str	r1, [sp, #4]
 8002a38:	681a      	ldr	r2, [r3, #0]
 8002a3a:	9201      	str	r2, [sp, #4]
 8002a3c:	685a      	ldr	r2, [r3, #4]
 8002a3e:	9201      	str	r2, [sp, #4]
 8002a40:	9a01      	ldr	r2, [sp, #4]
 8002a42:	695a      	ldr	r2, [r3, #20]
 8002a44:	f012 0240 	ands.w	r2, r2, #64	; 0x40
 8002a48:	d02b      	beq.n	8002aa2 <HAL_UART_IRQHandler+0x152>
 8002a4a:	6ba0      	ldr	r0, [r4, #56]	; 0x38
 8002a4c:	6802      	ldr	r2, [r0, #0]
 8002a4e:	6852      	ldr	r2, [r2, #4]
 8002a50:	b292      	uxth	r2, r2
 8002a52:	2a00      	cmp	r2, #0
 8002a54:	d0e1      	beq.n	8002a1a <HAL_UART_IRQHandler+0xca>
 8002a56:	8da5      	ldrh	r5, [r4, #44]	; 0x2c
 8002a58:	4295      	cmp	r5, r2
 8002a5a:	d9de      	bls.n	8002a1a <HAL_UART_IRQHandler+0xca>
 8002a5c:	85e2      	strh	r2, [r4, #46]	; 0x2e
 8002a5e:	69c2      	ldr	r2, [r0, #28]
 8002a60:	f5b2 7f80 	cmp.w	r2, #256	; 0x100
 8002a64:	d015      	beq.n	8002a92 <HAL_UART_IRQHandler+0x142>
 8002a66:	68da      	ldr	r2, [r3, #12]
 8002a68:	f422 7280 	bic.w	r2, r2, #256	; 0x100
 8002a6c:	60da      	str	r2, [r3, #12]
 8002a6e:	695a      	ldr	r2, [r3, #20]
 8002a70:	f022 0201 	bic.w	r2, r2, #1
 8002a74:	615a      	str	r2, [r3, #20]
 8002a76:	695a      	ldr	r2, [r3, #20]
 8002a78:	f022 0240 	bic.w	r2, r2, #64	; 0x40
 8002a7c:	615a      	str	r2, [r3, #20]
 8002a7e:	2220      	movs	r2, #32
 8002a80:	f884 203e 	strb.w	r2, [r4, #62]	; 0x3e
 8002a84:	6321      	str	r1, [r4, #48]	; 0x30
 8002a86:	68da      	ldr	r2, [r3, #12]
 8002a88:	f022 0210 	bic.w	r2, r2, #16
 8002a8c:	60da      	str	r2, [r3, #12]
 8002a8e:	f7fe fc55 	bl	800133c <HAL_DMA_Abort>
 8002a92:	8de3      	ldrh	r3, [r4, #46]	; 0x2e
 8002a94:	8da1      	ldrh	r1, [r4, #44]	; 0x2c
 8002a96:	1ac9      	subs	r1, r1, r3
 8002a98:	b289      	uxth	r1, r1
 8002a9a:	4620      	mov	r0, r4
 8002a9c:	f7ff ff09 	bl	80028b2 <HAL_UARTEx_RxEventCallback>
 8002aa0:	e7bb      	b.n	8002a1a <HAL_UART_IRQHandler+0xca>
 8002aa2:	8de1      	ldrh	r1, [r4, #46]	; 0x2e
 8002aa4:	b288      	uxth	r0, r1
 8002aa6:	8de1      	ldrh	r1, [r4, #46]	; 0x2e
 8002aa8:	b289      	uxth	r1, r1
 8002aaa:	2900      	cmp	r1, #0
 8002aac:	d0b5      	beq.n	8002a1a <HAL_UART_IRQHandler+0xca>
 8002aae:	8da1      	ldrh	r1, [r4, #44]	; 0x2c
 8002ab0:	1a09      	subs	r1, r1, r0
 8002ab2:	b289      	uxth	r1, r1
 8002ab4:	2900      	cmp	r1, #0
 8002ab6:	d0b0      	beq.n	8002a1a <HAL_UART_IRQHandler+0xca>
 8002ab8:	68d8      	ldr	r0, [r3, #12]
 8002aba:	f420 7090 	bic.w	r0, r0, #288	; 0x120
 8002abe:	60d8      	str	r0, [r3, #12]
 8002ac0:	6958      	ldr	r0, [r3, #20]
 8002ac2:	f020 0001 	bic.w	r0, r0, #1
 8002ac6:	6158      	str	r0, [r3, #20]
 8002ac8:	2020      	movs	r0, #32
 8002aca:	f884 003e 	strb.w	r0, [r4, #62]	; 0x3e
 8002ace:	6322      	str	r2, [r4, #48]	; 0x30
 8002ad0:	68da      	ldr	r2, [r3, #12]
 8002ad2:	f022 0210 	bic.w	r2, r2, #16
 8002ad6:	60da      	str	r2, [r3, #12]
 8002ad8:	e7df      	b.n	8002a9a <HAL_UART_IRQHandler+0x14a>
 8002ada:	0610      	lsls	r0, r2, #24
 8002adc:	d526      	bpl.n	8002b2c <HAL_UART_IRQHandler+0x1dc>
 8002ade:	060d      	lsls	r5, r1, #24
 8002ae0:	d524      	bpl.n	8002b2c <HAL_UART_IRQHandler+0x1dc>
 8002ae2:	f894 203d 	ldrb.w	r2, [r4, #61]	; 0x3d
 8002ae6:	2a21      	cmp	r2, #33	; 0x21
 8002ae8:	d197      	bne.n	8002a1a <HAL_UART_IRQHandler+0xca>
 8002aea:	68a1      	ldr	r1, [r4, #8]
 8002aec:	6a22      	ldr	r2, [r4, #32]
 8002aee:	f5b1 5f80 	cmp.w	r1, #4096	; 0x1000
 8002af2:	d116      	bne.n	8002b22 <HAL_UART_IRQHandler+0x1d2>
 8002af4:	6921      	ldr	r1, [r4, #16]
 8002af6:	b9a1      	cbnz	r1, 8002b22 <HAL_UART_IRQHandler+0x1d2>
 8002af8:	f832 1b02 	ldrh.w	r1, [r2], #2
 8002afc:	f3c1 0108 	ubfx	r1, r1, #0, #9
 8002b00:	6059      	str	r1, [r3, #4]
 8002b02:	6222      	str	r2, [r4, #32]
 8002b04:	8ce2      	ldrh	r2, [r4, #38]	; 0x26
 8002b06:	3a01      	subs	r2, #1
 8002b08:	b292      	uxth	r2, r2
 8002b0a:	84e2      	strh	r2, [r4, #38]	; 0x26
 8002b0c:	2a00      	cmp	r2, #0
 8002b0e:	d184      	bne.n	8002a1a <HAL_UART_IRQHandler+0xca>
 8002b10:	68da      	ldr	r2, [r3, #12]
 8002b12:	f022 0280 	bic.w	r2, r2, #128	; 0x80
 8002b16:	60da      	str	r2, [r3, #12]
 8002b18:	68da      	ldr	r2, [r3, #12]
 8002b1a:	f042 0240 	orr.w	r2, r2, #64	; 0x40
 8002b1e:	60da      	str	r2, [r3, #12]
 8002b20:	e77b      	b.n	8002a1a <HAL_UART_IRQHandler+0xca>
 8002b22:	1c51      	adds	r1, r2, #1
 8002b24:	6221      	str	r1, [r4, #32]
 8002b26:	7812      	ldrb	r2, [r2, #0]
 8002b28:	605a      	str	r2, [r3, #4]
 8002b2a:	e7eb      	b.n	8002b04 <HAL_UART_IRQHandler+0x1b4>
 8002b2c:	0650      	lsls	r0, r2, #25
 8002b2e:	f57f af74 	bpl.w	8002a1a <HAL_UART_IRQHandler+0xca>
 8002b32:	064a      	lsls	r2, r1, #25
 8002b34:	f57f af71 	bpl.w	8002a1a <HAL_UART_IRQHandler+0xca>
 8002b38:	68da      	ldr	r2, [r3, #12]
 8002b3a:	f022 0240 	bic.w	r2, r2, #64	; 0x40
 8002b3e:	60da      	str	r2, [r3, #12]
 8002b40:	2320      	movs	r3, #32
 8002b42:	f884 303d 	strb.w	r3, [r4, #61]	; 0x3d
 8002b46:	4620      	mov	r0, r4
 8002b48:	f7fe fa3e 	bl	8000fc8 <HAL_UART_TxCpltCallback>
 8002b4c:	e765      	b.n	8002a1a <HAL_UART_IRQHandler+0xca>
 8002b4e:	bf00      	nop
 8002b50:	080028a3 	.word	0x080028a3

08002b54 <UART_DMARxHalfCplt>:
 8002b54:	6b80      	ldr	r0, [r0, #56]	; 0x38
 8002b56:	b508      	push	{r3, lr}
 8002b58:	6b03      	ldr	r3, [r0, #48]	; 0x30
 8002b5a:	2b01      	cmp	r3, #1
 8002b5c:	d104      	bne.n	8002b68 <UART_DMARxHalfCplt+0x14>
 8002b5e:	8d81      	ldrh	r1, [r0, #44]	; 0x2c
 8002b60:	0849      	lsrs	r1, r1, #1
 8002b62:	f7ff fea6 	bl	80028b2 <HAL_UARTEx_RxEventCallback>
 8002b66:	bd08      	pop	{r3, pc}
 8002b68:	f7ff fe74 	bl	8002854 <HAL_UART_RxHalfCpltCallback>
 8002b6c:	e7fb      	b.n	8002b66 <UART_DMARxHalfCplt+0x12>

08002b6e <UART_DMAReceiveCplt>:
 8002b6e:	b508      	push	{r3, lr}
 8002b70:	4603      	mov	r3, r0
 8002b72:	6b80      	ldr	r0, [r0, #56]	; 0x38
 8002b74:	681b      	ldr	r3, [r3, #0]
 8002b76:	681b      	ldr	r3, [r3, #0]
 8002b78:	f413 7380 	ands.w	r3, r3, #256	; 0x100
 8002b7c:	d117      	bne.n	8002bae <UART_DMAReceiveCplt+0x40>
 8002b7e:	85c3      	strh	r3, [r0, #46]	; 0x2e
 8002b80:	6803      	ldr	r3, [r0, #0]
 8002b82:	68da      	ldr	r2, [r3, #12]
 8002b84:	f422 7280 	bic.w	r2, r2, #256	; 0x100
 8002b88:	60da      	str	r2, [r3, #12]
 8002b8a:	695a      	ldr	r2, [r3, #20]
 8002b8c:	f022 0201 	bic.w	r2, r2, #1
 8002b90:	615a      	str	r2, [r3, #20]
 8002b92:	695a      	ldr	r2, [r3, #20]
 8002b94:	f022 0240 	bic.w	r2, r2, #64	; 0x40
 8002b98:	615a      	str	r2, [r3, #20]
 8002b9a:	2220      	movs	r2, #32
 8002b9c:	f880 203e 	strb.w	r2, [r0, #62]	; 0x3e
 8002ba0:	6b02      	ldr	r2, [r0, #48]	; 0x30
 8002ba2:	2a01      	cmp	r2, #1
 8002ba4:	bf02      	ittt	eq
 8002ba6:	68da      	ldreq	r2, [r3, #12]
 8002ba8:	f022 0210 	biceq.w	r2, r2, #16
 8002bac:	60da      	streq	r2, [r3, #12]
 8002bae:	6b03      	ldr	r3, [r0, #48]	; 0x30
 8002bb0:	2b01      	cmp	r3, #1
 8002bb2:	d103      	bne.n	8002bbc <UART_DMAReceiveCplt+0x4e>
 8002bb4:	8d81      	ldrh	r1, [r0, #44]	; 0x2c
 8002bb6:	f7ff fe7c 	bl	80028b2 <HAL_UARTEx_RxEventCallback>
 8002bba:	bd08      	pop	{r3, pc}
 8002bbc:	f7fe f9a0 	bl	8000f00 <HAL_UART_RxCpltCallback>
 8002bc0:	e7fb      	b.n	8002bba <UART_DMAReceiveCplt+0x4c>
	...

08002bc4 <UART_Start_Receive_DMA>:
 8002bc4:	b573      	push	{r0, r1, r4, r5, r6, lr}
 8002bc6:	2322      	movs	r3, #34	; 0x22
 8002bc8:	2500      	movs	r5, #0
 8002bca:	4604      	mov	r4, r0
 8002bcc:	6405      	str	r5, [r0, #64]	; 0x40
 8002bce:	6281      	str	r1, [r0, #40]	; 0x28
 8002bd0:	f880 303e 	strb.w	r3, [r0, #62]	; 0x3e
 8002bd4:	8582      	strh	r2, [r0, #44]	; 0x2c
 8002bd6:	6b80      	ldr	r0, [r0, #56]	; 0x38
 8002bd8:	4b12      	ldr	r3, [pc, #72]	; (8002c24 <UART_Start_Receive_DMA+0x60>)
 8002bda:	63c3      	str	r3, [r0, #60]	; 0x3c
 8002bdc:	4b12      	ldr	r3, [pc, #72]	; (8002c28 <UART_Start_Receive_DMA+0x64>)
 8002bde:	6826      	ldr	r6, [r4, #0]
 8002be0:	6403      	str	r3, [r0, #64]	; 0x40
 8002be2:	4b12      	ldr	r3, [pc, #72]	; (8002c2c <UART_Start_Receive_DMA+0x68>)
 8002be4:	e9c0 3513 	strd	r3, r5, [r0, #76]	; 0x4c
 8002be8:	4613      	mov	r3, r2
 8002bea:	460a      	mov	r2, r1
 8002bec:	1d31      	adds	r1, r6, #4
 8002bee:	f7fe fb6b 	bl	80012c8 <HAL_DMA_Start_IT>
 8002bf2:	6823      	ldr	r3, [r4, #0]
 8002bf4:	9501      	str	r5, [sp, #4]
 8002bf6:	681a      	ldr	r2, [r3, #0]
 8002bf8:	9201      	str	r2, [sp, #4]
 8002bfa:	685a      	ldr	r2, [r3, #4]
 8002bfc:	9201      	str	r2, [sp, #4]
 8002bfe:	f884 503c 	strb.w	r5, [r4, #60]	; 0x3c
 8002c02:	9a01      	ldr	r2, [sp, #4]
 8002c04:	68da      	ldr	r2, [r3, #12]
 8002c06:	f442 7280 	orr.w	r2, r2, #256	; 0x100
 8002c0a:	60da      	str	r2, [r3, #12]
 8002c0c:	695a      	ldr	r2, [r3, #20]
 8002c0e:	f042 0201 	orr.w	r2, r2, #1
 8002c12:	615a      	str	r2, [r3, #20]
 8002c14:	695a      	ldr	r2, [r3, #20]
 8002c16:	4628      	mov	r0, r5
 8002c18:	f042 0240 	orr.w	r2, r2, #64	; 0x40
 8002c1c:	615a      	str	r2, [r3, #20]
 8002c1e:	b002      	add	sp, #8
 8002c20:	bd70      	pop	{r4, r5, r6, pc}
 8002c22:	bf00      	nop
 8002c24:	08002b6f 	.word	0x08002b6f
 8002c28:	08002b55 	.word	0x08002b55
 8002c2c:	08002859 	.word	0x08002859

08002c30 <HAL_UART_Receive_DMA>:
 8002c30:	b470      	push	{r4, r5, r6}
 8002c32:	f890 603e 	ldrb.w	r6, [r0, #62]	; 0x3e
 8002c36:	2e20      	cmp	r6, #32
 8002c38:	d110      	bne.n	8002c5c <HAL_UART_Receive_DMA+0x2c>
 8002c3a:	b161      	cbz	r1, 8002c56 <HAL_UART_Receive_DMA+0x26>
 8002c3c:	b15a      	cbz	r2, 8002c56 <HAL_UART_Receive_DMA+0x26>
 8002c3e:	f890 403c 	ldrb.w	r4, [r0, #60]	; 0x3c
 8002c42:	2c01      	cmp	r4, #1
 8002c44:	d00a      	beq.n	8002c5c <HAL_UART_Receive_DMA+0x2c>
 8002c46:	2401      	movs	r4, #1
 8002c48:	f880 403c 	strb.w	r4, [r0, #60]	; 0x3c
 8002c4c:	2400      	movs	r4, #0
 8002c4e:	6304      	str	r4, [r0, #48]	; 0x30
 8002c50:	bc70      	pop	{r4, r5, r6}
 8002c52:	f7ff bfb7 	b.w	8002bc4 <UART_Start_Receive_DMA>
 8002c56:	2001      	movs	r0, #1
 8002c58:	bc70      	pop	{r4, r5, r6}
 8002c5a:	4770      	bx	lr
 8002c5c:	2002      	movs	r0, #2
 8002c5e:	e7fb      	b.n	8002c58 <HAL_UART_Receive_DMA+0x28>

08002c60 <__errno>:
 8002c60:	4b01      	ldr	r3, [pc, #4]	; (8002c68 <__errno+0x8>)
 8002c62:	6818      	ldr	r0, [r3, #0]
 8002c64:	4770      	bx	lr
 8002c66:	bf00      	nop
 8002c68:	2000002c 	.word	0x2000002c

08002c6c <__libc_init_array>:
 8002c6c:	b570      	push	{r4, r5, r6, lr}
 8002c6e:	4d0d      	ldr	r5, [pc, #52]	; (8002ca4 <__libc_init_array+0x38>)
 8002c70:	4c0d      	ldr	r4, [pc, #52]	; (8002ca8 <__libc_init_array+0x3c>)
 8002c72:	1b64      	subs	r4, r4, r5
 8002c74:	10a4      	asrs	r4, r4, #2
 8002c76:	2600      	movs	r6, #0
 8002c78:	42a6      	cmp	r6, r4
 8002c7a:	d109      	bne.n	8002c90 <__libc_init_array+0x24>
 8002c7c:	4d0b      	ldr	r5, [pc, #44]	; (8002cac <__libc_init_array+0x40>)
 8002c7e:	4c0c      	ldr	r4, [pc, #48]	; (8002cb0 <__libc_init_array+0x44>)
 8002c80:	f001 fa10 	bl	80040a4 <_init>
 8002c84:	1b64      	subs	r4, r4, r5
 8002c86:	10a4      	asrs	r4, r4, #2
 8002c88:	2600      	movs	r6, #0
 8002c8a:	42a6      	cmp	r6, r4
 8002c8c:	d105      	bne.n	8002c9a <__libc_init_array+0x2e>
 8002c8e:	bd70      	pop	{r4, r5, r6, pc}
 8002c90:	f855 3b04 	ldr.w	r3, [r5], #4
 8002c94:	4798      	blx	r3
 8002c96:	3601      	adds	r6, #1
 8002c98:	e7ee      	b.n	8002c78 <__libc_init_array+0xc>
 8002c9a:	f855 3b04 	ldr.w	r3, [r5], #4
 8002c9e:	4798      	blx	r3
 8002ca0:	3601      	adds	r6, #1
 8002ca2:	e7f2      	b.n	8002c8a <__libc_init_array+0x1e>
 8002ca4:	08004318 	.word	0x08004318
 8002ca8:	08004318 	.word	0x08004318
 8002cac:	08004318 	.word	0x08004318
 8002cb0:	0800431c 	.word	0x0800431c

08002cb4 <memset>:
 8002cb4:	4402      	add	r2, r0
 8002cb6:	4603      	mov	r3, r0
 8002cb8:	4293      	cmp	r3, r2
 8002cba:	d100      	bne.n	8002cbe <memset+0xa>
 8002cbc:	4770      	bx	lr
 8002cbe:	f803 1b01 	strb.w	r1, [r3], #1
 8002cc2:	e7f9      	b.n	8002cb8 <memset+0x4>

08002cc4 <siprintf>:
 8002cc4:	b40e      	push	{r1, r2, r3}
 8002cc6:	b500      	push	{lr}
 8002cc8:	b09c      	sub	sp, #112	; 0x70
 8002cca:	ab1d      	add	r3, sp, #116	; 0x74
 8002ccc:	9002      	str	r0, [sp, #8]
 8002cce:	9006      	str	r0, [sp, #24]
 8002cd0:	f06f 4100 	mvn.w	r1, #2147483648	; 0x80000000
 8002cd4:	4809      	ldr	r0, [pc, #36]	; (8002cfc <siprintf+0x38>)
 8002cd6:	9107      	str	r1, [sp, #28]
 8002cd8:	9104      	str	r1, [sp, #16]
 8002cda:	4909      	ldr	r1, [pc, #36]	; (8002d00 <siprintf+0x3c>)
 8002cdc:	f853 2b04 	ldr.w	r2, [r3], #4
 8002ce0:	9105      	str	r1, [sp, #20]
 8002ce2:	6800      	ldr	r0, [r0, #0]
 8002ce4:	9301      	str	r3, [sp, #4]
 8002ce6:	a902      	add	r1, sp, #8
 8002ce8:	f000 f9a6 	bl	8003038 <_svfiprintf_r>
 8002cec:	9b02      	ldr	r3, [sp, #8]
 8002cee:	2200      	movs	r2, #0
 8002cf0:	701a      	strb	r2, [r3, #0]
 8002cf2:	b01c      	add	sp, #112	; 0x70
 8002cf4:	f85d eb04 	ldr.w	lr, [sp], #4
 8002cf8:	b003      	add	sp, #12
 8002cfa:	4770      	bx	lr
 8002cfc:	2000002c 	.word	0x2000002c
 8002d00:	ffff0208 	.word	0xffff0208

08002d04 <strtok>:
 8002d04:	4b16      	ldr	r3, [pc, #88]	; (8002d60 <strtok+0x5c>)
 8002d06:	b573      	push	{r0, r1, r4, r5, r6, lr}
 8002d08:	681e      	ldr	r6, [r3, #0]
 8002d0a:	6db4      	ldr	r4, [r6, #88]	; 0x58
 8002d0c:	4605      	mov	r5, r0
 8002d0e:	b9fc      	cbnz	r4, 8002d50 <strtok+0x4c>
 8002d10:	2050      	movs	r0, #80	; 0x50
 8002d12:	9101      	str	r1, [sp, #4]
 8002d14:	f000 f882 	bl	8002e1c <malloc>
 8002d18:	9901      	ldr	r1, [sp, #4]
 8002d1a:	65b0      	str	r0, [r6, #88]	; 0x58
 8002d1c:	4602      	mov	r2, r0
 8002d1e:	b920      	cbnz	r0, 8002d2a <strtok+0x26>
 8002d20:	4b10      	ldr	r3, [pc, #64]	; (8002d64 <strtok+0x60>)
 8002d22:	4811      	ldr	r0, [pc, #68]	; (8002d68 <strtok+0x64>)
 8002d24:	2157      	movs	r1, #87	; 0x57
 8002d26:	f000 f849 	bl	8002dbc <__assert_func>
 8002d2a:	e9c0 4400 	strd	r4, r4, [r0]
 8002d2e:	e9c0 4402 	strd	r4, r4, [r0, #8]
 8002d32:	e9c0 4404 	strd	r4, r4, [r0, #16]
 8002d36:	e9c0 440a 	strd	r4, r4, [r0, #40]	; 0x28
 8002d3a:	e9c0 440c 	strd	r4, r4, [r0, #48]	; 0x30
 8002d3e:	e9c0 440e 	strd	r4, r4, [r0, #56]	; 0x38
 8002d42:	e9c0 4410 	strd	r4, r4, [r0, #64]	; 0x40
 8002d46:	e9c0 4412 	strd	r4, r4, [r0, #72]	; 0x48
 8002d4a:	6184      	str	r4, [r0, #24]
 8002d4c:	7704      	strb	r4, [r0, #28]
 8002d4e:	6244      	str	r4, [r0, #36]	; 0x24
 8002d50:	6db2      	ldr	r2, [r6, #88]	; 0x58
 8002d52:	2301      	movs	r3, #1
 8002d54:	4628      	mov	r0, r5
 8002d56:	b002      	add	sp, #8
 8002d58:	e8bd 4070 	ldmia.w	sp!, {r4, r5, r6, lr}
 8002d5c:	f000 b806 	b.w	8002d6c <__strtok_r>
 8002d60:	2000002c 	.word	0x2000002c
 8002d64:	080041c8 	.word	0x080041c8
 8002d68:	080041df 	.word	0x080041df

08002d6c <__strtok_r>:
 8002d6c:	b5f0      	push	{r4, r5, r6, r7, lr}
 8002d6e:	b908      	cbnz	r0, 8002d74 <__strtok_r+0x8>
 8002d70:	6810      	ldr	r0, [r2, #0]
 8002d72:	b188      	cbz	r0, 8002d98 <__strtok_r+0x2c>
 8002d74:	4604      	mov	r4, r0
 8002d76:	4620      	mov	r0, r4
 8002d78:	f814 5b01 	ldrb.w	r5, [r4], #1
 8002d7c:	460f      	mov	r7, r1
 8002d7e:	f817 6b01 	ldrb.w	r6, [r7], #1
 8002d82:	b91e      	cbnz	r6, 8002d8c <__strtok_r+0x20>
 8002d84:	b965      	cbnz	r5, 8002da0 <__strtok_r+0x34>
 8002d86:	6015      	str	r5, [r2, #0]
 8002d88:	4628      	mov	r0, r5
 8002d8a:	e005      	b.n	8002d98 <__strtok_r+0x2c>
 8002d8c:	42b5      	cmp	r5, r6
 8002d8e:	d1f6      	bne.n	8002d7e <__strtok_r+0x12>
 8002d90:	2b00      	cmp	r3, #0
 8002d92:	d1f0      	bne.n	8002d76 <__strtok_r+0xa>
 8002d94:	6014      	str	r4, [r2, #0]
 8002d96:	7003      	strb	r3, [r0, #0]
 8002d98:	bdf0      	pop	{r4, r5, r6, r7, pc}
 8002d9a:	461c      	mov	r4, r3
 8002d9c:	e00c      	b.n	8002db8 <__strtok_r+0x4c>
 8002d9e:	b915      	cbnz	r5, 8002da6 <__strtok_r+0x3a>
 8002da0:	f814 3b01 	ldrb.w	r3, [r4], #1
 8002da4:	460e      	mov	r6, r1
 8002da6:	f816 5b01 	ldrb.w	r5, [r6], #1
 8002daa:	42ab      	cmp	r3, r5
 8002dac:	d1f7      	bne.n	8002d9e <__strtok_r+0x32>
 8002dae:	2b00      	cmp	r3, #0
 8002db0:	d0f3      	beq.n	8002d9a <__strtok_r+0x2e>
 8002db2:	2300      	movs	r3, #0
 8002db4:	f804 3c01 	strb.w	r3, [r4, #-1]
 8002db8:	6014      	str	r4, [r2, #0]
 8002dba:	e7ed      	b.n	8002d98 <__strtok_r+0x2c>

08002dbc <__assert_func>:
 8002dbc:	b51f      	push	{r0, r1, r2, r3, r4, lr}
 8002dbe:	4614      	mov	r4, r2
 8002dc0:	461a      	mov	r2, r3
 8002dc2:	4b09      	ldr	r3, [pc, #36]	; (8002de8 <__assert_func+0x2c>)
 8002dc4:	681b      	ldr	r3, [r3, #0]
 8002dc6:	4605      	mov	r5, r0
 8002dc8:	68d8      	ldr	r0, [r3, #12]
 8002dca:	b14c      	cbz	r4, 8002de0 <__assert_func+0x24>
 8002dcc:	4b07      	ldr	r3, [pc, #28]	; (8002dec <__assert_func+0x30>)
 8002dce:	9100      	str	r1, [sp, #0]
 8002dd0:	e9cd 3401 	strd	r3, r4, [sp, #4]
 8002dd4:	4906      	ldr	r1, [pc, #24]	; (8002df0 <__assert_func+0x34>)
 8002dd6:	462b      	mov	r3, r5
 8002dd8:	f000 f80e 	bl	8002df8 <fiprintf>
 8002ddc:	f000 fdea 	bl	80039b4 <abort>
 8002de0:	4b04      	ldr	r3, [pc, #16]	; (8002df4 <__assert_func+0x38>)
 8002de2:	461c      	mov	r4, r3
 8002de4:	e7f3      	b.n	8002dce <__assert_func+0x12>
 8002de6:	bf00      	nop
 8002de8:	2000002c 	.word	0x2000002c
 8002dec:	08004240 	.word	0x08004240
 8002df0:	0800424d 	.word	0x0800424d
 8002df4:	080041bb 	.word	0x080041bb

08002df8 <fiprintf>:
 8002df8:	b40e      	push	{r1, r2, r3}
 8002dfa:	b503      	push	{r0, r1, lr}
 8002dfc:	4601      	mov	r1, r0
 8002dfe:	ab03      	add	r3, sp, #12
 8002e00:	4805      	ldr	r0, [pc, #20]	; (8002e18 <fiprintf+0x20>)
 8002e02:	f853 2b04 	ldr.w	r2, [r3], #4
 8002e06:	6800      	ldr	r0, [r0, #0]
 8002e08:	9301      	str	r3, [sp, #4]
 8002e0a:	f000 fa3f 	bl	800328c <_vfiprintf_r>
 8002e0e:	b002      	add	sp, #8
 8002e10:	f85d eb04 	ldr.w	lr, [sp], #4
 8002e14:	b003      	add	sp, #12
 8002e16:	4770      	bx	lr
 8002e18:	2000002c 	.word	0x2000002c

08002e1c <malloc>:
 8002e1c:	4b02      	ldr	r3, [pc, #8]	; (8002e28 <malloc+0xc>)
 8002e1e:	4601      	mov	r1, r0
 8002e20:	6818      	ldr	r0, [r3, #0]
 8002e22:	f000 b853 	b.w	8002ecc <_malloc_r>
 8002e26:	bf00      	nop
 8002e28:	2000002c 	.word	0x2000002c

08002e2c <_free_r>:
 8002e2c:	b537      	push	{r0, r1, r2, r4, r5, lr}
 8002e2e:	2900      	cmp	r1, #0
 8002e30:	d048      	beq.n	8002ec4 <_free_r+0x98>
 8002e32:	f851 3c04 	ldr.w	r3, [r1, #-4]
 8002e36:	9001      	str	r0, [sp, #4]
 8002e38:	2b00      	cmp	r3, #0
 8002e3a:	f1a1 0404 	sub.w	r4, r1, #4
 8002e3e:	bfb8      	it	lt
 8002e40:	18e4      	addlt	r4, r4, r3
 8002e42:	f001 f805 	bl	8003e50 <__malloc_lock>
 8002e46:	4a20      	ldr	r2, [pc, #128]	; (8002ec8 <_free_r+0x9c>)
 8002e48:	9801      	ldr	r0, [sp, #4]
 8002e4a:	6813      	ldr	r3, [r2, #0]
 8002e4c:	4615      	mov	r5, r2
 8002e4e:	b933      	cbnz	r3, 8002e5e <_free_r+0x32>
 8002e50:	6063      	str	r3, [r4, #4]
 8002e52:	6014      	str	r4, [r2, #0]
 8002e54:	b003      	add	sp, #12
 8002e56:	e8bd 4030 	ldmia.w	sp!, {r4, r5, lr}
 8002e5a:	f000 bfff 	b.w	8003e5c <__malloc_unlock>
 8002e5e:	42a3      	cmp	r3, r4
 8002e60:	d90b      	bls.n	8002e7a <_free_r+0x4e>
 8002e62:	6821      	ldr	r1, [r4, #0]
 8002e64:	1862      	adds	r2, r4, r1
 8002e66:	4293      	cmp	r3, r2
 8002e68:	bf04      	itt	eq
 8002e6a:	681a      	ldreq	r2, [r3, #0]
 8002e6c:	685b      	ldreq	r3, [r3, #4]
 8002e6e:	6063      	str	r3, [r4, #4]
 8002e70:	bf04      	itt	eq
 8002e72:	1852      	addeq	r2, r2, r1
 8002e74:	6022      	streq	r2, [r4, #0]
 8002e76:	602c      	str	r4, [r5, #0]
 8002e78:	e7ec      	b.n	8002e54 <_free_r+0x28>
 8002e7a:	461a      	mov	r2, r3
 8002e7c:	685b      	ldr	r3, [r3, #4]
 8002e7e:	b10b      	cbz	r3, 8002e84 <_free_r+0x58>
 8002e80:	42a3      	cmp	r3, r4
 8002e82:	d9fa      	bls.n	8002e7a <_free_r+0x4e>
 8002e84:	6811      	ldr	r1, [r2, #0]
 8002e86:	1855      	adds	r5, r2, r1
 8002e88:	42a5      	cmp	r5, r4
 8002e8a:	d10b      	bne.n	8002ea4 <_free_r+0x78>
 8002e8c:	6824      	ldr	r4, [r4, #0]
 8002e8e:	4421      	add	r1, r4
 8002e90:	1854      	adds	r4, r2, r1
 8002e92:	42a3      	cmp	r3, r4
 8002e94:	6011      	str	r1, [r2, #0]
 8002e96:	d1dd      	bne.n	8002e54 <_free_r+0x28>
 8002e98:	681c      	ldr	r4, [r3, #0]
 8002e9a:	685b      	ldr	r3, [r3, #4]
 8002e9c:	6053      	str	r3, [r2, #4]
 8002e9e:	4421      	add	r1, r4
 8002ea0:	6011      	str	r1, [r2, #0]
 8002ea2:	e7d7      	b.n	8002e54 <_free_r+0x28>
 8002ea4:	d902      	bls.n	8002eac <_free_r+0x80>
 8002ea6:	230c      	movs	r3, #12
 8002ea8:	6003      	str	r3, [r0, #0]
 8002eaa:	e7d3      	b.n	8002e54 <_free_r+0x28>
 8002eac:	6825      	ldr	r5, [r4, #0]
 8002eae:	1961      	adds	r1, r4, r5
 8002eb0:	428b      	cmp	r3, r1
 8002eb2:	bf04      	itt	eq
 8002eb4:	6819      	ldreq	r1, [r3, #0]
 8002eb6:	685b      	ldreq	r3, [r3, #4]
 8002eb8:	6063      	str	r3, [r4, #4]
 8002eba:	bf04      	itt	eq
 8002ebc:	1949      	addeq	r1, r1, r5
 8002ebe:	6021      	streq	r1, [r4, #0]
 8002ec0:	6054      	str	r4, [r2, #4]
 8002ec2:	e7c7      	b.n	8002e54 <_free_r+0x28>
 8002ec4:	b003      	add	sp, #12
 8002ec6:	bd30      	pop	{r4, r5, pc}
 8002ec8:	200000b4 	.word	0x200000b4

08002ecc <_malloc_r>:
 8002ecc:	b5f8      	push	{r3, r4, r5, r6, r7, lr}
 8002ece:	1ccd      	adds	r5, r1, #3
 8002ed0:	f025 0503 	bic.w	r5, r5, #3
 8002ed4:	3508      	adds	r5, #8
 8002ed6:	2d0c      	cmp	r5, #12
 8002ed8:	bf38      	it	cc
 8002eda:	250c      	movcc	r5, #12
 8002edc:	2d00      	cmp	r5, #0
 8002ede:	4606      	mov	r6, r0
 8002ee0:	db01      	blt.n	8002ee6 <_malloc_r+0x1a>
 8002ee2:	42a9      	cmp	r1, r5
 8002ee4:	d903      	bls.n	8002eee <_malloc_r+0x22>
 8002ee6:	230c      	movs	r3, #12
 8002ee8:	6033      	str	r3, [r6, #0]
 8002eea:	2000      	movs	r0, #0
 8002eec:	bdf8      	pop	{r3, r4, r5, r6, r7, pc}
 8002eee:	f000 ffaf 	bl	8003e50 <__malloc_lock>
 8002ef2:	4921      	ldr	r1, [pc, #132]	; (8002f78 <_malloc_r+0xac>)
 8002ef4:	680a      	ldr	r2, [r1, #0]
 8002ef6:	4614      	mov	r4, r2
 8002ef8:	b99c      	cbnz	r4, 8002f22 <_malloc_r+0x56>
 8002efa:	4f20      	ldr	r7, [pc, #128]	; (8002f7c <_malloc_r+0xb0>)
 8002efc:	683b      	ldr	r3, [r7, #0]
 8002efe:	b923      	cbnz	r3, 8002f0a <_malloc_r+0x3e>
 8002f00:	4621      	mov	r1, r4
 8002f02:	4630      	mov	r0, r6
 8002f04:	f000 fc86 	bl	8003814 <_sbrk_r>
 8002f08:	6038      	str	r0, [r7, #0]
 8002f0a:	4629      	mov	r1, r5
 8002f0c:	4630      	mov	r0, r6
 8002f0e:	f000 fc81 	bl	8003814 <_sbrk_r>
 8002f12:	1c43      	adds	r3, r0, #1
 8002f14:	d123      	bne.n	8002f5e <_malloc_r+0x92>
 8002f16:	230c      	movs	r3, #12
 8002f18:	6033      	str	r3, [r6, #0]
 8002f1a:	4630      	mov	r0, r6
 8002f1c:	f000 ff9e 	bl	8003e5c <__malloc_unlock>
 8002f20:	e7e3      	b.n	8002eea <_malloc_r+0x1e>
 8002f22:	6823      	ldr	r3, [r4, #0]
 8002f24:	1b5b      	subs	r3, r3, r5
 8002f26:	d417      	bmi.n	8002f58 <_malloc_r+0x8c>
 8002f28:	2b0b      	cmp	r3, #11
 8002f2a:	d903      	bls.n	8002f34 <_malloc_r+0x68>
 8002f2c:	6023      	str	r3, [r4, #0]
 8002f2e:	441c      	add	r4, r3
 8002f30:	6025      	str	r5, [r4, #0]
 8002f32:	e004      	b.n	8002f3e <_malloc_r+0x72>
 8002f34:	6863      	ldr	r3, [r4, #4]
 8002f36:	42a2      	cmp	r2, r4
 8002f38:	bf0c      	ite	eq
 8002f3a:	600b      	streq	r3, [r1, #0]
 8002f3c:	6053      	strne	r3, [r2, #4]
 8002f3e:	4630      	mov	r0, r6
 8002f40:	f000 ff8c 	bl	8003e5c <__malloc_unlock>
 8002f44:	f104 000b 	add.w	r0, r4, #11
 8002f48:	1d23      	adds	r3, r4, #4
 8002f4a:	f020 0007 	bic.w	r0, r0, #7
 8002f4e:	1ac2      	subs	r2, r0, r3
 8002f50:	d0cc      	beq.n	8002eec <_malloc_r+0x20>
 8002f52:	1a1b      	subs	r3, r3, r0
 8002f54:	50a3      	str	r3, [r4, r2]
 8002f56:	e7c9      	b.n	8002eec <_malloc_r+0x20>
 8002f58:	4622      	mov	r2, r4
 8002f5a:	6864      	ldr	r4, [r4, #4]
 8002f5c:	e7cc      	b.n	8002ef8 <_malloc_r+0x2c>
 8002f5e:	1cc4      	adds	r4, r0, #3
 8002f60:	f024 0403 	bic.w	r4, r4, #3
 8002f64:	42a0      	cmp	r0, r4
 8002f66:	d0e3      	beq.n	8002f30 <_malloc_r+0x64>
 8002f68:	1a21      	subs	r1, r4, r0
 8002f6a:	4630      	mov	r0, r6
 8002f6c:	f000 fc52 	bl	8003814 <_sbrk_r>
 8002f70:	3001      	adds	r0, #1
 8002f72:	d1dd      	bne.n	8002f30 <_malloc_r+0x64>
 8002f74:	e7cf      	b.n	8002f16 <_malloc_r+0x4a>
 8002f76:	bf00      	nop
 8002f78:	200000b4 	.word	0x200000b4
 8002f7c:	200000b8 	.word	0x200000b8

08002f80 <__ssputs_r>:
 8002f80:	e92d 47f0 	stmdb	sp!, {r4, r5, r6, r7, r8, r9, sl, lr}
 8002f84:	688e      	ldr	r6, [r1, #8]
 8002f86:	429e      	cmp	r6, r3
 8002f88:	4682      	mov	sl, r0
 8002f8a:	460c      	mov	r4, r1
 8002f8c:	4690      	mov	r8, r2
 8002f8e:	461f      	mov	r7, r3
 8002f90:	d838      	bhi.n	8003004 <__ssputs_r+0x84>
 8002f92:	898a      	ldrh	r2, [r1, #12]
 8002f94:	f412 6f90 	tst.w	r2, #1152	; 0x480
 8002f98:	d032      	beq.n	8003000 <__ssputs_r+0x80>
 8002f9a:	6825      	ldr	r5, [r4, #0]
 8002f9c:	6909      	ldr	r1, [r1, #16]
 8002f9e:	eba5 0901 	sub.w	r9, r5, r1
 8002fa2:	6965      	ldr	r5, [r4, #20]
 8002fa4:	eb05 0545 	add.w	r5, r5, r5, lsl #1
 8002fa8:	eb05 75d5 	add.w	r5, r5, r5, lsr #31
 8002fac:	3301      	adds	r3, #1
 8002fae:	444b      	add	r3, r9
 8002fb0:	106d      	asrs	r5, r5, #1
 8002fb2:	429d      	cmp	r5, r3
 8002fb4:	bf38      	it	cc
 8002fb6:	461d      	movcc	r5, r3
 8002fb8:	0553      	lsls	r3, r2, #21
 8002fba:	d531      	bpl.n	8003020 <__ssputs_r+0xa0>
 8002fbc:	4629      	mov	r1, r5
 8002fbe:	f7ff ff85 	bl	8002ecc <_malloc_r>
 8002fc2:	4606      	mov	r6, r0
 8002fc4:	b950      	cbnz	r0, 8002fdc <__ssputs_r+0x5c>
 8002fc6:	230c      	movs	r3, #12
 8002fc8:	f8ca 3000 	str.w	r3, [sl]
 8002fcc:	89a3      	ldrh	r3, [r4, #12]
 8002fce:	f043 0340 	orr.w	r3, r3, #64	; 0x40
 8002fd2:	81a3      	strh	r3, [r4, #12]
 8002fd4:	f04f 30ff 	mov.w	r0, #4294967295
 8002fd8:	e8bd 87f0 	ldmia.w	sp!, {r4, r5, r6, r7, r8, r9, sl, pc}
 8002fdc:	6921      	ldr	r1, [r4, #16]
 8002fde:	464a      	mov	r2, r9
 8002fe0:	f000 ff0e 	bl	8003e00 <memcpy>
 8002fe4:	89a3      	ldrh	r3, [r4, #12]
 8002fe6:	f423 6390 	bic.w	r3, r3, #1152	; 0x480
 8002fea:	f043 0380 	orr.w	r3, r3, #128	; 0x80
 8002fee:	81a3      	strh	r3, [r4, #12]
 8002ff0:	6126      	str	r6, [r4, #16]
 8002ff2:	6165      	str	r5, [r4, #20]
 8002ff4:	444e      	add	r6, r9
 8002ff6:	eba5 0509 	sub.w	r5, r5, r9
 8002ffa:	6026      	str	r6, [r4, #0]
 8002ffc:	60a5      	str	r5, [r4, #8]
 8002ffe:	463e      	mov	r6, r7
 8003000:	42be      	cmp	r6, r7
 8003002:	d900      	bls.n	8003006 <__ssputs_r+0x86>
 8003004:	463e      	mov	r6, r7
 8003006:	4632      	mov	r2, r6
 8003008:	6820      	ldr	r0, [r4, #0]
 800300a:	4641      	mov	r1, r8
 800300c:	f000 ff06 	bl	8003e1c <memmove>
 8003010:	68a3      	ldr	r3, [r4, #8]
 8003012:	6822      	ldr	r2, [r4, #0]
 8003014:	1b9b      	subs	r3, r3, r6
 8003016:	4432      	add	r2, r6
 8003018:	60a3      	str	r3, [r4, #8]
 800301a:	6022      	str	r2, [r4, #0]
 800301c:	2000      	movs	r0, #0
 800301e:	e7db      	b.n	8002fd8 <__ssputs_r+0x58>
 8003020:	462a      	mov	r2, r5
 8003022:	f000 ff21 	bl	8003e68 <_realloc_r>
 8003026:	4606      	mov	r6, r0
 8003028:	2800      	cmp	r0, #0
 800302a:	d1e1      	bne.n	8002ff0 <__ssputs_r+0x70>
 800302c:	6921      	ldr	r1, [r4, #16]
 800302e:	4650      	mov	r0, sl
 8003030:	f7ff fefc 	bl	8002e2c <_free_r>
 8003034:	e7c7      	b.n	8002fc6 <__ssputs_r+0x46>
	...

08003038 <_svfiprintf_r>:
 8003038:	e92d 4ff0 	stmdb	sp!, {r4, r5, r6, r7, r8, r9, sl, fp, lr}
 800303c:	4698      	mov	r8, r3
 800303e:	898b      	ldrh	r3, [r1, #12]
 8003040:	061b      	lsls	r3, r3, #24
 8003042:	b09d      	sub	sp, #116	; 0x74
 8003044:	4607      	mov	r7, r0
 8003046:	460d      	mov	r5, r1
 8003048:	4614      	mov	r4, r2
 800304a:	d50e      	bpl.n	800306a <_svfiprintf_r+0x32>
 800304c:	690b      	ldr	r3, [r1, #16]
 800304e:	b963      	cbnz	r3, 800306a <_svfiprintf_r+0x32>
 8003050:	2140      	movs	r1, #64	; 0x40
 8003052:	f7ff ff3b 	bl	8002ecc <_malloc_r>
 8003056:	6028      	str	r0, [r5, #0]
 8003058:	6128      	str	r0, [r5, #16]
 800305a:	b920      	cbnz	r0, 8003066 <_svfiprintf_r+0x2e>
 800305c:	230c      	movs	r3, #12
 800305e:	603b      	str	r3, [r7, #0]
 8003060:	f04f 30ff 	mov.w	r0, #4294967295
 8003064:	e0d1      	b.n	800320a <_svfiprintf_r+0x1d2>
 8003066:	2340      	movs	r3, #64	; 0x40
 8003068:	616b      	str	r3, [r5, #20]
 800306a:	2300      	movs	r3, #0
 800306c:	9309      	str	r3, [sp, #36]	; 0x24
 800306e:	2320      	movs	r3, #32
 8003070:	f88d 3029 	strb.w	r3, [sp, #41]	; 0x29
 8003074:	f8cd 800c 	str.w	r8, [sp, #12]
 8003078:	2330      	movs	r3, #48	; 0x30
 800307a:	f8df 81a8 	ldr.w	r8, [pc, #424]	; 8003224 <_svfiprintf_r+0x1ec>
 800307e:	f88d 302a 	strb.w	r3, [sp, #42]	; 0x2a
 8003082:	f04f 0901 	mov.w	r9, #1
 8003086:	4623      	mov	r3, r4
 8003088:	469a      	mov	sl, r3
 800308a:	f813 2b01 	ldrb.w	r2, [r3], #1
 800308e:	b10a      	cbz	r2, 8003094 <_svfiprintf_r+0x5c>
 8003090:	2a25      	cmp	r2, #37	; 0x25
 8003092:	d1f9      	bne.n	8003088 <_svfiprintf_r+0x50>
 8003094:	ebba 0b04 	subs.w	fp, sl, r4
 8003098:	d00b      	beq.n	80030b2 <_svfiprintf_r+0x7a>
 800309a:	465b      	mov	r3, fp
 800309c:	4622      	mov	r2, r4
 800309e:	4629      	mov	r1, r5
 80030a0:	4638      	mov	r0, r7
 80030a2:	f7ff ff6d 	bl	8002f80 <__ssputs_r>
 80030a6:	3001      	adds	r0, #1
 80030a8:	f000 80aa 	beq.w	8003200 <_svfiprintf_r+0x1c8>
 80030ac:	9a09      	ldr	r2, [sp, #36]	; 0x24
 80030ae:	445a      	add	r2, fp
 80030b0:	9209      	str	r2, [sp, #36]	; 0x24
 80030b2:	f89a 3000 	ldrb.w	r3, [sl]
 80030b6:	2b00      	cmp	r3, #0
 80030b8:	f000 80a2 	beq.w	8003200 <_svfiprintf_r+0x1c8>
 80030bc:	2300      	movs	r3, #0
 80030be:	f04f 32ff 	mov.w	r2, #4294967295
 80030c2:	e9cd 2305 	strd	r2, r3, [sp, #20]
 80030c6:	f10a 0a01 	add.w	sl, sl, #1
 80030ca:	9304      	str	r3, [sp, #16]
 80030cc:	9307      	str	r3, [sp, #28]
 80030ce:	f88d 3053 	strb.w	r3, [sp, #83]	; 0x53
 80030d2:	931a      	str	r3, [sp, #104]	; 0x68
 80030d4:	4654      	mov	r4, sl
 80030d6:	2205      	movs	r2, #5
 80030d8:	f814 1b01 	ldrb.w	r1, [r4], #1
 80030dc:	4851      	ldr	r0, [pc, #324]	; (8003224 <_svfiprintf_r+0x1ec>)
 80030de:	f7fd f88f 	bl	8000200 <memchr>
 80030e2:	9a04      	ldr	r2, [sp, #16]
 80030e4:	b9d8      	cbnz	r0, 800311e <_svfiprintf_r+0xe6>
 80030e6:	06d0      	lsls	r0, r2, #27
 80030e8:	bf44      	itt	mi
 80030ea:	2320      	movmi	r3, #32
 80030ec:	f88d 3053 	strbmi.w	r3, [sp, #83]	; 0x53
 80030f0:	0711      	lsls	r1, r2, #28
 80030f2:	bf44      	itt	mi
 80030f4:	232b      	movmi	r3, #43	; 0x2b
 80030f6:	f88d 3053 	strbmi.w	r3, [sp, #83]	; 0x53
 80030fa:	f89a 3000 	ldrb.w	r3, [sl]
 80030fe:	2b2a      	cmp	r3, #42	; 0x2a
 8003100:	d015      	beq.n	800312e <_svfiprintf_r+0xf6>
 8003102:	9a07      	ldr	r2, [sp, #28]
 8003104:	4654      	mov	r4, sl
 8003106:	2000      	movs	r0, #0
 8003108:	f04f 0c0a 	mov.w	ip, #10
 800310c:	4621      	mov	r1, r4
 800310e:	f811 3b01 	ldrb.w	r3, [r1], #1
 8003112:	3b30      	subs	r3, #48	; 0x30
 8003114:	2b09      	cmp	r3, #9
 8003116:	d94e      	bls.n	80031b6 <_svfiprintf_r+0x17e>
 8003118:	b1b0      	cbz	r0, 8003148 <_svfiprintf_r+0x110>
 800311a:	9207      	str	r2, [sp, #28]
 800311c:	e014      	b.n	8003148 <_svfiprintf_r+0x110>
 800311e:	eba0 0308 	sub.w	r3, r0, r8
 8003122:	fa09 f303 	lsl.w	r3, r9, r3
 8003126:	4313      	orrs	r3, r2
 8003128:	9304      	str	r3, [sp, #16]
 800312a:	46a2      	mov	sl, r4
 800312c:	e7d2      	b.n	80030d4 <_svfiprintf_r+0x9c>
 800312e:	9b03      	ldr	r3, [sp, #12]
 8003130:	1d19      	adds	r1, r3, #4
 8003132:	681b      	ldr	r3, [r3, #0]
 8003134:	9103      	str	r1, [sp, #12]
 8003136:	2b00      	cmp	r3, #0
 8003138:	bfbb      	ittet	lt
 800313a:	425b      	neglt	r3, r3
 800313c:	f042 0202 	orrlt.w	r2, r2, #2
 8003140:	9307      	strge	r3, [sp, #28]
 8003142:	9307      	strlt	r3, [sp, #28]
 8003144:	bfb8      	it	lt
 8003146:	9204      	strlt	r2, [sp, #16]
 8003148:	7823      	ldrb	r3, [r4, #0]
 800314a:	2b2e      	cmp	r3, #46	; 0x2e
 800314c:	d10c      	bne.n	8003168 <_svfiprintf_r+0x130>
 800314e:	7863      	ldrb	r3, [r4, #1]
 8003150:	2b2a      	cmp	r3, #42	; 0x2a
 8003152:	d135      	bne.n	80031c0 <_svfiprintf_r+0x188>
 8003154:	9b03      	ldr	r3, [sp, #12]
 8003156:	1d1a      	adds	r2, r3, #4
 8003158:	681b      	ldr	r3, [r3, #0]
 800315a:	9203      	str	r2, [sp, #12]
 800315c:	2b00      	cmp	r3, #0
 800315e:	bfb8      	it	lt
 8003160:	f04f 33ff 	movlt.w	r3, #4294967295
 8003164:	3402      	adds	r4, #2
 8003166:	9305      	str	r3, [sp, #20]
 8003168:	f8df a0c8 	ldr.w	sl, [pc, #200]	; 8003234 <_svfiprintf_r+0x1fc>
 800316c:	7821      	ldrb	r1, [r4, #0]
 800316e:	2203      	movs	r2, #3
 8003170:	4650      	mov	r0, sl
 8003172:	f7fd f845 	bl	8000200 <memchr>
 8003176:	b140      	cbz	r0, 800318a <_svfiprintf_r+0x152>
 8003178:	2340      	movs	r3, #64	; 0x40
 800317a:	eba0 000a 	sub.w	r0, r0, sl
 800317e:	fa03 f000 	lsl.w	r0, r3, r0
 8003182:	9b04      	ldr	r3, [sp, #16]
 8003184:	4303      	orrs	r3, r0
 8003186:	3401      	adds	r4, #1
 8003188:	9304      	str	r3, [sp, #16]
 800318a:	f814 1b01 	ldrb.w	r1, [r4], #1
 800318e:	4826      	ldr	r0, [pc, #152]	; (8003228 <_svfiprintf_r+0x1f0>)
 8003190:	f88d 1028 	strb.w	r1, [sp, #40]	; 0x28
 8003194:	2206      	movs	r2, #6
 8003196:	f7fd f833 	bl	8000200 <memchr>
 800319a:	2800      	cmp	r0, #0
 800319c:	d038      	beq.n	8003210 <_svfiprintf_r+0x1d8>
 800319e:	4b23      	ldr	r3, [pc, #140]	; (800322c <_svfiprintf_r+0x1f4>)
 80031a0:	bb1b      	cbnz	r3, 80031ea <_svfiprintf_r+0x1b2>
 80031a2:	9b03      	ldr	r3, [sp, #12]
 80031a4:	3307      	adds	r3, #7
 80031a6:	f023 0307 	bic.w	r3, r3, #7
 80031aa:	3308      	adds	r3, #8
 80031ac:	9303      	str	r3, [sp, #12]
 80031ae:	9b09      	ldr	r3, [sp, #36]	; 0x24
 80031b0:	4433      	add	r3, r6
 80031b2:	9309      	str	r3, [sp, #36]	; 0x24
 80031b4:	e767      	b.n	8003086 <_svfiprintf_r+0x4e>
 80031b6:	fb0c 3202 	mla	r2, ip, r2, r3
 80031ba:	460c      	mov	r4, r1
 80031bc:	2001      	movs	r0, #1
 80031be:	e7a5      	b.n	800310c <_svfiprintf_r+0xd4>
 80031c0:	2300      	movs	r3, #0
 80031c2:	3401      	adds	r4, #1
 80031c4:	9305      	str	r3, [sp, #20]
 80031c6:	4619      	mov	r1, r3
 80031c8:	f04f 0c0a 	mov.w	ip, #10
 80031cc:	4620      	mov	r0, r4
 80031ce:	f810 2b01 	ldrb.w	r2, [r0], #1
 80031d2:	3a30      	subs	r2, #48	; 0x30
 80031d4:	2a09      	cmp	r2, #9
 80031d6:	d903      	bls.n	80031e0 <_svfiprintf_r+0x1a8>
 80031d8:	2b00      	cmp	r3, #0
 80031da:	d0c5      	beq.n	8003168 <_svfiprintf_r+0x130>
 80031dc:	9105      	str	r1, [sp, #20]
 80031de:	e7c3      	b.n	8003168 <_svfiprintf_r+0x130>
 80031e0:	fb0c 2101 	mla	r1, ip, r1, r2
 80031e4:	4604      	mov	r4, r0
 80031e6:	2301      	movs	r3, #1
 80031e8:	e7f0      	b.n	80031cc <_svfiprintf_r+0x194>
 80031ea:	ab03      	add	r3, sp, #12
 80031ec:	9300      	str	r3, [sp, #0]
 80031ee:	462a      	mov	r2, r5
 80031f0:	4b0f      	ldr	r3, [pc, #60]	; (8003230 <_svfiprintf_r+0x1f8>)
 80031f2:	a904      	add	r1, sp, #16
 80031f4:	4638      	mov	r0, r7
 80031f6:	f3af 8000 	nop.w
 80031fa:	1c42      	adds	r2, r0, #1
 80031fc:	4606      	mov	r6, r0
 80031fe:	d1d6      	bne.n	80031ae <_svfiprintf_r+0x176>
 8003200:	89ab      	ldrh	r3, [r5, #12]
 8003202:	065b      	lsls	r3, r3, #25
 8003204:	f53f af2c 	bmi.w	8003060 <_svfiprintf_r+0x28>
 8003208:	9809      	ldr	r0, [sp, #36]	; 0x24
 800320a:	b01d      	add	sp, #116	; 0x74
 800320c:	e8bd 8ff0 	ldmia.w	sp!, {r4, r5, r6, r7, r8, r9, sl, fp, pc}
 8003210:	ab03      	add	r3, sp, #12
 8003212:	9300      	str	r3, [sp, #0]
 8003214:	462a      	mov	r2, r5
 8003216:	4b06      	ldr	r3, [pc, #24]	; (8003230 <_svfiprintf_r+0x1f8>)
 8003218:	a904      	add	r1, sp, #16
 800321a:	4638      	mov	r0, r7
 800321c:	f000 f9d4 	bl	80035c8 <_printf_i>
 8003220:	e7eb      	b.n	80031fa <_svfiprintf_r+0x1c2>
 8003222:	bf00      	nop
 8003224:	0800427c 	.word	0x0800427c
 8003228:	08004286 	.word	0x08004286
 800322c:	00000000 	.word	0x00000000
 8003230:	08002f81 	.word	0x08002f81
 8003234:	08004282 	.word	0x08004282

08003238 <__sfputc_r>:
 8003238:	6893      	ldr	r3, [r2, #8]
 800323a:	3b01      	subs	r3, #1
 800323c:	2b00      	cmp	r3, #0
 800323e:	b410      	push	{r4}
 8003240:	6093      	str	r3, [r2, #8]
 8003242:	da08      	bge.n	8003256 <__sfputc_r+0x1e>
 8003244:	6994      	ldr	r4, [r2, #24]
 8003246:	42a3      	cmp	r3, r4
 8003248:	db01      	blt.n	800324e <__sfputc_r+0x16>
 800324a:	290a      	cmp	r1, #10
 800324c:	d103      	bne.n	8003256 <__sfputc_r+0x1e>
 800324e:	f85d 4b04 	ldr.w	r4, [sp], #4
 8003252:	f000 baef 	b.w	8003834 <__swbuf_r>
 8003256:	6813      	ldr	r3, [r2, #0]
 8003258:	1c58      	adds	r0, r3, #1
 800325a:	6010      	str	r0, [r2, #0]
 800325c:	7019      	strb	r1, [r3, #0]
 800325e:	4608      	mov	r0, r1
 8003260:	f85d 4b04 	ldr.w	r4, [sp], #4
 8003264:	4770      	bx	lr

08003266 <__sfputs_r>:
 8003266:	b5f8      	push	{r3, r4, r5, r6, r7, lr}
 8003268:	4606      	mov	r6, r0
 800326a:	460f      	mov	r7, r1
 800326c:	4614      	mov	r4, r2
 800326e:	18d5      	adds	r5, r2, r3
 8003270:	42ac      	cmp	r4, r5
 8003272:	d101      	bne.n	8003278 <__sfputs_r+0x12>
 8003274:	2000      	movs	r0, #0
 8003276:	e007      	b.n	8003288 <__sfputs_r+0x22>
 8003278:	f814 1b01 	ldrb.w	r1, [r4], #1
 800327c:	463a      	mov	r2, r7
 800327e:	4630      	mov	r0, r6
 8003280:	f7ff ffda 	bl	8003238 <__sfputc_r>
 8003284:	1c43      	adds	r3, r0, #1
 8003286:	d1f3      	bne.n	8003270 <__sfputs_r+0xa>
 8003288:	bdf8      	pop	{r3, r4, r5, r6, r7, pc}
	...

0800328c <_vfiprintf_r>:
 800328c:	e92d 4ff0 	stmdb	sp!, {r4, r5, r6, r7, r8, r9, sl, fp, lr}
 8003290:	460d      	mov	r5, r1
 8003292:	b09d      	sub	sp, #116	; 0x74
 8003294:	4614      	mov	r4, r2
 8003296:	4698      	mov	r8, r3
 8003298:	4606      	mov	r6, r0
 800329a:	b118      	cbz	r0, 80032a4 <_vfiprintf_r+0x18>
 800329c:	6983      	ldr	r3, [r0, #24]
 800329e:	b90b      	cbnz	r3, 80032a4 <_vfiprintf_r+0x18>
 80032a0:	f000 fcaa 	bl	8003bf8 <__sinit>
 80032a4:	4b89      	ldr	r3, [pc, #548]	; (80034cc <_vfiprintf_r+0x240>)
 80032a6:	429d      	cmp	r5, r3
 80032a8:	d11b      	bne.n	80032e2 <_vfiprintf_r+0x56>
 80032aa:	6875      	ldr	r5, [r6, #4]
 80032ac:	6e6b      	ldr	r3, [r5, #100]	; 0x64
 80032ae:	07d9      	lsls	r1, r3, #31
 80032b0:	d405      	bmi.n	80032be <_vfiprintf_r+0x32>
 80032b2:	89ab      	ldrh	r3, [r5, #12]
 80032b4:	059a      	lsls	r2, r3, #22
 80032b6:	d402      	bmi.n	80032be <_vfiprintf_r+0x32>
 80032b8:	6da8      	ldr	r0, [r5, #88]	; 0x58
 80032ba:	f000 fd3b 	bl	8003d34 <__retarget_lock_acquire_recursive>
 80032be:	89ab      	ldrh	r3, [r5, #12]
 80032c0:	071b      	lsls	r3, r3, #28
 80032c2:	d501      	bpl.n	80032c8 <_vfiprintf_r+0x3c>
 80032c4:	692b      	ldr	r3, [r5, #16]
 80032c6:	b9eb      	cbnz	r3, 8003304 <_vfiprintf_r+0x78>
 80032c8:	4629      	mov	r1, r5
 80032ca:	4630      	mov	r0, r6
 80032cc:	f000 fb04 	bl	80038d8 <__swsetup_r>
 80032d0:	b1c0      	cbz	r0, 8003304 <_vfiprintf_r+0x78>
 80032d2:	6e6b      	ldr	r3, [r5, #100]	; 0x64
 80032d4:	07dc      	lsls	r4, r3, #31
 80032d6:	d50e      	bpl.n	80032f6 <_vfiprintf_r+0x6a>
 80032d8:	f04f 30ff 	mov.w	r0, #4294967295
 80032dc:	b01d      	add	sp, #116	; 0x74
 80032de:	e8bd 8ff0 	ldmia.w	sp!, {r4, r5, r6, r7, r8, r9, sl, fp, pc}
 80032e2:	4b7b      	ldr	r3, [pc, #492]	; (80034d0 <_vfiprintf_r+0x244>)
 80032e4:	429d      	cmp	r5, r3
 80032e6:	d101      	bne.n	80032ec <_vfiprintf_r+0x60>
 80032e8:	68b5      	ldr	r5, [r6, #8]
 80032ea:	e7df      	b.n	80032ac <_vfiprintf_r+0x20>
 80032ec:	4b79      	ldr	r3, [pc, #484]	; (80034d4 <_vfiprintf_r+0x248>)
 80032ee:	429d      	cmp	r5, r3
 80032f0:	bf08      	it	eq
 80032f2:	68f5      	ldreq	r5, [r6, #12]
 80032f4:	e7da      	b.n	80032ac <_vfiprintf_r+0x20>
 80032f6:	89ab      	ldrh	r3, [r5, #12]
 80032f8:	0598      	lsls	r0, r3, #22
 80032fa:	d4ed      	bmi.n	80032d8 <_vfiprintf_r+0x4c>
 80032fc:	6da8      	ldr	r0, [r5, #88]	; 0x58
 80032fe:	f000 fd1a 	bl	8003d36 <__retarget_lock_release_recursive>
 8003302:	e7e9      	b.n	80032d8 <_vfiprintf_r+0x4c>
 8003304:	2300      	movs	r3, #0
 8003306:	9309      	str	r3, [sp, #36]	; 0x24
 8003308:	2320      	movs	r3, #32
 800330a:	f88d 3029 	strb.w	r3, [sp, #41]	; 0x29
 800330e:	f8cd 800c 	str.w	r8, [sp, #12]
 8003312:	2330      	movs	r3, #48	; 0x30
 8003314:	f8df 81c0 	ldr.w	r8, [pc, #448]	; 80034d8 <_vfiprintf_r+0x24c>
 8003318:	f88d 302a 	strb.w	r3, [sp, #42]	; 0x2a
 800331c:	f04f 0901 	mov.w	r9, #1
 8003320:	4623      	mov	r3, r4
 8003322:	469a      	mov	sl, r3
 8003324:	f813 2b01 	ldrb.w	r2, [r3], #1
 8003328:	b10a      	cbz	r2, 800332e <_vfiprintf_r+0xa2>
 800332a:	2a25      	cmp	r2, #37	; 0x25
 800332c:	d1f9      	bne.n	8003322 <_vfiprintf_r+0x96>
 800332e:	ebba 0b04 	subs.w	fp, sl, r4
 8003332:	d00b      	beq.n	800334c <_vfiprintf_r+0xc0>
 8003334:	465b      	mov	r3, fp
 8003336:	4622      	mov	r2, r4
 8003338:	4629      	mov	r1, r5
 800333a:	4630      	mov	r0, r6
 800333c:	f7ff ff93 	bl	8003266 <__sfputs_r>
 8003340:	3001      	adds	r0, #1
 8003342:	f000 80aa 	beq.w	800349a <_vfiprintf_r+0x20e>
 8003346:	9a09      	ldr	r2, [sp, #36]	; 0x24
 8003348:	445a      	add	r2, fp
 800334a:	9209      	str	r2, [sp, #36]	; 0x24
 800334c:	f89a 3000 	ldrb.w	r3, [sl]
 8003350:	2b00      	cmp	r3, #0
 8003352:	f000 80a2 	beq.w	800349a <_vfiprintf_r+0x20e>
 8003356:	2300      	movs	r3, #0
 8003358:	f04f 32ff 	mov.w	r2, #4294967295
 800335c:	e9cd 2305 	strd	r2, r3, [sp, #20]
 8003360:	f10a 0a01 	add.w	sl, sl, #1
 8003364:	9304      	str	r3, [sp, #16]
 8003366:	9307      	str	r3, [sp, #28]
 8003368:	f88d 3053 	strb.w	r3, [sp, #83]	; 0x53
 800336c:	931a      	str	r3, [sp, #104]	; 0x68
 800336e:	4654      	mov	r4, sl
 8003370:	2205      	movs	r2, #5
 8003372:	f814 1b01 	ldrb.w	r1, [r4], #1
 8003376:	4858      	ldr	r0, [pc, #352]	; (80034d8 <_vfiprintf_r+0x24c>)
 8003378:	f7fc ff42 	bl	8000200 <memchr>
 800337c:	9a04      	ldr	r2, [sp, #16]
 800337e:	b9d8      	cbnz	r0, 80033b8 <_vfiprintf_r+0x12c>
 8003380:	06d1      	lsls	r1, r2, #27
 8003382:	bf44      	itt	mi
 8003384:	2320      	movmi	r3, #32
 8003386:	f88d 3053 	strbmi.w	r3, [sp, #83]	; 0x53
 800338a:	0713      	lsls	r3, r2, #28
 800338c:	bf44      	itt	mi
 800338e:	232b      	movmi	r3, #43	; 0x2b
 8003390:	f88d 3053 	strbmi.w	r3, [sp, #83]	; 0x53
 8003394:	f89a 3000 	ldrb.w	r3, [sl]
 8003398:	2b2a      	cmp	r3, #42	; 0x2a
 800339a:	d015      	beq.n	80033c8 <_vfiprintf_r+0x13c>
 800339c:	9a07      	ldr	r2, [sp, #28]
 800339e:	4654      	mov	r4, sl
 80033a0:	2000      	movs	r0, #0
 80033a2:	f04f 0c0a 	mov.w	ip, #10
 80033a6:	4621      	mov	r1, r4
 80033a8:	f811 3b01 	ldrb.w	r3, [r1], #1
 80033ac:	3b30      	subs	r3, #48	; 0x30
 80033ae:	2b09      	cmp	r3, #9
 80033b0:	d94e      	bls.n	8003450 <_vfiprintf_r+0x1c4>
 80033b2:	b1b0      	cbz	r0, 80033e2 <_vfiprintf_r+0x156>
 80033b4:	9207      	str	r2, [sp, #28]
 80033b6:	e014      	b.n	80033e2 <_vfiprintf_r+0x156>
 80033b8:	eba0 0308 	sub.w	r3, r0, r8
 80033bc:	fa09 f303 	lsl.w	r3, r9, r3
 80033c0:	4313      	orrs	r3, r2
 80033c2:	9304      	str	r3, [sp, #16]
 80033c4:	46a2      	mov	sl, r4
 80033c6:	e7d2      	b.n	800336e <_vfiprintf_r+0xe2>
 80033c8:	9b03      	ldr	r3, [sp, #12]
 80033ca:	1d19      	adds	r1, r3, #4
 80033cc:	681b      	ldr	r3, [r3, #0]
 80033ce:	9103      	str	r1, [sp, #12]
 80033d0:	2b00      	cmp	r3, #0
 80033d2:	bfbb      	ittet	lt
 80033d4:	425b      	neglt	r3, r3
 80033d6:	f042 0202 	orrlt.w	r2, r2, #2
 80033da:	9307      	strge	r3, [sp, #28]
 80033dc:	9307      	strlt	r3, [sp, #28]
 80033de:	bfb8      	it	lt
 80033e0:	9204      	strlt	r2, [sp, #16]
 80033e2:	7823      	ldrb	r3, [r4, #0]
 80033e4:	2b2e      	cmp	r3, #46	; 0x2e
 80033e6:	d10c      	bne.n	8003402 <_vfiprintf_r+0x176>
 80033e8:	7863      	ldrb	r3, [r4, #1]
 80033ea:	2b2a      	cmp	r3, #42	; 0x2a
 80033ec:	d135      	bne.n	800345a <_vfiprintf_r+0x1ce>
 80033ee:	9b03      	ldr	r3, [sp, #12]
 80033f0:	1d1a      	adds	r2, r3, #4
 80033f2:	681b      	ldr	r3, [r3, #0]
 80033f4:	9203      	str	r2, [sp, #12]
 80033f6:	2b00      	cmp	r3, #0
 80033f8:	bfb8      	it	lt
 80033fa:	f04f 33ff 	movlt.w	r3, #4294967295
 80033fe:	3402      	adds	r4, #2
 8003400:	9305      	str	r3, [sp, #20]
 8003402:	f8df a0e4 	ldr.w	sl, [pc, #228]	; 80034e8 <_vfiprintf_r+0x25c>
 8003406:	7821      	ldrb	r1, [r4, #0]
 8003408:	2203      	movs	r2, #3
 800340a:	4650      	mov	r0, sl
 800340c:	f7fc fef8 	bl	8000200 <memchr>
 8003410:	b140      	cbz	r0, 8003424 <_vfiprintf_r+0x198>
 8003412:	2340      	movs	r3, #64	; 0x40
 8003414:	eba0 000a 	sub.w	r0, r0, sl
 8003418:	fa03 f000 	lsl.w	r0, r3, r0
 800341c:	9b04      	ldr	r3, [sp, #16]
 800341e:	4303      	orrs	r3, r0
 8003420:	3401      	adds	r4, #1
 8003422:	9304      	str	r3, [sp, #16]
 8003424:	f814 1b01 	ldrb.w	r1, [r4], #1
 8003428:	482c      	ldr	r0, [pc, #176]	; (80034dc <_vfiprintf_r+0x250>)
 800342a:	f88d 1028 	strb.w	r1, [sp, #40]	; 0x28
 800342e:	2206      	movs	r2, #6
 8003430:	f7fc fee6 	bl	8000200 <memchr>
 8003434:	2800      	cmp	r0, #0
 8003436:	d03f      	beq.n	80034b8 <_vfiprintf_r+0x22c>
 8003438:	4b29      	ldr	r3, [pc, #164]	; (80034e0 <_vfiprintf_r+0x254>)
 800343a:	bb1b      	cbnz	r3, 8003484 <_vfiprintf_r+0x1f8>
 800343c:	9b03      	ldr	r3, [sp, #12]
 800343e:	3307      	adds	r3, #7
 8003440:	f023 0307 	bic.w	r3, r3, #7
 8003444:	3308      	adds	r3, #8
 8003446:	9303      	str	r3, [sp, #12]
 8003448:	9b09      	ldr	r3, [sp, #36]	; 0x24
 800344a:	443b      	add	r3, r7
 800344c:	9309      	str	r3, [sp, #36]	; 0x24
 800344e:	e767      	b.n	8003320 <_vfiprintf_r+0x94>
 8003450:	fb0c 3202 	mla	r2, ip, r2, r3
 8003454:	460c      	mov	r4, r1
 8003456:	2001      	movs	r0, #1
 8003458:	e7a5      	b.n	80033a6 <_vfiprintf_r+0x11a>
 800345a:	2300      	movs	r3, #0
 800345c:	3401      	adds	r4, #1
 800345e:	9305      	str	r3, [sp, #20]
 8003460:	4619      	mov	r1, r3
 8003462:	f04f 0c0a 	mov.w	ip, #10
 8003466:	4620      	mov	r0, r4
 8003468:	f810 2b01 	ldrb.w	r2, [r0], #1
 800346c:	3a30      	subs	r2, #48	; 0x30
 800346e:	2a09      	cmp	r2, #9
 8003470:	d903      	bls.n	800347a <_vfiprintf_r+0x1ee>
 8003472:	2b00      	cmp	r3, #0
 8003474:	d0c5      	beq.n	8003402 <_vfiprintf_r+0x176>
 8003476:	9105      	str	r1, [sp, #20]
 8003478:	e7c3      	b.n	8003402 <_vfiprintf_r+0x176>
 800347a:	fb0c 2101 	mla	r1, ip, r1, r2
 800347e:	4604      	mov	r4, r0
 8003480:	2301      	movs	r3, #1
 8003482:	e7f0      	b.n	8003466 <_vfiprintf_r+0x1da>
 8003484:	ab03      	add	r3, sp, #12
 8003486:	9300      	str	r3, [sp, #0]
 8003488:	462a      	mov	r2, r5
 800348a:	4b16      	ldr	r3, [pc, #88]	; (80034e4 <_vfiprintf_r+0x258>)
 800348c:	a904      	add	r1, sp, #16
 800348e:	4630      	mov	r0, r6
 8003490:	f3af 8000 	nop.w
 8003494:	4607      	mov	r7, r0
 8003496:	1c78      	adds	r0, r7, #1
 8003498:	d1d6      	bne.n	8003448 <_vfiprintf_r+0x1bc>
 800349a:	6e6b      	ldr	r3, [r5, #100]	; 0x64
 800349c:	07d9      	lsls	r1, r3, #31
 800349e:	d405      	bmi.n	80034ac <_vfiprintf_r+0x220>
 80034a0:	89ab      	ldrh	r3, [r5, #12]
 80034a2:	059a      	lsls	r2, r3, #22
 80034a4:	d402      	bmi.n	80034ac <_vfiprintf_r+0x220>
 80034a6:	6da8      	ldr	r0, [r5, #88]	; 0x58
 80034a8:	f000 fc45 	bl	8003d36 <__retarget_lock_release_recursive>
 80034ac:	89ab      	ldrh	r3, [r5, #12]
 80034ae:	065b      	lsls	r3, r3, #25
 80034b0:	f53f af12 	bmi.w	80032d8 <_vfiprintf_r+0x4c>
 80034b4:	9809      	ldr	r0, [sp, #36]	; 0x24
 80034b6:	e711      	b.n	80032dc <_vfiprintf_r+0x50>
 80034b8:	ab03      	add	r3, sp, #12
 80034ba:	9300      	str	r3, [sp, #0]
 80034bc:	462a      	mov	r2, r5
 80034be:	4b09      	ldr	r3, [pc, #36]	; (80034e4 <_vfiprintf_r+0x258>)
 80034c0:	a904      	add	r1, sp, #16
 80034c2:	4630      	mov	r0, r6
 80034c4:	f000 f880 	bl	80035c8 <_printf_i>
 80034c8:	e7e4      	b.n	8003494 <_vfiprintf_r+0x208>
 80034ca:	bf00      	nop
 80034cc:	080042d0 	.word	0x080042d0
 80034d0:	080042f0 	.word	0x080042f0
 80034d4:	080042b0 	.word	0x080042b0
 80034d8:	0800427c 	.word	0x0800427c
 80034dc:	08004286 	.word	0x08004286
 80034e0:	00000000 	.word	0x00000000
 80034e4:	08003267 	.word	0x08003267
 80034e8:	08004282 	.word	0x08004282

080034ec <_printf_common>:
 80034ec:	e92d 47f0 	stmdb	sp!, {r4, r5, r6, r7, r8, r9, sl, lr}
 80034f0:	4616      	mov	r6, r2
 80034f2:	4699      	mov	r9, r3
 80034f4:	688a      	ldr	r2, [r1, #8]
 80034f6:	690b      	ldr	r3, [r1, #16]
 80034f8:	f8dd 8020 	ldr.w	r8, [sp, #32]
 80034fc:	4293      	cmp	r3, r2
 80034fe:	bfb8      	it	lt
 8003500:	4613      	movlt	r3, r2
 8003502:	6033      	str	r3, [r6, #0]
 8003504:	f891 2043 	ldrb.w	r2, [r1, #67]	; 0x43
 8003508:	4607      	mov	r7, r0
 800350a:	460c      	mov	r4, r1
 800350c:	b10a      	cbz	r2, 8003512 <_printf_common+0x26>
 800350e:	3301      	adds	r3, #1
 8003510:	6033      	str	r3, [r6, #0]
 8003512:	6823      	ldr	r3, [r4, #0]
 8003514:	0699      	lsls	r1, r3, #26
 8003516:	bf42      	ittt	mi
 8003518:	6833      	ldrmi	r3, [r6, #0]
 800351a:	3302      	addmi	r3, #2
 800351c:	6033      	strmi	r3, [r6, #0]
 800351e:	6825      	ldr	r5, [r4, #0]
 8003520:	f015 0506 	ands.w	r5, r5, #6
 8003524:	d106      	bne.n	8003534 <_printf_common+0x48>
 8003526:	f104 0a19 	add.w	sl, r4, #25
 800352a:	68e3      	ldr	r3, [r4, #12]
 800352c:	6832      	ldr	r2, [r6, #0]
 800352e:	1a9b      	subs	r3, r3, r2
 8003530:	42ab      	cmp	r3, r5
 8003532:	dc26      	bgt.n	8003582 <_printf_common+0x96>
 8003534:	f894 2043 	ldrb.w	r2, [r4, #67]	; 0x43
 8003538:	1e13      	subs	r3, r2, #0
 800353a:	6822      	ldr	r2, [r4, #0]
 800353c:	bf18      	it	ne
 800353e:	2301      	movne	r3, #1
 8003540:	0692      	lsls	r2, r2, #26
 8003542:	d42b      	bmi.n	800359c <_printf_common+0xb0>
 8003544:	f104 0243 	add.w	r2, r4, #67	; 0x43
 8003548:	4649      	mov	r1, r9
 800354a:	4638      	mov	r0, r7
 800354c:	47c0      	blx	r8
 800354e:	3001      	adds	r0, #1
 8003550:	d01e      	beq.n	8003590 <_printf_common+0xa4>
 8003552:	6823      	ldr	r3, [r4, #0]
 8003554:	68e5      	ldr	r5, [r4, #12]
 8003556:	6832      	ldr	r2, [r6, #0]
 8003558:	f003 0306 	and.w	r3, r3, #6
 800355c:	2b04      	cmp	r3, #4
 800355e:	bf08      	it	eq
 8003560:	1aad      	subeq	r5, r5, r2
 8003562:	68a3      	ldr	r3, [r4, #8]
 8003564:	6922      	ldr	r2, [r4, #16]
 8003566:	bf0c      	ite	eq
 8003568:	ea25 75e5 	biceq.w	r5, r5, r5, asr #31
 800356c:	2500      	movne	r5, #0
 800356e:	4293      	cmp	r3, r2
 8003570:	bfc4      	itt	gt
 8003572:	1a9b      	subgt	r3, r3, r2
 8003574:	18ed      	addgt	r5, r5, r3
 8003576:	2600      	movs	r6, #0
 8003578:	341a      	adds	r4, #26
 800357a:	42b5      	cmp	r5, r6
 800357c:	d11a      	bne.n	80035b4 <_printf_common+0xc8>
 800357e:	2000      	movs	r0, #0
 8003580:	e008      	b.n	8003594 <_printf_common+0xa8>
 8003582:	2301      	movs	r3, #1
 8003584:	4652      	mov	r2, sl
 8003586:	4649      	mov	r1, r9
 8003588:	4638      	mov	r0, r7
 800358a:	47c0      	blx	r8
 800358c:	3001      	adds	r0, #1
 800358e:	d103      	bne.n	8003598 <_printf_common+0xac>
 8003590:	f04f 30ff 	mov.w	r0, #4294967295
 8003594:	e8bd 87f0 	ldmia.w	sp!, {r4, r5, r6, r7, r8, r9, sl, pc}
 8003598:	3501      	adds	r5, #1
 800359a:	e7c6      	b.n	800352a <_printf_common+0x3e>
 800359c:	18e1      	adds	r1, r4, r3
 800359e:	1c5a      	adds	r2, r3, #1
 80035a0:	2030      	movs	r0, #48	; 0x30
 80035a2:	f881 0043 	strb.w	r0, [r1, #67]	; 0x43
 80035a6:	4422      	add	r2, r4
 80035a8:	f894 1045 	ldrb.w	r1, [r4, #69]	; 0x45
 80035ac:	f882 1043 	strb.w	r1, [r2, #67]	; 0x43
 80035b0:	3302      	adds	r3, #2
 80035b2:	e7c7      	b.n	8003544 <_printf_common+0x58>
 80035b4:	2301      	movs	r3, #1
 80035b6:	4622      	mov	r2, r4
 80035b8:	4649      	mov	r1, r9
 80035ba:	4638      	mov	r0, r7
 80035bc:	47c0      	blx	r8
 80035be:	3001      	adds	r0, #1
 80035c0:	d0e6      	beq.n	8003590 <_printf_common+0xa4>
 80035c2:	3601      	adds	r6, #1
 80035c4:	e7d9      	b.n	800357a <_printf_common+0x8e>
	...

080035c8 <_printf_i>:
 80035c8:	e92d 47ff 	stmdb	sp!, {r0, r1, r2, r3, r4, r5, r6, r7, r8, r9, sl, lr}
 80035cc:	460c      	mov	r4, r1
 80035ce:	4691      	mov	r9, r2
 80035d0:	7e27      	ldrb	r7, [r4, #24]
 80035d2:	990c      	ldr	r1, [sp, #48]	; 0x30
 80035d4:	2f78      	cmp	r7, #120	; 0x78
 80035d6:	4680      	mov	r8, r0
 80035d8:	469a      	mov	sl, r3
 80035da:	f104 0243 	add.w	r2, r4, #67	; 0x43
 80035de:	d807      	bhi.n	80035f0 <_printf_i+0x28>
 80035e0:	2f62      	cmp	r7, #98	; 0x62
 80035e2:	d80a      	bhi.n	80035fa <_printf_i+0x32>
 80035e4:	2f00      	cmp	r7, #0
 80035e6:	f000 80d8 	beq.w	800379a <_printf_i+0x1d2>
 80035ea:	2f58      	cmp	r7, #88	; 0x58
 80035ec:	f000 80a3 	beq.w	8003736 <_printf_i+0x16e>
 80035f0:	f104 0642 	add.w	r6, r4, #66	; 0x42
 80035f4:	f884 7042 	strb.w	r7, [r4, #66]	; 0x42
 80035f8:	e03a      	b.n	8003670 <_printf_i+0xa8>
 80035fa:	f1a7 0363 	sub.w	r3, r7, #99	; 0x63
 80035fe:	2b15      	cmp	r3, #21
 8003600:	d8f6      	bhi.n	80035f0 <_printf_i+0x28>
 8003602:	a001      	add	r0, pc, #4	; (adr r0, 8003608 <_printf_i+0x40>)
 8003604:	f850 f023 	ldr.w	pc, [r0, r3, lsl #2]
 8003608:	08003661 	.word	0x08003661
 800360c:	08003675 	.word	0x08003675
 8003610:	080035f1 	.word	0x080035f1
 8003614:	080035f1 	.word	0x080035f1
 8003618:	080035f1 	.word	0x080035f1
 800361c:	080035f1 	.word	0x080035f1
 8003620:	08003675 	.word	0x08003675
 8003624:	080035f1 	.word	0x080035f1
 8003628:	080035f1 	.word	0x080035f1
 800362c:	080035f1 	.word	0x080035f1
 8003630:	080035f1 	.word	0x080035f1
 8003634:	08003781 	.word	0x08003781
 8003638:	080036a5 	.word	0x080036a5
 800363c:	08003763 	.word	0x08003763
 8003640:	080035f1 	.word	0x080035f1
 8003644:	080035f1 	.word	0x080035f1
 8003648:	080037a3 	.word	0x080037a3
 800364c:	080035f1 	.word	0x080035f1
 8003650:	080036a5 	.word	0x080036a5
 8003654:	080035f1 	.word	0x080035f1
 8003658:	080035f1 	.word	0x080035f1
 800365c:	0800376b 	.word	0x0800376b
 8003660:	680b      	ldr	r3, [r1, #0]
 8003662:	1d1a      	adds	r2, r3, #4
 8003664:	681b      	ldr	r3, [r3, #0]
 8003666:	600a      	str	r2, [r1, #0]
 8003668:	f104 0642 	add.w	r6, r4, #66	; 0x42
 800366c:	f884 3042 	strb.w	r3, [r4, #66]	; 0x42
 8003670:	2301      	movs	r3, #1
 8003672:	e0a3      	b.n	80037bc <_printf_i+0x1f4>
 8003674:	6825      	ldr	r5, [r4, #0]
 8003676:	6808      	ldr	r0, [r1, #0]
 8003678:	062e      	lsls	r6, r5, #24
 800367a:	f100 0304 	add.w	r3, r0, #4
 800367e:	d50a      	bpl.n	8003696 <_printf_i+0xce>
 8003680:	6805      	ldr	r5, [r0, #0]
 8003682:	600b      	str	r3, [r1, #0]
 8003684:	2d00      	cmp	r5, #0
 8003686:	da03      	bge.n	8003690 <_printf_i+0xc8>
 8003688:	232d      	movs	r3, #45	; 0x2d
 800368a:	426d      	negs	r5, r5
 800368c:	f884 3043 	strb.w	r3, [r4, #67]	; 0x43
 8003690:	485e      	ldr	r0, [pc, #376]	; (800380c <_printf_i+0x244>)
 8003692:	230a      	movs	r3, #10
 8003694:	e019      	b.n	80036ca <_printf_i+0x102>
 8003696:	f015 0f40 	tst.w	r5, #64	; 0x40
 800369a:	6805      	ldr	r5, [r0, #0]
 800369c:	600b      	str	r3, [r1, #0]
 800369e:	bf18      	it	ne
 80036a0:	b22d      	sxthne	r5, r5
 80036a2:	e7ef      	b.n	8003684 <_printf_i+0xbc>
 80036a4:	680b      	ldr	r3, [r1, #0]
 80036a6:	6825      	ldr	r5, [r4, #0]
 80036a8:	1d18      	adds	r0, r3, #4
 80036aa:	6008      	str	r0, [r1, #0]
 80036ac:	0628      	lsls	r0, r5, #24
 80036ae:	d501      	bpl.n	80036b4 <_printf_i+0xec>
 80036b0:	681d      	ldr	r5, [r3, #0]
 80036b2:	e002      	b.n	80036ba <_printf_i+0xf2>
 80036b4:	0669      	lsls	r1, r5, #25
 80036b6:	d5fb      	bpl.n	80036b0 <_printf_i+0xe8>
 80036b8:	881d      	ldrh	r5, [r3, #0]
 80036ba:	4854      	ldr	r0, [pc, #336]	; (800380c <_printf_i+0x244>)
 80036bc:	2f6f      	cmp	r7, #111	; 0x6f
 80036be:	bf0c      	ite	eq
 80036c0:	2308      	moveq	r3, #8
 80036c2:	230a      	movne	r3, #10
 80036c4:	2100      	movs	r1, #0
 80036c6:	f884 1043 	strb.w	r1, [r4, #67]	; 0x43
 80036ca:	6866      	ldr	r6, [r4, #4]
 80036cc:	60a6      	str	r6, [r4, #8]
 80036ce:	2e00      	cmp	r6, #0
 80036d0:	bfa2      	ittt	ge
 80036d2:	6821      	ldrge	r1, [r4, #0]
 80036d4:	f021 0104 	bicge.w	r1, r1, #4
 80036d8:	6021      	strge	r1, [r4, #0]
 80036da:	b90d      	cbnz	r5, 80036e0 <_printf_i+0x118>
 80036dc:	2e00      	cmp	r6, #0
 80036de:	d04d      	beq.n	800377c <_printf_i+0x1b4>
 80036e0:	4616      	mov	r6, r2
 80036e2:	fbb5 f1f3 	udiv	r1, r5, r3
 80036e6:	fb03 5711 	mls	r7, r3, r1, r5
 80036ea:	5dc7      	ldrb	r7, [r0, r7]
 80036ec:	f806 7d01 	strb.w	r7, [r6, #-1]!
 80036f0:	462f      	mov	r7, r5
 80036f2:	42bb      	cmp	r3, r7
 80036f4:	460d      	mov	r5, r1
 80036f6:	d9f4      	bls.n	80036e2 <_printf_i+0x11a>
 80036f8:	2b08      	cmp	r3, #8
 80036fa:	d10b      	bne.n	8003714 <_printf_i+0x14c>
 80036fc:	6823      	ldr	r3, [r4, #0]
 80036fe:	07df      	lsls	r7, r3, #31
 8003700:	d508      	bpl.n	8003714 <_printf_i+0x14c>
 8003702:	6923      	ldr	r3, [r4, #16]
 8003704:	6861      	ldr	r1, [r4, #4]
 8003706:	4299      	cmp	r1, r3
 8003708:	bfde      	ittt	le
 800370a:	2330      	movle	r3, #48	; 0x30
 800370c:	f806 3c01 	strble.w	r3, [r6, #-1]
 8003710:	f106 36ff 	addle.w	r6, r6, #4294967295
 8003714:	1b92      	subs	r2, r2, r6
 8003716:	6122      	str	r2, [r4, #16]
 8003718:	f8cd a000 	str.w	sl, [sp]
 800371c:	464b      	mov	r3, r9
 800371e:	aa03      	add	r2, sp, #12
 8003720:	4621      	mov	r1, r4
 8003722:	4640      	mov	r0, r8
 8003724:	f7ff fee2 	bl	80034ec <_printf_common>
 8003728:	3001      	adds	r0, #1
 800372a:	d14c      	bne.n	80037c6 <_printf_i+0x1fe>
 800372c:	f04f 30ff 	mov.w	r0, #4294967295
 8003730:	b004      	add	sp, #16
 8003732:	e8bd 87f0 	ldmia.w	sp!, {r4, r5, r6, r7, r8, r9, sl, pc}
 8003736:	4835      	ldr	r0, [pc, #212]	; (800380c <_printf_i+0x244>)
 8003738:	f884 7045 	strb.w	r7, [r4, #69]	; 0x45
 800373c:	6823      	ldr	r3, [r4, #0]
 800373e:	680e      	ldr	r6, [r1, #0]
 8003740:	061f      	lsls	r7, r3, #24
 8003742:	f856 5b04 	ldr.w	r5, [r6], #4
 8003746:	600e      	str	r6, [r1, #0]
 8003748:	d514      	bpl.n	8003774 <_printf_i+0x1ac>
 800374a:	07d9      	lsls	r1, r3, #31
 800374c:	bf44      	itt	mi
 800374e:	f043 0320 	orrmi.w	r3, r3, #32
 8003752:	6023      	strmi	r3, [r4, #0]
 8003754:	b91d      	cbnz	r5, 800375e <_printf_i+0x196>
 8003756:	6823      	ldr	r3, [r4, #0]
 8003758:	f023 0320 	bic.w	r3, r3, #32
 800375c:	6023      	str	r3, [r4, #0]
 800375e:	2310      	movs	r3, #16
 8003760:	e7b0      	b.n	80036c4 <_printf_i+0xfc>
 8003762:	6823      	ldr	r3, [r4, #0]
 8003764:	f043 0320 	orr.w	r3, r3, #32
 8003768:	6023      	str	r3, [r4, #0]
 800376a:	2378      	movs	r3, #120	; 0x78
 800376c:	4828      	ldr	r0, [pc, #160]	; (8003810 <_printf_i+0x248>)
 800376e:	f884 3045 	strb.w	r3, [r4, #69]	; 0x45
 8003772:	e7e3      	b.n	800373c <_printf_i+0x174>
 8003774:	065e      	lsls	r6, r3, #25
 8003776:	bf48      	it	mi
 8003778:	b2ad      	uxthmi	r5, r5
 800377a:	e7e6      	b.n	800374a <_printf_i+0x182>
 800377c:	4616      	mov	r6, r2
 800377e:	e7bb      	b.n	80036f8 <_printf_i+0x130>
 8003780:	680b      	ldr	r3, [r1, #0]
 8003782:	6826      	ldr	r6, [r4, #0]
 8003784:	6960      	ldr	r0, [r4, #20]
 8003786:	1d1d      	adds	r5, r3, #4
 8003788:	600d      	str	r5, [r1, #0]
 800378a:	0635      	lsls	r5, r6, #24
 800378c:	681b      	ldr	r3, [r3, #0]
 800378e:	d501      	bpl.n	8003794 <_printf_i+0x1cc>
 8003790:	6018      	str	r0, [r3, #0]
 8003792:	e002      	b.n	800379a <_printf_i+0x1d2>
 8003794:	0671      	lsls	r1, r6, #25
 8003796:	d5fb      	bpl.n	8003790 <_printf_i+0x1c8>
 8003798:	8018      	strh	r0, [r3, #0]
 800379a:	2300      	movs	r3, #0
 800379c:	6123      	str	r3, [r4, #16]
 800379e:	4616      	mov	r6, r2
 80037a0:	e7ba      	b.n	8003718 <_printf_i+0x150>
 80037a2:	680b      	ldr	r3, [r1, #0]
 80037a4:	1d1a      	adds	r2, r3, #4
 80037a6:	600a      	str	r2, [r1, #0]
 80037a8:	681e      	ldr	r6, [r3, #0]
 80037aa:	6862      	ldr	r2, [r4, #4]
 80037ac:	2100      	movs	r1, #0
 80037ae:	4630      	mov	r0, r6
 80037b0:	f7fc fd26 	bl	8000200 <memchr>
 80037b4:	b108      	cbz	r0, 80037ba <_printf_i+0x1f2>
 80037b6:	1b80      	subs	r0, r0, r6
 80037b8:	6060      	str	r0, [r4, #4]
 80037ba:	6863      	ldr	r3, [r4, #4]
 80037bc:	6123      	str	r3, [r4, #16]
 80037be:	2300      	movs	r3, #0
 80037c0:	f884 3043 	strb.w	r3, [r4, #67]	; 0x43
 80037c4:	e7a8      	b.n	8003718 <_printf_i+0x150>
 80037c6:	6923      	ldr	r3, [r4, #16]
 80037c8:	4632      	mov	r2, r6
 80037ca:	4649      	mov	r1, r9
 80037cc:	4640      	mov	r0, r8
 80037ce:	47d0      	blx	sl
 80037d0:	3001      	adds	r0, #1
 80037d2:	d0ab      	beq.n	800372c <_printf_i+0x164>
 80037d4:	6823      	ldr	r3, [r4, #0]
 80037d6:	079b      	lsls	r3, r3, #30
 80037d8:	d413      	bmi.n	8003802 <_printf_i+0x23a>
 80037da:	68e0      	ldr	r0, [r4, #12]
 80037dc:	9b03      	ldr	r3, [sp, #12]
 80037de:	4298      	cmp	r0, r3
 80037e0:	bfb8      	it	lt
 80037e2:	4618      	movlt	r0, r3
 80037e4:	e7a4      	b.n	8003730 <_printf_i+0x168>
 80037e6:	2301      	movs	r3, #1
 80037e8:	4632      	mov	r2, r6
 80037ea:	4649      	mov	r1, r9
 80037ec:	4640      	mov	r0, r8
 80037ee:	47d0      	blx	sl
 80037f0:	3001      	adds	r0, #1
 80037f2:	d09b      	beq.n	800372c <_printf_i+0x164>
 80037f4:	3501      	adds	r5, #1
 80037f6:	68e3      	ldr	r3, [r4, #12]
 80037f8:	9903      	ldr	r1, [sp, #12]
 80037fa:	1a5b      	subs	r3, r3, r1
 80037fc:	42ab      	cmp	r3, r5
 80037fe:	dcf2      	bgt.n	80037e6 <_printf_i+0x21e>
 8003800:	e7eb      	b.n	80037da <_printf_i+0x212>
 8003802:	2500      	movs	r5, #0
 8003804:	f104 0619 	add.w	r6, r4, #25
 8003808:	e7f5      	b.n	80037f6 <_printf_i+0x22e>
 800380a:	bf00      	nop
 800380c:	0800428d 	.word	0x0800428d
 8003810:	0800429e 	.word	0x0800429e

08003814 <_sbrk_r>:
 8003814:	b538      	push	{r3, r4, r5, lr}
 8003816:	4d06      	ldr	r5, [pc, #24]	; (8003830 <_sbrk_r+0x1c>)
 8003818:	2300      	movs	r3, #0
 800381a:	4604      	mov	r4, r0
 800381c:	4608      	mov	r0, r1
 800381e:	602b      	str	r3, [r5, #0]
 8003820:	f7fd f9ae 	bl	8000b80 <_sbrk>
 8003824:	1c43      	adds	r3, r0, #1
 8003826:	d102      	bne.n	800382e <_sbrk_r+0x1a>
 8003828:	682b      	ldr	r3, [r5, #0]
 800382a:	b103      	cbz	r3, 800382e <_sbrk_r+0x1a>
 800382c:	6023      	str	r3, [r4, #0]
 800382e:	bd38      	pop	{r3, r4, r5, pc}
 8003830:	2001307c 	.word	0x2001307c

08003834 <__swbuf_r>:
 8003834:	b5f8      	push	{r3, r4, r5, r6, r7, lr}
 8003836:	460e      	mov	r6, r1
 8003838:	4614      	mov	r4, r2
 800383a:	4605      	mov	r5, r0
 800383c:	b118      	cbz	r0, 8003846 <__swbuf_r+0x12>
 800383e:	6983      	ldr	r3, [r0, #24]
 8003840:	b90b      	cbnz	r3, 8003846 <__swbuf_r+0x12>
 8003842:	f000 f9d9 	bl	8003bf8 <__sinit>
 8003846:	4b21      	ldr	r3, [pc, #132]	; (80038cc <__swbuf_r+0x98>)
 8003848:	429c      	cmp	r4, r3
 800384a:	d12b      	bne.n	80038a4 <__swbuf_r+0x70>
 800384c:	686c      	ldr	r4, [r5, #4]
 800384e:	69a3      	ldr	r3, [r4, #24]
 8003850:	60a3      	str	r3, [r4, #8]
 8003852:	89a3      	ldrh	r3, [r4, #12]
 8003854:	071a      	lsls	r2, r3, #28
 8003856:	d52f      	bpl.n	80038b8 <__swbuf_r+0x84>
 8003858:	6923      	ldr	r3, [r4, #16]
 800385a:	b36b      	cbz	r3, 80038b8 <__swbuf_r+0x84>
 800385c:	6923      	ldr	r3, [r4, #16]
 800385e:	6820      	ldr	r0, [r4, #0]
 8003860:	1ac0      	subs	r0, r0, r3
 8003862:	6963      	ldr	r3, [r4, #20]
 8003864:	b2f6      	uxtb	r6, r6
 8003866:	4283      	cmp	r3, r0
 8003868:	4637      	mov	r7, r6
 800386a:	dc04      	bgt.n	8003876 <__swbuf_r+0x42>
 800386c:	4621      	mov	r1, r4
 800386e:	4628      	mov	r0, r5
 8003870:	f000 f92e 	bl	8003ad0 <_fflush_r>
 8003874:	bb30      	cbnz	r0, 80038c4 <__swbuf_r+0x90>
 8003876:	68a3      	ldr	r3, [r4, #8]
 8003878:	3b01      	subs	r3, #1
 800387a:	60a3      	str	r3, [r4, #8]
 800387c:	6823      	ldr	r3, [r4, #0]
 800387e:	1c5a      	adds	r2, r3, #1
 8003880:	6022      	str	r2, [r4, #0]
 8003882:	701e      	strb	r6, [r3, #0]
 8003884:	6963      	ldr	r3, [r4, #20]
 8003886:	3001      	adds	r0, #1
 8003888:	4283      	cmp	r3, r0
 800388a:	d004      	beq.n	8003896 <__swbuf_r+0x62>
 800388c:	89a3      	ldrh	r3, [r4, #12]
 800388e:	07db      	lsls	r3, r3, #31
 8003890:	d506      	bpl.n	80038a0 <__swbuf_r+0x6c>
 8003892:	2e0a      	cmp	r6, #10
 8003894:	d104      	bne.n	80038a0 <__swbuf_r+0x6c>
 8003896:	4621      	mov	r1, r4
 8003898:	4628      	mov	r0, r5
 800389a:	f000 f919 	bl	8003ad0 <_fflush_r>
 800389e:	b988      	cbnz	r0, 80038c4 <__swbuf_r+0x90>
 80038a0:	4638      	mov	r0, r7
 80038a2:	bdf8      	pop	{r3, r4, r5, r6, r7, pc}
 80038a4:	4b0a      	ldr	r3, [pc, #40]	; (80038d0 <__swbuf_r+0x9c>)
 80038a6:	429c      	cmp	r4, r3
 80038a8:	d101      	bne.n	80038ae <__swbuf_r+0x7a>
 80038aa:	68ac      	ldr	r4, [r5, #8]
 80038ac:	e7cf      	b.n	800384e <__swbuf_r+0x1a>
 80038ae:	4b09      	ldr	r3, [pc, #36]	; (80038d4 <__swbuf_r+0xa0>)
 80038b0:	429c      	cmp	r4, r3
 80038b2:	bf08      	it	eq
 80038b4:	68ec      	ldreq	r4, [r5, #12]
 80038b6:	e7ca      	b.n	800384e <__swbuf_r+0x1a>
 80038b8:	4621      	mov	r1, r4
 80038ba:	4628      	mov	r0, r5
 80038bc:	f000 f80c 	bl	80038d8 <__swsetup_r>
 80038c0:	2800      	cmp	r0, #0
 80038c2:	d0cb      	beq.n	800385c <__swbuf_r+0x28>
 80038c4:	f04f 37ff 	mov.w	r7, #4294967295
 80038c8:	e7ea      	b.n	80038a0 <__swbuf_r+0x6c>
 80038ca:	bf00      	nop
 80038cc:	080042d0 	.word	0x080042d0
 80038d0:	080042f0 	.word	0x080042f0
 80038d4:	080042b0 	.word	0x080042b0

080038d8 <__swsetup_r>:
 80038d8:	4b32      	ldr	r3, [pc, #200]	; (80039a4 <__swsetup_r+0xcc>)
 80038da:	b570      	push	{r4, r5, r6, lr}
 80038dc:	681d      	ldr	r5, [r3, #0]
 80038de:	4606      	mov	r6, r0
 80038e0:	460c      	mov	r4, r1
 80038e2:	b125      	cbz	r5, 80038ee <__swsetup_r+0x16>
 80038e4:	69ab      	ldr	r3, [r5, #24]
 80038e6:	b913      	cbnz	r3, 80038ee <__swsetup_r+0x16>
 80038e8:	4628      	mov	r0, r5
 80038ea:	f000 f985 	bl	8003bf8 <__sinit>
 80038ee:	4b2e      	ldr	r3, [pc, #184]	; (80039a8 <__swsetup_r+0xd0>)
 80038f0:	429c      	cmp	r4, r3
 80038f2:	d10f      	bne.n	8003914 <__swsetup_r+0x3c>
 80038f4:	686c      	ldr	r4, [r5, #4]
 80038f6:	89a3      	ldrh	r3, [r4, #12]
 80038f8:	f9b4 200c 	ldrsh.w	r2, [r4, #12]
 80038fc:	0719      	lsls	r1, r3, #28
 80038fe:	d42c      	bmi.n	800395a <__swsetup_r+0x82>
 8003900:	06dd      	lsls	r5, r3, #27
 8003902:	d411      	bmi.n	8003928 <__swsetup_r+0x50>
 8003904:	2309      	movs	r3, #9
 8003906:	6033      	str	r3, [r6, #0]
 8003908:	f042 0340 	orr.w	r3, r2, #64	; 0x40
 800390c:	81a3      	strh	r3, [r4, #12]
 800390e:	f04f 30ff 	mov.w	r0, #4294967295
 8003912:	e03e      	b.n	8003992 <__swsetup_r+0xba>
 8003914:	4b25      	ldr	r3, [pc, #148]	; (80039ac <__swsetup_r+0xd4>)
 8003916:	429c      	cmp	r4, r3
 8003918:	d101      	bne.n	800391e <__swsetup_r+0x46>
 800391a:	68ac      	ldr	r4, [r5, #8]
 800391c:	e7eb      	b.n	80038f6 <__swsetup_r+0x1e>
 800391e:	4b24      	ldr	r3, [pc, #144]	; (80039b0 <__swsetup_r+0xd8>)
 8003920:	429c      	cmp	r4, r3
 8003922:	bf08      	it	eq
 8003924:	68ec      	ldreq	r4, [r5, #12]
 8003926:	e7e6      	b.n	80038f6 <__swsetup_r+0x1e>
 8003928:	0758      	lsls	r0, r3, #29
 800392a:	d512      	bpl.n	8003952 <__swsetup_r+0x7a>
 800392c:	6b61      	ldr	r1, [r4, #52]	; 0x34
 800392e:	b141      	cbz	r1, 8003942 <__swsetup_r+0x6a>
 8003930:	f104 0344 	add.w	r3, r4, #68	; 0x44
 8003934:	4299      	cmp	r1, r3
 8003936:	d002      	beq.n	800393e <__swsetup_r+0x66>
 8003938:	4630      	mov	r0, r6
 800393a:	f7ff fa77 	bl	8002e2c <_free_r>
 800393e:	2300      	movs	r3, #0
 8003940:	6363      	str	r3, [r4, #52]	; 0x34
 8003942:	89a3      	ldrh	r3, [r4, #12]
 8003944:	f023 0324 	bic.w	r3, r3, #36	; 0x24
 8003948:	81a3      	strh	r3, [r4, #12]
 800394a:	2300      	movs	r3, #0
 800394c:	6063      	str	r3, [r4, #4]
 800394e:	6923      	ldr	r3, [r4, #16]
 8003950:	6023      	str	r3, [r4, #0]
 8003952:	89a3      	ldrh	r3, [r4, #12]
 8003954:	f043 0308 	orr.w	r3, r3, #8
 8003958:	81a3      	strh	r3, [r4, #12]
 800395a:	6923      	ldr	r3, [r4, #16]
 800395c:	b94b      	cbnz	r3, 8003972 <__swsetup_r+0x9a>
 800395e:	89a3      	ldrh	r3, [r4, #12]
 8003960:	f403 7320 	and.w	r3, r3, #640	; 0x280
 8003964:	f5b3 7f00 	cmp.w	r3, #512	; 0x200
 8003968:	d003      	beq.n	8003972 <__swsetup_r+0x9a>
 800396a:	4621      	mov	r1, r4
 800396c:	4630      	mov	r0, r6
 800396e:	f000 fa07 	bl	8003d80 <__smakebuf_r>
 8003972:	89a0      	ldrh	r0, [r4, #12]
 8003974:	f9b4 200c 	ldrsh.w	r2, [r4, #12]
 8003978:	f010 0301 	ands.w	r3, r0, #1
 800397c:	d00a      	beq.n	8003994 <__swsetup_r+0xbc>
 800397e:	2300      	movs	r3, #0
 8003980:	60a3      	str	r3, [r4, #8]
 8003982:	6963      	ldr	r3, [r4, #20]
 8003984:	425b      	negs	r3, r3
 8003986:	61a3      	str	r3, [r4, #24]
 8003988:	6923      	ldr	r3, [r4, #16]
 800398a:	b943      	cbnz	r3, 800399e <__swsetup_r+0xc6>
 800398c:	f010 0080 	ands.w	r0, r0, #128	; 0x80
 8003990:	d1ba      	bne.n	8003908 <__swsetup_r+0x30>
 8003992:	bd70      	pop	{r4, r5, r6, pc}
 8003994:	0781      	lsls	r1, r0, #30
 8003996:	bf58      	it	pl
 8003998:	6963      	ldrpl	r3, [r4, #20]
 800399a:	60a3      	str	r3, [r4, #8]
 800399c:	e7f4      	b.n	8003988 <__swsetup_r+0xb0>
 800399e:	2000      	movs	r0, #0
 80039a0:	e7f7      	b.n	8003992 <__swsetup_r+0xba>
 80039a2:	bf00      	nop
 80039a4:	2000002c 	.word	0x2000002c
 80039a8:	080042d0 	.word	0x080042d0
 80039ac:	080042f0 	.word	0x080042f0
 80039b0:	080042b0 	.word	0x080042b0

080039b4 <abort>:
 80039b4:	b508      	push	{r3, lr}
 80039b6:	2006      	movs	r0, #6
 80039b8:	f000 faa4 	bl	8003f04 <raise>
 80039bc:	2001      	movs	r0, #1
 80039be:	f7fd f8b3 	bl	8000b28 <_exit>
	...

080039c4 <__sflush_r>:
 80039c4:	898a      	ldrh	r2, [r1, #12]
 80039c6:	e92d 41f0 	stmdb	sp!, {r4, r5, r6, r7, r8, lr}
 80039ca:	4605      	mov	r5, r0
 80039cc:	0710      	lsls	r0, r2, #28
 80039ce:	460c      	mov	r4, r1
 80039d0:	d458      	bmi.n	8003a84 <__sflush_r+0xc0>
 80039d2:	684b      	ldr	r3, [r1, #4]
 80039d4:	2b00      	cmp	r3, #0
 80039d6:	dc05      	bgt.n	80039e4 <__sflush_r+0x20>
 80039d8:	6c0b      	ldr	r3, [r1, #64]	; 0x40
 80039da:	2b00      	cmp	r3, #0
 80039dc:	dc02      	bgt.n	80039e4 <__sflush_r+0x20>
 80039de:	2000      	movs	r0, #0
 80039e0:	e8bd 81f0 	ldmia.w	sp!, {r4, r5, r6, r7, r8, pc}
 80039e4:	6ae6      	ldr	r6, [r4, #44]	; 0x2c
 80039e6:	2e00      	cmp	r6, #0
 80039e8:	d0f9      	beq.n	80039de <__sflush_r+0x1a>
 80039ea:	2300      	movs	r3, #0
 80039ec:	f412 5280 	ands.w	r2, r2, #4096	; 0x1000
 80039f0:	682f      	ldr	r7, [r5, #0]
 80039f2:	602b      	str	r3, [r5, #0]
 80039f4:	d032      	beq.n	8003a5c <__sflush_r+0x98>
 80039f6:	6d60      	ldr	r0, [r4, #84]	; 0x54
 80039f8:	89a3      	ldrh	r3, [r4, #12]
 80039fa:	075a      	lsls	r2, r3, #29
 80039fc:	d505      	bpl.n	8003a0a <__sflush_r+0x46>
 80039fe:	6863      	ldr	r3, [r4, #4]
 8003a00:	1ac0      	subs	r0, r0, r3
 8003a02:	6b63      	ldr	r3, [r4, #52]	; 0x34
 8003a04:	b10b      	cbz	r3, 8003a0a <__sflush_r+0x46>
 8003a06:	6c23      	ldr	r3, [r4, #64]	; 0x40
 8003a08:	1ac0      	subs	r0, r0, r3
 8003a0a:	2300      	movs	r3, #0
 8003a0c:	4602      	mov	r2, r0
 8003a0e:	6ae6      	ldr	r6, [r4, #44]	; 0x2c
 8003a10:	6a21      	ldr	r1, [r4, #32]
 8003a12:	4628      	mov	r0, r5
 8003a14:	47b0      	blx	r6
 8003a16:	1c43      	adds	r3, r0, #1
 8003a18:	89a3      	ldrh	r3, [r4, #12]
 8003a1a:	d106      	bne.n	8003a2a <__sflush_r+0x66>
 8003a1c:	6829      	ldr	r1, [r5, #0]
 8003a1e:	291d      	cmp	r1, #29
 8003a20:	d82c      	bhi.n	8003a7c <__sflush_r+0xb8>
 8003a22:	4a2a      	ldr	r2, [pc, #168]	; (8003acc <__sflush_r+0x108>)
 8003a24:	40ca      	lsrs	r2, r1
 8003a26:	07d6      	lsls	r6, r2, #31
 8003a28:	d528      	bpl.n	8003a7c <__sflush_r+0xb8>
 8003a2a:	2200      	movs	r2, #0
 8003a2c:	6062      	str	r2, [r4, #4]
 8003a2e:	04d9      	lsls	r1, r3, #19
 8003a30:	6922      	ldr	r2, [r4, #16]
 8003a32:	6022      	str	r2, [r4, #0]
 8003a34:	d504      	bpl.n	8003a40 <__sflush_r+0x7c>
 8003a36:	1c42      	adds	r2, r0, #1
 8003a38:	d101      	bne.n	8003a3e <__sflush_r+0x7a>
 8003a3a:	682b      	ldr	r3, [r5, #0]
 8003a3c:	b903      	cbnz	r3, 8003a40 <__sflush_r+0x7c>
 8003a3e:	6560      	str	r0, [r4, #84]	; 0x54
 8003a40:	6b61      	ldr	r1, [r4, #52]	; 0x34
 8003a42:	602f      	str	r7, [r5, #0]
 8003a44:	2900      	cmp	r1, #0
 8003a46:	d0ca      	beq.n	80039de <__sflush_r+0x1a>
 8003a48:	f104 0344 	add.w	r3, r4, #68	; 0x44
 8003a4c:	4299      	cmp	r1, r3
 8003a4e:	d002      	beq.n	8003a56 <__sflush_r+0x92>
 8003a50:	4628      	mov	r0, r5
 8003a52:	f7ff f9eb 	bl	8002e2c <_free_r>
 8003a56:	2000      	movs	r0, #0
 8003a58:	6360      	str	r0, [r4, #52]	; 0x34
 8003a5a:	e7c1      	b.n	80039e0 <__sflush_r+0x1c>
 8003a5c:	6a21      	ldr	r1, [r4, #32]
 8003a5e:	2301      	movs	r3, #1
 8003a60:	4628      	mov	r0, r5
 8003a62:	47b0      	blx	r6
 8003a64:	1c41      	adds	r1, r0, #1
 8003a66:	d1c7      	bne.n	80039f8 <__sflush_r+0x34>
 8003a68:	682b      	ldr	r3, [r5, #0]
 8003a6a:	2b00      	cmp	r3, #0
 8003a6c:	d0c4      	beq.n	80039f8 <__sflush_r+0x34>
 8003a6e:	2b1d      	cmp	r3, #29
 8003a70:	d001      	beq.n	8003a76 <__sflush_r+0xb2>
 8003a72:	2b16      	cmp	r3, #22
 8003a74:	d101      	bne.n	8003a7a <__sflush_r+0xb6>
 8003a76:	602f      	str	r7, [r5, #0]
 8003a78:	e7b1      	b.n	80039de <__sflush_r+0x1a>
 8003a7a:	89a3      	ldrh	r3, [r4, #12]
 8003a7c:	f043 0340 	orr.w	r3, r3, #64	; 0x40
 8003a80:	81a3      	strh	r3, [r4, #12]
 8003a82:	e7ad      	b.n	80039e0 <__sflush_r+0x1c>
 8003a84:	690f      	ldr	r7, [r1, #16]
 8003a86:	2f00      	cmp	r7, #0
 8003a88:	d0a9      	beq.n	80039de <__sflush_r+0x1a>
 8003a8a:	0793      	lsls	r3, r2, #30
 8003a8c:	680e      	ldr	r6, [r1, #0]
 8003a8e:	bf08      	it	eq
 8003a90:	694b      	ldreq	r3, [r1, #20]
 8003a92:	600f      	str	r7, [r1, #0]
 8003a94:	bf18      	it	ne
 8003a96:	2300      	movne	r3, #0
 8003a98:	eba6 0807 	sub.w	r8, r6, r7
 8003a9c:	608b      	str	r3, [r1, #8]
 8003a9e:	f1b8 0f00 	cmp.w	r8, #0
 8003aa2:	dd9c      	ble.n	80039de <__sflush_r+0x1a>
 8003aa4:	6a21      	ldr	r1, [r4, #32]
 8003aa6:	6aa6      	ldr	r6, [r4, #40]	; 0x28
 8003aa8:	4643      	mov	r3, r8
 8003aaa:	463a      	mov	r2, r7
 8003aac:	4628      	mov	r0, r5
 8003aae:	47b0      	blx	r6
 8003ab0:	2800      	cmp	r0, #0
 8003ab2:	dc06      	bgt.n	8003ac2 <__sflush_r+0xfe>
 8003ab4:	89a3      	ldrh	r3, [r4, #12]
 8003ab6:	f043 0340 	orr.w	r3, r3, #64	; 0x40
 8003aba:	81a3      	strh	r3, [r4, #12]
 8003abc:	f04f 30ff 	mov.w	r0, #4294967295
 8003ac0:	e78e      	b.n	80039e0 <__sflush_r+0x1c>
 8003ac2:	4407      	add	r7, r0
 8003ac4:	eba8 0800 	sub.w	r8, r8, r0
 8003ac8:	e7e9      	b.n	8003a9e <__sflush_r+0xda>
 8003aca:	bf00      	nop
 8003acc:	20400001 	.word	0x20400001

08003ad0 <_fflush_r>:
 8003ad0:	b538      	push	{r3, r4, r5, lr}
 8003ad2:	690b      	ldr	r3, [r1, #16]
 8003ad4:	4605      	mov	r5, r0
 8003ad6:	460c      	mov	r4, r1
 8003ad8:	b913      	cbnz	r3, 8003ae0 <_fflush_r+0x10>
 8003ada:	2500      	movs	r5, #0
 8003adc:	4628      	mov	r0, r5
 8003ade:	bd38      	pop	{r3, r4, r5, pc}
 8003ae0:	b118      	cbz	r0, 8003aea <_fflush_r+0x1a>
 8003ae2:	6983      	ldr	r3, [r0, #24]
 8003ae4:	b90b      	cbnz	r3, 8003aea <_fflush_r+0x1a>
 8003ae6:	f000 f887 	bl	8003bf8 <__sinit>
 8003aea:	4b14      	ldr	r3, [pc, #80]	; (8003b3c <_fflush_r+0x6c>)
 8003aec:	429c      	cmp	r4, r3
 8003aee:	d11b      	bne.n	8003b28 <_fflush_r+0x58>
 8003af0:	686c      	ldr	r4, [r5, #4]
 8003af2:	f9b4 300c 	ldrsh.w	r3, [r4, #12]
 8003af6:	2b00      	cmp	r3, #0
 8003af8:	d0ef      	beq.n	8003ada <_fflush_r+0xa>
 8003afa:	6e62      	ldr	r2, [r4, #100]	; 0x64
 8003afc:	07d0      	lsls	r0, r2, #31
 8003afe:	d404      	bmi.n	8003b0a <_fflush_r+0x3a>
 8003b00:	0599      	lsls	r1, r3, #22
 8003b02:	d402      	bmi.n	8003b0a <_fflush_r+0x3a>
 8003b04:	6da0      	ldr	r0, [r4, #88]	; 0x58
 8003b06:	f000 f915 	bl	8003d34 <__retarget_lock_acquire_recursive>
 8003b0a:	4628      	mov	r0, r5
 8003b0c:	4621      	mov	r1, r4
 8003b0e:	f7ff ff59 	bl	80039c4 <__sflush_r>
 8003b12:	6e63      	ldr	r3, [r4, #100]	; 0x64
 8003b14:	07da      	lsls	r2, r3, #31
 8003b16:	4605      	mov	r5, r0
 8003b18:	d4e0      	bmi.n	8003adc <_fflush_r+0xc>
 8003b1a:	89a3      	ldrh	r3, [r4, #12]
 8003b1c:	059b      	lsls	r3, r3, #22
 8003b1e:	d4dd      	bmi.n	8003adc <_fflush_r+0xc>
 8003b20:	6da0      	ldr	r0, [r4, #88]	; 0x58
 8003b22:	f000 f908 	bl	8003d36 <__retarget_lock_release_recursive>
 8003b26:	e7d9      	b.n	8003adc <_fflush_r+0xc>
 8003b28:	4b05      	ldr	r3, [pc, #20]	; (8003b40 <_fflush_r+0x70>)
 8003b2a:	429c      	cmp	r4, r3
 8003b2c:	d101      	bne.n	8003b32 <_fflush_r+0x62>
 8003b2e:	68ac      	ldr	r4, [r5, #8]
 8003b30:	e7df      	b.n	8003af2 <_fflush_r+0x22>
 8003b32:	4b04      	ldr	r3, [pc, #16]	; (8003b44 <_fflush_r+0x74>)
 8003b34:	429c      	cmp	r4, r3
 8003b36:	bf08      	it	eq
 8003b38:	68ec      	ldreq	r4, [r5, #12]
 8003b3a:	e7da      	b.n	8003af2 <_fflush_r+0x22>
 8003b3c:	080042d0 	.word	0x080042d0
 8003b40:	080042f0 	.word	0x080042f0
 8003b44:	080042b0 	.word	0x080042b0

08003b48 <std>:
 8003b48:	2300      	movs	r3, #0
 8003b4a:	b510      	push	{r4, lr}
 8003b4c:	4604      	mov	r4, r0
 8003b4e:	e9c0 3300 	strd	r3, r3, [r0]
 8003b52:	e9c0 3304 	strd	r3, r3, [r0, #16]
 8003b56:	6083      	str	r3, [r0, #8]
 8003b58:	8181      	strh	r1, [r0, #12]
 8003b5a:	6643      	str	r3, [r0, #100]	; 0x64
 8003b5c:	81c2      	strh	r2, [r0, #14]
 8003b5e:	6183      	str	r3, [r0, #24]
 8003b60:	4619      	mov	r1, r3
 8003b62:	2208      	movs	r2, #8
 8003b64:	305c      	adds	r0, #92	; 0x5c
 8003b66:	f7ff f8a5 	bl	8002cb4 <memset>
 8003b6a:	4b05      	ldr	r3, [pc, #20]	; (8003b80 <std+0x38>)
 8003b6c:	6263      	str	r3, [r4, #36]	; 0x24
 8003b6e:	4b05      	ldr	r3, [pc, #20]	; (8003b84 <std+0x3c>)
 8003b70:	62a3      	str	r3, [r4, #40]	; 0x28
 8003b72:	4b05      	ldr	r3, [pc, #20]	; (8003b88 <std+0x40>)
 8003b74:	62e3      	str	r3, [r4, #44]	; 0x2c
 8003b76:	4b05      	ldr	r3, [pc, #20]	; (8003b8c <std+0x44>)
 8003b78:	6224      	str	r4, [r4, #32]
 8003b7a:	6323      	str	r3, [r4, #48]	; 0x30
 8003b7c:	bd10      	pop	{r4, pc}
 8003b7e:	bf00      	nop
 8003b80:	08003f3d 	.word	0x08003f3d
 8003b84:	08003f5f 	.word	0x08003f5f
 8003b88:	08003f97 	.word	0x08003f97
 8003b8c:	08003fbb 	.word	0x08003fbb

08003b90 <_cleanup_r>:
 8003b90:	4901      	ldr	r1, [pc, #4]	; (8003b98 <_cleanup_r+0x8>)
 8003b92:	f000 b8af 	b.w	8003cf4 <_fwalk_reent>
 8003b96:	bf00      	nop
 8003b98:	08003ad1 	.word	0x08003ad1

08003b9c <__sfmoreglue>:
 8003b9c:	b570      	push	{r4, r5, r6, lr}
 8003b9e:	1e4a      	subs	r2, r1, #1
 8003ba0:	2568      	movs	r5, #104	; 0x68
 8003ba2:	4355      	muls	r5, r2
 8003ba4:	460e      	mov	r6, r1
 8003ba6:	f105 0174 	add.w	r1, r5, #116	; 0x74
 8003baa:	f7ff f98f 	bl	8002ecc <_malloc_r>
 8003bae:	4604      	mov	r4, r0
 8003bb0:	b140      	cbz	r0, 8003bc4 <__sfmoreglue+0x28>
 8003bb2:	2100      	movs	r1, #0
 8003bb4:	e9c0 1600 	strd	r1, r6, [r0]
 8003bb8:	300c      	adds	r0, #12
 8003bba:	60a0      	str	r0, [r4, #8]
 8003bbc:	f105 0268 	add.w	r2, r5, #104	; 0x68
 8003bc0:	f7ff f878 	bl	8002cb4 <memset>
 8003bc4:	4620      	mov	r0, r4
 8003bc6:	bd70      	pop	{r4, r5, r6, pc}

08003bc8 <__sfp_lock_acquire>:
 8003bc8:	4801      	ldr	r0, [pc, #4]	; (8003bd0 <__sfp_lock_acquire+0x8>)
 8003bca:	f000 b8b3 	b.w	8003d34 <__retarget_lock_acquire_recursive>
 8003bce:	bf00      	nop
 8003bd0:	20013078 	.word	0x20013078

08003bd4 <__sfp_lock_release>:
 8003bd4:	4801      	ldr	r0, [pc, #4]	; (8003bdc <__sfp_lock_release+0x8>)
 8003bd6:	f000 b8ae 	b.w	8003d36 <__retarget_lock_release_recursive>
 8003bda:	bf00      	nop
 8003bdc:	20013078 	.word	0x20013078

08003be0 <__sinit_lock_acquire>:
 8003be0:	4801      	ldr	r0, [pc, #4]	; (8003be8 <__sinit_lock_acquire+0x8>)
 8003be2:	f000 b8a7 	b.w	8003d34 <__retarget_lock_acquire_recursive>
 8003be6:	bf00      	nop
 8003be8:	20013073 	.word	0x20013073

08003bec <__sinit_lock_release>:
 8003bec:	4801      	ldr	r0, [pc, #4]	; (8003bf4 <__sinit_lock_release+0x8>)
 8003bee:	f000 b8a2 	b.w	8003d36 <__retarget_lock_release_recursive>
 8003bf2:	bf00      	nop
 8003bf4:	20013073 	.word	0x20013073

08003bf8 <__sinit>:
 8003bf8:	b510      	push	{r4, lr}
 8003bfa:	4604      	mov	r4, r0
 8003bfc:	f7ff fff0 	bl	8003be0 <__sinit_lock_acquire>
 8003c00:	69a3      	ldr	r3, [r4, #24]
 8003c02:	b11b      	cbz	r3, 8003c0c <__sinit+0x14>
 8003c04:	e8bd 4010 	ldmia.w	sp!, {r4, lr}
 8003c08:	f7ff bff0 	b.w	8003bec <__sinit_lock_release>
 8003c0c:	e9c4 3312 	strd	r3, r3, [r4, #72]	; 0x48
 8003c10:	6523      	str	r3, [r4, #80]	; 0x50
 8003c12:	4b13      	ldr	r3, [pc, #76]	; (8003c60 <__sinit+0x68>)
 8003c14:	4a13      	ldr	r2, [pc, #76]	; (8003c64 <__sinit+0x6c>)
 8003c16:	681b      	ldr	r3, [r3, #0]
 8003c18:	62a2      	str	r2, [r4, #40]	; 0x28
 8003c1a:	42a3      	cmp	r3, r4
 8003c1c:	bf04      	itt	eq
 8003c1e:	2301      	moveq	r3, #1
 8003c20:	61a3      	streq	r3, [r4, #24]
 8003c22:	4620      	mov	r0, r4
 8003c24:	f000 f820 	bl	8003c68 <__sfp>
 8003c28:	6060      	str	r0, [r4, #4]
 8003c2a:	4620      	mov	r0, r4
 8003c2c:	f000 f81c 	bl	8003c68 <__sfp>
 8003c30:	60a0      	str	r0, [r4, #8]
 8003c32:	4620      	mov	r0, r4
 8003c34:	f000 f818 	bl	8003c68 <__sfp>
 8003c38:	2200      	movs	r2, #0
 8003c3a:	60e0      	str	r0, [r4, #12]
 8003c3c:	2104      	movs	r1, #4
 8003c3e:	6860      	ldr	r0, [r4, #4]
 8003c40:	f7ff ff82 	bl	8003b48 <std>
 8003c44:	68a0      	ldr	r0, [r4, #8]
 8003c46:	2201      	movs	r2, #1
 8003c48:	2109      	movs	r1, #9
 8003c4a:	f7ff ff7d 	bl	8003b48 <std>
 8003c4e:	68e0      	ldr	r0, [r4, #12]
 8003c50:	2202      	movs	r2, #2
 8003c52:	2112      	movs	r1, #18
 8003c54:	f7ff ff78 	bl	8003b48 <std>
 8003c58:	2301      	movs	r3, #1
 8003c5a:	61a3      	str	r3, [r4, #24]
 8003c5c:	e7d2      	b.n	8003c04 <__sinit+0xc>
 8003c5e:	bf00      	nop
 8003c60:	080041c4 	.word	0x080041c4
 8003c64:	08003b91 	.word	0x08003b91

08003c68 <__sfp>:
 8003c68:	b5f8      	push	{r3, r4, r5, r6, r7, lr}
 8003c6a:	4607      	mov	r7, r0
 8003c6c:	f7ff ffac 	bl	8003bc8 <__sfp_lock_acquire>
 8003c70:	4b1e      	ldr	r3, [pc, #120]	; (8003cec <__sfp+0x84>)
 8003c72:	681e      	ldr	r6, [r3, #0]
 8003c74:	69b3      	ldr	r3, [r6, #24]
 8003c76:	b913      	cbnz	r3, 8003c7e <__sfp+0x16>
 8003c78:	4630      	mov	r0, r6
 8003c7a:	f7ff ffbd 	bl	8003bf8 <__sinit>
 8003c7e:	3648      	adds	r6, #72	; 0x48
 8003c80:	e9d6 3401 	ldrd	r3, r4, [r6, #4]
 8003c84:	3b01      	subs	r3, #1
 8003c86:	d503      	bpl.n	8003c90 <__sfp+0x28>
 8003c88:	6833      	ldr	r3, [r6, #0]
 8003c8a:	b30b      	cbz	r3, 8003cd0 <__sfp+0x68>
 8003c8c:	6836      	ldr	r6, [r6, #0]
 8003c8e:	e7f7      	b.n	8003c80 <__sfp+0x18>
 8003c90:	f9b4 500c 	ldrsh.w	r5, [r4, #12]
 8003c94:	b9d5      	cbnz	r5, 8003ccc <__sfp+0x64>
 8003c96:	4b16      	ldr	r3, [pc, #88]	; (8003cf0 <__sfp+0x88>)
 8003c98:	60e3      	str	r3, [r4, #12]
 8003c9a:	f104 0058 	add.w	r0, r4, #88	; 0x58
 8003c9e:	6665      	str	r5, [r4, #100]	; 0x64
 8003ca0:	f000 f847 	bl	8003d32 <__retarget_lock_init_recursive>
 8003ca4:	f7ff ff96 	bl	8003bd4 <__sfp_lock_release>
 8003ca8:	e9c4 5501 	strd	r5, r5, [r4, #4]
 8003cac:	e9c4 5504 	strd	r5, r5, [r4, #16]
 8003cb0:	6025      	str	r5, [r4, #0]
 8003cb2:	61a5      	str	r5, [r4, #24]
 8003cb4:	2208      	movs	r2, #8
 8003cb6:	4629      	mov	r1, r5
 8003cb8:	f104 005c 	add.w	r0, r4, #92	; 0x5c
 8003cbc:	f7fe fffa 	bl	8002cb4 <memset>
 8003cc0:	e9c4 550d 	strd	r5, r5, [r4, #52]	; 0x34
 8003cc4:	e9c4 5512 	strd	r5, r5, [r4, #72]	; 0x48
 8003cc8:	4620      	mov	r0, r4
 8003cca:	bdf8      	pop	{r3, r4, r5, r6, r7, pc}
 8003ccc:	3468      	adds	r4, #104	; 0x68
 8003cce:	e7d9      	b.n	8003c84 <__sfp+0x1c>
 8003cd0:	2104      	movs	r1, #4
 8003cd2:	4638      	mov	r0, r7
 8003cd4:	f7ff ff62 	bl	8003b9c <__sfmoreglue>
 8003cd8:	4604      	mov	r4, r0
 8003cda:	6030      	str	r0, [r6, #0]
 8003cdc:	2800      	cmp	r0, #0
 8003cde:	d1d5      	bne.n	8003c8c <__sfp+0x24>
 8003ce0:	f7ff ff78 	bl	8003bd4 <__sfp_lock_release>
 8003ce4:	230c      	movs	r3, #12
 8003ce6:	603b      	str	r3, [r7, #0]
 8003ce8:	e7ee      	b.n	8003cc8 <__sfp+0x60>
 8003cea:	bf00      	nop
 8003cec:	080041c4 	.word	0x080041c4
 8003cf0:	ffff0001 	.word	0xffff0001

08003cf4 <_fwalk_reent>:
 8003cf4:	e92d 43f8 	stmdb	sp!, {r3, r4, r5, r6, r7, r8, r9, lr}
 8003cf8:	4606      	mov	r6, r0
 8003cfa:	4688      	mov	r8, r1
 8003cfc:	f100 0448 	add.w	r4, r0, #72	; 0x48
 8003d00:	2700      	movs	r7, #0
 8003d02:	e9d4 9501 	ldrd	r9, r5, [r4, #4]
 8003d06:	f1b9 0901 	subs.w	r9, r9, #1
 8003d0a:	d505      	bpl.n	8003d18 <_fwalk_reent+0x24>
 8003d0c:	6824      	ldr	r4, [r4, #0]
 8003d0e:	2c00      	cmp	r4, #0
 8003d10:	d1f7      	bne.n	8003d02 <_fwalk_reent+0xe>
 8003d12:	4638      	mov	r0, r7
 8003d14:	e8bd 83f8 	ldmia.w	sp!, {r3, r4, r5, r6, r7, r8, r9, pc}
 8003d18:	89ab      	ldrh	r3, [r5, #12]
 8003d1a:	2b01      	cmp	r3, #1
 8003d1c:	d907      	bls.n	8003d2e <_fwalk_reent+0x3a>
 8003d1e:	f9b5 300e 	ldrsh.w	r3, [r5, #14]
 8003d22:	3301      	adds	r3, #1
 8003d24:	d003      	beq.n	8003d2e <_fwalk_reent+0x3a>
 8003d26:	4629      	mov	r1, r5
 8003d28:	4630      	mov	r0, r6
 8003d2a:	47c0      	blx	r8
 8003d2c:	4307      	orrs	r7, r0
 8003d2e:	3568      	adds	r5, #104	; 0x68
 8003d30:	e7e9      	b.n	8003d06 <_fwalk_reent+0x12>

08003d32 <__retarget_lock_init_recursive>:
 8003d32:	4770      	bx	lr

08003d34 <__retarget_lock_acquire_recursive>:
 8003d34:	4770      	bx	lr

08003d36 <__retarget_lock_release_recursive>:
 8003d36:	4770      	bx	lr

08003d38 <__swhatbuf_r>:
 8003d38:	b570      	push	{r4, r5, r6, lr}
 8003d3a:	460e      	mov	r6, r1
 8003d3c:	f9b1 100e 	ldrsh.w	r1, [r1, #14]
 8003d40:	2900      	cmp	r1, #0
 8003d42:	b096      	sub	sp, #88	; 0x58
 8003d44:	4614      	mov	r4, r2
 8003d46:	461d      	mov	r5, r3
 8003d48:	da07      	bge.n	8003d5a <__swhatbuf_r+0x22>
 8003d4a:	2300      	movs	r3, #0
 8003d4c:	602b      	str	r3, [r5, #0]
 8003d4e:	89b3      	ldrh	r3, [r6, #12]
 8003d50:	061a      	lsls	r2, r3, #24
 8003d52:	d410      	bmi.n	8003d76 <__swhatbuf_r+0x3e>
 8003d54:	f44f 6380 	mov.w	r3, #1024	; 0x400
 8003d58:	e00e      	b.n	8003d78 <__swhatbuf_r+0x40>
 8003d5a:	466a      	mov	r2, sp
 8003d5c:	f000 f954 	bl	8004008 <_fstat_r>
 8003d60:	2800      	cmp	r0, #0
 8003d62:	dbf2      	blt.n	8003d4a <__swhatbuf_r+0x12>
 8003d64:	9a01      	ldr	r2, [sp, #4]
 8003d66:	f402 4270 	and.w	r2, r2, #61440	; 0xf000
 8003d6a:	f5a2 5300 	sub.w	r3, r2, #8192	; 0x2000
 8003d6e:	425a      	negs	r2, r3
 8003d70:	415a      	adcs	r2, r3
 8003d72:	602a      	str	r2, [r5, #0]
 8003d74:	e7ee      	b.n	8003d54 <__swhatbuf_r+0x1c>
 8003d76:	2340      	movs	r3, #64	; 0x40
 8003d78:	2000      	movs	r0, #0
 8003d7a:	6023      	str	r3, [r4, #0]
 8003d7c:	b016      	add	sp, #88	; 0x58
 8003d7e:	bd70      	pop	{r4, r5, r6, pc}

08003d80 <__smakebuf_r>:
 8003d80:	898b      	ldrh	r3, [r1, #12]
 8003d82:	b573      	push	{r0, r1, r4, r5, r6, lr}
 8003d84:	079d      	lsls	r5, r3, #30
 8003d86:	4606      	mov	r6, r0
 8003d88:	460c      	mov	r4, r1
 8003d8a:	d507      	bpl.n	8003d9c <__smakebuf_r+0x1c>
 8003d8c:	f104 0347 	add.w	r3, r4, #71	; 0x47
 8003d90:	6023      	str	r3, [r4, #0]
 8003d92:	6123      	str	r3, [r4, #16]
 8003d94:	2301      	movs	r3, #1
 8003d96:	6163      	str	r3, [r4, #20]
 8003d98:	b002      	add	sp, #8
 8003d9a:	bd70      	pop	{r4, r5, r6, pc}
 8003d9c:	ab01      	add	r3, sp, #4
 8003d9e:	466a      	mov	r2, sp
 8003da0:	f7ff ffca 	bl	8003d38 <__swhatbuf_r>
 8003da4:	9900      	ldr	r1, [sp, #0]
 8003da6:	4605      	mov	r5, r0
 8003da8:	4630      	mov	r0, r6
 8003daa:	f7ff f88f 	bl	8002ecc <_malloc_r>
 8003dae:	b948      	cbnz	r0, 8003dc4 <__smakebuf_r+0x44>
 8003db0:	f9b4 300c 	ldrsh.w	r3, [r4, #12]
 8003db4:	059a      	lsls	r2, r3, #22
 8003db6:	d4ef      	bmi.n	8003d98 <__smakebuf_r+0x18>
 8003db8:	f023 0303 	bic.w	r3, r3, #3
 8003dbc:	f043 0302 	orr.w	r3, r3, #2
 8003dc0:	81a3      	strh	r3, [r4, #12]
 8003dc2:	e7e3      	b.n	8003d8c <__smakebuf_r+0xc>
 8003dc4:	4b0d      	ldr	r3, [pc, #52]	; (8003dfc <__smakebuf_r+0x7c>)
 8003dc6:	62b3      	str	r3, [r6, #40]	; 0x28
 8003dc8:	89a3      	ldrh	r3, [r4, #12]
 8003dca:	6020      	str	r0, [r4, #0]
 8003dcc:	f043 0380 	orr.w	r3, r3, #128	; 0x80
 8003dd0:	81a3      	strh	r3, [r4, #12]
 8003dd2:	9b00      	ldr	r3, [sp, #0]
 8003dd4:	6163      	str	r3, [r4, #20]
 8003dd6:	9b01      	ldr	r3, [sp, #4]
 8003dd8:	6120      	str	r0, [r4, #16]
 8003dda:	b15b      	cbz	r3, 8003df4 <__smakebuf_r+0x74>
 8003ddc:	f9b4 100e 	ldrsh.w	r1, [r4, #14]
 8003de0:	4630      	mov	r0, r6
 8003de2:	f000 f923 	bl	800402c <_isatty_r>
 8003de6:	b128      	cbz	r0, 8003df4 <__smakebuf_r+0x74>
 8003de8:	89a3      	ldrh	r3, [r4, #12]
 8003dea:	f023 0303 	bic.w	r3, r3, #3
 8003dee:	f043 0301 	orr.w	r3, r3, #1
 8003df2:	81a3      	strh	r3, [r4, #12]
 8003df4:	89a0      	ldrh	r0, [r4, #12]
 8003df6:	4305      	orrs	r5, r0
 8003df8:	81a5      	strh	r5, [r4, #12]
 8003dfa:	e7cd      	b.n	8003d98 <__smakebuf_r+0x18>
 8003dfc:	08003b91 	.word	0x08003b91

08003e00 <memcpy>:
 8003e00:	440a      	add	r2, r1
 8003e02:	4291      	cmp	r1, r2
 8003e04:	f100 33ff 	add.w	r3, r0, #4294967295
 8003e08:	d100      	bne.n	8003e0c <memcpy+0xc>
 8003e0a:	4770      	bx	lr
 8003e0c:	b510      	push	{r4, lr}
 8003e0e:	f811 4b01 	ldrb.w	r4, [r1], #1
 8003e12:	f803 4f01 	strb.w	r4, [r3, #1]!
 8003e16:	4291      	cmp	r1, r2
 8003e18:	d1f9      	bne.n	8003e0e <memcpy+0xe>
 8003e1a:	bd10      	pop	{r4, pc}

08003e1c <memmove>:
 8003e1c:	4288      	cmp	r0, r1
 8003e1e:	b510      	push	{r4, lr}
 8003e20:	eb01 0402 	add.w	r4, r1, r2
 8003e24:	d902      	bls.n	8003e2c <memmove+0x10>
 8003e26:	4284      	cmp	r4, r0
 8003e28:	4623      	mov	r3, r4
 8003e2a:	d807      	bhi.n	8003e3c <memmove+0x20>
 8003e2c:	1e43      	subs	r3, r0, #1
 8003e2e:	42a1      	cmp	r1, r4
 8003e30:	d008      	beq.n	8003e44 <memmove+0x28>
 8003e32:	f811 2b01 	ldrb.w	r2, [r1], #1
 8003e36:	f803 2f01 	strb.w	r2, [r3, #1]!
 8003e3a:	e7f8      	b.n	8003e2e <memmove+0x12>
 8003e3c:	4402      	add	r2, r0
 8003e3e:	4601      	mov	r1, r0
 8003e40:	428a      	cmp	r2, r1
 8003e42:	d100      	bne.n	8003e46 <memmove+0x2a>
 8003e44:	bd10      	pop	{r4, pc}
 8003e46:	f813 4d01 	ldrb.w	r4, [r3, #-1]!
 8003e4a:	f802 4d01 	strb.w	r4, [r2, #-1]!
 8003e4e:	e7f7      	b.n	8003e40 <memmove+0x24>

08003e50 <__malloc_lock>:
 8003e50:	4801      	ldr	r0, [pc, #4]	; (8003e58 <__malloc_lock+0x8>)
 8003e52:	f7ff bf6f 	b.w	8003d34 <__retarget_lock_acquire_recursive>
 8003e56:	bf00      	nop
 8003e58:	20013074 	.word	0x20013074

08003e5c <__malloc_unlock>:
 8003e5c:	4801      	ldr	r0, [pc, #4]	; (8003e64 <__malloc_unlock+0x8>)
 8003e5e:	f7ff bf6a 	b.w	8003d36 <__retarget_lock_release_recursive>
 8003e62:	bf00      	nop
 8003e64:	20013074 	.word	0x20013074

08003e68 <_realloc_r>:
 8003e68:	b5f8      	push	{r3, r4, r5, r6, r7, lr}
 8003e6a:	4607      	mov	r7, r0
 8003e6c:	4614      	mov	r4, r2
 8003e6e:	460e      	mov	r6, r1
 8003e70:	b921      	cbnz	r1, 8003e7c <_realloc_r+0x14>
 8003e72:	e8bd 40f8 	ldmia.w	sp!, {r3, r4, r5, r6, r7, lr}
 8003e76:	4611      	mov	r1, r2
 8003e78:	f7ff b828 	b.w	8002ecc <_malloc_r>
 8003e7c:	b922      	cbnz	r2, 8003e88 <_realloc_r+0x20>
 8003e7e:	f7fe ffd5 	bl	8002e2c <_free_r>
 8003e82:	4625      	mov	r5, r4
 8003e84:	4628      	mov	r0, r5
 8003e86:	bdf8      	pop	{r3, r4, r5, r6, r7, pc}
 8003e88:	f000 f8f2 	bl	8004070 <_malloc_usable_size_r>
 8003e8c:	42a0      	cmp	r0, r4
 8003e8e:	d20f      	bcs.n	8003eb0 <_realloc_r+0x48>
 8003e90:	4621      	mov	r1, r4
 8003e92:	4638      	mov	r0, r7
 8003e94:	f7ff f81a 	bl	8002ecc <_malloc_r>
 8003e98:	4605      	mov	r5, r0
 8003e9a:	2800      	cmp	r0, #0
 8003e9c:	d0f2      	beq.n	8003e84 <_realloc_r+0x1c>
 8003e9e:	4631      	mov	r1, r6
 8003ea0:	4622      	mov	r2, r4
 8003ea2:	f7ff ffad 	bl	8003e00 <memcpy>
 8003ea6:	4631      	mov	r1, r6
 8003ea8:	4638      	mov	r0, r7
 8003eaa:	f7fe ffbf 	bl	8002e2c <_free_r>
 8003eae:	e7e9      	b.n	8003e84 <_realloc_r+0x1c>
 8003eb0:	4635      	mov	r5, r6
 8003eb2:	e7e7      	b.n	8003e84 <_realloc_r+0x1c>

08003eb4 <_raise_r>:
 8003eb4:	291f      	cmp	r1, #31
 8003eb6:	b538      	push	{r3, r4, r5, lr}
 8003eb8:	4604      	mov	r4, r0
 8003eba:	460d      	mov	r5, r1
 8003ebc:	d904      	bls.n	8003ec8 <_raise_r+0x14>
 8003ebe:	2316      	movs	r3, #22
 8003ec0:	6003      	str	r3, [r0, #0]
 8003ec2:	f04f 30ff 	mov.w	r0, #4294967295
 8003ec6:	bd38      	pop	{r3, r4, r5, pc}
 8003ec8:	6c42      	ldr	r2, [r0, #68]	; 0x44
 8003eca:	b112      	cbz	r2, 8003ed2 <_raise_r+0x1e>
 8003ecc:	f852 3021 	ldr.w	r3, [r2, r1, lsl #2]
 8003ed0:	b94b      	cbnz	r3, 8003ee6 <_raise_r+0x32>
 8003ed2:	4620      	mov	r0, r4
 8003ed4:	f000 f830 	bl	8003f38 <_getpid_r>
 8003ed8:	462a      	mov	r2, r5
 8003eda:	4601      	mov	r1, r0
 8003edc:	4620      	mov	r0, r4
 8003ede:	e8bd 4038 	ldmia.w	sp!, {r3, r4, r5, lr}
 8003ee2:	f000 b817 	b.w	8003f14 <_kill_r>
 8003ee6:	2b01      	cmp	r3, #1
 8003ee8:	d00a      	beq.n	8003f00 <_raise_r+0x4c>
 8003eea:	1c59      	adds	r1, r3, #1
 8003eec:	d103      	bne.n	8003ef6 <_raise_r+0x42>
 8003eee:	2316      	movs	r3, #22
 8003ef0:	6003      	str	r3, [r0, #0]
 8003ef2:	2001      	movs	r0, #1
 8003ef4:	e7e7      	b.n	8003ec6 <_raise_r+0x12>
 8003ef6:	2400      	movs	r4, #0
 8003ef8:	f842 4025 	str.w	r4, [r2, r5, lsl #2]
 8003efc:	4628      	mov	r0, r5
 8003efe:	4798      	blx	r3
 8003f00:	2000      	movs	r0, #0
 8003f02:	e7e0      	b.n	8003ec6 <_raise_r+0x12>

08003f04 <raise>:
 8003f04:	4b02      	ldr	r3, [pc, #8]	; (8003f10 <raise+0xc>)
 8003f06:	4601      	mov	r1, r0
 8003f08:	6818      	ldr	r0, [r3, #0]
 8003f0a:	f7ff bfd3 	b.w	8003eb4 <_raise_r>
 8003f0e:	bf00      	nop
 8003f10:	2000002c 	.word	0x2000002c

08003f14 <_kill_r>:
 8003f14:	b538      	push	{r3, r4, r5, lr}
 8003f16:	4d07      	ldr	r5, [pc, #28]	; (8003f34 <_kill_r+0x20>)
 8003f18:	2300      	movs	r3, #0
 8003f1a:	4604      	mov	r4, r0
 8003f1c:	4608      	mov	r0, r1
 8003f1e:	4611      	mov	r1, r2
 8003f20:	602b      	str	r3, [r5, #0]
 8003f22:	f7fc fdf9 	bl	8000b18 <_kill>
 8003f26:	1c43      	adds	r3, r0, #1
 8003f28:	d102      	bne.n	8003f30 <_kill_r+0x1c>
 8003f2a:	682b      	ldr	r3, [r5, #0]
 8003f2c:	b103      	cbz	r3, 8003f30 <_kill_r+0x1c>
 8003f2e:	6023      	str	r3, [r4, #0]
 8003f30:	bd38      	pop	{r3, r4, r5, pc}
 8003f32:	bf00      	nop
 8003f34:	2001307c 	.word	0x2001307c

08003f38 <_getpid_r>:
 8003f38:	f7fc bdec 	b.w	8000b14 <_getpid>

08003f3c <__sread>:
 8003f3c:	b510      	push	{r4, lr}
 8003f3e:	460c      	mov	r4, r1
 8003f40:	f9b1 100e 	ldrsh.w	r1, [r1, #14]
 8003f44:	f000 f89c 	bl	8004080 <_read_r>
 8003f48:	2800      	cmp	r0, #0
 8003f4a:	bfab      	itete	ge
 8003f4c:	6d63      	ldrge	r3, [r4, #84]	; 0x54
 8003f4e:	89a3      	ldrhlt	r3, [r4, #12]
 8003f50:	181b      	addge	r3, r3, r0
 8003f52:	f423 5380 	biclt.w	r3, r3, #4096	; 0x1000
 8003f56:	bfac      	ite	ge
 8003f58:	6563      	strge	r3, [r4, #84]	; 0x54
 8003f5a:	81a3      	strhlt	r3, [r4, #12]
 8003f5c:	bd10      	pop	{r4, pc}

08003f5e <__swrite>:
 8003f5e:	e92d 41f0 	stmdb	sp!, {r4, r5, r6, r7, r8, lr}
 8003f62:	461f      	mov	r7, r3
 8003f64:	898b      	ldrh	r3, [r1, #12]
 8003f66:	05db      	lsls	r3, r3, #23
 8003f68:	4605      	mov	r5, r0
 8003f6a:	460c      	mov	r4, r1
 8003f6c:	4616      	mov	r6, r2
 8003f6e:	d505      	bpl.n	8003f7c <__swrite+0x1e>
 8003f70:	f9b1 100e 	ldrsh.w	r1, [r1, #14]
 8003f74:	2302      	movs	r3, #2
 8003f76:	2200      	movs	r2, #0
 8003f78:	f000 f868 	bl	800404c <_lseek_r>
 8003f7c:	89a3      	ldrh	r3, [r4, #12]
 8003f7e:	f9b4 100e 	ldrsh.w	r1, [r4, #14]
 8003f82:	f423 5380 	bic.w	r3, r3, #4096	; 0x1000
 8003f86:	81a3      	strh	r3, [r4, #12]
 8003f88:	4632      	mov	r2, r6
 8003f8a:	463b      	mov	r3, r7
 8003f8c:	4628      	mov	r0, r5
 8003f8e:	e8bd 41f0 	ldmia.w	sp!, {r4, r5, r6, r7, r8, lr}
 8003f92:	f000 b817 	b.w	8003fc4 <_write_r>

08003f96 <__sseek>:
 8003f96:	b510      	push	{r4, lr}
 8003f98:	460c      	mov	r4, r1
 8003f9a:	f9b1 100e 	ldrsh.w	r1, [r1, #14]
 8003f9e:	f000 f855 	bl	800404c <_lseek_r>
 8003fa2:	1c43      	adds	r3, r0, #1
 8003fa4:	89a3      	ldrh	r3, [r4, #12]
 8003fa6:	bf15      	itete	ne
 8003fa8:	6560      	strne	r0, [r4, #84]	; 0x54
 8003faa:	f423 5380 	biceq.w	r3, r3, #4096	; 0x1000
 8003fae:	f443 5380 	orrne.w	r3, r3, #4096	; 0x1000
 8003fb2:	81a3      	strheq	r3, [r4, #12]
 8003fb4:	bf18      	it	ne
 8003fb6:	81a3      	strhne	r3, [r4, #12]
 8003fb8:	bd10      	pop	{r4, pc}

08003fba <__sclose>:
 8003fba:	f9b1 100e 	ldrsh.w	r1, [r1, #14]
 8003fbe:	f000 b813 	b.w	8003fe8 <_close_r>
	...

08003fc4 <_write_r>:
 8003fc4:	b538      	push	{r3, r4, r5, lr}
 8003fc6:	4d07      	ldr	r5, [pc, #28]	; (8003fe4 <_write_r+0x20>)
 8003fc8:	4604      	mov	r4, r0
 8003fca:	4608      	mov	r0, r1
 8003fcc:	4611      	mov	r1, r2
 8003fce:	2200      	movs	r2, #0
 8003fd0:	602a      	str	r2, [r5, #0]
 8003fd2:	461a      	mov	r2, r3
 8003fd4:	f7fc fdbb 	bl	8000b4e <_write>
 8003fd8:	1c43      	adds	r3, r0, #1
 8003fda:	d102      	bne.n	8003fe2 <_write_r+0x1e>
 8003fdc:	682b      	ldr	r3, [r5, #0]
 8003fde:	b103      	cbz	r3, 8003fe2 <_write_r+0x1e>
 8003fe0:	6023      	str	r3, [r4, #0]
 8003fe2:	bd38      	pop	{r3, r4, r5, pc}
 8003fe4:	2001307c 	.word	0x2001307c

08003fe8 <_close_r>:
 8003fe8:	b538      	push	{r3, r4, r5, lr}
 8003fea:	4d06      	ldr	r5, [pc, #24]	; (8004004 <_close_r+0x1c>)
 8003fec:	2300      	movs	r3, #0
 8003fee:	4604      	mov	r4, r0
 8003ff0:	4608      	mov	r0, r1
 8003ff2:	602b      	str	r3, [r5, #0]
 8003ff4:	f7fc fdb8 	bl	8000b68 <_close>
 8003ff8:	1c43      	adds	r3, r0, #1
 8003ffa:	d102      	bne.n	8004002 <_close_r+0x1a>
 8003ffc:	682b      	ldr	r3, [r5, #0]
 8003ffe:	b103      	cbz	r3, 8004002 <_close_r+0x1a>
 8004000:	6023      	str	r3, [r4, #0]
 8004002:	bd38      	pop	{r3, r4, r5, pc}
 8004004:	2001307c 	.word	0x2001307c

08004008 <_fstat_r>:
 8004008:	b538      	push	{r3, r4, r5, lr}
 800400a:	4d07      	ldr	r5, [pc, #28]	; (8004028 <_fstat_r+0x20>)
 800400c:	2300      	movs	r3, #0
 800400e:	4604      	mov	r4, r0
 8004010:	4608      	mov	r0, r1
 8004012:	4611      	mov	r1, r2
 8004014:	602b      	str	r3, [r5, #0]
 8004016:	f7fc fdaa 	bl	8000b6e <_fstat>
 800401a:	1c43      	adds	r3, r0, #1
 800401c:	d102      	bne.n	8004024 <_fstat_r+0x1c>
 800401e:	682b      	ldr	r3, [r5, #0]
 8004020:	b103      	cbz	r3, 8004024 <_fstat_r+0x1c>
 8004022:	6023      	str	r3, [r4, #0]
 8004024:	bd38      	pop	{r3, r4, r5, pc}
 8004026:	bf00      	nop
 8004028:	2001307c 	.word	0x2001307c

0800402c <_isatty_r>:
 800402c:	b538      	push	{r3, r4, r5, lr}
 800402e:	4d06      	ldr	r5, [pc, #24]	; (8004048 <_isatty_r+0x1c>)
 8004030:	2300      	movs	r3, #0
 8004032:	4604      	mov	r4, r0
 8004034:	4608      	mov	r0, r1
 8004036:	602b      	str	r3, [r5, #0]
 8004038:	f7fc fd9e 	bl	8000b78 <_isatty>
 800403c:	1c43      	adds	r3, r0, #1
 800403e:	d102      	bne.n	8004046 <_isatty_r+0x1a>
 8004040:	682b      	ldr	r3, [r5, #0]
 8004042:	b103      	cbz	r3, 8004046 <_isatty_r+0x1a>
 8004044:	6023      	str	r3, [r4, #0]
 8004046:	bd38      	pop	{r3, r4, r5, pc}
 8004048:	2001307c 	.word	0x2001307c

0800404c <_lseek_r>:
 800404c:	b538      	push	{r3, r4, r5, lr}
 800404e:	4d07      	ldr	r5, [pc, #28]	; (800406c <_lseek_r+0x20>)
 8004050:	4604      	mov	r4, r0
 8004052:	4608      	mov	r0, r1
 8004054:	4611      	mov	r1, r2
 8004056:	2200      	movs	r2, #0
 8004058:	602a      	str	r2, [r5, #0]
 800405a:	461a      	mov	r2, r3
 800405c:	f7fc fd8e 	bl	8000b7c <_lseek>
 8004060:	1c43      	adds	r3, r0, #1
 8004062:	d102      	bne.n	800406a <_lseek_r+0x1e>
 8004064:	682b      	ldr	r3, [r5, #0]
 8004066:	b103      	cbz	r3, 800406a <_lseek_r+0x1e>
 8004068:	6023      	str	r3, [r4, #0]
 800406a:	bd38      	pop	{r3, r4, r5, pc}
 800406c:	2001307c 	.word	0x2001307c

08004070 <_malloc_usable_size_r>:
 8004070:	f851 3c04 	ldr.w	r3, [r1, #-4]
 8004074:	1f18      	subs	r0, r3, #4
 8004076:	2b00      	cmp	r3, #0
 8004078:	bfbc      	itt	lt
 800407a:	580b      	ldrlt	r3, [r1, r0]
 800407c:	18c0      	addlt	r0, r0, r3
 800407e:	4770      	bx	lr

08004080 <_read_r>:
 8004080:	b538      	push	{r3, r4, r5, lr}
 8004082:	4d07      	ldr	r5, [pc, #28]	; (80040a0 <_read_r+0x20>)
 8004084:	4604      	mov	r4, r0
 8004086:	4608      	mov	r0, r1
 8004088:	4611      	mov	r1, r2
 800408a:	2200      	movs	r2, #0
 800408c:	602a      	str	r2, [r5, #0]
 800408e:	461a      	mov	r2, r3
 8004090:	f7fc fd50 	bl	8000b34 <_read>
 8004094:	1c43      	adds	r3, r0, #1
 8004096:	d102      	bne.n	800409e <_read_r+0x1e>
 8004098:	682b      	ldr	r3, [r5, #0]
 800409a:	b103      	cbz	r3, 800409e <_read_r+0x1e>
 800409c:	6023      	str	r3, [r4, #0]
 800409e:	bd38      	pop	{r3, r4, r5, pc}
 80040a0:	2001307c 	.word	0x2001307c

080040a4 <_init>:
 80040a4:	b5f8      	push	{r3, r4, r5, r6, r7, lr}
 80040a6:	bf00      	nop
 80040a8:	bcf8      	pop	{r3, r4, r5, r6, r7}
 80040aa:	bc08      	pop	{r3}
 80040ac:	469e      	mov	lr, r3
 80040ae:	4770      	bx	lr

080040b0 <_fini>:
 80040b0:	b5f8      	push	{r3, r4, r5, r6, r7, lr}
 80040b2:	bf00      	nop
 80040b4:	bcf8      	pop	{r3, r4, r5, r6, r7}
 80040b6:	bc08      	pop	{r3}
 80040b8:	469e      	mov	lr, r3
 80040ba:	4770      	bx	lr
