
VGAnuS_Software-Ontwikkeling.elf:     file format elf32-littlearm

Sections:
Idx Name          Size      VMA       LMA       File off  Algn
  0 .isr_vector   00000188  08000000  08000000  00010000  2**0
                  CONTENTS, ALLOC, LOAD, READONLY, DATA
  1 .text         00001c94  08000188  08000188  00010188  2**2
                  CONTENTS, ALLOC, LOAD, READONLY, CODE
  2 .rodata       00000018  08001e1c  08001e1c  00011e1c  2**0
                  CONTENTS, ALLOC, LOAD, READONLY, DATA
  3 .ARM.extab    00000000  08001e34  08001e34  0002000c  2**0
                  CONTENTS
  4 .ARM          00000008  08001e34  08001e34  00011e34  2**2
                  CONTENTS, ALLOC, LOAD, READONLY, DATA
  5 .preinit_array 00000000  08001e3c  08001e3c  0002000c  2**0
                  CONTENTS, ALLOC, LOAD, DATA
  6 .init_array   00000004  08001e3c  08001e3c  00011e3c  2**2
                  CONTENTS, ALLOC, LOAD, DATA
  7 .fini_array   00000004  08001e40  08001e40  00011e40  2**2
                  CONTENTS, ALLOC, LOAD, DATA
  8 .data         0000000c  20000000  08001e44  00020000  2**2
                  CONTENTS, ALLOC, LOAD, DATA
  9 .bss          00012dfc  2000000c  08001e50  0002000c  2**2
                  ALLOC
 10 ._user_heap_stack 00000600  20012e08  08001e50  00022e08  2**0
                  ALLOC
 11 .ARM.attributes 00000030  00000000  00000000  0002000c  2**0
                  CONTENTS, READONLY
 12 .comment      00000053  00000000  00000000  0002003c  2**0
                  CONTENTS, READONLY
 13 .debug_frame  000000ac  00000000  00000000  00020090  2**2
                  CONTENTS, READONLY, DEBUGGING, OCTETS

Disassembly of section .text:

08000188 <__do_global_dtors_aux>:
 8000188:	b510      	push	{r4, lr}
 800018a:	4c05      	ldr	r4, [pc, #20]	; (80001a0 <__do_global_dtors_aux+0x18>)
 800018c:	7823      	ldrb	r3, [r4, #0]
 800018e:	b933      	cbnz	r3, 800019e <__do_global_dtors_aux+0x16>
 8000190:	4b04      	ldr	r3, [pc, #16]	; (80001a4 <__do_global_dtors_aux+0x1c>)
 8000192:	b113      	cbz	r3, 800019a <__do_global_dtors_aux+0x12>
 8000194:	4804      	ldr	r0, [pc, #16]	; (80001a8 <__do_global_dtors_aux+0x20>)
 8000196:	f3af 8000 	nop.w
 800019a:	2301      	movs	r3, #1
 800019c:	7023      	strb	r3, [r4, #0]
 800019e:	bd10      	pop	{r4, pc}
 80001a0:	2000000c 	.word	0x2000000c
 80001a4:	00000000 	.word	0x00000000
 80001a8:	08001e04 	.word	0x08001e04

080001ac <frame_dummy>:
 80001ac:	b508      	push	{r3, lr}
 80001ae:	4b03      	ldr	r3, [pc, #12]	; (80001bc <frame_dummy+0x10>)
 80001b0:	b11b      	cbz	r3, 80001ba <frame_dummy+0xe>
 80001b2:	4903      	ldr	r1, [pc, #12]	; (80001c0 <frame_dummy+0x14>)
 80001b4:	4803      	ldr	r0, [pc, #12]	; (80001c4 <frame_dummy+0x18>)
 80001b6:	f3af 8000 	nop.w
 80001ba:	bd08      	pop	{r3, pc}
 80001bc:	00000000 	.word	0x00000000
 80001c0:	20000010 	.word	0x20000010
 80001c4:	08001e04 	.word	0x08001e04

080001c8 <__aeabi_uldivmod>:
 80001c8:	b953      	cbnz	r3, 80001e0 <__aeabi_uldivmod+0x18>
 80001ca:	b94a      	cbnz	r2, 80001e0 <__aeabi_uldivmod+0x18>
 80001cc:	2900      	cmp	r1, #0
 80001ce:	bf08      	it	eq
 80001d0:	2800      	cmpeq	r0, #0
 80001d2:	bf1c      	itt	ne
 80001d4:	f04f 31ff 	movne.w	r1, #4294967295
 80001d8:	f04f 30ff 	movne.w	r0, #4294967295
 80001dc:	f000 b96e 	b.w	80004bc <__aeabi_idiv0>
 80001e0:	f1ad 0c08 	sub.w	ip, sp, #8
 80001e4:	e96d ce04 	strd	ip, lr, [sp, #-16]!
 80001e8:	f000 f806 	bl	80001f8 <__udivmoddi4>
 80001ec:	f8dd e004 	ldr.w	lr, [sp, #4]
 80001f0:	e9dd 2302 	ldrd	r2, r3, [sp, #8]
 80001f4:	b004      	add	sp, #16
 80001f6:	4770      	bx	lr

080001f8 <__udivmoddi4>:
 80001f8:	e92d 47f0 	stmdb	sp!, {r4, r5, r6, r7, r8, r9, sl, lr}
 80001fc:	9d08      	ldr	r5, [sp, #32]
 80001fe:	4604      	mov	r4, r0
 8000200:	468c      	mov	ip, r1
 8000202:	2b00      	cmp	r3, #0
 8000204:	f040 8083 	bne.w	800030e <__udivmoddi4+0x116>
 8000208:	428a      	cmp	r2, r1
 800020a:	4617      	mov	r7, r2
 800020c:	d947      	bls.n	800029e <__udivmoddi4+0xa6>
 800020e:	fab2 f282 	clz	r2, r2
 8000212:	b142      	cbz	r2, 8000226 <__udivmoddi4+0x2e>
 8000214:	f1c2 0020 	rsb	r0, r2, #32
 8000218:	fa24 f000 	lsr.w	r0, r4, r0
 800021c:	4091      	lsls	r1, r2
 800021e:	4097      	lsls	r7, r2
 8000220:	ea40 0c01 	orr.w	ip, r0, r1
 8000224:	4094      	lsls	r4, r2
 8000226:	ea4f 4817 	mov.w	r8, r7, lsr #16
 800022a:	0c23      	lsrs	r3, r4, #16
 800022c:	fbbc f6f8 	udiv	r6, ip, r8
 8000230:	fa1f fe87 	uxth.w	lr, r7
 8000234:	fb08 c116 	mls	r1, r8, r6, ip
 8000238:	ea43 4301 	orr.w	r3, r3, r1, lsl #16
 800023c:	fb06 f10e 	mul.w	r1, r6, lr
 8000240:	4299      	cmp	r1, r3
 8000242:	d909      	bls.n	8000258 <__udivmoddi4+0x60>
 8000244:	18fb      	adds	r3, r7, r3
 8000246:	f106 30ff 	add.w	r0, r6, #4294967295
 800024a:	f080 8119 	bcs.w	8000480 <__udivmoddi4+0x288>
 800024e:	4299      	cmp	r1, r3
 8000250:	f240 8116 	bls.w	8000480 <__udivmoddi4+0x288>
 8000254:	3e02      	subs	r6, #2
 8000256:	443b      	add	r3, r7
 8000258:	1a5b      	subs	r3, r3, r1
 800025a:	b2a4      	uxth	r4, r4
 800025c:	fbb3 f0f8 	udiv	r0, r3, r8
 8000260:	fb08 3310 	mls	r3, r8, r0, r3
 8000264:	ea44 4403 	orr.w	r4, r4, r3, lsl #16
 8000268:	fb00 fe0e 	mul.w	lr, r0, lr
 800026c:	45a6      	cmp	lr, r4
 800026e:	d909      	bls.n	8000284 <__udivmoddi4+0x8c>
 8000270:	193c      	adds	r4, r7, r4
 8000272:	f100 33ff 	add.w	r3, r0, #4294967295
 8000276:	f080 8105 	bcs.w	8000484 <__udivmoddi4+0x28c>
 800027a:	45a6      	cmp	lr, r4
 800027c:	f240 8102 	bls.w	8000484 <__udivmoddi4+0x28c>
 8000280:	3802      	subs	r0, #2
 8000282:	443c      	add	r4, r7
 8000284:	ea40 4006 	orr.w	r0, r0, r6, lsl #16
 8000288:	eba4 040e 	sub.w	r4, r4, lr
 800028c:	2600      	movs	r6, #0
 800028e:	b11d      	cbz	r5, 8000298 <__udivmoddi4+0xa0>
 8000290:	40d4      	lsrs	r4, r2
 8000292:	2300      	movs	r3, #0
 8000294:	e9c5 4300 	strd	r4, r3, [r5]
 8000298:	4631      	mov	r1, r6
 800029a:	e8bd 87f0 	ldmia.w	sp!, {r4, r5, r6, r7, r8, r9, sl, pc}
 800029e:	b902      	cbnz	r2, 80002a2 <__udivmoddi4+0xaa>
 80002a0:	deff      	udf	#255	; 0xff
 80002a2:	fab2 f282 	clz	r2, r2
 80002a6:	2a00      	cmp	r2, #0
 80002a8:	d150      	bne.n	800034c <__udivmoddi4+0x154>
 80002aa:	1bcb      	subs	r3, r1, r7
 80002ac:	ea4f 4e17 	mov.w	lr, r7, lsr #16
 80002b0:	fa1f f887 	uxth.w	r8, r7
 80002b4:	2601      	movs	r6, #1
 80002b6:	fbb3 fcfe 	udiv	ip, r3, lr
 80002ba:	0c21      	lsrs	r1, r4, #16
 80002bc:	fb0e 331c 	mls	r3, lr, ip, r3
 80002c0:	ea41 4103 	orr.w	r1, r1, r3, lsl #16
 80002c4:	fb08 f30c 	mul.w	r3, r8, ip
 80002c8:	428b      	cmp	r3, r1
 80002ca:	d907      	bls.n	80002dc <__udivmoddi4+0xe4>
 80002cc:	1879      	adds	r1, r7, r1
 80002ce:	f10c 30ff 	add.w	r0, ip, #4294967295
 80002d2:	d202      	bcs.n	80002da <__udivmoddi4+0xe2>
 80002d4:	428b      	cmp	r3, r1
 80002d6:	f200 80e9 	bhi.w	80004ac <__udivmoddi4+0x2b4>
 80002da:	4684      	mov	ip, r0
 80002dc:	1ac9      	subs	r1, r1, r3
 80002de:	b2a3      	uxth	r3, r4
 80002e0:	fbb1 f0fe 	udiv	r0, r1, lr
 80002e4:	fb0e 1110 	mls	r1, lr, r0, r1
 80002e8:	ea43 4401 	orr.w	r4, r3, r1, lsl #16
 80002ec:	fb08 f800 	mul.w	r8, r8, r0
 80002f0:	45a0      	cmp	r8, r4
 80002f2:	d907      	bls.n	8000304 <__udivmoddi4+0x10c>
 80002f4:	193c      	adds	r4, r7, r4
 80002f6:	f100 33ff 	add.w	r3, r0, #4294967295
 80002fa:	d202      	bcs.n	8000302 <__udivmoddi4+0x10a>
 80002fc:	45a0      	cmp	r8, r4
 80002fe:	f200 80d9 	bhi.w	80004b4 <__udivmoddi4+0x2bc>
 8000302:	4618      	mov	r0, r3
 8000304:	eba4 0408 	sub.w	r4, r4, r8
 8000308:	ea40 400c 	orr.w	r0, r0, ip, lsl #16
 800030c:	e7bf      	b.n	800028e <__udivmoddi4+0x96>
 800030e:	428b      	cmp	r3, r1
 8000310:	d909      	bls.n	8000326 <__udivmoddi4+0x12e>
 8000312:	2d00      	cmp	r5, #0
 8000314:	f000 80b1 	beq.w	800047a <__udivmoddi4+0x282>
 8000318:	2600      	movs	r6, #0
 800031a:	e9c5 0100 	strd	r0, r1, [r5]
 800031e:	4630      	mov	r0, r6
 8000320:	4631      	mov	r1, r6
 8000322:	e8bd 87f0 	ldmia.w	sp!, {r4, r5, r6, r7, r8, r9, sl, pc}
 8000326:	fab3 f683 	clz	r6, r3
 800032a:	2e00      	cmp	r6, #0
 800032c:	d14a      	bne.n	80003c4 <__udivmoddi4+0x1cc>
 800032e:	428b      	cmp	r3, r1
 8000330:	d302      	bcc.n	8000338 <__udivmoddi4+0x140>
 8000332:	4282      	cmp	r2, r0
 8000334:	f200 80b8 	bhi.w	80004a8 <__udivmoddi4+0x2b0>
 8000338:	1a84      	subs	r4, r0, r2
 800033a:	eb61 0103 	sbc.w	r1, r1, r3
 800033e:	2001      	movs	r0, #1
 8000340:	468c      	mov	ip, r1
 8000342:	2d00      	cmp	r5, #0
 8000344:	d0a8      	beq.n	8000298 <__udivmoddi4+0xa0>
 8000346:	e9c5 4c00 	strd	r4, ip, [r5]
 800034a:	e7a5      	b.n	8000298 <__udivmoddi4+0xa0>
 800034c:	f1c2 0320 	rsb	r3, r2, #32
 8000350:	fa20 f603 	lsr.w	r6, r0, r3
 8000354:	4097      	lsls	r7, r2
 8000356:	fa01 f002 	lsl.w	r0, r1, r2
 800035a:	ea4f 4e17 	mov.w	lr, r7, lsr #16
 800035e:	40d9      	lsrs	r1, r3
 8000360:	4330      	orrs	r0, r6
 8000362:	0c03      	lsrs	r3, r0, #16
 8000364:	fbb1 f6fe 	udiv	r6, r1, lr
 8000368:	fa1f f887 	uxth.w	r8, r7
 800036c:	fb0e 1116 	mls	r1, lr, r6, r1
 8000370:	ea43 4301 	orr.w	r3, r3, r1, lsl #16
 8000374:	fb06 f108 	mul.w	r1, r6, r8
 8000378:	4299      	cmp	r1, r3
 800037a:	fa04 f402 	lsl.w	r4, r4, r2
 800037e:	d909      	bls.n	8000394 <__udivmoddi4+0x19c>
 8000380:	18fb      	adds	r3, r7, r3
 8000382:	f106 3cff 	add.w	ip, r6, #4294967295
 8000386:	f080 808d 	bcs.w	80004a4 <__udivmoddi4+0x2ac>
 800038a:	4299      	cmp	r1, r3
 800038c:	f240 808a 	bls.w	80004a4 <__udivmoddi4+0x2ac>
 8000390:	3e02      	subs	r6, #2
 8000392:	443b      	add	r3, r7
 8000394:	1a5b      	subs	r3, r3, r1
 8000396:	b281      	uxth	r1, r0
 8000398:	fbb3 f0fe 	udiv	r0, r3, lr
 800039c:	fb0e 3310 	mls	r3, lr, r0, r3
 80003a0:	ea41 4103 	orr.w	r1, r1, r3, lsl #16
 80003a4:	fb00 f308 	mul.w	r3, r0, r8
 80003a8:	428b      	cmp	r3, r1
 80003aa:	d907      	bls.n	80003bc <__udivmoddi4+0x1c4>
 80003ac:	1879      	adds	r1, r7, r1
 80003ae:	f100 3cff 	add.w	ip, r0, #4294967295
 80003b2:	d273      	bcs.n	800049c <__udivmoddi4+0x2a4>
 80003b4:	428b      	cmp	r3, r1
 80003b6:	d971      	bls.n	800049c <__udivmoddi4+0x2a4>
 80003b8:	3802      	subs	r0, #2
 80003ba:	4439      	add	r1, r7
 80003bc:	1acb      	subs	r3, r1, r3
 80003be:	ea40 4606 	orr.w	r6, r0, r6, lsl #16
 80003c2:	e778      	b.n	80002b6 <__udivmoddi4+0xbe>
 80003c4:	f1c6 0c20 	rsb	ip, r6, #32
 80003c8:	fa03 f406 	lsl.w	r4, r3, r6
 80003cc:	fa22 f30c 	lsr.w	r3, r2, ip
 80003d0:	431c      	orrs	r4, r3
 80003d2:	fa20 f70c 	lsr.w	r7, r0, ip
 80003d6:	fa01 f306 	lsl.w	r3, r1, r6
 80003da:	ea4f 4e14 	mov.w	lr, r4, lsr #16
 80003de:	fa21 f10c 	lsr.w	r1, r1, ip
 80003e2:	431f      	orrs	r7, r3
 80003e4:	0c3b      	lsrs	r3, r7, #16
 80003e6:	fbb1 f9fe 	udiv	r9, r1, lr
 80003ea:	fa1f f884 	uxth.w	r8, r4
 80003ee:	fb0e 1119 	mls	r1, lr, r9, r1
 80003f2:	ea43 4101 	orr.w	r1, r3, r1, lsl #16
 80003f6:	fb09 fa08 	mul.w	sl, r9, r8
 80003fa:	458a      	cmp	sl, r1
 80003fc:	fa02 f206 	lsl.w	r2, r2, r6
 8000400:	fa00 f306 	lsl.w	r3, r0, r6
 8000404:	d908      	bls.n	8000418 <__udivmoddi4+0x220>
 8000406:	1861      	adds	r1, r4, r1
 8000408:	f109 30ff 	add.w	r0, r9, #4294967295
 800040c:	d248      	bcs.n	80004a0 <__udivmoddi4+0x2a8>
 800040e:	458a      	cmp	sl, r1
 8000410:	d946      	bls.n	80004a0 <__udivmoddi4+0x2a8>
 8000412:	f1a9 0902 	sub.w	r9, r9, #2
 8000416:	4421      	add	r1, r4
 8000418:	eba1 010a 	sub.w	r1, r1, sl
 800041c:	b2bf      	uxth	r7, r7
 800041e:	fbb1 f0fe 	udiv	r0, r1, lr
 8000422:	fb0e 1110 	mls	r1, lr, r0, r1
 8000426:	ea47 4701 	orr.w	r7, r7, r1, lsl #16
 800042a:	fb00 f808 	mul.w	r8, r0, r8
 800042e:	45b8      	cmp	r8, r7
 8000430:	d907      	bls.n	8000442 <__udivmoddi4+0x24a>
 8000432:	19e7      	adds	r7, r4, r7
 8000434:	f100 31ff 	add.w	r1, r0, #4294967295
 8000438:	d22e      	bcs.n	8000498 <__udivmoddi4+0x2a0>
 800043a:	45b8      	cmp	r8, r7
 800043c:	d92c      	bls.n	8000498 <__udivmoddi4+0x2a0>
 800043e:	3802      	subs	r0, #2
 8000440:	4427      	add	r7, r4
 8000442:	ea40 4009 	orr.w	r0, r0, r9, lsl #16
 8000446:	eba7 0708 	sub.w	r7, r7, r8
 800044a:	fba0 8902 	umull	r8, r9, r0, r2
 800044e:	454f      	cmp	r7, r9
 8000450:	46c6      	mov	lr, r8
 8000452:	4649      	mov	r1, r9
 8000454:	d31a      	bcc.n	800048c <__udivmoddi4+0x294>
 8000456:	d017      	beq.n	8000488 <__udivmoddi4+0x290>
 8000458:	b15d      	cbz	r5, 8000472 <__udivmoddi4+0x27a>
 800045a:	ebb3 020e 	subs.w	r2, r3, lr
 800045e:	eb67 0701 	sbc.w	r7, r7, r1
 8000462:	fa07 fc0c 	lsl.w	ip, r7, ip
 8000466:	40f2      	lsrs	r2, r6
 8000468:	ea4c 0202 	orr.w	r2, ip, r2
 800046c:	40f7      	lsrs	r7, r6
 800046e:	e9c5 2700 	strd	r2, r7, [r5]
 8000472:	2600      	movs	r6, #0
 8000474:	4631      	mov	r1, r6
 8000476:	e8bd 87f0 	ldmia.w	sp!, {r4, r5, r6, r7, r8, r9, sl, pc}
 800047a:	462e      	mov	r6, r5
 800047c:	4628      	mov	r0, r5
 800047e:	e70b      	b.n	8000298 <__udivmoddi4+0xa0>
 8000480:	4606      	mov	r6, r0
 8000482:	e6e9      	b.n	8000258 <__udivmoddi4+0x60>
 8000484:	4618      	mov	r0, r3
 8000486:	e6fd      	b.n	8000284 <__udivmoddi4+0x8c>
 8000488:	4543      	cmp	r3, r8
 800048a:	d2e5      	bcs.n	8000458 <__udivmoddi4+0x260>
 800048c:	ebb8 0e02 	subs.w	lr, r8, r2
 8000490:	eb69 0104 	sbc.w	r1, r9, r4
 8000494:	3801      	subs	r0, #1
 8000496:	e7df      	b.n	8000458 <__udivmoddi4+0x260>
 8000498:	4608      	mov	r0, r1
 800049a:	e7d2      	b.n	8000442 <__udivmoddi4+0x24a>
 800049c:	4660      	mov	r0, ip
 800049e:	e78d      	b.n	80003bc <__udivmoddi4+0x1c4>
 80004a0:	4681      	mov	r9, r0
 80004a2:	e7b9      	b.n	8000418 <__udivmoddi4+0x220>
 80004a4:	4666      	mov	r6, ip
 80004a6:	e775      	b.n	8000394 <__udivmoddi4+0x19c>
 80004a8:	4630      	mov	r0, r6
 80004aa:	e74a      	b.n	8000342 <__udivmoddi4+0x14a>
 80004ac:	f1ac 0c02 	sub.w	ip, ip, #2
 80004b0:	4439      	add	r1, r7
 80004b2:	e713      	b.n	80002dc <__udivmoddi4+0xe4>
 80004b4:	3802      	subs	r0, #2
 80004b6:	443c      	add	r4, r7
 80004b8:	e724      	b.n	8000304 <__udivmoddi4+0x10c>
 80004ba:	bf00      	nop

080004bc <__aeabi_idiv0>:
 80004bc:	4770      	bx	lr
 80004be:	bf00      	nop

080004c0 <MX_DMA_Init>:
 80004c0:	b507      	push	{r0, r1, r2, lr}
 80004c2:	4b0b      	ldr	r3, [pc, #44]	; (80004f0 <MX_DMA_Init+0x30>)
 80004c4:	2200      	movs	r2, #0
 80004c6:	9201      	str	r2, [sp, #4]
 80004c8:	6b19      	ldr	r1, [r3, #48]	; 0x30
 80004ca:	f441 0180 	orr.w	r1, r1, #4194304	; 0x400000
 80004ce:	6319      	str	r1, [r3, #48]	; 0x30
 80004d0:	6b1b      	ldr	r3, [r3, #48]	; 0x30
 80004d2:	f403 0380 	and.w	r3, r3, #4194304	; 0x400000
 80004d6:	9301      	str	r3, [sp, #4]
 80004d8:	4611      	mov	r1, r2
 80004da:	2044      	movs	r0, #68	; 0x44
 80004dc:	9b01      	ldr	r3, [sp, #4]
 80004de:	f000 fb6b 	bl	8000bb8 <HAL_NVIC_SetPriority>
 80004e2:	2044      	movs	r0, #68	; 0x44
 80004e4:	b003      	add	sp, #12
 80004e6:	f85d eb04 	ldr.w	lr, [sp], #4
 80004ea:	f000 bb97 	b.w	8000c1c <HAL_NVIC_EnableIRQ>
 80004ee:	bf00      	nop
 80004f0:	40023800 	.word	0x40023800

080004f4 <MX_GPIO_Init>:
 80004f4:	e92d 41f0 	stmdb	sp!, {r4, r5, r6, r7, r8, lr}
 80004f8:	2214      	movs	r2, #20
 80004fa:	b08a      	sub	sp, #40	; 0x28
 80004fc:	eb0d 0002 	add.w	r0, sp, r2
 8000500:	2100      	movs	r1, #0
 8000502:	f001 fc77 	bl	8001df4 <memset>
 8000506:	2400      	movs	r4, #0
 8000508:	4b28      	ldr	r3, [pc, #160]	; (80005ac <MX_GPIO_Init+0xb8>)
 800050a:	9401      	str	r4, [sp, #4]
 800050c:	6b1a      	ldr	r2, [r3, #48]	; 0x30
 800050e:	f8df 80a4 	ldr.w	r8, [pc, #164]	; 80005b4 <MX_GPIO_Init+0xc0>
 8000512:	4d27      	ldr	r5, [pc, #156]	; (80005b0 <MX_GPIO_Init+0xbc>)
 8000514:	f042 0280 	orr.w	r2, r2, #128	; 0x80
 8000518:	631a      	str	r2, [r3, #48]	; 0x30
 800051a:	6b1a      	ldr	r2, [r3, #48]	; 0x30
 800051c:	f002 0280 	and.w	r2, r2, #128	; 0x80
 8000520:	9201      	str	r2, [sp, #4]
 8000522:	9a01      	ldr	r2, [sp, #4]
 8000524:	9402      	str	r4, [sp, #8]
 8000526:	6b1a      	ldr	r2, [r3, #48]	; 0x30
 8000528:	f042 0210 	orr.w	r2, r2, #16
 800052c:	631a      	str	r2, [r3, #48]	; 0x30
 800052e:	6b1a      	ldr	r2, [r3, #48]	; 0x30
 8000530:	f002 0210 	and.w	r2, r2, #16
 8000534:	9202      	str	r2, [sp, #8]
 8000536:	9a02      	ldr	r2, [sp, #8]
 8000538:	9403      	str	r4, [sp, #12]
 800053a:	6b1a      	ldr	r2, [r3, #48]	; 0x30
 800053c:	f042 0202 	orr.w	r2, r2, #2
 8000540:	631a      	str	r2, [r3, #48]	; 0x30
 8000542:	6b1a      	ldr	r2, [r3, #48]	; 0x30
 8000544:	f002 0202 	and.w	r2, r2, #2
 8000548:	9203      	str	r2, [sp, #12]
 800054a:	9a03      	ldr	r2, [sp, #12]
 800054c:	9404      	str	r4, [sp, #16]
 800054e:	6b1a      	ldr	r2, [r3, #48]	; 0x30
 8000550:	f042 0201 	orr.w	r2, r2, #1
 8000554:	631a      	str	r2, [r3, #48]	; 0x30
 8000556:	6b1b      	ldr	r3, [r3, #48]	; 0x30
 8000558:	f003 0301 	and.w	r3, r3, #1
 800055c:	9304      	str	r3, [sp, #16]
 800055e:	4622      	mov	r2, r4
 8000560:	4640      	mov	r0, r8
 8000562:	f44f 417f 	mov.w	r1, #65280	; 0xff00
 8000566:	9b04      	ldr	r3, [sp, #16]
 8000568:	f000 fde8 	bl	800113c <HAL_GPIO_WritePin>
 800056c:	4622      	mov	r2, r4
 800056e:	4628      	mov	r0, r5
 8000570:	f44f 5180 	mov.w	r1, #4096	; 0x1000
 8000574:	f000 fde2 	bl	800113c <HAL_GPIO_WritePin>
 8000578:	2701      	movs	r7, #1
 800057a:	f44f 437f 	mov.w	r3, #65280	; 0xff00
 800057e:	2603      	movs	r6, #3
 8000580:	a905      	add	r1, sp, #20
 8000582:	4640      	mov	r0, r8
 8000584:	e9cd 3705 	strd	r3, r7, [sp, #20]
 8000588:	9407      	str	r4, [sp, #28]
 800058a:	9608      	str	r6, [sp, #32]
 800058c:	f000 fcf8 	bl	8000f80 <HAL_GPIO_Init>
 8000590:	f44f 5380 	mov.w	r3, #4096	; 0x1000
 8000594:	a905      	add	r1, sp, #20
 8000596:	4628      	mov	r0, r5
 8000598:	e9cd 3705 	strd	r3, r7, [sp, #20]
 800059c:	e9cd 4607 	strd	r4, r6, [sp, #28]
 80005a0:	f000 fcee 	bl	8000f80 <HAL_GPIO_Init>
 80005a4:	b00a      	add	sp, #40	; 0x28
 80005a6:	e8bd 81f0 	ldmia.w	sp!, {r4, r5, r6, r7, r8, pc}
 80005aa:	bf00      	nop
 80005ac:	40023800 	.word	0x40023800
 80005b0:	40020400 	.word	0x40020400
 80005b4:	40021000 	.word	0x40021000

080005b8 <SystemClock_Config>:
 80005b8:	b530      	push	{r4, r5, lr}
 80005ba:	b095      	sub	sp, #84	; 0x54
 80005bc:	2210      	movs	r2, #16
 80005be:	2100      	movs	r1, #0
 80005c0:	a80a      	add	r0, sp, #40	; 0x28
 80005c2:	f001 fc17 	bl	8001df4 <memset>
 80005c6:	2100      	movs	r1, #0
 80005c8:	2214      	movs	r2, #20
 80005ca:	a803      	add	r0, sp, #12
 80005cc:	f001 fc12 	bl	8001df4 <memset>
 80005d0:	2400      	movs	r4, #0
 80005d2:	4b1c      	ldr	r3, [pc, #112]	; (8000644 <SystemClock_Config+0x8c>)
 80005d4:	9401      	str	r4, [sp, #4]
 80005d6:	6c1a      	ldr	r2, [r3, #64]	; 0x40
 80005d8:	f042 5280 	orr.w	r2, r2, #268435456	; 0x10000000
 80005dc:	641a      	str	r2, [r3, #64]	; 0x40
 80005de:	6c1b      	ldr	r3, [r3, #64]	; 0x40
 80005e0:	f003 5380 	and.w	r3, r3, #268435456	; 0x10000000
 80005e4:	9301      	str	r3, [sp, #4]
 80005e6:	9b01      	ldr	r3, [sp, #4]
 80005e8:	4b17      	ldr	r3, [pc, #92]	; (8000648 <SystemClock_Config+0x90>)
 80005ea:	9402      	str	r4, [sp, #8]
 80005ec:	681a      	ldr	r2, [r3, #0]
 80005ee:	f442 4280 	orr.w	r2, r2, #16384	; 0x4000
 80005f2:	601a      	str	r2, [r3, #0]
 80005f4:	681b      	ldr	r3, [r3, #0]
 80005f6:	f403 4380 	and.w	r3, r3, #16384	; 0x4000
 80005fa:	9302      	str	r3, [sp, #8]
 80005fc:	9b02      	ldr	r3, [sp, #8]
 80005fe:	2201      	movs	r2, #1
 8000600:	f44f 3380 	mov.w	r3, #65536	; 0x10000
 8000604:	e9cd 2308 	strd	r2, r3, [sp, #32]
 8000608:	2502      	movs	r5, #2
 800060a:	f44f 0380 	mov.w	r3, #4194304	; 0x400000
 800060e:	22a8      	movs	r2, #168	; 0xa8
 8000610:	e9cd 530e 	strd	r5, r3, [sp, #56]	; 0x38
 8000614:	a808      	add	r0, sp, #32
 8000616:	2304      	movs	r3, #4
 8000618:	e9cd 3210 	strd	r3, r2, [sp, #64]	; 0x40
 800061c:	e9cd 5312 	strd	r5, r3, [sp, #72]	; 0x48
 8000620:	f000 fd92 	bl	8001148 <HAL_RCC_OscConfig>
 8000624:	230f      	movs	r3, #15
 8000626:	e9cd 3503 	strd	r3, r5, [sp, #12]
 800062a:	f44f 51a0 	mov.w	r1, #5120	; 0x1400
 800062e:	f44f 5380 	mov.w	r3, #4096	; 0x1000
 8000632:	e9cd 1306 	strd	r1, r3, [sp, #24]
 8000636:	a803      	add	r0, sp, #12
 8000638:	2105      	movs	r1, #5
 800063a:	9405      	str	r4, [sp, #20]
 800063c:	f000 ff5a 	bl	80014f4 <HAL_RCC_ClockConfig>
 8000640:	b015      	add	sp, #84	; 0x54
 8000642:	bd30      	pop	{r4, r5, pc}
 8000644:	40023800 	.word	0x40023800
 8000648:	40007000 	.word	0x40007000

0800064c <main>:
 800064c:	b508      	push	{r3, lr}
 800064e:	f000 fa75 	bl	8000b3c <HAL_Init>
 8000652:	f7ff ffb1 	bl	80005b8 <SystemClock_Config>
 8000656:	f7ff ff4d 	bl	80004f4 <MX_GPIO_Init>
 800065a:	f7ff ff31 	bl	80004c0 <MX_DMA_Init>
 800065e:	f000 f91f 	bl	80008a0 <MX_TIM1_Init>
 8000662:	f000 f9d5 	bl	8000a10 <MX_TIM2_Init>
 8000666:	f000 f815 	bl	8000694 <UB_VGA_Screen_Init>
 800066a:	20ff      	movs	r0, #255	; 0xff
 800066c:	f000 f86a 	bl	8000744 <UB_VGA_FillScreen>
 8000670:	220a      	movs	r2, #10
 8000672:	4611      	mov	r1, r2
 8000674:	4610      	mov	r0, r2
 8000676:	f000 f853 	bl	8000720 <UB_VGA_SetPixel>
 800067a:	2100      	movs	r1, #0
 800067c:	4608      	mov	r0, r1
 800067e:	220a      	movs	r2, #10
 8000680:	f000 f84e 	bl	8000720 <UB_VGA_SetPixel>
 8000684:	220a      	movs	r2, #10
 8000686:	2100      	movs	r1, #0
 8000688:	f240 103f 	movw	r0, #319	; 0x13f
 800068c:	f000 f848 	bl	8000720 <UB_VGA_SetPixel>
 8000690:	e7fe      	b.n	8000690 <main+0x44>

08000692 <Error_Handler>:
 8000692:	4770      	bx	lr

08000694 <UB_VGA_Screen_Init>:
 8000694:	b538      	push	{r3, r4, r5, lr}
 8000696:	4c1b      	ldr	r4, [pc, #108]	; (8000704 <UB_VGA_Screen_Init+0x70>)
 8000698:	4d1b      	ldr	r5, [pc, #108]	; (8000708 <UB_VGA_Screen_Init+0x74>)
 800069a:	2300      	movs	r3, #0
 800069c:	e9c4 3301 	strd	r3, r3, [r4, #4]
 80006a0:	8023      	strh	r3, [r4, #0]
 80006a2:	f103 4380 	add.w	r3, r3, #1073741824	; 0x40000000
 80006a6:	f503 3301 	add.w	r3, r3, #132096	; 0x20400
 80006aa:	f44f 5280 	mov.w	r2, #4096	; 0x1000
 80006ae:	619a      	str	r2, [r3, #24]
 80006b0:	4628      	mov	r0, r5
 80006b2:	f001 f849 	bl	8001748 <HAL_TIM_Base_Start>
 80006b6:	210c      	movs	r1, #12
 80006b8:	4628      	mov	r0, r5
 80006ba:	f001 fafb 	bl	8001cb4 <HAL_TIM_PWM_Start>
 80006be:	2108      	movs	r1, #8
 80006c0:	4628      	mov	r0, r5
 80006c2:	f001 fb31 	bl	8001d28 <HAL_TIM_PWM_Start_IT>
 80006c6:	4b11      	ldr	r3, [pc, #68]	; (800070c <UB_VGA_Screen_Init+0x78>)
 80006c8:	4d11      	ldr	r5, [pc, #68]	; (8000710 <UB_VGA_Screen_Init+0x7c>)
 80006ca:	681b      	ldr	r3, [r3, #0]
 80006cc:	4911      	ldr	r1, [pc, #68]	; (8000714 <UB_VGA_Screen_Init+0x80>)
 80006ce:	68da      	ldr	r2, [r3, #12]
 80006d0:	f442 7280 	orr.w	r2, r2, #256	; 0x100
 80006d4:	60da      	str	r2, [r3, #12]
 80006d6:	681a      	ldr	r2, [r3, #0]
 80006d8:	f042 0201 	orr.w	r2, r2, #1
 80006dc:	601a      	str	r2, [r3, #0]
 80006de:	4628      	mov	r0, r5
 80006e0:	4a0d      	ldr	r2, [pc, #52]	; (8000718 <UB_VGA_Screen_Init+0x84>)
 80006e2:	f240 1341 	movw	r3, #321	; 0x141
 80006e6:	f000 fb53 	bl	8000d90 <HAL_DMA_Start_IT>
 80006ea:	4628      	mov	r0, r5
 80006ec:	f000 fad0 	bl	8000c90 <HAL_DMA_Init>
 80006f0:	682a      	ldr	r2, [r5, #0]
 80006f2:	6813      	ldr	r3, [r2, #0]
 80006f4:	f043 0310 	orr.w	r3, r3, #16
 80006f8:	6013      	str	r3, [r2, #0]
 80006fa:	4b08      	ldr	r3, [pc, #32]	; (800071c <UB_VGA_Screen_Init+0x88>)
 80006fc:	681b      	ldr	r3, [r3, #0]
 80006fe:	60a3      	str	r3, [r4, #8]
 8000700:	bd38      	pop	{r3, r4, r5, pc}
 8000702:	bf00      	nop
 8000704:	20000028 	.word	0x20000028
 8000708:	20012dc4 	.word	0x20012dc4
 800070c:	20012d24 	.word	0x20012d24
 8000710:	20012d64 	.word	0x20012d64
 8000714:	20000034 	.word	0x20000034
 8000718:	40021015 	.word	0x40021015
 800071c:	40026488 	.word	0x40026488

08000720 <UB_VGA_SetPixel>:
 8000720:	4b07      	ldr	r3, [pc, #28]	; (8000740 <UB_VGA_SetPixel+0x20>)
 8000722:	b510      	push	{r4, lr}
 8000724:	29ef      	cmp	r1, #239	; 0xef
 8000726:	bf88      	it	hi
 8000728:	2100      	movhi	r1, #0
 800072a:	f240 1441 	movw	r4, #321	; 0x141
 800072e:	f5b0 7fa0 	cmp.w	r0, #320	; 0x140
 8000732:	bf28      	it	cs
 8000734:	2000      	movcs	r0, #0
 8000736:	fb04 3101 	mla	r1, r4, r1, r3
 800073a:	540a      	strb	r2, [r1, r0]
 800073c:	bd10      	pop	{r4, pc}
 800073e:	bf00      	nop
 8000740:	20000034 	.word	0x20000034

08000744 <UB_VGA_FillScreen>:
 8000744:	b538      	push	{r3, r4, r5, lr}
 8000746:	4602      	mov	r2, r0
 8000748:	2400      	movs	r4, #0
 800074a:	2500      	movs	r5, #0
 800074c:	b2a8      	uxth	r0, r5
 800074e:	4621      	mov	r1, r4
 8000750:	3501      	adds	r5, #1
 8000752:	f7ff ffe5 	bl	8000720 <UB_VGA_SetPixel>
 8000756:	f5b5 7fa0 	cmp.w	r5, #320	; 0x140
 800075a:	d1f7      	bne.n	800074c <UB_VGA_FillScreen+0x8>
 800075c:	3401      	adds	r4, #1
 800075e:	b2a4      	uxth	r4, r4
 8000760:	2cf0      	cmp	r4, #240	; 0xf0
 8000762:	d1f2      	bne.n	800074a <UB_VGA_FillScreen+0x6>
 8000764:	bd38      	pop	{r3, r4, r5, pc}
	...

08000768 <HAL_MspInit>:
 8000768:	b082      	sub	sp, #8
 800076a:	4b0c      	ldr	r3, [pc, #48]	; (800079c <HAL_MspInit+0x34>)
 800076c:	2100      	movs	r1, #0
 800076e:	9100      	str	r1, [sp, #0]
 8000770:	6c5a      	ldr	r2, [r3, #68]	; 0x44
 8000772:	f442 4280 	orr.w	r2, r2, #16384	; 0x4000
 8000776:	645a      	str	r2, [r3, #68]	; 0x44
 8000778:	6c5a      	ldr	r2, [r3, #68]	; 0x44
 800077a:	f402 4280 	and.w	r2, r2, #16384	; 0x4000
 800077e:	9200      	str	r2, [sp, #0]
 8000780:	9a00      	ldr	r2, [sp, #0]
 8000782:	9101      	str	r1, [sp, #4]
 8000784:	6c1a      	ldr	r2, [r3, #64]	; 0x40
 8000786:	f042 5280 	orr.w	r2, r2, #268435456	; 0x10000000
 800078a:	641a      	str	r2, [r3, #64]	; 0x40
 800078c:	6c1b      	ldr	r3, [r3, #64]	; 0x40
 800078e:	f003 5380 	and.w	r3, r3, #268435456	; 0x10000000
 8000792:	9301      	str	r3, [sp, #4]
 8000794:	9b01      	ldr	r3, [sp, #4]
 8000796:	b002      	add	sp, #8
 8000798:	4770      	bx	lr
 800079a:	bf00      	nop
 800079c:	40023800 	.word	0x40023800

080007a0 <NMI_Handler>:
 80007a0:	4770      	bx	lr

080007a2 <HardFault_Handler>:
 80007a2:	e7fe      	b.n	80007a2 <HardFault_Handler>

080007a4 <MemManage_Handler>:
 80007a4:	e7fe      	b.n	80007a4 <MemManage_Handler>

080007a6 <BusFault_Handler>:
 80007a6:	e7fe      	b.n	80007a6 <BusFault_Handler>

080007a8 <UsageFault_Handler>:
 80007a8:	e7fe      	b.n	80007a8 <UsageFault_Handler>

080007aa <SVC_Handler>:
 80007aa:	4770      	bx	lr

080007ac <DebugMon_Handler>:
 80007ac:	4770      	bx	lr

080007ae <PendSV_Handler>:
 80007ae:	4770      	bx	lr

080007b0 <SysTick_Handler>:
 80007b0:	f000 b9de 	b.w	8000b70 <HAL_IncTick>

080007b4 <TIM2_IRQHandler>:
 80007b4:	b510      	push	{r4, lr}
 80007b6:	4c1d      	ldr	r4, [pc, #116]	; (800082c <TIM2_IRQHandler+0x78>)
 80007b8:	4620      	mov	r0, r4
 80007ba:	f000 ffdc 	bl	8001776 <HAL_TIM_IRQHandler>
 80007be:	6823      	ldr	r3, [r4, #0]
 80007c0:	f06f 0208 	mvn.w	r2, #8
 80007c4:	611a      	str	r2, [r3, #16]
 80007c6:	4b1a      	ldr	r3, [pc, #104]	; (8000830 <TIM2_IRQHandler+0x7c>)
 80007c8:	881a      	ldrh	r2, [r3, #0]
 80007ca:	3201      	adds	r2, #1
 80007cc:	b292      	uxth	r2, r2
 80007ce:	f5b2 7f03 	cmp.w	r2, #524	; 0x20c
 80007d2:	bf86      	itte	hi
 80007d4:	2200      	movhi	r2, #0
 80007d6:	801a      	strhhi	r2, [r3, #0]
 80007d8:	801a      	strhls	r2, [r3, #0]
 80007da:	8819      	ldrh	r1, [r3, #0]
 80007dc:	bf84      	itt	hi
 80007de:	4a15      	ldrhi	r2, [pc, #84]	; (8000834 <TIM2_IRQHandler+0x80>)
 80007e0:	605a      	strhi	r2, [r3, #4]
 80007e2:	2902      	cmp	r1, #2
 80007e4:	4a14      	ldr	r2, [pc, #80]	; (8000838 <TIM2_IRQHandler+0x84>)
 80007e6:	bf34      	ite	cc
 80007e8:	f04f 5080 	movcc.w	r0, #268435456	; 0x10000000
 80007ec:	f44f 5080 	movcs.w	r0, #4096	; 0x1000
 80007f0:	6190      	str	r0, [r2, #24]
 80007f2:	f1a1 0224 	sub.w	r2, r1, #36	; 0x24
 80007f6:	f5b2 7fef 	cmp.w	r2, #478	; 0x1de
 80007fa:	d815      	bhi.n	8000828 <TIM2_IRQHandler+0x74>
 80007fc:	480f      	ldr	r0, [pc, #60]	; (800083c <TIM2_IRQHandler+0x88>)
 80007fe:	689a      	ldr	r2, [r3, #8]
 8000800:	6002      	str	r2, [r0, #0]
 8000802:	685a      	ldr	r2, [r3, #4]
 8000804:	4c0e      	ldr	r4, [pc, #56]	; (8000840 <TIM2_IRQHandler+0x8c>)
 8000806:	60c2      	str	r2, [r0, #12]
 8000808:	6820      	ldr	r0, [r4, #0]
 800080a:	f040 0001 	orr.w	r0, r0, #1
 800080e:	6020      	str	r0, [r4, #0]
 8000810:	480c      	ldr	r0, [pc, #48]	; (8000844 <TIM2_IRQHandler+0x90>)
 8000812:	6804      	ldr	r4, [r0, #0]
 8000814:	6820      	ldr	r0, [r4, #0]
 8000816:	07c9      	lsls	r1, r1, #31
 8000818:	f040 0001 	orr.w	r0, r0, #1
 800081c:	bf48      	it	mi
 800081e:	f202 1241 	addwmi	r2, r2, #321	; 0x141
 8000822:	6020      	str	r0, [r4, #0]
 8000824:	bf48      	it	mi
 8000826:	605a      	strmi	r2, [r3, #4]
 8000828:	bd10      	pop	{r4, pc}
 800082a:	bf00      	nop
 800082c:	20012dc4 	.word	0x20012dc4
 8000830:	20000028 	.word	0x20000028
 8000834:	20000034 	.word	0x20000034
 8000838:	40020400 	.word	0x40020400
 800083c:	40026488 	.word	0x40026488
 8000840:	40010000 	.word	0x40010000
 8000844:	20012d64 	.word	0x20012d64

08000848 <DMA2_Stream5_IRQHandler>:
 8000848:	4b0b      	ldr	r3, [pc, #44]	; (8000878 <DMA2_Stream5_IRQHandler+0x30>)
 800084a:	681b      	ldr	r3, [r3, #0]
 800084c:	6a19      	ldr	r1, [r3, #32]
 800084e:	f241 1211 	movw	r2, #4369	; 0x1111
 8000852:	4211      	tst	r1, r2
 8000854:	d108      	bne.n	8000868 <DMA2_Stream5_IRQHandler+0x20>
 8000856:	6a19      	ldr	r1, [r3, #32]
 8000858:	f240 4244 	movw	r2, #1092	; 0x444
 800085c:	4211      	tst	r1, r2
 800085e:	bf02      	ittt	eq
 8000860:	681a      	ldreq	r2, [r3, #0]
 8000862:	f022 0201 	biceq.w	r2, r2, #1
 8000866:	601a      	streq	r2, [r3, #0]
 8000868:	4b04      	ldr	r3, [pc, #16]	; (800087c <DMA2_Stream5_IRQHandler+0x34>)
 800086a:	4805      	ldr	r0, [pc, #20]	; (8000880 <DMA2_Stream5_IRQHandler+0x38>)
 800086c:	f04f 427f 	mov.w	r2, #4278190080	; 0xff000000
 8000870:	619a      	str	r2, [r3, #24]
 8000872:	f000 bac7 	b.w	8000e04 <HAL_DMA_IRQHandler>
 8000876:	bf00      	nop
 8000878:	20012d24 	.word	0x20012d24
 800087c:	40021000 	.word	0x40021000
 8000880:	20012d64 	.word	0x20012d64

08000884 <SystemInit>:
 8000884:	4b05      	ldr	r3, [pc, #20]	; (800089c <SystemInit+0x18>)
 8000886:	f8d3 2088 	ldr.w	r2, [r3, #136]	; 0x88
 800088a:	f442 0270 	orr.w	r2, r2, #15728640	; 0xf00000
 800088e:	f8c3 2088 	str.w	r2, [r3, #136]	; 0x88
 8000892:	f04f 6200 	mov.w	r2, #134217728	; 0x8000000
 8000896:	609a      	str	r2, [r3, #8]
 8000898:	4770      	bx	lr
 800089a:	bf00      	nop
 800089c:	e000ed00 	.word	0xe000ed00

080008a0 <MX_TIM1_Init>:
 80008a0:	b57f      	push	{r0, r1, r2, r3, r4, r5, r6, lr}
 80008a2:	2210      	movs	r2, #16
 80008a4:	2100      	movs	r1, #0
 80008a6:	a802      	add	r0, sp, #8
 80008a8:	f001 faa4 	bl	8001df4 <memset>
 80008ac:	4814      	ldr	r0, [pc, #80]	; (8000900 <MX_TIM1_Init+0x60>)
 80008ae:	4a15      	ldr	r2, [pc, #84]	; (8000904 <MX_TIM1_Init+0x64>)
 80008b0:	2300      	movs	r3, #0
 80008b2:	e9c0 2300 	strd	r2, r3, [r0]
 80008b6:	220b      	movs	r2, #11
 80008b8:	e9cd 3300 	strd	r3, r3, [sp]
 80008bc:	e9c0 2303 	strd	r2, r3, [r0, #12]
 80008c0:	e9c0 3305 	strd	r3, r3, [r0, #20]
 80008c4:	6083      	str	r3, [r0, #8]
 80008c6:	f001 f85f 	bl	8001988 <HAL_TIM_Base_Init>
 80008ca:	b108      	cbz	r0, 80008d0 <MX_TIM1_Init+0x30>
 80008cc:	f7ff fee1 	bl	8000692 <Error_Handler>
 80008d0:	f44f 5380 	mov.w	r3, #4096	; 0x1000
 80008d4:	480a      	ldr	r0, [pc, #40]	; (8000900 <MX_TIM1_Init+0x60>)
 80008d6:	9302      	str	r3, [sp, #8]
 80008d8:	a902      	add	r1, sp, #8
 80008da:	f001 f929 	bl	8001b30 <HAL_TIM_ConfigClockSource>
 80008de:	b108      	cbz	r0, 80008e4 <MX_TIM1_Init+0x44>
 80008e0:	f7ff fed7 	bl	8000692 <Error_Handler>
 80008e4:	2300      	movs	r3, #0
 80008e6:	4806      	ldr	r0, [pc, #24]	; (8000900 <MX_TIM1_Init+0x60>)
 80008e8:	4669      	mov	r1, sp
 80008ea:	e9cd 3300 	strd	r3, r3, [sp]
 80008ee:	f001 fa1d 	bl	8001d2c <HAL_TIMEx_MasterConfigSynchronization>
 80008f2:	b108      	cbz	r0, 80008f8 <MX_TIM1_Init+0x58>
 80008f4:	f7ff fecd 	bl	8000692 <Error_Handler>
 80008f8:	b007      	add	sp, #28
 80008fa:	f85d fb04 	ldr.w	pc, [sp], #4
 80008fe:	bf00      	nop
 8000900:	20012d24 	.word	0x20012d24
 8000904:	40010000 	.word	0x40010000

08000908 <HAL_TIM_Base_MspInit>:
 8000908:	b537      	push	{r0, r1, r2, r4, r5, lr}
 800090a:	4b17      	ldr	r3, [pc, #92]	; (8000968 <HAL_TIM_Base_MspInit+0x60>)
 800090c:	6802      	ldr	r2, [r0, #0]
 800090e:	429a      	cmp	r2, r3
 8000910:	4605      	mov	r5, r0
 8000912:	d126      	bne.n	8000962 <HAL_TIM_Base_MspInit+0x5a>
 8000914:	2300      	movs	r3, #0
 8000916:	4a15      	ldr	r2, [pc, #84]	; (800096c <HAL_TIM_Base_MspInit+0x64>)
 8000918:	9301      	str	r3, [sp, #4]
 800091a:	6c51      	ldr	r1, [r2, #68]	; 0x44
 800091c:	4c14      	ldr	r4, [pc, #80]	; (8000970 <HAL_TIM_Base_MspInit+0x68>)
 800091e:	f041 0101 	orr.w	r1, r1, #1
 8000922:	6451      	str	r1, [r2, #68]	; 0x44
 8000924:	6c52      	ldr	r2, [r2, #68]	; 0x44
 8000926:	4913      	ldr	r1, [pc, #76]	; (8000974 <HAL_TIM_Base_MspInit+0x6c>)
 8000928:	f002 0201 	and.w	r2, r2, #1
 800092c:	9201      	str	r2, [sp, #4]
 800092e:	9a01      	ldr	r2, [sp, #4]
 8000930:	f04f 6240 	mov.w	r2, #201326592	; 0xc000000
 8000934:	e9c4 1200 	strd	r1, r2, [r4]
 8000938:	2240      	movs	r2, #64	; 0x40
 800093a:	e9c4 2302 	strd	r2, r3, [r4, #8]
 800093e:	f44f 6280 	mov.w	r2, #1024	; 0x400
 8000942:	e9c4 2304 	strd	r2, r3, [r4, #16]
 8000946:	4620      	mov	r0, r4
 8000948:	f44f 3240 	mov.w	r2, #196608	; 0x30000
 800094c:	e9c4 3306 	strd	r3, r3, [r4, #24]
 8000950:	e9c4 2308 	strd	r2, r3, [r4, #32]
 8000954:	f000 f99c 	bl	8000c90 <HAL_DMA_Init>
 8000958:	b108      	cbz	r0, 800095e <HAL_TIM_Base_MspInit+0x56>
 800095a:	f7ff fe9a 	bl	8000692 <Error_Handler>
 800095e:	622c      	str	r4, [r5, #32]
 8000960:	63a5      	str	r5, [r4, #56]	; 0x38
 8000962:	b003      	add	sp, #12
 8000964:	bd30      	pop	{r4, r5, pc}
 8000966:	bf00      	nop
 8000968:	40010000 	.word	0x40010000
 800096c:	40023800 	.word	0x40023800
 8000970:	20012d64 	.word	0x20012d64
 8000974:	40026488 	.word	0x40026488

08000978 <HAL_TIM_PWM_MspInit>:
 8000978:	6803      	ldr	r3, [r0, #0]
 800097a:	f1b3 4f80 	cmp.w	r3, #1073741824	; 0x40000000
 800097e:	b507      	push	{r0, r1, r2, lr}
 8000980:	d116      	bne.n	80009b0 <HAL_TIM_PWM_MspInit+0x38>
 8000982:	2200      	movs	r2, #0
 8000984:	f503 330e 	add.w	r3, r3, #145408	; 0x23800
 8000988:	9201      	str	r2, [sp, #4]
 800098a:	6c19      	ldr	r1, [r3, #64]	; 0x40
 800098c:	f041 0101 	orr.w	r1, r1, #1
 8000990:	6419      	str	r1, [r3, #64]	; 0x40
 8000992:	6c1b      	ldr	r3, [r3, #64]	; 0x40
 8000994:	f003 0301 	and.w	r3, r3, #1
 8000998:	9301      	str	r3, [sp, #4]
 800099a:	4611      	mov	r1, r2
 800099c:	201c      	movs	r0, #28
 800099e:	9b01      	ldr	r3, [sp, #4]
 80009a0:	f000 f90a 	bl	8000bb8 <HAL_NVIC_SetPriority>
 80009a4:	201c      	movs	r0, #28
 80009a6:	b003      	add	sp, #12
 80009a8:	f85d eb04 	ldr.w	lr, [sp], #4
 80009ac:	f000 b936 	b.w	8000c1c <HAL_NVIC_EnableIRQ>
 80009b0:	b003      	add	sp, #12
 80009b2:	f85d fb04 	ldr.w	pc, [sp], #4
	...

080009b8 <HAL_TIM_MspPostInit>:
 80009b8:	b510      	push	{r4, lr}
 80009ba:	4604      	mov	r4, r0
 80009bc:	b086      	sub	sp, #24
 80009be:	2214      	movs	r2, #20
 80009c0:	2100      	movs	r1, #0
 80009c2:	a801      	add	r0, sp, #4
 80009c4:	f001 fa16 	bl	8001df4 <memset>
 80009c8:	6823      	ldr	r3, [r4, #0]
 80009ca:	f1b3 4f80 	cmp.w	r3, #1073741824	; 0x40000000
 80009ce:	d11a      	bne.n	8000a06 <HAL_TIM_MspPostInit+0x4e>
 80009d0:	2100      	movs	r1, #0
 80009d2:	f503 330e 	add.w	r3, r3, #145408	; 0x23800
 80009d6:	9100      	str	r1, [sp, #0]
 80009d8:	6b1a      	ldr	r2, [r3, #48]	; 0x30
 80009da:	480c      	ldr	r0, [pc, #48]	; (8000a0c <HAL_TIM_MspPostInit+0x54>)
 80009dc:	f042 0202 	orr.w	r2, r2, #2
 80009e0:	631a      	str	r2, [r3, #48]	; 0x30
 80009e2:	6b1b      	ldr	r3, [r3, #48]	; 0x30
 80009e4:	9103      	str	r1, [sp, #12]
 80009e6:	f003 0302 	and.w	r3, r3, #2
 80009ea:	9300      	str	r3, [sp, #0]
 80009ec:	9b00      	ldr	r3, [sp, #0]
 80009ee:	f44f 6200 	mov.w	r2, #2048	; 0x800
 80009f2:	2302      	movs	r3, #2
 80009f4:	2103      	movs	r1, #3
 80009f6:	e9cd 2301 	strd	r2, r3, [sp, #4]
 80009fa:	2301      	movs	r3, #1
 80009fc:	e9cd 1304 	strd	r1, r3, [sp, #16]
 8000a00:	a901      	add	r1, sp, #4
 8000a02:	f000 fabd 	bl	8000f80 <HAL_GPIO_Init>
 8000a06:	b006      	add	sp, #24
 8000a08:	bd10      	pop	{r4, pc}
 8000a0a:	bf00      	nop
 8000a0c:	40020400 	.word	0x40020400

08000a10 <MX_TIM2_Init>:
 8000a10:	b510      	push	{r4, lr}
 8000a12:	2400      	movs	r4, #0
 8000a14:	b08a      	sub	sp, #40	; 0x28
 8000a16:	221c      	movs	r2, #28
 8000a18:	4621      	mov	r1, r4
 8000a1a:	a803      	add	r0, sp, #12
 8000a1c:	e9cd 4401 	strd	r4, r4, [sp, #4]
 8000a20:	f001 f9e8 	bl	8001df4 <memset>
 8000a24:	481d      	ldr	r0, [pc, #116]	; (8000a9c <MX_TIM2_Init+0x8c>)
 8000a26:	f04f 4380 	mov.w	r3, #1073741824	; 0x40000000
 8000a2a:	e9c0 3400 	strd	r3, r4, [r0]
 8000a2e:	f640 236b 	movw	r3, #2667	; 0xa6b
 8000a32:	e9c0 3403 	strd	r3, r4, [r0, #12]
 8000a36:	6084      	str	r4, [r0, #8]
 8000a38:	6184      	str	r4, [r0, #24]
 8000a3a:	f000 ffbf 	bl	80019bc <HAL_TIM_PWM_Init>
 8000a3e:	b108      	cbz	r0, 8000a44 <MX_TIM2_Init+0x34>
 8000a40:	f7ff fe27 	bl	8000692 <Error_Handler>
 8000a44:	4815      	ldr	r0, [pc, #84]	; (8000a9c <MX_TIM2_Init+0x8c>)
 8000a46:	a901      	add	r1, sp, #4
 8000a48:	e9cd 4401 	strd	r4, r4, [sp, #4]
 8000a4c:	f001 f96e 	bl	8001d2c <HAL_TIMEx_MasterConfigSynchronization>
 8000a50:	b108      	cbz	r0, 8000a56 <MX_TIM2_Init+0x46>
 8000a52:	f7ff fe1e 	bl	8000692 <Error_Handler>
 8000a56:	2260      	movs	r2, #96	; 0x60
 8000a58:	f240 13bb 	movw	r3, #443	; 0x1bb
 8000a5c:	e9cd 2303 	strd	r2, r3, [sp, #12]
 8000a60:	2302      	movs	r3, #2
 8000a62:	9305      	str	r3, [sp, #20]
 8000a64:	480d      	ldr	r0, [pc, #52]	; (8000a9c <MX_TIM2_Init+0x8c>)
 8000a66:	2300      	movs	r3, #0
 8000a68:	2208      	movs	r2, #8
 8000a6a:	a903      	add	r1, sp, #12
 8000a6c:	9307      	str	r3, [sp, #28]
 8000a6e:	f000 fff5 	bl	8001a5c <HAL_TIM_PWM_ConfigChannel>
 8000a72:	b108      	cbz	r0, 8000a78 <MX_TIM2_Init+0x68>
 8000a74:	f7ff fe0d 	bl	8000692 <Error_Handler>
 8000a78:	220c      	movs	r2, #12
 8000a7a:	f44f 73a0 	mov.w	r3, #320	; 0x140
 8000a7e:	4807      	ldr	r0, [pc, #28]	; (8000a9c <MX_TIM2_Init+0x8c>)
 8000a80:	9304      	str	r3, [sp, #16]
 8000a82:	eb0d 0102 	add.w	r1, sp, r2
 8000a86:	f000 ffe9 	bl	8001a5c <HAL_TIM_PWM_ConfigChannel>
 8000a8a:	b108      	cbz	r0, 8000a90 <MX_TIM2_Init+0x80>
 8000a8c:	f7ff fe01 	bl	8000692 <Error_Handler>
 8000a90:	4802      	ldr	r0, [pc, #8]	; (8000a9c <MX_TIM2_Init+0x8c>)
 8000a92:	f7ff ff91 	bl	80009b8 <HAL_TIM_MspPostInit>
 8000a96:	b00a      	add	sp, #40	; 0x28
 8000a98:	bd10      	pop	{r4, pc}
 8000a9a:	bf00      	nop
 8000a9c:	20012dc4 	.word	0x20012dc4

08000aa0 <Reset_Handler>:
 8000aa0:	f8df d034 	ldr.w	sp, [pc, #52]	; 8000ad8 <LoopFillZerobss+0x14>
 8000aa4:	2100      	movs	r1, #0
 8000aa6:	e003      	b.n	8000ab0 <LoopCopyDataInit>

08000aa8 <CopyDataInit>:
 8000aa8:	4b0c      	ldr	r3, [pc, #48]	; (8000adc <LoopFillZerobss+0x18>)
 8000aaa:	585b      	ldr	r3, [r3, r1]
 8000aac:	5043      	str	r3, [r0, r1]
 8000aae:	3104      	adds	r1, #4

08000ab0 <LoopCopyDataInit>:
 8000ab0:	480b      	ldr	r0, [pc, #44]	; (8000ae0 <LoopFillZerobss+0x1c>)
 8000ab2:	4b0c      	ldr	r3, [pc, #48]	; (8000ae4 <LoopFillZerobss+0x20>)
 8000ab4:	1842      	adds	r2, r0, r1
 8000ab6:	429a      	cmp	r2, r3
 8000ab8:	d3f6      	bcc.n	8000aa8 <CopyDataInit>
 8000aba:	4a0b      	ldr	r2, [pc, #44]	; (8000ae8 <LoopFillZerobss+0x24>)
 8000abc:	e002      	b.n	8000ac4 <LoopFillZerobss>

08000abe <FillZerobss>:
 8000abe:	2300      	movs	r3, #0
 8000ac0:	f842 3b04 	str.w	r3, [r2], #4

08000ac4 <LoopFillZerobss>:
 8000ac4:	4b09      	ldr	r3, [pc, #36]	; (8000aec <LoopFillZerobss+0x28>)
 8000ac6:	429a      	cmp	r2, r3
 8000ac8:	d3f9      	bcc.n	8000abe <FillZerobss>
 8000aca:	f7ff fedb 	bl	8000884 <SystemInit>
 8000ace:	f001 f96d 	bl	8001dac <__libc_init_array>
 8000ad2:	f7ff fdbb 	bl	800064c <main>
 8000ad6:	4770      	bx	lr
 8000ad8:	20020000 	.word	0x20020000
 8000adc:	08001e44 	.word	0x08001e44
 8000ae0:	20000000 	.word	0x20000000
 8000ae4:	2000000c 	.word	0x2000000c
 8000ae8:	2000000c 	.word	0x2000000c
 8000aec:	20012e08 	.word	0x20012e08

08000af0 <ADC_IRQHandler>:
 8000af0:	e7fe      	b.n	8000af0 <ADC_IRQHandler>
	...

08000af4 <HAL_InitTick>:
 8000af4:	b538      	push	{r3, r4, r5, lr}
 8000af6:	4a0e      	ldr	r2, [pc, #56]	; (8000b30 <HAL_InitTick+0x3c>)
 8000af8:	4b0e      	ldr	r3, [pc, #56]	; (8000b34 <HAL_InitTick+0x40>)
 8000afa:	4605      	mov	r5, r0
 8000afc:	7818      	ldrb	r0, [r3, #0]
 8000afe:	f44f 737a 	mov.w	r3, #1000	; 0x3e8
 8000b02:	fbb3 f3f0 	udiv	r3, r3, r0
 8000b06:	6810      	ldr	r0, [r2, #0]
 8000b08:	fbb0 f0f3 	udiv	r0, r0, r3
 8000b0c:	f000 f894 	bl	8000c38 <HAL_SYSTICK_Config>
 8000b10:	4604      	mov	r4, r0
 8000b12:	b958      	cbnz	r0, 8000b2c <HAL_InitTick+0x38>
 8000b14:	2d0f      	cmp	r5, #15
 8000b16:	d809      	bhi.n	8000b2c <HAL_InitTick+0x38>
 8000b18:	4602      	mov	r2, r0
 8000b1a:	4629      	mov	r1, r5
 8000b1c:	f04f 30ff 	mov.w	r0, #4294967295
 8000b20:	f000 f84a 	bl	8000bb8 <HAL_NVIC_SetPriority>
 8000b24:	4b04      	ldr	r3, [pc, #16]	; (8000b38 <HAL_InitTick+0x44>)
 8000b26:	4620      	mov	r0, r4
 8000b28:	601d      	str	r5, [r3, #0]
 8000b2a:	bd38      	pop	{r3, r4, r5, pc}
 8000b2c:	2001      	movs	r0, #1
 8000b2e:	e7fc      	b.n	8000b2a <HAL_InitTick+0x36>
 8000b30:	20000000 	.word	0x20000000
 8000b34:	20000004 	.word	0x20000004
 8000b38:	20000008 	.word	0x20000008

08000b3c <HAL_Init>:
 8000b3c:	b508      	push	{r3, lr}
 8000b3e:	4b0b      	ldr	r3, [pc, #44]	; (8000b6c <HAL_Init+0x30>)
 8000b40:	681a      	ldr	r2, [r3, #0]
 8000b42:	f442 7200 	orr.w	r2, r2, #512	; 0x200
 8000b46:	601a      	str	r2, [r3, #0]
 8000b48:	681a      	ldr	r2, [r3, #0]
 8000b4a:	f442 6280 	orr.w	r2, r2, #1024	; 0x400
 8000b4e:	601a      	str	r2, [r3, #0]
 8000b50:	681a      	ldr	r2, [r3, #0]
 8000b52:	f442 7280 	orr.w	r2, r2, #256	; 0x100
 8000b56:	601a      	str	r2, [r3, #0]
 8000b58:	2003      	movs	r0, #3
 8000b5a:	f000 f81b 	bl	8000b94 <HAL_NVIC_SetPriorityGrouping>
 8000b5e:	2000      	movs	r0, #0
 8000b60:	f7ff ffc8 	bl	8000af4 <HAL_InitTick>
 8000b64:	f7ff fe00 	bl	8000768 <HAL_MspInit>
 8000b68:	2000      	movs	r0, #0
 8000b6a:	bd08      	pop	{r3, pc}
 8000b6c:	40023c00 	.word	0x40023c00

08000b70 <HAL_IncTick>:
 8000b70:	4a03      	ldr	r2, [pc, #12]	; (8000b80 <HAL_IncTick+0x10>)
 8000b72:	4b04      	ldr	r3, [pc, #16]	; (8000b84 <HAL_IncTick+0x14>)
 8000b74:	6811      	ldr	r1, [r2, #0]
 8000b76:	781b      	ldrb	r3, [r3, #0]
 8000b78:	440b      	add	r3, r1
 8000b7a:	6013      	str	r3, [r2, #0]
 8000b7c:	4770      	bx	lr
 8000b7e:	bf00      	nop
 8000b80:	20012e04 	.word	0x20012e04
 8000b84:	20000004 	.word	0x20000004

08000b88 <HAL_GetTick>:
 8000b88:	4b01      	ldr	r3, [pc, #4]	; (8000b90 <HAL_GetTick+0x8>)
 8000b8a:	6818      	ldr	r0, [r3, #0]
 8000b8c:	4770      	bx	lr
 8000b8e:	bf00      	nop
 8000b90:	20012e04 	.word	0x20012e04

08000b94 <HAL_NVIC_SetPriorityGrouping>:
 8000b94:	4907      	ldr	r1, [pc, #28]	; (8000bb4 <HAL_NVIC_SetPriorityGrouping+0x20>)
 8000b96:	68ca      	ldr	r2, [r1, #12]
 8000b98:	f422 62e0 	bic.w	r2, r2, #1792	; 0x700
 8000b9c:	0203      	lsls	r3, r0, #8
 8000b9e:	0412      	lsls	r2, r2, #16
 8000ba0:	f403 63e0 	and.w	r3, r3, #1792	; 0x700
 8000ba4:	0c12      	lsrs	r2, r2, #16
 8000ba6:	4313      	orrs	r3, r2
 8000ba8:	f043 63bf 	orr.w	r3, r3, #100139008	; 0x5f80000
 8000bac:	f443 3300 	orr.w	r3, r3, #131072	; 0x20000
 8000bb0:	60cb      	str	r3, [r1, #12]
 8000bb2:	4770      	bx	lr
 8000bb4:	e000ed00 	.word	0xe000ed00

08000bb8 <HAL_NVIC_SetPriority>:
 8000bb8:	4b16      	ldr	r3, [pc, #88]	; (8000c14 <HAL_NVIC_SetPriority+0x5c>)
 8000bba:	b530      	push	{r4, r5, lr}
 8000bbc:	68dc      	ldr	r4, [r3, #12]
 8000bbe:	f3c4 2402 	ubfx	r4, r4, #8, #3
 8000bc2:	f1c4 0507 	rsb	r5, r4, #7
 8000bc6:	1d23      	adds	r3, r4, #4
 8000bc8:	2d04      	cmp	r5, #4
 8000bca:	bf28      	it	cs
 8000bcc:	2504      	movcs	r5, #4
 8000bce:	2b06      	cmp	r3, #6
 8000bd0:	f04f 33ff 	mov.w	r3, #4294967295
 8000bd4:	bf8c      	ite	hi
 8000bd6:	3c03      	subhi	r4, #3
 8000bd8:	2400      	movls	r4, #0
 8000bda:	fa03 f505 	lsl.w	r5, r3, r5
 8000bde:	ea21 0105 	bic.w	r1, r1, r5
 8000be2:	40a3      	lsls	r3, r4
 8000be4:	ea22 0203 	bic.w	r2, r2, r3
 8000be8:	40a1      	lsls	r1, r4
 8000bea:	2800      	cmp	r0, #0
 8000bec:	ea41 0302 	orr.w	r3, r1, r2
 8000bf0:	bfac      	ite	ge
 8000bf2:	f100 4060 	addge.w	r0, r0, #3758096384	; 0xe0000000
 8000bf6:	4a08      	ldrlt	r2, [pc, #32]	; (8000c18 <HAL_NVIC_SetPriority+0x60>)
 8000bf8:	ea4f 1303 	mov.w	r3, r3, lsl #4
 8000bfc:	bfb8      	it	lt
 8000bfe:	f000 000f 	andlt.w	r0, r0, #15
 8000c02:	b2db      	uxtb	r3, r3
 8000c04:	bfaa      	itet	ge
 8000c06:	f500 4061 	addge.w	r0, r0, #57600	; 0xe100
 8000c0a:	5413      	strblt	r3, [r2, r0]
 8000c0c:	f880 3300 	strbge.w	r3, [r0, #768]	; 0x300
 8000c10:	bd30      	pop	{r4, r5, pc}
 8000c12:	bf00      	nop
 8000c14:	e000ed00 	.word	0xe000ed00
 8000c18:	e000ed14 	.word	0xe000ed14

08000c1c <HAL_NVIC_EnableIRQ>:
 8000c1c:	2800      	cmp	r0, #0
 8000c1e:	db08      	blt.n	8000c32 <HAL_NVIC_EnableIRQ+0x16>
 8000c20:	0942      	lsrs	r2, r0, #5
 8000c22:	2301      	movs	r3, #1
 8000c24:	f000 001f 	and.w	r0, r0, #31
 8000c28:	fa03 f000 	lsl.w	r0, r3, r0
 8000c2c:	4b01      	ldr	r3, [pc, #4]	; (8000c34 <HAL_NVIC_EnableIRQ+0x18>)
 8000c2e:	f843 0022 	str.w	r0, [r3, r2, lsl #2]
 8000c32:	4770      	bx	lr
 8000c34:	e000e100 	.word	0xe000e100

08000c38 <HAL_SYSTICK_Config>:
 8000c38:	3801      	subs	r0, #1
 8000c3a:	f1b0 7f80 	cmp.w	r0, #16777216	; 0x1000000
 8000c3e:	d20a      	bcs.n	8000c56 <HAL_SYSTICK_Config+0x1e>
 8000c40:	4b06      	ldr	r3, [pc, #24]	; (8000c5c <HAL_SYSTICK_Config+0x24>)
 8000c42:	4a07      	ldr	r2, [pc, #28]	; (8000c60 <HAL_SYSTICK_Config+0x28>)
 8000c44:	6058      	str	r0, [r3, #4]
 8000c46:	21f0      	movs	r1, #240	; 0xf0
 8000c48:	f882 1023 	strb.w	r1, [r2, #35]	; 0x23
 8000c4c:	2000      	movs	r0, #0
 8000c4e:	2207      	movs	r2, #7
 8000c50:	6098      	str	r0, [r3, #8]
 8000c52:	601a      	str	r2, [r3, #0]
 8000c54:	4770      	bx	lr
 8000c56:	2001      	movs	r0, #1
 8000c58:	4770      	bx	lr
 8000c5a:	bf00      	nop
 8000c5c:	e000e010 	.word	0xe000e010
 8000c60:	e000ed00 	.word	0xe000ed00

08000c64 <DMA_CalcBaseAndBitshift>:
 8000c64:	6803      	ldr	r3, [r0, #0]
 8000c66:	b510      	push	{r4, lr}
 8000c68:	4c08      	ldr	r4, [pc, #32]	; (8000c8c <DMA_CalcBaseAndBitshift+0x28>)
 8000c6a:	4602      	mov	r2, r0
 8000c6c:	b2d9      	uxtb	r1, r3
 8000c6e:	3910      	subs	r1, #16
 8000c70:	2018      	movs	r0, #24
 8000c72:	fbb1 f0f0 	udiv	r0, r1, r0
 8000c76:	5c20      	ldrb	r0, [r4, r0]
 8000c78:	65d0      	str	r0, [r2, #92]	; 0x5c
 8000c7a:	f423 707f 	bic.w	r0, r3, #1020	; 0x3fc
 8000c7e:	f020 0003 	bic.w	r0, r0, #3
 8000c82:	295f      	cmp	r1, #95	; 0x5f
 8000c84:	bf88      	it	hi
 8000c86:	3004      	addhi	r0, #4
 8000c88:	6590      	str	r0, [r2, #88]	; 0x58
 8000c8a:	bd10      	pop	{r4, pc}
 8000c8c:	08001e2c 	.word	0x08001e2c

08000c90 <HAL_DMA_Init>:
 8000c90:	b570      	push	{r4, r5, r6, lr}
 8000c92:	4604      	mov	r4, r0
 8000c94:	f7ff ff78 	bl	8000b88 <HAL_GetTick>
 8000c98:	4605      	mov	r5, r0
 8000c9a:	2c00      	cmp	r4, #0
 8000c9c:	d073      	beq.n	8000d86 <HAL_DMA_Init+0xf6>
 8000c9e:	2300      	movs	r3, #0
 8000ca0:	f884 3034 	strb.w	r3, [r4, #52]	; 0x34
 8000ca4:	6822      	ldr	r2, [r4, #0]
 8000ca6:	2302      	movs	r3, #2
 8000ca8:	f884 3035 	strb.w	r3, [r4, #53]	; 0x35
 8000cac:	6813      	ldr	r3, [r2, #0]
 8000cae:	f023 0301 	bic.w	r3, r3, #1
 8000cb2:	6013      	str	r3, [r2, #0]
 8000cb4:	6821      	ldr	r1, [r4, #0]
 8000cb6:	680b      	ldr	r3, [r1, #0]
 8000cb8:	07d8      	lsls	r0, r3, #31
 8000cba:	d42f      	bmi.n	8000d1c <HAL_DMA_Init+0x8c>
 8000cbc:	680b      	ldr	r3, [r1, #0]
 8000cbe:	4d33      	ldr	r5, [pc, #204]	; (8000d8c <HAL_DMA_Init+0xfc>)
 8000cc0:	69a0      	ldr	r0, [r4, #24]
 8000cc2:	401d      	ands	r5, r3
 8000cc4:	e9d4 2301 	ldrd	r2, r3, [r4, #4]
 8000cc8:	4313      	orrs	r3, r2
 8000cca:	68e2      	ldr	r2, [r4, #12]
 8000ccc:	4313      	orrs	r3, r2
 8000cce:	6922      	ldr	r2, [r4, #16]
 8000cd0:	4313      	orrs	r3, r2
 8000cd2:	6962      	ldr	r2, [r4, #20]
 8000cd4:	4313      	orrs	r3, r2
 8000cd6:	69e2      	ldr	r2, [r4, #28]
 8000cd8:	4303      	orrs	r3, r0
 8000cda:	4313      	orrs	r3, r2
 8000cdc:	6a22      	ldr	r2, [r4, #32]
 8000cde:	4313      	orrs	r3, r2
 8000ce0:	6a62      	ldr	r2, [r4, #36]	; 0x24
 8000ce2:	2a04      	cmp	r2, #4
 8000ce4:	ea43 0305 	orr.w	r3, r3, r5
 8000ce8:	bf02      	ittt	eq
 8000cea:	e9d4 560b 	ldrdeq	r5, r6, [r4, #44]	; 0x2c
 8000cee:	4335      	orreq	r5, r6
 8000cf0:	432b      	orreq	r3, r5
 8000cf2:	600b      	str	r3, [r1, #0]
 8000cf4:	694b      	ldr	r3, [r1, #20]
 8000cf6:	2a04      	cmp	r2, #4
 8000cf8:	f023 0307 	bic.w	r3, r3, #7
 8000cfc:	ea43 0302 	orr.w	r3, r3, r2
 8000d00:	d133      	bne.n	8000d6a <HAL_DMA_Init+0xda>
 8000d02:	6aa2      	ldr	r2, [r4, #40]	; 0x28
 8000d04:	6ae5      	ldr	r5, [r4, #44]	; 0x2c
 8000d06:	4313      	orrs	r3, r2
 8000d08:	b37d      	cbz	r5, 8000d6a <HAL_DMA_Init+0xda>
 8000d0a:	b990      	cbnz	r0, 8000d32 <HAL_DMA_Init+0xa2>
 8000d0c:	2a01      	cmp	r2, #1
 8000d0e:	d021      	beq.n	8000d54 <HAL_DMA_Init+0xc4>
 8000d10:	f032 0202 	bics.w	r2, r2, #2
 8000d14:	d129      	bne.n	8000d6a <HAL_DMA_Init+0xda>
 8000d16:	01ea      	lsls	r2, r5, #7
 8000d18:	d527      	bpl.n	8000d6a <HAL_DMA_Init+0xda>
 8000d1a:	e01e      	b.n	8000d5a <HAL_DMA_Init+0xca>
 8000d1c:	f7ff ff34 	bl	8000b88 <HAL_GetTick>
 8000d20:	1b40      	subs	r0, r0, r5
 8000d22:	2805      	cmp	r0, #5
 8000d24:	d9c6      	bls.n	8000cb4 <HAL_DMA_Init+0x24>
 8000d26:	2320      	movs	r3, #32
 8000d28:	6563      	str	r3, [r4, #84]	; 0x54
 8000d2a:	2003      	movs	r0, #3
 8000d2c:	f884 0035 	strb.w	r0, [r4, #53]	; 0x35
 8000d30:	bd70      	pop	{r4, r5, r6, pc}
 8000d32:	f5b0 5f00 	cmp.w	r0, #8192	; 0x2000
 8000d36:	d114      	bne.n	8000d62 <HAL_DMA_Init+0xd2>
 8000d38:	2a03      	cmp	r2, #3
 8000d3a:	d816      	bhi.n	8000d6a <HAL_DMA_Init+0xda>
 8000d3c:	a001      	add	r0, pc, #4	; (adr r0, 8000d44 <HAL_DMA_Init+0xb4>)
 8000d3e:	f850 f022 	ldr.w	pc, [r0, r2, lsl #2]
 8000d42:	bf00      	nop
 8000d44:	08000d5b 	.word	0x08000d5b
 8000d48:	08000d17 	.word	0x08000d17
 8000d4c:	08000d5b 	.word	0x08000d5b
 8000d50:	08000d55 	.word	0x08000d55
 8000d54:	f1b5 7fc0 	cmp.w	r5, #25165824	; 0x1800000
 8000d58:	d107      	bne.n	8000d6a <HAL_DMA_Init+0xda>
 8000d5a:	2340      	movs	r3, #64	; 0x40
 8000d5c:	6563      	str	r3, [r4, #84]	; 0x54
 8000d5e:	2001      	movs	r0, #1
 8000d60:	e7e4      	b.n	8000d2c <HAL_DMA_Init+0x9c>
 8000d62:	2a02      	cmp	r2, #2
 8000d64:	d9f9      	bls.n	8000d5a <HAL_DMA_Init+0xca>
 8000d66:	2a03      	cmp	r2, #3
 8000d68:	d0d5      	beq.n	8000d16 <HAL_DMA_Init+0x86>
 8000d6a:	614b      	str	r3, [r1, #20]
 8000d6c:	4620      	mov	r0, r4
 8000d6e:	f7ff ff79 	bl	8000c64 <DMA_CalcBaseAndBitshift>
 8000d72:	6de2      	ldr	r2, [r4, #92]	; 0x5c
 8000d74:	233f      	movs	r3, #63	; 0x3f
 8000d76:	4093      	lsls	r3, r2
 8000d78:	6083      	str	r3, [r0, #8]
 8000d7a:	2000      	movs	r0, #0
 8000d7c:	2301      	movs	r3, #1
 8000d7e:	6560      	str	r0, [r4, #84]	; 0x54
 8000d80:	f884 3035 	strb.w	r3, [r4, #53]	; 0x35
 8000d84:	e7d4      	b.n	8000d30 <HAL_DMA_Init+0xa0>
 8000d86:	2001      	movs	r0, #1
 8000d88:	e7d2      	b.n	8000d30 <HAL_DMA_Init+0xa0>
 8000d8a:	bf00      	nop
 8000d8c:	f010803f 	.word	0xf010803f

08000d90 <HAL_DMA_Start_IT>:
 8000d90:	b570      	push	{r4, r5, r6, lr}
 8000d92:	f890 4034 	ldrb.w	r4, [r0, #52]	; 0x34
 8000d96:	6d86      	ldr	r6, [r0, #88]	; 0x58
 8000d98:	2c01      	cmp	r4, #1
 8000d9a:	d031      	beq.n	8000e00 <HAL_DMA_Start_IT+0x70>
 8000d9c:	2401      	movs	r4, #1
 8000d9e:	f880 4034 	strb.w	r4, [r0, #52]	; 0x34
 8000da2:	f890 4035 	ldrb.w	r4, [r0, #53]	; 0x35
 8000da6:	2c01      	cmp	r4, #1
 8000da8:	f04f 0500 	mov.w	r5, #0
 8000dac:	f04f 0402 	mov.w	r4, #2
 8000db0:	d124      	bne.n	8000dfc <HAL_DMA_Start_IT+0x6c>
 8000db2:	f880 4035 	strb.w	r4, [r0, #53]	; 0x35
 8000db6:	6804      	ldr	r4, [r0, #0]
 8000db8:	6545      	str	r5, [r0, #84]	; 0x54
 8000dba:	6825      	ldr	r5, [r4, #0]
 8000dbc:	f425 2580 	bic.w	r5, r5, #262144	; 0x40000
 8000dc0:	6025      	str	r5, [r4, #0]
 8000dc2:	6063      	str	r3, [r4, #4]
 8000dc4:	6883      	ldr	r3, [r0, #8]
 8000dc6:	2b40      	cmp	r3, #64	; 0x40
 8000dc8:	bf0e      	itee	eq
 8000dca:	60a2      	streq	r2, [r4, #8]
 8000dcc:	60a1      	strne	r1, [r4, #8]
 8000dce:	60e2      	strne	r2, [r4, #12]
 8000dd0:	6dc2      	ldr	r2, [r0, #92]	; 0x5c
 8000dd2:	bf08      	it	eq
 8000dd4:	60e1      	streq	r1, [r4, #12]
 8000dd6:	233f      	movs	r3, #63	; 0x3f
 8000dd8:	4093      	lsls	r3, r2
 8000dda:	60b3      	str	r3, [r6, #8]
 8000ddc:	6823      	ldr	r3, [r4, #0]
 8000dde:	f043 0316 	orr.w	r3, r3, #22
 8000de2:	6023      	str	r3, [r4, #0]
 8000de4:	6c03      	ldr	r3, [r0, #64]	; 0x40
 8000de6:	b11b      	cbz	r3, 8000df0 <HAL_DMA_Start_IT+0x60>
 8000de8:	6823      	ldr	r3, [r4, #0]
 8000dea:	f043 0308 	orr.w	r3, r3, #8
 8000dee:	6023      	str	r3, [r4, #0]
 8000df0:	6823      	ldr	r3, [r4, #0]
 8000df2:	f043 0301 	orr.w	r3, r3, #1
 8000df6:	6023      	str	r3, [r4, #0]
 8000df8:	2000      	movs	r0, #0
 8000dfa:	bd70      	pop	{r4, r5, r6, pc}
 8000dfc:	f880 5034 	strb.w	r5, [r0, #52]	; 0x34
 8000e00:	2002      	movs	r0, #2
 8000e02:	e7fa      	b.n	8000dfa <HAL_DMA_Start_IT+0x6a>

08000e04 <HAL_DMA_IRQHandler>:
 8000e04:	b5f7      	push	{r0, r1, r2, r4, r5, r6, r7, lr}
 8000e06:	2300      	movs	r3, #0
 8000e08:	9301      	str	r3, [sp, #4]
 8000e0a:	4b5c      	ldr	r3, [pc, #368]	; (8000f7c <HAL_DMA_IRQHandler+0x178>)
 8000e0c:	6d85      	ldr	r5, [r0, #88]	; 0x58
 8000e0e:	681f      	ldr	r7, [r3, #0]
 8000e10:	6dc3      	ldr	r3, [r0, #92]	; 0x5c
 8000e12:	682e      	ldr	r6, [r5, #0]
 8000e14:	2208      	movs	r2, #8
 8000e16:	409a      	lsls	r2, r3
 8000e18:	4232      	tst	r2, r6
 8000e1a:	4604      	mov	r4, r0
 8000e1c:	d00c      	beq.n	8000e38 <HAL_DMA_IRQHandler+0x34>
 8000e1e:	6801      	ldr	r1, [r0, #0]
 8000e20:	6808      	ldr	r0, [r1, #0]
 8000e22:	0740      	lsls	r0, r0, #29
 8000e24:	d508      	bpl.n	8000e38 <HAL_DMA_IRQHandler+0x34>
 8000e26:	6808      	ldr	r0, [r1, #0]
 8000e28:	f020 0004 	bic.w	r0, r0, #4
 8000e2c:	6008      	str	r0, [r1, #0]
 8000e2e:	60aa      	str	r2, [r5, #8]
 8000e30:	6d62      	ldr	r2, [r4, #84]	; 0x54
 8000e32:	f042 0201 	orr.w	r2, r2, #1
 8000e36:	6562      	str	r2, [r4, #84]	; 0x54
 8000e38:	2201      	movs	r2, #1
 8000e3a:	409a      	lsls	r2, r3
 8000e3c:	4232      	tst	r2, r6
 8000e3e:	d008      	beq.n	8000e52 <HAL_DMA_IRQHandler+0x4e>
 8000e40:	6821      	ldr	r1, [r4, #0]
 8000e42:	6949      	ldr	r1, [r1, #20]
 8000e44:	0609      	lsls	r1, r1, #24
 8000e46:	bf41      	itttt	mi
 8000e48:	60aa      	strmi	r2, [r5, #8]
 8000e4a:	6d62      	ldrmi	r2, [r4, #84]	; 0x54
 8000e4c:	f042 0202 	orrmi.w	r2, r2, #2
 8000e50:	6562      	strmi	r2, [r4, #84]	; 0x54
 8000e52:	2204      	movs	r2, #4
 8000e54:	409a      	lsls	r2, r3
 8000e56:	4232      	tst	r2, r6
 8000e58:	d008      	beq.n	8000e6c <HAL_DMA_IRQHandler+0x68>
 8000e5a:	6821      	ldr	r1, [r4, #0]
 8000e5c:	6809      	ldr	r1, [r1, #0]
 8000e5e:	0788      	lsls	r0, r1, #30
 8000e60:	bf41      	itttt	mi
 8000e62:	60aa      	strmi	r2, [r5, #8]
 8000e64:	6d62      	ldrmi	r2, [r4, #84]	; 0x54
 8000e66:	f042 0204 	orrmi.w	r2, r2, #4
 8000e6a:	6562      	strmi	r2, [r4, #84]	; 0x54
 8000e6c:	2210      	movs	r2, #16
 8000e6e:	409a      	lsls	r2, r3
 8000e70:	4232      	tst	r2, r6
 8000e72:	d010      	beq.n	8000e96 <HAL_DMA_IRQHandler+0x92>
 8000e74:	6823      	ldr	r3, [r4, #0]
 8000e76:	6819      	ldr	r1, [r3, #0]
 8000e78:	0709      	lsls	r1, r1, #28
 8000e7a:	d50c      	bpl.n	8000e96 <HAL_DMA_IRQHandler+0x92>
 8000e7c:	60aa      	str	r2, [r5, #8]
 8000e7e:	681a      	ldr	r2, [r3, #0]
 8000e80:	0350      	lsls	r0, r2, #13
 8000e82:	d537      	bpl.n	8000ef4 <HAL_DMA_IRQHandler+0xf0>
 8000e84:	681b      	ldr	r3, [r3, #0]
 8000e86:	0319      	lsls	r1, r3, #12
 8000e88:	d401      	bmi.n	8000e8e <HAL_DMA_IRQHandler+0x8a>
 8000e8a:	6c23      	ldr	r3, [r4, #64]	; 0x40
 8000e8c:	e000      	b.n	8000e90 <HAL_DMA_IRQHandler+0x8c>
 8000e8e:	6ca3      	ldr	r3, [r4, #72]	; 0x48
 8000e90:	b10b      	cbz	r3, 8000e96 <HAL_DMA_IRQHandler+0x92>
 8000e92:	4620      	mov	r0, r4
 8000e94:	4798      	blx	r3
 8000e96:	6de1      	ldr	r1, [r4, #92]	; 0x5c
 8000e98:	2220      	movs	r2, #32
 8000e9a:	408a      	lsls	r2, r1
 8000e9c:	4232      	tst	r2, r6
 8000e9e:	d03a      	beq.n	8000f16 <HAL_DMA_IRQHandler+0x112>
 8000ea0:	6823      	ldr	r3, [r4, #0]
 8000ea2:	6818      	ldr	r0, [r3, #0]
 8000ea4:	06c6      	lsls	r6, r0, #27
 8000ea6:	d536      	bpl.n	8000f16 <HAL_DMA_IRQHandler+0x112>
 8000ea8:	60aa      	str	r2, [r5, #8]
 8000eaa:	f894 2035 	ldrb.w	r2, [r4, #53]	; 0x35
 8000eae:	2a05      	cmp	r2, #5
 8000eb0:	681a      	ldr	r2, [r3, #0]
 8000eb2:	d127      	bne.n	8000f04 <HAL_DMA_IRQHandler+0x100>
 8000eb4:	f022 0216 	bic.w	r2, r2, #22
 8000eb8:	601a      	str	r2, [r3, #0]
 8000eba:	695a      	ldr	r2, [r3, #20]
 8000ebc:	f022 0280 	bic.w	r2, r2, #128	; 0x80
 8000ec0:	615a      	str	r2, [r3, #20]
 8000ec2:	6c22      	ldr	r2, [r4, #64]	; 0x40
 8000ec4:	b90a      	cbnz	r2, 8000eca <HAL_DMA_IRQHandler+0xc6>
 8000ec6:	6ca2      	ldr	r2, [r4, #72]	; 0x48
 8000ec8:	b11a      	cbz	r2, 8000ed2 <HAL_DMA_IRQHandler+0xce>
 8000eca:	681a      	ldr	r2, [r3, #0]
 8000ecc:	f022 0208 	bic.w	r2, r2, #8
 8000ed0:	601a      	str	r2, [r3, #0]
 8000ed2:	233f      	movs	r3, #63	; 0x3f
 8000ed4:	408b      	lsls	r3, r1
 8000ed6:	60ab      	str	r3, [r5, #8]
 8000ed8:	2300      	movs	r3, #0
 8000eda:	f884 3034 	strb.w	r3, [r4, #52]	; 0x34
 8000ede:	2301      	movs	r3, #1
 8000ee0:	f884 3035 	strb.w	r3, [r4, #53]	; 0x35
 8000ee4:	6d23      	ldr	r3, [r4, #80]	; 0x50
 8000ee6:	2b00      	cmp	r3, #0
 8000ee8:	d045      	beq.n	8000f76 <HAL_DMA_IRQHandler+0x172>
 8000eea:	4620      	mov	r0, r4
 8000eec:	b003      	add	sp, #12
 8000eee:	e8bd 40f0 	ldmia.w	sp!, {r4, r5, r6, r7, lr}
 8000ef2:	4718      	bx	r3
 8000ef4:	681a      	ldr	r2, [r3, #0]
 8000ef6:	05d2      	lsls	r2, r2, #23
 8000ef8:	bf5e      	ittt	pl
 8000efa:	681a      	ldrpl	r2, [r3, #0]
 8000efc:	f022 0208 	bicpl.w	r2, r2, #8
 8000f00:	601a      	strpl	r2, [r3, #0]
 8000f02:	e7c2      	b.n	8000e8a <HAL_DMA_IRQHandler+0x86>
 8000f04:	0350      	lsls	r0, r2, #13
 8000f06:	d527      	bpl.n	8000f58 <HAL_DMA_IRQHandler+0x154>
 8000f08:	681b      	ldr	r3, [r3, #0]
 8000f0a:	0319      	lsls	r1, r3, #12
 8000f0c:	d431      	bmi.n	8000f72 <HAL_DMA_IRQHandler+0x16e>
 8000f0e:	6c63      	ldr	r3, [r4, #68]	; 0x44
 8000f10:	b10b      	cbz	r3, 8000f16 <HAL_DMA_IRQHandler+0x112>
 8000f12:	4620      	mov	r0, r4
 8000f14:	4798      	blx	r3
 8000f16:	6d63      	ldr	r3, [r4, #84]	; 0x54
 8000f18:	b36b      	cbz	r3, 8000f76 <HAL_DMA_IRQHandler+0x172>
 8000f1a:	6d63      	ldr	r3, [r4, #84]	; 0x54
 8000f1c:	07da      	lsls	r2, r3, #31
 8000f1e:	d519      	bpl.n	8000f54 <HAL_DMA_IRQHandler+0x150>
 8000f20:	6822      	ldr	r2, [r4, #0]
 8000f22:	f44f 5316 	mov.w	r3, #9600	; 0x2580
 8000f26:	fbb7 f7f3 	udiv	r7, r7, r3
 8000f2a:	2305      	movs	r3, #5
 8000f2c:	f884 3035 	strb.w	r3, [r4, #53]	; 0x35
 8000f30:	6813      	ldr	r3, [r2, #0]
 8000f32:	f023 0301 	bic.w	r3, r3, #1
 8000f36:	6013      	str	r3, [r2, #0]
 8000f38:	9b01      	ldr	r3, [sp, #4]
 8000f3a:	3301      	adds	r3, #1
 8000f3c:	42bb      	cmp	r3, r7
 8000f3e:	9301      	str	r3, [sp, #4]
 8000f40:	d802      	bhi.n	8000f48 <HAL_DMA_IRQHandler+0x144>
 8000f42:	6813      	ldr	r3, [r2, #0]
 8000f44:	07db      	lsls	r3, r3, #31
 8000f46:	d4f7      	bmi.n	8000f38 <HAL_DMA_IRQHandler+0x134>
 8000f48:	2300      	movs	r3, #0
 8000f4a:	f884 3034 	strb.w	r3, [r4, #52]	; 0x34
 8000f4e:	2301      	movs	r3, #1
 8000f50:	f884 3035 	strb.w	r3, [r4, #53]	; 0x35
 8000f54:	6ce3      	ldr	r3, [r4, #76]	; 0x4c
 8000f56:	e7c6      	b.n	8000ee6 <HAL_DMA_IRQHandler+0xe2>
 8000f58:	681a      	ldr	r2, [r3, #0]
 8000f5a:	f412 7280 	ands.w	r2, r2, #256	; 0x100
 8000f5e:	d108      	bne.n	8000f72 <HAL_DMA_IRQHandler+0x16e>
 8000f60:	6819      	ldr	r1, [r3, #0]
 8000f62:	f021 0110 	bic.w	r1, r1, #16
 8000f66:	6019      	str	r1, [r3, #0]
 8000f68:	2301      	movs	r3, #1
 8000f6a:	f884 2034 	strb.w	r2, [r4, #52]	; 0x34
 8000f6e:	f884 3035 	strb.w	r3, [r4, #53]	; 0x35
 8000f72:	6be3      	ldr	r3, [r4, #60]	; 0x3c
 8000f74:	e7cc      	b.n	8000f10 <HAL_DMA_IRQHandler+0x10c>
 8000f76:	b003      	add	sp, #12
 8000f78:	bdf0      	pop	{r4, r5, r6, r7, pc}
 8000f7a:	bf00      	nop
 8000f7c:	20000000 	.word	0x20000000

08000f80 <HAL_GPIO_Init>:
 8000f80:	e92d 4ff7 	stmdb	sp!, {r0, r1, r2, r4, r5, r6, r7, r8, r9, sl, fp, lr}
 8000f84:	f8df 81ac 	ldr.w	r8, [pc, #428]	; 8001134 <HAL_GPIO_Init+0x1b4>
 8000f88:	4a68      	ldr	r2, [pc, #416]	; (800112c <HAL_GPIO_Init+0x1ac>)
 8000f8a:	f8df 91ac 	ldr.w	r9, [pc, #428]	; 8001138 <HAL_GPIO_Init+0x1b8>
 8000f8e:	2300      	movs	r3, #0
 8000f90:	680d      	ldr	r5, [r1, #0]
 8000f92:	2401      	movs	r4, #1
 8000f94:	409c      	lsls	r4, r3
 8000f96:	ea04 0605 	and.w	r6, r4, r5
 8000f9a:	43ac      	bics	r4, r5
 8000f9c:	f040 80b0 	bne.w	8001100 <HAL_GPIO_Init+0x180>
 8000fa0:	684c      	ldr	r4, [r1, #4]
 8000fa2:	f024 0c10 	bic.w	ip, r4, #16
 8000fa6:	ea4f 0e43 	mov.w	lr, r3, lsl #1
 8000faa:	2503      	movs	r5, #3
 8000fac:	f10c 37ff 	add.w	r7, ip, #4294967295
 8000fb0:	fa05 f50e 	lsl.w	r5, r5, lr
 8000fb4:	2f01      	cmp	r7, #1
 8000fb6:	ea6f 0505 	mvn.w	r5, r5
 8000fba:	d811      	bhi.n	8000fe0 <HAL_GPIO_Init+0x60>
 8000fbc:	6887      	ldr	r7, [r0, #8]
 8000fbe:	ea07 0a05 	and.w	sl, r7, r5
 8000fc2:	68cf      	ldr	r7, [r1, #12]
 8000fc4:	fa07 f70e 	lsl.w	r7, r7, lr
 8000fc8:	ea47 070a 	orr.w	r7, r7, sl
 8000fcc:	6087      	str	r7, [r0, #8]
 8000fce:	6847      	ldr	r7, [r0, #4]
 8000fd0:	ea27 0a06 	bic.w	sl, r7, r6
 8000fd4:	f3c4 1700 	ubfx	r7, r4, #4, #1
 8000fd8:	409f      	lsls	r7, r3
 8000fda:	ea47 070a 	orr.w	r7, r7, sl
 8000fde:	6047      	str	r7, [r0, #4]
 8000fe0:	68c7      	ldr	r7, [r0, #12]
 8000fe2:	ea07 0a05 	and.w	sl, r7, r5
 8000fe6:	688f      	ldr	r7, [r1, #8]
 8000fe8:	fa07 f70e 	lsl.w	r7, r7, lr
 8000fec:	ea47 070a 	orr.w	r7, r7, sl
 8000ff0:	f1bc 0f02 	cmp.w	ip, #2
 8000ff4:	60c7      	str	r7, [r0, #12]
 8000ff6:	d116      	bne.n	8001026 <HAL_GPIO_Init+0xa6>
 8000ff8:	ea4f 0ad3 	mov.w	sl, r3, lsr #3
 8000ffc:	eb00 0a8a 	add.w	sl, r0, sl, lsl #2
 8001000:	f003 0b07 	and.w	fp, r3, #7
 8001004:	f8da 7020 	ldr.w	r7, [sl, #32]
 8001008:	ea4f 0b8b 	mov.w	fp, fp, lsl #2
 800100c:	f04f 0c0f 	mov.w	ip, #15
 8001010:	fa0c fc0b 	lsl.w	ip, ip, fp
 8001014:	ea27 0c0c 	bic.w	ip, r7, ip
 8001018:	690f      	ldr	r7, [r1, #16]
 800101a:	fa07 f70b 	lsl.w	r7, r7, fp
 800101e:	ea47 070c 	orr.w	r7, r7, ip
 8001022:	f8ca 7020 	str.w	r7, [sl, #32]
 8001026:	6807      	ldr	r7, [r0, #0]
 8001028:	403d      	ands	r5, r7
 800102a:	f004 0703 	and.w	r7, r4, #3
 800102e:	fa07 fe0e 	lsl.w	lr, r7, lr
 8001032:	ea4e 0505 	orr.w	r5, lr, r5
 8001036:	6005      	str	r5, [r0, #0]
 8001038:	00e5      	lsls	r5, r4, #3
 800103a:	d561      	bpl.n	8001100 <HAL_GPIO_Init+0x180>
 800103c:	f04f 0b00 	mov.w	fp, #0
 8001040:	f8cd b004 	str.w	fp, [sp, #4]
 8001044:	f8d8 7044 	ldr.w	r7, [r8, #68]	; 0x44
 8001048:	4d39      	ldr	r5, [pc, #228]	; (8001130 <HAL_GPIO_Init+0x1b0>)
 800104a:	f447 4780 	orr.w	r7, r7, #16384	; 0x4000
 800104e:	f8c8 7044 	str.w	r7, [r8, #68]	; 0x44
 8001052:	f8d8 7044 	ldr.w	r7, [r8, #68]	; 0x44
 8001056:	f407 4780 	and.w	r7, r7, #16384	; 0x4000
 800105a:	9701      	str	r7, [sp, #4]
 800105c:	9f01      	ldr	r7, [sp, #4]
 800105e:	f023 0703 	bic.w	r7, r3, #3
 8001062:	f107 4780 	add.w	r7, r7, #1073741824	; 0x40000000
 8001066:	f507 379c 	add.w	r7, r7, #79872	; 0x13800
 800106a:	f003 0e03 	and.w	lr, r3, #3
 800106e:	f8d7 a008 	ldr.w	sl, [r7, #8]
 8001072:	ea4f 0e8e 	mov.w	lr, lr, lsl #2
 8001076:	f04f 0c0f 	mov.w	ip, #15
 800107a:	fa0c fc0e 	lsl.w	ip, ip, lr
 800107e:	42a8      	cmp	r0, r5
 8001080:	ea2a 0c0c 	bic.w	ip, sl, ip
 8001084:	d043      	beq.n	800110e <HAL_GPIO_Init+0x18e>
 8001086:	f505 6580 	add.w	r5, r5, #1024	; 0x400
 800108a:	42a8      	cmp	r0, r5
 800108c:	d041      	beq.n	8001112 <HAL_GPIO_Init+0x192>
 800108e:	f505 6580 	add.w	r5, r5, #1024	; 0x400
 8001092:	42a8      	cmp	r0, r5
 8001094:	d03f      	beq.n	8001116 <HAL_GPIO_Init+0x196>
 8001096:	f505 6580 	add.w	r5, r5, #1024	; 0x400
 800109a:	42a8      	cmp	r0, r5
 800109c:	d03d      	beq.n	800111a <HAL_GPIO_Init+0x19a>
 800109e:	f505 6580 	add.w	r5, r5, #1024	; 0x400
 80010a2:	42a8      	cmp	r0, r5
 80010a4:	d03b      	beq.n	800111e <HAL_GPIO_Init+0x19e>
 80010a6:	4548      	cmp	r0, r9
 80010a8:	d03b      	beq.n	8001122 <HAL_GPIO_Init+0x1a2>
 80010aa:	f505 6500 	add.w	r5, r5, #2048	; 0x800
 80010ae:	42a8      	cmp	r0, r5
 80010b0:	d039      	beq.n	8001126 <HAL_GPIO_Init+0x1a6>
 80010b2:	f505 6580 	add.w	r5, r5, #1024	; 0x400
 80010b6:	42a8      	cmp	r0, r5
 80010b8:	bf0c      	ite	eq
 80010ba:	2507      	moveq	r5, #7
 80010bc:	2508      	movne	r5, #8
 80010be:	fa05 f50e 	lsl.w	r5, r5, lr
 80010c2:	ea45 050c 	orr.w	r5, r5, ip
 80010c6:	60bd      	str	r5, [r7, #8]
 80010c8:	6815      	ldr	r5, [r2, #0]
 80010ca:	43f7      	mvns	r7, r6
 80010cc:	f414 3f80 	tst.w	r4, #65536	; 0x10000
 80010d0:	bf0c      	ite	eq
 80010d2:	403d      	andeq	r5, r7
 80010d4:	4335      	orrne	r5, r6
 80010d6:	6015      	str	r5, [r2, #0]
 80010d8:	6855      	ldr	r5, [r2, #4]
 80010da:	f414 3f00 	tst.w	r4, #131072	; 0x20000
 80010de:	bf0c      	ite	eq
 80010e0:	403d      	andeq	r5, r7
 80010e2:	4335      	orrne	r5, r6
 80010e4:	6055      	str	r5, [r2, #4]
 80010e6:	6895      	ldr	r5, [r2, #8]
 80010e8:	f414 1f80 	tst.w	r4, #1048576	; 0x100000
 80010ec:	bf0c      	ite	eq
 80010ee:	403d      	andeq	r5, r7
 80010f0:	4335      	orrne	r5, r6
 80010f2:	6095      	str	r5, [r2, #8]
 80010f4:	68d5      	ldr	r5, [r2, #12]
 80010f6:	02a4      	lsls	r4, r4, #10
 80010f8:	bf54      	ite	pl
 80010fa:	403d      	andpl	r5, r7
 80010fc:	4335      	orrmi	r5, r6
 80010fe:	60d5      	str	r5, [r2, #12]
 8001100:	3301      	adds	r3, #1
 8001102:	2b10      	cmp	r3, #16
 8001104:	f47f af44 	bne.w	8000f90 <HAL_GPIO_Init+0x10>
 8001108:	b003      	add	sp, #12
 800110a:	e8bd 8ff0 	ldmia.w	sp!, {r4, r5, r6, r7, r8, r9, sl, fp, pc}
 800110e:	465d      	mov	r5, fp
 8001110:	e7d5      	b.n	80010be <HAL_GPIO_Init+0x13e>
 8001112:	2501      	movs	r5, #1
 8001114:	e7d3      	b.n	80010be <HAL_GPIO_Init+0x13e>
 8001116:	2502      	movs	r5, #2
 8001118:	e7d1      	b.n	80010be <HAL_GPIO_Init+0x13e>
 800111a:	2503      	movs	r5, #3
 800111c:	e7cf      	b.n	80010be <HAL_GPIO_Init+0x13e>
 800111e:	2504      	movs	r5, #4
 8001120:	e7cd      	b.n	80010be <HAL_GPIO_Init+0x13e>
 8001122:	2505      	movs	r5, #5
 8001124:	e7cb      	b.n	80010be <HAL_GPIO_Init+0x13e>
 8001126:	2506      	movs	r5, #6
 8001128:	e7c9      	b.n	80010be <HAL_GPIO_Init+0x13e>
 800112a:	bf00      	nop
 800112c:	40013c00 	.word	0x40013c00
 8001130:	40020000 	.word	0x40020000
 8001134:	40023800 	.word	0x40023800
 8001138:	40021400 	.word	0x40021400

0800113c <HAL_GPIO_WritePin>:
 800113c:	b10a      	cbz	r2, 8001142 <HAL_GPIO_WritePin+0x6>
 800113e:	6181      	str	r1, [r0, #24]
 8001140:	4770      	bx	lr
 8001142:	0409      	lsls	r1, r1, #16
 8001144:	e7fb      	b.n	800113e <HAL_GPIO_WritePin+0x2>
	...

08001148 <HAL_RCC_OscConfig>:
 8001148:	e92d 41f3 	stmdb	sp!, {r0, r1, r4, r5, r6, r7, r8, lr}
 800114c:	4604      	mov	r4, r0
 800114e:	b340      	cbz	r0, 80011a2 <HAL_RCC_OscConfig+0x5a>
 8001150:	6803      	ldr	r3, [r0, #0]
 8001152:	07dd      	lsls	r5, r3, #31
 8001154:	d410      	bmi.n	8001178 <HAL_RCC_OscConfig+0x30>
 8001156:	6823      	ldr	r3, [r4, #0]
 8001158:	0798      	lsls	r0, r3, #30
 800115a:	d45e      	bmi.n	800121a <HAL_RCC_OscConfig+0xd2>
 800115c:	6823      	ldr	r3, [r4, #0]
 800115e:	071a      	lsls	r2, r3, #28
 8001160:	f100 80a0 	bmi.w	80012a4 <HAL_RCC_OscConfig+0x15c>
 8001164:	6823      	ldr	r3, [r4, #0]
 8001166:	075b      	lsls	r3, r3, #29
 8001168:	f100 80be 	bmi.w	80012e8 <HAL_RCC_OscConfig+0x1a0>
 800116c:	69a0      	ldr	r0, [r4, #24]
 800116e:	2800      	cmp	r0, #0
 8001170:	f040 811f 	bne.w	80013b2 <HAL_RCC_OscConfig+0x26a>
 8001174:	2000      	movs	r0, #0
 8001176:	e02b      	b.n	80011d0 <HAL_RCC_OscConfig+0x88>
 8001178:	4ba6      	ldr	r3, [pc, #664]	; (8001414 <HAL_RCC_OscConfig+0x2cc>)
 800117a:	689a      	ldr	r2, [r3, #8]
 800117c:	f002 020c 	and.w	r2, r2, #12
 8001180:	2a04      	cmp	r2, #4
 8001182:	d007      	beq.n	8001194 <HAL_RCC_OscConfig+0x4c>
 8001184:	689a      	ldr	r2, [r3, #8]
 8001186:	f002 020c 	and.w	r2, r2, #12
 800118a:	2a08      	cmp	r2, #8
 800118c:	d10b      	bne.n	80011a6 <HAL_RCC_OscConfig+0x5e>
 800118e:	685a      	ldr	r2, [r3, #4]
 8001190:	0251      	lsls	r1, r2, #9
 8001192:	d508      	bpl.n	80011a6 <HAL_RCC_OscConfig+0x5e>
 8001194:	4b9f      	ldr	r3, [pc, #636]	; (8001414 <HAL_RCC_OscConfig+0x2cc>)
 8001196:	681b      	ldr	r3, [r3, #0]
 8001198:	039a      	lsls	r2, r3, #14
 800119a:	d5dc      	bpl.n	8001156 <HAL_RCC_OscConfig+0xe>
 800119c:	6863      	ldr	r3, [r4, #4]
 800119e:	2b00      	cmp	r3, #0
 80011a0:	d1d9      	bne.n	8001156 <HAL_RCC_OscConfig+0xe>
 80011a2:	2001      	movs	r0, #1
 80011a4:	e014      	b.n	80011d0 <HAL_RCC_OscConfig+0x88>
 80011a6:	6862      	ldr	r2, [r4, #4]
 80011a8:	f5b2 3f80 	cmp.w	r2, #65536	; 0x10000
 80011ac:	d113      	bne.n	80011d6 <HAL_RCC_OscConfig+0x8e>
 80011ae:	681a      	ldr	r2, [r3, #0]
 80011b0:	f442 3280 	orr.w	r2, r2, #65536	; 0x10000
 80011b4:	601a      	str	r2, [r3, #0]
 80011b6:	f7ff fce7 	bl	8000b88 <HAL_GetTick>
 80011ba:	4e96      	ldr	r6, [pc, #600]	; (8001414 <HAL_RCC_OscConfig+0x2cc>)
 80011bc:	4605      	mov	r5, r0
 80011be:	6833      	ldr	r3, [r6, #0]
 80011c0:	039b      	lsls	r3, r3, #14
 80011c2:	d4c8      	bmi.n	8001156 <HAL_RCC_OscConfig+0xe>
 80011c4:	f7ff fce0 	bl	8000b88 <HAL_GetTick>
 80011c8:	1b40      	subs	r0, r0, r5
 80011ca:	2864      	cmp	r0, #100	; 0x64
 80011cc:	d9f7      	bls.n	80011be <HAL_RCC_OscConfig+0x76>
 80011ce:	2003      	movs	r0, #3
 80011d0:	b002      	add	sp, #8
 80011d2:	e8bd 81f0 	ldmia.w	sp!, {r4, r5, r6, r7, r8, pc}
 80011d6:	4d8f      	ldr	r5, [pc, #572]	; (8001414 <HAL_RCC_OscConfig+0x2cc>)
 80011d8:	f5b2 2fa0 	cmp.w	r2, #327680	; 0x50000
 80011dc:	682b      	ldr	r3, [r5, #0]
 80011de:	d107      	bne.n	80011f0 <HAL_RCC_OscConfig+0xa8>
 80011e0:	f443 2380 	orr.w	r3, r3, #262144	; 0x40000
 80011e4:	602b      	str	r3, [r5, #0]
 80011e6:	682b      	ldr	r3, [r5, #0]
 80011e8:	f443 3380 	orr.w	r3, r3, #65536	; 0x10000
 80011ec:	602b      	str	r3, [r5, #0]
 80011ee:	e7e2      	b.n	80011b6 <HAL_RCC_OscConfig+0x6e>
 80011f0:	f423 3380 	bic.w	r3, r3, #65536	; 0x10000
 80011f4:	602b      	str	r3, [r5, #0]
 80011f6:	682b      	ldr	r3, [r5, #0]
 80011f8:	f423 2380 	bic.w	r3, r3, #262144	; 0x40000
 80011fc:	602b      	str	r3, [r5, #0]
 80011fe:	2a00      	cmp	r2, #0
 8001200:	d1d9      	bne.n	80011b6 <HAL_RCC_OscConfig+0x6e>
 8001202:	f7ff fcc1 	bl	8000b88 <HAL_GetTick>
 8001206:	4606      	mov	r6, r0
 8001208:	682b      	ldr	r3, [r5, #0]
 800120a:	039f      	lsls	r7, r3, #14
 800120c:	d5a3      	bpl.n	8001156 <HAL_RCC_OscConfig+0xe>
 800120e:	f7ff fcbb 	bl	8000b88 <HAL_GetTick>
 8001212:	1b80      	subs	r0, r0, r6
 8001214:	2864      	cmp	r0, #100	; 0x64
 8001216:	d9f7      	bls.n	8001208 <HAL_RCC_OscConfig+0xc0>
 8001218:	e7d9      	b.n	80011ce <HAL_RCC_OscConfig+0x86>
 800121a:	4b7e      	ldr	r3, [pc, #504]	; (8001414 <HAL_RCC_OscConfig+0x2cc>)
 800121c:	689a      	ldr	r2, [r3, #8]
 800121e:	f012 0f0c 	tst.w	r2, #12
 8001222:	d007      	beq.n	8001234 <HAL_RCC_OscConfig+0xec>
 8001224:	689a      	ldr	r2, [r3, #8]
 8001226:	f002 020c 	and.w	r2, r2, #12
 800122a:	2a08      	cmp	r2, #8
 800122c:	d111      	bne.n	8001252 <HAL_RCC_OscConfig+0x10a>
 800122e:	685b      	ldr	r3, [r3, #4]
 8001230:	025e      	lsls	r6, r3, #9
 8001232:	d40e      	bmi.n	8001252 <HAL_RCC_OscConfig+0x10a>
 8001234:	4b77      	ldr	r3, [pc, #476]	; (8001414 <HAL_RCC_OscConfig+0x2cc>)
 8001236:	681a      	ldr	r2, [r3, #0]
 8001238:	0795      	lsls	r5, r2, #30
 800123a:	d502      	bpl.n	8001242 <HAL_RCC_OscConfig+0xfa>
 800123c:	68e2      	ldr	r2, [r4, #12]
 800123e:	2a01      	cmp	r2, #1
 8001240:	d1af      	bne.n	80011a2 <HAL_RCC_OscConfig+0x5a>
 8001242:	681a      	ldr	r2, [r3, #0]
 8001244:	6921      	ldr	r1, [r4, #16]
 8001246:	f022 02f8 	bic.w	r2, r2, #248	; 0xf8
 800124a:	ea42 02c1 	orr.w	r2, r2, r1, lsl #3
 800124e:	601a      	str	r2, [r3, #0]
 8001250:	e784      	b.n	800115c <HAL_RCC_OscConfig+0x14>
 8001252:	68e2      	ldr	r2, [r4, #12]
 8001254:	4b70      	ldr	r3, [pc, #448]	; (8001418 <HAL_RCC_OscConfig+0x2d0>)
 8001256:	b1b2      	cbz	r2, 8001286 <HAL_RCC_OscConfig+0x13e>
 8001258:	2201      	movs	r2, #1
 800125a:	601a      	str	r2, [r3, #0]
 800125c:	f7ff fc94 	bl	8000b88 <HAL_GetTick>
 8001260:	4d6c      	ldr	r5, [pc, #432]	; (8001414 <HAL_RCC_OscConfig+0x2cc>)
 8001262:	4606      	mov	r6, r0
 8001264:	682b      	ldr	r3, [r5, #0]
 8001266:	0798      	lsls	r0, r3, #30
 8001268:	d507      	bpl.n	800127a <HAL_RCC_OscConfig+0x132>
 800126a:	682b      	ldr	r3, [r5, #0]
 800126c:	6922      	ldr	r2, [r4, #16]
 800126e:	f023 03f8 	bic.w	r3, r3, #248	; 0xf8
 8001272:	ea43 03c2 	orr.w	r3, r3, r2, lsl #3
 8001276:	602b      	str	r3, [r5, #0]
 8001278:	e770      	b.n	800115c <HAL_RCC_OscConfig+0x14>
 800127a:	f7ff fc85 	bl	8000b88 <HAL_GetTick>
 800127e:	1b80      	subs	r0, r0, r6
 8001280:	2802      	cmp	r0, #2
 8001282:	d9ef      	bls.n	8001264 <HAL_RCC_OscConfig+0x11c>
 8001284:	e7a3      	b.n	80011ce <HAL_RCC_OscConfig+0x86>
 8001286:	601a      	str	r2, [r3, #0]
 8001288:	f7ff fc7e 	bl	8000b88 <HAL_GetTick>
 800128c:	4e61      	ldr	r6, [pc, #388]	; (8001414 <HAL_RCC_OscConfig+0x2cc>)
 800128e:	4605      	mov	r5, r0
 8001290:	6833      	ldr	r3, [r6, #0]
 8001292:	0799      	lsls	r1, r3, #30
 8001294:	f57f af62 	bpl.w	800115c <HAL_RCC_OscConfig+0x14>
 8001298:	f7ff fc76 	bl	8000b88 <HAL_GetTick>
 800129c:	1b40      	subs	r0, r0, r5
 800129e:	2802      	cmp	r0, #2
 80012a0:	d9f6      	bls.n	8001290 <HAL_RCC_OscConfig+0x148>
 80012a2:	e794      	b.n	80011ce <HAL_RCC_OscConfig+0x86>
 80012a4:	6962      	ldr	r2, [r4, #20]
 80012a6:	4b5d      	ldr	r3, [pc, #372]	; (800141c <HAL_RCC_OscConfig+0x2d4>)
 80012a8:	b17a      	cbz	r2, 80012ca <HAL_RCC_OscConfig+0x182>
 80012aa:	2201      	movs	r2, #1
 80012ac:	601a      	str	r2, [r3, #0]
 80012ae:	f7ff fc6b 	bl	8000b88 <HAL_GetTick>
 80012b2:	4e58      	ldr	r6, [pc, #352]	; (8001414 <HAL_RCC_OscConfig+0x2cc>)
 80012b4:	4605      	mov	r5, r0
 80012b6:	6f73      	ldr	r3, [r6, #116]	; 0x74
 80012b8:	079f      	lsls	r7, r3, #30
 80012ba:	f53f af53 	bmi.w	8001164 <HAL_RCC_OscConfig+0x1c>
 80012be:	f7ff fc63 	bl	8000b88 <HAL_GetTick>
 80012c2:	1b40      	subs	r0, r0, r5
 80012c4:	2802      	cmp	r0, #2
 80012c6:	d9f6      	bls.n	80012b6 <HAL_RCC_OscConfig+0x16e>
 80012c8:	e781      	b.n	80011ce <HAL_RCC_OscConfig+0x86>
 80012ca:	601a      	str	r2, [r3, #0]
 80012cc:	f7ff fc5c 	bl	8000b88 <HAL_GetTick>
 80012d0:	4e50      	ldr	r6, [pc, #320]	; (8001414 <HAL_RCC_OscConfig+0x2cc>)
 80012d2:	4605      	mov	r5, r0
 80012d4:	6f73      	ldr	r3, [r6, #116]	; 0x74
 80012d6:	0798      	lsls	r0, r3, #30
 80012d8:	f57f af44 	bpl.w	8001164 <HAL_RCC_OscConfig+0x1c>
 80012dc:	f7ff fc54 	bl	8000b88 <HAL_GetTick>
 80012e0:	1b40      	subs	r0, r0, r5
 80012e2:	2802      	cmp	r0, #2
 80012e4:	d9f6      	bls.n	80012d4 <HAL_RCC_OscConfig+0x18c>
 80012e6:	e772      	b.n	80011ce <HAL_RCC_OscConfig+0x86>
 80012e8:	4b4a      	ldr	r3, [pc, #296]	; (8001414 <HAL_RCC_OscConfig+0x2cc>)
 80012ea:	6c1a      	ldr	r2, [r3, #64]	; 0x40
 80012ec:	f012 5280 	ands.w	r2, r2, #268435456	; 0x10000000
 80012f0:	d128      	bne.n	8001344 <HAL_RCC_OscConfig+0x1fc>
 80012f2:	9201      	str	r2, [sp, #4]
 80012f4:	6c1a      	ldr	r2, [r3, #64]	; 0x40
 80012f6:	f042 5280 	orr.w	r2, r2, #268435456	; 0x10000000
 80012fa:	641a      	str	r2, [r3, #64]	; 0x40
 80012fc:	6c1b      	ldr	r3, [r3, #64]	; 0x40
 80012fe:	f003 5380 	and.w	r3, r3, #268435456	; 0x10000000
 8001302:	9301      	str	r3, [sp, #4]
 8001304:	9b01      	ldr	r3, [sp, #4]
 8001306:	2701      	movs	r7, #1
 8001308:	4d45      	ldr	r5, [pc, #276]	; (8001420 <HAL_RCC_OscConfig+0x2d8>)
 800130a:	682b      	ldr	r3, [r5, #0]
 800130c:	05d9      	lsls	r1, r3, #23
 800130e:	d51b      	bpl.n	8001348 <HAL_RCC_OscConfig+0x200>
 8001310:	68a3      	ldr	r3, [r4, #8]
 8001312:	4d40      	ldr	r5, [pc, #256]	; (8001414 <HAL_RCC_OscConfig+0x2cc>)
 8001314:	2b01      	cmp	r3, #1
 8001316:	d127      	bne.n	8001368 <HAL_RCC_OscConfig+0x220>
 8001318:	6f2b      	ldr	r3, [r5, #112]	; 0x70
 800131a:	f043 0301 	orr.w	r3, r3, #1
 800131e:	672b      	str	r3, [r5, #112]	; 0x70
 8001320:	f7ff fc32 	bl	8000b88 <HAL_GetTick>
 8001324:	4e3b      	ldr	r6, [pc, #236]	; (8001414 <HAL_RCC_OscConfig+0x2cc>)
 8001326:	4605      	mov	r5, r0
 8001328:	f241 3888 	movw	r8, #5000	; 0x1388
 800132c:	6f33      	ldr	r3, [r6, #112]	; 0x70
 800132e:	079b      	lsls	r3, r3, #30
 8001330:	d539      	bpl.n	80013a6 <HAL_RCC_OscConfig+0x25e>
 8001332:	2f00      	cmp	r7, #0
 8001334:	f43f af1a 	beq.w	800116c <HAL_RCC_OscConfig+0x24>
 8001338:	4a36      	ldr	r2, [pc, #216]	; (8001414 <HAL_RCC_OscConfig+0x2cc>)
 800133a:	6c13      	ldr	r3, [r2, #64]	; 0x40
 800133c:	f023 5380 	bic.w	r3, r3, #268435456	; 0x10000000
 8001340:	6413      	str	r3, [r2, #64]	; 0x40
 8001342:	e713      	b.n	800116c <HAL_RCC_OscConfig+0x24>
 8001344:	2700      	movs	r7, #0
 8001346:	e7df      	b.n	8001308 <HAL_RCC_OscConfig+0x1c0>
 8001348:	682b      	ldr	r3, [r5, #0]
 800134a:	f443 7380 	orr.w	r3, r3, #256	; 0x100
 800134e:	602b      	str	r3, [r5, #0]
 8001350:	f7ff fc1a 	bl	8000b88 <HAL_GetTick>
 8001354:	4606      	mov	r6, r0
 8001356:	682b      	ldr	r3, [r5, #0]
 8001358:	05da      	lsls	r2, r3, #23
 800135a:	d4d9      	bmi.n	8001310 <HAL_RCC_OscConfig+0x1c8>
 800135c:	f7ff fc14 	bl	8000b88 <HAL_GetTick>
 8001360:	1b80      	subs	r0, r0, r6
 8001362:	2802      	cmp	r0, #2
 8001364:	d9f7      	bls.n	8001356 <HAL_RCC_OscConfig+0x20e>
 8001366:	e732      	b.n	80011ce <HAL_RCC_OscConfig+0x86>
 8001368:	2b05      	cmp	r3, #5
 800136a:	d104      	bne.n	8001376 <HAL_RCC_OscConfig+0x22e>
 800136c:	6f2b      	ldr	r3, [r5, #112]	; 0x70
 800136e:	f043 0304 	orr.w	r3, r3, #4
 8001372:	672b      	str	r3, [r5, #112]	; 0x70
 8001374:	e7d0      	b.n	8001318 <HAL_RCC_OscConfig+0x1d0>
 8001376:	6f2a      	ldr	r2, [r5, #112]	; 0x70
 8001378:	f022 0201 	bic.w	r2, r2, #1
 800137c:	672a      	str	r2, [r5, #112]	; 0x70
 800137e:	6f2a      	ldr	r2, [r5, #112]	; 0x70
 8001380:	f022 0204 	bic.w	r2, r2, #4
 8001384:	672a      	str	r2, [r5, #112]	; 0x70
 8001386:	2b00      	cmp	r3, #0
 8001388:	d1ca      	bne.n	8001320 <HAL_RCC_OscConfig+0x1d8>
 800138a:	f7ff fbfd 	bl	8000b88 <HAL_GetTick>
 800138e:	f241 3888 	movw	r8, #5000	; 0x1388
 8001392:	4606      	mov	r6, r0
 8001394:	6f2b      	ldr	r3, [r5, #112]	; 0x70
 8001396:	0798      	lsls	r0, r3, #30
 8001398:	d5cb      	bpl.n	8001332 <HAL_RCC_OscConfig+0x1ea>
 800139a:	f7ff fbf5 	bl	8000b88 <HAL_GetTick>
 800139e:	1b80      	subs	r0, r0, r6
 80013a0:	4540      	cmp	r0, r8
 80013a2:	d9f7      	bls.n	8001394 <HAL_RCC_OscConfig+0x24c>
 80013a4:	e713      	b.n	80011ce <HAL_RCC_OscConfig+0x86>
 80013a6:	f7ff fbef 	bl	8000b88 <HAL_GetTick>
 80013aa:	1b40      	subs	r0, r0, r5
 80013ac:	4540      	cmp	r0, r8
 80013ae:	d9bd      	bls.n	800132c <HAL_RCC_OscConfig+0x1e4>
 80013b0:	e70d      	b.n	80011ce <HAL_RCC_OscConfig+0x86>
 80013b2:	4d18      	ldr	r5, [pc, #96]	; (8001414 <HAL_RCC_OscConfig+0x2cc>)
 80013b4:	68ab      	ldr	r3, [r5, #8]
 80013b6:	f003 030c 	and.w	r3, r3, #12
 80013ba:	2b08      	cmp	r3, #8
 80013bc:	d047      	beq.n	800144e <HAL_RCC_OscConfig+0x306>
 80013be:	4e19      	ldr	r6, [pc, #100]	; (8001424 <HAL_RCC_OscConfig+0x2dc>)
 80013c0:	2300      	movs	r3, #0
 80013c2:	2802      	cmp	r0, #2
 80013c4:	6033      	str	r3, [r6, #0]
 80013c6:	d135      	bne.n	8001434 <HAL_RCC_OscConfig+0x2ec>
 80013c8:	f7ff fbde 	bl	8000b88 <HAL_GetTick>
 80013cc:	4607      	mov	r7, r0
 80013ce:	682b      	ldr	r3, [r5, #0]
 80013d0:	0199      	lsls	r1, r3, #6
 80013d2:	d429      	bmi.n	8001428 <HAL_RCC_OscConfig+0x2e0>
 80013d4:	e9d4 3207 	ldrd	r3, r2, [r4, #28]
 80013d8:	4313      	orrs	r3, r2
 80013da:	6a62      	ldr	r2, [r4, #36]	; 0x24
 80013dc:	ea43 1382 	orr.w	r3, r3, r2, lsl #6
 80013e0:	6ae2      	ldr	r2, [r4, #44]	; 0x2c
 80013e2:	ea43 6302 	orr.w	r3, r3, r2, lsl #24
 80013e6:	6aa2      	ldr	r2, [r4, #40]	; 0x28
 80013e8:	0852      	lsrs	r2, r2, #1
 80013ea:	3a01      	subs	r2, #1
 80013ec:	ea43 4302 	orr.w	r3, r3, r2, lsl #16
 80013f0:	606b      	str	r3, [r5, #4]
 80013f2:	2301      	movs	r3, #1
 80013f4:	6033      	str	r3, [r6, #0]
 80013f6:	f7ff fbc7 	bl	8000b88 <HAL_GetTick>
 80013fa:	4d06      	ldr	r5, [pc, #24]	; (8001414 <HAL_RCC_OscConfig+0x2cc>)
 80013fc:	4604      	mov	r4, r0
 80013fe:	682b      	ldr	r3, [r5, #0]
 8001400:	019a      	lsls	r2, r3, #6
 8001402:	f53f aeb7 	bmi.w	8001174 <HAL_RCC_OscConfig+0x2c>
 8001406:	f7ff fbbf 	bl	8000b88 <HAL_GetTick>
 800140a:	1b00      	subs	r0, r0, r4
 800140c:	2802      	cmp	r0, #2
 800140e:	d9f6      	bls.n	80013fe <HAL_RCC_OscConfig+0x2b6>
 8001410:	e6dd      	b.n	80011ce <HAL_RCC_OscConfig+0x86>
 8001412:	bf00      	nop
 8001414:	40023800 	.word	0x40023800
 8001418:	42470000 	.word	0x42470000
 800141c:	42470e80 	.word	0x42470e80
 8001420:	40007000 	.word	0x40007000
 8001424:	42470060 	.word	0x42470060
 8001428:	f7ff fbae 	bl	8000b88 <HAL_GetTick>
 800142c:	1bc0      	subs	r0, r0, r7
 800142e:	2802      	cmp	r0, #2
 8001430:	d9cd      	bls.n	80013ce <HAL_RCC_OscConfig+0x286>
 8001432:	e6cc      	b.n	80011ce <HAL_RCC_OscConfig+0x86>
 8001434:	f7ff fba8 	bl	8000b88 <HAL_GetTick>
 8001438:	4604      	mov	r4, r0
 800143a:	682b      	ldr	r3, [r5, #0]
 800143c:	019b      	lsls	r3, r3, #6
 800143e:	f57f ae99 	bpl.w	8001174 <HAL_RCC_OscConfig+0x2c>
 8001442:	f7ff fba1 	bl	8000b88 <HAL_GetTick>
 8001446:	1b00      	subs	r0, r0, r4
 8001448:	2802      	cmp	r0, #2
 800144a:	d9f6      	bls.n	800143a <HAL_RCC_OscConfig+0x2f2>
 800144c:	e6bf      	b.n	80011ce <HAL_RCC_OscConfig+0x86>
 800144e:	2801      	cmp	r0, #1
 8001450:	f43f aebe 	beq.w	80011d0 <HAL_RCC_OscConfig+0x88>
 8001454:	686b      	ldr	r3, [r5, #4]
 8001456:	69e2      	ldr	r2, [r4, #28]
 8001458:	f403 0180 	and.w	r1, r3, #4194304	; 0x400000
 800145c:	4291      	cmp	r1, r2
 800145e:	f47f aea0 	bne.w	80011a2 <HAL_RCC_OscConfig+0x5a>
 8001462:	6a21      	ldr	r1, [r4, #32]
 8001464:	f003 023f 	and.w	r2, r3, #63	; 0x3f
 8001468:	428a      	cmp	r2, r1
 800146a:	f47f ae9a 	bne.w	80011a2 <HAL_RCC_OscConfig+0x5a>
 800146e:	6a61      	ldr	r1, [r4, #36]	; 0x24
 8001470:	f647 72c0 	movw	r2, #32704	; 0x7fc0
 8001474:	401a      	ands	r2, r3
 8001476:	428a      	cmp	r2, r1
 8001478:	f47f ae93 	bne.w	80011a2 <HAL_RCC_OscConfig+0x5a>
 800147c:	6aa1      	ldr	r1, [r4, #40]	; 0x28
 800147e:	f403 3240 	and.w	r2, r3, #196608	; 0x30000
 8001482:	428a      	cmp	r2, r1
 8001484:	f47f ae8d 	bne.w	80011a2 <HAL_RCC_OscConfig+0x5a>
 8001488:	6ae2      	ldr	r2, [r4, #44]	; 0x2c
 800148a:	f003 6370 	and.w	r3, r3, #251658240	; 0xf000000
 800148e:	4293      	cmp	r3, r2
 8001490:	f43f ae70 	beq.w	8001174 <HAL_RCC_OscConfig+0x2c>
 8001494:	e685      	b.n	80011a2 <HAL_RCC_OscConfig+0x5a>
 8001496:	bf00      	nop

08001498 <HAL_RCC_GetSysClockFreq>:
 8001498:	4913      	ldr	r1, [pc, #76]	; (80014e8 <HAL_RCC_GetSysClockFreq+0x50>)
 800149a:	b508      	push	{r3, lr}
 800149c:	688b      	ldr	r3, [r1, #8]
 800149e:	f003 030c 	and.w	r3, r3, #12
 80014a2:	2b04      	cmp	r3, #4
 80014a4:	d01c      	beq.n	80014e0 <HAL_RCC_GetSysClockFreq+0x48>
 80014a6:	2b08      	cmp	r3, #8
 80014a8:	d11c      	bne.n	80014e4 <HAL_RCC_GetSysClockFreq+0x4c>
 80014aa:	684a      	ldr	r2, [r1, #4]
 80014ac:	684b      	ldr	r3, [r1, #4]
 80014ae:	6849      	ldr	r1, [r1, #4]
 80014b0:	f413 0380 	ands.w	r3, r3, #4194304	; 0x400000
 80014b4:	bf14      	ite	ne
 80014b6:	480d      	ldrne	r0, [pc, #52]	; (80014ec <HAL_RCC_GetSysClockFreq+0x54>)
 80014b8:	480d      	ldreq	r0, [pc, #52]	; (80014f0 <HAL_RCC_GetSysClockFreq+0x58>)
 80014ba:	f3c1 1188 	ubfx	r1, r1, #6, #9
 80014be:	bf18      	it	ne
 80014c0:	2300      	movne	r3, #0
 80014c2:	f002 023f 	and.w	r2, r2, #63	; 0x3f
 80014c6:	fba1 0100 	umull	r0, r1, r1, r0
 80014ca:	f7fe fe7d 	bl	80001c8 <__aeabi_uldivmod>
 80014ce:	4b06      	ldr	r3, [pc, #24]	; (80014e8 <HAL_RCC_GetSysClockFreq+0x50>)
 80014d0:	685b      	ldr	r3, [r3, #4]
 80014d2:	f3c3 4301 	ubfx	r3, r3, #16, #2
 80014d6:	3301      	adds	r3, #1
 80014d8:	005b      	lsls	r3, r3, #1
 80014da:	fbb0 f0f3 	udiv	r0, r0, r3
 80014de:	bd08      	pop	{r3, pc}
 80014e0:	4802      	ldr	r0, [pc, #8]	; (80014ec <HAL_RCC_GetSysClockFreq+0x54>)
 80014e2:	e7fc      	b.n	80014de <HAL_RCC_GetSysClockFreq+0x46>
 80014e4:	4802      	ldr	r0, [pc, #8]	; (80014f0 <HAL_RCC_GetSysClockFreq+0x58>)
 80014e6:	e7fa      	b.n	80014de <HAL_RCC_GetSysClockFreq+0x46>
 80014e8:	40023800 	.word	0x40023800
 80014ec:	007a1200 	.word	0x007a1200
 80014f0:	00f42400 	.word	0x00f42400

080014f4 <HAL_RCC_ClockConfig>:
 80014f4:	e92d 41f0 	stmdb	sp!, {r4, r5, r6, r7, r8, lr}
 80014f8:	460d      	mov	r5, r1
 80014fa:	4604      	mov	r4, r0
 80014fc:	b910      	cbnz	r0, 8001504 <HAL_RCC_ClockConfig+0x10>
 80014fe:	2001      	movs	r0, #1
 8001500:	e8bd 81f0 	ldmia.w	sp!, {r4, r5, r6, r7, r8, pc}
 8001504:	4b44      	ldr	r3, [pc, #272]	; (8001618 <HAL_RCC_ClockConfig+0x124>)
 8001506:	681a      	ldr	r2, [r3, #0]
 8001508:	f002 020f 	and.w	r2, r2, #15
 800150c:	428a      	cmp	r2, r1
 800150e:	d328      	bcc.n	8001562 <HAL_RCC_ClockConfig+0x6e>
 8001510:	6822      	ldr	r2, [r4, #0]
 8001512:	0797      	lsls	r7, r2, #30
 8001514:	d42d      	bmi.n	8001572 <HAL_RCC_ClockConfig+0x7e>
 8001516:	07d0      	lsls	r0, r2, #31
 8001518:	d441      	bmi.n	800159e <HAL_RCC_ClockConfig+0xaa>
 800151a:	4b3f      	ldr	r3, [pc, #252]	; (8001618 <HAL_RCC_ClockConfig+0x124>)
 800151c:	681a      	ldr	r2, [r3, #0]
 800151e:	f002 020f 	and.w	r2, r2, #15
 8001522:	42aa      	cmp	r2, r5
 8001524:	d866      	bhi.n	80015f4 <HAL_RCC_ClockConfig+0x100>
 8001526:	6822      	ldr	r2, [r4, #0]
 8001528:	0751      	lsls	r1, r2, #29
 800152a:	d46c      	bmi.n	8001606 <HAL_RCC_ClockConfig+0x112>
 800152c:	0713      	lsls	r3, r2, #28
 800152e:	d507      	bpl.n	8001540 <HAL_RCC_ClockConfig+0x4c>
 8001530:	4a3a      	ldr	r2, [pc, #232]	; (800161c <HAL_RCC_ClockConfig+0x128>)
 8001532:	6921      	ldr	r1, [r4, #16]
 8001534:	6893      	ldr	r3, [r2, #8]
 8001536:	f423 4360 	bic.w	r3, r3, #57344	; 0xe000
 800153a:	ea43 03c1 	orr.w	r3, r3, r1, lsl #3
 800153e:	6093      	str	r3, [r2, #8]
 8001540:	f7ff ffaa 	bl	8001498 <HAL_RCC_GetSysClockFreq>
 8001544:	4b35      	ldr	r3, [pc, #212]	; (800161c <HAL_RCC_ClockConfig+0x128>)
 8001546:	4a36      	ldr	r2, [pc, #216]	; (8001620 <HAL_RCC_ClockConfig+0x12c>)
 8001548:	689b      	ldr	r3, [r3, #8]
 800154a:	f3c3 1303 	ubfx	r3, r3, #4, #4
 800154e:	5cd3      	ldrb	r3, [r2, r3]
 8001550:	40d8      	lsrs	r0, r3
 8001552:	4b34      	ldr	r3, [pc, #208]	; (8001624 <HAL_RCC_ClockConfig+0x130>)
 8001554:	6018      	str	r0, [r3, #0]
 8001556:	4b34      	ldr	r3, [pc, #208]	; (8001628 <HAL_RCC_ClockConfig+0x134>)
 8001558:	6818      	ldr	r0, [r3, #0]
 800155a:	f7ff facb 	bl	8000af4 <HAL_InitTick>
 800155e:	2000      	movs	r0, #0
 8001560:	e7ce      	b.n	8001500 <HAL_RCC_ClockConfig+0xc>
 8001562:	b2ca      	uxtb	r2, r1
 8001564:	701a      	strb	r2, [r3, #0]
 8001566:	681b      	ldr	r3, [r3, #0]
 8001568:	f003 030f 	and.w	r3, r3, #15
 800156c:	428b      	cmp	r3, r1
 800156e:	d1c6      	bne.n	80014fe <HAL_RCC_ClockConfig+0xa>
 8001570:	e7ce      	b.n	8001510 <HAL_RCC_ClockConfig+0x1c>
 8001572:	4b2a      	ldr	r3, [pc, #168]	; (800161c <HAL_RCC_ClockConfig+0x128>)
 8001574:	f012 0f04 	tst.w	r2, #4
 8001578:	bf1e      	ittt	ne
 800157a:	6899      	ldrne	r1, [r3, #8]
 800157c:	f441 51e0 	orrne.w	r1, r1, #7168	; 0x1c00
 8001580:	6099      	strne	r1, [r3, #8]
 8001582:	0716      	lsls	r6, r2, #28
 8001584:	bf42      	ittt	mi
 8001586:	6899      	ldrmi	r1, [r3, #8]
 8001588:	f441 4160 	orrmi.w	r1, r1, #57344	; 0xe000
 800158c:	6099      	strmi	r1, [r3, #8]
 800158e:	4923      	ldr	r1, [pc, #140]	; (800161c <HAL_RCC_ClockConfig+0x128>)
 8001590:	68a0      	ldr	r0, [r4, #8]
 8001592:	688b      	ldr	r3, [r1, #8]
 8001594:	f023 03f0 	bic.w	r3, r3, #240	; 0xf0
 8001598:	4303      	orrs	r3, r0
 800159a:	608b      	str	r3, [r1, #8]
 800159c:	e7bb      	b.n	8001516 <HAL_RCC_ClockConfig+0x22>
 800159e:	6862      	ldr	r2, [r4, #4]
 80015a0:	4b1e      	ldr	r3, [pc, #120]	; (800161c <HAL_RCC_ClockConfig+0x128>)
 80015a2:	2a01      	cmp	r2, #1
 80015a4:	d11c      	bne.n	80015e0 <HAL_RCC_ClockConfig+0xec>
 80015a6:	681b      	ldr	r3, [r3, #0]
 80015a8:	f413 3f00 	tst.w	r3, #131072	; 0x20000
 80015ac:	d0a7      	beq.n	80014fe <HAL_RCC_ClockConfig+0xa>
 80015ae:	4e1b      	ldr	r6, [pc, #108]	; (800161c <HAL_RCC_ClockConfig+0x128>)
 80015b0:	68b3      	ldr	r3, [r6, #8]
 80015b2:	f023 0303 	bic.w	r3, r3, #3
 80015b6:	4313      	orrs	r3, r2
 80015b8:	60b3      	str	r3, [r6, #8]
 80015ba:	f7ff fae5 	bl	8000b88 <HAL_GetTick>
 80015be:	f241 3888 	movw	r8, #5000	; 0x1388
 80015c2:	4607      	mov	r7, r0
 80015c4:	68b3      	ldr	r3, [r6, #8]
 80015c6:	6862      	ldr	r2, [r4, #4]
 80015c8:	f003 030c 	and.w	r3, r3, #12
 80015cc:	ebb3 0f82 	cmp.w	r3, r2, lsl #2
 80015d0:	d0a3      	beq.n	800151a <HAL_RCC_ClockConfig+0x26>
 80015d2:	f7ff fad9 	bl	8000b88 <HAL_GetTick>
 80015d6:	1bc0      	subs	r0, r0, r7
 80015d8:	4540      	cmp	r0, r8
 80015da:	d9f3      	bls.n	80015c4 <HAL_RCC_ClockConfig+0xd0>
 80015dc:	2003      	movs	r0, #3
 80015de:	e78f      	b.n	8001500 <HAL_RCC_ClockConfig+0xc>
 80015e0:	1e91      	subs	r1, r2, #2
 80015e2:	2901      	cmp	r1, #1
 80015e4:	681b      	ldr	r3, [r3, #0]
 80015e6:	d802      	bhi.n	80015ee <HAL_RCC_ClockConfig+0xfa>
 80015e8:	f013 7f00 	tst.w	r3, #33554432	; 0x2000000
 80015ec:	e7de      	b.n	80015ac <HAL_RCC_ClockConfig+0xb8>
 80015ee:	f013 0f02 	tst.w	r3, #2
 80015f2:	e7db      	b.n	80015ac <HAL_RCC_ClockConfig+0xb8>
 80015f4:	b2ea      	uxtb	r2, r5
 80015f6:	701a      	strb	r2, [r3, #0]
 80015f8:	681b      	ldr	r3, [r3, #0]
 80015fa:	f003 030f 	and.w	r3, r3, #15
 80015fe:	42ab      	cmp	r3, r5
 8001600:	f47f af7d 	bne.w	80014fe <HAL_RCC_ClockConfig+0xa>
 8001604:	e78f      	b.n	8001526 <HAL_RCC_ClockConfig+0x32>
 8001606:	4905      	ldr	r1, [pc, #20]	; (800161c <HAL_RCC_ClockConfig+0x128>)
 8001608:	68e0      	ldr	r0, [r4, #12]
 800160a:	688b      	ldr	r3, [r1, #8]
 800160c:	f423 53e0 	bic.w	r3, r3, #7168	; 0x1c00
 8001610:	4303      	orrs	r3, r0
 8001612:	608b      	str	r3, [r1, #8]
 8001614:	e78a      	b.n	800152c <HAL_RCC_ClockConfig+0x38>
 8001616:	bf00      	nop
 8001618:	40023c00 	.word	0x40023c00
 800161c:	40023800 	.word	0x40023800
 8001620:	08001e1c 	.word	0x08001e1c
 8001624:	20000000 	.word	0x20000000
 8001628:	20000008 	.word	0x20000008

0800162c <TIM_OC1_SetConfig>:
 800162c:	6a03      	ldr	r3, [r0, #32]
 800162e:	f023 0301 	bic.w	r3, r3, #1
 8001632:	6203      	str	r3, [r0, #32]
 8001634:	6a03      	ldr	r3, [r0, #32]
 8001636:	b570      	push	{r4, r5, r6, lr}
 8001638:	6844      	ldr	r4, [r0, #4]
 800163a:	6982      	ldr	r2, [r0, #24]
 800163c:	680d      	ldr	r5, [r1, #0]
 800163e:	f022 0273 	bic.w	r2, r2, #115	; 0x73
 8001642:	432a      	orrs	r2, r5
 8001644:	688d      	ldr	r5, [r1, #8]
 8001646:	f023 0302 	bic.w	r3, r3, #2
 800164a:	432b      	orrs	r3, r5
 800164c:	4d0e      	ldr	r5, [pc, #56]	; (8001688 <TIM_OC1_SetConfig+0x5c>)
 800164e:	42a8      	cmp	r0, r5
 8001650:	d002      	beq.n	8001658 <TIM_OC1_SetConfig+0x2c>
 8001652:	4e0e      	ldr	r6, [pc, #56]	; (800168c <TIM_OC1_SetConfig+0x60>)
 8001654:	42b0      	cmp	r0, r6
 8001656:	d110      	bne.n	800167a <TIM_OC1_SetConfig+0x4e>
 8001658:	68ce      	ldr	r6, [r1, #12]
 800165a:	f023 0308 	bic.w	r3, r3, #8
 800165e:	4333      	orrs	r3, r6
 8001660:	42a8      	cmp	r0, r5
 8001662:	f023 0304 	bic.w	r3, r3, #4
 8001666:	d002      	beq.n	800166e <TIM_OC1_SetConfig+0x42>
 8001668:	4d08      	ldr	r5, [pc, #32]	; (800168c <TIM_OC1_SetConfig+0x60>)
 800166a:	42a8      	cmp	r0, r5
 800166c:	d105      	bne.n	800167a <TIM_OC1_SetConfig+0x4e>
 800166e:	e9d1 5605 	ldrd	r5, r6, [r1, #20]
 8001672:	f424 7440 	bic.w	r4, r4, #768	; 0x300
 8001676:	4335      	orrs	r5, r6
 8001678:	432c      	orrs	r4, r5
 800167a:	6044      	str	r4, [r0, #4]
 800167c:	6182      	str	r2, [r0, #24]
 800167e:	684a      	ldr	r2, [r1, #4]
 8001680:	6342      	str	r2, [r0, #52]	; 0x34
 8001682:	6203      	str	r3, [r0, #32]
 8001684:	bd70      	pop	{r4, r5, r6, pc}
 8001686:	bf00      	nop
 8001688:	40010000 	.word	0x40010000
 800168c:	40010400 	.word	0x40010400

08001690 <TIM_OC3_SetConfig>:
 8001690:	6a03      	ldr	r3, [r0, #32]
 8001692:	f423 7380 	bic.w	r3, r3, #256	; 0x100
 8001696:	6203      	str	r3, [r0, #32]
 8001698:	6a03      	ldr	r3, [r0, #32]
 800169a:	b570      	push	{r4, r5, r6, lr}
 800169c:	6844      	ldr	r4, [r0, #4]
 800169e:	69c2      	ldr	r2, [r0, #28]
 80016a0:	680d      	ldr	r5, [r1, #0]
 80016a2:	f022 0273 	bic.w	r2, r2, #115	; 0x73
 80016a6:	432a      	orrs	r2, r5
 80016a8:	688d      	ldr	r5, [r1, #8]
 80016aa:	f423 7300 	bic.w	r3, r3, #512	; 0x200
 80016ae:	ea43 2305 	orr.w	r3, r3, r5, lsl #8
 80016b2:	4d11      	ldr	r5, [pc, #68]	; (80016f8 <TIM_OC3_SetConfig+0x68>)
 80016b4:	42a8      	cmp	r0, r5
 80016b6:	d003      	beq.n	80016c0 <TIM_OC3_SetConfig+0x30>
 80016b8:	f505 6580 	add.w	r5, r5, #1024	; 0x400
 80016bc:	42a8      	cmp	r0, r5
 80016be:	d114      	bne.n	80016ea <TIM_OC3_SetConfig+0x5a>
 80016c0:	68cd      	ldr	r5, [r1, #12]
 80016c2:	f423 6300 	bic.w	r3, r3, #2048	; 0x800
 80016c6:	ea43 2305 	orr.w	r3, r3, r5, lsl #8
 80016ca:	4d0b      	ldr	r5, [pc, #44]	; (80016f8 <TIM_OC3_SetConfig+0x68>)
 80016cc:	42a8      	cmp	r0, r5
 80016ce:	f423 6380 	bic.w	r3, r3, #1024	; 0x400
 80016d2:	d003      	beq.n	80016dc <TIM_OC3_SetConfig+0x4c>
 80016d4:	f505 6580 	add.w	r5, r5, #1024	; 0x400
 80016d8:	42a8      	cmp	r0, r5
 80016da:	d106      	bne.n	80016ea <TIM_OC3_SetConfig+0x5a>
 80016dc:	e9d1 5605 	ldrd	r5, r6, [r1, #20]
 80016e0:	f424 5440 	bic.w	r4, r4, #12288	; 0x3000
 80016e4:	4335      	orrs	r5, r6
 80016e6:	ea44 1405 	orr.w	r4, r4, r5, lsl #4
 80016ea:	6044      	str	r4, [r0, #4]
 80016ec:	61c2      	str	r2, [r0, #28]
 80016ee:	684a      	ldr	r2, [r1, #4]
 80016f0:	63c2      	str	r2, [r0, #60]	; 0x3c
 80016f2:	6203      	str	r3, [r0, #32]
 80016f4:	bd70      	pop	{r4, r5, r6, pc}
 80016f6:	bf00      	nop
 80016f8:	40010000 	.word	0x40010000

080016fc <TIM_OC4_SetConfig>:
 80016fc:	6a03      	ldr	r3, [r0, #32]
 80016fe:	f423 5380 	bic.w	r3, r3, #4096	; 0x1000
 8001702:	6203      	str	r3, [r0, #32]
 8001704:	6a03      	ldr	r3, [r0, #32]
 8001706:	b530      	push	{r4, r5, lr}
 8001708:	6844      	ldr	r4, [r0, #4]
 800170a:	69c2      	ldr	r2, [r0, #28]
 800170c:	680d      	ldr	r5, [r1, #0]
 800170e:	f422 42e6 	bic.w	r2, r2, #29440	; 0x7300
 8001712:	ea42 2205 	orr.w	r2, r2, r5, lsl #8
 8001716:	688d      	ldr	r5, [r1, #8]
 8001718:	f423 5300 	bic.w	r3, r3, #8192	; 0x2000
 800171c:	ea43 3305 	orr.w	r3, r3, r5, lsl #12
 8001720:	4d08      	ldr	r5, [pc, #32]	; (8001744 <TIM_OC4_SetConfig+0x48>)
 8001722:	42a8      	cmp	r0, r5
 8001724:	d003      	beq.n	800172e <TIM_OC4_SetConfig+0x32>
 8001726:	f505 6580 	add.w	r5, r5, #1024	; 0x400
 800172a:	42a8      	cmp	r0, r5
 800172c:	d104      	bne.n	8001738 <TIM_OC4_SetConfig+0x3c>
 800172e:	694d      	ldr	r5, [r1, #20]
 8001730:	f424 4480 	bic.w	r4, r4, #16384	; 0x4000
 8001734:	ea44 1485 	orr.w	r4, r4, r5, lsl #6
 8001738:	6044      	str	r4, [r0, #4]
 800173a:	61c2      	str	r2, [r0, #28]
 800173c:	684a      	ldr	r2, [r1, #4]
 800173e:	6402      	str	r2, [r0, #64]	; 0x40
 8001740:	6203      	str	r3, [r0, #32]
 8001742:	bd30      	pop	{r4, r5, pc}
 8001744:	40010000 	.word	0x40010000

08001748 <HAL_TIM_Base_Start>:
 8001748:	2302      	movs	r3, #2
 800174a:	f880 303d 	strb.w	r3, [r0, #61]	; 0x3d
 800174e:	6803      	ldr	r3, [r0, #0]
 8001750:	689a      	ldr	r2, [r3, #8]
 8001752:	f002 0207 	and.w	r2, r2, #7
 8001756:	2a06      	cmp	r2, #6
 8001758:	bf1e      	ittt	ne
 800175a:	681a      	ldrne	r2, [r3, #0]
 800175c:	f042 0201 	orrne.w	r2, r2, #1
 8001760:	601a      	strne	r2, [r3, #0]
 8001762:	2301      	movs	r3, #1
 8001764:	f880 303d 	strb.w	r3, [r0, #61]	; 0x3d
 8001768:	2000      	movs	r0, #0
 800176a:	4770      	bx	lr

0800176c <HAL_TIM_PeriodElapsedCallback>:
 800176c:	4770      	bx	lr

0800176e <HAL_TIM_OC_DelayElapsedCallback>:
 800176e:	4770      	bx	lr

08001770 <HAL_TIM_IC_CaptureCallback>:
 8001770:	4770      	bx	lr

08001772 <HAL_TIM_PWM_PulseFinishedCallback>:
 8001772:	4770      	bx	lr

08001774 <HAL_TIM_TriggerCallback>:
 8001774:	4770      	bx	lr

08001776 <HAL_TIM_IRQHandler>:
 8001776:	6803      	ldr	r3, [r0, #0]
 8001778:	691a      	ldr	r2, [r3, #16]
 800177a:	0791      	lsls	r1, r2, #30
 800177c:	b510      	push	{r4, lr}
 800177e:	4604      	mov	r4, r0
 8001780:	d50e      	bpl.n	80017a0 <HAL_TIM_IRQHandler+0x2a>
 8001782:	68da      	ldr	r2, [r3, #12]
 8001784:	0792      	lsls	r2, r2, #30
 8001786:	d50b      	bpl.n	80017a0 <HAL_TIM_IRQHandler+0x2a>
 8001788:	f06f 0202 	mvn.w	r2, #2
 800178c:	611a      	str	r2, [r3, #16]
 800178e:	2201      	movs	r2, #1
 8001790:	7702      	strb	r2, [r0, #28]
 8001792:	699b      	ldr	r3, [r3, #24]
 8001794:	079b      	lsls	r3, r3, #30
 8001796:	d077      	beq.n	8001888 <HAL_TIM_IRQHandler+0x112>
 8001798:	f7ff ffea 	bl	8001770 <HAL_TIM_IC_CaptureCallback>
 800179c:	2300      	movs	r3, #0
 800179e:	7723      	strb	r3, [r4, #28]
 80017a0:	6823      	ldr	r3, [r4, #0]
 80017a2:	691a      	ldr	r2, [r3, #16]
 80017a4:	0750      	lsls	r0, r2, #29
 80017a6:	d510      	bpl.n	80017ca <HAL_TIM_IRQHandler+0x54>
 80017a8:	68da      	ldr	r2, [r3, #12]
 80017aa:	0751      	lsls	r1, r2, #29
 80017ac:	d50d      	bpl.n	80017ca <HAL_TIM_IRQHandler+0x54>
 80017ae:	f06f 0204 	mvn.w	r2, #4
 80017b2:	611a      	str	r2, [r3, #16]
 80017b4:	2202      	movs	r2, #2
 80017b6:	7722      	strb	r2, [r4, #28]
 80017b8:	699b      	ldr	r3, [r3, #24]
 80017ba:	f413 7f40 	tst.w	r3, #768	; 0x300
 80017be:	4620      	mov	r0, r4
 80017c0:	d068      	beq.n	8001894 <HAL_TIM_IRQHandler+0x11e>
 80017c2:	f7ff ffd5 	bl	8001770 <HAL_TIM_IC_CaptureCallback>
 80017c6:	2300      	movs	r3, #0
 80017c8:	7723      	strb	r3, [r4, #28]
 80017ca:	6823      	ldr	r3, [r4, #0]
 80017cc:	691a      	ldr	r2, [r3, #16]
 80017ce:	0712      	lsls	r2, r2, #28
 80017d0:	d50f      	bpl.n	80017f2 <HAL_TIM_IRQHandler+0x7c>
 80017d2:	68da      	ldr	r2, [r3, #12]
 80017d4:	0710      	lsls	r0, r2, #28
 80017d6:	d50c      	bpl.n	80017f2 <HAL_TIM_IRQHandler+0x7c>
 80017d8:	f06f 0208 	mvn.w	r2, #8
 80017dc:	611a      	str	r2, [r3, #16]
 80017de:	2204      	movs	r2, #4
 80017e0:	7722      	strb	r2, [r4, #28]
 80017e2:	69db      	ldr	r3, [r3, #28]
 80017e4:	0799      	lsls	r1, r3, #30
 80017e6:	4620      	mov	r0, r4
 80017e8:	d05a      	beq.n	80018a0 <HAL_TIM_IRQHandler+0x12a>
 80017ea:	f7ff ffc1 	bl	8001770 <HAL_TIM_IC_CaptureCallback>
 80017ee:	2300      	movs	r3, #0
 80017f0:	7723      	strb	r3, [r4, #28]
 80017f2:	6823      	ldr	r3, [r4, #0]
 80017f4:	691a      	ldr	r2, [r3, #16]
 80017f6:	06d2      	lsls	r2, r2, #27
 80017f8:	d510      	bpl.n	800181c <HAL_TIM_IRQHandler+0xa6>
 80017fa:	68da      	ldr	r2, [r3, #12]
 80017fc:	06d0      	lsls	r0, r2, #27
 80017fe:	d50d      	bpl.n	800181c <HAL_TIM_IRQHandler+0xa6>
 8001800:	f06f 0210 	mvn.w	r2, #16
 8001804:	611a      	str	r2, [r3, #16]
 8001806:	2208      	movs	r2, #8
 8001808:	7722      	strb	r2, [r4, #28]
 800180a:	69db      	ldr	r3, [r3, #28]
 800180c:	f413 7f40 	tst.w	r3, #768	; 0x300
 8001810:	4620      	mov	r0, r4
 8001812:	d04b      	beq.n	80018ac <HAL_TIM_IRQHandler+0x136>
 8001814:	f7ff ffac 	bl	8001770 <HAL_TIM_IC_CaptureCallback>
 8001818:	2300      	movs	r3, #0
 800181a:	7723      	strb	r3, [r4, #28]
 800181c:	6823      	ldr	r3, [r4, #0]
 800181e:	691a      	ldr	r2, [r3, #16]
 8001820:	07d1      	lsls	r1, r2, #31
 8001822:	d508      	bpl.n	8001836 <HAL_TIM_IRQHandler+0xc0>
 8001824:	68da      	ldr	r2, [r3, #12]
 8001826:	07d2      	lsls	r2, r2, #31
 8001828:	d505      	bpl.n	8001836 <HAL_TIM_IRQHandler+0xc0>
 800182a:	f06f 0201 	mvn.w	r2, #1
 800182e:	611a      	str	r2, [r3, #16]
 8001830:	4620      	mov	r0, r4
 8001832:	f7ff ff9b 	bl	800176c <HAL_TIM_PeriodElapsedCallback>
 8001836:	6823      	ldr	r3, [r4, #0]
 8001838:	691a      	ldr	r2, [r3, #16]
 800183a:	0610      	lsls	r0, r2, #24
 800183c:	d508      	bpl.n	8001850 <HAL_TIM_IRQHandler+0xda>
 800183e:	68da      	ldr	r2, [r3, #12]
 8001840:	0611      	lsls	r1, r2, #24
 8001842:	d505      	bpl.n	8001850 <HAL_TIM_IRQHandler+0xda>
 8001844:	f06f 0280 	mvn.w	r2, #128	; 0x80
 8001848:	611a      	str	r2, [r3, #16]
 800184a:	4620      	mov	r0, r4
 800184c:	f000 faad 	bl	8001daa <HAL_TIMEx_BreakCallback>
 8001850:	6823      	ldr	r3, [r4, #0]
 8001852:	691a      	ldr	r2, [r3, #16]
 8001854:	0652      	lsls	r2, r2, #25
 8001856:	d508      	bpl.n	800186a <HAL_TIM_IRQHandler+0xf4>
 8001858:	68da      	ldr	r2, [r3, #12]
 800185a:	0650      	lsls	r0, r2, #25
 800185c:	d505      	bpl.n	800186a <HAL_TIM_IRQHandler+0xf4>
 800185e:	f06f 0240 	mvn.w	r2, #64	; 0x40
 8001862:	611a      	str	r2, [r3, #16]
 8001864:	4620      	mov	r0, r4
 8001866:	f7ff ff85 	bl	8001774 <HAL_TIM_TriggerCallback>
 800186a:	6823      	ldr	r3, [r4, #0]
 800186c:	691a      	ldr	r2, [r3, #16]
 800186e:	0691      	lsls	r1, r2, #26
 8001870:	d522      	bpl.n	80018b8 <HAL_TIM_IRQHandler+0x142>
 8001872:	68da      	ldr	r2, [r3, #12]
 8001874:	0692      	lsls	r2, r2, #26
 8001876:	d51f      	bpl.n	80018b8 <HAL_TIM_IRQHandler+0x142>
 8001878:	f06f 0220 	mvn.w	r2, #32
 800187c:	4620      	mov	r0, r4
 800187e:	611a      	str	r2, [r3, #16]
 8001880:	e8bd 4010 	ldmia.w	sp!, {r4, lr}
 8001884:	f000 ba90 	b.w	8001da8 <HAL_TIMEx_CommutCallback>
 8001888:	f7ff ff71 	bl	800176e <HAL_TIM_OC_DelayElapsedCallback>
 800188c:	4620      	mov	r0, r4
 800188e:	f7ff ff70 	bl	8001772 <HAL_TIM_PWM_PulseFinishedCallback>
 8001892:	e783      	b.n	800179c <HAL_TIM_IRQHandler+0x26>
 8001894:	f7ff ff6b 	bl	800176e <HAL_TIM_OC_DelayElapsedCallback>
 8001898:	4620      	mov	r0, r4
 800189a:	f7ff ff6a 	bl	8001772 <HAL_TIM_PWM_PulseFinishedCallback>
 800189e:	e792      	b.n	80017c6 <HAL_TIM_IRQHandler+0x50>
 80018a0:	f7ff ff65 	bl	800176e <HAL_TIM_OC_DelayElapsedCallback>
 80018a4:	4620      	mov	r0, r4
 80018a6:	f7ff ff64 	bl	8001772 <HAL_TIM_PWM_PulseFinishedCallback>
 80018aa:	e7a0      	b.n	80017ee <HAL_TIM_IRQHandler+0x78>
 80018ac:	f7ff ff5f 	bl	800176e <HAL_TIM_OC_DelayElapsedCallback>
 80018b0:	4620      	mov	r0, r4
 80018b2:	f7ff ff5e 	bl	8001772 <HAL_TIM_PWM_PulseFinishedCallback>
 80018b6:	e7af      	b.n	8001818 <HAL_TIM_IRQHandler+0xa2>
 80018b8:	bd10      	pop	{r4, pc}
	...

080018bc <TIM_Base_SetConfig>:
 80018bc:	4a30      	ldr	r2, [pc, #192]	; (8001980 <TIM_Base_SetConfig+0xc4>)
 80018be:	6803      	ldr	r3, [r0, #0]
 80018c0:	4290      	cmp	r0, r2
 80018c2:	d012      	beq.n	80018ea <TIM_Base_SetConfig+0x2e>
 80018c4:	f1b0 4f80 	cmp.w	r0, #1073741824	; 0x40000000
 80018c8:	d00f      	beq.n	80018ea <TIM_Base_SetConfig+0x2e>
 80018ca:	f5a2 427c 	sub.w	r2, r2, #64512	; 0xfc00
 80018ce:	4290      	cmp	r0, r2
 80018d0:	d00b      	beq.n	80018ea <TIM_Base_SetConfig+0x2e>
 80018d2:	f502 6280 	add.w	r2, r2, #1024	; 0x400
 80018d6:	4290      	cmp	r0, r2
 80018d8:	d007      	beq.n	80018ea <TIM_Base_SetConfig+0x2e>
 80018da:	f502 6280 	add.w	r2, r2, #1024	; 0x400
 80018de:	4290      	cmp	r0, r2
 80018e0:	d003      	beq.n	80018ea <TIM_Base_SetConfig+0x2e>
 80018e2:	f502 4278 	add.w	r2, r2, #63488	; 0xf800
 80018e6:	4290      	cmp	r0, r2
 80018e8:	d119      	bne.n	800191e <TIM_Base_SetConfig+0x62>
 80018ea:	684a      	ldr	r2, [r1, #4]
 80018ec:	f023 0370 	bic.w	r3, r3, #112	; 0x70
 80018f0:	4313      	orrs	r3, r2
 80018f2:	4a23      	ldr	r2, [pc, #140]	; (8001980 <TIM_Base_SetConfig+0xc4>)
 80018f4:	4290      	cmp	r0, r2
 80018f6:	d029      	beq.n	800194c <TIM_Base_SetConfig+0x90>
 80018f8:	f1b0 4f80 	cmp.w	r0, #1073741824	; 0x40000000
 80018fc:	d026      	beq.n	800194c <TIM_Base_SetConfig+0x90>
 80018fe:	f5a2 427c 	sub.w	r2, r2, #64512	; 0xfc00
 8001902:	4290      	cmp	r0, r2
 8001904:	d022      	beq.n	800194c <TIM_Base_SetConfig+0x90>
 8001906:	f502 6280 	add.w	r2, r2, #1024	; 0x400
 800190a:	4290      	cmp	r0, r2
 800190c:	d01e      	beq.n	800194c <TIM_Base_SetConfig+0x90>
 800190e:	f502 6280 	add.w	r2, r2, #1024	; 0x400
 8001912:	4290      	cmp	r0, r2
 8001914:	d01a      	beq.n	800194c <TIM_Base_SetConfig+0x90>
 8001916:	f502 4278 	add.w	r2, r2, #63488	; 0xf800
 800191a:	4290      	cmp	r0, r2
 800191c:	d016      	beq.n	800194c <TIM_Base_SetConfig+0x90>
 800191e:	4a19      	ldr	r2, [pc, #100]	; (8001984 <TIM_Base_SetConfig+0xc8>)
 8001920:	4290      	cmp	r0, r2
 8001922:	d013      	beq.n	800194c <TIM_Base_SetConfig+0x90>
 8001924:	f502 6280 	add.w	r2, r2, #1024	; 0x400
 8001928:	4290      	cmp	r0, r2
 800192a:	d00f      	beq.n	800194c <TIM_Base_SetConfig+0x90>
 800192c:	f502 6280 	add.w	r2, r2, #1024	; 0x400
 8001930:	4290      	cmp	r0, r2
 8001932:	d00b      	beq.n	800194c <TIM_Base_SetConfig+0x90>
 8001934:	f5a2 3298 	sub.w	r2, r2, #77824	; 0x13000
 8001938:	4290      	cmp	r0, r2
 800193a:	d007      	beq.n	800194c <TIM_Base_SetConfig+0x90>
 800193c:	f502 6280 	add.w	r2, r2, #1024	; 0x400
 8001940:	4290      	cmp	r0, r2
 8001942:	d003      	beq.n	800194c <TIM_Base_SetConfig+0x90>
 8001944:	f502 6280 	add.w	r2, r2, #1024	; 0x400
 8001948:	4290      	cmp	r0, r2
 800194a:	d103      	bne.n	8001954 <TIM_Base_SetConfig+0x98>
 800194c:	68ca      	ldr	r2, [r1, #12]
 800194e:	f423 7340 	bic.w	r3, r3, #768	; 0x300
 8001952:	4313      	orrs	r3, r2
 8001954:	694a      	ldr	r2, [r1, #20]
 8001956:	f023 0380 	bic.w	r3, r3, #128	; 0x80
 800195a:	4313      	orrs	r3, r2
 800195c:	6003      	str	r3, [r0, #0]
 800195e:	688b      	ldr	r3, [r1, #8]
 8001960:	62c3      	str	r3, [r0, #44]	; 0x2c
 8001962:	680b      	ldr	r3, [r1, #0]
 8001964:	6283      	str	r3, [r0, #40]	; 0x28
 8001966:	4b06      	ldr	r3, [pc, #24]	; (8001980 <TIM_Base_SetConfig+0xc4>)
 8001968:	4298      	cmp	r0, r3
 800196a:	d003      	beq.n	8001974 <TIM_Base_SetConfig+0xb8>
 800196c:	f503 6380 	add.w	r3, r3, #1024	; 0x400
 8001970:	4298      	cmp	r0, r3
 8001972:	d101      	bne.n	8001978 <TIM_Base_SetConfig+0xbc>
 8001974:	690b      	ldr	r3, [r1, #16]
 8001976:	6303      	str	r3, [r0, #48]	; 0x30
 8001978:	2301      	movs	r3, #1
 800197a:	6143      	str	r3, [r0, #20]
 800197c:	4770      	bx	lr
 800197e:	bf00      	nop
 8001980:	40010000 	.word	0x40010000
 8001984:	40014000 	.word	0x40014000

08001988 <HAL_TIM_Base_Init>:
 8001988:	b510      	push	{r4, lr}
 800198a:	4604      	mov	r4, r0
 800198c:	b1a0      	cbz	r0, 80019b8 <HAL_TIM_Base_Init+0x30>
 800198e:	f890 303d 	ldrb.w	r3, [r0, #61]	; 0x3d
 8001992:	f003 02ff 	and.w	r2, r3, #255	; 0xff
 8001996:	b91b      	cbnz	r3, 80019a0 <HAL_TIM_Base_Init+0x18>
 8001998:	f880 203c 	strb.w	r2, [r0, #60]	; 0x3c
 800199c:	f7fe ffb4 	bl	8000908 <HAL_TIM_Base_MspInit>
 80019a0:	2302      	movs	r3, #2
 80019a2:	6820      	ldr	r0, [r4, #0]
 80019a4:	f884 303d 	strb.w	r3, [r4, #61]	; 0x3d
 80019a8:	1d21      	adds	r1, r4, #4
 80019aa:	f7ff ff87 	bl	80018bc <TIM_Base_SetConfig>
 80019ae:	2301      	movs	r3, #1
 80019b0:	f884 303d 	strb.w	r3, [r4, #61]	; 0x3d
 80019b4:	2000      	movs	r0, #0
 80019b6:	bd10      	pop	{r4, pc}
 80019b8:	2001      	movs	r0, #1
 80019ba:	e7fc      	b.n	80019b6 <HAL_TIM_Base_Init+0x2e>

080019bc <HAL_TIM_PWM_Init>:
 80019bc:	b510      	push	{r4, lr}
 80019be:	4604      	mov	r4, r0
 80019c0:	b1a0      	cbz	r0, 80019ec <HAL_TIM_PWM_Init+0x30>
 80019c2:	f890 303d 	ldrb.w	r3, [r0, #61]	; 0x3d
 80019c6:	f003 02ff 	and.w	r2, r3, #255	; 0xff
 80019ca:	b91b      	cbnz	r3, 80019d4 <HAL_TIM_PWM_Init+0x18>
 80019cc:	f880 203c 	strb.w	r2, [r0, #60]	; 0x3c
 80019d0:	f7fe ffd2 	bl	8000978 <HAL_TIM_PWM_MspInit>
 80019d4:	2302      	movs	r3, #2
 80019d6:	6820      	ldr	r0, [r4, #0]
 80019d8:	f884 303d 	strb.w	r3, [r4, #61]	; 0x3d
 80019dc:	1d21      	adds	r1, r4, #4
 80019de:	f7ff ff6d 	bl	80018bc <TIM_Base_SetConfig>
 80019e2:	2301      	movs	r3, #1
 80019e4:	f884 303d 	strb.w	r3, [r4, #61]	; 0x3d
 80019e8:	2000      	movs	r0, #0
 80019ea:	bd10      	pop	{r4, pc}
 80019ec:	2001      	movs	r0, #1
 80019ee:	e7fc      	b.n	80019ea <HAL_TIM_PWM_Init+0x2e>

080019f0 <TIM_OC2_SetConfig>:
 80019f0:	6a03      	ldr	r3, [r0, #32]
 80019f2:	f023 0310 	bic.w	r3, r3, #16
 80019f6:	6203      	str	r3, [r0, #32]
 80019f8:	6a03      	ldr	r3, [r0, #32]
 80019fa:	b570      	push	{r4, r5, r6, lr}
 80019fc:	6844      	ldr	r4, [r0, #4]
 80019fe:	6982      	ldr	r2, [r0, #24]
 8001a00:	680d      	ldr	r5, [r1, #0]
 8001a02:	f422 42e6 	bic.w	r2, r2, #29440	; 0x7300
 8001a06:	ea42 2205 	orr.w	r2, r2, r5, lsl #8
 8001a0a:	688d      	ldr	r5, [r1, #8]
 8001a0c:	f023 0320 	bic.w	r3, r3, #32
 8001a10:	ea43 1305 	orr.w	r3, r3, r5, lsl #4
 8001a14:	4d10      	ldr	r5, [pc, #64]	; (8001a58 <TIM_OC2_SetConfig+0x68>)
 8001a16:	42a8      	cmp	r0, r5
 8001a18:	d003      	beq.n	8001a22 <TIM_OC2_SetConfig+0x32>
 8001a1a:	f505 6580 	add.w	r5, r5, #1024	; 0x400
 8001a1e:	42a8      	cmp	r0, r5
 8001a20:	d114      	bne.n	8001a4c <TIM_OC2_SetConfig+0x5c>
 8001a22:	68cd      	ldr	r5, [r1, #12]
 8001a24:	f023 0380 	bic.w	r3, r3, #128	; 0x80
 8001a28:	ea43 1305 	orr.w	r3, r3, r5, lsl #4
 8001a2c:	4d0a      	ldr	r5, [pc, #40]	; (8001a58 <TIM_OC2_SetConfig+0x68>)
 8001a2e:	42a8      	cmp	r0, r5
 8001a30:	f023 0340 	bic.w	r3, r3, #64	; 0x40
 8001a34:	d003      	beq.n	8001a3e <TIM_OC2_SetConfig+0x4e>
 8001a36:	f505 6580 	add.w	r5, r5, #1024	; 0x400
 8001a3a:	42a8      	cmp	r0, r5
 8001a3c:	d106      	bne.n	8001a4c <TIM_OC2_SetConfig+0x5c>
 8001a3e:	e9d1 5605 	ldrd	r5, r6, [r1, #20]
 8001a42:	f424 6440 	bic.w	r4, r4, #3072	; 0xc00
 8001a46:	4335      	orrs	r5, r6
 8001a48:	ea44 0485 	orr.w	r4, r4, r5, lsl #2
 8001a4c:	6044      	str	r4, [r0, #4]
 8001a4e:	6182      	str	r2, [r0, #24]
 8001a50:	684a      	ldr	r2, [r1, #4]
 8001a52:	6382      	str	r2, [r0, #56]	; 0x38
 8001a54:	6203      	str	r3, [r0, #32]
 8001a56:	bd70      	pop	{r4, r5, r6, pc}
 8001a58:	40010000 	.word	0x40010000

08001a5c <HAL_TIM_PWM_ConfigChannel>:
 8001a5c:	b538      	push	{r3, r4, r5, lr}
 8001a5e:	f890 303c 	ldrb.w	r3, [r0, #60]	; 0x3c
 8001a62:	2b01      	cmp	r3, #1
 8001a64:	4604      	mov	r4, r0
 8001a66:	f04f 0002 	mov.w	r0, #2
 8001a6a:	d010      	beq.n	8001a8e <HAL_TIM_PWM_ConfigChannel+0x32>
 8001a6c:	2301      	movs	r3, #1
 8001a6e:	2a08      	cmp	r2, #8
 8001a70:	f884 303c 	strb.w	r3, [r4, #60]	; 0x3c
 8001a74:	f884 003d 	strb.w	r0, [r4, #61]	; 0x3d
 8001a78:	d03f      	beq.n	8001afa <HAL_TIM_PWM_ConfigChannel+0x9e>
 8001a7a:	d809      	bhi.n	8001a90 <HAL_TIM_PWM_ConfigChannel+0x34>
 8001a7c:	b1da      	cbz	r2, 8001ab6 <HAL_TIM_PWM_ConfigChannel+0x5a>
 8001a7e:	2a04      	cmp	r2, #4
 8001a80:	d02a      	beq.n	8001ad8 <HAL_TIM_PWM_ConfigChannel+0x7c>
 8001a82:	2301      	movs	r3, #1
 8001a84:	2000      	movs	r0, #0
 8001a86:	f884 303d 	strb.w	r3, [r4, #61]	; 0x3d
 8001a8a:	f884 003c 	strb.w	r0, [r4, #60]	; 0x3c
 8001a8e:	bd38      	pop	{r3, r4, r5, pc}
 8001a90:	2a0c      	cmp	r2, #12
 8001a92:	d1f6      	bne.n	8001a82 <HAL_TIM_PWM_ConfigChannel+0x26>
 8001a94:	6820      	ldr	r0, [r4, #0]
 8001a96:	f7ff fe31 	bl	80016fc <TIM_OC4_SetConfig>
 8001a9a:	6823      	ldr	r3, [r4, #0]
 8001a9c:	6909      	ldr	r1, [r1, #16]
 8001a9e:	69da      	ldr	r2, [r3, #28]
 8001aa0:	f442 6200 	orr.w	r2, r2, #2048	; 0x800
 8001aa4:	61da      	str	r2, [r3, #28]
 8001aa6:	69da      	ldr	r2, [r3, #28]
 8001aa8:	f422 6280 	bic.w	r2, r2, #1024	; 0x400
 8001aac:	61da      	str	r2, [r3, #28]
 8001aae:	69da      	ldr	r2, [r3, #28]
 8001ab0:	ea42 2201 	orr.w	r2, r2, r1, lsl #8
 8001ab4:	e030      	b.n	8001b18 <HAL_TIM_PWM_ConfigChannel+0xbc>
 8001ab6:	6820      	ldr	r0, [r4, #0]
 8001ab8:	f7ff fdb8 	bl	800162c <TIM_OC1_SetConfig>
 8001abc:	6823      	ldr	r3, [r4, #0]
 8001abe:	6909      	ldr	r1, [r1, #16]
 8001ac0:	699a      	ldr	r2, [r3, #24]
 8001ac2:	f042 0208 	orr.w	r2, r2, #8
 8001ac6:	619a      	str	r2, [r3, #24]
 8001ac8:	699a      	ldr	r2, [r3, #24]
 8001aca:	f022 0204 	bic.w	r2, r2, #4
 8001ace:	619a      	str	r2, [r3, #24]
 8001ad0:	699a      	ldr	r2, [r3, #24]
 8001ad2:	430a      	orrs	r2, r1
 8001ad4:	619a      	str	r2, [r3, #24]
 8001ad6:	e7d4      	b.n	8001a82 <HAL_TIM_PWM_ConfigChannel+0x26>
 8001ad8:	6820      	ldr	r0, [r4, #0]
 8001ada:	f7ff ff89 	bl	80019f0 <TIM_OC2_SetConfig>
 8001ade:	6823      	ldr	r3, [r4, #0]
 8001ae0:	6909      	ldr	r1, [r1, #16]
 8001ae2:	699a      	ldr	r2, [r3, #24]
 8001ae4:	f442 6200 	orr.w	r2, r2, #2048	; 0x800
 8001ae8:	619a      	str	r2, [r3, #24]
 8001aea:	699a      	ldr	r2, [r3, #24]
 8001aec:	f422 6280 	bic.w	r2, r2, #1024	; 0x400
 8001af0:	619a      	str	r2, [r3, #24]
 8001af2:	699a      	ldr	r2, [r3, #24]
 8001af4:	ea42 2201 	orr.w	r2, r2, r1, lsl #8
 8001af8:	e7ec      	b.n	8001ad4 <HAL_TIM_PWM_ConfigChannel+0x78>
 8001afa:	6820      	ldr	r0, [r4, #0]
 8001afc:	f7ff fdc8 	bl	8001690 <TIM_OC3_SetConfig>
 8001b00:	6823      	ldr	r3, [r4, #0]
 8001b02:	6909      	ldr	r1, [r1, #16]
 8001b04:	69da      	ldr	r2, [r3, #28]
 8001b06:	f042 0208 	orr.w	r2, r2, #8
 8001b0a:	61da      	str	r2, [r3, #28]
 8001b0c:	69da      	ldr	r2, [r3, #28]
 8001b0e:	f022 0204 	bic.w	r2, r2, #4
 8001b12:	61da      	str	r2, [r3, #28]
 8001b14:	69da      	ldr	r2, [r3, #28]
 8001b16:	430a      	orrs	r2, r1
 8001b18:	61da      	str	r2, [r3, #28]
 8001b1a:	e7b2      	b.n	8001a82 <HAL_TIM_PWM_ConfigChannel+0x26>

08001b1c <TIM_ETR_SetConfig>:
 8001b1c:	b510      	push	{r4, lr}
 8001b1e:	6884      	ldr	r4, [r0, #8]
 8001b20:	4311      	orrs	r1, r2
 8001b22:	f424 447f 	bic.w	r4, r4, #65280	; 0xff00
 8001b26:	ea41 2303 	orr.w	r3, r1, r3, lsl #8
 8001b2a:	4323      	orrs	r3, r4
 8001b2c:	6083      	str	r3, [r0, #8]
 8001b2e:	bd10      	pop	{r4, pc}

08001b30 <HAL_TIM_ConfigClockSource>:
 8001b30:	b570      	push	{r4, r5, r6, lr}
 8001b32:	f890 303c 	ldrb.w	r3, [r0, #60]	; 0x3c
 8001b36:	2b01      	cmp	r3, #1
 8001b38:	4604      	mov	r4, r0
 8001b3a:	f04f 0002 	mov.w	r0, #2
 8001b3e:	d027      	beq.n	8001b90 <HAL_TIM_ConfigClockSource+0x60>
 8001b40:	f884 003d 	strb.w	r0, [r4, #61]	; 0x3d
 8001b44:	2301      	movs	r3, #1
 8001b46:	6820      	ldr	r0, [r4, #0]
 8001b48:	f884 303c 	strb.w	r3, [r4, #60]	; 0x3c
 8001b4c:	6883      	ldr	r3, [r0, #8]
 8001b4e:	f423 437f 	bic.w	r3, r3, #65280	; 0xff00
 8001b52:	f023 0377 	bic.w	r3, r3, #119	; 0x77
 8001b56:	6083      	str	r3, [r0, #8]
 8001b58:	680b      	ldr	r3, [r1, #0]
 8001b5a:	2b60      	cmp	r3, #96	; 0x60
 8001b5c:	d04d      	beq.n	8001bfa <HAL_TIM_ConfigClockSource+0xca>
 8001b5e:	d832      	bhi.n	8001bc6 <HAL_TIM_ConfigClockSource+0x96>
 8001b60:	2b40      	cmp	r3, #64	; 0x40
 8001b62:	d062      	beq.n	8001c2a <HAL_TIM_ConfigClockSource+0xfa>
 8001b64:	d815      	bhi.n	8001b92 <HAL_TIM_ConfigClockSource+0x62>
 8001b66:	2b20      	cmp	r3, #32
 8001b68:	d003      	beq.n	8001b72 <HAL_TIM_ConfigClockSource+0x42>
 8001b6a:	d809      	bhi.n	8001b80 <HAL_TIM_ConfigClockSource+0x50>
 8001b6c:	f033 0210 	bics.w	r2, r3, #16
 8001b70:	d108      	bne.n	8001b84 <HAL_TIM_ConfigClockSource+0x54>
 8001b72:	6882      	ldr	r2, [r0, #8]
 8001b74:	f022 0270 	bic.w	r2, r2, #112	; 0x70
 8001b78:	4313      	orrs	r3, r2
 8001b7a:	f043 0307 	orr.w	r3, r3, #7
 8001b7e:	e020      	b.n	8001bc2 <HAL_TIM_ConfigClockSource+0x92>
 8001b80:	2b30      	cmp	r3, #48	; 0x30
 8001b82:	d0f6      	beq.n	8001b72 <HAL_TIM_ConfigClockSource+0x42>
 8001b84:	2301      	movs	r3, #1
 8001b86:	2000      	movs	r0, #0
 8001b88:	f884 303d 	strb.w	r3, [r4, #61]	; 0x3d
 8001b8c:	f884 003c 	strb.w	r0, [r4, #60]	; 0x3c
 8001b90:	bd70      	pop	{r4, r5, r6, pc}
 8001b92:	2b50      	cmp	r3, #80	; 0x50
 8001b94:	d1f6      	bne.n	8001b84 <HAL_TIM_ConfigClockSource+0x54>
 8001b96:	684a      	ldr	r2, [r1, #4]
 8001b98:	68ce      	ldr	r6, [r1, #12]
 8001b9a:	6a01      	ldr	r1, [r0, #32]
 8001b9c:	6a05      	ldr	r5, [r0, #32]
 8001b9e:	f025 0501 	bic.w	r5, r5, #1
 8001ba2:	6205      	str	r5, [r0, #32]
 8001ba4:	6983      	ldr	r3, [r0, #24]
 8001ba6:	f021 010a 	bic.w	r1, r1, #10
 8001baa:	f023 03f0 	bic.w	r3, r3, #240	; 0xf0
 8001bae:	ea43 1306 	orr.w	r3, r3, r6, lsl #4
 8001bb2:	430a      	orrs	r2, r1
 8001bb4:	6183      	str	r3, [r0, #24]
 8001bb6:	6202      	str	r2, [r0, #32]
 8001bb8:	6883      	ldr	r3, [r0, #8]
 8001bba:	f023 0370 	bic.w	r3, r3, #112	; 0x70
 8001bbe:	f043 0357 	orr.w	r3, r3, #87	; 0x57
 8001bc2:	6083      	str	r3, [r0, #8]
 8001bc4:	e7de      	b.n	8001b84 <HAL_TIM_ConfigClockSource+0x54>
 8001bc6:	2b70      	cmp	r3, #112	; 0x70
 8001bc8:	d00c      	beq.n	8001be4 <HAL_TIM_ConfigClockSource+0xb4>
 8001bca:	f5b3 5f00 	cmp.w	r3, #8192	; 0x2000
 8001bce:	d1d9      	bne.n	8001b84 <HAL_TIM_ConfigClockSource+0x54>
 8001bd0:	68cb      	ldr	r3, [r1, #12]
 8001bd2:	e9d1 2101 	ldrd	r2, r1, [r1, #4]
 8001bd6:	f7ff ffa1 	bl	8001b1c <TIM_ETR_SetConfig>
 8001bda:	6822      	ldr	r2, [r4, #0]
 8001bdc:	6893      	ldr	r3, [r2, #8]
 8001bde:	f443 4380 	orr.w	r3, r3, #16384	; 0x4000
 8001be2:	e008      	b.n	8001bf6 <HAL_TIM_ConfigClockSource+0xc6>
 8001be4:	68cb      	ldr	r3, [r1, #12]
 8001be6:	e9d1 2101 	ldrd	r2, r1, [r1, #4]
 8001bea:	f7ff ff97 	bl	8001b1c <TIM_ETR_SetConfig>
 8001bee:	6822      	ldr	r2, [r4, #0]
 8001bf0:	6893      	ldr	r3, [r2, #8]
 8001bf2:	f043 0377 	orr.w	r3, r3, #119	; 0x77
 8001bf6:	6093      	str	r3, [r2, #8]
 8001bf8:	e7c4      	b.n	8001b84 <HAL_TIM_ConfigClockSource+0x54>
 8001bfa:	684d      	ldr	r5, [r1, #4]
 8001bfc:	68ce      	ldr	r6, [r1, #12]
 8001bfe:	6a01      	ldr	r1, [r0, #32]
 8001c00:	f021 0110 	bic.w	r1, r1, #16
 8001c04:	6201      	str	r1, [r0, #32]
 8001c06:	6982      	ldr	r2, [r0, #24]
 8001c08:	6a03      	ldr	r3, [r0, #32]
 8001c0a:	f422 4270 	bic.w	r2, r2, #61440	; 0xf000
 8001c0e:	f023 03a0 	bic.w	r3, r3, #160	; 0xa0
 8001c12:	ea43 1305 	orr.w	r3, r3, r5, lsl #4
 8001c16:	ea42 3206 	orr.w	r2, r2, r6, lsl #12
 8001c1a:	6182      	str	r2, [r0, #24]
 8001c1c:	6203      	str	r3, [r0, #32]
 8001c1e:	6883      	ldr	r3, [r0, #8]
 8001c20:	f023 0370 	bic.w	r3, r3, #112	; 0x70
 8001c24:	f043 0367 	orr.w	r3, r3, #103	; 0x67
 8001c28:	e7cb      	b.n	8001bc2 <HAL_TIM_ConfigClockSource+0x92>
 8001c2a:	684a      	ldr	r2, [r1, #4]
 8001c2c:	68ce      	ldr	r6, [r1, #12]
 8001c2e:	6a01      	ldr	r1, [r0, #32]
 8001c30:	6a05      	ldr	r5, [r0, #32]
 8001c32:	f025 0501 	bic.w	r5, r5, #1
 8001c36:	6205      	str	r5, [r0, #32]
 8001c38:	6983      	ldr	r3, [r0, #24]
 8001c3a:	f021 010a 	bic.w	r1, r1, #10
 8001c3e:	f023 03f0 	bic.w	r3, r3, #240	; 0xf0
 8001c42:	ea43 1306 	orr.w	r3, r3, r6, lsl #4
 8001c46:	430a      	orrs	r2, r1
 8001c48:	6183      	str	r3, [r0, #24]
 8001c4a:	6202      	str	r2, [r0, #32]
 8001c4c:	6883      	ldr	r3, [r0, #8]
 8001c4e:	f023 0370 	bic.w	r3, r3, #112	; 0x70
 8001c52:	f043 0347 	orr.w	r3, r3, #71	; 0x47
 8001c56:	e7b4      	b.n	8001bc2 <HAL_TIM_ConfigClockSource+0x92>

08001c58 <TIM_CCxChannelCmd>:
 8001c58:	6a03      	ldr	r3, [r0, #32]
 8001c5a:	f001 011f 	and.w	r1, r1, #31
 8001c5e:	b510      	push	{r4, lr}
 8001c60:	2401      	movs	r4, #1
 8001c62:	408c      	lsls	r4, r1
 8001c64:	ea23 0304 	bic.w	r3, r3, r4
 8001c68:	6203      	str	r3, [r0, #32]
 8001c6a:	6a03      	ldr	r3, [r0, #32]
 8001c6c:	408a      	lsls	r2, r1
 8001c6e:	431a      	orrs	r2, r3
 8001c70:	6202      	str	r2, [r0, #32]
 8001c72:	bd10      	pop	{r4, pc}

08001c74 <HAL_TIM_OC_Start>:
 8001c74:	b510      	push	{r4, lr}
 8001c76:	4604      	mov	r4, r0
 8001c78:	2201      	movs	r2, #1
 8001c7a:	6800      	ldr	r0, [r0, #0]
 8001c7c:	f7ff ffec 	bl	8001c58 <TIM_CCxChannelCmd>
 8001c80:	6823      	ldr	r3, [r4, #0]
 8001c82:	4a0b      	ldr	r2, [pc, #44]	; (8001cb0 <HAL_TIM_OC_Start+0x3c>)
 8001c84:	4293      	cmp	r3, r2
 8001c86:	d003      	beq.n	8001c90 <HAL_TIM_OC_Start+0x1c>
 8001c88:	f502 6280 	add.w	r2, r2, #1024	; 0x400
 8001c8c:	4293      	cmp	r3, r2
 8001c8e:	d103      	bne.n	8001c98 <HAL_TIM_OC_Start+0x24>
 8001c90:	6c5a      	ldr	r2, [r3, #68]	; 0x44
 8001c92:	f442 4200 	orr.w	r2, r2, #32768	; 0x8000
 8001c96:	645a      	str	r2, [r3, #68]	; 0x44
 8001c98:	689a      	ldr	r2, [r3, #8]
 8001c9a:	f002 0207 	and.w	r2, r2, #7
 8001c9e:	2a06      	cmp	r2, #6
 8001ca0:	bf1e      	ittt	ne
 8001ca2:	681a      	ldrne	r2, [r3, #0]
 8001ca4:	f042 0201 	orrne.w	r2, r2, #1
 8001ca8:	601a      	strne	r2, [r3, #0]
 8001caa:	2000      	movs	r0, #0
 8001cac:	bd10      	pop	{r4, pc}
 8001cae:	bf00      	nop
 8001cb0:	40010000 	.word	0x40010000

08001cb4 <HAL_TIM_PWM_Start>:
 8001cb4:	f7ff bfde 	b.w	8001c74 <HAL_TIM_OC_Start>

08001cb8 <HAL_TIM_OC_Start_IT>:
 8001cb8:	2908      	cmp	r1, #8
 8001cba:	b510      	push	{r4, lr}
 8001cbc:	4604      	mov	r4, r0
 8001cbe:	6800      	ldr	r0, [r0, #0]
 8001cc0:	d02c      	beq.n	8001d1c <HAL_TIM_OC_Start_IT+0x64>
 8001cc2:	d81c      	bhi.n	8001cfe <HAL_TIM_OC_Start_IT+0x46>
 8001cc4:	b309      	cbz	r1, 8001d0a <HAL_TIM_OC_Start_IT+0x52>
 8001cc6:	2904      	cmp	r1, #4
 8001cc8:	d024      	beq.n	8001d14 <HAL_TIM_OC_Start_IT+0x5c>
 8001cca:	2201      	movs	r2, #1
 8001ccc:	f7ff ffc4 	bl	8001c58 <TIM_CCxChannelCmd>
 8001cd0:	6823      	ldr	r3, [r4, #0]
 8001cd2:	4a14      	ldr	r2, [pc, #80]	; (8001d24 <HAL_TIM_OC_Start_IT+0x6c>)
 8001cd4:	4293      	cmp	r3, r2
 8001cd6:	d003      	beq.n	8001ce0 <HAL_TIM_OC_Start_IT+0x28>
 8001cd8:	f502 6280 	add.w	r2, r2, #1024	; 0x400
 8001cdc:	4293      	cmp	r3, r2
 8001cde:	d103      	bne.n	8001ce8 <HAL_TIM_OC_Start_IT+0x30>
 8001ce0:	6c5a      	ldr	r2, [r3, #68]	; 0x44
 8001ce2:	f442 4200 	orr.w	r2, r2, #32768	; 0x8000
 8001ce6:	645a      	str	r2, [r3, #68]	; 0x44
 8001ce8:	689a      	ldr	r2, [r3, #8]
 8001cea:	f002 0207 	and.w	r2, r2, #7
 8001cee:	2a06      	cmp	r2, #6
 8001cf0:	bf1e      	ittt	ne
 8001cf2:	681a      	ldrne	r2, [r3, #0]
 8001cf4:	f042 0201 	orrne.w	r2, r2, #1
 8001cf8:	601a      	strne	r2, [r3, #0]
 8001cfa:	2000      	movs	r0, #0
 8001cfc:	bd10      	pop	{r4, pc}
 8001cfe:	290c      	cmp	r1, #12
 8001d00:	d1e3      	bne.n	8001cca <HAL_TIM_OC_Start_IT+0x12>
 8001d02:	68c3      	ldr	r3, [r0, #12]
 8001d04:	f043 0310 	orr.w	r3, r3, #16
 8001d08:	e002      	b.n	8001d10 <HAL_TIM_OC_Start_IT+0x58>
 8001d0a:	68c3      	ldr	r3, [r0, #12]
 8001d0c:	f043 0302 	orr.w	r3, r3, #2
 8001d10:	60c3      	str	r3, [r0, #12]
 8001d12:	e7da      	b.n	8001cca <HAL_TIM_OC_Start_IT+0x12>
 8001d14:	68c3      	ldr	r3, [r0, #12]
 8001d16:	f043 0304 	orr.w	r3, r3, #4
 8001d1a:	e7f9      	b.n	8001d10 <HAL_TIM_OC_Start_IT+0x58>
 8001d1c:	68c3      	ldr	r3, [r0, #12]
 8001d1e:	f043 0308 	orr.w	r3, r3, #8
 8001d22:	e7f5      	b.n	8001d10 <HAL_TIM_OC_Start_IT+0x58>
 8001d24:	40010000 	.word	0x40010000

08001d28 <HAL_TIM_PWM_Start_IT>:
 8001d28:	f7ff bfc6 	b.w	8001cb8 <HAL_TIM_OC_Start_IT>

08001d2c <HAL_TIMEx_MasterConfigSynchronization>:
 8001d2c:	b530      	push	{r4, r5, lr}
 8001d2e:	f890 303c 	ldrb.w	r3, [r0, #60]	; 0x3c
 8001d32:	2b01      	cmp	r3, #1
 8001d34:	f04f 0302 	mov.w	r3, #2
 8001d38:	d032      	beq.n	8001da0 <HAL_TIMEx_MasterConfigSynchronization+0x74>
 8001d3a:	f880 303d 	strb.w	r3, [r0, #61]	; 0x3d
 8001d3e:	6803      	ldr	r3, [r0, #0]
 8001d40:	680d      	ldr	r5, [r1, #0]
 8001d42:	685c      	ldr	r4, [r3, #4]
 8001d44:	689a      	ldr	r2, [r3, #8]
 8001d46:	f024 0470 	bic.w	r4, r4, #112	; 0x70
 8001d4a:	432c      	orrs	r4, r5
 8001d4c:	605c      	str	r4, [r3, #4]
 8001d4e:	4c15      	ldr	r4, [pc, #84]	; (8001da4 <HAL_TIMEx_MasterConfigSynchronization+0x78>)
 8001d50:	42a3      	cmp	r3, r4
 8001d52:	d01a      	beq.n	8001d8a <HAL_TIMEx_MasterConfigSynchronization+0x5e>
 8001d54:	f1b3 4f80 	cmp.w	r3, #1073741824	; 0x40000000
 8001d58:	d017      	beq.n	8001d8a <HAL_TIMEx_MasterConfigSynchronization+0x5e>
 8001d5a:	f5a4 447c 	sub.w	r4, r4, #64512	; 0xfc00
 8001d5e:	42a3      	cmp	r3, r4
 8001d60:	d013      	beq.n	8001d8a <HAL_TIMEx_MasterConfigSynchronization+0x5e>
 8001d62:	f504 6480 	add.w	r4, r4, #1024	; 0x400
 8001d66:	42a3      	cmp	r3, r4
 8001d68:	d00f      	beq.n	8001d8a <HAL_TIMEx_MasterConfigSynchronization+0x5e>
 8001d6a:	f504 6480 	add.w	r4, r4, #1024	; 0x400
 8001d6e:	42a3      	cmp	r3, r4
 8001d70:	d00b      	beq.n	8001d8a <HAL_TIMEx_MasterConfigSynchronization+0x5e>
 8001d72:	f504 4478 	add.w	r4, r4, #63488	; 0xf800
 8001d76:	42a3      	cmp	r3, r4
 8001d78:	d007      	beq.n	8001d8a <HAL_TIMEx_MasterConfigSynchronization+0x5e>
 8001d7a:	f504 5470 	add.w	r4, r4, #15360	; 0x3c00
 8001d7e:	42a3      	cmp	r3, r4
 8001d80:	d003      	beq.n	8001d8a <HAL_TIMEx_MasterConfigSynchronization+0x5e>
 8001d82:	f5a4 3494 	sub.w	r4, r4, #75776	; 0x12800
 8001d86:	42a3      	cmp	r3, r4
 8001d88:	d104      	bne.n	8001d94 <HAL_TIMEx_MasterConfigSynchronization+0x68>
 8001d8a:	6849      	ldr	r1, [r1, #4]
 8001d8c:	f022 0280 	bic.w	r2, r2, #128	; 0x80
 8001d90:	430a      	orrs	r2, r1
 8001d92:	609a      	str	r2, [r3, #8]
 8001d94:	2301      	movs	r3, #1
 8001d96:	f880 303d 	strb.w	r3, [r0, #61]	; 0x3d
 8001d9a:	2300      	movs	r3, #0
 8001d9c:	f880 303c 	strb.w	r3, [r0, #60]	; 0x3c
 8001da0:	4618      	mov	r0, r3
 8001da2:	bd30      	pop	{r4, r5, pc}
 8001da4:	40010000 	.word	0x40010000

08001da8 <HAL_TIMEx_CommutCallback>:
 8001da8:	4770      	bx	lr

08001daa <HAL_TIMEx_BreakCallback>:
 8001daa:	4770      	bx	lr

08001dac <__libc_init_array>:
 8001dac:	b570      	push	{r4, r5, r6, lr}
 8001dae:	4d0d      	ldr	r5, [pc, #52]	; (8001de4 <__libc_init_array+0x38>)
 8001db0:	4c0d      	ldr	r4, [pc, #52]	; (8001de8 <__libc_init_array+0x3c>)
 8001db2:	1b64      	subs	r4, r4, r5
 8001db4:	10a4      	asrs	r4, r4, #2
 8001db6:	2600      	movs	r6, #0
 8001db8:	42a6      	cmp	r6, r4
 8001dba:	d109      	bne.n	8001dd0 <__libc_init_array+0x24>
 8001dbc:	4d0b      	ldr	r5, [pc, #44]	; (8001dec <__libc_init_array+0x40>)
 8001dbe:	4c0c      	ldr	r4, [pc, #48]	; (8001df0 <__libc_init_array+0x44>)
 8001dc0:	f000 f820 	bl	8001e04 <_init>
 8001dc4:	1b64      	subs	r4, r4, r5
 8001dc6:	10a4      	asrs	r4, r4, #2
 8001dc8:	2600      	movs	r6, #0
 8001dca:	42a6      	cmp	r6, r4
 8001dcc:	d105      	bne.n	8001dda <__libc_init_array+0x2e>
 8001dce:	bd70      	pop	{r4, r5, r6, pc}
 8001dd0:	f855 3b04 	ldr.w	r3, [r5], #4
 8001dd4:	4798      	blx	r3
 8001dd6:	3601      	adds	r6, #1
 8001dd8:	e7ee      	b.n	8001db8 <__libc_init_array+0xc>
 8001dda:	f855 3b04 	ldr.w	r3, [r5], #4
 8001dde:	4798      	blx	r3
 8001de0:	3601      	adds	r6, #1
 8001de2:	e7f2      	b.n	8001dca <__libc_init_array+0x1e>
 8001de4:	08001e3c 	.word	0x08001e3c
 8001de8:	08001e3c 	.word	0x08001e3c
 8001dec:	08001e3c 	.word	0x08001e3c
 8001df0:	08001e40 	.word	0x08001e40

08001df4 <memset>:
 8001df4:	4402      	add	r2, r0
 8001df6:	4603      	mov	r3, r0
 8001df8:	4293      	cmp	r3, r2
 8001dfa:	d100      	bne.n	8001dfe <memset+0xa>
 8001dfc:	4770      	bx	lr
 8001dfe:	f803 1b01 	strb.w	r1, [r3], #1
 8001e02:	e7f9      	b.n	8001df8 <memset+0x4>

08001e04 <_init>:
 8001e04:	b5f8      	push	{r3, r4, r5, r6, r7, lr}
 8001e06:	bf00      	nop
 8001e08:	bcf8      	pop	{r3, r4, r5, r6, r7}
 8001e0a:	bc08      	pop	{r3}
 8001e0c:	469e      	mov	lr, r3
 8001e0e:	4770      	bx	lr

08001e10 <_fini>:
 8001e10:	b5f8      	push	{r3, r4, r5, r6, r7, lr}
 8001e12:	bf00      	nop
 8001e14:	bcf8      	pop	{r3, r4, r5, r6, r7}
 8001e16:	bc08      	pop	{r3}
 8001e18:	469e      	mov	lr, r3
 8001e1a:	4770      	bx	lr
