
VGAnuS_Software-Ontwikkeling.elf:     file format elf32-littlearm

Sections:
Idx Name          Size      VMA       LMA       File off  Algn
  0 .isr_vector   00000188  08000000  08000000  00010000  2**0
                  CONTENTS, ALLOC, LOAD, READONLY, DATA
  1 .text         00003f74  08000190  08000190  00010190  2**4
                  CONTENTS, ALLOC, LOAD, READONLY, CODE
  2 .rodata       00000254  08004104  08004104  00014104  2**2
                  CONTENTS, ALLOC, LOAD, READONLY, DATA
  3 .ARM.extab    00000000  08004358  08004358  00020090  2**0
                  CONTENTS
  4 .ARM          00000008  08004358  08004358  00014358  2**2
                  CONTENTS, ALLOC, LOAD, READONLY, DATA
  5 .preinit_array 00000000  08004360  08004360  00020090  2**0
                  CONTENTS, ALLOC, LOAD, DATA
  6 .init_array   00000004  08004360  08004360  00014360  2**2
                  CONTENTS, ALLOC, LOAD, DATA
  7 .fini_array   00000004  08004364  08004364  00014364  2**2
                  CONTENTS, ALLOC, LOAD, DATA
  8 .data         00000090  20000000  08004368  00020000  2**2
                  CONTENTS, ALLOC, LOAD, DATA
  9 .bss          00012ff0  20000090  080043f8  00020090  2**2
                  ALLOC
 10 ._user_heap_stack 00000600  20013080  080043f8  00023080  2**0
                  ALLOC
 11 .ARM.attributes 00000030  00000000  00000000  00020090  2**0
                  CONTENTS, READONLY
 12 .comment      00000053  00000000  00000000  000200c0  2**0
                  CONTENTS, READONLY
 13 .debug_frame  00000c3c  00000000  00000000  00020114  2**2
                  CONTENTS, READONLY, DEBUGGING, OCTETS

Disassembly of section .text:

08000190 <__do_global_dtors_aux>:
 8000190:	b510      	push	{r4, lr}
 8000192:	4c05      	ldr	r4, [pc, #20]	; (80001a8 <__do_global_dtors_aux+0x18>)
 8000194:	7823      	ldrb	r3, [r4, #0]
 8000196:	b933      	cbnz	r3, 80001a6 <__do_global_dtors_aux+0x16>
 8000198:	4b04      	ldr	r3, [pc, #16]	; (80001ac <__do_global_dtors_aux+0x1c>)
 800019a:	b113      	cbz	r3, 80001a2 <__do_global_dtors_aux+0x12>
 800019c:	4804      	ldr	r0, [pc, #16]	; (80001b0 <__do_global_dtors_aux+0x20>)
 800019e:	f3af 8000 	nop.w
 80001a2:	2301      	movs	r3, #1
 80001a4:	7023      	strb	r3, [r4, #0]
 80001a6:	bd10      	pop	{r4, pc}
 80001a8:	20000090 	.word	0x20000090
 80001ac:	00000000 	.word	0x00000000
 80001b0:	080040ec 	.word	0x080040ec

080001b4 <frame_dummy>:
 80001b4:	b508      	push	{r3, lr}
 80001b6:	4b03      	ldr	r3, [pc, #12]	; (80001c4 <frame_dummy+0x10>)
 80001b8:	b11b      	cbz	r3, 80001c2 <frame_dummy+0xe>
 80001ba:	4903      	ldr	r1, [pc, #12]	; (80001c8 <frame_dummy+0x14>)
 80001bc:	4803      	ldr	r0, [pc, #12]	; (80001cc <frame_dummy+0x18>)
 80001be:	f3af 8000 	nop.w
 80001c2:	bd08      	pop	{r3, pc}
 80001c4:	00000000 	.word	0x00000000
 80001c8:	20000094 	.word	0x20000094
 80001cc:	080040ec 	.word	0x080040ec

080001d0 <strcmp>:
 80001d0:	f810 2b01 	ldrb.w	r2, [r0], #1
 80001d4:	f811 3b01 	ldrb.w	r3, [r1], #1
 80001d8:	2a01      	cmp	r2, #1
 80001da:	bf28      	it	cs
 80001dc:	429a      	cmpcs	r2, r3
 80001de:	d0f7      	beq.n	80001d0 <strcmp>
 80001e0:	1ad0      	subs	r0, r2, r3
 80001e2:	4770      	bx	lr

080001e4 <strlen>:
 80001e4:	4603      	mov	r3, r0
 80001e6:	f813 2b01 	ldrb.w	r2, [r3], #1
 80001ea:	2a00      	cmp	r2, #0
 80001ec:	d1fb      	bne.n	80001e6 <strlen+0x2>
 80001ee:	1a18      	subs	r0, r3, r0
 80001f0:	3801      	subs	r0, #1
 80001f2:	4770      	bx	lr
	...

08000200 <memchr>:
 8000200:	f001 01ff 	and.w	r1, r1, #255	; 0xff
 8000204:	2a10      	cmp	r2, #16
 8000206:	db2b      	blt.n	8000260 <memchr+0x60>
 8000208:	f010 0f07 	tst.w	r0, #7
 800020c:	d008      	beq.n	8000220 <memchr+0x20>
 800020e:	f810 3b01 	ldrb.w	r3, [r0], #1
 8000212:	3a01      	subs	r2, #1
 8000214:	428b      	cmp	r3, r1
 8000216:	d02d      	beq.n	8000274 <memchr+0x74>
 8000218:	f010 0f07 	tst.w	r0, #7
 800021c:	b342      	cbz	r2, 8000270 <memchr+0x70>
 800021e:	d1f6      	bne.n	800020e <memchr+0xe>
 8000220:	b4f0      	push	{r4, r5, r6, r7}
 8000222:	ea41 2101 	orr.w	r1, r1, r1, lsl #8
 8000226:	ea41 4101 	orr.w	r1, r1, r1, lsl #16
 800022a:	f022 0407 	bic.w	r4, r2, #7
 800022e:	f07f 0700 	mvns.w	r7, #0
 8000232:	2300      	movs	r3, #0
 8000234:	e8f0 5602 	ldrd	r5, r6, [r0], #8
 8000238:	3c08      	subs	r4, #8
 800023a:	ea85 0501 	eor.w	r5, r5, r1
 800023e:	ea86 0601 	eor.w	r6, r6, r1
 8000242:	fa85 f547 	uadd8	r5, r5, r7
 8000246:	faa3 f587 	sel	r5, r3, r7
 800024a:	fa86 f647 	uadd8	r6, r6, r7
 800024e:	faa5 f687 	sel	r6, r5, r7
 8000252:	b98e      	cbnz	r6, 8000278 <memchr+0x78>
 8000254:	d1ee      	bne.n	8000234 <memchr+0x34>
 8000256:	bcf0      	pop	{r4, r5, r6, r7}
 8000258:	f001 01ff 	and.w	r1, r1, #255	; 0xff
 800025c:	f002 0207 	and.w	r2, r2, #7
 8000260:	b132      	cbz	r2, 8000270 <memchr+0x70>
 8000262:	f810 3b01 	ldrb.w	r3, [r0], #1
 8000266:	3a01      	subs	r2, #1
 8000268:	ea83 0301 	eor.w	r3, r3, r1
 800026c:	b113      	cbz	r3, 8000274 <memchr+0x74>
 800026e:	d1f8      	bne.n	8000262 <memchr+0x62>
 8000270:	2000      	movs	r0, #0
 8000272:	4770      	bx	lr
 8000274:	3801      	subs	r0, #1
 8000276:	4770      	bx	lr
 8000278:	2d00      	cmp	r5, #0
 800027a:	bf06      	itte	eq
 800027c:	4635      	moveq	r5, r6
 800027e:	3803      	subeq	r0, #3
 8000280:	3807      	subne	r0, #7
 8000282:	f015 0f01 	tst.w	r5, #1
 8000286:	d107      	bne.n	8000298 <memchr+0x98>
 8000288:	3001      	adds	r0, #1
 800028a:	f415 7f80 	tst.w	r5, #256	; 0x100
 800028e:	bf02      	ittt	eq
 8000290:	3001      	addeq	r0, #1
 8000292:	f415 3fc0 	tsteq.w	r5, #98304	; 0x18000
 8000296:	3001      	addeq	r0, #1
 8000298:	bcf0      	pop	{r4, r5, r6, r7}
 800029a:	3801      	subs	r0, #1
 800029c:	4770      	bx	lr
 800029e:	bf00      	nop

080002a0 <__aeabi_uldivmod>:
 80002a0:	b953      	cbnz	r3, 80002b8 <__aeabi_uldivmod+0x18>
 80002a2:	b94a      	cbnz	r2, 80002b8 <__aeabi_uldivmod+0x18>
 80002a4:	2900      	cmp	r1, #0
 80002a6:	bf08      	it	eq
 80002a8:	2800      	cmpeq	r0, #0
 80002aa:	bf1c      	itt	ne
 80002ac:	f04f 31ff 	movne.w	r1, #4294967295
 80002b0:	f04f 30ff 	movne.w	r0, #4294967295
 80002b4:	f000 b96e 	b.w	8000594 <__aeabi_idiv0>
 80002b8:	f1ad 0c08 	sub.w	ip, sp, #8
 80002bc:	e96d ce04 	strd	ip, lr, [sp, #-16]!
 80002c0:	f000 f806 	bl	80002d0 <__udivmoddi4>
 80002c4:	f8dd e004 	ldr.w	lr, [sp, #4]
 80002c8:	e9dd 2302 	ldrd	r2, r3, [sp, #8]
 80002cc:	b004      	add	sp, #16
 80002ce:	4770      	bx	lr

080002d0 <__udivmoddi4>:
 80002d0:	e92d 47f0 	stmdb	sp!, {r4, r5, r6, r7, r8, r9, sl, lr}
 80002d4:	9d08      	ldr	r5, [sp, #32]
 80002d6:	4604      	mov	r4, r0
 80002d8:	468c      	mov	ip, r1
 80002da:	2b00      	cmp	r3, #0
 80002dc:	f040 8083 	bne.w	80003e6 <__udivmoddi4+0x116>
 80002e0:	428a      	cmp	r2, r1
 80002e2:	4617      	mov	r7, r2
 80002e4:	d947      	bls.n	8000376 <__udivmoddi4+0xa6>
 80002e6:	fab2 f282 	clz	r2, r2
 80002ea:	b142      	cbz	r2, 80002fe <__udivmoddi4+0x2e>
 80002ec:	f1c2 0020 	rsb	r0, r2, #32
 80002f0:	fa24 f000 	lsr.w	r0, r4, r0
 80002f4:	4091      	lsls	r1, r2
 80002f6:	4097      	lsls	r7, r2
 80002f8:	ea40 0c01 	orr.w	ip, r0, r1
 80002fc:	4094      	lsls	r4, r2
 80002fe:	ea4f 4817 	mov.w	r8, r7, lsr #16
 8000302:	0c23      	lsrs	r3, r4, #16
 8000304:	fbbc f6f8 	udiv	r6, ip, r8
 8000308:	fa1f fe87 	uxth.w	lr, r7
 800030c:	fb08 c116 	mls	r1, r8, r6, ip
 8000310:	ea43 4301 	orr.w	r3, r3, r1, lsl #16
 8000314:	fb06 f10e 	mul.w	r1, r6, lr
 8000318:	4299      	cmp	r1, r3
 800031a:	d909      	bls.n	8000330 <__udivmoddi4+0x60>
 800031c:	18fb      	adds	r3, r7, r3
 800031e:	f106 30ff 	add.w	r0, r6, #4294967295
 8000322:	f080 8119 	bcs.w	8000558 <__udivmoddi4+0x288>
 8000326:	4299      	cmp	r1, r3
 8000328:	f240 8116 	bls.w	8000558 <__udivmoddi4+0x288>
 800032c:	3e02      	subs	r6, #2
 800032e:	443b      	add	r3, r7
 8000330:	1a5b      	subs	r3, r3, r1
 8000332:	b2a4      	uxth	r4, r4
 8000334:	fbb3 f0f8 	udiv	r0, r3, r8
 8000338:	fb08 3310 	mls	r3, r8, r0, r3
 800033c:	ea44 4403 	orr.w	r4, r4, r3, lsl #16
 8000340:	fb00 fe0e 	mul.w	lr, r0, lr
 8000344:	45a6      	cmp	lr, r4
 8000346:	d909      	bls.n	800035c <__udivmoddi4+0x8c>
 8000348:	193c      	adds	r4, r7, r4
 800034a:	f100 33ff 	add.w	r3, r0, #4294967295
 800034e:	f080 8105 	bcs.w	800055c <__udivmoddi4+0x28c>
 8000352:	45a6      	cmp	lr, r4
 8000354:	f240 8102 	bls.w	800055c <__udivmoddi4+0x28c>
 8000358:	3802      	subs	r0, #2
 800035a:	443c      	add	r4, r7
 800035c:	ea40 4006 	orr.w	r0, r0, r6, lsl #16
 8000360:	eba4 040e 	sub.w	r4, r4, lr
 8000364:	2600      	movs	r6, #0
 8000366:	b11d      	cbz	r5, 8000370 <__udivmoddi4+0xa0>
 8000368:	40d4      	lsrs	r4, r2
 800036a:	2300      	movs	r3, #0
 800036c:	e9c5 4300 	strd	r4, r3, [r5]
 8000370:	4631      	mov	r1, r6
 8000372:	e8bd 87f0 	ldmia.w	sp!, {r4, r5, r6, r7, r8, r9, sl, pc}
 8000376:	b902      	cbnz	r2, 800037a <__udivmoddi4+0xaa>
 8000378:	deff      	udf	#255	; 0xff
 800037a:	fab2 f282 	clz	r2, r2
 800037e:	2a00      	cmp	r2, #0
 8000380:	d150      	bne.n	8000424 <__udivmoddi4+0x154>
 8000382:	1bcb      	subs	r3, r1, r7
 8000384:	ea4f 4e17 	mov.w	lr, r7, lsr #16
 8000388:	fa1f f887 	uxth.w	r8, r7
 800038c:	2601      	movs	r6, #1
 800038e:	fbb3 fcfe 	udiv	ip, r3, lr
 8000392:	0c21      	lsrs	r1, r4, #16
 8000394:	fb0e 331c 	mls	r3, lr, ip, r3
 8000398:	ea41 4103 	orr.w	r1, r1, r3, lsl #16
 800039c:	fb08 f30c 	mul.w	r3, r8, ip
 80003a0:	428b      	cmp	r3, r1
 80003a2:	d907      	bls.n	80003b4 <__udivmoddi4+0xe4>
 80003a4:	1879      	adds	r1, r7, r1
 80003a6:	f10c 30ff 	add.w	r0, ip, #4294967295
 80003aa:	d202      	bcs.n	80003b2 <__udivmoddi4+0xe2>
 80003ac:	428b      	cmp	r3, r1
 80003ae:	f200 80e9 	bhi.w	8000584 <__udivmoddi4+0x2b4>
 80003b2:	4684      	mov	ip, r0
 80003b4:	1ac9      	subs	r1, r1, r3
 80003b6:	b2a3      	uxth	r3, r4
 80003b8:	fbb1 f0fe 	udiv	r0, r1, lr
 80003bc:	fb0e 1110 	mls	r1, lr, r0, r1
 80003c0:	ea43 4401 	orr.w	r4, r3, r1, lsl #16
 80003c4:	fb08 f800 	mul.w	r8, r8, r0
 80003c8:	45a0      	cmp	r8, r4
 80003ca:	d907      	bls.n	80003dc <__udivmoddi4+0x10c>
 80003cc:	193c      	adds	r4, r7, r4
 80003ce:	f100 33ff 	add.w	r3, r0, #4294967295
 80003d2:	d202      	bcs.n	80003da <__udivmoddi4+0x10a>
 80003d4:	45a0      	cmp	r8, r4
 80003d6:	f200 80d9 	bhi.w	800058c <__udivmoddi4+0x2bc>
 80003da:	4618      	mov	r0, r3
 80003dc:	eba4 0408 	sub.w	r4, r4, r8
 80003e0:	ea40 400c 	orr.w	r0, r0, ip, lsl #16
 80003e4:	e7bf      	b.n	8000366 <__udivmoddi4+0x96>
 80003e6:	428b      	cmp	r3, r1
 80003e8:	d909      	bls.n	80003fe <__udivmoddi4+0x12e>
 80003ea:	2d00      	cmp	r5, #0
 80003ec:	f000 80b1 	beq.w	8000552 <__udivmoddi4+0x282>
 80003f0:	2600      	movs	r6, #0
 80003f2:	e9c5 0100 	strd	r0, r1, [r5]
 80003f6:	4630      	mov	r0, r6
 80003f8:	4631      	mov	r1, r6
 80003fa:	e8bd 87f0 	ldmia.w	sp!, {r4, r5, r6, r7, r8, r9, sl, pc}
 80003fe:	fab3 f683 	clz	r6, r3
 8000402:	2e00      	cmp	r6, #0
 8000404:	d14a      	bne.n	800049c <__udivmoddi4+0x1cc>
 8000406:	428b      	cmp	r3, r1
 8000408:	d302      	bcc.n	8000410 <__udivmoddi4+0x140>
 800040a:	4282      	cmp	r2, r0
 800040c:	f200 80b8 	bhi.w	8000580 <__udivmoddi4+0x2b0>
 8000410:	1a84      	subs	r4, r0, r2
 8000412:	eb61 0103 	sbc.w	r1, r1, r3
 8000416:	2001      	movs	r0, #1
 8000418:	468c      	mov	ip, r1
 800041a:	2d00      	cmp	r5, #0
 800041c:	d0a8      	beq.n	8000370 <__udivmoddi4+0xa0>
 800041e:	e9c5 4c00 	strd	r4, ip, [r5]
 8000422:	e7a5      	b.n	8000370 <__udivmoddi4+0xa0>
 8000424:	f1c2 0320 	rsb	r3, r2, #32
 8000428:	fa20 f603 	lsr.w	r6, r0, r3
 800042c:	4097      	lsls	r7, r2
 800042e:	fa01 f002 	lsl.w	r0, r1, r2
 8000432:	ea4f 4e17 	mov.w	lr, r7, lsr #16
 8000436:	40d9      	lsrs	r1, r3
 8000438:	4330      	orrs	r0, r6
 800043a:	0c03      	lsrs	r3, r0, #16
 800043c:	fbb1 f6fe 	udiv	r6, r1, lr
 8000440:	fa1f f887 	uxth.w	r8, r7
 8000444:	fb0e 1116 	mls	r1, lr, r6, r1
 8000448:	ea43 4301 	orr.w	r3, r3, r1, lsl #16
 800044c:	fb06 f108 	mul.w	r1, r6, r8
 8000450:	4299      	cmp	r1, r3
 8000452:	fa04 f402 	lsl.w	r4, r4, r2
 8000456:	d909      	bls.n	800046c <__udivmoddi4+0x19c>
 8000458:	18fb      	adds	r3, r7, r3
 800045a:	f106 3cff 	add.w	ip, r6, #4294967295
 800045e:	f080 808d 	bcs.w	800057c <__udivmoddi4+0x2ac>
 8000462:	4299      	cmp	r1, r3
 8000464:	f240 808a 	bls.w	800057c <__udivmoddi4+0x2ac>
 8000468:	3e02      	subs	r6, #2
 800046a:	443b      	add	r3, r7
 800046c:	1a5b      	subs	r3, r3, r1
 800046e:	b281      	uxth	r1, r0
 8000470:	fbb3 f0fe 	udiv	r0, r3, lr
 8000474:	fb0e 3310 	mls	r3, lr, r0, r3
 8000478:	ea41 4103 	orr.w	r1, r1, r3, lsl #16
 800047c:	fb00 f308 	mul.w	r3, r0, r8
 8000480:	428b      	cmp	r3, r1
 8000482:	d907      	bls.n	8000494 <__udivmoddi4+0x1c4>
 8000484:	1879      	adds	r1, r7, r1
 8000486:	f100 3cff 	add.w	ip, r0, #4294967295
 800048a:	d273      	bcs.n	8000574 <__udivmoddi4+0x2a4>
 800048c:	428b      	cmp	r3, r1
 800048e:	d971      	bls.n	8000574 <__udivmoddi4+0x2a4>
 8000490:	3802      	subs	r0, #2
 8000492:	4439      	add	r1, r7
 8000494:	1acb      	subs	r3, r1, r3
 8000496:	ea40 4606 	orr.w	r6, r0, r6, lsl #16
 800049a:	e778      	b.n	800038e <__udivmoddi4+0xbe>
 800049c:	f1c6 0c20 	rsb	ip, r6, #32
 80004a0:	fa03 f406 	lsl.w	r4, r3, r6
 80004a4:	fa22 f30c 	lsr.w	r3, r2, ip
 80004a8:	431c      	orrs	r4, r3
 80004aa:	fa20 f70c 	lsr.w	r7, r0, ip
 80004ae:	fa01 f306 	lsl.w	r3, r1, r6
 80004b2:	ea4f 4e14 	mov.w	lr, r4, lsr #16
 80004b6:	fa21 f10c 	lsr.w	r1, r1, ip
 80004ba:	431f      	orrs	r7, r3
 80004bc:	0c3b      	lsrs	r3, r7, #16
 80004be:	fbb1 f9fe 	udiv	r9, r1, lr
 80004c2:	fa1f f884 	uxth.w	r8, r4
 80004c6:	fb0e 1119 	mls	r1, lr, r9, r1
 80004ca:	ea43 4101 	orr.w	r1, r3, r1, lsl #16
 80004ce:	fb09 fa08 	mul.w	sl, r9, r8
 80004d2:	458a      	cmp	sl, r1
 80004d4:	fa02 f206 	lsl.w	r2, r2, r6
 80004d8:	fa00 f306 	lsl.w	r3, r0, r6
 80004dc:	d908      	bls.n	80004f0 <__udivmoddi4+0x220>
 80004de:	1861      	adds	r1, r4, r1
 80004e0:	f109 30ff 	add.w	r0, r9, #4294967295
 80004e4:	d248      	bcs.n	8000578 <__udivmoddi4+0x2a8>
 80004e6:	458a      	cmp	sl, r1
 80004e8:	d946      	bls.n	8000578 <__udivmoddi4+0x2a8>
 80004ea:	f1a9 0902 	sub.w	r9, r9, #2
 80004ee:	4421      	add	r1, r4
 80004f0:	eba1 010a 	sub.w	r1, r1, sl
 80004f4:	b2bf      	uxth	r7, r7
 80004f6:	fbb1 f0fe 	udiv	r0, r1, lr
 80004fa:	fb0e 1110 	mls	r1, lr, r0, r1
 80004fe:	ea47 4701 	orr.w	r7, r7, r1, lsl #16
 8000502:	fb00 f808 	mul.w	r8, r0, r8
 8000506:	45b8      	cmp	r8, r7
 8000508:	d907      	bls.n	800051a <__udivmoddi4+0x24a>
 800050a:	19e7      	adds	r7, r4, r7
 800050c:	f100 31ff 	add.w	r1, r0, #4294967295
 8000510:	d22e      	bcs.n	8000570 <__udivmoddi4+0x2a0>
 8000512:	45b8      	cmp	r8, r7
 8000514:	d92c      	bls.n	8000570 <__udivmoddi4+0x2a0>
 8000516:	3802      	subs	r0, #2
 8000518:	4427      	add	r7, r4
 800051a:	ea40 4009 	orr.w	r0, r0, r9, lsl #16
 800051e:	eba7 0708 	sub.w	r7, r7, r8
 8000522:	fba0 8902 	umull	r8, r9, r0, r2
 8000526:	454f      	cmp	r7, r9
 8000528:	46c6      	mov	lr, r8
 800052a:	4649      	mov	r1, r9
 800052c:	d31a      	bcc.n	8000564 <__udivmoddi4+0x294>
 800052e:	d017      	beq.n	8000560 <__udivmoddi4+0x290>
 8000530:	b15d      	cbz	r5, 800054a <__udivmoddi4+0x27a>
 8000532:	ebb3 020e 	subs.w	r2, r3, lr
 8000536:	eb67 0701 	sbc.w	r7, r7, r1
 800053a:	fa07 fc0c 	lsl.w	ip, r7, ip
 800053e:	40f2      	lsrs	r2, r6
 8000540:	ea4c 0202 	orr.w	r2, ip, r2
 8000544:	40f7      	lsrs	r7, r6
 8000546:	e9c5 2700 	strd	r2, r7, [r5]
 800054a:	2600      	movs	r6, #0
 800054c:	4631      	mov	r1, r6
 800054e:	e8bd 87f0 	ldmia.w	sp!, {r4, r5, r6, r7, r8, r9, sl, pc}
 8000552:	462e      	mov	r6, r5
 8000554:	4628      	mov	r0, r5
 8000556:	e70b      	b.n	8000370 <__udivmoddi4+0xa0>
 8000558:	4606      	mov	r6, r0
 800055a:	e6e9      	b.n	8000330 <__udivmoddi4+0x60>
 800055c:	4618      	mov	r0, r3
 800055e:	e6fd      	b.n	800035c <__udivmoddi4+0x8c>
 8000560:	4543      	cmp	r3, r8
 8000562:	d2e5      	bcs.n	8000530 <__udivmoddi4+0x260>
 8000564:	ebb8 0e02 	subs.w	lr, r8, r2
 8000568:	eb69 0104 	sbc.w	r1, r9, r4
 800056c:	3801      	subs	r0, #1
 800056e:	e7df      	b.n	8000530 <__udivmoddi4+0x260>
 8000570:	4608      	mov	r0, r1
 8000572:	e7d2      	b.n	800051a <__udivmoddi4+0x24a>
 8000574:	4660      	mov	r0, ip
 8000576:	e78d      	b.n	8000494 <__udivmoddi4+0x1c4>
 8000578:	4681      	mov	r9, r0
 800057a:	e7b9      	b.n	80004f0 <__udivmoddi4+0x220>
 800057c:	4666      	mov	r6, ip
 800057e:	e775      	b.n	800046c <__udivmoddi4+0x19c>
 8000580:	4630      	mov	r0, r6
 8000582:	e74a      	b.n	800041a <__udivmoddi4+0x14a>
 8000584:	f1ac 0c02 	sub.w	ip, ip, #2
 8000588:	4439      	add	r1, r7
 800058a:	e713      	b.n	80003b4 <__udivmoddi4+0xe4>
 800058c:	3802      	subs	r0, #2
 800058e:	443c      	add	r4, r7
 8000590:	e724      	b.n	80003dc <__udivmoddi4+0x10c>
 8000592:	bf00      	nop

08000594 <__aeabi_idiv0>:
 8000594:	4770      	bx	lr
 8000596:	bf00      	nop

08000598 <FL_Parse>:
 8000598:	b570      	push	{r4, r5, r6, lr}
 800059a:	4941      	ldr	r1, [pc, #260]	; (80006a0 <FL_Parse+0x108>)
 800059c:	4e40      	ldr	r6, [pc, #256]	; (80006a0 <FL_Parse+0x108>)
 800059e:	b09a      	sub	sp, #104	; 0x68
 80005a0:	f002 fbd4 	bl	8002d4c <strtok>
 80005a4:	4601      	mov	r1, r0
 80005a6:	4604      	mov	r4, r0
 80005a8:	a801      	add	r0, sp, #4
 80005aa:	f002 fbaf 	bl	8002d0c <siprintf>
 80005ae:	ad01      	add	r5, sp, #4
 80005b0:	4621      	mov	r1, r4
 80005b2:	4628      	mov	r0, r5
 80005b4:	f002 fbaa 	bl	8002d0c <siprintf>
 80005b8:	4631      	mov	r1, r6
 80005ba:	2000      	movs	r0, #0
 80005bc:	f002 fbc6 	bl	8002d4c <strtok>
 80005c0:	350a      	adds	r5, #10
 80005c2:	4604      	mov	r4, r0
 80005c4:	2800      	cmp	r0, #0
 80005c6:	d1f3      	bne.n	80005b0 <FL_Parse+0x18>
 80005c8:	4936      	ldr	r1, [pc, #216]	; (80006a4 <FL_Parse+0x10c>)
 80005ca:	a801      	add	r0, sp, #4
 80005cc:	f7ff fe00 	bl	80001d0 <strcmp>
 80005d0:	b928      	cbnz	r0, 80005de <FL_Parse+0x46>
 80005d2:	4935      	ldr	r1, [pc, #212]	; (80006a8 <FL_Parse+0x110>)
 80005d4:	220c      	movs	r2, #12
 80005d6:	4835      	ldr	r0, [pc, #212]	; (80006ac <FL_Parse+0x114>)
 80005d8:	f002 f90a 	bl	80027f0 <HAL_UART_Transmit_DMA>
 80005dc:	e00c      	b.n	80005f8 <FL_Parse+0x60>
 80005de:	4934      	ldr	r1, [pc, #208]	; (80006b0 <FL_Parse+0x118>)
 80005e0:	a801      	add	r0, sp, #4
 80005e2:	f7ff fdf5 	bl	80001d0 <strcmp>
 80005e6:	b948      	cbnz	r0, 80005fc <FL_Parse+0x64>
 80005e8:	2211      	movs	r2, #17
 80005ea:	4932      	ldr	r1, [pc, #200]	; (80006b4 <FL_Parse+0x11c>)
 80005ec:	482f      	ldr	r0, [pc, #188]	; (80006ac <FL_Parse+0x114>)
 80005ee:	f002 f8ff 	bl	80027f0 <HAL_UART_Transmit_DMA>
 80005f2:	2300      	movs	r3, #0
 80005f4:	2202      	movs	r2, #2
 80005f6:	701a      	strb	r2, [r3, #0]
 80005f8:	b01a      	add	sp, #104	; 0x68
 80005fa:	bd70      	pop	{r4, r5, r6, pc}
 80005fc:	492e      	ldr	r1, [pc, #184]	; (80006b8 <FL_Parse+0x120>)
 80005fe:	a801      	add	r0, sp, #4
 8000600:	f7ff fde6 	bl	80001d0 <strcmp>
 8000604:	b938      	cbnz	r0, 8000616 <FL_Parse+0x7e>
 8000606:	220d      	movs	r2, #13
 8000608:	492c      	ldr	r1, [pc, #176]	; (80006bc <FL_Parse+0x124>)
 800060a:	4828      	ldr	r0, [pc, #160]	; (80006ac <FL_Parse+0x114>)
 800060c:	f002 f8f0 	bl	80027f0 <HAL_UART_Transmit_DMA>
 8000610:	2300      	movs	r3, #0
 8000612:	2203      	movs	r2, #3
 8000614:	e7ef      	b.n	80005f6 <FL_Parse+0x5e>
 8000616:	492a      	ldr	r1, [pc, #168]	; (80006c0 <FL_Parse+0x128>)
 8000618:	a801      	add	r0, sp, #4
 800061a:	f7ff fdd9 	bl	80001d0 <strcmp>
 800061e:	b938      	cbnz	r0, 8000630 <FL_Parse+0x98>
 8000620:	220e      	movs	r2, #14
 8000622:	4928      	ldr	r1, [pc, #160]	; (80006c4 <FL_Parse+0x12c>)
 8000624:	4821      	ldr	r0, [pc, #132]	; (80006ac <FL_Parse+0x114>)
 8000626:	f002 f8e3 	bl	80027f0 <HAL_UART_Transmit_DMA>
 800062a:	2300      	movs	r3, #0
 800062c:	2204      	movs	r2, #4
 800062e:	e7e2      	b.n	80005f6 <FL_Parse+0x5e>
 8000630:	4925      	ldr	r1, [pc, #148]	; (80006c8 <FL_Parse+0x130>)
 8000632:	a801      	add	r0, sp, #4
 8000634:	f7ff fdcc 	bl	80001d0 <strcmp>
 8000638:	b938      	cbnz	r0, 800064a <FL_Parse+0xb2>
 800063a:	2213      	movs	r2, #19
 800063c:	4923      	ldr	r1, [pc, #140]	; (80006cc <FL_Parse+0x134>)
 800063e:	481b      	ldr	r0, [pc, #108]	; (80006ac <FL_Parse+0x114>)
 8000640:	f002 f8d6 	bl	80027f0 <HAL_UART_Transmit_DMA>
 8000644:	2300      	movs	r3, #0
 8000646:	2205      	movs	r2, #5
 8000648:	e7d5      	b.n	80005f6 <FL_Parse+0x5e>
 800064a:	4921      	ldr	r1, [pc, #132]	; (80006d0 <FL_Parse+0x138>)
 800064c:	a801      	add	r0, sp, #4
 800064e:	f7ff fdbf 	bl	80001d0 <strcmp>
 8000652:	b938      	cbnz	r0, 8000664 <FL_Parse+0xcc>
 8000654:	220d      	movs	r2, #13
 8000656:	491f      	ldr	r1, [pc, #124]	; (80006d4 <FL_Parse+0x13c>)
 8000658:	4814      	ldr	r0, [pc, #80]	; (80006ac <FL_Parse+0x114>)
 800065a:	f002 f8c9 	bl	80027f0 <HAL_UART_Transmit_DMA>
 800065e:	2300      	movs	r3, #0
 8000660:	2206      	movs	r2, #6
 8000662:	e7c8      	b.n	80005f6 <FL_Parse+0x5e>
 8000664:	491c      	ldr	r1, [pc, #112]	; (80006d8 <FL_Parse+0x140>)
 8000666:	a801      	add	r0, sp, #4
 8000668:	f7ff fdb2 	bl	80001d0 <strcmp>
 800066c:	b938      	cbnz	r0, 800067e <FL_Parse+0xe6>
 800066e:	220e      	movs	r2, #14
 8000670:	491a      	ldr	r1, [pc, #104]	; (80006dc <FL_Parse+0x144>)
 8000672:	480e      	ldr	r0, [pc, #56]	; (80006ac <FL_Parse+0x114>)
 8000674:	f002 f8bc 	bl	80027f0 <HAL_UART_Transmit_DMA>
 8000678:	2300      	movs	r3, #0
 800067a:	2207      	movs	r2, #7
 800067c:	e7bb      	b.n	80005f6 <FL_Parse+0x5e>
 800067e:	4918      	ldr	r1, [pc, #96]	; (80006e0 <FL_Parse+0x148>)
 8000680:	a801      	add	r0, sp, #4
 8000682:	f7ff fda5 	bl	80001d0 <strcmp>
 8000686:	b938      	cbnz	r0, 8000698 <FL_Parse+0x100>
 8000688:	220e      	movs	r2, #14
 800068a:	4916      	ldr	r1, [pc, #88]	; (80006e4 <FL_Parse+0x14c>)
 800068c:	4807      	ldr	r0, [pc, #28]	; (80006ac <FL_Parse+0x114>)
 800068e:	f002 f8af 	bl	80027f0 <HAL_UART_Transmit_DMA>
 8000692:	2300      	movs	r3, #0
 8000694:	2208      	movs	r2, #8
 8000696:	e7ae      	b.n	80005f6 <FL_Parse+0x5e>
 8000698:	4913      	ldr	r1, [pc, #76]	; (80006e8 <FL_Parse+0x150>)
 800069a:	220b      	movs	r2, #11
 800069c:	e79b      	b.n	80005d6 <FL_Parse+0x3e>
 800069e:	bf00      	nop
 80006a0:	08004104 	.word	0x08004104
 80006a4:	08004106 	.word	0x08004106
 80006a8:	0800410b 	.word	0x0800410b
 80006ac:	20013028 	.word	0x20013028
 80006b0:	08004118 	.word	0x08004118
 80006b4:	08004122 	.word	0x08004122
 80006b8:	08004134 	.word	0x08004134
 80006bc:	0800413a 	.word	0x0800413a
 80006c0:	08004148 	.word	0x08004148
 80006c4:	0800414f 	.word	0x0800414f
 80006c8:	0800415e 	.word	0x0800415e
 80006cc:	0800416a 	.word	0x0800416a
 80006d0:	0800417e 	.word	0x0800417e
 80006d4:	08004184 	.word	0x08004184
 80006d8:	08004192 	.word	0x08004192
 80006dc:	08004199 	.word	0x08004199
 80006e0:	080041a8 	.word	0x080041a8
 80006e4:	080041af 	.word	0x080041af
 80006e8:	080041be 	.word	0x080041be

080006ec <MX_DMA_Init>:
 80006ec:	b507      	push	{r0, r1, r2, lr}
 80006ee:	4b18      	ldr	r3, [pc, #96]	; (8000750 <MX_DMA_Init+0x64>)
 80006f0:	2200      	movs	r2, #0
 80006f2:	9200      	str	r2, [sp, #0]
 80006f4:	6b19      	ldr	r1, [r3, #48]	; 0x30
 80006f6:	f441 0180 	orr.w	r1, r1, #4194304	; 0x400000
 80006fa:	6319      	str	r1, [r3, #48]	; 0x30
 80006fc:	6b19      	ldr	r1, [r3, #48]	; 0x30
 80006fe:	f401 0180 	and.w	r1, r1, #4194304	; 0x400000
 8000702:	9100      	str	r1, [sp, #0]
 8000704:	9900      	ldr	r1, [sp, #0]
 8000706:	9201      	str	r2, [sp, #4]
 8000708:	6b19      	ldr	r1, [r3, #48]	; 0x30
 800070a:	f441 1100 	orr.w	r1, r1, #2097152	; 0x200000
 800070e:	6319      	str	r1, [r3, #48]	; 0x30
 8000710:	6b1b      	ldr	r3, [r3, #48]	; 0x30
 8000712:	f403 1300 	and.w	r3, r3, #2097152	; 0x200000
 8000716:	4611      	mov	r1, r2
 8000718:	9301      	str	r3, [sp, #4]
 800071a:	2010      	movs	r0, #16
 800071c:	9b01      	ldr	r3, [sp, #4]
 800071e:	f000 fd0b 	bl	8001138 <HAL_NVIC_SetPriority>
 8000722:	2010      	movs	r0, #16
 8000724:	f000 fd3a 	bl	800119c <HAL_NVIC_EnableIRQ>
 8000728:	2200      	movs	r2, #0
 800072a:	4611      	mov	r1, r2
 800072c:	2011      	movs	r0, #17
 800072e:	f000 fd03 	bl	8001138 <HAL_NVIC_SetPriority>
 8000732:	2011      	movs	r0, #17
 8000734:	f000 fd32 	bl	800119c <HAL_NVIC_EnableIRQ>
 8000738:	2200      	movs	r2, #0
 800073a:	4611      	mov	r1, r2
 800073c:	2044      	movs	r0, #68	; 0x44
 800073e:	f000 fcfb 	bl	8001138 <HAL_NVIC_SetPriority>
 8000742:	2044      	movs	r0, #68	; 0x44
 8000744:	b003      	add	sp, #12
 8000746:	f85d eb04 	ldr.w	lr, [sp], #4
 800074a:	f000 bd27 	b.w	800119c <HAL_NVIC_EnableIRQ>
 800074e:	bf00      	nop
 8000750:	40023800 	.word	0x40023800

08000754 <MX_GPIO_Init>:
 8000754:	e92d 41f0 	stmdb	sp!, {r4, r5, r6, r7, r8, lr}
 8000758:	2214      	movs	r2, #20
 800075a:	b08a      	sub	sp, #40	; 0x28
 800075c:	eb0d 0002 	add.w	r0, sp, r2
 8000760:	2100      	movs	r1, #0
 8000762:	f002 facb 	bl	8002cfc <memset>
 8000766:	2400      	movs	r4, #0
 8000768:	4b28      	ldr	r3, [pc, #160]	; (800080c <MX_GPIO_Init+0xb8>)
 800076a:	9401      	str	r4, [sp, #4]
 800076c:	6b1a      	ldr	r2, [r3, #48]	; 0x30
 800076e:	f8df 80a4 	ldr.w	r8, [pc, #164]	; 8000814 <MX_GPIO_Init+0xc0>
 8000772:	4d27      	ldr	r5, [pc, #156]	; (8000810 <MX_GPIO_Init+0xbc>)
 8000774:	f042 0280 	orr.w	r2, r2, #128	; 0x80
 8000778:	631a      	str	r2, [r3, #48]	; 0x30
 800077a:	6b1a      	ldr	r2, [r3, #48]	; 0x30
 800077c:	f002 0280 	and.w	r2, r2, #128	; 0x80
 8000780:	9201      	str	r2, [sp, #4]
 8000782:	9a01      	ldr	r2, [sp, #4]
 8000784:	9402      	str	r4, [sp, #8]
 8000786:	6b1a      	ldr	r2, [r3, #48]	; 0x30
 8000788:	f042 0201 	orr.w	r2, r2, #1
 800078c:	631a      	str	r2, [r3, #48]	; 0x30
 800078e:	6b1a      	ldr	r2, [r3, #48]	; 0x30
 8000790:	f002 0201 	and.w	r2, r2, #1
 8000794:	9202      	str	r2, [sp, #8]
 8000796:	9a02      	ldr	r2, [sp, #8]
 8000798:	9403      	str	r4, [sp, #12]
 800079a:	6b1a      	ldr	r2, [r3, #48]	; 0x30
 800079c:	f042 0210 	orr.w	r2, r2, #16
 80007a0:	631a      	str	r2, [r3, #48]	; 0x30
 80007a2:	6b1a      	ldr	r2, [r3, #48]	; 0x30
 80007a4:	f002 0210 	and.w	r2, r2, #16
 80007a8:	9203      	str	r2, [sp, #12]
 80007aa:	9a03      	ldr	r2, [sp, #12]
 80007ac:	9404      	str	r4, [sp, #16]
 80007ae:	6b1a      	ldr	r2, [r3, #48]	; 0x30
 80007b0:	f042 0202 	orr.w	r2, r2, #2
 80007b4:	631a      	str	r2, [r3, #48]	; 0x30
 80007b6:	6b1b      	ldr	r3, [r3, #48]	; 0x30
 80007b8:	f003 0302 	and.w	r3, r3, #2
 80007bc:	9304      	str	r3, [sp, #16]
 80007be:	4622      	mov	r2, r4
 80007c0:	4640      	mov	r0, r8
 80007c2:	f44f 417f 	mov.w	r1, #65280	; 0xff00
 80007c6:	9b04      	ldr	r3, [sp, #16]
 80007c8:	f000 ffca 	bl	8001760 <HAL_GPIO_WritePin>
 80007cc:	4622      	mov	r2, r4
 80007ce:	4628      	mov	r0, r5
 80007d0:	f44f 5180 	mov.w	r1, #4096	; 0x1000
 80007d4:	f000 ffc4 	bl	8001760 <HAL_GPIO_WritePin>
 80007d8:	2701      	movs	r7, #1
 80007da:	f44f 437f 	mov.w	r3, #65280	; 0xff00
 80007de:	2603      	movs	r6, #3
 80007e0:	a905      	add	r1, sp, #20
 80007e2:	4640      	mov	r0, r8
 80007e4:	e9cd 3705 	strd	r3, r7, [sp, #20]
 80007e8:	9407      	str	r4, [sp, #28]
 80007ea:	9608      	str	r6, [sp, #32]
 80007ec:	f000 fede 	bl	80015ac <HAL_GPIO_Init>
 80007f0:	f44f 5380 	mov.w	r3, #4096	; 0x1000
 80007f4:	a905      	add	r1, sp, #20
 80007f6:	4628      	mov	r0, r5
 80007f8:	e9cd 3705 	strd	r3, r7, [sp, #20]
 80007fc:	e9cd 4607 	strd	r4, r6, [sp, #28]
 8000800:	f000 fed4 	bl	80015ac <HAL_GPIO_Init>
 8000804:	b00a      	add	sp, #40	; 0x28
 8000806:	e8bd 81f0 	ldmia.w	sp!, {r4, r5, r6, r7, r8, pc}
 800080a:	bf00      	nop
 800080c:	40023800 	.word	0x40023800
 8000810:	40020400 	.word	0x40020400
 8000814:	40021000 	.word	0x40021000

08000818 <SystemClock_Config>:
 8000818:	b530      	push	{r4, r5, lr}
 800081a:	b095      	sub	sp, #84	; 0x54
 800081c:	2210      	movs	r2, #16
 800081e:	2100      	movs	r1, #0
 8000820:	a80a      	add	r0, sp, #40	; 0x28
 8000822:	f002 fa6b 	bl	8002cfc <memset>
 8000826:	2100      	movs	r1, #0
 8000828:	2214      	movs	r2, #20
 800082a:	a803      	add	r0, sp, #12
 800082c:	f002 fa66 	bl	8002cfc <memset>
 8000830:	2400      	movs	r4, #0
 8000832:	4b1c      	ldr	r3, [pc, #112]	; (80008a4 <SystemClock_Config+0x8c>)
 8000834:	9401      	str	r4, [sp, #4]
 8000836:	6c1a      	ldr	r2, [r3, #64]	; 0x40
 8000838:	f042 5280 	orr.w	r2, r2, #268435456	; 0x10000000
 800083c:	641a      	str	r2, [r3, #64]	; 0x40
 800083e:	6c1b      	ldr	r3, [r3, #64]	; 0x40
 8000840:	f003 5380 	and.w	r3, r3, #268435456	; 0x10000000
 8000844:	9301      	str	r3, [sp, #4]
 8000846:	9b01      	ldr	r3, [sp, #4]
 8000848:	4b17      	ldr	r3, [pc, #92]	; (80008a8 <SystemClock_Config+0x90>)
 800084a:	9402      	str	r4, [sp, #8]
 800084c:	681a      	ldr	r2, [r3, #0]
 800084e:	f442 4280 	orr.w	r2, r2, #16384	; 0x4000
 8000852:	601a      	str	r2, [r3, #0]
 8000854:	681b      	ldr	r3, [r3, #0]
 8000856:	f403 4380 	and.w	r3, r3, #16384	; 0x4000
 800085a:	9302      	str	r3, [sp, #8]
 800085c:	9b02      	ldr	r3, [sp, #8]
 800085e:	2201      	movs	r2, #1
 8000860:	f44f 3380 	mov.w	r3, #65536	; 0x10000
 8000864:	e9cd 2308 	strd	r2, r3, [sp, #32]
 8000868:	2502      	movs	r5, #2
 800086a:	f44f 0380 	mov.w	r3, #4194304	; 0x400000
 800086e:	22a8      	movs	r2, #168	; 0xa8
 8000870:	e9cd 530e 	strd	r5, r3, [sp, #56]	; 0x38
 8000874:	a808      	add	r0, sp, #32
 8000876:	2304      	movs	r3, #4
 8000878:	e9cd 3210 	strd	r3, r2, [sp, #64]	; 0x40
 800087c:	e9cd 5312 	strd	r5, r3, [sp, #72]	; 0x48
 8000880:	f000 ff74 	bl	800176c <HAL_RCC_OscConfig>
 8000884:	230f      	movs	r3, #15
 8000886:	e9cd 3503 	strd	r3, r5, [sp, #12]
 800088a:	f44f 51a0 	mov.w	r1, #5120	; 0x1400
 800088e:	f44f 5380 	mov.w	r3, #4096	; 0x1000
 8000892:	e9cd 1306 	strd	r1, r3, [sp, #24]
 8000896:	a803      	add	r0, sp, #12
 8000898:	2105      	movs	r1, #5
 800089a:	9405      	str	r4, [sp, #20]
 800089c:	f001 f940 	bl	8001b20 <HAL_RCC_ClockConfig>
 80008a0:	b015      	add	sp, #84	; 0x54
 80008a2:	bd30      	pop	{r4, r5, pc}
 80008a4:	40023800 	.word	0x40023800
 80008a8:	40007000 	.word	0x40007000

080008ac <main>:
 80008ac:	b508      	push	{r3, lr}
 80008ae:	f000 fc05 	bl	80010bc <HAL_Init>
 80008b2:	f7ff ffb1 	bl	8000818 <SystemClock_Config>
 80008b6:	f7ff ff4d 	bl	8000754 <MX_GPIO_Init>
 80008ba:	f7ff ff17 	bl	80006ec <MX_DMA_Init>
 80008be:	f000 f9ab 	bl	8000c18 <MX_TIM1_Init>
 80008c2:	f000 fa61 	bl	8000d88 <MX_TIM2_Init>
 80008c6:	f000 faa7 	bl	8000e18 <MX_USART2_UART_Init>
 80008ca:	f000 f831 	bl	8000930 <UB_VGA_Screen_Init>
 80008ce:	20ff      	movs	r0, #255	; 0xff
 80008d0:	f000 f886 	bl	80009e0 <UB_VGA_FillScreen>
 80008d4:	220a      	movs	r2, #10
 80008d6:	4611      	mov	r1, r2
 80008d8:	4610      	mov	r0, r2
 80008da:	f000 f86f 	bl	80009bc <UB_VGA_SetPixel>
 80008de:	2100      	movs	r1, #0
 80008e0:	4c0f      	ldr	r4, [pc, #60]	; (8000920 <main+0x74>)
 80008e2:	4608      	mov	r0, r1
 80008e4:	220a      	movs	r2, #10
 80008e6:	f000 f869 	bl	80009bc <UB_VGA_SetPixel>
 80008ea:	220a      	movs	r2, #10
 80008ec:	2100      	movs	r1, #0
 80008ee:	f240 103f 	movw	r0, #319	; 0x13f
 80008f2:	f000 f863 	bl	80009bc <UB_VGA_SetPixel>
 80008f6:	6822      	ldr	r2, [r4, #0]
 80008f8:	490a      	ldr	r1, [pc, #40]	; (8000924 <main+0x78>)
 80008fa:	68d3      	ldr	r3, [r2, #12]
 80008fc:	f043 0310 	orr.w	r3, r3, #16
 8000900:	60d3      	str	r3, [r2, #12]
 8000902:	4620      	mov	r0, r4
 8000904:	2280      	movs	r2, #128	; 0x80
 8000906:	f002 f9b7 	bl	8002c78 <HAL_UART_Receive_DMA>
 800090a:	4807      	ldr	r0, [pc, #28]	; (8000928 <main+0x7c>)
 800090c:	f7ff fc6a 	bl	80001e4 <strlen>
 8000910:	4905      	ldr	r1, [pc, #20]	; (8000928 <main+0x7c>)
 8000912:	b282      	uxth	r2, r0
 8000914:	2364      	movs	r3, #100	; 0x64
 8000916:	4620      	mov	r0, r4
 8000918:	f001 ff14 	bl	8002744 <HAL_UART_Transmit>
 800091c:	e7fe      	b.n	800091c <main+0x70>
 800091e:	bf00      	nop
 8000920:	20013028 	.word	0x20013028
 8000924:	20012ea8 	.word	0x20012ea8
 8000928:	20000000 	.word	0x20000000

0800092c <Error_Handler>:
 800092c:	4770      	bx	lr
	...

08000930 <UB_VGA_Screen_Init>:
 8000930:	b538      	push	{r3, r4, r5, lr}
 8000932:	4c1b      	ldr	r4, [pc, #108]	; (80009a0 <UB_VGA_Screen_Init+0x70>)
 8000934:	4d1b      	ldr	r5, [pc, #108]	; (80009a4 <UB_VGA_Screen_Init+0x74>)
 8000936:	2300      	movs	r3, #0
 8000938:	e9c4 3301 	strd	r3, r3, [r4, #4]
 800093c:	8023      	strh	r3, [r4, #0]
 800093e:	f103 4380 	add.w	r3, r3, #1073741824	; 0x40000000
 8000942:	f503 3301 	add.w	r3, r3, #132096	; 0x20400
 8000946:	f44f 5280 	mov.w	r2, #4096	; 0x1000
 800094a:	619a      	str	r2, [r3, #24]
 800094c:	4628      	mov	r0, r5
 800094e:	f001 fa31 	bl	8001db4 <HAL_TIM_Base_Start>
 8000952:	210c      	movs	r1, #12
 8000954:	4628      	mov	r0, r5
 8000956:	f001 fd6d 	bl	8002434 <HAL_TIM_PWM_Start>
 800095a:	2108      	movs	r1, #8
 800095c:	4628      	mov	r0, r5
 800095e:	f001 fde5 	bl	800252c <HAL_TIM_PWM_Start_IT>
 8000962:	4b11      	ldr	r3, [pc, #68]	; (80009a8 <UB_VGA_Screen_Init+0x78>)
 8000964:	4d11      	ldr	r5, [pc, #68]	; (80009ac <UB_VGA_Screen_Init+0x7c>)
 8000966:	681b      	ldr	r3, [r3, #0]
 8000968:	4911      	ldr	r1, [pc, #68]	; (80009b0 <UB_VGA_Screen_Init+0x80>)
 800096a:	68da      	ldr	r2, [r3, #12]
 800096c:	f442 7280 	orr.w	r2, r2, #256	; 0x100
 8000970:	60da      	str	r2, [r3, #12]
 8000972:	681a      	ldr	r2, [r3, #0]
 8000974:	f042 0201 	orr.w	r2, r2, #1
 8000978:	601a      	str	r2, [r3, #0]
 800097a:	4628      	mov	r0, r5
 800097c:	4a0d      	ldr	r2, [pc, #52]	; (80009b4 <UB_VGA_Screen_Init+0x84>)
 800097e:	f240 1341 	movw	r3, #321	; 0x141
 8000982:	f000 fcc5 	bl	8001310 <HAL_DMA_Start_IT>
 8000986:	4628      	mov	r0, r5
 8000988:	f000 fc42 	bl	8001210 <HAL_DMA_Init>
 800098c:	682a      	ldr	r2, [r5, #0]
 800098e:	6813      	ldr	r3, [r2, #0]
 8000990:	f043 0310 	orr.w	r3, r3, #16
 8000994:	6013      	str	r3, [r2, #0]
 8000996:	4b08      	ldr	r3, [pc, #32]	; (80009b8 <UB_VGA_Screen_Init+0x88>)
 8000998:	681b      	ldr	r3, [r3, #0]
 800099a:	60a3      	str	r3, [r4, #8]
 800099c:	bd38      	pop	{r3, r4, r5, pc}
 800099e:	bf00      	nop
 80009a0:	200000bc 	.word	0x200000bc
 80009a4:	20012e60 	.word	0x20012e60
 80009a8:	20012db8 	.word	0x20012db8
 80009ac:	20012e00 	.word	0x20012e00
 80009b0:	200000c8 	.word	0x200000c8
 80009b4:	40021015 	.word	0x40021015
 80009b8:	40026488 	.word	0x40026488

080009bc <UB_VGA_SetPixel>:
 80009bc:	4b07      	ldr	r3, [pc, #28]	; (80009dc <UB_VGA_SetPixel+0x20>)
 80009be:	b510      	push	{r4, lr}
 80009c0:	29ef      	cmp	r1, #239	; 0xef
 80009c2:	bf88      	it	hi
 80009c4:	2100      	movhi	r1, #0
 80009c6:	f240 1441 	movw	r4, #321	; 0x141
 80009ca:	f5b0 7fa0 	cmp.w	r0, #320	; 0x140
 80009ce:	bf28      	it	cs
 80009d0:	2000      	movcs	r0, #0
 80009d2:	fb04 3101 	mla	r1, r4, r1, r3
 80009d6:	540a      	strb	r2, [r1, r0]
 80009d8:	bd10      	pop	{r4, pc}
 80009da:	bf00      	nop
 80009dc:	200000c8 	.word	0x200000c8

080009e0 <UB_VGA_FillScreen>:
 80009e0:	b538      	push	{r3, r4, r5, lr}
 80009e2:	4602      	mov	r2, r0
 80009e4:	2400      	movs	r4, #0
 80009e6:	2500      	movs	r5, #0
 80009e8:	b2a8      	uxth	r0, r5
 80009ea:	4621      	mov	r1, r4
 80009ec:	3501      	adds	r5, #1
 80009ee:	f7ff ffe5 	bl	80009bc <UB_VGA_SetPixel>
 80009f2:	f5b5 7fa0 	cmp.w	r5, #320	; 0x140
 80009f6:	d1f7      	bne.n	80009e8 <UB_VGA_FillScreen+0x8>
 80009f8:	3401      	adds	r4, #1
 80009fa:	b2a4      	uxth	r4, r4
 80009fc:	2cf0      	cmp	r4, #240	; 0xf0
 80009fe:	d1f2      	bne.n	80009e6 <UB_VGA_FillScreen+0x6>
 8000a00:	bd38      	pop	{r3, r4, r5, pc}
	...

08000a04 <HAL_MspInit>:
 8000a04:	b082      	sub	sp, #8
 8000a06:	4b0c      	ldr	r3, [pc, #48]	; (8000a38 <HAL_MspInit+0x34>)
 8000a08:	2100      	movs	r1, #0
 8000a0a:	9100      	str	r1, [sp, #0]
 8000a0c:	6c5a      	ldr	r2, [r3, #68]	; 0x44
 8000a0e:	f442 4280 	orr.w	r2, r2, #16384	; 0x4000
 8000a12:	645a      	str	r2, [r3, #68]	; 0x44
 8000a14:	6c5a      	ldr	r2, [r3, #68]	; 0x44
 8000a16:	f402 4280 	and.w	r2, r2, #16384	; 0x4000
 8000a1a:	9200      	str	r2, [sp, #0]
 8000a1c:	9a00      	ldr	r2, [sp, #0]
 8000a1e:	9101      	str	r1, [sp, #4]
 8000a20:	6c1a      	ldr	r2, [r3, #64]	; 0x40
 8000a22:	f042 5280 	orr.w	r2, r2, #268435456	; 0x10000000
 8000a26:	641a      	str	r2, [r3, #64]	; 0x40
 8000a28:	6c1b      	ldr	r3, [r3, #64]	; 0x40
 8000a2a:	f003 5380 	and.w	r3, r3, #268435456	; 0x10000000
 8000a2e:	9301      	str	r3, [sp, #4]
 8000a30:	9b01      	ldr	r3, [sp, #4]
 8000a32:	b002      	add	sp, #8
 8000a34:	4770      	bx	lr
 8000a36:	bf00      	nop
 8000a38:	40023800 	.word	0x40023800

08000a3c <NMI_Handler>:
 8000a3c:	4770      	bx	lr

08000a3e <HardFault_Handler>:
 8000a3e:	e7fe      	b.n	8000a3e <HardFault_Handler>

08000a40 <MemManage_Handler>:
 8000a40:	e7fe      	b.n	8000a40 <MemManage_Handler>

08000a42 <BusFault_Handler>:
 8000a42:	e7fe      	b.n	8000a42 <BusFault_Handler>

08000a44 <UsageFault_Handler>:
 8000a44:	e7fe      	b.n	8000a44 <UsageFault_Handler>

08000a46 <SVC_Handler>:
 8000a46:	4770      	bx	lr

08000a48 <DebugMon_Handler>:
 8000a48:	4770      	bx	lr

08000a4a <PendSV_Handler>:
 8000a4a:	4770      	bx	lr

08000a4c <SysTick_Handler>:
 8000a4c:	f000 bb50 	b.w	80010f0 <HAL_IncTick>

08000a50 <DMA1_Stream5_IRQHandler>:
 8000a50:	4801      	ldr	r0, [pc, #4]	; (8000a58 <DMA1_Stream5_IRQHandler+0x8>)
 8000a52:	f000 bced 	b.w	8001430 <HAL_DMA_IRQHandler>
 8000a56:	bf00      	nop
 8000a58:	20012f28 	.word	0x20012f28

08000a5c <DMA1_Stream6_IRQHandler>:
 8000a5c:	4801      	ldr	r0, [pc, #4]	; (8000a64 <DMA1_Stream6_IRQHandler+0x8>)
 8000a5e:	f000 bce7 	b.w	8001430 <HAL_DMA_IRQHandler>
 8000a62:	bf00      	nop
 8000a64:	20012f88 	.word	0x20012f88

08000a68 <TIM2_IRQHandler>:
 8000a68:	b510      	push	{r4, lr}
 8000a6a:	4c1d      	ldr	r4, [pc, #116]	; (8000ae0 <TIM2_IRQHandler+0x78>)
 8000a6c:	4620      	mov	r0, r4
 8000a6e:	f001 f9dc 	bl	8001e2a <HAL_TIM_IRQHandler>
 8000a72:	6823      	ldr	r3, [r4, #0]
 8000a74:	f06f 0208 	mvn.w	r2, #8
 8000a78:	611a      	str	r2, [r3, #16]
 8000a7a:	4b1a      	ldr	r3, [pc, #104]	; (8000ae4 <TIM2_IRQHandler+0x7c>)
 8000a7c:	881a      	ldrh	r2, [r3, #0]
 8000a7e:	3201      	adds	r2, #1
 8000a80:	b292      	uxth	r2, r2
 8000a82:	f5b2 7f03 	cmp.w	r2, #524	; 0x20c
 8000a86:	bf86      	itte	hi
 8000a88:	2200      	movhi	r2, #0
 8000a8a:	801a      	strhhi	r2, [r3, #0]
 8000a8c:	801a      	strhls	r2, [r3, #0]
 8000a8e:	8819      	ldrh	r1, [r3, #0]
 8000a90:	bf84      	itt	hi
 8000a92:	4a15      	ldrhi	r2, [pc, #84]	; (8000ae8 <TIM2_IRQHandler+0x80>)
 8000a94:	605a      	strhi	r2, [r3, #4]
 8000a96:	2902      	cmp	r1, #2
 8000a98:	4a14      	ldr	r2, [pc, #80]	; (8000aec <TIM2_IRQHandler+0x84>)
 8000a9a:	bf34      	ite	cc
 8000a9c:	f04f 5080 	movcc.w	r0, #268435456	; 0x10000000
 8000aa0:	f44f 5080 	movcs.w	r0, #4096	; 0x1000
 8000aa4:	6190      	str	r0, [r2, #24]
 8000aa6:	f1a1 0224 	sub.w	r2, r1, #36	; 0x24
 8000aaa:	f5b2 7fef 	cmp.w	r2, #478	; 0x1de
 8000aae:	d815      	bhi.n	8000adc <TIM2_IRQHandler+0x74>
 8000ab0:	480f      	ldr	r0, [pc, #60]	; (8000af0 <TIM2_IRQHandler+0x88>)
 8000ab2:	689a      	ldr	r2, [r3, #8]
 8000ab4:	6002      	str	r2, [r0, #0]
 8000ab6:	685a      	ldr	r2, [r3, #4]
 8000ab8:	4c0e      	ldr	r4, [pc, #56]	; (8000af4 <TIM2_IRQHandler+0x8c>)
 8000aba:	60c2      	str	r2, [r0, #12]
 8000abc:	6820      	ldr	r0, [r4, #0]
 8000abe:	f040 0001 	orr.w	r0, r0, #1
 8000ac2:	6020      	str	r0, [r4, #0]
 8000ac4:	480c      	ldr	r0, [pc, #48]	; (8000af8 <TIM2_IRQHandler+0x90>)
 8000ac6:	6804      	ldr	r4, [r0, #0]
 8000ac8:	6820      	ldr	r0, [r4, #0]
 8000aca:	07c9      	lsls	r1, r1, #31
 8000acc:	f040 0001 	orr.w	r0, r0, #1
 8000ad0:	bf48      	it	mi
 8000ad2:	f202 1241 	addwmi	r2, r2, #321	; 0x141
 8000ad6:	6020      	str	r0, [r4, #0]
 8000ad8:	bf48      	it	mi
 8000ada:	605a      	strmi	r2, [r3, #4]
 8000adc:	bd10      	pop	{r4, pc}
 8000ade:	bf00      	nop
 8000ae0:	20012e60 	.word	0x20012e60
 8000ae4:	200000bc 	.word	0x200000bc
 8000ae8:	200000c8 	.word	0x200000c8
 8000aec:	40020400 	.word	0x40020400
 8000af0:	40026488 	.word	0x40026488
 8000af4:	40010000 	.word	0x40010000
 8000af8:	20012e00 	.word	0x20012e00

08000afc <USART2_IRQHandler>:
 8000afc:	b510      	push	{r4, lr}
 8000afe:	4c07      	ldr	r4, [pc, #28]	; (8000b1c <USART2_IRQHandler+0x20>)
 8000b00:	4620      	mov	r0, r4
 8000b02:	f001 ff49 	bl	8002998 <HAL_UART_IRQHandler>
 8000b06:	6823      	ldr	r3, [r4, #0]
 8000b08:	681b      	ldr	r3, [r3, #0]
 8000b0a:	06db      	lsls	r3, r3, #27
 8000b0c:	d504      	bpl.n	8000b18 <USART2_IRQHandler+0x1c>
 8000b0e:	4620      	mov	r0, r4
 8000b10:	e8bd 4010 	ldmia.w	sp!, {r4, lr}
 8000b14:	f000 ba18 	b.w	8000f48 <HAL_UART_RxCpltCallback>
 8000b18:	bd10      	pop	{r4, pc}
 8000b1a:	bf00      	nop
 8000b1c:	20013028 	.word	0x20013028

08000b20 <DMA2_Stream5_IRQHandler>:
 8000b20:	4b0b      	ldr	r3, [pc, #44]	; (8000b50 <DMA2_Stream5_IRQHandler+0x30>)
 8000b22:	681b      	ldr	r3, [r3, #0]
 8000b24:	6a19      	ldr	r1, [r3, #32]
 8000b26:	f241 1211 	movw	r2, #4369	; 0x1111
 8000b2a:	4211      	tst	r1, r2
 8000b2c:	d108      	bne.n	8000b40 <DMA2_Stream5_IRQHandler+0x20>
 8000b2e:	6a19      	ldr	r1, [r3, #32]
 8000b30:	f240 4244 	movw	r2, #1092	; 0x444
 8000b34:	4211      	tst	r1, r2
 8000b36:	bf02      	ittt	eq
 8000b38:	681a      	ldreq	r2, [r3, #0]
 8000b3a:	f022 0201 	biceq.w	r2, r2, #1
 8000b3e:	601a      	streq	r2, [r3, #0]
 8000b40:	4b04      	ldr	r3, [pc, #16]	; (8000b54 <DMA2_Stream5_IRQHandler+0x34>)
 8000b42:	4805      	ldr	r0, [pc, #20]	; (8000b58 <DMA2_Stream5_IRQHandler+0x38>)
 8000b44:	f04f 427f 	mov.w	r2, #4278190080	; 0xff000000
 8000b48:	619a      	str	r2, [r3, #24]
 8000b4a:	f000 bc71 	b.w	8001430 <HAL_DMA_IRQHandler>
 8000b4e:	bf00      	nop
 8000b50:	20012db8 	.word	0x20012db8
 8000b54:	40021000 	.word	0x40021000
 8000b58:	20012e00 	.word	0x20012e00

08000b5c <_getpid>:
 8000b5c:	2001      	movs	r0, #1
 8000b5e:	4770      	bx	lr

08000b60 <_kill>:
 8000b60:	b508      	push	{r3, lr}
 8000b62:	f002 f8a1 	bl	8002ca8 <__errno>
 8000b66:	2316      	movs	r3, #22
 8000b68:	6003      	str	r3, [r0, #0]
 8000b6a:	f04f 30ff 	mov.w	r0, #4294967295
 8000b6e:	bd08      	pop	{r3, pc}

08000b70 <_exit>:
 8000b70:	b508      	push	{r3, lr}
 8000b72:	f002 f899 	bl	8002ca8 <__errno>
 8000b76:	2316      	movs	r3, #22
 8000b78:	6003      	str	r3, [r0, #0]
 8000b7a:	e7fe      	b.n	8000b7a <_exit+0xa>

08000b7c <_read>:
 8000b7c:	b570      	push	{r4, r5, r6, lr}
 8000b7e:	460e      	mov	r6, r1
 8000b80:	4614      	mov	r4, r2
 8000b82:	2500      	movs	r5, #0
 8000b84:	42a5      	cmp	r5, r4
 8000b86:	db01      	blt.n	8000b8c <_read+0x10>
 8000b88:	4620      	mov	r0, r4
 8000b8a:	bd70      	pop	{r4, r5, r6, pc}
 8000b8c:	f3af 8000 	nop.w
 8000b90:	5570      	strb	r0, [r6, r5]
 8000b92:	3501      	adds	r5, #1
 8000b94:	e7f6      	b.n	8000b84 <_read+0x8>

08000b96 <_write>:
 8000b96:	b570      	push	{r4, r5, r6, lr}
 8000b98:	460e      	mov	r6, r1
 8000b9a:	4614      	mov	r4, r2
 8000b9c:	2500      	movs	r5, #0
 8000b9e:	42a5      	cmp	r5, r4
 8000ba0:	db01      	blt.n	8000ba6 <_write+0x10>
 8000ba2:	4620      	mov	r0, r4
 8000ba4:	bd70      	pop	{r4, r5, r6, pc}
 8000ba6:	5d70      	ldrb	r0, [r6, r5]
 8000ba8:	f3af 8000 	nop.w
 8000bac:	3501      	adds	r5, #1
 8000bae:	e7f6      	b.n	8000b9e <_write+0x8>

08000bb0 <_close>:
 8000bb0:	f04f 30ff 	mov.w	r0, #4294967295
 8000bb4:	4770      	bx	lr

08000bb6 <_fstat>:
 8000bb6:	f44f 5300 	mov.w	r3, #8192	; 0x2000
 8000bba:	604b      	str	r3, [r1, #4]
 8000bbc:	2000      	movs	r0, #0
 8000bbe:	4770      	bx	lr

08000bc0 <_isatty>:
 8000bc0:	2001      	movs	r0, #1
 8000bc2:	4770      	bx	lr

08000bc4 <_lseek>:
 8000bc4:	2000      	movs	r0, #0
 8000bc6:	4770      	bx	lr

08000bc8 <_sbrk>:
 8000bc8:	b508      	push	{r3, lr}
 8000bca:	4b0a      	ldr	r3, [pc, #40]	; (8000bf4 <_sbrk+0x2c>)
 8000bcc:	6819      	ldr	r1, [r3, #0]
 8000bce:	4602      	mov	r2, r0
 8000bd0:	b909      	cbnz	r1, 8000bd6 <_sbrk+0xe>
 8000bd2:	4909      	ldr	r1, [pc, #36]	; (8000bf8 <_sbrk+0x30>)
 8000bd4:	6019      	str	r1, [r3, #0]
 8000bd6:	6818      	ldr	r0, [r3, #0]
 8000bd8:	4669      	mov	r1, sp
 8000bda:	4402      	add	r2, r0
 8000bdc:	428a      	cmp	r2, r1
 8000bde:	d906      	bls.n	8000bee <_sbrk+0x26>
 8000be0:	f002 f862 	bl	8002ca8 <__errno>
 8000be4:	230c      	movs	r3, #12
 8000be6:	6003      	str	r3, [r0, #0]
 8000be8:	f04f 30ff 	mov.w	r0, #4294967295
 8000bec:	bd08      	pop	{r3, pc}
 8000bee:	601a      	str	r2, [r3, #0]
 8000bf0:	e7fc      	b.n	8000bec <_sbrk+0x24>
 8000bf2:	bf00      	nop
 8000bf4:	200000ac 	.word	0x200000ac
 8000bf8:	20013080 	.word	0x20013080

08000bfc <SystemInit>:
 8000bfc:	4b05      	ldr	r3, [pc, #20]	; (8000c14 <SystemInit+0x18>)
 8000bfe:	f8d3 2088 	ldr.w	r2, [r3, #136]	; 0x88
 8000c02:	f442 0270 	orr.w	r2, r2, #15728640	; 0xf00000
 8000c06:	f8c3 2088 	str.w	r2, [r3, #136]	; 0x88
 8000c0a:	f04f 6200 	mov.w	r2, #134217728	; 0x8000000
 8000c0e:	609a      	str	r2, [r3, #8]
 8000c10:	4770      	bx	lr
 8000c12:	bf00      	nop
 8000c14:	e000ed00 	.word	0xe000ed00

08000c18 <MX_TIM1_Init>:
 8000c18:	b57f      	push	{r0, r1, r2, r3, r4, r5, r6, lr}
 8000c1a:	2210      	movs	r2, #16
 8000c1c:	2100      	movs	r1, #0
 8000c1e:	a802      	add	r0, sp, #8
 8000c20:	f002 f86c 	bl	8002cfc <memset>
 8000c24:	4814      	ldr	r0, [pc, #80]	; (8000c78 <MX_TIM1_Init+0x60>)
 8000c26:	4a15      	ldr	r2, [pc, #84]	; (8000c7c <MX_TIM1_Init+0x64>)
 8000c28:	2300      	movs	r3, #0
 8000c2a:	e9c0 2300 	strd	r2, r3, [r0]
 8000c2e:	220b      	movs	r2, #11
 8000c30:	e9cd 3300 	strd	r3, r3, [sp]
 8000c34:	e9c0 2303 	strd	r2, r3, [r0, #12]
 8000c38:	e9c0 3305 	strd	r3, r3, [r0, #20]
 8000c3c:	6083      	str	r3, [r0, #8]
 8000c3e:	f001 f9fd 	bl	800203c <HAL_TIM_Base_Init>
 8000c42:	b108      	cbz	r0, 8000c48 <MX_TIM1_Init+0x30>
 8000c44:	f7ff fe72 	bl	800092c <Error_Handler>
 8000c48:	f44f 5380 	mov.w	r3, #4096	; 0x1000
 8000c4c:	480a      	ldr	r0, [pc, #40]	; (8000c78 <MX_TIM1_Init+0x60>)
 8000c4e:	9302      	str	r3, [sp, #8]
 8000c50:	a902      	add	r1, sp, #8
 8000c52:	f001 fae6 	bl	8002222 <HAL_TIM_ConfigClockSource>
 8000c56:	b108      	cbz	r0, 8000c5c <MX_TIM1_Init+0x44>
 8000c58:	f7ff fe68 	bl	800092c <Error_Handler>
 8000c5c:	2300      	movs	r3, #0
 8000c5e:	4806      	ldr	r0, [pc, #24]	; (8000c78 <MX_TIM1_Init+0x60>)
 8000c60:	4669      	mov	r1, sp
 8000c62:	e9cd 3300 	strd	r3, r3, [sp]
 8000c66:	f001 fc63 	bl	8002530 <HAL_TIMEx_MasterConfigSynchronization>
 8000c6a:	b108      	cbz	r0, 8000c70 <MX_TIM1_Init+0x58>
 8000c6c:	f7ff fe5e 	bl	800092c <Error_Handler>
 8000c70:	b007      	add	sp, #28
 8000c72:	f85d fb04 	ldr.w	pc, [sp], #4
 8000c76:	bf00      	nop
 8000c78:	20012db8 	.word	0x20012db8
 8000c7c:	40010000 	.word	0x40010000

08000c80 <HAL_TIM_Base_MspInit>:
 8000c80:	b537      	push	{r0, r1, r2, r4, r5, lr}
 8000c82:	4b17      	ldr	r3, [pc, #92]	; (8000ce0 <HAL_TIM_Base_MspInit+0x60>)
 8000c84:	6802      	ldr	r2, [r0, #0]
 8000c86:	429a      	cmp	r2, r3
 8000c88:	4605      	mov	r5, r0
 8000c8a:	d126      	bne.n	8000cda <HAL_TIM_Base_MspInit+0x5a>
 8000c8c:	2300      	movs	r3, #0
 8000c8e:	4a15      	ldr	r2, [pc, #84]	; (8000ce4 <HAL_TIM_Base_MspInit+0x64>)
 8000c90:	9301      	str	r3, [sp, #4]
 8000c92:	6c51      	ldr	r1, [r2, #68]	; 0x44
 8000c94:	4c14      	ldr	r4, [pc, #80]	; (8000ce8 <HAL_TIM_Base_MspInit+0x68>)
 8000c96:	f041 0101 	orr.w	r1, r1, #1
 8000c9a:	6451      	str	r1, [r2, #68]	; 0x44
 8000c9c:	6c52      	ldr	r2, [r2, #68]	; 0x44
 8000c9e:	4913      	ldr	r1, [pc, #76]	; (8000cec <HAL_TIM_Base_MspInit+0x6c>)
 8000ca0:	f002 0201 	and.w	r2, r2, #1
 8000ca4:	9201      	str	r2, [sp, #4]
 8000ca6:	9a01      	ldr	r2, [sp, #4]
 8000ca8:	f04f 6240 	mov.w	r2, #201326592	; 0xc000000
 8000cac:	e9c4 1200 	strd	r1, r2, [r4]
 8000cb0:	2240      	movs	r2, #64	; 0x40
 8000cb2:	e9c4 2302 	strd	r2, r3, [r4, #8]
 8000cb6:	f44f 6280 	mov.w	r2, #1024	; 0x400
 8000cba:	e9c4 2304 	strd	r2, r3, [r4, #16]
 8000cbe:	4620      	mov	r0, r4
 8000cc0:	f44f 3240 	mov.w	r2, #196608	; 0x30000
 8000cc4:	e9c4 3306 	strd	r3, r3, [r4, #24]
 8000cc8:	e9c4 2308 	strd	r2, r3, [r4, #32]
 8000ccc:	f000 faa0 	bl	8001210 <HAL_DMA_Init>
 8000cd0:	b108      	cbz	r0, 8000cd6 <HAL_TIM_Base_MspInit+0x56>
 8000cd2:	f7ff fe2b 	bl	800092c <Error_Handler>
 8000cd6:	622c      	str	r4, [r5, #32]
 8000cd8:	63a5      	str	r5, [r4, #56]	; 0x38
 8000cda:	b003      	add	sp, #12
 8000cdc:	bd30      	pop	{r4, r5, pc}
 8000cde:	bf00      	nop
 8000ce0:	40010000 	.word	0x40010000
 8000ce4:	40023800 	.word	0x40023800
 8000ce8:	20012e00 	.word	0x20012e00
 8000cec:	40026488 	.word	0x40026488

08000cf0 <HAL_TIM_PWM_MspInit>:
 8000cf0:	6803      	ldr	r3, [r0, #0]
 8000cf2:	f1b3 4f80 	cmp.w	r3, #1073741824	; 0x40000000
 8000cf6:	b507      	push	{r0, r1, r2, lr}
 8000cf8:	d116      	bne.n	8000d28 <HAL_TIM_PWM_MspInit+0x38>
 8000cfa:	2200      	movs	r2, #0
 8000cfc:	f503 330e 	add.w	r3, r3, #145408	; 0x23800
 8000d00:	9201      	str	r2, [sp, #4]
 8000d02:	6c19      	ldr	r1, [r3, #64]	; 0x40
 8000d04:	f041 0101 	orr.w	r1, r1, #1
 8000d08:	6419      	str	r1, [r3, #64]	; 0x40
 8000d0a:	6c1b      	ldr	r3, [r3, #64]	; 0x40
 8000d0c:	f003 0301 	and.w	r3, r3, #1
 8000d10:	9301      	str	r3, [sp, #4]
 8000d12:	4611      	mov	r1, r2
 8000d14:	201c      	movs	r0, #28
 8000d16:	9b01      	ldr	r3, [sp, #4]
 8000d18:	f000 fa0e 	bl	8001138 <HAL_NVIC_SetPriority>
 8000d1c:	201c      	movs	r0, #28
 8000d1e:	b003      	add	sp, #12
 8000d20:	f85d eb04 	ldr.w	lr, [sp], #4
 8000d24:	f000 ba3a 	b.w	800119c <HAL_NVIC_EnableIRQ>
 8000d28:	b003      	add	sp, #12
 8000d2a:	f85d fb04 	ldr.w	pc, [sp], #4
	...

08000d30 <HAL_TIM_MspPostInit>:
 8000d30:	b510      	push	{r4, lr}
 8000d32:	4604      	mov	r4, r0
 8000d34:	b086      	sub	sp, #24
 8000d36:	2214      	movs	r2, #20
 8000d38:	2100      	movs	r1, #0
 8000d3a:	a801      	add	r0, sp, #4
 8000d3c:	f001 ffde 	bl	8002cfc <memset>
 8000d40:	6823      	ldr	r3, [r4, #0]
 8000d42:	f1b3 4f80 	cmp.w	r3, #1073741824	; 0x40000000
 8000d46:	d11a      	bne.n	8000d7e <HAL_TIM_MspPostInit+0x4e>
 8000d48:	2100      	movs	r1, #0
 8000d4a:	f503 330e 	add.w	r3, r3, #145408	; 0x23800
 8000d4e:	9100      	str	r1, [sp, #0]
 8000d50:	6b1a      	ldr	r2, [r3, #48]	; 0x30
 8000d52:	480c      	ldr	r0, [pc, #48]	; (8000d84 <HAL_TIM_MspPostInit+0x54>)
 8000d54:	f042 0202 	orr.w	r2, r2, #2
 8000d58:	631a      	str	r2, [r3, #48]	; 0x30
 8000d5a:	6b1b      	ldr	r3, [r3, #48]	; 0x30
 8000d5c:	9103      	str	r1, [sp, #12]
 8000d5e:	f003 0302 	and.w	r3, r3, #2
 8000d62:	9300      	str	r3, [sp, #0]
 8000d64:	9b00      	ldr	r3, [sp, #0]
 8000d66:	f44f 6200 	mov.w	r2, #2048	; 0x800
 8000d6a:	2302      	movs	r3, #2
 8000d6c:	2103      	movs	r1, #3
 8000d6e:	e9cd 2301 	strd	r2, r3, [sp, #4]
 8000d72:	2301      	movs	r3, #1
 8000d74:	e9cd 1304 	strd	r1, r3, [sp, #16]
 8000d78:	a901      	add	r1, sp, #4
 8000d7a:	f000 fc17 	bl	80015ac <HAL_GPIO_Init>
 8000d7e:	b006      	add	sp, #24
 8000d80:	bd10      	pop	{r4, pc}
 8000d82:	bf00      	nop
 8000d84:	40020400 	.word	0x40020400

08000d88 <MX_TIM2_Init>:
 8000d88:	b510      	push	{r4, lr}
 8000d8a:	2400      	movs	r4, #0
 8000d8c:	b08a      	sub	sp, #40	; 0x28
 8000d8e:	221c      	movs	r2, #28
 8000d90:	4621      	mov	r1, r4
 8000d92:	a803      	add	r0, sp, #12
 8000d94:	e9cd 4401 	strd	r4, r4, [sp, #4]
 8000d98:	f001 ffb0 	bl	8002cfc <memset>
 8000d9c:	481d      	ldr	r0, [pc, #116]	; (8000e14 <MX_TIM2_Init+0x8c>)
 8000d9e:	f04f 4380 	mov.w	r3, #1073741824	; 0x40000000
 8000da2:	e9c0 3400 	strd	r3, r4, [r0]
 8000da6:	f640 236b 	movw	r3, #2667	; 0xa6b
 8000daa:	e9c0 3403 	strd	r3, r4, [r0, #12]
 8000dae:	6084      	str	r4, [r0, #8]
 8000db0:	6184      	str	r4, [r0, #24]
 8000db2:	f001 f96f 	bl	8002094 <HAL_TIM_PWM_Init>
 8000db6:	b108      	cbz	r0, 8000dbc <MX_TIM2_Init+0x34>
 8000db8:	f7ff fdb8 	bl	800092c <Error_Handler>
 8000dbc:	4815      	ldr	r0, [pc, #84]	; (8000e14 <MX_TIM2_Init+0x8c>)
 8000dbe:	a901      	add	r1, sp, #4
 8000dc0:	e9cd 4401 	strd	r4, r4, [sp, #4]
 8000dc4:	f001 fbb4 	bl	8002530 <HAL_TIMEx_MasterConfigSynchronization>
 8000dc8:	b108      	cbz	r0, 8000dce <MX_TIM2_Init+0x46>
 8000dca:	f7ff fdaf 	bl	800092c <Error_Handler>
 8000dce:	2260      	movs	r2, #96	; 0x60
 8000dd0:	f240 13bb 	movw	r3, #443	; 0x1bb
 8000dd4:	e9cd 2303 	strd	r2, r3, [sp, #12]
 8000dd8:	2302      	movs	r3, #2
 8000dda:	9305      	str	r3, [sp, #20]
 8000ddc:	480d      	ldr	r0, [pc, #52]	; (8000e14 <MX_TIM2_Init+0x8c>)
 8000dde:	2300      	movs	r3, #0
 8000de0:	2208      	movs	r2, #8
 8000de2:	a903      	add	r1, sp, #12
 8000de4:	9307      	str	r3, [sp, #28]
 8000de6:	f001 f9b7 	bl	8002158 <HAL_TIM_PWM_ConfigChannel>
 8000dea:	b108      	cbz	r0, 8000df0 <MX_TIM2_Init+0x68>
 8000dec:	f7ff fd9e 	bl	800092c <Error_Handler>
 8000df0:	220c      	movs	r2, #12
 8000df2:	f44f 73a0 	mov.w	r3, #320	; 0x140
 8000df6:	4807      	ldr	r0, [pc, #28]	; (8000e14 <MX_TIM2_Init+0x8c>)
 8000df8:	9304      	str	r3, [sp, #16]
 8000dfa:	eb0d 0102 	add.w	r1, sp, r2
 8000dfe:	f001 f9ab 	bl	8002158 <HAL_TIM_PWM_ConfigChannel>
 8000e02:	b108      	cbz	r0, 8000e08 <MX_TIM2_Init+0x80>
 8000e04:	f7ff fd92 	bl	800092c <Error_Handler>
 8000e08:	4802      	ldr	r0, [pc, #8]	; (8000e14 <MX_TIM2_Init+0x8c>)
 8000e0a:	f7ff ff91 	bl	8000d30 <HAL_TIM_MspPostInit>
 8000e0e:	b00a      	add	sp, #40	; 0x28
 8000e10:	bd10      	pop	{r4, pc}
 8000e12:	bf00      	nop
 8000e14:	20012e60 	.word	0x20012e60

08000e18 <MX_USART2_UART_Init>:
 8000e18:	480b      	ldr	r0, [pc, #44]	; (8000e48 <MX_USART2_UART_Init+0x30>)
 8000e1a:	4a0c      	ldr	r2, [pc, #48]	; (8000e4c <MX_USART2_UART_Init+0x34>)
 8000e1c:	b508      	push	{r3, lr}
 8000e1e:	f44f 33e1 	mov.w	r3, #115200	; 0x1c200
 8000e22:	e9c0 2300 	strd	r2, r3, [r0]
 8000e26:	2300      	movs	r3, #0
 8000e28:	220c      	movs	r2, #12
 8000e2a:	e9c0 3302 	strd	r3, r3, [r0, #8]
 8000e2e:	e9c0 2305 	strd	r2, r3, [r0, #20]
 8000e32:	6103      	str	r3, [r0, #16]
 8000e34:	61c3      	str	r3, [r0, #28]
 8000e36:	f001 fc57 	bl	80026e8 <HAL_UART_Init>
 8000e3a:	b118      	cbz	r0, 8000e44 <MX_USART2_UART_Init+0x2c>
 8000e3c:	e8bd 4008 	ldmia.w	sp!, {r3, lr}
 8000e40:	f7ff bd74 	b.w	800092c <Error_Handler>
 8000e44:	bd08      	pop	{r3, pc}
 8000e46:	bf00      	nop
 8000e48:	20013028 	.word	0x20013028
 8000e4c:	40004400 	.word	0x40004400

08000e50 <HAL_UART_MspInit>:
 8000e50:	b570      	push	{r4, r5, r6, lr}
 8000e52:	4606      	mov	r6, r0
 8000e54:	b088      	sub	sp, #32
 8000e56:	2214      	movs	r2, #20
 8000e58:	2100      	movs	r1, #0
 8000e5a:	a803      	add	r0, sp, #12
 8000e5c:	f001 ff4e 	bl	8002cfc <memset>
 8000e60:	6832      	ldr	r2, [r6, #0]
 8000e62:	4b33      	ldr	r3, [pc, #204]	; (8000f30 <HAL_UART_MspInit+0xe0>)
 8000e64:	429a      	cmp	r2, r3
 8000e66:	d160      	bne.n	8000f2a <HAL_UART_MspInit+0xda>
 8000e68:	2500      	movs	r5, #0
 8000e6a:	f503 33fa 	add.w	r3, r3, #128000	; 0x1f400
 8000e6e:	9501      	str	r5, [sp, #4]
 8000e70:	6c1a      	ldr	r2, [r3, #64]	; 0x40
 8000e72:	f442 3200 	orr.w	r2, r2, #131072	; 0x20000
 8000e76:	641a      	str	r2, [r3, #64]	; 0x40
 8000e78:	6c1a      	ldr	r2, [r3, #64]	; 0x40
 8000e7a:	f402 3200 	and.w	r2, r2, #131072	; 0x20000
 8000e7e:	9201      	str	r2, [sp, #4]
 8000e80:	9a01      	ldr	r2, [sp, #4]
 8000e82:	9502      	str	r5, [sp, #8]
 8000e84:	6b1a      	ldr	r2, [r3, #48]	; 0x30
 8000e86:	f042 0201 	orr.w	r2, r2, #1
 8000e8a:	631a      	str	r2, [r3, #48]	; 0x30
 8000e8c:	6b1b      	ldr	r3, [r3, #48]	; 0x30
 8000e8e:	9505      	str	r5, [sp, #20]
 8000e90:	f003 0301 	and.w	r3, r3, #1
 8000e94:	9302      	str	r3, [sp, #8]
 8000e96:	9b02      	ldr	r3, [sp, #8]
 8000e98:	200c      	movs	r0, #12
 8000e9a:	2302      	movs	r3, #2
 8000e9c:	e9cd 0303 	strd	r0, r3, [sp, #12]
 8000ea0:	2403      	movs	r4, #3
 8000ea2:	2307      	movs	r3, #7
 8000ea4:	4823      	ldr	r0, [pc, #140]	; (8000f34 <HAL_UART_MspInit+0xe4>)
 8000ea6:	a903      	add	r1, sp, #12
 8000ea8:	e9cd 4306 	strd	r4, r3, [sp, #24]
 8000eac:	f000 fb7e 	bl	80015ac <HAL_GPIO_Init>
 8000eb0:	4c21      	ldr	r4, [pc, #132]	; (8000f38 <HAL_UART_MspInit+0xe8>)
 8000eb2:	f8df c090 	ldr.w	ip, [pc, #144]	; 8000f44 <HAL_UART_MspInit+0xf4>
 8000eb6:	61a5      	str	r5, [r4, #24]
 8000eb8:	f04f 6300 	mov.w	r3, #134217728	; 0x8000000
 8000ebc:	e9c4 c300 	strd	ip, r3, [r4]
 8000ec0:	f44f 6380 	mov.w	r3, #1024	; 0x400
 8000ec4:	e9c4 3504 	strd	r3, r5, [r4, #16]
 8000ec8:	4620      	mov	r0, r4
 8000eca:	f44f 7380 	mov.w	r3, #256	; 0x100
 8000ece:	e9c4 5502 	strd	r5, r5, [r4, #8]
 8000ed2:	e9c4 3507 	strd	r3, r5, [r4, #28]
 8000ed6:	6265      	str	r5, [r4, #36]	; 0x24
 8000ed8:	f000 f99a 	bl	8001210 <HAL_DMA_Init>
 8000edc:	b108      	cbz	r0, 8000ee2 <HAL_UART_MspInit+0x92>
 8000ede:	f7ff fd25 	bl	800092c <Error_Handler>
 8000ee2:	4a16      	ldr	r2, [pc, #88]	; (8000f3c <HAL_UART_MspInit+0xec>)
 8000ee4:	63b4      	str	r4, [r6, #56]	; 0x38
 8000ee6:	63a6      	str	r6, [r4, #56]	; 0x38
 8000ee8:	4c15      	ldr	r4, [pc, #84]	; (8000f40 <HAL_UART_MspInit+0xf0>)
 8000eea:	f04f 6300 	mov.w	r3, #134217728	; 0x8000000
 8000eee:	e9c4 2300 	strd	r2, r3, [r4]
 8000ef2:	2140      	movs	r1, #64	; 0x40
 8000ef4:	2300      	movs	r3, #0
 8000ef6:	f44f 6280 	mov.w	r2, #1024	; 0x400
 8000efa:	4620      	mov	r0, r4
 8000efc:	e9c4 1302 	strd	r1, r3, [r4, #8]
 8000f00:	e9c4 2304 	strd	r2, r3, [r4, #16]
 8000f04:	e9c4 3306 	strd	r3, r3, [r4, #24]
 8000f08:	e9c4 3308 	strd	r3, r3, [r4, #32]
 8000f0c:	f000 f980 	bl	8001210 <HAL_DMA_Init>
 8000f10:	b108      	cbz	r0, 8000f16 <HAL_UART_MspInit+0xc6>
 8000f12:	f7ff fd0b 	bl	800092c <Error_Handler>
 8000f16:	2200      	movs	r2, #0
 8000f18:	6374      	str	r4, [r6, #52]	; 0x34
 8000f1a:	2026      	movs	r0, #38	; 0x26
 8000f1c:	4611      	mov	r1, r2
 8000f1e:	63a6      	str	r6, [r4, #56]	; 0x38
 8000f20:	f000 f90a 	bl	8001138 <HAL_NVIC_SetPriority>
 8000f24:	2026      	movs	r0, #38	; 0x26
 8000f26:	f000 f939 	bl	800119c <HAL_NVIC_EnableIRQ>
 8000f2a:	b008      	add	sp, #32
 8000f2c:	bd70      	pop	{r4, r5, r6, pc}
 8000f2e:	bf00      	nop
 8000f30:	40004400 	.word	0x40004400
 8000f34:	40020000 	.word	0x40020000
 8000f38:	20012f28 	.word	0x20012f28
 8000f3c:	400260a0 	.word	0x400260a0
 8000f40:	20012f88 	.word	0x20012f88
 8000f44:	40026088 	.word	0x40026088

08000f48 <HAL_UART_RxCpltCallback>:
 8000f48:	b5f7      	push	{r0, r1, r2, r4, r5, r6, r7, lr}
 8000f4a:	6803      	ldr	r3, [r0, #0]
 8000f4c:	4a29      	ldr	r2, [pc, #164]	; (8000ff4 <HAL_UART_RxCpltCallback+0xac>)
 8000f4e:	681b      	ldr	r3, [r3, #0]
 8000f50:	7811      	ldrb	r1, [r2, #0]
 8000f52:	f013 0f10 	tst.w	r3, #16
 8000f56:	4615      	mov	r5, r2
 8000f58:	d049      	beq.n	8000fee <HAL_UART_RxCpltCallback+0xa6>
 8000f5a:	4b27      	ldr	r3, [pc, #156]	; (8000ff8 <HAL_UART_RxCpltCallback+0xb0>)
 8000f5c:	4f27      	ldr	r7, [pc, #156]	; (8000ffc <HAL_UART_RxCpltCallback+0xb4>)
 8000f5e:	681b      	ldr	r3, [r3, #0]
 8000f60:	2400      	movs	r4, #0
 8000f62:	9401      	str	r4, [sp, #4]
 8000f64:	681a      	ldr	r2, [r3, #0]
 8000f66:	9201      	str	r2, [sp, #4]
 8000f68:	685b      	ldr	r3, [r3, #4]
 8000f6a:	9301      	str	r3, [sp, #4]
 8000f6c:	9b01      	ldr	r3, [sp, #4]
 8000f6e:	4b24      	ldr	r3, [pc, #144]	; (8001000 <HAL_UART_RxCpltCallback+0xb8>)
 8000f70:	781a      	ldrb	r2, [r3, #0]
 8000f72:	3201      	adds	r2, #1
 8000f74:	701a      	strb	r2, [r3, #0]
 8000f76:	6b83      	ldr	r3, [r0, #56]	; 0x38
 8000f78:	4a22      	ldr	r2, [pc, #136]	; (8001004 <HAL_UART_RxCpltCallback+0xbc>)
 8000f7a:	681b      	ldr	r3, [r3, #0]
 8000f7c:	7816      	ldrb	r6, [r2, #0]
 8000f7e:	685b      	ldr	r3, [r3, #4]
 8000f80:	703c      	strb	r4, [r7, #0]
 8000f82:	f1c3 0380 	rsb	r3, r3, #128	; 0x80
 8000f86:	b2db      	uxtb	r3, r3
 8000f88:	2901      	cmp	r1, #1
 8000f8a:	7013      	strb	r3, [r2, #0]
 8000f8c:	d824      	bhi.n	8000fd8 <HAL_UART_RxCpltCallback+0x90>
 8000f8e:	b2b2      	uxth	r2, r6
 8000f90:	b29c      	uxth	r4, r3
 8000f92:	b1f9      	cbz	r1, 8000fd4 <HAL_UART_RxCpltCallback+0x8c>
 8000f94:	429e      	cmp	r6, r3
 8000f96:	d321      	bcc.n	8000fdc <HAL_UART_RxCpltCallback+0x94>
 8000f98:	f1c2 0280 	rsb	r2, r2, #128	; 0x80
 8000f9c:	4414      	add	r4, r2
 8000f9e:	b2a4      	uxth	r4, r4
 8000fa0:	1e63      	subs	r3, r4, #1
 8000fa2:	2b7f      	cmp	r3, #127	; 0x7f
 8000fa4:	d81c      	bhi.n	8000fe0 <HAL_UART_RxCpltCallback+0x98>
 8000fa6:	4815      	ldr	r0, [pc, #84]	; (8000ffc <HAL_UART_RxCpltCallback+0xb4>)
 8000fa8:	f7ff f91c 	bl	80001e4 <strlen>
 8000fac:	4916      	ldr	r1, [pc, #88]	; (8001008 <HAL_UART_RxCpltCallback+0xc0>)
 8000fae:	4438      	add	r0, r7
 8000fb0:	2300      	movs	r3, #0
 8000fb2:	18f2      	adds	r2, r6, r3
 8000fb4:	f002 027f 	and.w	r2, r2, #127	; 0x7f
 8000fb8:	3301      	adds	r3, #1
 8000fba:	5c52      	ldrb	r2, [r2, r1]
 8000fbc:	f800 2b01 	strb.w	r2, [r0], #1
 8000fc0:	b29a      	uxth	r2, r3
 8000fc2:	4294      	cmp	r4, r2
 8000fc4:	d8f5      	bhi.n	8000fb2 <HAL_UART_RxCpltCallback+0x6a>
 8000fc6:	480d      	ldr	r0, [pc, #52]	; (8000ffc <HAL_UART_RxCpltCallback+0xb4>)
 8000fc8:	f7ff fae6 	bl	8000598 <FL_Parse>
 8000fcc:	2300      	movs	r3, #0
 8000fce:	702b      	strb	r3, [r5, #0]
 8000fd0:	b003      	add	sp, #12
 8000fd2:	bdf0      	pop	{r4, r5, r6, r7, pc}
 8000fd4:	1aa4      	subs	r4, r4, r2
 8000fd6:	e7e2      	b.n	8000f9e <HAL_UART_RxCpltCallback+0x56>
 8000fd8:	2482      	movs	r4, #130	; 0x82
 8000fda:	e7e1      	b.n	8000fa0 <HAL_UART_RxCpltCallback+0x58>
 8000fdc:	2481      	movs	r4, #129	; 0x81
 8000fde:	e7df      	b.n	8000fa0 <HAL_UART_RxCpltCallback+0x58>
 8000fe0:	490a      	ldr	r1, [pc, #40]	; (800100c <HAL_UART_RxCpltCallback+0xc4>)
 8000fe2:	4806      	ldr	r0, [pc, #24]	; (8000ffc <HAL_UART_RxCpltCallback+0xb4>)
 8000fe4:	f1a4 0280 	sub.w	r2, r4, #128	; 0x80
 8000fe8:	f001 fe90 	bl	8002d0c <siprintf>
 8000fec:	e7eb      	b.n	8000fc6 <HAL_UART_RxCpltCallback+0x7e>
 8000fee:	1c4b      	adds	r3, r1, #1
 8000ff0:	7013      	strb	r3, [r2, #0]
 8000ff2:	e7ed      	b.n	8000fd0 <HAL_UART_RxCpltCallback+0x88>
 8000ff4:	200000b2 	.word	0x200000b2
 8000ff8:	20013028 	.word	0x20013028
 8000ffc:	20012fe8 	.word	0x20012fe8
 8001000:	200000b1 	.word	0x200000b1
 8001004:	200000b0 	.word	0x200000b0
 8001008:	20012ea8 	.word	0x20012ea8
 800100c:	080041e2 	.word	0x080041e2

08001010 <HAL_UART_TxCpltCallback>:
 8001010:	4a02      	ldr	r2, [pc, #8]	; (800101c <HAL_UART_TxCpltCallback+0xc>)
 8001012:	7813      	ldrb	r3, [r2, #0]
 8001014:	3301      	adds	r3, #1
 8001016:	7013      	strb	r3, [r2, #0]
 8001018:	4770      	bx	lr
 800101a:	bf00      	nop
 800101c:	200000b3 	.word	0x200000b3

08001020 <Reset_Handler>:
 8001020:	f8df d034 	ldr.w	sp, [pc, #52]	; 8001058 <LoopFillZerobss+0x14>
 8001024:	2100      	movs	r1, #0
 8001026:	e003      	b.n	8001030 <LoopCopyDataInit>

08001028 <CopyDataInit>:
 8001028:	4b0c      	ldr	r3, [pc, #48]	; (800105c <LoopFillZerobss+0x18>)
 800102a:	585b      	ldr	r3, [r3, r1]
 800102c:	5043      	str	r3, [r0, r1]
 800102e:	3104      	adds	r1, #4

08001030 <LoopCopyDataInit>:
 8001030:	480b      	ldr	r0, [pc, #44]	; (8001060 <LoopFillZerobss+0x1c>)
 8001032:	4b0c      	ldr	r3, [pc, #48]	; (8001064 <LoopFillZerobss+0x20>)
 8001034:	1842      	adds	r2, r0, r1
 8001036:	429a      	cmp	r2, r3
 8001038:	d3f6      	bcc.n	8001028 <CopyDataInit>
 800103a:	4a0b      	ldr	r2, [pc, #44]	; (8001068 <LoopFillZerobss+0x24>)
 800103c:	e002      	b.n	8001044 <LoopFillZerobss>

0800103e <FillZerobss>:
 800103e:	2300      	movs	r3, #0
 8001040:	f842 3b04 	str.w	r3, [r2], #4

08001044 <LoopFillZerobss>:
 8001044:	4b09      	ldr	r3, [pc, #36]	; (800106c <LoopFillZerobss+0x28>)
 8001046:	429a      	cmp	r2, r3
 8001048:	d3f9      	bcc.n	800103e <FillZerobss>
 800104a:	f7ff fdd7 	bl	8000bfc <SystemInit>
 800104e:	f001 fe31 	bl	8002cb4 <__libc_init_array>
 8001052:	f7ff fc2b 	bl	80008ac <main>
 8001056:	4770      	bx	lr
 8001058:	20020000 	.word	0x20020000
 800105c:	08004368 	.word	0x08004368
 8001060:	20000000 	.word	0x20000000
 8001064:	20000090 	.word	0x20000090
 8001068:	20000090 	.word	0x20000090
 800106c:	20013080 	.word	0x20013080

08001070 <ADC_IRQHandler>:
 8001070:	e7fe      	b.n	8001070 <ADC_IRQHandler>
	...

08001074 <HAL_InitTick>:
 8001074:	b538      	push	{r3, r4, r5, lr}
 8001076:	4a0e      	ldr	r2, [pc, #56]	; (80010b0 <HAL_InitTick+0x3c>)
 8001078:	4b0e      	ldr	r3, [pc, #56]	; (80010b4 <HAL_InitTick+0x40>)
 800107a:	4605      	mov	r5, r0
 800107c:	7818      	ldrb	r0, [r3, #0]
 800107e:	f44f 737a 	mov.w	r3, #1000	; 0x3e8
 8001082:	fbb3 f3f0 	udiv	r3, r3, r0
 8001086:	6810      	ldr	r0, [r2, #0]
 8001088:	fbb0 f0f3 	udiv	r0, r0, r3
 800108c:	f000 f894 	bl	80011b8 <HAL_SYSTICK_Config>
 8001090:	4604      	mov	r4, r0
 8001092:	b958      	cbnz	r0, 80010ac <HAL_InitTick+0x38>
 8001094:	2d0f      	cmp	r5, #15
 8001096:	d809      	bhi.n	80010ac <HAL_InitTick+0x38>
 8001098:	4602      	mov	r2, r0
 800109a:	4629      	mov	r1, r5
 800109c:	f04f 30ff 	mov.w	r0, #4294967295
 80010a0:	f000 f84a 	bl	8001138 <HAL_NVIC_SetPriority>
 80010a4:	4b04      	ldr	r3, [pc, #16]	; (80010b8 <HAL_InitTick+0x44>)
 80010a6:	4620      	mov	r0, r4
 80010a8:	601d      	str	r5, [r3, #0]
 80010aa:	bd38      	pop	{r3, r4, r5, pc}
 80010ac:	2001      	movs	r0, #1
 80010ae:	e7fc      	b.n	80010aa <HAL_InitTick+0x36>
 80010b0:	20000020 	.word	0x20000020
 80010b4:	20000024 	.word	0x20000024
 80010b8:	20000028 	.word	0x20000028

080010bc <HAL_Init>:
 80010bc:	b508      	push	{r3, lr}
 80010be:	4b0b      	ldr	r3, [pc, #44]	; (80010ec <HAL_Init+0x30>)
 80010c0:	681a      	ldr	r2, [r3, #0]
 80010c2:	f442 7200 	orr.w	r2, r2, #512	; 0x200
 80010c6:	601a      	str	r2, [r3, #0]
 80010c8:	681a      	ldr	r2, [r3, #0]
 80010ca:	f442 6280 	orr.w	r2, r2, #1024	; 0x400
 80010ce:	601a      	str	r2, [r3, #0]
 80010d0:	681a      	ldr	r2, [r3, #0]
 80010d2:	f442 7280 	orr.w	r2, r2, #256	; 0x100
 80010d6:	601a      	str	r2, [r3, #0]
 80010d8:	2003      	movs	r0, #3
 80010da:	f000 f81b 	bl	8001114 <HAL_NVIC_SetPriorityGrouping>
 80010de:	2000      	movs	r0, #0
 80010e0:	f7ff ffc8 	bl	8001074 <HAL_InitTick>
 80010e4:	f7ff fc8e 	bl	8000a04 <HAL_MspInit>
 80010e8:	2000      	movs	r0, #0
 80010ea:	bd08      	pop	{r3, pc}
 80010ec:	40023c00 	.word	0x40023c00

080010f0 <HAL_IncTick>:
 80010f0:	4a03      	ldr	r2, [pc, #12]	; (8001100 <HAL_IncTick+0x10>)
 80010f2:	4b04      	ldr	r3, [pc, #16]	; (8001104 <HAL_IncTick+0x14>)
 80010f4:	6811      	ldr	r1, [r2, #0]
 80010f6:	781b      	ldrb	r3, [r3, #0]
 80010f8:	440b      	add	r3, r1
 80010fa:	6013      	str	r3, [r2, #0]
 80010fc:	4770      	bx	lr
 80010fe:	bf00      	nop
 8001100:	2001306c 	.word	0x2001306c
 8001104:	20000024 	.word	0x20000024

08001108 <HAL_GetTick>:
 8001108:	4b01      	ldr	r3, [pc, #4]	; (8001110 <HAL_GetTick+0x8>)
 800110a:	6818      	ldr	r0, [r3, #0]
 800110c:	4770      	bx	lr
 800110e:	bf00      	nop
 8001110:	2001306c 	.word	0x2001306c

08001114 <HAL_NVIC_SetPriorityGrouping>:
 8001114:	4907      	ldr	r1, [pc, #28]	; (8001134 <HAL_NVIC_SetPriorityGrouping+0x20>)
 8001116:	68ca      	ldr	r2, [r1, #12]
 8001118:	f422 62e0 	bic.w	r2, r2, #1792	; 0x700
 800111c:	0203      	lsls	r3, r0, #8
 800111e:	0412      	lsls	r2, r2, #16
 8001120:	f403 63e0 	and.w	r3, r3, #1792	; 0x700
 8001124:	0c12      	lsrs	r2, r2, #16
 8001126:	4313      	orrs	r3, r2
 8001128:	f043 63bf 	orr.w	r3, r3, #100139008	; 0x5f80000
 800112c:	f443 3300 	orr.w	r3, r3, #131072	; 0x20000
 8001130:	60cb      	str	r3, [r1, #12]
 8001132:	4770      	bx	lr
 8001134:	e000ed00 	.word	0xe000ed00

08001138 <HAL_NVIC_SetPriority>:
 8001138:	4b16      	ldr	r3, [pc, #88]	; (8001194 <HAL_NVIC_SetPriority+0x5c>)
 800113a:	b530      	push	{r4, r5, lr}
 800113c:	68dc      	ldr	r4, [r3, #12]
 800113e:	f3c4 2402 	ubfx	r4, r4, #8, #3
 8001142:	f1c4 0507 	rsb	r5, r4, #7
 8001146:	1d23      	adds	r3, r4, #4
 8001148:	2d04      	cmp	r5, #4
 800114a:	bf28      	it	cs
 800114c:	2504      	movcs	r5, #4
 800114e:	2b06      	cmp	r3, #6
 8001150:	f04f 33ff 	mov.w	r3, #4294967295
 8001154:	bf8c      	ite	hi
 8001156:	3c03      	subhi	r4, #3
 8001158:	2400      	movls	r4, #0
 800115a:	fa03 f505 	lsl.w	r5, r3, r5
 800115e:	ea21 0105 	bic.w	r1, r1, r5
 8001162:	40a3      	lsls	r3, r4
 8001164:	ea22 0203 	bic.w	r2, r2, r3
 8001168:	40a1      	lsls	r1, r4
 800116a:	2800      	cmp	r0, #0
 800116c:	ea41 0302 	orr.w	r3, r1, r2
 8001170:	bfac      	ite	ge
 8001172:	f100 4060 	addge.w	r0, r0, #3758096384	; 0xe0000000
 8001176:	4a08      	ldrlt	r2, [pc, #32]	; (8001198 <HAL_NVIC_SetPriority+0x60>)
 8001178:	ea4f 1303 	mov.w	r3, r3, lsl #4
 800117c:	bfb8      	it	lt
 800117e:	f000 000f 	andlt.w	r0, r0, #15
 8001182:	b2db      	uxtb	r3, r3
 8001184:	bfaa      	itet	ge
 8001186:	f500 4061 	addge.w	r0, r0, #57600	; 0xe100
 800118a:	5413      	strblt	r3, [r2, r0]
 800118c:	f880 3300 	strbge.w	r3, [r0, #768]	; 0x300
 8001190:	bd30      	pop	{r4, r5, pc}
 8001192:	bf00      	nop
 8001194:	e000ed00 	.word	0xe000ed00
 8001198:	e000ed14 	.word	0xe000ed14

0800119c <HAL_NVIC_EnableIRQ>:
 800119c:	2800      	cmp	r0, #0
 800119e:	db08      	blt.n	80011b2 <HAL_NVIC_EnableIRQ+0x16>
 80011a0:	0942      	lsrs	r2, r0, #5
 80011a2:	2301      	movs	r3, #1
 80011a4:	f000 001f 	and.w	r0, r0, #31
 80011a8:	fa03 f000 	lsl.w	r0, r3, r0
 80011ac:	4b01      	ldr	r3, [pc, #4]	; (80011b4 <HAL_NVIC_EnableIRQ+0x18>)
 80011ae:	f843 0022 	str.w	r0, [r3, r2, lsl #2]
 80011b2:	4770      	bx	lr
 80011b4:	e000e100 	.word	0xe000e100

080011b8 <HAL_SYSTICK_Config>:
 80011b8:	3801      	subs	r0, #1
 80011ba:	f1b0 7f80 	cmp.w	r0, #16777216	; 0x1000000
 80011be:	d20a      	bcs.n	80011d6 <HAL_SYSTICK_Config+0x1e>
 80011c0:	4b06      	ldr	r3, [pc, #24]	; (80011dc <HAL_SYSTICK_Config+0x24>)
 80011c2:	4a07      	ldr	r2, [pc, #28]	; (80011e0 <HAL_SYSTICK_Config+0x28>)
 80011c4:	6058      	str	r0, [r3, #4]
 80011c6:	21f0      	movs	r1, #240	; 0xf0
 80011c8:	f882 1023 	strb.w	r1, [r2, #35]	; 0x23
 80011cc:	2000      	movs	r0, #0
 80011ce:	2207      	movs	r2, #7
 80011d0:	6098      	str	r0, [r3, #8]
 80011d2:	601a      	str	r2, [r3, #0]
 80011d4:	4770      	bx	lr
 80011d6:	2001      	movs	r0, #1
 80011d8:	4770      	bx	lr
 80011da:	bf00      	nop
 80011dc:	e000e010 	.word	0xe000e010
 80011e0:	e000ed00 	.word	0xe000ed00

080011e4 <DMA_CalcBaseAndBitshift>:
 80011e4:	6803      	ldr	r3, [r0, #0]
 80011e6:	b510      	push	{r4, lr}
 80011e8:	4c08      	ldr	r4, [pc, #32]	; (800120c <DMA_CalcBaseAndBitshift+0x28>)
 80011ea:	4602      	mov	r2, r0
 80011ec:	b2d9      	uxtb	r1, r3
 80011ee:	3910      	subs	r1, #16
 80011f0:	2018      	movs	r0, #24
 80011f2:	fbb1 f0f0 	udiv	r0, r1, r0
 80011f6:	5c20      	ldrb	r0, [r4, r0]
 80011f8:	65d0      	str	r0, [r2, #92]	; 0x5c
 80011fa:	f423 707f 	bic.w	r0, r3, #1020	; 0x3fc
 80011fe:	f020 0003 	bic.w	r0, r0, #3
 8001202:	295f      	cmp	r1, #95	; 0x5f
 8001204:	bf88      	it	hi
 8001206:	3004      	addhi	r0, #4
 8001208:	6590      	str	r0, [r2, #88]	; 0x58
 800120a:	bd10      	pop	{r4, pc}
 800120c:	08004204 	.word	0x08004204

08001210 <HAL_DMA_Init>:
 8001210:	b570      	push	{r4, r5, r6, lr}
 8001212:	4604      	mov	r4, r0
 8001214:	f7ff ff78 	bl	8001108 <HAL_GetTick>
 8001218:	4605      	mov	r5, r0
 800121a:	2c00      	cmp	r4, #0
 800121c:	d073      	beq.n	8001306 <HAL_DMA_Init+0xf6>
 800121e:	2300      	movs	r3, #0
 8001220:	f884 3034 	strb.w	r3, [r4, #52]	; 0x34
 8001224:	6822      	ldr	r2, [r4, #0]
 8001226:	2302      	movs	r3, #2
 8001228:	f884 3035 	strb.w	r3, [r4, #53]	; 0x35
 800122c:	6813      	ldr	r3, [r2, #0]
 800122e:	f023 0301 	bic.w	r3, r3, #1
 8001232:	6013      	str	r3, [r2, #0]
 8001234:	6821      	ldr	r1, [r4, #0]
 8001236:	680b      	ldr	r3, [r1, #0]
 8001238:	07d8      	lsls	r0, r3, #31
 800123a:	d42f      	bmi.n	800129c <HAL_DMA_Init+0x8c>
 800123c:	680b      	ldr	r3, [r1, #0]
 800123e:	4d33      	ldr	r5, [pc, #204]	; (800130c <HAL_DMA_Init+0xfc>)
 8001240:	69a0      	ldr	r0, [r4, #24]
 8001242:	401d      	ands	r5, r3
 8001244:	e9d4 2301 	ldrd	r2, r3, [r4, #4]
 8001248:	4313      	orrs	r3, r2
 800124a:	68e2      	ldr	r2, [r4, #12]
 800124c:	4313      	orrs	r3, r2
 800124e:	6922      	ldr	r2, [r4, #16]
 8001250:	4313      	orrs	r3, r2
 8001252:	6962      	ldr	r2, [r4, #20]
 8001254:	4313      	orrs	r3, r2
 8001256:	69e2      	ldr	r2, [r4, #28]
 8001258:	4303      	orrs	r3, r0
 800125a:	4313      	orrs	r3, r2
 800125c:	6a22      	ldr	r2, [r4, #32]
 800125e:	4313      	orrs	r3, r2
 8001260:	6a62      	ldr	r2, [r4, #36]	; 0x24
 8001262:	2a04      	cmp	r2, #4
 8001264:	ea43 0305 	orr.w	r3, r3, r5
 8001268:	bf02      	ittt	eq
 800126a:	e9d4 560b 	ldrdeq	r5, r6, [r4, #44]	; 0x2c
 800126e:	4335      	orreq	r5, r6
 8001270:	432b      	orreq	r3, r5
 8001272:	600b      	str	r3, [r1, #0]
 8001274:	694b      	ldr	r3, [r1, #20]
 8001276:	2a04      	cmp	r2, #4
 8001278:	f023 0307 	bic.w	r3, r3, #7
 800127c:	ea43 0302 	orr.w	r3, r3, r2
 8001280:	d133      	bne.n	80012ea <HAL_DMA_Init+0xda>
 8001282:	6aa2      	ldr	r2, [r4, #40]	; 0x28
 8001284:	6ae5      	ldr	r5, [r4, #44]	; 0x2c
 8001286:	4313      	orrs	r3, r2
 8001288:	b37d      	cbz	r5, 80012ea <HAL_DMA_Init+0xda>
 800128a:	b990      	cbnz	r0, 80012b2 <HAL_DMA_Init+0xa2>
 800128c:	2a01      	cmp	r2, #1
 800128e:	d021      	beq.n	80012d4 <HAL_DMA_Init+0xc4>
 8001290:	f032 0202 	bics.w	r2, r2, #2
 8001294:	d129      	bne.n	80012ea <HAL_DMA_Init+0xda>
 8001296:	01ea      	lsls	r2, r5, #7
 8001298:	d527      	bpl.n	80012ea <HAL_DMA_Init+0xda>
 800129a:	e01e      	b.n	80012da <HAL_DMA_Init+0xca>
 800129c:	f7ff ff34 	bl	8001108 <HAL_GetTick>
 80012a0:	1b40      	subs	r0, r0, r5
 80012a2:	2805      	cmp	r0, #5
 80012a4:	d9c6      	bls.n	8001234 <HAL_DMA_Init+0x24>
 80012a6:	2320      	movs	r3, #32
 80012a8:	6563      	str	r3, [r4, #84]	; 0x54
 80012aa:	2003      	movs	r0, #3
 80012ac:	f884 0035 	strb.w	r0, [r4, #53]	; 0x35
 80012b0:	bd70      	pop	{r4, r5, r6, pc}
 80012b2:	f5b0 5f00 	cmp.w	r0, #8192	; 0x2000
 80012b6:	d114      	bne.n	80012e2 <HAL_DMA_Init+0xd2>
 80012b8:	2a03      	cmp	r2, #3
 80012ba:	d816      	bhi.n	80012ea <HAL_DMA_Init+0xda>
 80012bc:	a001      	add	r0, pc, #4	; (adr r0, 80012c4 <HAL_DMA_Init+0xb4>)
 80012be:	f850 f022 	ldr.w	pc, [r0, r2, lsl #2]
 80012c2:	bf00      	nop
 80012c4:	080012db 	.word	0x080012db
 80012c8:	08001297 	.word	0x08001297
 80012cc:	080012db 	.word	0x080012db
 80012d0:	080012d5 	.word	0x080012d5
 80012d4:	f1b5 7fc0 	cmp.w	r5, #25165824	; 0x1800000
 80012d8:	d107      	bne.n	80012ea <HAL_DMA_Init+0xda>
 80012da:	2340      	movs	r3, #64	; 0x40
 80012dc:	6563      	str	r3, [r4, #84]	; 0x54
 80012de:	2001      	movs	r0, #1
 80012e0:	e7e4      	b.n	80012ac <HAL_DMA_Init+0x9c>
 80012e2:	2a02      	cmp	r2, #2
 80012e4:	d9f9      	bls.n	80012da <HAL_DMA_Init+0xca>
 80012e6:	2a03      	cmp	r2, #3
 80012e8:	d0d5      	beq.n	8001296 <HAL_DMA_Init+0x86>
 80012ea:	614b      	str	r3, [r1, #20]
 80012ec:	4620      	mov	r0, r4
 80012ee:	f7ff ff79 	bl	80011e4 <DMA_CalcBaseAndBitshift>
 80012f2:	6de2      	ldr	r2, [r4, #92]	; 0x5c
 80012f4:	233f      	movs	r3, #63	; 0x3f
 80012f6:	4093      	lsls	r3, r2
 80012f8:	6083      	str	r3, [r0, #8]
 80012fa:	2000      	movs	r0, #0
 80012fc:	2301      	movs	r3, #1
 80012fe:	6560      	str	r0, [r4, #84]	; 0x54
 8001300:	f884 3035 	strb.w	r3, [r4, #53]	; 0x35
 8001304:	e7d4      	b.n	80012b0 <HAL_DMA_Init+0xa0>
 8001306:	2001      	movs	r0, #1
 8001308:	e7d2      	b.n	80012b0 <HAL_DMA_Init+0xa0>
 800130a:	bf00      	nop
 800130c:	f010803f 	.word	0xf010803f

08001310 <HAL_DMA_Start_IT>:
 8001310:	b570      	push	{r4, r5, r6, lr}
 8001312:	f890 4034 	ldrb.w	r4, [r0, #52]	; 0x34
 8001316:	6d86      	ldr	r6, [r0, #88]	; 0x58
 8001318:	2c01      	cmp	r4, #1
 800131a:	d031      	beq.n	8001380 <HAL_DMA_Start_IT+0x70>
 800131c:	2401      	movs	r4, #1
 800131e:	f880 4034 	strb.w	r4, [r0, #52]	; 0x34
 8001322:	f890 4035 	ldrb.w	r4, [r0, #53]	; 0x35
 8001326:	2c01      	cmp	r4, #1
 8001328:	f04f 0500 	mov.w	r5, #0
 800132c:	f04f 0402 	mov.w	r4, #2
 8001330:	d124      	bne.n	800137c <HAL_DMA_Start_IT+0x6c>
 8001332:	f880 4035 	strb.w	r4, [r0, #53]	; 0x35
 8001336:	6804      	ldr	r4, [r0, #0]
 8001338:	6545      	str	r5, [r0, #84]	; 0x54
 800133a:	6825      	ldr	r5, [r4, #0]
 800133c:	f425 2580 	bic.w	r5, r5, #262144	; 0x40000
 8001340:	6025      	str	r5, [r4, #0]
 8001342:	6063      	str	r3, [r4, #4]
 8001344:	6883      	ldr	r3, [r0, #8]
 8001346:	2b40      	cmp	r3, #64	; 0x40
 8001348:	bf0e      	itee	eq
 800134a:	60a2      	streq	r2, [r4, #8]
 800134c:	60a1      	strne	r1, [r4, #8]
 800134e:	60e2      	strne	r2, [r4, #12]
 8001350:	6dc2      	ldr	r2, [r0, #92]	; 0x5c
 8001352:	bf08      	it	eq
 8001354:	60e1      	streq	r1, [r4, #12]
 8001356:	233f      	movs	r3, #63	; 0x3f
 8001358:	4093      	lsls	r3, r2
 800135a:	60b3      	str	r3, [r6, #8]
 800135c:	6823      	ldr	r3, [r4, #0]
 800135e:	f043 0316 	orr.w	r3, r3, #22
 8001362:	6023      	str	r3, [r4, #0]
 8001364:	6c03      	ldr	r3, [r0, #64]	; 0x40
 8001366:	b11b      	cbz	r3, 8001370 <HAL_DMA_Start_IT+0x60>
 8001368:	6823      	ldr	r3, [r4, #0]
 800136a:	f043 0308 	orr.w	r3, r3, #8
 800136e:	6023      	str	r3, [r4, #0]
 8001370:	6823      	ldr	r3, [r4, #0]
 8001372:	f043 0301 	orr.w	r3, r3, #1
 8001376:	6023      	str	r3, [r4, #0]
 8001378:	2000      	movs	r0, #0
 800137a:	bd70      	pop	{r4, r5, r6, pc}
 800137c:	f880 5034 	strb.w	r5, [r0, #52]	; 0x34
 8001380:	2002      	movs	r0, #2
 8001382:	e7fa      	b.n	800137a <HAL_DMA_Start_IT+0x6a>

08001384 <HAL_DMA_Abort>:
 8001384:	b570      	push	{r4, r5, r6, lr}
 8001386:	4604      	mov	r4, r0
 8001388:	6d86      	ldr	r6, [r0, #88]	; 0x58
 800138a:	f7ff febd 	bl	8001108 <HAL_GetTick>
 800138e:	f894 3035 	ldrb.w	r3, [r4, #53]	; 0x35
 8001392:	2b02      	cmp	r3, #2
 8001394:	4605      	mov	r5, r0
 8001396:	d006      	beq.n	80013a6 <HAL_DMA_Abort+0x22>
 8001398:	2380      	movs	r3, #128	; 0x80
 800139a:	6563      	str	r3, [r4, #84]	; 0x54
 800139c:	2300      	movs	r3, #0
 800139e:	f884 3034 	strb.w	r3, [r4, #52]	; 0x34
 80013a2:	2001      	movs	r0, #1
 80013a4:	bd70      	pop	{r4, r5, r6, pc}
 80013a6:	6823      	ldr	r3, [r4, #0]
 80013a8:	681a      	ldr	r2, [r3, #0]
 80013aa:	f022 0216 	bic.w	r2, r2, #22
 80013ae:	601a      	str	r2, [r3, #0]
 80013b0:	695a      	ldr	r2, [r3, #20]
 80013b2:	f022 0280 	bic.w	r2, r2, #128	; 0x80
 80013b6:	615a      	str	r2, [r3, #20]
 80013b8:	6c22      	ldr	r2, [r4, #64]	; 0x40
 80013ba:	b90a      	cbnz	r2, 80013c0 <HAL_DMA_Abort+0x3c>
 80013bc:	6ca2      	ldr	r2, [r4, #72]	; 0x48
 80013be:	b11a      	cbz	r2, 80013c8 <HAL_DMA_Abort+0x44>
 80013c0:	681a      	ldr	r2, [r3, #0]
 80013c2:	f022 0208 	bic.w	r2, r2, #8
 80013c6:	601a      	str	r2, [r3, #0]
 80013c8:	681a      	ldr	r2, [r3, #0]
 80013ca:	f022 0201 	bic.w	r2, r2, #1
 80013ce:	601a      	str	r2, [r3, #0]
 80013d0:	6823      	ldr	r3, [r4, #0]
 80013d2:	681b      	ldr	r3, [r3, #0]
 80013d4:	f013 0301 	ands.w	r3, r3, #1
 80013d8:	d10a      	bne.n	80013f0 <HAL_DMA_Abort+0x6c>
 80013da:	6de1      	ldr	r1, [r4, #92]	; 0x5c
 80013dc:	223f      	movs	r2, #63	; 0x3f
 80013de:	408a      	lsls	r2, r1
 80013e0:	60b2      	str	r2, [r6, #8]
 80013e2:	2201      	movs	r2, #1
 80013e4:	f884 3034 	strb.w	r3, [r4, #52]	; 0x34
 80013e8:	f884 2035 	strb.w	r2, [r4, #53]	; 0x35
 80013ec:	4618      	mov	r0, r3
 80013ee:	e7d9      	b.n	80013a4 <HAL_DMA_Abort+0x20>
 80013f0:	f7ff fe8a 	bl	8001108 <HAL_GetTick>
 80013f4:	1b40      	subs	r0, r0, r5
 80013f6:	2805      	cmp	r0, #5
 80013f8:	d9ea      	bls.n	80013d0 <HAL_DMA_Abort+0x4c>
 80013fa:	2320      	movs	r3, #32
 80013fc:	6563      	str	r3, [r4, #84]	; 0x54
 80013fe:	2003      	movs	r0, #3
 8001400:	2300      	movs	r3, #0
 8001402:	f884 3034 	strb.w	r3, [r4, #52]	; 0x34
 8001406:	f884 0035 	strb.w	r0, [r4, #53]	; 0x35
 800140a:	e7cb      	b.n	80013a4 <HAL_DMA_Abort+0x20>

0800140c <HAL_DMA_Abort_IT>:
 800140c:	f890 3035 	ldrb.w	r3, [r0, #53]	; 0x35
 8001410:	2b02      	cmp	r3, #2
 8001412:	d003      	beq.n	800141c <HAL_DMA_Abort_IT+0x10>
 8001414:	2380      	movs	r3, #128	; 0x80
 8001416:	6543      	str	r3, [r0, #84]	; 0x54
 8001418:	2001      	movs	r0, #1
 800141a:	4770      	bx	lr
 800141c:	6802      	ldr	r2, [r0, #0]
 800141e:	2305      	movs	r3, #5
 8001420:	f880 3035 	strb.w	r3, [r0, #53]	; 0x35
 8001424:	6813      	ldr	r3, [r2, #0]
 8001426:	f023 0301 	bic.w	r3, r3, #1
 800142a:	6013      	str	r3, [r2, #0]
 800142c:	2000      	movs	r0, #0
 800142e:	4770      	bx	lr

08001430 <HAL_DMA_IRQHandler>:
 8001430:	b5f7      	push	{r0, r1, r2, r4, r5, r6, r7, lr}
 8001432:	2300      	movs	r3, #0
 8001434:	9301      	str	r3, [sp, #4]
 8001436:	4b5c      	ldr	r3, [pc, #368]	; (80015a8 <HAL_DMA_IRQHandler+0x178>)
 8001438:	6d85      	ldr	r5, [r0, #88]	; 0x58
 800143a:	681f      	ldr	r7, [r3, #0]
 800143c:	6dc3      	ldr	r3, [r0, #92]	; 0x5c
 800143e:	682e      	ldr	r6, [r5, #0]
 8001440:	2208      	movs	r2, #8
 8001442:	409a      	lsls	r2, r3
 8001444:	4232      	tst	r2, r6
 8001446:	4604      	mov	r4, r0
 8001448:	d00c      	beq.n	8001464 <HAL_DMA_IRQHandler+0x34>
 800144a:	6801      	ldr	r1, [r0, #0]
 800144c:	6808      	ldr	r0, [r1, #0]
 800144e:	0740      	lsls	r0, r0, #29
 8001450:	d508      	bpl.n	8001464 <HAL_DMA_IRQHandler+0x34>
 8001452:	6808      	ldr	r0, [r1, #0]
 8001454:	f020 0004 	bic.w	r0, r0, #4
 8001458:	6008      	str	r0, [r1, #0]
 800145a:	60aa      	str	r2, [r5, #8]
 800145c:	6d62      	ldr	r2, [r4, #84]	; 0x54
 800145e:	f042 0201 	orr.w	r2, r2, #1
 8001462:	6562      	str	r2, [r4, #84]	; 0x54
 8001464:	2201      	movs	r2, #1
 8001466:	409a      	lsls	r2, r3
 8001468:	4232      	tst	r2, r6
 800146a:	d008      	beq.n	800147e <HAL_DMA_IRQHandler+0x4e>
 800146c:	6821      	ldr	r1, [r4, #0]
 800146e:	6949      	ldr	r1, [r1, #20]
 8001470:	0609      	lsls	r1, r1, #24
 8001472:	bf41      	itttt	mi
 8001474:	60aa      	strmi	r2, [r5, #8]
 8001476:	6d62      	ldrmi	r2, [r4, #84]	; 0x54
 8001478:	f042 0202 	orrmi.w	r2, r2, #2
 800147c:	6562      	strmi	r2, [r4, #84]	; 0x54
 800147e:	2204      	movs	r2, #4
 8001480:	409a      	lsls	r2, r3
 8001482:	4232      	tst	r2, r6
 8001484:	d008      	beq.n	8001498 <HAL_DMA_IRQHandler+0x68>
 8001486:	6821      	ldr	r1, [r4, #0]
 8001488:	6809      	ldr	r1, [r1, #0]
 800148a:	0788      	lsls	r0, r1, #30
 800148c:	bf41      	itttt	mi
 800148e:	60aa      	strmi	r2, [r5, #8]
 8001490:	6d62      	ldrmi	r2, [r4, #84]	; 0x54
 8001492:	f042 0204 	orrmi.w	r2, r2, #4
 8001496:	6562      	strmi	r2, [r4, #84]	; 0x54
 8001498:	2210      	movs	r2, #16
 800149a:	409a      	lsls	r2, r3
 800149c:	4232      	tst	r2, r6
 800149e:	d010      	beq.n	80014c2 <HAL_DMA_IRQHandler+0x92>
 80014a0:	6823      	ldr	r3, [r4, #0]
 80014a2:	6819      	ldr	r1, [r3, #0]
 80014a4:	0709      	lsls	r1, r1, #28
 80014a6:	d50c      	bpl.n	80014c2 <HAL_DMA_IRQHandler+0x92>
 80014a8:	60aa      	str	r2, [r5, #8]
 80014aa:	681a      	ldr	r2, [r3, #0]
 80014ac:	0350      	lsls	r0, r2, #13
 80014ae:	d537      	bpl.n	8001520 <HAL_DMA_IRQHandler+0xf0>
 80014b0:	681b      	ldr	r3, [r3, #0]
 80014b2:	0319      	lsls	r1, r3, #12
 80014b4:	d401      	bmi.n	80014ba <HAL_DMA_IRQHandler+0x8a>
 80014b6:	6c23      	ldr	r3, [r4, #64]	; 0x40
 80014b8:	e000      	b.n	80014bc <HAL_DMA_IRQHandler+0x8c>
 80014ba:	6ca3      	ldr	r3, [r4, #72]	; 0x48
 80014bc:	b10b      	cbz	r3, 80014c2 <HAL_DMA_IRQHandler+0x92>
 80014be:	4620      	mov	r0, r4
 80014c0:	4798      	blx	r3
 80014c2:	6de1      	ldr	r1, [r4, #92]	; 0x5c
 80014c4:	2220      	movs	r2, #32
 80014c6:	408a      	lsls	r2, r1
 80014c8:	4232      	tst	r2, r6
 80014ca:	d03a      	beq.n	8001542 <HAL_DMA_IRQHandler+0x112>
 80014cc:	6823      	ldr	r3, [r4, #0]
 80014ce:	6818      	ldr	r0, [r3, #0]
 80014d0:	06c6      	lsls	r6, r0, #27
 80014d2:	d536      	bpl.n	8001542 <HAL_DMA_IRQHandler+0x112>
 80014d4:	60aa      	str	r2, [r5, #8]
 80014d6:	f894 2035 	ldrb.w	r2, [r4, #53]	; 0x35
 80014da:	2a05      	cmp	r2, #5
 80014dc:	681a      	ldr	r2, [r3, #0]
 80014de:	d127      	bne.n	8001530 <HAL_DMA_IRQHandler+0x100>
 80014e0:	f022 0216 	bic.w	r2, r2, #22
 80014e4:	601a      	str	r2, [r3, #0]
 80014e6:	695a      	ldr	r2, [r3, #20]
 80014e8:	f022 0280 	bic.w	r2, r2, #128	; 0x80
 80014ec:	615a      	str	r2, [r3, #20]
 80014ee:	6c22      	ldr	r2, [r4, #64]	; 0x40
 80014f0:	b90a      	cbnz	r2, 80014f6 <HAL_DMA_IRQHandler+0xc6>
 80014f2:	6ca2      	ldr	r2, [r4, #72]	; 0x48
 80014f4:	b11a      	cbz	r2, 80014fe <HAL_DMA_IRQHandler+0xce>
 80014f6:	681a      	ldr	r2, [r3, #0]
 80014f8:	f022 0208 	bic.w	r2, r2, #8
 80014fc:	601a      	str	r2, [r3, #0]
 80014fe:	233f      	movs	r3, #63	; 0x3f
 8001500:	408b      	lsls	r3, r1
 8001502:	60ab      	str	r3, [r5, #8]
 8001504:	2300      	movs	r3, #0
 8001506:	f884 3034 	strb.w	r3, [r4, #52]	; 0x34
 800150a:	2301      	movs	r3, #1
 800150c:	f884 3035 	strb.w	r3, [r4, #53]	; 0x35
 8001510:	6d23      	ldr	r3, [r4, #80]	; 0x50
 8001512:	2b00      	cmp	r3, #0
 8001514:	d045      	beq.n	80015a2 <HAL_DMA_IRQHandler+0x172>
 8001516:	4620      	mov	r0, r4
 8001518:	b003      	add	sp, #12
 800151a:	e8bd 40f0 	ldmia.w	sp!, {r4, r5, r6, r7, lr}
 800151e:	4718      	bx	r3
 8001520:	681a      	ldr	r2, [r3, #0]
 8001522:	05d2      	lsls	r2, r2, #23
 8001524:	bf5e      	ittt	pl
 8001526:	681a      	ldrpl	r2, [r3, #0]
 8001528:	f022 0208 	bicpl.w	r2, r2, #8
 800152c:	601a      	strpl	r2, [r3, #0]
 800152e:	e7c2      	b.n	80014b6 <HAL_DMA_IRQHandler+0x86>
 8001530:	0350      	lsls	r0, r2, #13
 8001532:	d527      	bpl.n	8001584 <HAL_DMA_IRQHandler+0x154>
 8001534:	681b      	ldr	r3, [r3, #0]
 8001536:	0319      	lsls	r1, r3, #12
 8001538:	d431      	bmi.n	800159e <HAL_DMA_IRQHandler+0x16e>
 800153a:	6c63      	ldr	r3, [r4, #68]	; 0x44
 800153c:	b10b      	cbz	r3, 8001542 <HAL_DMA_IRQHandler+0x112>
 800153e:	4620      	mov	r0, r4
 8001540:	4798      	blx	r3
 8001542:	6d63      	ldr	r3, [r4, #84]	; 0x54
 8001544:	b36b      	cbz	r3, 80015a2 <HAL_DMA_IRQHandler+0x172>
 8001546:	6d63      	ldr	r3, [r4, #84]	; 0x54
 8001548:	07da      	lsls	r2, r3, #31
 800154a:	d519      	bpl.n	8001580 <HAL_DMA_IRQHandler+0x150>
 800154c:	6822      	ldr	r2, [r4, #0]
 800154e:	f44f 5316 	mov.w	r3, #9600	; 0x2580
 8001552:	fbb7 f7f3 	udiv	r7, r7, r3
 8001556:	2305      	movs	r3, #5
 8001558:	f884 3035 	strb.w	r3, [r4, #53]	; 0x35
 800155c:	6813      	ldr	r3, [r2, #0]
 800155e:	f023 0301 	bic.w	r3, r3, #1
 8001562:	6013      	str	r3, [r2, #0]
 8001564:	9b01      	ldr	r3, [sp, #4]
 8001566:	3301      	adds	r3, #1
 8001568:	42bb      	cmp	r3, r7
 800156a:	9301      	str	r3, [sp, #4]
 800156c:	d802      	bhi.n	8001574 <HAL_DMA_IRQHandler+0x144>
 800156e:	6813      	ldr	r3, [r2, #0]
 8001570:	07db      	lsls	r3, r3, #31
 8001572:	d4f7      	bmi.n	8001564 <HAL_DMA_IRQHandler+0x134>
 8001574:	2300      	movs	r3, #0
 8001576:	f884 3034 	strb.w	r3, [r4, #52]	; 0x34
 800157a:	2301      	movs	r3, #1
 800157c:	f884 3035 	strb.w	r3, [r4, #53]	; 0x35
 8001580:	6ce3      	ldr	r3, [r4, #76]	; 0x4c
 8001582:	e7c6      	b.n	8001512 <HAL_DMA_IRQHandler+0xe2>
 8001584:	681a      	ldr	r2, [r3, #0]
 8001586:	f412 7280 	ands.w	r2, r2, #256	; 0x100
 800158a:	d108      	bne.n	800159e <HAL_DMA_IRQHandler+0x16e>
 800158c:	6819      	ldr	r1, [r3, #0]
 800158e:	f021 0110 	bic.w	r1, r1, #16
 8001592:	6019      	str	r1, [r3, #0]
 8001594:	2301      	movs	r3, #1
 8001596:	f884 2034 	strb.w	r2, [r4, #52]	; 0x34
 800159a:	f884 3035 	strb.w	r3, [r4, #53]	; 0x35
 800159e:	6be3      	ldr	r3, [r4, #60]	; 0x3c
 80015a0:	e7cc      	b.n	800153c <HAL_DMA_IRQHandler+0x10c>
 80015a2:	b003      	add	sp, #12
 80015a4:	bdf0      	pop	{r4, r5, r6, r7, pc}
 80015a6:	bf00      	nop
 80015a8:	20000020 	.word	0x20000020

080015ac <HAL_GPIO_Init>:
 80015ac:	e92d 4ff7 	stmdb	sp!, {r0, r1, r2, r4, r5, r6, r7, r8, r9, sl, fp, lr}
 80015b0:	f8df 91a8 	ldr.w	r9, [pc, #424]	; 800175c <HAL_GPIO_Init+0x1b0>
 80015b4:	4a67      	ldr	r2, [pc, #412]	; (8001754 <HAL_GPIO_Init+0x1a8>)
 80015b6:	2300      	movs	r3, #0
 80015b8:	680d      	ldr	r5, [r1, #0]
 80015ba:	2401      	movs	r4, #1
 80015bc:	409c      	lsls	r4, r3
 80015be:	ea04 0c05 	and.w	ip, r4, r5
 80015c2:	43ac      	bics	r4, r5
 80015c4:	f040 80b0 	bne.w	8001728 <HAL_GPIO_Init+0x17c>
 80015c8:	684d      	ldr	r5, [r1, #4]
 80015ca:	f005 0403 	and.w	r4, r5, #3
 80015ce:	ea4f 0843 	mov.w	r8, r3, lsl #1
 80015d2:	2603      	movs	r6, #3
 80015d4:	1e67      	subs	r7, r4, #1
 80015d6:	fa06 f608 	lsl.w	r6, r6, r8
 80015da:	2f01      	cmp	r7, #1
 80015dc:	ea6f 0606 	mvn.w	r6, r6
 80015e0:	d834      	bhi.n	800164c <HAL_GPIO_Init+0xa0>
 80015e2:	6887      	ldr	r7, [r0, #8]
 80015e4:	ea07 0e06 	and.w	lr, r7, r6
 80015e8:	68cf      	ldr	r7, [r1, #12]
 80015ea:	fa07 f708 	lsl.w	r7, r7, r8
 80015ee:	ea47 070e 	orr.w	r7, r7, lr
 80015f2:	6087      	str	r7, [r0, #8]
 80015f4:	6847      	ldr	r7, [r0, #4]
 80015f6:	ea27 0e0c 	bic.w	lr, r7, ip
 80015fa:	f3c5 1700 	ubfx	r7, r5, #4, #1
 80015fe:	409f      	lsls	r7, r3
 8001600:	ea47 070e 	orr.w	r7, r7, lr
 8001604:	6047      	str	r7, [r0, #4]
 8001606:	68c7      	ldr	r7, [r0, #12]
 8001608:	ea07 0e06 	and.w	lr, r7, r6
 800160c:	688f      	ldr	r7, [r1, #8]
 800160e:	fa07 f708 	lsl.w	r7, r7, r8
 8001612:	ea47 070e 	orr.w	r7, r7, lr
 8001616:	2c02      	cmp	r4, #2
 8001618:	60c7      	str	r7, [r0, #12]
 800161a:	d119      	bne.n	8001650 <HAL_GPIO_Init+0xa4>
 800161c:	ea4f 0ad3 	mov.w	sl, r3, lsr #3
 8001620:	eb00 0a8a 	add.w	sl, r0, sl, lsl #2
 8001624:	f003 0b07 	and.w	fp, r3, #7
 8001628:	f8da 7020 	ldr.w	r7, [sl, #32]
 800162c:	ea4f 0b8b 	mov.w	fp, fp, lsl #2
 8001630:	f04f 0e0f 	mov.w	lr, #15
 8001634:	fa0e fe0b 	lsl.w	lr, lr, fp
 8001638:	ea27 0e0e 	bic.w	lr, r7, lr
 800163c:	690f      	ldr	r7, [r1, #16]
 800163e:	fa07 f70b 	lsl.w	r7, r7, fp
 8001642:	ea47 070e 	orr.w	r7, r7, lr
 8001646:	f8ca 7020 	str.w	r7, [sl, #32]
 800164a:	e001      	b.n	8001650 <HAL_GPIO_Init+0xa4>
 800164c:	2c03      	cmp	r4, #3
 800164e:	d1da      	bne.n	8001606 <HAL_GPIO_Init+0x5a>
 8001650:	6807      	ldr	r7, [r0, #0]
 8001652:	fa04 f408 	lsl.w	r4, r4, r8
 8001656:	403e      	ands	r6, r7
 8001658:	4326      	orrs	r6, r4
 800165a:	00ec      	lsls	r4, r5, #3
 800165c:	6006      	str	r6, [r0, #0]
 800165e:	d563      	bpl.n	8001728 <HAL_GPIO_Init+0x17c>
 8001660:	f04f 0a00 	mov.w	sl, #0
 8001664:	f8cd a004 	str.w	sl, [sp, #4]
 8001668:	f8d9 6044 	ldr.w	r6, [r9, #68]	; 0x44
 800166c:	4c3a      	ldr	r4, [pc, #232]	; (8001758 <HAL_GPIO_Init+0x1ac>)
 800166e:	f446 4680 	orr.w	r6, r6, #16384	; 0x4000
 8001672:	f8c9 6044 	str.w	r6, [r9, #68]	; 0x44
 8001676:	f8d9 6044 	ldr.w	r6, [r9, #68]	; 0x44
 800167a:	f406 4680 	and.w	r6, r6, #16384	; 0x4000
 800167e:	9601      	str	r6, [sp, #4]
 8001680:	9e01      	ldr	r6, [sp, #4]
 8001682:	f023 0603 	bic.w	r6, r3, #3
 8001686:	f106 4680 	add.w	r6, r6, #1073741824	; 0x40000000
 800168a:	f506 369c 	add.w	r6, r6, #79872	; 0x13800
 800168e:	f003 0e03 	and.w	lr, r3, #3
 8001692:	f8d6 8008 	ldr.w	r8, [r6, #8]
 8001696:	ea4f 0e8e 	mov.w	lr, lr, lsl #2
 800169a:	270f      	movs	r7, #15
 800169c:	fa07 f70e 	lsl.w	r7, r7, lr
 80016a0:	42a0      	cmp	r0, r4
 80016a2:	ea28 0707 	bic.w	r7, r8, r7
 80016a6:	d046      	beq.n	8001736 <HAL_GPIO_Init+0x18a>
 80016a8:	f504 6480 	add.w	r4, r4, #1024	; 0x400
 80016ac:	42a0      	cmp	r0, r4
 80016ae:	d044      	beq.n	800173a <HAL_GPIO_Init+0x18e>
 80016b0:	f504 6480 	add.w	r4, r4, #1024	; 0x400
 80016b4:	42a0      	cmp	r0, r4
 80016b6:	d042      	beq.n	800173e <HAL_GPIO_Init+0x192>
 80016b8:	f504 6480 	add.w	r4, r4, #1024	; 0x400
 80016bc:	42a0      	cmp	r0, r4
 80016be:	d040      	beq.n	8001742 <HAL_GPIO_Init+0x196>
 80016c0:	f504 6480 	add.w	r4, r4, #1024	; 0x400
 80016c4:	42a0      	cmp	r0, r4
 80016c6:	d03e      	beq.n	8001746 <HAL_GPIO_Init+0x19a>
 80016c8:	f504 6480 	add.w	r4, r4, #1024	; 0x400
 80016cc:	42a0      	cmp	r0, r4
 80016ce:	d03c      	beq.n	800174a <HAL_GPIO_Init+0x19e>
 80016d0:	f504 6480 	add.w	r4, r4, #1024	; 0x400
 80016d4:	42a0      	cmp	r0, r4
 80016d6:	d03a      	beq.n	800174e <HAL_GPIO_Init+0x1a2>
 80016d8:	f504 6480 	add.w	r4, r4, #1024	; 0x400
 80016dc:	42a0      	cmp	r0, r4
 80016de:	bf0c      	ite	eq
 80016e0:	2407      	moveq	r4, #7
 80016e2:	2408      	movne	r4, #8
 80016e4:	fa04 f40e 	lsl.w	r4, r4, lr
 80016e8:	433c      	orrs	r4, r7
 80016ea:	60b4      	str	r4, [r6, #8]
 80016ec:	6814      	ldr	r4, [r2, #0]
 80016ee:	ea6f 060c 	mvn.w	r6, ip
 80016f2:	03ef      	lsls	r7, r5, #15
 80016f4:	bf54      	ite	pl
 80016f6:	4034      	andpl	r4, r6
 80016f8:	ea4c 0404 	orrmi.w	r4, ip, r4
 80016fc:	6014      	str	r4, [r2, #0]
 80016fe:	6854      	ldr	r4, [r2, #4]
 8001700:	03af      	lsls	r7, r5, #14
 8001702:	bf54      	ite	pl
 8001704:	4034      	andpl	r4, r6
 8001706:	ea4c 0404 	orrmi.w	r4, ip, r4
 800170a:	6054      	str	r4, [r2, #4]
 800170c:	6894      	ldr	r4, [r2, #8]
 800170e:	02ef      	lsls	r7, r5, #11
 8001710:	bf54      	ite	pl
 8001712:	4034      	andpl	r4, r6
 8001714:	ea4c 0404 	orrmi.w	r4, ip, r4
 8001718:	6094      	str	r4, [r2, #8]
 800171a:	68d4      	ldr	r4, [r2, #12]
 800171c:	02ad      	lsls	r5, r5, #10
 800171e:	bf54      	ite	pl
 8001720:	4034      	andpl	r4, r6
 8001722:	ea4c 0404 	orrmi.w	r4, ip, r4
 8001726:	60d4      	str	r4, [r2, #12]
 8001728:	3301      	adds	r3, #1
 800172a:	2b10      	cmp	r3, #16
 800172c:	f47f af44 	bne.w	80015b8 <HAL_GPIO_Init+0xc>
 8001730:	b003      	add	sp, #12
 8001732:	e8bd 8ff0 	ldmia.w	sp!, {r4, r5, r6, r7, r8, r9, sl, fp, pc}
 8001736:	4654      	mov	r4, sl
 8001738:	e7d4      	b.n	80016e4 <HAL_GPIO_Init+0x138>
 800173a:	2401      	movs	r4, #1
 800173c:	e7d2      	b.n	80016e4 <HAL_GPIO_Init+0x138>
 800173e:	2402      	movs	r4, #2
 8001740:	e7d0      	b.n	80016e4 <HAL_GPIO_Init+0x138>
 8001742:	2403      	movs	r4, #3
 8001744:	e7ce      	b.n	80016e4 <HAL_GPIO_Init+0x138>
 8001746:	2404      	movs	r4, #4
 8001748:	e7cc      	b.n	80016e4 <HAL_GPIO_Init+0x138>
 800174a:	2405      	movs	r4, #5
 800174c:	e7ca      	b.n	80016e4 <HAL_GPIO_Init+0x138>
 800174e:	2406      	movs	r4, #6
 8001750:	e7c8      	b.n	80016e4 <HAL_GPIO_Init+0x138>
 8001752:	bf00      	nop
 8001754:	40013c00 	.word	0x40013c00
 8001758:	40020000 	.word	0x40020000
 800175c:	40023800 	.word	0x40023800

08001760 <HAL_GPIO_WritePin>:
 8001760:	b10a      	cbz	r2, 8001766 <HAL_GPIO_WritePin+0x6>
 8001762:	6181      	str	r1, [r0, #24]
 8001764:	4770      	bx	lr
 8001766:	0409      	lsls	r1, r1, #16
 8001768:	e7fb      	b.n	8001762 <HAL_GPIO_WritePin+0x2>
	...

0800176c <HAL_RCC_OscConfig>:
 800176c:	e92d 41f3 	stmdb	sp!, {r0, r1, r4, r5, r6, r7, r8, lr}
 8001770:	4604      	mov	r4, r0
 8001772:	b340      	cbz	r0, 80017c6 <HAL_RCC_OscConfig+0x5a>
 8001774:	6803      	ldr	r3, [r0, #0]
 8001776:	07dd      	lsls	r5, r3, #31
 8001778:	d410      	bmi.n	800179c <HAL_RCC_OscConfig+0x30>
 800177a:	6823      	ldr	r3, [r4, #0]
 800177c:	0798      	lsls	r0, r3, #30
 800177e:	d45e      	bmi.n	800183e <HAL_RCC_OscConfig+0xd2>
 8001780:	6823      	ldr	r3, [r4, #0]
 8001782:	071a      	lsls	r2, r3, #28
 8001784:	f100 80a0 	bmi.w	80018c8 <HAL_RCC_OscConfig+0x15c>
 8001788:	6823      	ldr	r3, [r4, #0]
 800178a:	075b      	lsls	r3, r3, #29
 800178c:	f100 80be 	bmi.w	800190c <HAL_RCC_OscConfig+0x1a0>
 8001790:	69a0      	ldr	r0, [r4, #24]
 8001792:	2800      	cmp	r0, #0
 8001794:	f040 811f 	bne.w	80019d6 <HAL_RCC_OscConfig+0x26a>
 8001798:	2000      	movs	r0, #0
 800179a:	e02b      	b.n	80017f4 <HAL_RCC_OscConfig+0x88>
 800179c:	4ba6      	ldr	r3, [pc, #664]	; (8001a38 <HAL_RCC_OscConfig+0x2cc>)
 800179e:	689a      	ldr	r2, [r3, #8]
 80017a0:	f002 020c 	and.w	r2, r2, #12
 80017a4:	2a04      	cmp	r2, #4
 80017a6:	d007      	beq.n	80017b8 <HAL_RCC_OscConfig+0x4c>
 80017a8:	689a      	ldr	r2, [r3, #8]
 80017aa:	f002 020c 	and.w	r2, r2, #12
 80017ae:	2a08      	cmp	r2, #8
 80017b0:	d10b      	bne.n	80017ca <HAL_RCC_OscConfig+0x5e>
 80017b2:	685a      	ldr	r2, [r3, #4]
 80017b4:	0251      	lsls	r1, r2, #9
 80017b6:	d508      	bpl.n	80017ca <HAL_RCC_OscConfig+0x5e>
 80017b8:	4b9f      	ldr	r3, [pc, #636]	; (8001a38 <HAL_RCC_OscConfig+0x2cc>)
 80017ba:	681b      	ldr	r3, [r3, #0]
 80017bc:	039a      	lsls	r2, r3, #14
 80017be:	d5dc      	bpl.n	800177a <HAL_RCC_OscConfig+0xe>
 80017c0:	6863      	ldr	r3, [r4, #4]
 80017c2:	2b00      	cmp	r3, #0
 80017c4:	d1d9      	bne.n	800177a <HAL_RCC_OscConfig+0xe>
 80017c6:	2001      	movs	r0, #1
 80017c8:	e014      	b.n	80017f4 <HAL_RCC_OscConfig+0x88>
 80017ca:	6862      	ldr	r2, [r4, #4]
 80017cc:	f5b2 3f80 	cmp.w	r2, #65536	; 0x10000
 80017d0:	d113      	bne.n	80017fa <HAL_RCC_OscConfig+0x8e>
 80017d2:	681a      	ldr	r2, [r3, #0]
 80017d4:	f442 3280 	orr.w	r2, r2, #65536	; 0x10000
 80017d8:	601a      	str	r2, [r3, #0]
 80017da:	f7ff fc95 	bl	8001108 <HAL_GetTick>
 80017de:	4e96      	ldr	r6, [pc, #600]	; (8001a38 <HAL_RCC_OscConfig+0x2cc>)
 80017e0:	4605      	mov	r5, r0
 80017e2:	6833      	ldr	r3, [r6, #0]
 80017e4:	039b      	lsls	r3, r3, #14
 80017e6:	d4c8      	bmi.n	800177a <HAL_RCC_OscConfig+0xe>
 80017e8:	f7ff fc8e 	bl	8001108 <HAL_GetTick>
 80017ec:	1b40      	subs	r0, r0, r5
 80017ee:	2864      	cmp	r0, #100	; 0x64
 80017f0:	d9f7      	bls.n	80017e2 <HAL_RCC_OscConfig+0x76>
 80017f2:	2003      	movs	r0, #3
 80017f4:	b002      	add	sp, #8
 80017f6:	e8bd 81f0 	ldmia.w	sp!, {r4, r5, r6, r7, r8, pc}
 80017fa:	4d8f      	ldr	r5, [pc, #572]	; (8001a38 <HAL_RCC_OscConfig+0x2cc>)
 80017fc:	f5b2 2fa0 	cmp.w	r2, #327680	; 0x50000
 8001800:	682b      	ldr	r3, [r5, #0]
 8001802:	d107      	bne.n	8001814 <HAL_RCC_OscConfig+0xa8>
 8001804:	f443 2380 	orr.w	r3, r3, #262144	; 0x40000
 8001808:	602b      	str	r3, [r5, #0]
 800180a:	682b      	ldr	r3, [r5, #0]
 800180c:	f443 3380 	orr.w	r3, r3, #65536	; 0x10000
 8001810:	602b      	str	r3, [r5, #0]
 8001812:	e7e2      	b.n	80017da <HAL_RCC_OscConfig+0x6e>
 8001814:	f423 3380 	bic.w	r3, r3, #65536	; 0x10000
 8001818:	602b      	str	r3, [r5, #0]
 800181a:	682b      	ldr	r3, [r5, #0]
 800181c:	f423 2380 	bic.w	r3, r3, #262144	; 0x40000
 8001820:	602b      	str	r3, [r5, #0]
 8001822:	2a00      	cmp	r2, #0
 8001824:	d1d9      	bne.n	80017da <HAL_RCC_OscConfig+0x6e>
 8001826:	f7ff fc6f 	bl	8001108 <HAL_GetTick>
 800182a:	4606      	mov	r6, r0
 800182c:	682b      	ldr	r3, [r5, #0]
 800182e:	039f      	lsls	r7, r3, #14
 8001830:	d5a3      	bpl.n	800177a <HAL_RCC_OscConfig+0xe>
 8001832:	f7ff fc69 	bl	8001108 <HAL_GetTick>
 8001836:	1b80      	subs	r0, r0, r6
 8001838:	2864      	cmp	r0, #100	; 0x64
 800183a:	d9f7      	bls.n	800182c <HAL_RCC_OscConfig+0xc0>
 800183c:	e7d9      	b.n	80017f2 <HAL_RCC_OscConfig+0x86>
 800183e:	4b7e      	ldr	r3, [pc, #504]	; (8001a38 <HAL_RCC_OscConfig+0x2cc>)
 8001840:	689a      	ldr	r2, [r3, #8]
 8001842:	f012 0f0c 	tst.w	r2, #12
 8001846:	d007      	beq.n	8001858 <HAL_RCC_OscConfig+0xec>
 8001848:	689a      	ldr	r2, [r3, #8]
 800184a:	f002 020c 	and.w	r2, r2, #12
 800184e:	2a08      	cmp	r2, #8
 8001850:	d111      	bne.n	8001876 <HAL_RCC_OscConfig+0x10a>
 8001852:	685b      	ldr	r3, [r3, #4]
 8001854:	025e      	lsls	r6, r3, #9
 8001856:	d40e      	bmi.n	8001876 <HAL_RCC_OscConfig+0x10a>
 8001858:	4b77      	ldr	r3, [pc, #476]	; (8001a38 <HAL_RCC_OscConfig+0x2cc>)
 800185a:	681a      	ldr	r2, [r3, #0]
 800185c:	0795      	lsls	r5, r2, #30
 800185e:	d502      	bpl.n	8001866 <HAL_RCC_OscConfig+0xfa>
 8001860:	68e2      	ldr	r2, [r4, #12]
 8001862:	2a01      	cmp	r2, #1
 8001864:	d1af      	bne.n	80017c6 <HAL_RCC_OscConfig+0x5a>
 8001866:	681a      	ldr	r2, [r3, #0]
 8001868:	6921      	ldr	r1, [r4, #16]
 800186a:	f022 02f8 	bic.w	r2, r2, #248	; 0xf8
 800186e:	ea42 02c1 	orr.w	r2, r2, r1, lsl #3
 8001872:	601a      	str	r2, [r3, #0]
 8001874:	e784      	b.n	8001780 <HAL_RCC_OscConfig+0x14>
 8001876:	68e2      	ldr	r2, [r4, #12]
 8001878:	4b70      	ldr	r3, [pc, #448]	; (8001a3c <HAL_RCC_OscConfig+0x2d0>)
 800187a:	b1b2      	cbz	r2, 80018aa <HAL_RCC_OscConfig+0x13e>
 800187c:	2201      	movs	r2, #1
 800187e:	601a      	str	r2, [r3, #0]
 8001880:	f7ff fc42 	bl	8001108 <HAL_GetTick>
 8001884:	4d6c      	ldr	r5, [pc, #432]	; (8001a38 <HAL_RCC_OscConfig+0x2cc>)
 8001886:	4606      	mov	r6, r0
 8001888:	682b      	ldr	r3, [r5, #0]
 800188a:	0798      	lsls	r0, r3, #30
 800188c:	d507      	bpl.n	800189e <HAL_RCC_OscConfig+0x132>
 800188e:	682b      	ldr	r3, [r5, #0]
 8001890:	6922      	ldr	r2, [r4, #16]
 8001892:	f023 03f8 	bic.w	r3, r3, #248	; 0xf8
 8001896:	ea43 03c2 	orr.w	r3, r3, r2, lsl #3
 800189a:	602b      	str	r3, [r5, #0]
 800189c:	e770      	b.n	8001780 <HAL_RCC_OscConfig+0x14>
 800189e:	f7ff fc33 	bl	8001108 <HAL_GetTick>
 80018a2:	1b80      	subs	r0, r0, r6
 80018a4:	2802      	cmp	r0, #2
 80018a6:	d9ef      	bls.n	8001888 <HAL_RCC_OscConfig+0x11c>
 80018a8:	e7a3      	b.n	80017f2 <HAL_RCC_OscConfig+0x86>
 80018aa:	601a      	str	r2, [r3, #0]
 80018ac:	f7ff fc2c 	bl	8001108 <HAL_GetTick>
 80018b0:	4e61      	ldr	r6, [pc, #388]	; (8001a38 <HAL_RCC_OscConfig+0x2cc>)
 80018b2:	4605      	mov	r5, r0
 80018b4:	6833      	ldr	r3, [r6, #0]
 80018b6:	0799      	lsls	r1, r3, #30
 80018b8:	f57f af62 	bpl.w	8001780 <HAL_RCC_OscConfig+0x14>
 80018bc:	f7ff fc24 	bl	8001108 <HAL_GetTick>
 80018c0:	1b40      	subs	r0, r0, r5
 80018c2:	2802      	cmp	r0, #2
 80018c4:	d9f6      	bls.n	80018b4 <HAL_RCC_OscConfig+0x148>
 80018c6:	e794      	b.n	80017f2 <HAL_RCC_OscConfig+0x86>
 80018c8:	6962      	ldr	r2, [r4, #20]
 80018ca:	4b5d      	ldr	r3, [pc, #372]	; (8001a40 <HAL_RCC_OscConfig+0x2d4>)
 80018cc:	b17a      	cbz	r2, 80018ee <HAL_RCC_OscConfig+0x182>
 80018ce:	2201      	movs	r2, #1
 80018d0:	601a      	str	r2, [r3, #0]
 80018d2:	f7ff fc19 	bl	8001108 <HAL_GetTick>
 80018d6:	4e58      	ldr	r6, [pc, #352]	; (8001a38 <HAL_RCC_OscConfig+0x2cc>)
 80018d8:	4605      	mov	r5, r0
 80018da:	6f73      	ldr	r3, [r6, #116]	; 0x74
 80018dc:	079f      	lsls	r7, r3, #30
 80018de:	f53f af53 	bmi.w	8001788 <HAL_RCC_OscConfig+0x1c>
 80018e2:	f7ff fc11 	bl	8001108 <HAL_GetTick>
 80018e6:	1b40      	subs	r0, r0, r5
 80018e8:	2802      	cmp	r0, #2
 80018ea:	d9f6      	bls.n	80018da <HAL_RCC_OscConfig+0x16e>
 80018ec:	e781      	b.n	80017f2 <HAL_RCC_OscConfig+0x86>
 80018ee:	601a      	str	r2, [r3, #0]
 80018f0:	f7ff fc0a 	bl	8001108 <HAL_GetTick>
 80018f4:	4e50      	ldr	r6, [pc, #320]	; (8001a38 <HAL_RCC_OscConfig+0x2cc>)
 80018f6:	4605      	mov	r5, r0
 80018f8:	6f73      	ldr	r3, [r6, #116]	; 0x74
 80018fa:	0798      	lsls	r0, r3, #30
 80018fc:	f57f af44 	bpl.w	8001788 <HAL_RCC_OscConfig+0x1c>
 8001900:	f7ff fc02 	bl	8001108 <HAL_GetTick>
 8001904:	1b40      	subs	r0, r0, r5
 8001906:	2802      	cmp	r0, #2
 8001908:	d9f6      	bls.n	80018f8 <HAL_RCC_OscConfig+0x18c>
 800190a:	e772      	b.n	80017f2 <HAL_RCC_OscConfig+0x86>
 800190c:	4b4a      	ldr	r3, [pc, #296]	; (8001a38 <HAL_RCC_OscConfig+0x2cc>)
 800190e:	6c1a      	ldr	r2, [r3, #64]	; 0x40
 8001910:	f012 5280 	ands.w	r2, r2, #268435456	; 0x10000000
 8001914:	d128      	bne.n	8001968 <HAL_RCC_OscConfig+0x1fc>
 8001916:	9201      	str	r2, [sp, #4]
 8001918:	6c1a      	ldr	r2, [r3, #64]	; 0x40
 800191a:	f042 5280 	orr.w	r2, r2, #268435456	; 0x10000000
 800191e:	641a      	str	r2, [r3, #64]	; 0x40
 8001920:	6c1b      	ldr	r3, [r3, #64]	; 0x40
 8001922:	f003 5380 	and.w	r3, r3, #268435456	; 0x10000000
 8001926:	9301      	str	r3, [sp, #4]
 8001928:	9b01      	ldr	r3, [sp, #4]
 800192a:	2701      	movs	r7, #1
 800192c:	4d45      	ldr	r5, [pc, #276]	; (8001a44 <HAL_RCC_OscConfig+0x2d8>)
 800192e:	682b      	ldr	r3, [r5, #0]
 8001930:	05d9      	lsls	r1, r3, #23
 8001932:	d51b      	bpl.n	800196c <HAL_RCC_OscConfig+0x200>
 8001934:	68a3      	ldr	r3, [r4, #8]
 8001936:	4d40      	ldr	r5, [pc, #256]	; (8001a38 <HAL_RCC_OscConfig+0x2cc>)
 8001938:	2b01      	cmp	r3, #1
 800193a:	d127      	bne.n	800198c <HAL_RCC_OscConfig+0x220>
 800193c:	6f2b      	ldr	r3, [r5, #112]	; 0x70
 800193e:	f043 0301 	orr.w	r3, r3, #1
 8001942:	672b      	str	r3, [r5, #112]	; 0x70
 8001944:	f7ff fbe0 	bl	8001108 <HAL_GetTick>
 8001948:	4e3b      	ldr	r6, [pc, #236]	; (8001a38 <HAL_RCC_OscConfig+0x2cc>)
 800194a:	4605      	mov	r5, r0
 800194c:	f241 3888 	movw	r8, #5000	; 0x1388
 8001950:	6f33      	ldr	r3, [r6, #112]	; 0x70
 8001952:	079b      	lsls	r3, r3, #30
 8001954:	d539      	bpl.n	80019ca <HAL_RCC_OscConfig+0x25e>
 8001956:	2f00      	cmp	r7, #0
 8001958:	f43f af1a 	beq.w	8001790 <HAL_RCC_OscConfig+0x24>
 800195c:	4a36      	ldr	r2, [pc, #216]	; (8001a38 <HAL_RCC_OscConfig+0x2cc>)
 800195e:	6c13      	ldr	r3, [r2, #64]	; 0x40
 8001960:	f023 5380 	bic.w	r3, r3, #268435456	; 0x10000000
 8001964:	6413      	str	r3, [r2, #64]	; 0x40
 8001966:	e713      	b.n	8001790 <HAL_RCC_OscConfig+0x24>
 8001968:	2700      	movs	r7, #0
 800196a:	e7df      	b.n	800192c <HAL_RCC_OscConfig+0x1c0>
 800196c:	682b      	ldr	r3, [r5, #0]
 800196e:	f443 7380 	orr.w	r3, r3, #256	; 0x100
 8001972:	602b      	str	r3, [r5, #0]
 8001974:	f7ff fbc8 	bl	8001108 <HAL_GetTick>
 8001978:	4606      	mov	r6, r0
 800197a:	682b      	ldr	r3, [r5, #0]
 800197c:	05da      	lsls	r2, r3, #23
 800197e:	d4d9      	bmi.n	8001934 <HAL_RCC_OscConfig+0x1c8>
 8001980:	f7ff fbc2 	bl	8001108 <HAL_GetTick>
 8001984:	1b80      	subs	r0, r0, r6
 8001986:	2802      	cmp	r0, #2
 8001988:	d9f7      	bls.n	800197a <HAL_RCC_OscConfig+0x20e>
 800198a:	e732      	b.n	80017f2 <HAL_RCC_OscConfig+0x86>
 800198c:	2b05      	cmp	r3, #5
 800198e:	d104      	bne.n	800199a <HAL_RCC_OscConfig+0x22e>
 8001990:	6f2b      	ldr	r3, [r5, #112]	; 0x70
 8001992:	f043 0304 	orr.w	r3, r3, #4
 8001996:	672b      	str	r3, [r5, #112]	; 0x70
 8001998:	e7d0      	b.n	800193c <HAL_RCC_OscConfig+0x1d0>
 800199a:	6f2a      	ldr	r2, [r5, #112]	; 0x70
 800199c:	f022 0201 	bic.w	r2, r2, #1
 80019a0:	672a      	str	r2, [r5, #112]	; 0x70
 80019a2:	6f2a      	ldr	r2, [r5, #112]	; 0x70
 80019a4:	f022 0204 	bic.w	r2, r2, #4
 80019a8:	672a      	str	r2, [r5, #112]	; 0x70
 80019aa:	2b00      	cmp	r3, #0
 80019ac:	d1ca      	bne.n	8001944 <HAL_RCC_OscConfig+0x1d8>
 80019ae:	f7ff fbab 	bl	8001108 <HAL_GetTick>
 80019b2:	f241 3888 	movw	r8, #5000	; 0x1388
 80019b6:	4606      	mov	r6, r0
 80019b8:	6f2b      	ldr	r3, [r5, #112]	; 0x70
 80019ba:	0798      	lsls	r0, r3, #30
 80019bc:	d5cb      	bpl.n	8001956 <HAL_RCC_OscConfig+0x1ea>
 80019be:	f7ff fba3 	bl	8001108 <HAL_GetTick>
 80019c2:	1b80      	subs	r0, r0, r6
 80019c4:	4540      	cmp	r0, r8
 80019c6:	d9f7      	bls.n	80019b8 <HAL_RCC_OscConfig+0x24c>
 80019c8:	e713      	b.n	80017f2 <HAL_RCC_OscConfig+0x86>
 80019ca:	f7ff fb9d 	bl	8001108 <HAL_GetTick>
 80019ce:	1b40      	subs	r0, r0, r5
 80019d0:	4540      	cmp	r0, r8
 80019d2:	d9bd      	bls.n	8001950 <HAL_RCC_OscConfig+0x1e4>
 80019d4:	e70d      	b.n	80017f2 <HAL_RCC_OscConfig+0x86>
 80019d6:	4d18      	ldr	r5, [pc, #96]	; (8001a38 <HAL_RCC_OscConfig+0x2cc>)
 80019d8:	68ab      	ldr	r3, [r5, #8]
 80019da:	f003 030c 	and.w	r3, r3, #12
 80019de:	2b08      	cmp	r3, #8
 80019e0:	d047      	beq.n	8001a72 <HAL_RCC_OscConfig+0x306>
 80019e2:	4e19      	ldr	r6, [pc, #100]	; (8001a48 <HAL_RCC_OscConfig+0x2dc>)
 80019e4:	2300      	movs	r3, #0
 80019e6:	2802      	cmp	r0, #2
 80019e8:	6033      	str	r3, [r6, #0]
 80019ea:	d135      	bne.n	8001a58 <HAL_RCC_OscConfig+0x2ec>
 80019ec:	f7ff fb8c 	bl	8001108 <HAL_GetTick>
 80019f0:	4607      	mov	r7, r0
 80019f2:	682b      	ldr	r3, [r5, #0]
 80019f4:	0199      	lsls	r1, r3, #6
 80019f6:	d429      	bmi.n	8001a4c <HAL_RCC_OscConfig+0x2e0>
 80019f8:	e9d4 3207 	ldrd	r3, r2, [r4, #28]
 80019fc:	4313      	orrs	r3, r2
 80019fe:	6a62      	ldr	r2, [r4, #36]	; 0x24
 8001a00:	ea43 1382 	orr.w	r3, r3, r2, lsl #6
 8001a04:	6ae2      	ldr	r2, [r4, #44]	; 0x2c
 8001a06:	ea43 6302 	orr.w	r3, r3, r2, lsl #24
 8001a0a:	6aa2      	ldr	r2, [r4, #40]	; 0x28
 8001a0c:	0852      	lsrs	r2, r2, #1
 8001a0e:	3a01      	subs	r2, #1
 8001a10:	ea43 4302 	orr.w	r3, r3, r2, lsl #16
 8001a14:	606b      	str	r3, [r5, #4]
 8001a16:	2301      	movs	r3, #1
 8001a18:	6033      	str	r3, [r6, #0]
 8001a1a:	f7ff fb75 	bl	8001108 <HAL_GetTick>
 8001a1e:	4d06      	ldr	r5, [pc, #24]	; (8001a38 <HAL_RCC_OscConfig+0x2cc>)
 8001a20:	4604      	mov	r4, r0
 8001a22:	682b      	ldr	r3, [r5, #0]
 8001a24:	019a      	lsls	r2, r3, #6
 8001a26:	f53f aeb7 	bmi.w	8001798 <HAL_RCC_OscConfig+0x2c>
 8001a2a:	f7ff fb6d 	bl	8001108 <HAL_GetTick>
 8001a2e:	1b00      	subs	r0, r0, r4
 8001a30:	2802      	cmp	r0, #2
 8001a32:	d9f6      	bls.n	8001a22 <HAL_RCC_OscConfig+0x2b6>
 8001a34:	e6dd      	b.n	80017f2 <HAL_RCC_OscConfig+0x86>
 8001a36:	bf00      	nop
 8001a38:	40023800 	.word	0x40023800
 8001a3c:	42470000 	.word	0x42470000
 8001a40:	42470e80 	.word	0x42470e80
 8001a44:	40007000 	.word	0x40007000
 8001a48:	42470060 	.word	0x42470060
 8001a4c:	f7ff fb5c 	bl	8001108 <HAL_GetTick>
 8001a50:	1bc0      	subs	r0, r0, r7
 8001a52:	2802      	cmp	r0, #2
 8001a54:	d9cd      	bls.n	80019f2 <HAL_RCC_OscConfig+0x286>
 8001a56:	e6cc      	b.n	80017f2 <HAL_RCC_OscConfig+0x86>
 8001a58:	f7ff fb56 	bl	8001108 <HAL_GetTick>
 8001a5c:	4604      	mov	r4, r0
 8001a5e:	682b      	ldr	r3, [r5, #0]
 8001a60:	019b      	lsls	r3, r3, #6
 8001a62:	f57f ae99 	bpl.w	8001798 <HAL_RCC_OscConfig+0x2c>
 8001a66:	f7ff fb4f 	bl	8001108 <HAL_GetTick>
 8001a6a:	1b00      	subs	r0, r0, r4
 8001a6c:	2802      	cmp	r0, #2
 8001a6e:	d9f6      	bls.n	8001a5e <HAL_RCC_OscConfig+0x2f2>
 8001a70:	e6bf      	b.n	80017f2 <HAL_RCC_OscConfig+0x86>
 8001a72:	2801      	cmp	r0, #1
 8001a74:	f43f aebe 	beq.w	80017f4 <HAL_RCC_OscConfig+0x88>
 8001a78:	686b      	ldr	r3, [r5, #4]
 8001a7a:	69e2      	ldr	r2, [r4, #28]
 8001a7c:	f403 0180 	and.w	r1, r3, #4194304	; 0x400000
 8001a80:	4291      	cmp	r1, r2
 8001a82:	f47f aea0 	bne.w	80017c6 <HAL_RCC_OscConfig+0x5a>
 8001a86:	6a21      	ldr	r1, [r4, #32]
 8001a88:	f003 023f 	and.w	r2, r3, #63	; 0x3f
 8001a8c:	428a      	cmp	r2, r1
 8001a8e:	f47f ae9a 	bne.w	80017c6 <HAL_RCC_OscConfig+0x5a>
 8001a92:	6a61      	ldr	r1, [r4, #36]	; 0x24
 8001a94:	f647 72c0 	movw	r2, #32704	; 0x7fc0
 8001a98:	401a      	ands	r2, r3
 8001a9a:	ebb2 1f81 	cmp.w	r2, r1, lsl #6
 8001a9e:	f47f ae92 	bne.w	80017c6 <HAL_RCC_OscConfig+0x5a>
 8001aa2:	6aa2      	ldr	r2, [r4, #40]	; 0x28
 8001aa4:	0852      	lsrs	r2, r2, #1
 8001aa6:	f403 3140 	and.w	r1, r3, #196608	; 0x30000
 8001aaa:	3a01      	subs	r2, #1
 8001aac:	ebb1 4f02 	cmp.w	r1, r2, lsl #16
 8001ab0:	f47f ae89 	bne.w	80017c6 <HAL_RCC_OscConfig+0x5a>
 8001ab4:	6ae2      	ldr	r2, [r4, #44]	; 0x2c
 8001ab6:	f003 6370 	and.w	r3, r3, #251658240	; 0xf000000
 8001aba:	ebb3 6f02 	cmp.w	r3, r2, lsl #24
 8001abe:	f43f ae6b 	beq.w	8001798 <HAL_RCC_OscConfig+0x2c>
 8001ac2:	e680      	b.n	80017c6 <HAL_RCC_OscConfig+0x5a>

08001ac4 <HAL_RCC_GetSysClockFreq>:
 8001ac4:	4913      	ldr	r1, [pc, #76]	; (8001b14 <HAL_RCC_GetSysClockFreq+0x50>)
 8001ac6:	b508      	push	{r3, lr}
 8001ac8:	688b      	ldr	r3, [r1, #8]
 8001aca:	f003 030c 	and.w	r3, r3, #12
 8001ace:	2b04      	cmp	r3, #4
 8001ad0:	d01c      	beq.n	8001b0c <HAL_RCC_GetSysClockFreq+0x48>
 8001ad2:	2b08      	cmp	r3, #8
 8001ad4:	d11c      	bne.n	8001b10 <HAL_RCC_GetSysClockFreq+0x4c>
 8001ad6:	684a      	ldr	r2, [r1, #4]
 8001ad8:	684b      	ldr	r3, [r1, #4]
 8001ada:	6849      	ldr	r1, [r1, #4]
 8001adc:	f413 0380 	ands.w	r3, r3, #4194304	; 0x400000
 8001ae0:	bf14      	ite	ne
 8001ae2:	480d      	ldrne	r0, [pc, #52]	; (8001b18 <HAL_RCC_GetSysClockFreq+0x54>)
 8001ae4:	480d      	ldreq	r0, [pc, #52]	; (8001b1c <HAL_RCC_GetSysClockFreq+0x58>)
 8001ae6:	f3c1 1188 	ubfx	r1, r1, #6, #9
 8001aea:	bf18      	it	ne
 8001aec:	2300      	movne	r3, #0
 8001aee:	f002 023f 	and.w	r2, r2, #63	; 0x3f
 8001af2:	fba1 0100 	umull	r0, r1, r1, r0
 8001af6:	f7fe fbd3 	bl	80002a0 <__aeabi_uldivmod>
 8001afa:	4b06      	ldr	r3, [pc, #24]	; (8001b14 <HAL_RCC_GetSysClockFreq+0x50>)
 8001afc:	685b      	ldr	r3, [r3, #4]
 8001afe:	f3c3 4301 	ubfx	r3, r3, #16, #2
 8001b02:	3301      	adds	r3, #1
 8001b04:	005b      	lsls	r3, r3, #1
 8001b06:	fbb0 f0f3 	udiv	r0, r0, r3
 8001b0a:	bd08      	pop	{r3, pc}
 8001b0c:	4802      	ldr	r0, [pc, #8]	; (8001b18 <HAL_RCC_GetSysClockFreq+0x54>)
 8001b0e:	e7fc      	b.n	8001b0a <HAL_RCC_GetSysClockFreq+0x46>
 8001b10:	4802      	ldr	r0, [pc, #8]	; (8001b1c <HAL_RCC_GetSysClockFreq+0x58>)
 8001b12:	e7fa      	b.n	8001b0a <HAL_RCC_GetSysClockFreq+0x46>
 8001b14:	40023800 	.word	0x40023800
 8001b18:	007a1200 	.word	0x007a1200
 8001b1c:	00f42400 	.word	0x00f42400

08001b20 <HAL_RCC_ClockConfig>:
 8001b20:	e92d 41f0 	stmdb	sp!, {r4, r5, r6, r7, r8, lr}
 8001b24:	460d      	mov	r5, r1
 8001b26:	4604      	mov	r4, r0
 8001b28:	b910      	cbnz	r0, 8001b30 <HAL_RCC_ClockConfig+0x10>
 8001b2a:	2001      	movs	r0, #1
 8001b2c:	e8bd 81f0 	ldmia.w	sp!, {r4, r5, r6, r7, r8, pc}
 8001b30:	4b44      	ldr	r3, [pc, #272]	; (8001c44 <HAL_RCC_ClockConfig+0x124>)
 8001b32:	681a      	ldr	r2, [r3, #0]
 8001b34:	f002 0207 	and.w	r2, r2, #7
 8001b38:	428a      	cmp	r2, r1
 8001b3a:	d328      	bcc.n	8001b8e <HAL_RCC_ClockConfig+0x6e>
 8001b3c:	6822      	ldr	r2, [r4, #0]
 8001b3e:	0797      	lsls	r7, r2, #30
 8001b40:	d42d      	bmi.n	8001b9e <HAL_RCC_ClockConfig+0x7e>
 8001b42:	07d0      	lsls	r0, r2, #31
 8001b44:	d441      	bmi.n	8001bca <HAL_RCC_ClockConfig+0xaa>
 8001b46:	4b3f      	ldr	r3, [pc, #252]	; (8001c44 <HAL_RCC_ClockConfig+0x124>)
 8001b48:	681a      	ldr	r2, [r3, #0]
 8001b4a:	f002 0207 	and.w	r2, r2, #7
 8001b4e:	42aa      	cmp	r2, r5
 8001b50:	d866      	bhi.n	8001c20 <HAL_RCC_ClockConfig+0x100>
 8001b52:	6822      	ldr	r2, [r4, #0]
 8001b54:	0751      	lsls	r1, r2, #29
 8001b56:	d46c      	bmi.n	8001c32 <HAL_RCC_ClockConfig+0x112>
 8001b58:	0713      	lsls	r3, r2, #28
 8001b5a:	d507      	bpl.n	8001b6c <HAL_RCC_ClockConfig+0x4c>
 8001b5c:	4a3a      	ldr	r2, [pc, #232]	; (8001c48 <HAL_RCC_ClockConfig+0x128>)
 8001b5e:	6921      	ldr	r1, [r4, #16]
 8001b60:	6893      	ldr	r3, [r2, #8]
 8001b62:	f423 4360 	bic.w	r3, r3, #57344	; 0xe000
 8001b66:	ea43 03c1 	orr.w	r3, r3, r1, lsl #3
 8001b6a:	6093      	str	r3, [r2, #8]
 8001b6c:	f7ff ffaa 	bl	8001ac4 <HAL_RCC_GetSysClockFreq>
 8001b70:	4b35      	ldr	r3, [pc, #212]	; (8001c48 <HAL_RCC_ClockConfig+0x128>)
 8001b72:	4a36      	ldr	r2, [pc, #216]	; (8001c4c <HAL_RCC_ClockConfig+0x12c>)
 8001b74:	689b      	ldr	r3, [r3, #8]
 8001b76:	f3c3 1303 	ubfx	r3, r3, #4, #4
 8001b7a:	5cd3      	ldrb	r3, [r2, r3]
 8001b7c:	40d8      	lsrs	r0, r3
 8001b7e:	4b34      	ldr	r3, [pc, #208]	; (8001c50 <HAL_RCC_ClockConfig+0x130>)
 8001b80:	6018      	str	r0, [r3, #0]
 8001b82:	4b34      	ldr	r3, [pc, #208]	; (8001c54 <HAL_RCC_ClockConfig+0x134>)
 8001b84:	6818      	ldr	r0, [r3, #0]
 8001b86:	f7ff fa75 	bl	8001074 <HAL_InitTick>
 8001b8a:	2000      	movs	r0, #0
 8001b8c:	e7ce      	b.n	8001b2c <HAL_RCC_ClockConfig+0xc>
 8001b8e:	b2ca      	uxtb	r2, r1
 8001b90:	701a      	strb	r2, [r3, #0]
 8001b92:	681b      	ldr	r3, [r3, #0]
 8001b94:	f003 0307 	and.w	r3, r3, #7
 8001b98:	428b      	cmp	r3, r1
 8001b9a:	d1c6      	bne.n	8001b2a <HAL_RCC_ClockConfig+0xa>
 8001b9c:	e7ce      	b.n	8001b3c <HAL_RCC_ClockConfig+0x1c>
 8001b9e:	4b2a      	ldr	r3, [pc, #168]	; (8001c48 <HAL_RCC_ClockConfig+0x128>)
 8001ba0:	f012 0f04 	tst.w	r2, #4
 8001ba4:	bf1e      	ittt	ne
 8001ba6:	6899      	ldrne	r1, [r3, #8]
 8001ba8:	f441 51e0 	orrne.w	r1, r1, #7168	; 0x1c00
 8001bac:	6099      	strne	r1, [r3, #8]
 8001bae:	0716      	lsls	r6, r2, #28
 8001bb0:	bf42      	ittt	mi
 8001bb2:	6899      	ldrmi	r1, [r3, #8]
 8001bb4:	f441 4160 	orrmi.w	r1, r1, #57344	; 0xe000
 8001bb8:	6099      	strmi	r1, [r3, #8]
 8001bba:	4923      	ldr	r1, [pc, #140]	; (8001c48 <HAL_RCC_ClockConfig+0x128>)
 8001bbc:	68a0      	ldr	r0, [r4, #8]
 8001bbe:	688b      	ldr	r3, [r1, #8]
 8001bc0:	f023 03f0 	bic.w	r3, r3, #240	; 0xf0
 8001bc4:	4303      	orrs	r3, r0
 8001bc6:	608b      	str	r3, [r1, #8]
 8001bc8:	e7bb      	b.n	8001b42 <HAL_RCC_ClockConfig+0x22>
 8001bca:	6862      	ldr	r2, [r4, #4]
 8001bcc:	4b1e      	ldr	r3, [pc, #120]	; (8001c48 <HAL_RCC_ClockConfig+0x128>)
 8001bce:	2a01      	cmp	r2, #1
 8001bd0:	d11c      	bne.n	8001c0c <HAL_RCC_ClockConfig+0xec>
 8001bd2:	681b      	ldr	r3, [r3, #0]
 8001bd4:	f413 3f00 	tst.w	r3, #131072	; 0x20000
 8001bd8:	d0a7      	beq.n	8001b2a <HAL_RCC_ClockConfig+0xa>
 8001bda:	4e1b      	ldr	r6, [pc, #108]	; (8001c48 <HAL_RCC_ClockConfig+0x128>)
 8001bdc:	68b3      	ldr	r3, [r6, #8]
 8001bde:	f023 0303 	bic.w	r3, r3, #3
 8001be2:	4313      	orrs	r3, r2
 8001be4:	60b3      	str	r3, [r6, #8]
 8001be6:	f7ff fa8f 	bl	8001108 <HAL_GetTick>
 8001bea:	f241 3888 	movw	r8, #5000	; 0x1388
 8001bee:	4607      	mov	r7, r0
 8001bf0:	68b3      	ldr	r3, [r6, #8]
 8001bf2:	6862      	ldr	r2, [r4, #4]
 8001bf4:	f003 030c 	and.w	r3, r3, #12
 8001bf8:	ebb3 0f82 	cmp.w	r3, r2, lsl #2
 8001bfc:	d0a3      	beq.n	8001b46 <HAL_RCC_ClockConfig+0x26>
 8001bfe:	f7ff fa83 	bl	8001108 <HAL_GetTick>
 8001c02:	1bc0      	subs	r0, r0, r7
 8001c04:	4540      	cmp	r0, r8
 8001c06:	d9f3      	bls.n	8001bf0 <HAL_RCC_ClockConfig+0xd0>
 8001c08:	2003      	movs	r0, #3
 8001c0a:	e78f      	b.n	8001b2c <HAL_RCC_ClockConfig+0xc>
 8001c0c:	1e91      	subs	r1, r2, #2
 8001c0e:	2901      	cmp	r1, #1
 8001c10:	681b      	ldr	r3, [r3, #0]
 8001c12:	d802      	bhi.n	8001c1a <HAL_RCC_ClockConfig+0xfa>
 8001c14:	f013 7f00 	tst.w	r3, #33554432	; 0x2000000
 8001c18:	e7de      	b.n	8001bd8 <HAL_RCC_ClockConfig+0xb8>
 8001c1a:	f013 0f02 	tst.w	r3, #2
 8001c1e:	e7db      	b.n	8001bd8 <HAL_RCC_ClockConfig+0xb8>
 8001c20:	b2ea      	uxtb	r2, r5
 8001c22:	701a      	strb	r2, [r3, #0]
 8001c24:	681b      	ldr	r3, [r3, #0]
 8001c26:	f003 0307 	and.w	r3, r3, #7
 8001c2a:	42ab      	cmp	r3, r5
 8001c2c:	f47f af7d 	bne.w	8001b2a <HAL_RCC_ClockConfig+0xa>
 8001c30:	e78f      	b.n	8001b52 <HAL_RCC_ClockConfig+0x32>
 8001c32:	4905      	ldr	r1, [pc, #20]	; (8001c48 <HAL_RCC_ClockConfig+0x128>)
 8001c34:	68e0      	ldr	r0, [r4, #12]
 8001c36:	688b      	ldr	r3, [r1, #8]
 8001c38:	f423 53e0 	bic.w	r3, r3, #7168	; 0x1c00
 8001c3c:	4303      	orrs	r3, r0
 8001c3e:	608b      	str	r3, [r1, #8]
 8001c40:	e78a      	b.n	8001b58 <HAL_RCC_ClockConfig+0x38>
 8001c42:	bf00      	nop
 8001c44:	40023c00 	.word	0x40023c00
 8001c48:	40023800 	.word	0x40023800
 8001c4c:	080041ca 	.word	0x080041ca
 8001c50:	20000020 	.word	0x20000020
 8001c54:	20000028 	.word	0x20000028

08001c58 <HAL_RCC_GetPCLK1Freq>:
 8001c58:	4b04      	ldr	r3, [pc, #16]	; (8001c6c <HAL_RCC_GetPCLK1Freq+0x14>)
 8001c5a:	4a05      	ldr	r2, [pc, #20]	; (8001c70 <HAL_RCC_GetPCLK1Freq+0x18>)
 8001c5c:	689b      	ldr	r3, [r3, #8]
 8001c5e:	f3c3 2382 	ubfx	r3, r3, #10, #3
 8001c62:	5cd3      	ldrb	r3, [r2, r3]
 8001c64:	4a03      	ldr	r2, [pc, #12]	; (8001c74 <HAL_RCC_GetPCLK1Freq+0x1c>)
 8001c66:	6810      	ldr	r0, [r2, #0]
 8001c68:	40d8      	lsrs	r0, r3
 8001c6a:	4770      	bx	lr
 8001c6c:	40023800 	.word	0x40023800
 8001c70:	080041da 	.word	0x080041da
 8001c74:	20000020 	.word	0x20000020

08001c78 <HAL_RCC_GetPCLK2Freq>:
 8001c78:	4b04      	ldr	r3, [pc, #16]	; (8001c8c <HAL_RCC_GetPCLK2Freq+0x14>)
 8001c7a:	4a05      	ldr	r2, [pc, #20]	; (8001c90 <HAL_RCC_GetPCLK2Freq+0x18>)
 8001c7c:	689b      	ldr	r3, [r3, #8]
 8001c7e:	f3c3 3342 	ubfx	r3, r3, #13, #3
 8001c82:	5cd3      	ldrb	r3, [r2, r3]
 8001c84:	4a03      	ldr	r2, [pc, #12]	; (8001c94 <HAL_RCC_GetPCLK2Freq+0x1c>)
 8001c86:	6810      	ldr	r0, [r2, #0]
 8001c88:	40d8      	lsrs	r0, r3
 8001c8a:	4770      	bx	lr
 8001c8c:	40023800 	.word	0x40023800
 8001c90:	080041da 	.word	0x080041da
 8001c94:	20000020 	.word	0x20000020

08001c98 <TIM_OC1_SetConfig>:
 8001c98:	6a03      	ldr	r3, [r0, #32]
 8001c9a:	f023 0301 	bic.w	r3, r3, #1
 8001c9e:	6203      	str	r3, [r0, #32]
 8001ca0:	6a03      	ldr	r3, [r0, #32]
 8001ca2:	b570      	push	{r4, r5, r6, lr}
 8001ca4:	6844      	ldr	r4, [r0, #4]
 8001ca6:	6982      	ldr	r2, [r0, #24]
 8001ca8:	680d      	ldr	r5, [r1, #0]
 8001caa:	f022 0273 	bic.w	r2, r2, #115	; 0x73
 8001cae:	432a      	orrs	r2, r5
 8001cb0:	688d      	ldr	r5, [r1, #8]
 8001cb2:	f023 0302 	bic.w	r3, r3, #2
 8001cb6:	432b      	orrs	r3, r5
 8001cb8:	4d0e      	ldr	r5, [pc, #56]	; (8001cf4 <TIM_OC1_SetConfig+0x5c>)
 8001cba:	42a8      	cmp	r0, r5
 8001cbc:	d002      	beq.n	8001cc4 <TIM_OC1_SetConfig+0x2c>
 8001cbe:	4e0e      	ldr	r6, [pc, #56]	; (8001cf8 <TIM_OC1_SetConfig+0x60>)
 8001cc0:	42b0      	cmp	r0, r6
 8001cc2:	d110      	bne.n	8001ce6 <TIM_OC1_SetConfig+0x4e>
 8001cc4:	68ce      	ldr	r6, [r1, #12]
 8001cc6:	f023 0308 	bic.w	r3, r3, #8
 8001cca:	4333      	orrs	r3, r6
 8001ccc:	42a8      	cmp	r0, r5
 8001cce:	f023 0304 	bic.w	r3, r3, #4
 8001cd2:	d002      	beq.n	8001cda <TIM_OC1_SetConfig+0x42>
 8001cd4:	4d08      	ldr	r5, [pc, #32]	; (8001cf8 <TIM_OC1_SetConfig+0x60>)
 8001cd6:	42a8      	cmp	r0, r5
 8001cd8:	d105      	bne.n	8001ce6 <TIM_OC1_SetConfig+0x4e>
 8001cda:	e9d1 5605 	ldrd	r5, r6, [r1, #20]
 8001cde:	f424 7440 	bic.w	r4, r4, #768	; 0x300
 8001ce2:	4335      	orrs	r5, r6
 8001ce4:	432c      	orrs	r4, r5
 8001ce6:	6044      	str	r4, [r0, #4]
 8001ce8:	6182      	str	r2, [r0, #24]
 8001cea:	684a      	ldr	r2, [r1, #4]
 8001cec:	6342      	str	r2, [r0, #52]	; 0x34
 8001cee:	6203      	str	r3, [r0, #32]
 8001cf0:	bd70      	pop	{r4, r5, r6, pc}
 8001cf2:	bf00      	nop
 8001cf4:	40010000 	.word	0x40010000
 8001cf8:	40010400 	.word	0x40010400

08001cfc <TIM_OC3_SetConfig>:
 8001cfc:	6a03      	ldr	r3, [r0, #32]
 8001cfe:	f423 7380 	bic.w	r3, r3, #256	; 0x100
 8001d02:	6203      	str	r3, [r0, #32]
 8001d04:	6a03      	ldr	r3, [r0, #32]
 8001d06:	b570      	push	{r4, r5, r6, lr}
 8001d08:	6844      	ldr	r4, [r0, #4]
 8001d0a:	69c2      	ldr	r2, [r0, #28]
 8001d0c:	680d      	ldr	r5, [r1, #0]
 8001d0e:	f022 0273 	bic.w	r2, r2, #115	; 0x73
 8001d12:	432a      	orrs	r2, r5
 8001d14:	688d      	ldr	r5, [r1, #8]
 8001d16:	f423 7300 	bic.w	r3, r3, #512	; 0x200
 8001d1a:	ea43 2305 	orr.w	r3, r3, r5, lsl #8
 8001d1e:	4d11      	ldr	r5, [pc, #68]	; (8001d64 <TIM_OC3_SetConfig+0x68>)
 8001d20:	42a8      	cmp	r0, r5
 8001d22:	d003      	beq.n	8001d2c <TIM_OC3_SetConfig+0x30>
 8001d24:	f505 6580 	add.w	r5, r5, #1024	; 0x400
 8001d28:	42a8      	cmp	r0, r5
 8001d2a:	d114      	bne.n	8001d56 <TIM_OC3_SetConfig+0x5a>
 8001d2c:	68cd      	ldr	r5, [r1, #12]
 8001d2e:	f423 6300 	bic.w	r3, r3, #2048	; 0x800
 8001d32:	ea43 2305 	orr.w	r3, r3, r5, lsl #8
 8001d36:	4d0b      	ldr	r5, [pc, #44]	; (8001d64 <TIM_OC3_SetConfig+0x68>)
 8001d38:	42a8      	cmp	r0, r5
 8001d3a:	f423 6380 	bic.w	r3, r3, #1024	; 0x400
 8001d3e:	d003      	beq.n	8001d48 <TIM_OC3_SetConfig+0x4c>
 8001d40:	f505 6580 	add.w	r5, r5, #1024	; 0x400
 8001d44:	42a8      	cmp	r0, r5
 8001d46:	d106      	bne.n	8001d56 <TIM_OC3_SetConfig+0x5a>
 8001d48:	e9d1 5605 	ldrd	r5, r6, [r1, #20]
 8001d4c:	f424 5440 	bic.w	r4, r4, #12288	; 0x3000
 8001d50:	4335      	orrs	r5, r6
 8001d52:	ea44 1405 	orr.w	r4, r4, r5, lsl #4
 8001d56:	6044      	str	r4, [r0, #4]
 8001d58:	61c2      	str	r2, [r0, #28]
 8001d5a:	684a      	ldr	r2, [r1, #4]
 8001d5c:	63c2      	str	r2, [r0, #60]	; 0x3c
 8001d5e:	6203      	str	r3, [r0, #32]
 8001d60:	bd70      	pop	{r4, r5, r6, pc}
 8001d62:	bf00      	nop
 8001d64:	40010000 	.word	0x40010000

08001d68 <TIM_OC4_SetConfig>:
 8001d68:	6a03      	ldr	r3, [r0, #32]
 8001d6a:	f423 5380 	bic.w	r3, r3, #4096	; 0x1000
 8001d6e:	6203      	str	r3, [r0, #32]
 8001d70:	6a03      	ldr	r3, [r0, #32]
 8001d72:	b530      	push	{r4, r5, lr}
 8001d74:	6844      	ldr	r4, [r0, #4]
 8001d76:	69c2      	ldr	r2, [r0, #28]
 8001d78:	680d      	ldr	r5, [r1, #0]
 8001d7a:	f422 42e6 	bic.w	r2, r2, #29440	; 0x7300
 8001d7e:	ea42 2205 	orr.w	r2, r2, r5, lsl #8
 8001d82:	688d      	ldr	r5, [r1, #8]
 8001d84:	f423 5300 	bic.w	r3, r3, #8192	; 0x2000
 8001d88:	ea43 3305 	orr.w	r3, r3, r5, lsl #12
 8001d8c:	4d08      	ldr	r5, [pc, #32]	; (8001db0 <TIM_OC4_SetConfig+0x48>)
 8001d8e:	42a8      	cmp	r0, r5
 8001d90:	d003      	beq.n	8001d9a <TIM_OC4_SetConfig+0x32>
 8001d92:	f505 6580 	add.w	r5, r5, #1024	; 0x400
 8001d96:	42a8      	cmp	r0, r5
 8001d98:	d104      	bne.n	8001da4 <TIM_OC4_SetConfig+0x3c>
 8001d9a:	694d      	ldr	r5, [r1, #20]
 8001d9c:	f424 4480 	bic.w	r4, r4, #16384	; 0x4000
 8001da0:	ea44 1485 	orr.w	r4, r4, r5, lsl #6
 8001da4:	6044      	str	r4, [r0, #4]
 8001da6:	61c2      	str	r2, [r0, #28]
 8001da8:	684a      	ldr	r2, [r1, #4]
 8001daa:	6402      	str	r2, [r0, #64]	; 0x40
 8001dac:	6203      	str	r3, [r0, #32]
 8001dae:	bd30      	pop	{r4, r5, pc}
 8001db0:	40010000 	.word	0x40010000

08001db4 <HAL_TIM_Base_Start>:
 8001db4:	f890 303d 	ldrb.w	r3, [r0, #61]	; 0x3d
 8001db8:	2b01      	cmp	r3, #1
 8001dba:	d12c      	bne.n	8001e16 <HAL_TIM_Base_Start+0x62>
 8001dbc:	2302      	movs	r3, #2
 8001dbe:	4a17      	ldr	r2, [pc, #92]	; (8001e1c <HAL_TIM_Base_Start+0x68>)
 8001dc0:	f880 303d 	strb.w	r3, [r0, #61]	; 0x3d
 8001dc4:	6803      	ldr	r3, [r0, #0]
 8001dc6:	4293      	cmp	r3, r2
 8001dc8:	d01a      	beq.n	8001e00 <HAL_TIM_Base_Start+0x4c>
 8001dca:	f1b3 4f80 	cmp.w	r3, #1073741824	; 0x40000000
 8001dce:	d017      	beq.n	8001e00 <HAL_TIM_Base_Start+0x4c>
 8001dd0:	f5a2 427c 	sub.w	r2, r2, #64512	; 0xfc00
 8001dd4:	4293      	cmp	r3, r2
 8001dd6:	d013      	beq.n	8001e00 <HAL_TIM_Base_Start+0x4c>
 8001dd8:	f502 6280 	add.w	r2, r2, #1024	; 0x400
 8001ddc:	4293      	cmp	r3, r2
 8001dde:	d00f      	beq.n	8001e00 <HAL_TIM_Base_Start+0x4c>
 8001de0:	f502 6280 	add.w	r2, r2, #1024	; 0x400
 8001de4:	4293      	cmp	r3, r2
 8001de6:	d00b      	beq.n	8001e00 <HAL_TIM_Base_Start+0x4c>
 8001de8:	f502 4278 	add.w	r2, r2, #63488	; 0xf800
 8001dec:	4293      	cmp	r3, r2
 8001dee:	d007      	beq.n	8001e00 <HAL_TIM_Base_Start+0x4c>
 8001df0:	f502 5270 	add.w	r2, r2, #15360	; 0x3c00
 8001df4:	4293      	cmp	r3, r2
 8001df6:	d003      	beq.n	8001e00 <HAL_TIM_Base_Start+0x4c>
 8001df8:	f5a2 3294 	sub.w	r2, r2, #75776	; 0x12800
 8001dfc:	4293      	cmp	r3, r2
 8001dfe:	d104      	bne.n	8001e0a <HAL_TIM_Base_Start+0x56>
 8001e00:	689a      	ldr	r2, [r3, #8]
 8001e02:	f002 0207 	and.w	r2, r2, #7
 8001e06:	2a06      	cmp	r2, #6
 8001e08:	d003      	beq.n	8001e12 <HAL_TIM_Base_Start+0x5e>
 8001e0a:	681a      	ldr	r2, [r3, #0]
 8001e0c:	f042 0201 	orr.w	r2, r2, #1
 8001e10:	601a      	str	r2, [r3, #0]
 8001e12:	2000      	movs	r0, #0
 8001e14:	4770      	bx	lr
 8001e16:	2001      	movs	r0, #1
 8001e18:	4770      	bx	lr
 8001e1a:	bf00      	nop
 8001e1c:	40010000 	.word	0x40010000

08001e20 <HAL_TIM_PeriodElapsedCallback>:
 8001e20:	4770      	bx	lr

08001e22 <HAL_TIM_OC_DelayElapsedCallback>:
 8001e22:	4770      	bx	lr

08001e24 <HAL_TIM_IC_CaptureCallback>:
 8001e24:	4770      	bx	lr

08001e26 <HAL_TIM_PWM_PulseFinishedCallback>:
 8001e26:	4770      	bx	lr

08001e28 <HAL_TIM_TriggerCallback>:
 8001e28:	4770      	bx	lr

08001e2a <HAL_TIM_IRQHandler>:
 8001e2a:	6803      	ldr	r3, [r0, #0]
 8001e2c:	691a      	ldr	r2, [r3, #16]
 8001e2e:	0791      	lsls	r1, r2, #30
 8001e30:	b510      	push	{r4, lr}
 8001e32:	4604      	mov	r4, r0
 8001e34:	d50e      	bpl.n	8001e54 <HAL_TIM_IRQHandler+0x2a>
 8001e36:	68da      	ldr	r2, [r3, #12]
 8001e38:	0792      	lsls	r2, r2, #30
 8001e3a:	d50b      	bpl.n	8001e54 <HAL_TIM_IRQHandler+0x2a>
 8001e3c:	f06f 0202 	mvn.w	r2, #2
 8001e40:	611a      	str	r2, [r3, #16]
 8001e42:	2201      	movs	r2, #1
 8001e44:	7702      	strb	r2, [r0, #28]
 8001e46:	699b      	ldr	r3, [r3, #24]
 8001e48:	079b      	lsls	r3, r3, #30
 8001e4a:	d077      	beq.n	8001f3c <HAL_TIM_IRQHandler+0x112>
 8001e4c:	f7ff ffea 	bl	8001e24 <HAL_TIM_IC_CaptureCallback>
 8001e50:	2300      	movs	r3, #0
 8001e52:	7723      	strb	r3, [r4, #28]
 8001e54:	6823      	ldr	r3, [r4, #0]
 8001e56:	691a      	ldr	r2, [r3, #16]
 8001e58:	0750      	lsls	r0, r2, #29
 8001e5a:	d510      	bpl.n	8001e7e <HAL_TIM_IRQHandler+0x54>
 8001e5c:	68da      	ldr	r2, [r3, #12]
 8001e5e:	0751      	lsls	r1, r2, #29
 8001e60:	d50d      	bpl.n	8001e7e <HAL_TIM_IRQHandler+0x54>
 8001e62:	f06f 0204 	mvn.w	r2, #4
 8001e66:	611a      	str	r2, [r3, #16]
 8001e68:	2202      	movs	r2, #2
 8001e6a:	7722      	strb	r2, [r4, #28]
 8001e6c:	699b      	ldr	r3, [r3, #24]
 8001e6e:	f413 7f40 	tst.w	r3, #768	; 0x300
 8001e72:	4620      	mov	r0, r4
 8001e74:	d068      	beq.n	8001f48 <HAL_TIM_IRQHandler+0x11e>
 8001e76:	f7ff ffd5 	bl	8001e24 <HAL_TIM_IC_CaptureCallback>
 8001e7a:	2300      	movs	r3, #0
 8001e7c:	7723      	strb	r3, [r4, #28]
 8001e7e:	6823      	ldr	r3, [r4, #0]
 8001e80:	691a      	ldr	r2, [r3, #16]
 8001e82:	0712      	lsls	r2, r2, #28
 8001e84:	d50f      	bpl.n	8001ea6 <HAL_TIM_IRQHandler+0x7c>
 8001e86:	68da      	ldr	r2, [r3, #12]
 8001e88:	0710      	lsls	r0, r2, #28
 8001e8a:	d50c      	bpl.n	8001ea6 <HAL_TIM_IRQHandler+0x7c>
 8001e8c:	f06f 0208 	mvn.w	r2, #8
 8001e90:	611a      	str	r2, [r3, #16]
 8001e92:	2204      	movs	r2, #4
 8001e94:	7722      	strb	r2, [r4, #28]
 8001e96:	69db      	ldr	r3, [r3, #28]
 8001e98:	0799      	lsls	r1, r3, #30
 8001e9a:	4620      	mov	r0, r4
 8001e9c:	d05a      	beq.n	8001f54 <HAL_TIM_IRQHandler+0x12a>
 8001e9e:	f7ff ffc1 	bl	8001e24 <HAL_TIM_IC_CaptureCallback>
 8001ea2:	2300      	movs	r3, #0
 8001ea4:	7723      	strb	r3, [r4, #28]
 8001ea6:	6823      	ldr	r3, [r4, #0]
 8001ea8:	691a      	ldr	r2, [r3, #16]
 8001eaa:	06d2      	lsls	r2, r2, #27
 8001eac:	d510      	bpl.n	8001ed0 <HAL_TIM_IRQHandler+0xa6>
 8001eae:	68da      	ldr	r2, [r3, #12]
 8001eb0:	06d0      	lsls	r0, r2, #27
 8001eb2:	d50d      	bpl.n	8001ed0 <HAL_TIM_IRQHandler+0xa6>
 8001eb4:	f06f 0210 	mvn.w	r2, #16
 8001eb8:	611a      	str	r2, [r3, #16]
 8001eba:	2208      	movs	r2, #8
 8001ebc:	7722      	strb	r2, [r4, #28]
 8001ebe:	69db      	ldr	r3, [r3, #28]
 8001ec0:	f413 7f40 	tst.w	r3, #768	; 0x300
 8001ec4:	4620      	mov	r0, r4
 8001ec6:	d04b      	beq.n	8001f60 <HAL_TIM_IRQHandler+0x136>
 8001ec8:	f7ff ffac 	bl	8001e24 <HAL_TIM_IC_CaptureCallback>
 8001ecc:	2300      	movs	r3, #0
 8001ece:	7723      	strb	r3, [r4, #28]
 8001ed0:	6823      	ldr	r3, [r4, #0]
 8001ed2:	691a      	ldr	r2, [r3, #16]
 8001ed4:	07d1      	lsls	r1, r2, #31
 8001ed6:	d508      	bpl.n	8001eea <HAL_TIM_IRQHandler+0xc0>
 8001ed8:	68da      	ldr	r2, [r3, #12]
 8001eda:	07d2      	lsls	r2, r2, #31
 8001edc:	d505      	bpl.n	8001eea <HAL_TIM_IRQHandler+0xc0>
 8001ede:	f06f 0201 	mvn.w	r2, #1
 8001ee2:	611a      	str	r2, [r3, #16]
 8001ee4:	4620      	mov	r0, r4
 8001ee6:	f7ff ff9b 	bl	8001e20 <HAL_TIM_PeriodElapsedCallback>
 8001eea:	6823      	ldr	r3, [r4, #0]
 8001eec:	691a      	ldr	r2, [r3, #16]
 8001eee:	0610      	lsls	r0, r2, #24
 8001ef0:	d508      	bpl.n	8001f04 <HAL_TIM_IRQHandler+0xda>
 8001ef2:	68da      	ldr	r2, [r3, #12]
 8001ef4:	0611      	lsls	r1, r2, #24
 8001ef6:	d505      	bpl.n	8001f04 <HAL_TIM_IRQHandler+0xda>
 8001ef8:	f06f 0280 	mvn.w	r2, #128	; 0x80
 8001efc:	611a      	str	r2, [r3, #16]
 8001efe:	4620      	mov	r0, r4
 8001f00:	f000 fb55 	bl	80025ae <HAL_TIMEx_BreakCallback>
 8001f04:	6823      	ldr	r3, [r4, #0]
 8001f06:	691a      	ldr	r2, [r3, #16]
 8001f08:	0652      	lsls	r2, r2, #25
 8001f0a:	d508      	bpl.n	8001f1e <HAL_TIM_IRQHandler+0xf4>
 8001f0c:	68da      	ldr	r2, [r3, #12]
 8001f0e:	0650      	lsls	r0, r2, #25
 8001f10:	d505      	bpl.n	8001f1e <HAL_TIM_IRQHandler+0xf4>
 8001f12:	f06f 0240 	mvn.w	r2, #64	; 0x40
 8001f16:	611a      	str	r2, [r3, #16]
 8001f18:	4620      	mov	r0, r4
 8001f1a:	f7ff ff85 	bl	8001e28 <HAL_TIM_TriggerCallback>
 8001f1e:	6823      	ldr	r3, [r4, #0]
 8001f20:	691a      	ldr	r2, [r3, #16]
 8001f22:	0691      	lsls	r1, r2, #26
 8001f24:	d522      	bpl.n	8001f6c <HAL_TIM_IRQHandler+0x142>
 8001f26:	68da      	ldr	r2, [r3, #12]
 8001f28:	0692      	lsls	r2, r2, #26
 8001f2a:	d51f      	bpl.n	8001f6c <HAL_TIM_IRQHandler+0x142>
 8001f2c:	f06f 0220 	mvn.w	r2, #32
 8001f30:	4620      	mov	r0, r4
 8001f32:	611a      	str	r2, [r3, #16]
 8001f34:	e8bd 4010 	ldmia.w	sp!, {r4, lr}
 8001f38:	f000 bb38 	b.w	80025ac <HAL_TIMEx_CommutCallback>
 8001f3c:	f7ff ff71 	bl	8001e22 <HAL_TIM_OC_DelayElapsedCallback>
 8001f40:	4620      	mov	r0, r4
 8001f42:	f7ff ff70 	bl	8001e26 <HAL_TIM_PWM_PulseFinishedCallback>
 8001f46:	e783      	b.n	8001e50 <HAL_TIM_IRQHandler+0x26>
 8001f48:	f7ff ff6b 	bl	8001e22 <HAL_TIM_OC_DelayElapsedCallback>
 8001f4c:	4620      	mov	r0, r4
 8001f4e:	f7ff ff6a 	bl	8001e26 <HAL_TIM_PWM_PulseFinishedCallback>
 8001f52:	e792      	b.n	8001e7a <HAL_TIM_IRQHandler+0x50>
 8001f54:	f7ff ff65 	bl	8001e22 <HAL_TIM_OC_DelayElapsedCallback>
 8001f58:	4620      	mov	r0, r4
 8001f5a:	f7ff ff64 	bl	8001e26 <HAL_TIM_PWM_PulseFinishedCallback>
 8001f5e:	e7a0      	b.n	8001ea2 <HAL_TIM_IRQHandler+0x78>
 8001f60:	f7ff ff5f 	bl	8001e22 <HAL_TIM_OC_DelayElapsedCallback>
 8001f64:	4620      	mov	r0, r4
 8001f66:	f7ff ff5e 	bl	8001e26 <HAL_TIM_PWM_PulseFinishedCallback>
 8001f6a:	e7af      	b.n	8001ecc <HAL_TIM_IRQHandler+0xa2>
 8001f6c:	bd10      	pop	{r4, pc}
	...

08001f70 <TIM_Base_SetConfig>:
 8001f70:	4a30      	ldr	r2, [pc, #192]	; (8002034 <TIM_Base_SetConfig+0xc4>)
 8001f72:	6803      	ldr	r3, [r0, #0]
 8001f74:	4290      	cmp	r0, r2
 8001f76:	d012      	beq.n	8001f9e <TIM_Base_SetConfig+0x2e>
 8001f78:	f1b0 4f80 	cmp.w	r0, #1073741824	; 0x40000000
 8001f7c:	d00f      	beq.n	8001f9e <TIM_Base_SetConfig+0x2e>
 8001f7e:	f5a2 427c 	sub.w	r2, r2, #64512	; 0xfc00
 8001f82:	4290      	cmp	r0, r2
 8001f84:	d00b      	beq.n	8001f9e <TIM_Base_SetConfig+0x2e>
 8001f86:	f502 6280 	add.w	r2, r2, #1024	; 0x400
 8001f8a:	4290      	cmp	r0, r2
 8001f8c:	d007      	beq.n	8001f9e <TIM_Base_SetConfig+0x2e>
 8001f8e:	f502 6280 	add.w	r2, r2, #1024	; 0x400
 8001f92:	4290      	cmp	r0, r2
 8001f94:	d003      	beq.n	8001f9e <TIM_Base_SetConfig+0x2e>
 8001f96:	f502 4278 	add.w	r2, r2, #63488	; 0xf800
 8001f9a:	4290      	cmp	r0, r2
 8001f9c:	d119      	bne.n	8001fd2 <TIM_Base_SetConfig+0x62>
 8001f9e:	684a      	ldr	r2, [r1, #4]
 8001fa0:	f023 0370 	bic.w	r3, r3, #112	; 0x70
 8001fa4:	4313      	orrs	r3, r2
 8001fa6:	4a23      	ldr	r2, [pc, #140]	; (8002034 <TIM_Base_SetConfig+0xc4>)
 8001fa8:	4290      	cmp	r0, r2
 8001faa:	d029      	beq.n	8002000 <TIM_Base_SetConfig+0x90>
 8001fac:	f1b0 4f80 	cmp.w	r0, #1073741824	; 0x40000000
 8001fb0:	d026      	beq.n	8002000 <TIM_Base_SetConfig+0x90>
 8001fb2:	f5a2 427c 	sub.w	r2, r2, #64512	; 0xfc00
 8001fb6:	4290      	cmp	r0, r2
 8001fb8:	d022      	beq.n	8002000 <TIM_Base_SetConfig+0x90>
 8001fba:	f502 6280 	add.w	r2, r2, #1024	; 0x400
 8001fbe:	4290      	cmp	r0, r2
 8001fc0:	d01e      	beq.n	8002000 <TIM_Base_SetConfig+0x90>
 8001fc2:	f502 6280 	add.w	r2, r2, #1024	; 0x400
 8001fc6:	4290      	cmp	r0, r2
 8001fc8:	d01a      	beq.n	8002000 <TIM_Base_SetConfig+0x90>
 8001fca:	f502 4278 	add.w	r2, r2, #63488	; 0xf800
 8001fce:	4290      	cmp	r0, r2
 8001fd0:	d016      	beq.n	8002000 <TIM_Base_SetConfig+0x90>
 8001fd2:	4a19      	ldr	r2, [pc, #100]	; (8002038 <TIM_Base_SetConfig+0xc8>)
 8001fd4:	4290      	cmp	r0, r2
 8001fd6:	d013      	beq.n	8002000 <TIM_Base_SetConfig+0x90>
 8001fd8:	f502 6280 	add.w	r2, r2, #1024	; 0x400
 8001fdc:	4290      	cmp	r0, r2
 8001fde:	d00f      	beq.n	8002000 <TIM_Base_SetConfig+0x90>
 8001fe0:	f502 6280 	add.w	r2, r2, #1024	; 0x400
 8001fe4:	4290      	cmp	r0, r2
 8001fe6:	d00b      	beq.n	8002000 <TIM_Base_SetConfig+0x90>
 8001fe8:	f5a2 3298 	sub.w	r2, r2, #77824	; 0x13000
 8001fec:	4290      	cmp	r0, r2
 8001fee:	d007      	beq.n	8002000 <TIM_Base_SetConfig+0x90>
 8001ff0:	f502 6280 	add.w	r2, r2, #1024	; 0x400
 8001ff4:	4290      	cmp	r0, r2
 8001ff6:	d003      	beq.n	8002000 <TIM_Base_SetConfig+0x90>
 8001ff8:	f502 6280 	add.w	r2, r2, #1024	; 0x400
 8001ffc:	4290      	cmp	r0, r2
 8001ffe:	d103      	bne.n	8002008 <TIM_Base_SetConfig+0x98>
 8002000:	68ca      	ldr	r2, [r1, #12]
 8002002:	f423 7340 	bic.w	r3, r3, #768	; 0x300
 8002006:	4313      	orrs	r3, r2
 8002008:	694a      	ldr	r2, [r1, #20]
 800200a:	f023 0380 	bic.w	r3, r3, #128	; 0x80
 800200e:	4313      	orrs	r3, r2
 8002010:	6003      	str	r3, [r0, #0]
 8002012:	688b      	ldr	r3, [r1, #8]
 8002014:	62c3      	str	r3, [r0, #44]	; 0x2c
 8002016:	680b      	ldr	r3, [r1, #0]
 8002018:	6283      	str	r3, [r0, #40]	; 0x28
 800201a:	4b06      	ldr	r3, [pc, #24]	; (8002034 <TIM_Base_SetConfig+0xc4>)
 800201c:	4298      	cmp	r0, r3
 800201e:	d003      	beq.n	8002028 <TIM_Base_SetConfig+0xb8>
 8002020:	f503 6380 	add.w	r3, r3, #1024	; 0x400
 8002024:	4298      	cmp	r0, r3
 8002026:	d101      	bne.n	800202c <TIM_Base_SetConfig+0xbc>
 8002028:	690b      	ldr	r3, [r1, #16]
 800202a:	6303      	str	r3, [r0, #48]	; 0x30
 800202c:	2301      	movs	r3, #1
 800202e:	6143      	str	r3, [r0, #20]
 8002030:	4770      	bx	lr
 8002032:	bf00      	nop
 8002034:	40010000 	.word	0x40010000
 8002038:	40014000 	.word	0x40014000

0800203c <HAL_TIM_Base_Init>:
 800203c:	b510      	push	{r4, lr}
 800203e:	4604      	mov	r4, r0
 8002040:	b330      	cbz	r0, 8002090 <HAL_TIM_Base_Init+0x54>
 8002042:	f890 303d 	ldrb.w	r3, [r0, #61]	; 0x3d
 8002046:	f003 02ff 	and.w	r2, r3, #255	; 0xff
 800204a:	b91b      	cbnz	r3, 8002054 <HAL_TIM_Base_Init+0x18>
 800204c:	f880 203c 	strb.w	r2, [r0, #60]	; 0x3c
 8002050:	f7fe fe16 	bl	8000c80 <HAL_TIM_Base_MspInit>
 8002054:	2302      	movs	r3, #2
 8002056:	6820      	ldr	r0, [r4, #0]
 8002058:	f884 303d 	strb.w	r3, [r4, #61]	; 0x3d
 800205c:	1d21      	adds	r1, r4, #4
 800205e:	f7ff ff87 	bl	8001f70 <TIM_Base_SetConfig>
 8002062:	2301      	movs	r3, #1
 8002064:	f884 3046 	strb.w	r3, [r4, #70]	; 0x46
 8002068:	2000      	movs	r0, #0
 800206a:	f884 303e 	strb.w	r3, [r4, #62]	; 0x3e
 800206e:	f884 303f 	strb.w	r3, [r4, #63]	; 0x3f
 8002072:	f884 3040 	strb.w	r3, [r4, #64]	; 0x40
 8002076:	f884 3041 	strb.w	r3, [r4, #65]	; 0x41
 800207a:	f884 3042 	strb.w	r3, [r4, #66]	; 0x42
 800207e:	f884 3043 	strb.w	r3, [r4, #67]	; 0x43
 8002082:	f884 3044 	strb.w	r3, [r4, #68]	; 0x44
 8002086:	f884 3045 	strb.w	r3, [r4, #69]	; 0x45
 800208a:	f884 303d 	strb.w	r3, [r4, #61]	; 0x3d
 800208e:	bd10      	pop	{r4, pc}
 8002090:	2001      	movs	r0, #1
 8002092:	e7fc      	b.n	800208e <HAL_TIM_Base_Init+0x52>

08002094 <HAL_TIM_PWM_Init>:
 8002094:	b510      	push	{r4, lr}
 8002096:	4604      	mov	r4, r0
 8002098:	b330      	cbz	r0, 80020e8 <HAL_TIM_PWM_Init+0x54>
 800209a:	f890 303d 	ldrb.w	r3, [r0, #61]	; 0x3d
 800209e:	f003 02ff 	and.w	r2, r3, #255	; 0xff
 80020a2:	b91b      	cbnz	r3, 80020ac <HAL_TIM_PWM_Init+0x18>
 80020a4:	f880 203c 	strb.w	r2, [r0, #60]	; 0x3c
 80020a8:	f7fe fe22 	bl	8000cf0 <HAL_TIM_PWM_MspInit>
 80020ac:	2302      	movs	r3, #2
 80020ae:	6820      	ldr	r0, [r4, #0]
 80020b0:	f884 303d 	strb.w	r3, [r4, #61]	; 0x3d
 80020b4:	1d21      	adds	r1, r4, #4
 80020b6:	f7ff ff5b 	bl	8001f70 <TIM_Base_SetConfig>
 80020ba:	2301      	movs	r3, #1
 80020bc:	f884 3046 	strb.w	r3, [r4, #70]	; 0x46
 80020c0:	2000      	movs	r0, #0
 80020c2:	f884 303e 	strb.w	r3, [r4, #62]	; 0x3e
 80020c6:	f884 303f 	strb.w	r3, [r4, #63]	; 0x3f
 80020ca:	f884 3040 	strb.w	r3, [r4, #64]	; 0x40
 80020ce:	f884 3041 	strb.w	r3, [r4, #65]	; 0x41
 80020d2:	f884 3042 	strb.w	r3, [r4, #66]	; 0x42
 80020d6:	f884 3043 	strb.w	r3, [r4, #67]	; 0x43
 80020da:	f884 3044 	strb.w	r3, [r4, #68]	; 0x44
 80020de:	f884 3045 	strb.w	r3, [r4, #69]	; 0x45
 80020e2:	f884 303d 	strb.w	r3, [r4, #61]	; 0x3d
 80020e6:	bd10      	pop	{r4, pc}
 80020e8:	2001      	movs	r0, #1
 80020ea:	e7fc      	b.n	80020e6 <HAL_TIM_PWM_Init+0x52>

080020ec <TIM_OC2_SetConfig>:
 80020ec:	6a03      	ldr	r3, [r0, #32]
 80020ee:	f023 0310 	bic.w	r3, r3, #16
 80020f2:	6203      	str	r3, [r0, #32]
 80020f4:	6a03      	ldr	r3, [r0, #32]
 80020f6:	b570      	push	{r4, r5, r6, lr}
 80020f8:	6844      	ldr	r4, [r0, #4]
 80020fa:	6982      	ldr	r2, [r0, #24]
 80020fc:	680d      	ldr	r5, [r1, #0]
 80020fe:	f422 42e6 	bic.w	r2, r2, #29440	; 0x7300
 8002102:	ea42 2205 	orr.w	r2, r2, r5, lsl #8
 8002106:	688d      	ldr	r5, [r1, #8]
 8002108:	f023 0320 	bic.w	r3, r3, #32
 800210c:	ea43 1305 	orr.w	r3, r3, r5, lsl #4
 8002110:	4d10      	ldr	r5, [pc, #64]	; (8002154 <TIM_OC2_SetConfig+0x68>)
 8002112:	42a8      	cmp	r0, r5
 8002114:	d003      	beq.n	800211e <TIM_OC2_SetConfig+0x32>
 8002116:	f505 6580 	add.w	r5, r5, #1024	; 0x400
 800211a:	42a8      	cmp	r0, r5
 800211c:	d114      	bne.n	8002148 <TIM_OC2_SetConfig+0x5c>
 800211e:	68cd      	ldr	r5, [r1, #12]
 8002120:	f023 0380 	bic.w	r3, r3, #128	; 0x80
 8002124:	ea43 1305 	orr.w	r3, r3, r5, lsl #4
 8002128:	4d0a      	ldr	r5, [pc, #40]	; (8002154 <TIM_OC2_SetConfig+0x68>)
 800212a:	42a8      	cmp	r0, r5
 800212c:	f023 0340 	bic.w	r3, r3, #64	; 0x40
 8002130:	d003      	beq.n	800213a <TIM_OC2_SetConfig+0x4e>
 8002132:	f505 6580 	add.w	r5, r5, #1024	; 0x400
 8002136:	42a8      	cmp	r0, r5
 8002138:	d106      	bne.n	8002148 <TIM_OC2_SetConfig+0x5c>
 800213a:	e9d1 5605 	ldrd	r5, r6, [r1, #20]
 800213e:	f424 6440 	bic.w	r4, r4, #3072	; 0xc00
 8002142:	4335      	orrs	r5, r6
 8002144:	ea44 0485 	orr.w	r4, r4, r5, lsl #2
 8002148:	6044      	str	r4, [r0, #4]
 800214a:	6182      	str	r2, [r0, #24]
 800214c:	684a      	ldr	r2, [r1, #4]
 800214e:	6382      	str	r2, [r0, #56]	; 0x38
 8002150:	6203      	str	r3, [r0, #32]
 8002152:	bd70      	pop	{r4, r5, r6, pc}
 8002154:	40010000 	.word	0x40010000

08002158 <HAL_TIM_PWM_ConfigChannel>:
 8002158:	b538      	push	{r3, r4, r5, lr}
 800215a:	f890 303c 	ldrb.w	r3, [r0, #60]	; 0x3c
 800215e:	2b01      	cmp	r3, #1
 8002160:	4604      	mov	r4, r0
 8002162:	d052      	beq.n	800220a <HAL_TIM_PWM_ConfigChannel+0xb2>
 8002164:	2301      	movs	r3, #1
 8002166:	2a08      	cmp	r2, #8
 8002168:	f880 303c 	strb.w	r3, [r0, #60]	; 0x3c
 800216c:	d03c      	beq.n	80021e8 <HAL_TIM_PWM_ConfigChannel+0x90>
 800216e:	d806      	bhi.n	800217e <HAL_TIM_PWM_ConfigChannel+0x26>
 8002170:	b1c2      	cbz	r2, 80021a4 <HAL_TIM_PWM_ConfigChannel+0x4c>
 8002172:	2a04      	cmp	r2, #4
 8002174:	d027      	beq.n	80021c6 <HAL_TIM_PWM_ConfigChannel+0x6e>
 8002176:	2000      	movs	r0, #0
 8002178:	f884 003c 	strb.w	r0, [r4, #60]	; 0x3c
 800217c:	bd38      	pop	{r3, r4, r5, pc}
 800217e:	2a0c      	cmp	r2, #12
 8002180:	d1f9      	bne.n	8002176 <HAL_TIM_PWM_ConfigChannel+0x1e>
 8002182:	6800      	ldr	r0, [r0, #0]
 8002184:	f7ff fdf0 	bl	8001d68 <TIM_OC4_SetConfig>
 8002188:	6823      	ldr	r3, [r4, #0]
 800218a:	6909      	ldr	r1, [r1, #16]
 800218c:	69da      	ldr	r2, [r3, #28]
 800218e:	f442 6200 	orr.w	r2, r2, #2048	; 0x800
 8002192:	61da      	str	r2, [r3, #28]
 8002194:	69da      	ldr	r2, [r3, #28]
 8002196:	f422 6280 	bic.w	r2, r2, #1024	; 0x400
 800219a:	61da      	str	r2, [r3, #28]
 800219c:	69da      	ldr	r2, [r3, #28]
 800219e:	ea42 2201 	orr.w	r2, r2, r1, lsl #8
 80021a2:	e030      	b.n	8002206 <HAL_TIM_PWM_ConfigChannel+0xae>
 80021a4:	6800      	ldr	r0, [r0, #0]
 80021a6:	f7ff fd77 	bl	8001c98 <TIM_OC1_SetConfig>
 80021aa:	6823      	ldr	r3, [r4, #0]
 80021ac:	6909      	ldr	r1, [r1, #16]
 80021ae:	699a      	ldr	r2, [r3, #24]
 80021b0:	f042 0208 	orr.w	r2, r2, #8
 80021b4:	619a      	str	r2, [r3, #24]
 80021b6:	699a      	ldr	r2, [r3, #24]
 80021b8:	f022 0204 	bic.w	r2, r2, #4
 80021bc:	619a      	str	r2, [r3, #24]
 80021be:	699a      	ldr	r2, [r3, #24]
 80021c0:	430a      	orrs	r2, r1
 80021c2:	619a      	str	r2, [r3, #24]
 80021c4:	e7d7      	b.n	8002176 <HAL_TIM_PWM_ConfigChannel+0x1e>
 80021c6:	6800      	ldr	r0, [r0, #0]
 80021c8:	f7ff ff90 	bl	80020ec <TIM_OC2_SetConfig>
 80021cc:	6823      	ldr	r3, [r4, #0]
 80021ce:	6909      	ldr	r1, [r1, #16]
 80021d0:	699a      	ldr	r2, [r3, #24]
 80021d2:	f442 6200 	orr.w	r2, r2, #2048	; 0x800
 80021d6:	619a      	str	r2, [r3, #24]
 80021d8:	699a      	ldr	r2, [r3, #24]
 80021da:	f422 6280 	bic.w	r2, r2, #1024	; 0x400
 80021de:	619a      	str	r2, [r3, #24]
 80021e0:	699a      	ldr	r2, [r3, #24]
 80021e2:	ea42 2201 	orr.w	r2, r2, r1, lsl #8
 80021e6:	e7ec      	b.n	80021c2 <HAL_TIM_PWM_ConfigChannel+0x6a>
 80021e8:	6800      	ldr	r0, [r0, #0]
 80021ea:	f7ff fd87 	bl	8001cfc <TIM_OC3_SetConfig>
 80021ee:	6823      	ldr	r3, [r4, #0]
 80021f0:	6909      	ldr	r1, [r1, #16]
 80021f2:	69da      	ldr	r2, [r3, #28]
 80021f4:	f042 0208 	orr.w	r2, r2, #8
 80021f8:	61da      	str	r2, [r3, #28]
 80021fa:	69da      	ldr	r2, [r3, #28]
 80021fc:	f022 0204 	bic.w	r2, r2, #4
 8002200:	61da      	str	r2, [r3, #28]
 8002202:	69da      	ldr	r2, [r3, #28]
 8002204:	430a      	orrs	r2, r1
 8002206:	61da      	str	r2, [r3, #28]
 8002208:	e7b5      	b.n	8002176 <HAL_TIM_PWM_ConfigChannel+0x1e>
 800220a:	2002      	movs	r0, #2
 800220c:	e7b6      	b.n	800217c <HAL_TIM_PWM_ConfigChannel+0x24>

0800220e <TIM_ETR_SetConfig>:
 800220e:	b510      	push	{r4, lr}
 8002210:	6884      	ldr	r4, [r0, #8]
 8002212:	4311      	orrs	r1, r2
 8002214:	f424 447f 	bic.w	r4, r4, #65280	; 0xff00
 8002218:	ea41 2303 	orr.w	r3, r1, r3, lsl #8
 800221c:	4323      	orrs	r3, r4
 800221e:	6083      	str	r3, [r0, #8]
 8002220:	bd10      	pop	{r4, pc}

08002222 <HAL_TIM_ConfigClockSource>:
 8002222:	b570      	push	{r4, r5, r6, lr}
 8002224:	f890 303c 	ldrb.w	r3, [r0, #60]	; 0x3c
 8002228:	2b01      	cmp	r3, #1
 800222a:	4604      	mov	r4, r0
 800222c:	f04f 0002 	mov.w	r0, #2
 8002230:	d027      	beq.n	8002282 <HAL_TIM_ConfigClockSource+0x60>
 8002232:	f884 003d 	strb.w	r0, [r4, #61]	; 0x3d
 8002236:	2301      	movs	r3, #1
 8002238:	6820      	ldr	r0, [r4, #0]
 800223a:	f884 303c 	strb.w	r3, [r4, #60]	; 0x3c
 800223e:	6883      	ldr	r3, [r0, #8]
 8002240:	f423 437f 	bic.w	r3, r3, #65280	; 0xff00
 8002244:	f023 0377 	bic.w	r3, r3, #119	; 0x77
 8002248:	6083      	str	r3, [r0, #8]
 800224a:	680b      	ldr	r3, [r1, #0]
 800224c:	2b60      	cmp	r3, #96	; 0x60
 800224e:	d04d      	beq.n	80022ec <HAL_TIM_ConfigClockSource+0xca>
 8002250:	d832      	bhi.n	80022b8 <HAL_TIM_ConfigClockSource+0x96>
 8002252:	2b40      	cmp	r3, #64	; 0x40
 8002254:	d062      	beq.n	800231c <HAL_TIM_ConfigClockSource+0xfa>
 8002256:	d815      	bhi.n	8002284 <HAL_TIM_ConfigClockSource+0x62>
 8002258:	2b20      	cmp	r3, #32
 800225a:	d003      	beq.n	8002264 <HAL_TIM_ConfigClockSource+0x42>
 800225c:	d809      	bhi.n	8002272 <HAL_TIM_ConfigClockSource+0x50>
 800225e:	f033 0210 	bics.w	r2, r3, #16
 8002262:	d108      	bne.n	8002276 <HAL_TIM_ConfigClockSource+0x54>
 8002264:	6882      	ldr	r2, [r0, #8]
 8002266:	f022 0270 	bic.w	r2, r2, #112	; 0x70
 800226a:	4313      	orrs	r3, r2
 800226c:	f043 0307 	orr.w	r3, r3, #7
 8002270:	e020      	b.n	80022b4 <HAL_TIM_ConfigClockSource+0x92>
 8002272:	2b30      	cmp	r3, #48	; 0x30
 8002274:	d0f6      	beq.n	8002264 <HAL_TIM_ConfigClockSource+0x42>
 8002276:	2301      	movs	r3, #1
 8002278:	2000      	movs	r0, #0
 800227a:	f884 303d 	strb.w	r3, [r4, #61]	; 0x3d
 800227e:	f884 003c 	strb.w	r0, [r4, #60]	; 0x3c
 8002282:	bd70      	pop	{r4, r5, r6, pc}
 8002284:	2b50      	cmp	r3, #80	; 0x50
 8002286:	d1f6      	bne.n	8002276 <HAL_TIM_ConfigClockSource+0x54>
 8002288:	684a      	ldr	r2, [r1, #4]
 800228a:	68ce      	ldr	r6, [r1, #12]
 800228c:	6a01      	ldr	r1, [r0, #32]
 800228e:	6a05      	ldr	r5, [r0, #32]
 8002290:	f025 0501 	bic.w	r5, r5, #1
 8002294:	6205      	str	r5, [r0, #32]
 8002296:	6983      	ldr	r3, [r0, #24]
 8002298:	f021 010a 	bic.w	r1, r1, #10
 800229c:	f023 03f0 	bic.w	r3, r3, #240	; 0xf0
 80022a0:	ea43 1306 	orr.w	r3, r3, r6, lsl #4
 80022a4:	430a      	orrs	r2, r1
 80022a6:	6183      	str	r3, [r0, #24]
 80022a8:	6202      	str	r2, [r0, #32]
 80022aa:	6883      	ldr	r3, [r0, #8]
 80022ac:	f023 0370 	bic.w	r3, r3, #112	; 0x70
 80022b0:	f043 0357 	orr.w	r3, r3, #87	; 0x57
 80022b4:	6083      	str	r3, [r0, #8]
 80022b6:	e7de      	b.n	8002276 <HAL_TIM_ConfigClockSource+0x54>
 80022b8:	2b70      	cmp	r3, #112	; 0x70
 80022ba:	d00c      	beq.n	80022d6 <HAL_TIM_ConfigClockSource+0xb4>
 80022bc:	f5b3 5f00 	cmp.w	r3, #8192	; 0x2000
 80022c0:	d1d9      	bne.n	8002276 <HAL_TIM_ConfigClockSource+0x54>
 80022c2:	68cb      	ldr	r3, [r1, #12]
 80022c4:	e9d1 2101 	ldrd	r2, r1, [r1, #4]
 80022c8:	f7ff ffa1 	bl	800220e <TIM_ETR_SetConfig>
 80022cc:	6822      	ldr	r2, [r4, #0]
 80022ce:	6893      	ldr	r3, [r2, #8]
 80022d0:	f443 4380 	orr.w	r3, r3, #16384	; 0x4000
 80022d4:	e008      	b.n	80022e8 <HAL_TIM_ConfigClockSource+0xc6>
 80022d6:	68cb      	ldr	r3, [r1, #12]
 80022d8:	e9d1 2101 	ldrd	r2, r1, [r1, #4]
 80022dc:	f7ff ff97 	bl	800220e <TIM_ETR_SetConfig>
 80022e0:	6822      	ldr	r2, [r4, #0]
 80022e2:	6893      	ldr	r3, [r2, #8]
 80022e4:	f043 0377 	orr.w	r3, r3, #119	; 0x77
 80022e8:	6093      	str	r3, [r2, #8]
 80022ea:	e7c4      	b.n	8002276 <HAL_TIM_ConfigClockSource+0x54>
 80022ec:	684d      	ldr	r5, [r1, #4]
 80022ee:	68ce      	ldr	r6, [r1, #12]
 80022f0:	6a01      	ldr	r1, [r0, #32]
 80022f2:	f021 0110 	bic.w	r1, r1, #16
 80022f6:	6201      	str	r1, [r0, #32]
 80022f8:	6982      	ldr	r2, [r0, #24]
 80022fa:	6a03      	ldr	r3, [r0, #32]
 80022fc:	f422 4270 	bic.w	r2, r2, #61440	; 0xf000
 8002300:	f023 03a0 	bic.w	r3, r3, #160	; 0xa0
 8002304:	ea43 1305 	orr.w	r3, r3, r5, lsl #4
 8002308:	ea42 3206 	orr.w	r2, r2, r6, lsl #12
 800230c:	6182      	str	r2, [r0, #24]
 800230e:	6203      	str	r3, [r0, #32]
 8002310:	6883      	ldr	r3, [r0, #8]
 8002312:	f023 0370 	bic.w	r3, r3, #112	; 0x70
 8002316:	f043 0367 	orr.w	r3, r3, #103	; 0x67
 800231a:	e7cb      	b.n	80022b4 <HAL_TIM_ConfigClockSource+0x92>
 800231c:	684a      	ldr	r2, [r1, #4]
 800231e:	68ce      	ldr	r6, [r1, #12]
 8002320:	6a01      	ldr	r1, [r0, #32]
 8002322:	6a05      	ldr	r5, [r0, #32]
 8002324:	f025 0501 	bic.w	r5, r5, #1
 8002328:	6205      	str	r5, [r0, #32]
 800232a:	6983      	ldr	r3, [r0, #24]
 800232c:	f021 010a 	bic.w	r1, r1, #10
 8002330:	f023 03f0 	bic.w	r3, r3, #240	; 0xf0
 8002334:	ea43 1306 	orr.w	r3, r3, r6, lsl #4
 8002338:	430a      	orrs	r2, r1
 800233a:	6183      	str	r3, [r0, #24]
 800233c:	6202      	str	r2, [r0, #32]
 800233e:	6883      	ldr	r3, [r0, #8]
 8002340:	f023 0370 	bic.w	r3, r3, #112	; 0x70
 8002344:	f043 0347 	orr.w	r3, r3, #71	; 0x47
 8002348:	e7b4      	b.n	80022b4 <HAL_TIM_ConfigClockSource+0x92>

0800234a <TIM_CCxChannelCmd>:
 800234a:	6a03      	ldr	r3, [r0, #32]
 800234c:	f001 011f 	and.w	r1, r1, #31
 8002350:	b510      	push	{r4, lr}
 8002352:	2401      	movs	r4, #1
 8002354:	408c      	lsls	r4, r1
 8002356:	ea23 0304 	bic.w	r3, r3, r4
 800235a:	6203      	str	r3, [r0, #32]
 800235c:	6a03      	ldr	r3, [r0, #32]
 800235e:	408a      	lsls	r2, r1
 8002360:	431a      	orrs	r2, r3
 8002362:	6202      	str	r2, [r0, #32]
 8002364:	bd10      	pop	{r4, pc}
	...

08002368 <HAL_TIM_OC_Start>:
 8002368:	b510      	push	{r4, lr}
 800236a:	4604      	mov	r4, r0
 800236c:	b929      	cbnz	r1, 800237a <HAL_TIM_OC_Start+0x12>
 800236e:	f890 303e 	ldrb.w	r3, [r0, #62]	; 0x3e
 8002372:	2b01      	cmp	r3, #1
 8002374:	d01d      	beq.n	80023b2 <HAL_TIM_OC_Start+0x4a>
 8002376:	2001      	movs	r0, #1
 8002378:	e032      	b.n	80023e0 <HAL_TIM_OC_Start+0x78>
 800237a:	2904      	cmp	r1, #4
 800237c:	d107      	bne.n	800238e <HAL_TIM_OC_Start+0x26>
 800237e:	f890 303f 	ldrb.w	r3, [r0, #63]	; 0x3f
 8002382:	2b01      	cmp	r3, #1
 8002384:	d1f7      	bne.n	8002376 <HAL_TIM_OC_Start+0xe>
 8002386:	2302      	movs	r3, #2
 8002388:	f880 303f 	strb.w	r3, [r0, #63]	; 0x3f
 800238c:	e014      	b.n	80023b8 <HAL_TIM_OC_Start+0x50>
 800238e:	2908      	cmp	r1, #8
 8002390:	d107      	bne.n	80023a2 <HAL_TIM_OC_Start+0x3a>
 8002392:	f890 3040 	ldrb.w	r3, [r0, #64]	; 0x40
 8002396:	2b01      	cmp	r3, #1
 8002398:	d1ed      	bne.n	8002376 <HAL_TIM_OC_Start+0xe>
 800239a:	2302      	movs	r3, #2
 800239c:	f880 3040 	strb.w	r3, [r0, #64]	; 0x40
 80023a0:	e00a      	b.n	80023b8 <HAL_TIM_OC_Start+0x50>
 80023a2:	f890 3041 	ldrb.w	r3, [r0, #65]	; 0x41
 80023a6:	2b01      	cmp	r3, #1
 80023a8:	d1e5      	bne.n	8002376 <HAL_TIM_OC_Start+0xe>
 80023aa:	2302      	movs	r3, #2
 80023ac:	f880 3041 	strb.w	r3, [r0, #65]	; 0x41
 80023b0:	e002      	b.n	80023b8 <HAL_TIM_OC_Start+0x50>
 80023b2:	2302      	movs	r3, #2
 80023b4:	f880 303e 	strb.w	r3, [r0, #62]	; 0x3e
 80023b8:	2201      	movs	r2, #1
 80023ba:	6820      	ldr	r0, [r4, #0]
 80023bc:	f7ff ffc5 	bl	800234a <TIM_CCxChannelCmd>
 80023c0:	6823      	ldr	r3, [r4, #0]
 80023c2:	4a19      	ldr	r2, [pc, #100]	; (8002428 <HAL_TIM_OC_Start+0xc0>)
 80023c4:	4293      	cmp	r3, r2
 80023c6:	d00c      	beq.n	80023e2 <HAL_TIM_OC_Start+0x7a>
 80023c8:	4918      	ldr	r1, [pc, #96]	; (800242c <HAL_TIM_OC_Start+0xc4>)
 80023ca:	428b      	cmp	r3, r1
 80023cc:	d009      	beq.n	80023e2 <HAL_TIM_OC_Start+0x7a>
 80023ce:	f1b3 4f80 	cmp.w	r3, #1073741824	; 0x40000000
 80023d2:	d10d      	bne.n	80023f0 <HAL_TIM_OC_Start+0x88>
 80023d4:	689a      	ldr	r2, [r3, #8]
 80023d6:	f002 0207 	and.w	r2, r2, #7
 80023da:	2a06      	cmp	r2, #6
 80023dc:	d11f      	bne.n	800241e <HAL_TIM_OC_Start+0xb6>
 80023de:	2000      	movs	r0, #0
 80023e0:	bd10      	pop	{r4, pc}
 80023e2:	6c59      	ldr	r1, [r3, #68]	; 0x44
 80023e4:	4293      	cmp	r3, r2
 80023e6:	f441 4100 	orr.w	r1, r1, #32768	; 0x8000
 80023ea:	6459      	str	r1, [r3, #68]	; 0x44
 80023ec:	d0f2      	beq.n	80023d4 <HAL_TIM_OC_Start+0x6c>
 80023ee:	e7ee      	b.n	80023ce <HAL_TIM_OC_Start+0x66>
 80023f0:	4a0f      	ldr	r2, [pc, #60]	; (8002430 <HAL_TIM_OC_Start+0xc8>)
 80023f2:	4293      	cmp	r3, r2
 80023f4:	d0ee      	beq.n	80023d4 <HAL_TIM_OC_Start+0x6c>
 80023f6:	f502 6280 	add.w	r2, r2, #1024	; 0x400
 80023fa:	4293      	cmp	r3, r2
 80023fc:	d0ea      	beq.n	80023d4 <HAL_TIM_OC_Start+0x6c>
 80023fe:	f502 6280 	add.w	r2, r2, #1024	; 0x400
 8002402:	4293      	cmp	r3, r2
 8002404:	d0e6      	beq.n	80023d4 <HAL_TIM_OC_Start+0x6c>
 8002406:	f502 4278 	add.w	r2, r2, #63488	; 0xf800
 800240a:	4293      	cmp	r3, r2
 800240c:	d0e2      	beq.n	80023d4 <HAL_TIM_OC_Start+0x6c>
 800240e:	f502 5270 	add.w	r2, r2, #15360	; 0x3c00
 8002412:	4293      	cmp	r3, r2
 8002414:	d0de      	beq.n	80023d4 <HAL_TIM_OC_Start+0x6c>
 8002416:	f5a2 3294 	sub.w	r2, r2, #75776	; 0x12800
 800241a:	4293      	cmp	r3, r2
 800241c:	d0da      	beq.n	80023d4 <HAL_TIM_OC_Start+0x6c>
 800241e:	681a      	ldr	r2, [r3, #0]
 8002420:	f042 0201 	orr.w	r2, r2, #1
 8002424:	601a      	str	r2, [r3, #0]
 8002426:	e7da      	b.n	80023de <HAL_TIM_OC_Start+0x76>
 8002428:	40010000 	.word	0x40010000
 800242c:	40010400 	.word	0x40010400
 8002430:	40000400 	.word	0x40000400

08002434 <HAL_TIM_PWM_Start>:
 8002434:	f7ff bf98 	b.w	8002368 <HAL_TIM_OC_Start>

08002438 <HAL_TIM_OC_Start_IT>:
 8002438:	b510      	push	{r4, lr}
 800243a:	4604      	mov	r4, r0
 800243c:	b929      	cbnz	r1, 800244a <HAL_TIM_OC_Start_IT+0x12>
 800243e:	f890 303e 	ldrb.w	r3, [r0, #62]	; 0x3e
 8002442:	2b01      	cmp	r3, #1
 8002444:	d02b      	beq.n	800249e <HAL_TIM_OC_Start_IT+0x66>
 8002446:	2001      	movs	r0, #1
 8002448:	e045      	b.n	80024d6 <HAL_TIM_OC_Start_IT+0x9e>
 800244a:	2904      	cmp	r1, #4
 800244c:	d10b      	bne.n	8002466 <HAL_TIM_OC_Start_IT+0x2e>
 800244e:	f890 303f 	ldrb.w	r3, [r0, #63]	; 0x3f
 8002452:	2b01      	cmp	r3, #1
 8002454:	d1f7      	bne.n	8002446 <HAL_TIM_OC_Start_IT+0xe>
 8002456:	2302      	movs	r3, #2
 8002458:	6802      	ldr	r2, [r0, #0]
 800245a:	f880 303f 	strb.w	r3, [r0, #63]	; 0x3f
 800245e:	68d3      	ldr	r3, [r2, #12]
 8002460:	f043 0304 	orr.w	r3, r3, #4
 8002464:	e022      	b.n	80024ac <HAL_TIM_OC_Start_IT+0x74>
 8002466:	2908      	cmp	r1, #8
 8002468:	d10b      	bne.n	8002482 <HAL_TIM_OC_Start_IT+0x4a>
 800246a:	f890 3040 	ldrb.w	r3, [r0, #64]	; 0x40
 800246e:	2b01      	cmp	r3, #1
 8002470:	d1e9      	bne.n	8002446 <HAL_TIM_OC_Start_IT+0xe>
 8002472:	2302      	movs	r3, #2
 8002474:	6802      	ldr	r2, [r0, #0]
 8002476:	f880 3040 	strb.w	r3, [r0, #64]	; 0x40
 800247a:	68d3      	ldr	r3, [r2, #12]
 800247c:	f043 0308 	orr.w	r3, r3, #8
 8002480:	e014      	b.n	80024ac <HAL_TIM_OC_Start_IT+0x74>
 8002482:	f890 3041 	ldrb.w	r3, [r0, #65]	; 0x41
 8002486:	2b01      	cmp	r3, #1
 8002488:	d1dd      	bne.n	8002446 <HAL_TIM_OC_Start_IT+0xe>
 800248a:	2302      	movs	r3, #2
 800248c:	290c      	cmp	r1, #12
 800248e:	f880 3041 	strb.w	r3, [r0, #65]	; 0x41
 8002492:	d10c      	bne.n	80024ae <HAL_TIM_OC_Start_IT+0x76>
 8002494:	6802      	ldr	r2, [r0, #0]
 8002496:	68d3      	ldr	r3, [r2, #12]
 8002498:	f043 0310 	orr.w	r3, r3, #16
 800249c:	e006      	b.n	80024ac <HAL_TIM_OC_Start_IT+0x74>
 800249e:	2302      	movs	r3, #2
 80024a0:	6802      	ldr	r2, [r0, #0]
 80024a2:	f880 303e 	strb.w	r3, [r0, #62]	; 0x3e
 80024a6:	68d3      	ldr	r3, [r2, #12]
 80024a8:	f043 0302 	orr.w	r3, r3, #2
 80024ac:	60d3      	str	r3, [r2, #12]
 80024ae:	2201      	movs	r2, #1
 80024b0:	6820      	ldr	r0, [r4, #0]
 80024b2:	f7ff ff4a 	bl	800234a <TIM_CCxChannelCmd>
 80024b6:	6823      	ldr	r3, [r4, #0]
 80024b8:	4a19      	ldr	r2, [pc, #100]	; (8002520 <HAL_TIM_OC_Start_IT+0xe8>)
 80024ba:	4293      	cmp	r3, r2
 80024bc:	d00c      	beq.n	80024d8 <HAL_TIM_OC_Start_IT+0xa0>
 80024be:	4919      	ldr	r1, [pc, #100]	; (8002524 <HAL_TIM_OC_Start_IT+0xec>)
 80024c0:	428b      	cmp	r3, r1
 80024c2:	d009      	beq.n	80024d8 <HAL_TIM_OC_Start_IT+0xa0>
 80024c4:	f1b3 4f80 	cmp.w	r3, #1073741824	; 0x40000000
 80024c8:	d10d      	bne.n	80024e6 <HAL_TIM_OC_Start_IT+0xae>
 80024ca:	689a      	ldr	r2, [r3, #8]
 80024cc:	f002 0207 	and.w	r2, r2, #7
 80024d0:	2a06      	cmp	r2, #6
 80024d2:	d11f      	bne.n	8002514 <HAL_TIM_OC_Start_IT+0xdc>
 80024d4:	2000      	movs	r0, #0
 80024d6:	bd10      	pop	{r4, pc}
 80024d8:	6c59      	ldr	r1, [r3, #68]	; 0x44
 80024da:	4293      	cmp	r3, r2
 80024dc:	f441 4100 	orr.w	r1, r1, #32768	; 0x8000
 80024e0:	6459      	str	r1, [r3, #68]	; 0x44
 80024e2:	d0f2      	beq.n	80024ca <HAL_TIM_OC_Start_IT+0x92>
 80024e4:	e7ee      	b.n	80024c4 <HAL_TIM_OC_Start_IT+0x8c>
 80024e6:	4a10      	ldr	r2, [pc, #64]	; (8002528 <HAL_TIM_OC_Start_IT+0xf0>)
 80024e8:	4293      	cmp	r3, r2
 80024ea:	d0ee      	beq.n	80024ca <HAL_TIM_OC_Start_IT+0x92>
 80024ec:	f502 6280 	add.w	r2, r2, #1024	; 0x400
 80024f0:	4293      	cmp	r3, r2
 80024f2:	d0ea      	beq.n	80024ca <HAL_TIM_OC_Start_IT+0x92>
 80024f4:	f502 6280 	add.w	r2, r2, #1024	; 0x400
 80024f8:	4293      	cmp	r3, r2
 80024fa:	d0e6      	beq.n	80024ca <HAL_TIM_OC_Start_IT+0x92>
 80024fc:	f502 4278 	add.w	r2, r2, #63488	; 0xf800
 8002500:	4293      	cmp	r3, r2
 8002502:	d0e2      	beq.n	80024ca <HAL_TIM_OC_Start_IT+0x92>
 8002504:	f502 5270 	add.w	r2, r2, #15360	; 0x3c00
 8002508:	4293      	cmp	r3, r2
 800250a:	d0de      	beq.n	80024ca <HAL_TIM_OC_Start_IT+0x92>
 800250c:	f5a2 3294 	sub.w	r2, r2, #75776	; 0x12800
 8002510:	4293      	cmp	r3, r2
 8002512:	d0da      	beq.n	80024ca <HAL_TIM_OC_Start_IT+0x92>
 8002514:	681a      	ldr	r2, [r3, #0]
 8002516:	f042 0201 	orr.w	r2, r2, #1
 800251a:	601a      	str	r2, [r3, #0]
 800251c:	e7da      	b.n	80024d4 <HAL_TIM_OC_Start_IT+0x9c>
 800251e:	bf00      	nop
 8002520:	40010000 	.word	0x40010000
 8002524:	40010400 	.word	0x40010400
 8002528:	40000400 	.word	0x40000400

0800252c <HAL_TIM_PWM_Start_IT>:
 800252c:	f7ff bf84 	b.w	8002438 <HAL_TIM_OC_Start_IT>

08002530 <HAL_TIMEx_MasterConfigSynchronization>:
 8002530:	b530      	push	{r4, r5, lr}
 8002532:	f890 303c 	ldrb.w	r3, [r0, #60]	; 0x3c
 8002536:	2b01      	cmp	r3, #1
 8002538:	f04f 0302 	mov.w	r3, #2
 800253c:	d032      	beq.n	80025a4 <HAL_TIMEx_MasterConfigSynchronization+0x74>
 800253e:	f880 303d 	strb.w	r3, [r0, #61]	; 0x3d
 8002542:	6803      	ldr	r3, [r0, #0]
 8002544:	680d      	ldr	r5, [r1, #0]
 8002546:	685c      	ldr	r4, [r3, #4]
 8002548:	689a      	ldr	r2, [r3, #8]
 800254a:	f024 0470 	bic.w	r4, r4, #112	; 0x70
 800254e:	432c      	orrs	r4, r5
 8002550:	605c      	str	r4, [r3, #4]
 8002552:	4c15      	ldr	r4, [pc, #84]	; (80025a8 <HAL_TIMEx_MasterConfigSynchronization+0x78>)
 8002554:	42a3      	cmp	r3, r4
 8002556:	d01a      	beq.n	800258e <HAL_TIMEx_MasterConfigSynchronization+0x5e>
 8002558:	f1b3 4f80 	cmp.w	r3, #1073741824	; 0x40000000
 800255c:	d017      	beq.n	800258e <HAL_TIMEx_MasterConfigSynchronization+0x5e>
 800255e:	f5a4 447c 	sub.w	r4, r4, #64512	; 0xfc00
 8002562:	42a3      	cmp	r3, r4
 8002564:	d013      	beq.n	800258e <HAL_TIMEx_MasterConfigSynchronization+0x5e>
 8002566:	f504 6480 	add.w	r4, r4, #1024	; 0x400
 800256a:	42a3      	cmp	r3, r4
 800256c:	d00f      	beq.n	800258e <HAL_TIMEx_MasterConfigSynchronization+0x5e>
 800256e:	f504 6480 	add.w	r4, r4, #1024	; 0x400
 8002572:	42a3      	cmp	r3, r4
 8002574:	d00b      	beq.n	800258e <HAL_TIMEx_MasterConfigSynchronization+0x5e>
 8002576:	f504 4478 	add.w	r4, r4, #63488	; 0xf800
 800257a:	42a3      	cmp	r3, r4
 800257c:	d007      	beq.n	800258e <HAL_TIMEx_MasterConfigSynchronization+0x5e>
 800257e:	f504 5470 	add.w	r4, r4, #15360	; 0x3c00
 8002582:	42a3      	cmp	r3, r4
 8002584:	d003      	beq.n	800258e <HAL_TIMEx_MasterConfigSynchronization+0x5e>
 8002586:	f5a4 3494 	sub.w	r4, r4, #75776	; 0x12800
 800258a:	42a3      	cmp	r3, r4
 800258c:	d104      	bne.n	8002598 <HAL_TIMEx_MasterConfigSynchronization+0x68>
 800258e:	6849      	ldr	r1, [r1, #4]
 8002590:	f022 0280 	bic.w	r2, r2, #128	; 0x80
 8002594:	430a      	orrs	r2, r1
 8002596:	609a      	str	r2, [r3, #8]
 8002598:	2301      	movs	r3, #1
 800259a:	f880 303d 	strb.w	r3, [r0, #61]	; 0x3d
 800259e:	2300      	movs	r3, #0
 80025a0:	f880 303c 	strb.w	r3, [r0, #60]	; 0x3c
 80025a4:	4618      	mov	r0, r3
 80025a6:	bd30      	pop	{r4, r5, pc}
 80025a8:	40010000 	.word	0x40010000

080025ac <HAL_TIMEx_CommutCallback>:
 80025ac:	4770      	bx	lr

080025ae <HAL_TIMEx_BreakCallback>:
 80025ae:	4770      	bx	lr

080025b0 <UART_EndRxTransfer>:
 80025b0:	6803      	ldr	r3, [r0, #0]
 80025b2:	68da      	ldr	r2, [r3, #12]
 80025b4:	f422 7290 	bic.w	r2, r2, #288	; 0x120
 80025b8:	60da      	str	r2, [r3, #12]
 80025ba:	695a      	ldr	r2, [r3, #20]
 80025bc:	f022 0201 	bic.w	r2, r2, #1
 80025c0:	615a      	str	r2, [r3, #20]
 80025c2:	6b02      	ldr	r2, [r0, #48]	; 0x30
 80025c4:	2a01      	cmp	r2, #1
 80025c6:	bf02      	ittt	eq
 80025c8:	68da      	ldreq	r2, [r3, #12]
 80025ca:	f022 0210 	biceq.w	r2, r2, #16
 80025ce:	60da      	streq	r2, [r3, #12]
 80025d0:	2320      	movs	r3, #32
 80025d2:	f880 303e 	strb.w	r3, [r0, #62]	; 0x3e
 80025d6:	2300      	movs	r3, #0
 80025d8:	6303      	str	r3, [r0, #48]	; 0x30
 80025da:	4770      	bx	lr

080025dc <UART_SetConfig>:
 80025dc:	6802      	ldr	r2, [r0, #0]
 80025de:	68c1      	ldr	r1, [r0, #12]
 80025e0:	b538      	push	{r3, r4, r5, lr}
 80025e2:	6913      	ldr	r3, [r2, #16]
 80025e4:	f423 5340 	bic.w	r3, r3, #12288	; 0x3000
 80025e8:	430b      	orrs	r3, r1
 80025ea:	6113      	str	r3, [r2, #16]
 80025ec:	4605      	mov	r5, r0
 80025ee:	6883      	ldr	r3, [r0, #8]
 80025f0:	6900      	ldr	r0, [r0, #16]
 80025f2:	68d1      	ldr	r1, [r2, #12]
 80025f4:	4303      	orrs	r3, r0
 80025f6:	6968      	ldr	r0, [r5, #20]
 80025f8:	4303      	orrs	r3, r0
 80025fa:	69e8      	ldr	r0, [r5, #28]
 80025fc:	f421 4116 	bic.w	r1, r1, #38400	; 0x9600
 8002600:	f021 010c 	bic.w	r1, r1, #12
 8002604:	4303      	orrs	r3, r0
 8002606:	430b      	orrs	r3, r1
 8002608:	60d3      	str	r3, [r2, #12]
 800260a:	6953      	ldr	r3, [r2, #20]
 800260c:	69a9      	ldr	r1, [r5, #24]
 800260e:	f423 7340 	bic.w	r3, r3, #768	; 0x300
 8002612:	430b      	orrs	r3, r1
 8002614:	6153      	str	r3, [r2, #20]
 8002616:	4b1f      	ldr	r3, [pc, #124]	; (8002694 <UART_SetConfig+0xb8>)
 8002618:	429a      	cmp	r2, r3
 800261a:	d003      	beq.n	8002624 <UART_SetConfig+0x48>
 800261c:	f503 6380 	add.w	r3, r3, #1024	; 0x400
 8002620:	429a      	cmp	r2, r3
 8002622:	d124      	bne.n	800266e <UART_SetConfig+0x92>
 8002624:	f7ff fb28 	bl	8001c78 <HAL_RCC_GetPCLK2Freq>
 8002628:	69ea      	ldr	r2, [r5, #28]
 800262a:	2319      	movs	r3, #25
 800262c:	f5b2 4f00 	cmp.w	r2, #32768	; 0x8000
 8002630:	fba0 0103 	umull	r0, r1, r0, r3
 8002634:	e9d5 4300 	ldrd	r4, r3, [r5]
 8002638:	d11c      	bne.n	8002674 <UART_SetConfig+0x98>
 800263a:	461a      	mov	r2, r3
 800263c:	1892      	adds	r2, r2, r2
 800263e:	f04f 0300 	mov.w	r3, #0
 8002642:	415b      	adcs	r3, r3
 8002644:	f7fd fe2c 	bl	80002a0 <__aeabi_uldivmod>
 8002648:	2164      	movs	r1, #100	; 0x64
 800264a:	fbb0 f5f1 	udiv	r5, r0, r1
 800264e:	fb01 0315 	mls	r3, r1, r5, r0
 8002652:	00db      	lsls	r3, r3, #3
 8002654:	3332      	adds	r3, #50	; 0x32
 8002656:	fbb3 f3f1 	udiv	r3, r3, r1
 800265a:	f003 0207 	and.w	r2, r3, #7
 800265e:	005b      	lsls	r3, r3, #1
 8002660:	eb02 1205 	add.w	r2, r2, r5, lsl #4
 8002664:	f403 73f8 	and.w	r3, r3, #496	; 0x1f0
 8002668:	4413      	add	r3, r2
 800266a:	60a3      	str	r3, [r4, #8]
 800266c:	bd38      	pop	{r3, r4, r5, pc}
 800266e:	f7ff faf3 	bl	8001c58 <HAL_RCC_GetPCLK1Freq>
 8002672:	e7d9      	b.n	8002628 <UART_SetConfig+0x4c>
 8002674:	009a      	lsls	r2, r3, #2
 8002676:	0f9b      	lsrs	r3, r3, #30
 8002678:	f7fd fe12 	bl	80002a0 <__aeabi_uldivmod>
 800267c:	2264      	movs	r2, #100	; 0x64
 800267e:	fbb0 f1f2 	udiv	r1, r0, r2
 8002682:	fb02 0311 	mls	r3, r2, r1, r0
 8002686:	011b      	lsls	r3, r3, #4
 8002688:	3332      	adds	r3, #50	; 0x32
 800268a:	fbb3 f3f2 	udiv	r3, r3, r2
 800268e:	eb03 1301 	add.w	r3, r3, r1, lsl #4
 8002692:	e7ea      	b.n	800266a <UART_SetConfig+0x8e>
 8002694:	40011000 	.word	0x40011000

08002698 <UART_WaitOnFlagUntilTimeout.constprop.0>:
 8002698:	b5f8      	push	{r3, r4, r5, r6, r7, lr}
 800269a:	4604      	mov	r4, r0
 800269c:	460e      	mov	r6, r1
 800269e:	4617      	mov	r7, r2
 80026a0:	461d      	mov	r5, r3
 80026a2:	6822      	ldr	r2, [r4, #0]
 80026a4:	6813      	ldr	r3, [r2, #0]
 80026a6:	ea36 0303 	bics.w	r3, r6, r3
 80026aa:	d101      	bne.n	80026b0 <UART_WaitOnFlagUntilTimeout.constprop.0+0x18>
 80026ac:	2000      	movs	r0, #0
 80026ae:	e014      	b.n	80026da <UART_WaitOnFlagUntilTimeout.constprop.0+0x42>
 80026b0:	1c6b      	adds	r3, r5, #1
 80026b2:	d0f7      	beq.n	80026a4 <UART_WaitOnFlagUntilTimeout.constprop.0+0xc>
 80026b4:	b995      	cbnz	r5, 80026dc <UART_WaitOnFlagUntilTimeout.constprop.0+0x44>
 80026b6:	6823      	ldr	r3, [r4, #0]
 80026b8:	68da      	ldr	r2, [r3, #12]
 80026ba:	f422 72d0 	bic.w	r2, r2, #416	; 0x1a0
 80026be:	60da      	str	r2, [r3, #12]
 80026c0:	695a      	ldr	r2, [r3, #20]
 80026c2:	f022 0201 	bic.w	r2, r2, #1
 80026c6:	615a      	str	r2, [r3, #20]
 80026c8:	2320      	movs	r3, #32
 80026ca:	f884 303d 	strb.w	r3, [r4, #61]	; 0x3d
 80026ce:	f884 303e 	strb.w	r3, [r4, #62]	; 0x3e
 80026d2:	2300      	movs	r3, #0
 80026d4:	f884 303c 	strb.w	r3, [r4, #60]	; 0x3c
 80026d8:	2003      	movs	r0, #3
 80026da:	bdf8      	pop	{r3, r4, r5, r6, r7, pc}
 80026dc:	f7fe fd14 	bl	8001108 <HAL_GetTick>
 80026e0:	1bc0      	subs	r0, r0, r7
 80026e2:	4285      	cmp	r5, r0
 80026e4:	d2dd      	bcs.n	80026a2 <UART_WaitOnFlagUntilTimeout.constprop.0+0xa>
 80026e6:	e7e6      	b.n	80026b6 <UART_WaitOnFlagUntilTimeout.constprop.0+0x1e>

080026e8 <HAL_UART_Init>:
 80026e8:	b510      	push	{r4, lr}
 80026ea:	4604      	mov	r4, r0
 80026ec:	b340      	cbz	r0, 8002740 <HAL_UART_Init+0x58>
 80026ee:	f890 303d 	ldrb.w	r3, [r0, #61]	; 0x3d
 80026f2:	f003 02ff 	and.w	r2, r3, #255	; 0xff
 80026f6:	b91b      	cbnz	r3, 8002700 <HAL_UART_Init+0x18>
 80026f8:	f880 203c 	strb.w	r2, [r0, #60]	; 0x3c
 80026fc:	f7fe fba8 	bl	8000e50 <HAL_UART_MspInit>
 8002700:	6822      	ldr	r2, [r4, #0]
 8002702:	2324      	movs	r3, #36	; 0x24
 8002704:	f884 303d 	strb.w	r3, [r4, #61]	; 0x3d
 8002708:	68d3      	ldr	r3, [r2, #12]
 800270a:	f423 5300 	bic.w	r3, r3, #8192	; 0x2000
 800270e:	60d3      	str	r3, [r2, #12]
 8002710:	4620      	mov	r0, r4
 8002712:	f7ff ff63 	bl	80025dc <UART_SetConfig>
 8002716:	6823      	ldr	r3, [r4, #0]
 8002718:	691a      	ldr	r2, [r3, #16]
 800271a:	f422 4290 	bic.w	r2, r2, #18432	; 0x4800
 800271e:	611a      	str	r2, [r3, #16]
 8002720:	695a      	ldr	r2, [r3, #20]
 8002722:	f022 022a 	bic.w	r2, r2, #42	; 0x2a
 8002726:	615a      	str	r2, [r3, #20]
 8002728:	68da      	ldr	r2, [r3, #12]
 800272a:	f442 5200 	orr.w	r2, r2, #8192	; 0x2000
 800272e:	60da      	str	r2, [r3, #12]
 8002730:	2000      	movs	r0, #0
 8002732:	2320      	movs	r3, #32
 8002734:	6420      	str	r0, [r4, #64]	; 0x40
 8002736:	f884 303d 	strb.w	r3, [r4, #61]	; 0x3d
 800273a:	f884 303e 	strb.w	r3, [r4, #62]	; 0x3e
 800273e:	bd10      	pop	{r4, pc}
 8002740:	2001      	movs	r0, #1
 8002742:	e7fc      	b.n	800273e <HAL_UART_Init+0x56>

08002744 <HAL_UART_Transmit>:
 8002744:	b5f7      	push	{r0, r1, r2, r4, r5, r6, r7, lr}
 8002746:	4617      	mov	r7, r2
 8002748:	f890 203d 	ldrb.w	r2, [r0, #61]	; 0x3d
 800274c:	9300      	str	r3, [sp, #0]
 800274e:	2a20      	cmp	r2, #32
 8002750:	4604      	mov	r4, r0
 8002752:	460e      	mov	r6, r1
 8002754:	d149      	bne.n	80027ea <HAL_UART_Transmit+0xa6>
 8002756:	2900      	cmp	r1, #0
 8002758:	d045      	beq.n	80027e6 <HAL_UART_Transmit+0xa2>
 800275a:	2f00      	cmp	r7, #0
 800275c:	d043      	beq.n	80027e6 <HAL_UART_Transmit+0xa2>
 800275e:	f890 203c 	ldrb.w	r2, [r0, #60]	; 0x3c
 8002762:	2a01      	cmp	r2, #1
 8002764:	d041      	beq.n	80027ea <HAL_UART_Transmit+0xa6>
 8002766:	2201      	movs	r2, #1
 8002768:	f880 203c 	strb.w	r2, [r0, #60]	; 0x3c
 800276c:	2500      	movs	r5, #0
 800276e:	2221      	movs	r2, #33	; 0x21
 8002770:	6405      	str	r5, [r0, #64]	; 0x40
 8002772:	f880 203d 	strb.w	r2, [r0, #61]	; 0x3d
 8002776:	f7fe fcc7 	bl	8001108 <HAL_GetTick>
 800277a:	68a1      	ldr	r1, [r4, #8]
 800277c:	9b00      	ldr	r3, [sp, #0]
 800277e:	84a7      	strh	r7, [r4, #36]	; 0x24
 8002780:	f5b1 5f80 	cmp.w	r1, #4096	; 0x1000
 8002784:	4602      	mov	r2, r0
 8002786:	84e7      	strh	r7, [r4, #38]	; 0x26
 8002788:	d103      	bne.n	8002792 <HAL_UART_Transmit+0x4e>
 800278a:	6921      	ldr	r1, [r4, #16]
 800278c:	b909      	cbnz	r1, 8002792 <HAL_UART_Transmit+0x4e>
 800278e:	4635      	mov	r5, r6
 8002790:	460e      	mov	r6, r1
 8002792:	2100      	movs	r1, #0
 8002794:	f884 103c 	strb.w	r1, [r4, #60]	; 0x3c
 8002798:	8ce1      	ldrh	r1, [r4, #38]	; 0x26
 800279a:	b289      	uxth	r1, r1
 800279c:	b941      	cbnz	r1, 80027b0 <HAL_UART_Transmit+0x6c>
 800279e:	2140      	movs	r1, #64	; 0x40
 80027a0:	4620      	mov	r0, r4
 80027a2:	f7ff ff79 	bl	8002698 <UART_WaitOnFlagUntilTimeout.constprop.0>
 80027a6:	b960      	cbnz	r0, 80027c2 <HAL_UART_Transmit+0x7e>
 80027a8:	2320      	movs	r3, #32
 80027aa:	f884 303d 	strb.w	r3, [r4, #61]	; 0x3d
 80027ae:	e009      	b.n	80027c4 <HAL_UART_Transmit+0x80>
 80027b0:	2180      	movs	r1, #128	; 0x80
 80027b2:	4620      	mov	r0, r4
 80027b4:	e9cd 2300 	strd	r2, r3, [sp]
 80027b8:	f7ff ff6e 	bl	8002698 <UART_WaitOnFlagUntilTimeout.constprop.0>
 80027bc:	e9dd 2300 	ldrd	r2, r3, [sp]
 80027c0:	b110      	cbz	r0, 80027c8 <HAL_UART_Transmit+0x84>
 80027c2:	2003      	movs	r0, #3
 80027c4:	b003      	add	sp, #12
 80027c6:	bdf0      	pop	{r4, r5, r6, r7, pc}
 80027c8:	6820      	ldr	r0, [r4, #0]
 80027ca:	b94e      	cbnz	r6, 80027e0 <HAL_UART_Transmit+0x9c>
 80027cc:	f835 1b02 	ldrh.w	r1, [r5], #2
 80027d0:	f3c1 0108 	ubfx	r1, r1, #0, #9
 80027d4:	6041      	str	r1, [r0, #4]
 80027d6:	8ce1      	ldrh	r1, [r4, #38]	; 0x26
 80027d8:	3901      	subs	r1, #1
 80027da:	b289      	uxth	r1, r1
 80027dc:	84e1      	strh	r1, [r4, #38]	; 0x26
 80027de:	e7db      	b.n	8002798 <HAL_UART_Transmit+0x54>
 80027e0:	f816 1b01 	ldrb.w	r1, [r6], #1
 80027e4:	e7f6      	b.n	80027d4 <HAL_UART_Transmit+0x90>
 80027e6:	2001      	movs	r0, #1
 80027e8:	e7ec      	b.n	80027c4 <HAL_UART_Transmit+0x80>
 80027ea:	2002      	movs	r0, #2
 80027ec:	e7ea      	b.n	80027c4 <HAL_UART_Transmit+0x80>
	...

080027f0 <HAL_UART_Transmit_DMA>:
 80027f0:	b538      	push	{r3, r4, r5, lr}
 80027f2:	4604      	mov	r4, r0
 80027f4:	4613      	mov	r3, r2
 80027f6:	f894 203d 	ldrb.w	r2, [r4, #61]	; 0x3d
 80027fa:	2a20      	cmp	r2, #32
 80027fc:	d12a      	bne.n	8002854 <HAL_UART_Transmit_DMA+0x64>
 80027fe:	b339      	cbz	r1, 8002850 <HAL_UART_Transmit_DMA+0x60>
 8002800:	b333      	cbz	r3, 8002850 <HAL_UART_Transmit_DMA+0x60>
 8002802:	f894 203c 	ldrb.w	r2, [r4, #60]	; 0x3c
 8002806:	2a01      	cmp	r2, #1
 8002808:	d024      	beq.n	8002854 <HAL_UART_Transmit_DMA+0x64>
 800280a:	2201      	movs	r2, #1
 800280c:	f884 203c 	strb.w	r2, [r4, #60]	; 0x3c
 8002810:	6b60      	ldr	r0, [r4, #52]	; 0x34
 8002812:	84e3      	strh	r3, [r4, #38]	; 0x26
 8002814:	2500      	movs	r5, #0
 8002816:	2221      	movs	r2, #33	; 0x21
 8002818:	6425      	str	r5, [r4, #64]	; 0x40
 800281a:	f884 203d 	strb.w	r2, [r4, #61]	; 0x3d
 800281e:	4a0e      	ldr	r2, [pc, #56]	; (8002858 <HAL_UART_Transmit_DMA+0x68>)
 8002820:	84a3      	strh	r3, [r4, #36]	; 0x24
 8002822:	6221      	str	r1, [r4, #32]
 8002824:	63c2      	str	r2, [r0, #60]	; 0x3c
 8002826:	4a0d      	ldr	r2, [pc, #52]	; (800285c <HAL_UART_Transmit_DMA+0x6c>)
 8002828:	6402      	str	r2, [r0, #64]	; 0x40
 800282a:	4a0d      	ldr	r2, [pc, #52]	; (8002860 <HAL_UART_Transmit_DMA+0x70>)
 800282c:	e9c0 2513 	strd	r2, r5, [r0, #76]	; 0x4c
 8002830:	6822      	ldr	r2, [r4, #0]
 8002832:	3204      	adds	r2, #4
 8002834:	f7fe fd6c 	bl	8001310 <HAL_DMA_Start_IT>
 8002838:	6823      	ldr	r3, [r4, #0]
 800283a:	f06f 0240 	mvn.w	r2, #64	; 0x40
 800283e:	601a      	str	r2, [r3, #0]
 8002840:	f884 503c 	strb.w	r5, [r4, #60]	; 0x3c
 8002844:	695a      	ldr	r2, [r3, #20]
 8002846:	f042 0280 	orr.w	r2, r2, #128	; 0x80
 800284a:	615a      	str	r2, [r3, #20]
 800284c:	4628      	mov	r0, r5
 800284e:	bd38      	pop	{r3, r4, r5, pc}
 8002850:	2001      	movs	r0, #1
 8002852:	e7fc      	b.n	800284e <HAL_UART_Transmit_DMA+0x5e>
 8002854:	2002      	movs	r0, #2
 8002856:	e7fa      	b.n	800284e <HAL_UART_Transmit_DMA+0x5e>
 8002858:	08002865 	.word	0x08002865
 800285c:	08002893 	.word	0x08002893
 8002860:	080028a1 	.word	0x080028a1

08002864 <UART_DMATransmitCplt>:
 8002864:	b508      	push	{r3, lr}
 8002866:	6803      	ldr	r3, [r0, #0]
 8002868:	6b82      	ldr	r2, [r0, #56]	; 0x38
 800286a:	681b      	ldr	r3, [r3, #0]
 800286c:	f413 7380 	ands.w	r3, r3, #256	; 0x100
 8002870:	d10a      	bne.n	8002888 <UART_DMATransmitCplt+0x24>
 8002872:	84d3      	strh	r3, [r2, #38]	; 0x26
 8002874:	6813      	ldr	r3, [r2, #0]
 8002876:	695a      	ldr	r2, [r3, #20]
 8002878:	f022 0280 	bic.w	r2, r2, #128	; 0x80
 800287c:	615a      	str	r2, [r3, #20]
 800287e:	68da      	ldr	r2, [r3, #12]
 8002880:	f042 0240 	orr.w	r2, r2, #64	; 0x40
 8002884:	60da      	str	r2, [r3, #12]
 8002886:	bd08      	pop	{r3, pc}
 8002888:	4610      	mov	r0, r2
 800288a:	f7fe fbc1 	bl	8001010 <HAL_UART_TxCpltCallback>
 800288e:	e7fa      	b.n	8002886 <UART_DMATransmitCplt+0x22>

08002890 <HAL_UART_TxHalfCpltCallback>:
 8002890:	4770      	bx	lr

08002892 <UART_DMATxHalfCplt>:
 8002892:	b508      	push	{r3, lr}
 8002894:	6b80      	ldr	r0, [r0, #56]	; 0x38
 8002896:	f7ff fffb 	bl	8002890 <HAL_UART_TxHalfCpltCallback>
 800289a:	bd08      	pop	{r3, pc}

0800289c <HAL_UART_RxHalfCpltCallback>:
 800289c:	4770      	bx	lr

0800289e <HAL_UART_ErrorCallback>:
 800289e:	4770      	bx	lr

080028a0 <UART_DMAError>:
 80028a0:	b508      	push	{r3, lr}
 80028a2:	6b80      	ldr	r0, [r0, #56]	; 0x38
 80028a4:	6803      	ldr	r3, [r0, #0]
 80028a6:	695a      	ldr	r2, [r3, #20]
 80028a8:	f890 103d 	ldrb.w	r1, [r0, #61]	; 0x3d
 80028ac:	2921      	cmp	r1, #33	; 0x21
 80028ae:	d10a      	bne.n	80028c6 <UART_DMAError+0x26>
 80028b0:	0612      	lsls	r2, r2, #24
 80028b2:	d508      	bpl.n	80028c6 <UART_DMAError+0x26>
 80028b4:	2200      	movs	r2, #0
 80028b6:	84c2      	strh	r2, [r0, #38]	; 0x26
 80028b8:	68da      	ldr	r2, [r3, #12]
 80028ba:	f022 02c0 	bic.w	r2, r2, #192	; 0xc0
 80028be:	60da      	str	r2, [r3, #12]
 80028c0:	2220      	movs	r2, #32
 80028c2:	f880 203d 	strb.w	r2, [r0, #61]	; 0x3d
 80028c6:	695b      	ldr	r3, [r3, #20]
 80028c8:	f890 203e 	ldrb.w	r2, [r0, #62]	; 0x3e
 80028cc:	2a22      	cmp	r2, #34	; 0x22
 80028ce:	d105      	bne.n	80028dc <UART_DMAError+0x3c>
 80028d0:	065b      	lsls	r3, r3, #25
 80028d2:	d503      	bpl.n	80028dc <UART_DMAError+0x3c>
 80028d4:	2300      	movs	r3, #0
 80028d6:	85c3      	strh	r3, [r0, #46]	; 0x2e
 80028d8:	f7ff fe6a 	bl	80025b0 <UART_EndRxTransfer>
 80028dc:	6c03      	ldr	r3, [r0, #64]	; 0x40
 80028de:	f043 0310 	orr.w	r3, r3, #16
 80028e2:	6403      	str	r3, [r0, #64]	; 0x40
 80028e4:	f7ff ffdb 	bl	800289e <HAL_UART_ErrorCallback>
 80028e8:	bd08      	pop	{r3, pc}

080028ea <UART_DMAAbortOnError>:
 80028ea:	b508      	push	{r3, lr}
 80028ec:	6b80      	ldr	r0, [r0, #56]	; 0x38
 80028ee:	2300      	movs	r3, #0
 80028f0:	85c3      	strh	r3, [r0, #46]	; 0x2e
 80028f2:	84c3      	strh	r3, [r0, #38]	; 0x26
 80028f4:	f7ff ffd3 	bl	800289e <HAL_UART_ErrorCallback>
 80028f8:	bd08      	pop	{r3, pc}

080028fa <HAL_UARTEx_RxEventCallback>:
 80028fa:	4770      	bx	lr

080028fc <UART_Receive_IT>:
 80028fc:	b510      	push	{r4, lr}
 80028fe:	f890 303e 	ldrb.w	r3, [r0, #62]	; 0x3e
 8002902:	2b22      	cmp	r3, #34	; 0x22
 8002904:	4604      	mov	r4, r0
 8002906:	d143      	bne.n	8002990 <UART_Receive_IT+0x94>
 8002908:	6881      	ldr	r1, [r0, #8]
 800290a:	6a83      	ldr	r3, [r0, #40]	; 0x28
 800290c:	6802      	ldr	r2, [r0, #0]
 800290e:	f5b1 5f80 	cmp.w	r1, #4096	; 0x1000
 8002912:	d12c      	bne.n	800296e <UART_Receive_IT+0x72>
 8002914:	6901      	ldr	r1, [r0, #16]
 8002916:	2900      	cmp	r1, #0
 8002918:	d12c      	bne.n	8002974 <UART_Receive_IT+0x78>
 800291a:	6852      	ldr	r2, [r2, #4]
 800291c:	f3c2 0208 	ubfx	r2, r2, #0, #9
 8002920:	f823 2b02 	strh.w	r2, [r3], #2
 8002924:	62a3      	str	r3, [r4, #40]	; 0x28
 8002926:	8de3      	ldrh	r3, [r4, #46]	; 0x2e
 8002928:	3b01      	subs	r3, #1
 800292a:	b29b      	uxth	r3, r3
 800292c:	85e3      	strh	r3, [r4, #46]	; 0x2e
 800292e:	2b00      	cmp	r3, #0
 8002930:	d130      	bne.n	8002994 <UART_Receive_IT+0x98>
 8002932:	6823      	ldr	r3, [r4, #0]
 8002934:	68da      	ldr	r2, [r3, #12]
 8002936:	f022 0220 	bic.w	r2, r2, #32
 800293a:	60da      	str	r2, [r3, #12]
 800293c:	68da      	ldr	r2, [r3, #12]
 800293e:	f422 7280 	bic.w	r2, r2, #256	; 0x100
 8002942:	60da      	str	r2, [r3, #12]
 8002944:	695a      	ldr	r2, [r3, #20]
 8002946:	f022 0201 	bic.w	r2, r2, #1
 800294a:	615a      	str	r2, [r3, #20]
 800294c:	2220      	movs	r2, #32
 800294e:	f884 203e 	strb.w	r2, [r4, #62]	; 0x3e
 8002952:	6b22      	ldr	r2, [r4, #48]	; 0x30
 8002954:	2a01      	cmp	r2, #1
 8002956:	d117      	bne.n	8002988 <UART_Receive_IT+0x8c>
 8002958:	68da      	ldr	r2, [r3, #12]
 800295a:	8da1      	ldrh	r1, [r4, #44]	; 0x2c
 800295c:	f022 0210 	bic.w	r2, r2, #16
 8002960:	60da      	str	r2, [r3, #12]
 8002962:	4620      	mov	r0, r4
 8002964:	f7ff ffc9 	bl	80028fa <HAL_UARTEx_RxEventCallback>
 8002968:	2000      	movs	r0, #0
 800296a:	6320      	str	r0, [r4, #48]	; 0x30
 800296c:	bd10      	pop	{r4, pc}
 800296e:	b939      	cbnz	r1, 8002980 <UART_Receive_IT+0x84>
 8002970:	6901      	ldr	r1, [r0, #16]
 8002972:	b929      	cbnz	r1, 8002980 <UART_Receive_IT+0x84>
 8002974:	6852      	ldr	r2, [r2, #4]
 8002976:	b2d2      	uxtb	r2, r2
 8002978:	701a      	strb	r2, [r3, #0]
 800297a:	6aa3      	ldr	r3, [r4, #40]	; 0x28
 800297c:	3301      	adds	r3, #1
 800297e:	e7d1      	b.n	8002924 <UART_Receive_IT+0x28>
 8002980:	6852      	ldr	r2, [r2, #4]
 8002982:	f002 027f 	and.w	r2, r2, #127	; 0x7f
 8002986:	e7f7      	b.n	8002978 <UART_Receive_IT+0x7c>
 8002988:	4620      	mov	r0, r4
 800298a:	f7fe fadd 	bl	8000f48 <HAL_UART_RxCpltCallback>
 800298e:	e7eb      	b.n	8002968 <UART_Receive_IT+0x6c>
 8002990:	2002      	movs	r0, #2
 8002992:	e7eb      	b.n	800296c <UART_Receive_IT+0x70>
 8002994:	2000      	movs	r0, #0
 8002996:	e7e9      	b.n	800296c <UART_Receive_IT+0x70>

08002998 <HAL_UART_IRQHandler>:
 8002998:	6803      	ldr	r3, [r0, #0]
 800299a:	b537      	push	{r0, r1, r2, r4, r5, lr}
 800299c:	681a      	ldr	r2, [r3, #0]
 800299e:	68d9      	ldr	r1, [r3, #12]
 80029a0:	695d      	ldr	r5, [r3, #20]
 80029a2:	f012 0f0f 	tst.w	r2, #15
 80029a6:	4604      	mov	r4, r0
 80029a8:	d108      	bne.n	80029bc <HAL_UART_IRQHandler+0x24>
 80029aa:	0695      	lsls	r5, r2, #26
 80029ac:	d55f      	bpl.n	8002a6e <HAL_UART_IRQHandler+0xd6>
 80029ae:	068d      	lsls	r5, r1, #26
 80029b0:	d55d      	bpl.n	8002a6e <HAL_UART_IRQHandler+0xd6>
 80029b2:	b003      	add	sp, #12
 80029b4:	e8bd 4030 	ldmia.w	sp!, {r4, r5, lr}
 80029b8:	f7ff bfa0 	b.w	80028fc <UART_Receive_IT>
 80029bc:	f005 0001 	and.w	r0, r5, #1
 80029c0:	f401 7590 	and.w	r5, r1, #288	; 0x120
 80029c4:	4305      	orrs	r5, r0
 80029c6:	d052      	beq.n	8002a6e <HAL_UART_IRQHandler+0xd6>
 80029c8:	07d5      	lsls	r5, r2, #31
 80029ca:	d505      	bpl.n	80029d8 <HAL_UART_IRQHandler+0x40>
 80029cc:	05cb      	lsls	r3, r1, #23
 80029ce:	bf42      	ittt	mi
 80029d0:	6c23      	ldrmi	r3, [r4, #64]	; 0x40
 80029d2:	f043 0301 	orrmi.w	r3, r3, #1
 80029d6:	6423      	strmi	r3, [r4, #64]	; 0x40
 80029d8:	0755      	lsls	r5, r2, #29
 80029da:	d504      	bpl.n	80029e6 <HAL_UART_IRQHandler+0x4e>
 80029dc:	b118      	cbz	r0, 80029e6 <HAL_UART_IRQHandler+0x4e>
 80029de:	6c23      	ldr	r3, [r4, #64]	; 0x40
 80029e0:	f043 0302 	orr.w	r3, r3, #2
 80029e4:	6423      	str	r3, [r4, #64]	; 0x40
 80029e6:	0793      	lsls	r3, r2, #30
 80029e8:	d504      	bpl.n	80029f4 <HAL_UART_IRQHandler+0x5c>
 80029ea:	b118      	cbz	r0, 80029f4 <HAL_UART_IRQHandler+0x5c>
 80029ec:	6c23      	ldr	r3, [r4, #64]	; 0x40
 80029ee:	f043 0304 	orr.w	r3, r3, #4
 80029f2:	6423      	str	r3, [r4, #64]	; 0x40
 80029f4:	0715      	lsls	r5, r2, #28
 80029f6:	d507      	bpl.n	8002a08 <HAL_UART_IRQHandler+0x70>
 80029f8:	f001 0320 	and.w	r3, r1, #32
 80029fc:	4303      	orrs	r3, r0
 80029fe:	bf1e      	ittt	ne
 8002a00:	6c23      	ldrne	r3, [r4, #64]	; 0x40
 8002a02:	f043 0308 	orrne.w	r3, r3, #8
 8002a06:	6423      	strne	r3, [r4, #64]	; 0x40
 8002a08:	6c23      	ldr	r3, [r4, #64]	; 0x40
 8002a0a:	b353      	cbz	r3, 8002a62 <HAL_UART_IRQHandler+0xca>
 8002a0c:	0692      	lsls	r2, r2, #26
 8002a0e:	d504      	bpl.n	8002a1a <HAL_UART_IRQHandler+0x82>
 8002a10:	068b      	lsls	r3, r1, #26
 8002a12:	d502      	bpl.n	8002a1a <HAL_UART_IRQHandler+0x82>
 8002a14:	4620      	mov	r0, r4
 8002a16:	f7ff ff71 	bl	80028fc <UART_Receive_IT>
 8002a1a:	6823      	ldr	r3, [r4, #0]
 8002a1c:	695b      	ldr	r3, [r3, #20]
 8002a1e:	6c25      	ldr	r5, [r4, #64]	; 0x40
 8002a20:	f003 0340 	and.w	r3, r3, #64	; 0x40
 8002a24:	f005 0508 	and.w	r5, r5, #8
 8002a28:	431d      	orrs	r5, r3
 8002a2a:	4620      	mov	r0, r4
 8002a2c:	d01b      	beq.n	8002a66 <HAL_UART_IRQHandler+0xce>
 8002a2e:	f7ff fdbf 	bl	80025b0 <UART_EndRxTransfer>
 8002a32:	6823      	ldr	r3, [r4, #0]
 8002a34:	695a      	ldr	r2, [r3, #20]
 8002a36:	0655      	lsls	r5, r2, #25
 8002a38:	d510      	bpl.n	8002a5c <HAL_UART_IRQHandler+0xc4>
 8002a3a:	695a      	ldr	r2, [r3, #20]
 8002a3c:	6ba0      	ldr	r0, [r4, #56]	; 0x38
 8002a3e:	f022 0240 	bic.w	r2, r2, #64	; 0x40
 8002a42:	615a      	str	r2, [r3, #20]
 8002a44:	b150      	cbz	r0, 8002a5c <HAL_UART_IRQHandler+0xc4>
 8002a46:	4b54      	ldr	r3, [pc, #336]	; (8002b98 <HAL_UART_IRQHandler+0x200>)
 8002a48:	6503      	str	r3, [r0, #80]	; 0x50
 8002a4a:	f7fe fcdf 	bl	800140c <HAL_DMA_Abort_IT>
 8002a4e:	b140      	cbz	r0, 8002a62 <HAL_UART_IRQHandler+0xca>
 8002a50:	6ba0      	ldr	r0, [r4, #56]	; 0x38
 8002a52:	6d03      	ldr	r3, [r0, #80]	; 0x50
 8002a54:	b003      	add	sp, #12
 8002a56:	e8bd 4030 	ldmia.w	sp!, {r4, r5, lr}
 8002a5a:	4718      	bx	r3
 8002a5c:	4620      	mov	r0, r4
 8002a5e:	f7ff ff1e 	bl	800289e <HAL_UART_ErrorCallback>
 8002a62:	b003      	add	sp, #12
 8002a64:	bd30      	pop	{r4, r5, pc}
 8002a66:	f7ff ff1a 	bl	800289e <HAL_UART_ErrorCallback>
 8002a6a:	6425      	str	r5, [r4, #64]	; 0x40
 8002a6c:	e7f9      	b.n	8002a62 <HAL_UART_IRQHandler+0xca>
 8002a6e:	6b20      	ldr	r0, [r4, #48]	; 0x30
 8002a70:	2801      	cmp	r0, #1
 8002a72:	d156      	bne.n	8002b22 <HAL_UART_IRQHandler+0x18a>
 8002a74:	06d0      	lsls	r0, r2, #27
 8002a76:	d554      	bpl.n	8002b22 <HAL_UART_IRQHandler+0x18a>
 8002a78:	06cd      	lsls	r5, r1, #27
 8002a7a:	d552      	bpl.n	8002b22 <HAL_UART_IRQHandler+0x18a>
 8002a7c:	2100      	movs	r1, #0
 8002a7e:	9101      	str	r1, [sp, #4]
 8002a80:	681a      	ldr	r2, [r3, #0]
 8002a82:	9201      	str	r2, [sp, #4]
 8002a84:	685a      	ldr	r2, [r3, #4]
 8002a86:	9201      	str	r2, [sp, #4]
 8002a88:	9a01      	ldr	r2, [sp, #4]
 8002a8a:	695a      	ldr	r2, [r3, #20]
 8002a8c:	f012 0240 	ands.w	r2, r2, #64	; 0x40
 8002a90:	d02b      	beq.n	8002aea <HAL_UART_IRQHandler+0x152>
 8002a92:	6ba0      	ldr	r0, [r4, #56]	; 0x38
 8002a94:	6802      	ldr	r2, [r0, #0]
 8002a96:	6852      	ldr	r2, [r2, #4]
 8002a98:	b292      	uxth	r2, r2
 8002a9a:	2a00      	cmp	r2, #0
 8002a9c:	d0e1      	beq.n	8002a62 <HAL_UART_IRQHandler+0xca>
 8002a9e:	8da5      	ldrh	r5, [r4, #44]	; 0x2c
 8002aa0:	4295      	cmp	r5, r2
 8002aa2:	d9de      	bls.n	8002a62 <HAL_UART_IRQHandler+0xca>
 8002aa4:	85e2      	strh	r2, [r4, #46]	; 0x2e
 8002aa6:	69c2      	ldr	r2, [r0, #28]
 8002aa8:	f5b2 7f80 	cmp.w	r2, #256	; 0x100
 8002aac:	d015      	beq.n	8002ada <HAL_UART_IRQHandler+0x142>
 8002aae:	68da      	ldr	r2, [r3, #12]
 8002ab0:	f422 7280 	bic.w	r2, r2, #256	; 0x100
 8002ab4:	60da      	str	r2, [r3, #12]
 8002ab6:	695a      	ldr	r2, [r3, #20]
 8002ab8:	f022 0201 	bic.w	r2, r2, #1
 8002abc:	615a      	str	r2, [r3, #20]
 8002abe:	695a      	ldr	r2, [r3, #20]
 8002ac0:	f022 0240 	bic.w	r2, r2, #64	; 0x40
 8002ac4:	615a      	str	r2, [r3, #20]
 8002ac6:	2220      	movs	r2, #32
 8002ac8:	f884 203e 	strb.w	r2, [r4, #62]	; 0x3e
 8002acc:	6321      	str	r1, [r4, #48]	; 0x30
 8002ace:	68da      	ldr	r2, [r3, #12]
 8002ad0:	f022 0210 	bic.w	r2, r2, #16
 8002ad4:	60da      	str	r2, [r3, #12]
 8002ad6:	f7fe fc55 	bl	8001384 <HAL_DMA_Abort>
 8002ada:	8de3      	ldrh	r3, [r4, #46]	; 0x2e
 8002adc:	8da1      	ldrh	r1, [r4, #44]	; 0x2c
 8002ade:	1ac9      	subs	r1, r1, r3
 8002ae0:	b289      	uxth	r1, r1
 8002ae2:	4620      	mov	r0, r4
 8002ae4:	f7ff ff09 	bl	80028fa <HAL_UARTEx_RxEventCallback>
 8002ae8:	e7bb      	b.n	8002a62 <HAL_UART_IRQHandler+0xca>
 8002aea:	8de1      	ldrh	r1, [r4, #46]	; 0x2e
 8002aec:	b288      	uxth	r0, r1
 8002aee:	8de1      	ldrh	r1, [r4, #46]	; 0x2e
 8002af0:	b289      	uxth	r1, r1
 8002af2:	2900      	cmp	r1, #0
 8002af4:	d0b5      	beq.n	8002a62 <HAL_UART_IRQHandler+0xca>
 8002af6:	8da1      	ldrh	r1, [r4, #44]	; 0x2c
 8002af8:	1a09      	subs	r1, r1, r0
 8002afa:	b289      	uxth	r1, r1
 8002afc:	2900      	cmp	r1, #0
 8002afe:	d0b0      	beq.n	8002a62 <HAL_UART_IRQHandler+0xca>
 8002b00:	68d8      	ldr	r0, [r3, #12]
 8002b02:	f420 7090 	bic.w	r0, r0, #288	; 0x120
 8002b06:	60d8      	str	r0, [r3, #12]
 8002b08:	6958      	ldr	r0, [r3, #20]
 8002b0a:	f020 0001 	bic.w	r0, r0, #1
 8002b0e:	6158      	str	r0, [r3, #20]
 8002b10:	2020      	movs	r0, #32
 8002b12:	f884 003e 	strb.w	r0, [r4, #62]	; 0x3e
 8002b16:	6322      	str	r2, [r4, #48]	; 0x30
 8002b18:	68da      	ldr	r2, [r3, #12]
 8002b1a:	f022 0210 	bic.w	r2, r2, #16
 8002b1e:	60da      	str	r2, [r3, #12]
 8002b20:	e7df      	b.n	8002ae2 <HAL_UART_IRQHandler+0x14a>
 8002b22:	0610      	lsls	r0, r2, #24
 8002b24:	d526      	bpl.n	8002b74 <HAL_UART_IRQHandler+0x1dc>
 8002b26:	060d      	lsls	r5, r1, #24
 8002b28:	d524      	bpl.n	8002b74 <HAL_UART_IRQHandler+0x1dc>
 8002b2a:	f894 203d 	ldrb.w	r2, [r4, #61]	; 0x3d
 8002b2e:	2a21      	cmp	r2, #33	; 0x21
 8002b30:	d197      	bne.n	8002a62 <HAL_UART_IRQHandler+0xca>
 8002b32:	68a1      	ldr	r1, [r4, #8]
 8002b34:	6a22      	ldr	r2, [r4, #32]
 8002b36:	f5b1 5f80 	cmp.w	r1, #4096	; 0x1000
 8002b3a:	d116      	bne.n	8002b6a <HAL_UART_IRQHandler+0x1d2>
 8002b3c:	6921      	ldr	r1, [r4, #16]
 8002b3e:	b9a1      	cbnz	r1, 8002b6a <HAL_UART_IRQHandler+0x1d2>
 8002b40:	f832 1b02 	ldrh.w	r1, [r2], #2
 8002b44:	f3c1 0108 	ubfx	r1, r1, #0, #9
 8002b48:	6059      	str	r1, [r3, #4]
 8002b4a:	6222      	str	r2, [r4, #32]
 8002b4c:	8ce2      	ldrh	r2, [r4, #38]	; 0x26
 8002b4e:	3a01      	subs	r2, #1
 8002b50:	b292      	uxth	r2, r2
 8002b52:	84e2      	strh	r2, [r4, #38]	; 0x26
 8002b54:	2a00      	cmp	r2, #0
 8002b56:	d184      	bne.n	8002a62 <HAL_UART_IRQHandler+0xca>
 8002b58:	68da      	ldr	r2, [r3, #12]
 8002b5a:	f022 0280 	bic.w	r2, r2, #128	; 0x80
 8002b5e:	60da      	str	r2, [r3, #12]
 8002b60:	68da      	ldr	r2, [r3, #12]
 8002b62:	f042 0240 	orr.w	r2, r2, #64	; 0x40
 8002b66:	60da      	str	r2, [r3, #12]
 8002b68:	e77b      	b.n	8002a62 <HAL_UART_IRQHandler+0xca>
 8002b6a:	1c51      	adds	r1, r2, #1
 8002b6c:	6221      	str	r1, [r4, #32]
 8002b6e:	7812      	ldrb	r2, [r2, #0]
 8002b70:	605a      	str	r2, [r3, #4]
 8002b72:	e7eb      	b.n	8002b4c <HAL_UART_IRQHandler+0x1b4>
 8002b74:	0650      	lsls	r0, r2, #25
 8002b76:	f57f af74 	bpl.w	8002a62 <HAL_UART_IRQHandler+0xca>
 8002b7a:	064a      	lsls	r2, r1, #25
 8002b7c:	f57f af71 	bpl.w	8002a62 <HAL_UART_IRQHandler+0xca>
 8002b80:	68da      	ldr	r2, [r3, #12]
 8002b82:	f022 0240 	bic.w	r2, r2, #64	; 0x40
 8002b86:	60da      	str	r2, [r3, #12]
 8002b88:	2320      	movs	r3, #32
 8002b8a:	f884 303d 	strb.w	r3, [r4, #61]	; 0x3d
 8002b8e:	4620      	mov	r0, r4
 8002b90:	f7fe fa3e 	bl	8001010 <HAL_UART_TxCpltCallback>
 8002b94:	e765      	b.n	8002a62 <HAL_UART_IRQHandler+0xca>
 8002b96:	bf00      	nop
 8002b98:	080028eb 	.word	0x080028eb

08002b9c <UART_DMARxHalfCplt>:
 8002b9c:	6b80      	ldr	r0, [r0, #56]	; 0x38
 8002b9e:	b508      	push	{r3, lr}
 8002ba0:	6b03      	ldr	r3, [r0, #48]	; 0x30
 8002ba2:	2b01      	cmp	r3, #1
 8002ba4:	d104      	bne.n	8002bb0 <UART_DMARxHalfCplt+0x14>
 8002ba6:	8d81      	ldrh	r1, [r0, #44]	; 0x2c
 8002ba8:	0849      	lsrs	r1, r1, #1
 8002baa:	f7ff fea6 	bl	80028fa <HAL_UARTEx_RxEventCallback>
 8002bae:	bd08      	pop	{r3, pc}
 8002bb0:	f7ff fe74 	bl	800289c <HAL_UART_RxHalfCpltCallback>
 8002bb4:	e7fb      	b.n	8002bae <UART_DMARxHalfCplt+0x12>

08002bb6 <UART_DMAReceiveCplt>:
 8002bb6:	b508      	push	{r3, lr}
 8002bb8:	4603      	mov	r3, r0
 8002bba:	6b80      	ldr	r0, [r0, #56]	; 0x38
 8002bbc:	681b      	ldr	r3, [r3, #0]
 8002bbe:	681b      	ldr	r3, [r3, #0]
 8002bc0:	f413 7380 	ands.w	r3, r3, #256	; 0x100
 8002bc4:	d117      	bne.n	8002bf6 <UART_DMAReceiveCplt+0x40>
 8002bc6:	85c3      	strh	r3, [r0, #46]	; 0x2e
 8002bc8:	6803      	ldr	r3, [r0, #0]
 8002bca:	68da      	ldr	r2, [r3, #12]
 8002bcc:	f422 7280 	bic.w	r2, r2, #256	; 0x100
 8002bd0:	60da      	str	r2, [r3, #12]
 8002bd2:	695a      	ldr	r2, [r3, #20]
 8002bd4:	f022 0201 	bic.w	r2, r2, #1
 8002bd8:	615a      	str	r2, [r3, #20]
 8002bda:	695a      	ldr	r2, [r3, #20]
 8002bdc:	f022 0240 	bic.w	r2, r2, #64	; 0x40
 8002be0:	615a      	str	r2, [r3, #20]
 8002be2:	2220      	movs	r2, #32
 8002be4:	f880 203e 	strb.w	r2, [r0, #62]	; 0x3e
 8002be8:	6b02      	ldr	r2, [r0, #48]	; 0x30
 8002bea:	2a01      	cmp	r2, #1
 8002bec:	bf02      	ittt	eq
 8002bee:	68da      	ldreq	r2, [r3, #12]
 8002bf0:	f022 0210 	biceq.w	r2, r2, #16
 8002bf4:	60da      	streq	r2, [r3, #12]
 8002bf6:	6b03      	ldr	r3, [r0, #48]	; 0x30
 8002bf8:	2b01      	cmp	r3, #1
 8002bfa:	d103      	bne.n	8002c04 <UART_DMAReceiveCplt+0x4e>
 8002bfc:	8d81      	ldrh	r1, [r0, #44]	; 0x2c
 8002bfe:	f7ff fe7c 	bl	80028fa <HAL_UARTEx_RxEventCallback>
 8002c02:	bd08      	pop	{r3, pc}
 8002c04:	f7fe f9a0 	bl	8000f48 <HAL_UART_RxCpltCallback>
 8002c08:	e7fb      	b.n	8002c02 <UART_DMAReceiveCplt+0x4c>
	...

08002c0c <UART_Start_Receive_DMA>:
 8002c0c:	b573      	push	{r0, r1, r4, r5, r6, lr}
 8002c0e:	2322      	movs	r3, #34	; 0x22
 8002c10:	2500      	movs	r5, #0
 8002c12:	4604      	mov	r4, r0
 8002c14:	6405      	str	r5, [r0, #64]	; 0x40
 8002c16:	6281      	str	r1, [r0, #40]	; 0x28
 8002c18:	f880 303e 	strb.w	r3, [r0, #62]	; 0x3e
 8002c1c:	8582      	strh	r2, [r0, #44]	; 0x2c
 8002c1e:	6b80      	ldr	r0, [r0, #56]	; 0x38
 8002c20:	4b12      	ldr	r3, [pc, #72]	; (8002c6c <UART_Start_Receive_DMA+0x60>)
 8002c22:	63c3      	str	r3, [r0, #60]	; 0x3c
 8002c24:	4b12      	ldr	r3, [pc, #72]	; (8002c70 <UART_Start_Receive_DMA+0x64>)
 8002c26:	6826      	ldr	r6, [r4, #0]
 8002c28:	6403      	str	r3, [r0, #64]	; 0x40
 8002c2a:	4b12      	ldr	r3, [pc, #72]	; (8002c74 <UART_Start_Receive_DMA+0x68>)
 8002c2c:	e9c0 3513 	strd	r3, r5, [r0, #76]	; 0x4c
 8002c30:	4613      	mov	r3, r2
 8002c32:	460a      	mov	r2, r1
 8002c34:	1d31      	adds	r1, r6, #4
 8002c36:	f7fe fb6b 	bl	8001310 <HAL_DMA_Start_IT>
 8002c3a:	6823      	ldr	r3, [r4, #0]
 8002c3c:	9501      	str	r5, [sp, #4]
 8002c3e:	681a      	ldr	r2, [r3, #0]
 8002c40:	9201      	str	r2, [sp, #4]
 8002c42:	685a      	ldr	r2, [r3, #4]
 8002c44:	9201      	str	r2, [sp, #4]
 8002c46:	f884 503c 	strb.w	r5, [r4, #60]	; 0x3c
 8002c4a:	9a01      	ldr	r2, [sp, #4]
 8002c4c:	68da      	ldr	r2, [r3, #12]
 8002c4e:	f442 7280 	orr.w	r2, r2, #256	; 0x100
 8002c52:	60da      	str	r2, [r3, #12]
 8002c54:	695a      	ldr	r2, [r3, #20]
 8002c56:	f042 0201 	orr.w	r2, r2, #1
 8002c5a:	615a      	str	r2, [r3, #20]
 8002c5c:	695a      	ldr	r2, [r3, #20]
 8002c5e:	4628      	mov	r0, r5
 8002c60:	f042 0240 	orr.w	r2, r2, #64	; 0x40
 8002c64:	615a      	str	r2, [r3, #20]
 8002c66:	b002      	add	sp, #8
 8002c68:	bd70      	pop	{r4, r5, r6, pc}
 8002c6a:	bf00      	nop
 8002c6c:	08002bb7 	.word	0x08002bb7
 8002c70:	08002b9d 	.word	0x08002b9d
 8002c74:	080028a1 	.word	0x080028a1

08002c78 <HAL_UART_Receive_DMA>:
 8002c78:	b470      	push	{r4, r5, r6}
 8002c7a:	f890 603e 	ldrb.w	r6, [r0, #62]	; 0x3e
 8002c7e:	2e20      	cmp	r6, #32
 8002c80:	d110      	bne.n	8002ca4 <HAL_UART_Receive_DMA+0x2c>
 8002c82:	b161      	cbz	r1, 8002c9e <HAL_UART_Receive_DMA+0x26>
 8002c84:	b15a      	cbz	r2, 8002c9e <HAL_UART_Receive_DMA+0x26>
 8002c86:	f890 403c 	ldrb.w	r4, [r0, #60]	; 0x3c
 8002c8a:	2c01      	cmp	r4, #1
 8002c8c:	d00a      	beq.n	8002ca4 <HAL_UART_Receive_DMA+0x2c>
 8002c8e:	2401      	movs	r4, #1
 8002c90:	f880 403c 	strb.w	r4, [r0, #60]	; 0x3c
 8002c94:	2400      	movs	r4, #0
 8002c96:	6304      	str	r4, [r0, #48]	; 0x30
 8002c98:	bc70      	pop	{r4, r5, r6}
 8002c9a:	f7ff bfb7 	b.w	8002c0c <UART_Start_Receive_DMA>
 8002c9e:	2001      	movs	r0, #1
 8002ca0:	bc70      	pop	{r4, r5, r6}
 8002ca2:	4770      	bx	lr
 8002ca4:	2002      	movs	r0, #2
 8002ca6:	e7fb      	b.n	8002ca0 <HAL_UART_Receive_DMA+0x28>

08002ca8 <__errno>:
 8002ca8:	4b01      	ldr	r3, [pc, #4]	; (8002cb0 <__errno+0x8>)
 8002caa:	6818      	ldr	r0, [r3, #0]
 8002cac:	4770      	bx	lr
 8002cae:	bf00      	nop
 8002cb0:	2000002c 	.word	0x2000002c

08002cb4 <__libc_init_array>:
 8002cb4:	b570      	push	{r4, r5, r6, lr}
 8002cb6:	4d0d      	ldr	r5, [pc, #52]	; (8002cec <__libc_init_array+0x38>)
 8002cb8:	4c0d      	ldr	r4, [pc, #52]	; (8002cf0 <__libc_init_array+0x3c>)
 8002cba:	1b64      	subs	r4, r4, r5
 8002cbc:	10a4      	asrs	r4, r4, #2
 8002cbe:	2600      	movs	r6, #0
 8002cc0:	42a6      	cmp	r6, r4
 8002cc2:	d109      	bne.n	8002cd8 <__libc_init_array+0x24>
 8002cc4:	4d0b      	ldr	r5, [pc, #44]	; (8002cf4 <__libc_init_array+0x40>)
 8002cc6:	4c0c      	ldr	r4, [pc, #48]	; (8002cf8 <__libc_init_array+0x44>)
 8002cc8:	f001 fa10 	bl	80040ec <_init>
 8002ccc:	1b64      	subs	r4, r4, r5
 8002cce:	10a4      	asrs	r4, r4, #2
 8002cd0:	2600      	movs	r6, #0
 8002cd2:	42a6      	cmp	r6, r4
 8002cd4:	d105      	bne.n	8002ce2 <__libc_init_array+0x2e>
 8002cd6:	bd70      	pop	{r4, r5, r6, pc}
 8002cd8:	f855 3b04 	ldr.w	r3, [r5], #4
 8002cdc:	4798      	blx	r3
 8002cde:	3601      	adds	r6, #1
 8002ce0:	e7ee      	b.n	8002cc0 <__libc_init_array+0xc>
 8002ce2:	f855 3b04 	ldr.w	r3, [r5], #4
 8002ce6:	4798      	blx	r3
 8002ce8:	3601      	adds	r6, #1
 8002cea:	e7f2      	b.n	8002cd2 <__libc_init_array+0x1e>
 8002cec:	08004360 	.word	0x08004360
 8002cf0:	08004360 	.word	0x08004360
 8002cf4:	08004360 	.word	0x08004360
 8002cf8:	08004364 	.word	0x08004364

08002cfc <memset>:
 8002cfc:	4402      	add	r2, r0
 8002cfe:	4603      	mov	r3, r0
 8002d00:	4293      	cmp	r3, r2
 8002d02:	d100      	bne.n	8002d06 <memset+0xa>
 8002d04:	4770      	bx	lr
 8002d06:	f803 1b01 	strb.w	r1, [r3], #1
 8002d0a:	e7f9      	b.n	8002d00 <memset+0x4>

08002d0c <siprintf>:
 8002d0c:	b40e      	push	{r1, r2, r3}
 8002d0e:	b500      	push	{lr}
 8002d10:	b09c      	sub	sp, #112	; 0x70
 8002d12:	ab1d      	add	r3, sp, #116	; 0x74
 8002d14:	9002      	str	r0, [sp, #8]
 8002d16:	9006      	str	r0, [sp, #24]
 8002d18:	f06f 4100 	mvn.w	r1, #2147483648	; 0x80000000
 8002d1c:	4809      	ldr	r0, [pc, #36]	; (8002d44 <siprintf+0x38>)
 8002d1e:	9107      	str	r1, [sp, #28]
 8002d20:	9104      	str	r1, [sp, #16]
 8002d22:	4909      	ldr	r1, [pc, #36]	; (8002d48 <siprintf+0x3c>)
 8002d24:	f853 2b04 	ldr.w	r2, [r3], #4
 8002d28:	9105      	str	r1, [sp, #20]
 8002d2a:	6800      	ldr	r0, [r0, #0]
 8002d2c:	9301      	str	r3, [sp, #4]
 8002d2e:	a902      	add	r1, sp, #8
 8002d30:	f000 f9a6 	bl	8003080 <_svfiprintf_r>
 8002d34:	9b02      	ldr	r3, [sp, #8]
 8002d36:	2200      	movs	r2, #0
 8002d38:	701a      	strb	r2, [r3, #0]
 8002d3a:	b01c      	add	sp, #112	; 0x70
 8002d3c:	f85d eb04 	ldr.w	lr, [sp], #4
 8002d40:	b003      	add	sp, #12
 8002d42:	4770      	bx	lr
 8002d44:	2000002c 	.word	0x2000002c
 8002d48:	ffff0208 	.word	0xffff0208

08002d4c <strtok>:
 8002d4c:	4b16      	ldr	r3, [pc, #88]	; (8002da8 <strtok+0x5c>)
 8002d4e:	b573      	push	{r0, r1, r4, r5, r6, lr}
 8002d50:	681e      	ldr	r6, [r3, #0]
 8002d52:	6db4      	ldr	r4, [r6, #88]	; 0x58
 8002d54:	4605      	mov	r5, r0
 8002d56:	b9fc      	cbnz	r4, 8002d98 <strtok+0x4c>
 8002d58:	2050      	movs	r0, #80	; 0x50
 8002d5a:	9101      	str	r1, [sp, #4]
 8002d5c:	f000 f882 	bl	8002e64 <malloc>
 8002d60:	9901      	ldr	r1, [sp, #4]
 8002d62:	65b0      	str	r0, [r6, #88]	; 0x58
 8002d64:	4602      	mov	r2, r0
 8002d66:	b920      	cbnz	r0, 8002d72 <strtok+0x26>
 8002d68:	4b10      	ldr	r3, [pc, #64]	; (8002dac <strtok+0x60>)
 8002d6a:	4811      	ldr	r0, [pc, #68]	; (8002db0 <strtok+0x64>)
 8002d6c:	2157      	movs	r1, #87	; 0x57
 8002d6e:	f000 f849 	bl	8002e04 <__assert_func>
 8002d72:	e9c0 4400 	strd	r4, r4, [r0]
 8002d76:	e9c0 4402 	strd	r4, r4, [r0, #8]
 8002d7a:	e9c0 4404 	strd	r4, r4, [r0, #16]
 8002d7e:	e9c0 440a 	strd	r4, r4, [r0, #40]	; 0x28
 8002d82:	e9c0 440c 	strd	r4, r4, [r0, #48]	; 0x30
 8002d86:	e9c0 440e 	strd	r4, r4, [r0, #56]	; 0x38
 8002d8a:	e9c0 4410 	strd	r4, r4, [r0, #64]	; 0x40
 8002d8e:	e9c0 4412 	strd	r4, r4, [r0, #72]	; 0x48
 8002d92:	6184      	str	r4, [r0, #24]
 8002d94:	7704      	strb	r4, [r0, #28]
 8002d96:	6244      	str	r4, [r0, #36]	; 0x24
 8002d98:	6db2      	ldr	r2, [r6, #88]	; 0x58
 8002d9a:	2301      	movs	r3, #1
 8002d9c:	4628      	mov	r0, r5
 8002d9e:	b002      	add	sp, #8
 8002da0:	e8bd 4070 	ldmia.w	sp!, {r4, r5, r6, lr}
 8002da4:	f000 b806 	b.w	8002db4 <__strtok_r>
 8002da8:	2000002c 	.word	0x2000002c
 8002dac:	08004210 	.word	0x08004210
 8002db0:	08004227 	.word	0x08004227

08002db4 <__strtok_r>:
 8002db4:	b5f0      	push	{r4, r5, r6, r7, lr}
 8002db6:	b908      	cbnz	r0, 8002dbc <__strtok_r+0x8>
 8002db8:	6810      	ldr	r0, [r2, #0]
 8002dba:	b188      	cbz	r0, 8002de0 <__strtok_r+0x2c>
 8002dbc:	4604      	mov	r4, r0
 8002dbe:	4620      	mov	r0, r4
 8002dc0:	f814 5b01 	ldrb.w	r5, [r4], #1
 8002dc4:	460f      	mov	r7, r1
 8002dc6:	f817 6b01 	ldrb.w	r6, [r7], #1
 8002dca:	b91e      	cbnz	r6, 8002dd4 <__strtok_r+0x20>
 8002dcc:	b965      	cbnz	r5, 8002de8 <__strtok_r+0x34>
 8002dce:	6015      	str	r5, [r2, #0]
 8002dd0:	4628      	mov	r0, r5
 8002dd2:	e005      	b.n	8002de0 <__strtok_r+0x2c>
 8002dd4:	42b5      	cmp	r5, r6
 8002dd6:	d1f6      	bne.n	8002dc6 <__strtok_r+0x12>
 8002dd8:	2b00      	cmp	r3, #0
 8002dda:	d1f0      	bne.n	8002dbe <__strtok_r+0xa>
 8002ddc:	6014      	str	r4, [r2, #0]
 8002dde:	7003      	strb	r3, [r0, #0]
 8002de0:	bdf0      	pop	{r4, r5, r6, r7, pc}
 8002de2:	461c      	mov	r4, r3
 8002de4:	e00c      	b.n	8002e00 <__strtok_r+0x4c>
 8002de6:	b915      	cbnz	r5, 8002dee <__strtok_r+0x3a>
 8002de8:	f814 3b01 	ldrb.w	r3, [r4], #1
 8002dec:	460e      	mov	r6, r1
 8002dee:	f816 5b01 	ldrb.w	r5, [r6], #1
 8002df2:	42ab      	cmp	r3, r5
 8002df4:	d1f7      	bne.n	8002de6 <__strtok_r+0x32>
 8002df6:	2b00      	cmp	r3, #0
 8002df8:	d0f3      	beq.n	8002de2 <__strtok_r+0x2e>
 8002dfa:	2300      	movs	r3, #0
 8002dfc:	f804 3c01 	strb.w	r3, [r4, #-1]
 8002e00:	6014      	str	r4, [r2, #0]
 8002e02:	e7ed      	b.n	8002de0 <__strtok_r+0x2c>

08002e04 <__assert_func>:
 8002e04:	b51f      	push	{r0, r1, r2, r3, r4, lr}
 8002e06:	4614      	mov	r4, r2
 8002e08:	461a      	mov	r2, r3
 8002e0a:	4b09      	ldr	r3, [pc, #36]	; (8002e30 <__assert_func+0x2c>)
 8002e0c:	681b      	ldr	r3, [r3, #0]
 8002e0e:	4605      	mov	r5, r0
 8002e10:	68d8      	ldr	r0, [r3, #12]
 8002e12:	b14c      	cbz	r4, 8002e28 <__assert_func+0x24>
 8002e14:	4b07      	ldr	r3, [pc, #28]	; (8002e34 <__assert_func+0x30>)
 8002e16:	9100      	str	r1, [sp, #0]
 8002e18:	e9cd 3401 	strd	r3, r4, [sp, #4]
 8002e1c:	4906      	ldr	r1, [pc, #24]	; (8002e38 <__assert_func+0x34>)
 8002e1e:	462b      	mov	r3, r5
 8002e20:	f000 f80e 	bl	8002e40 <fiprintf>
 8002e24:	f000 fdea 	bl	80039fc <abort>
 8002e28:	4b04      	ldr	r3, [pc, #16]	; (8002e3c <__assert_func+0x38>)
 8002e2a:	461c      	mov	r4, r3
 8002e2c:	e7f3      	b.n	8002e16 <__assert_func+0x12>
 8002e2e:	bf00      	nop
 8002e30:	2000002c 	.word	0x2000002c
 8002e34:	08004288 	.word	0x08004288
 8002e38:	08004295 	.word	0x08004295
 8002e3c:	08004203 	.word	0x08004203

08002e40 <fiprintf>:
 8002e40:	b40e      	push	{r1, r2, r3}
 8002e42:	b503      	push	{r0, r1, lr}
 8002e44:	4601      	mov	r1, r0
 8002e46:	ab03      	add	r3, sp, #12
 8002e48:	4805      	ldr	r0, [pc, #20]	; (8002e60 <fiprintf+0x20>)
 8002e4a:	f853 2b04 	ldr.w	r2, [r3], #4
 8002e4e:	6800      	ldr	r0, [r0, #0]
 8002e50:	9301      	str	r3, [sp, #4]
 8002e52:	f000 fa3f 	bl	80032d4 <_vfiprintf_r>
 8002e56:	b002      	add	sp, #8
 8002e58:	f85d eb04 	ldr.w	lr, [sp], #4
 8002e5c:	b003      	add	sp, #12
 8002e5e:	4770      	bx	lr
 8002e60:	2000002c 	.word	0x2000002c

08002e64 <malloc>:
 8002e64:	4b02      	ldr	r3, [pc, #8]	; (8002e70 <malloc+0xc>)
 8002e66:	4601      	mov	r1, r0
 8002e68:	6818      	ldr	r0, [r3, #0]
 8002e6a:	f000 b853 	b.w	8002f14 <_malloc_r>
 8002e6e:	bf00      	nop
 8002e70:	2000002c 	.word	0x2000002c

08002e74 <_free_r>:
 8002e74:	b537      	push	{r0, r1, r2, r4, r5, lr}
 8002e76:	2900      	cmp	r1, #0
 8002e78:	d048      	beq.n	8002f0c <_free_r+0x98>
 8002e7a:	f851 3c04 	ldr.w	r3, [r1, #-4]
 8002e7e:	9001      	str	r0, [sp, #4]
 8002e80:	2b00      	cmp	r3, #0
 8002e82:	f1a1 0404 	sub.w	r4, r1, #4
 8002e86:	bfb8      	it	lt
 8002e88:	18e4      	addlt	r4, r4, r3
 8002e8a:	f001 f805 	bl	8003e98 <__malloc_lock>
 8002e8e:	4a20      	ldr	r2, [pc, #128]	; (8002f10 <_free_r+0x9c>)
 8002e90:	9801      	ldr	r0, [sp, #4]
 8002e92:	6813      	ldr	r3, [r2, #0]
 8002e94:	4615      	mov	r5, r2
 8002e96:	b933      	cbnz	r3, 8002ea6 <_free_r+0x32>
 8002e98:	6063      	str	r3, [r4, #4]
 8002e9a:	6014      	str	r4, [r2, #0]
 8002e9c:	b003      	add	sp, #12
 8002e9e:	e8bd 4030 	ldmia.w	sp!, {r4, r5, lr}
 8002ea2:	f000 bfff 	b.w	8003ea4 <__malloc_unlock>
 8002ea6:	42a3      	cmp	r3, r4
 8002ea8:	d90b      	bls.n	8002ec2 <_free_r+0x4e>
 8002eaa:	6821      	ldr	r1, [r4, #0]
 8002eac:	1862      	adds	r2, r4, r1
 8002eae:	4293      	cmp	r3, r2
 8002eb0:	bf04      	itt	eq
 8002eb2:	681a      	ldreq	r2, [r3, #0]
 8002eb4:	685b      	ldreq	r3, [r3, #4]
 8002eb6:	6063      	str	r3, [r4, #4]
 8002eb8:	bf04      	itt	eq
 8002eba:	1852      	addeq	r2, r2, r1
 8002ebc:	6022      	streq	r2, [r4, #0]
 8002ebe:	602c      	str	r4, [r5, #0]
 8002ec0:	e7ec      	b.n	8002e9c <_free_r+0x28>
 8002ec2:	461a      	mov	r2, r3
 8002ec4:	685b      	ldr	r3, [r3, #4]
 8002ec6:	b10b      	cbz	r3, 8002ecc <_free_r+0x58>
 8002ec8:	42a3      	cmp	r3, r4
 8002eca:	d9fa      	bls.n	8002ec2 <_free_r+0x4e>
 8002ecc:	6811      	ldr	r1, [r2, #0]
 8002ece:	1855      	adds	r5, r2, r1
 8002ed0:	42a5      	cmp	r5, r4
 8002ed2:	d10b      	bne.n	8002eec <_free_r+0x78>
 8002ed4:	6824      	ldr	r4, [r4, #0]
 8002ed6:	4421      	add	r1, r4
 8002ed8:	1854      	adds	r4, r2, r1
 8002eda:	42a3      	cmp	r3, r4
 8002edc:	6011      	str	r1, [r2, #0]
 8002ede:	d1dd      	bne.n	8002e9c <_free_r+0x28>
 8002ee0:	681c      	ldr	r4, [r3, #0]
 8002ee2:	685b      	ldr	r3, [r3, #4]
 8002ee4:	6053      	str	r3, [r2, #4]
 8002ee6:	4421      	add	r1, r4
 8002ee8:	6011      	str	r1, [r2, #0]
 8002eea:	e7d7      	b.n	8002e9c <_free_r+0x28>
 8002eec:	d902      	bls.n	8002ef4 <_free_r+0x80>
 8002eee:	230c      	movs	r3, #12
 8002ef0:	6003      	str	r3, [r0, #0]
 8002ef2:	e7d3      	b.n	8002e9c <_free_r+0x28>
 8002ef4:	6825      	ldr	r5, [r4, #0]
 8002ef6:	1961      	adds	r1, r4, r5
 8002ef8:	428b      	cmp	r3, r1
 8002efa:	bf04      	itt	eq
 8002efc:	6819      	ldreq	r1, [r3, #0]
 8002efe:	685b      	ldreq	r3, [r3, #4]
 8002f00:	6063      	str	r3, [r4, #4]
 8002f02:	bf04      	itt	eq
 8002f04:	1949      	addeq	r1, r1, r5
 8002f06:	6021      	streq	r1, [r4, #0]
 8002f08:	6054      	str	r4, [r2, #4]
 8002f0a:	e7c7      	b.n	8002e9c <_free_r+0x28>
 8002f0c:	b003      	add	sp, #12
 8002f0e:	bd30      	pop	{r4, r5, pc}
 8002f10:	200000b4 	.word	0x200000b4

08002f14 <_malloc_r>:
 8002f14:	b5f8      	push	{r3, r4, r5, r6, r7, lr}
 8002f16:	1ccd      	adds	r5, r1, #3
 8002f18:	f025 0503 	bic.w	r5, r5, #3
 8002f1c:	3508      	adds	r5, #8
 8002f1e:	2d0c      	cmp	r5, #12
 8002f20:	bf38      	it	cc
 8002f22:	250c      	movcc	r5, #12
 8002f24:	2d00      	cmp	r5, #0
 8002f26:	4606      	mov	r6, r0
 8002f28:	db01      	blt.n	8002f2e <_malloc_r+0x1a>
 8002f2a:	42a9      	cmp	r1, r5
 8002f2c:	d903      	bls.n	8002f36 <_malloc_r+0x22>
 8002f2e:	230c      	movs	r3, #12
 8002f30:	6033      	str	r3, [r6, #0]
 8002f32:	2000      	movs	r0, #0
 8002f34:	bdf8      	pop	{r3, r4, r5, r6, r7, pc}
 8002f36:	f000 ffaf 	bl	8003e98 <__malloc_lock>
 8002f3a:	4921      	ldr	r1, [pc, #132]	; (8002fc0 <_malloc_r+0xac>)
 8002f3c:	680a      	ldr	r2, [r1, #0]
 8002f3e:	4614      	mov	r4, r2
 8002f40:	b99c      	cbnz	r4, 8002f6a <_malloc_r+0x56>
 8002f42:	4f20      	ldr	r7, [pc, #128]	; (8002fc4 <_malloc_r+0xb0>)
 8002f44:	683b      	ldr	r3, [r7, #0]
 8002f46:	b923      	cbnz	r3, 8002f52 <_malloc_r+0x3e>
 8002f48:	4621      	mov	r1, r4
 8002f4a:	4630      	mov	r0, r6
 8002f4c:	f000 fc86 	bl	800385c <_sbrk_r>
 8002f50:	6038      	str	r0, [r7, #0]
 8002f52:	4629      	mov	r1, r5
 8002f54:	4630      	mov	r0, r6
 8002f56:	f000 fc81 	bl	800385c <_sbrk_r>
 8002f5a:	1c43      	adds	r3, r0, #1
 8002f5c:	d123      	bne.n	8002fa6 <_malloc_r+0x92>
 8002f5e:	230c      	movs	r3, #12
 8002f60:	6033      	str	r3, [r6, #0]
 8002f62:	4630      	mov	r0, r6
 8002f64:	f000 ff9e 	bl	8003ea4 <__malloc_unlock>
 8002f68:	e7e3      	b.n	8002f32 <_malloc_r+0x1e>
 8002f6a:	6823      	ldr	r3, [r4, #0]
 8002f6c:	1b5b      	subs	r3, r3, r5
 8002f6e:	d417      	bmi.n	8002fa0 <_malloc_r+0x8c>
 8002f70:	2b0b      	cmp	r3, #11
 8002f72:	d903      	bls.n	8002f7c <_malloc_r+0x68>
 8002f74:	6023      	str	r3, [r4, #0]
 8002f76:	441c      	add	r4, r3
 8002f78:	6025      	str	r5, [r4, #0]
 8002f7a:	e004      	b.n	8002f86 <_malloc_r+0x72>
 8002f7c:	6863      	ldr	r3, [r4, #4]
 8002f7e:	42a2      	cmp	r2, r4
 8002f80:	bf0c      	ite	eq
 8002f82:	600b      	streq	r3, [r1, #0]
 8002f84:	6053      	strne	r3, [r2, #4]
 8002f86:	4630      	mov	r0, r6
 8002f88:	f000 ff8c 	bl	8003ea4 <__malloc_unlock>
 8002f8c:	f104 000b 	add.w	r0, r4, #11
 8002f90:	1d23      	adds	r3, r4, #4
 8002f92:	f020 0007 	bic.w	r0, r0, #7
 8002f96:	1ac2      	subs	r2, r0, r3
 8002f98:	d0cc      	beq.n	8002f34 <_malloc_r+0x20>
 8002f9a:	1a1b      	subs	r3, r3, r0
 8002f9c:	50a3      	str	r3, [r4, r2]
 8002f9e:	e7c9      	b.n	8002f34 <_malloc_r+0x20>
 8002fa0:	4622      	mov	r2, r4
 8002fa2:	6864      	ldr	r4, [r4, #4]
 8002fa4:	e7cc      	b.n	8002f40 <_malloc_r+0x2c>
 8002fa6:	1cc4      	adds	r4, r0, #3
 8002fa8:	f024 0403 	bic.w	r4, r4, #3
 8002fac:	42a0      	cmp	r0, r4
 8002fae:	d0e3      	beq.n	8002f78 <_malloc_r+0x64>
 8002fb0:	1a21      	subs	r1, r4, r0
 8002fb2:	4630      	mov	r0, r6
 8002fb4:	f000 fc52 	bl	800385c <_sbrk_r>
 8002fb8:	3001      	adds	r0, #1
 8002fba:	d1dd      	bne.n	8002f78 <_malloc_r+0x64>
 8002fbc:	e7cf      	b.n	8002f5e <_malloc_r+0x4a>
 8002fbe:	bf00      	nop
 8002fc0:	200000b4 	.word	0x200000b4
 8002fc4:	200000b8 	.word	0x200000b8

08002fc8 <__ssputs_r>:
 8002fc8:	e92d 47f0 	stmdb	sp!, {r4, r5, r6, r7, r8, r9, sl, lr}
 8002fcc:	688e      	ldr	r6, [r1, #8]
 8002fce:	429e      	cmp	r6, r3
 8002fd0:	4682      	mov	sl, r0
 8002fd2:	460c      	mov	r4, r1
 8002fd4:	4690      	mov	r8, r2
 8002fd6:	461f      	mov	r7, r3
 8002fd8:	d838      	bhi.n	800304c <__ssputs_r+0x84>
 8002fda:	898a      	ldrh	r2, [r1, #12]
 8002fdc:	f412 6f90 	tst.w	r2, #1152	; 0x480
 8002fe0:	d032      	beq.n	8003048 <__ssputs_r+0x80>
 8002fe2:	6825      	ldr	r5, [r4, #0]
 8002fe4:	6909      	ldr	r1, [r1, #16]
 8002fe6:	eba5 0901 	sub.w	r9, r5, r1
 8002fea:	6965      	ldr	r5, [r4, #20]
 8002fec:	eb05 0545 	add.w	r5, r5, r5, lsl #1
 8002ff0:	eb05 75d5 	add.w	r5, r5, r5, lsr #31
 8002ff4:	3301      	adds	r3, #1
 8002ff6:	444b      	add	r3, r9
 8002ff8:	106d      	asrs	r5, r5, #1
 8002ffa:	429d      	cmp	r5, r3
 8002ffc:	bf38      	it	cc
 8002ffe:	461d      	movcc	r5, r3
 8003000:	0553      	lsls	r3, r2, #21
 8003002:	d531      	bpl.n	8003068 <__ssputs_r+0xa0>
 8003004:	4629      	mov	r1, r5
 8003006:	f7ff ff85 	bl	8002f14 <_malloc_r>
 800300a:	4606      	mov	r6, r0
 800300c:	b950      	cbnz	r0, 8003024 <__ssputs_r+0x5c>
 800300e:	230c      	movs	r3, #12
 8003010:	f8ca 3000 	str.w	r3, [sl]
 8003014:	89a3      	ldrh	r3, [r4, #12]
 8003016:	f043 0340 	orr.w	r3, r3, #64	; 0x40
 800301a:	81a3      	strh	r3, [r4, #12]
 800301c:	f04f 30ff 	mov.w	r0, #4294967295
 8003020:	e8bd 87f0 	ldmia.w	sp!, {r4, r5, r6, r7, r8, r9, sl, pc}
 8003024:	6921      	ldr	r1, [r4, #16]
 8003026:	464a      	mov	r2, r9
 8003028:	f000 ff0e 	bl	8003e48 <memcpy>
 800302c:	89a3      	ldrh	r3, [r4, #12]
 800302e:	f423 6390 	bic.w	r3, r3, #1152	; 0x480
 8003032:	f043 0380 	orr.w	r3, r3, #128	; 0x80
 8003036:	81a3      	strh	r3, [r4, #12]
 8003038:	6126      	str	r6, [r4, #16]
 800303a:	6165      	str	r5, [r4, #20]
 800303c:	444e      	add	r6, r9
 800303e:	eba5 0509 	sub.w	r5, r5, r9
 8003042:	6026      	str	r6, [r4, #0]
 8003044:	60a5      	str	r5, [r4, #8]
 8003046:	463e      	mov	r6, r7
 8003048:	42be      	cmp	r6, r7
 800304a:	d900      	bls.n	800304e <__ssputs_r+0x86>
 800304c:	463e      	mov	r6, r7
 800304e:	4632      	mov	r2, r6
 8003050:	6820      	ldr	r0, [r4, #0]
 8003052:	4641      	mov	r1, r8
 8003054:	f000 ff06 	bl	8003e64 <memmove>
 8003058:	68a3      	ldr	r3, [r4, #8]
 800305a:	6822      	ldr	r2, [r4, #0]
 800305c:	1b9b      	subs	r3, r3, r6
 800305e:	4432      	add	r2, r6
 8003060:	60a3      	str	r3, [r4, #8]
 8003062:	6022      	str	r2, [r4, #0]
 8003064:	2000      	movs	r0, #0
 8003066:	e7db      	b.n	8003020 <__ssputs_r+0x58>
 8003068:	462a      	mov	r2, r5
 800306a:	f000 ff21 	bl	8003eb0 <_realloc_r>
 800306e:	4606      	mov	r6, r0
 8003070:	2800      	cmp	r0, #0
 8003072:	d1e1      	bne.n	8003038 <__ssputs_r+0x70>
 8003074:	6921      	ldr	r1, [r4, #16]
 8003076:	4650      	mov	r0, sl
 8003078:	f7ff fefc 	bl	8002e74 <_free_r>
 800307c:	e7c7      	b.n	800300e <__ssputs_r+0x46>
	...

08003080 <_svfiprintf_r>:
 8003080:	e92d 4ff0 	stmdb	sp!, {r4, r5, r6, r7, r8, r9, sl, fp, lr}
 8003084:	4698      	mov	r8, r3
 8003086:	898b      	ldrh	r3, [r1, #12]
 8003088:	061b      	lsls	r3, r3, #24
 800308a:	b09d      	sub	sp, #116	; 0x74
 800308c:	4607      	mov	r7, r0
 800308e:	460d      	mov	r5, r1
 8003090:	4614      	mov	r4, r2
 8003092:	d50e      	bpl.n	80030b2 <_svfiprintf_r+0x32>
 8003094:	690b      	ldr	r3, [r1, #16]
 8003096:	b963      	cbnz	r3, 80030b2 <_svfiprintf_r+0x32>
 8003098:	2140      	movs	r1, #64	; 0x40
 800309a:	f7ff ff3b 	bl	8002f14 <_malloc_r>
 800309e:	6028      	str	r0, [r5, #0]
 80030a0:	6128      	str	r0, [r5, #16]
 80030a2:	b920      	cbnz	r0, 80030ae <_svfiprintf_r+0x2e>
 80030a4:	230c      	movs	r3, #12
 80030a6:	603b      	str	r3, [r7, #0]
 80030a8:	f04f 30ff 	mov.w	r0, #4294967295
 80030ac:	e0d1      	b.n	8003252 <_svfiprintf_r+0x1d2>
 80030ae:	2340      	movs	r3, #64	; 0x40
 80030b0:	616b      	str	r3, [r5, #20]
 80030b2:	2300      	movs	r3, #0
 80030b4:	9309      	str	r3, [sp, #36]	; 0x24
 80030b6:	2320      	movs	r3, #32
 80030b8:	f88d 3029 	strb.w	r3, [sp, #41]	; 0x29
 80030bc:	f8cd 800c 	str.w	r8, [sp, #12]
 80030c0:	2330      	movs	r3, #48	; 0x30
 80030c2:	f8df 81a8 	ldr.w	r8, [pc, #424]	; 800326c <_svfiprintf_r+0x1ec>
 80030c6:	f88d 302a 	strb.w	r3, [sp, #42]	; 0x2a
 80030ca:	f04f 0901 	mov.w	r9, #1
 80030ce:	4623      	mov	r3, r4
 80030d0:	469a      	mov	sl, r3
 80030d2:	f813 2b01 	ldrb.w	r2, [r3], #1
 80030d6:	b10a      	cbz	r2, 80030dc <_svfiprintf_r+0x5c>
 80030d8:	2a25      	cmp	r2, #37	; 0x25
 80030da:	d1f9      	bne.n	80030d0 <_svfiprintf_r+0x50>
 80030dc:	ebba 0b04 	subs.w	fp, sl, r4
 80030e0:	d00b      	beq.n	80030fa <_svfiprintf_r+0x7a>
 80030e2:	465b      	mov	r3, fp
 80030e4:	4622      	mov	r2, r4
 80030e6:	4629      	mov	r1, r5
 80030e8:	4638      	mov	r0, r7
 80030ea:	f7ff ff6d 	bl	8002fc8 <__ssputs_r>
 80030ee:	3001      	adds	r0, #1
 80030f0:	f000 80aa 	beq.w	8003248 <_svfiprintf_r+0x1c8>
 80030f4:	9a09      	ldr	r2, [sp, #36]	; 0x24
 80030f6:	445a      	add	r2, fp
 80030f8:	9209      	str	r2, [sp, #36]	; 0x24
 80030fa:	f89a 3000 	ldrb.w	r3, [sl]
 80030fe:	2b00      	cmp	r3, #0
 8003100:	f000 80a2 	beq.w	8003248 <_svfiprintf_r+0x1c8>
 8003104:	2300      	movs	r3, #0
 8003106:	f04f 32ff 	mov.w	r2, #4294967295
 800310a:	e9cd 2305 	strd	r2, r3, [sp, #20]
 800310e:	f10a 0a01 	add.w	sl, sl, #1
 8003112:	9304      	str	r3, [sp, #16]
 8003114:	9307      	str	r3, [sp, #28]
 8003116:	f88d 3053 	strb.w	r3, [sp, #83]	; 0x53
 800311a:	931a      	str	r3, [sp, #104]	; 0x68
 800311c:	4654      	mov	r4, sl
 800311e:	2205      	movs	r2, #5
 8003120:	f814 1b01 	ldrb.w	r1, [r4], #1
 8003124:	4851      	ldr	r0, [pc, #324]	; (800326c <_svfiprintf_r+0x1ec>)
 8003126:	f7fd f86b 	bl	8000200 <memchr>
 800312a:	9a04      	ldr	r2, [sp, #16]
 800312c:	b9d8      	cbnz	r0, 8003166 <_svfiprintf_r+0xe6>
 800312e:	06d0      	lsls	r0, r2, #27
 8003130:	bf44      	itt	mi
 8003132:	2320      	movmi	r3, #32
 8003134:	f88d 3053 	strbmi.w	r3, [sp, #83]	; 0x53
 8003138:	0711      	lsls	r1, r2, #28
 800313a:	bf44      	itt	mi
 800313c:	232b      	movmi	r3, #43	; 0x2b
 800313e:	f88d 3053 	strbmi.w	r3, [sp, #83]	; 0x53
 8003142:	f89a 3000 	ldrb.w	r3, [sl]
 8003146:	2b2a      	cmp	r3, #42	; 0x2a
 8003148:	d015      	beq.n	8003176 <_svfiprintf_r+0xf6>
 800314a:	9a07      	ldr	r2, [sp, #28]
 800314c:	4654      	mov	r4, sl
 800314e:	2000      	movs	r0, #0
 8003150:	f04f 0c0a 	mov.w	ip, #10
 8003154:	4621      	mov	r1, r4
 8003156:	f811 3b01 	ldrb.w	r3, [r1], #1
 800315a:	3b30      	subs	r3, #48	; 0x30
 800315c:	2b09      	cmp	r3, #9
 800315e:	d94e      	bls.n	80031fe <_svfiprintf_r+0x17e>
 8003160:	b1b0      	cbz	r0, 8003190 <_svfiprintf_r+0x110>
 8003162:	9207      	str	r2, [sp, #28]
 8003164:	e014      	b.n	8003190 <_svfiprintf_r+0x110>
 8003166:	eba0 0308 	sub.w	r3, r0, r8
 800316a:	fa09 f303 	lsl.w	r3, r9, r3
 800316e:	4313      	orrs	r3, r2
 8003170:	9304      	str	r3, [sp, #16]
 8003172:	46a2      	mov	sl, r4
 8003174:	e7d2      	b.n	800311c <_svfiprintf_r+0x9c>
 8003176:	9b03      	ldr	r3, [sp, #12]
 8003178:	1d19      	adds	r1, r3, #4
 800317a:	681b      	ldr	r3, [r3, #0]
 800317c:	9103      	str	r1, [sp, #12]
 800317e:	2b00      	cmp	r3, #0
 8003180:	bfbb      	ittet	lt
 8003182:	425b      	neglt	r3, r3
 8003184:	f042 0202 	orrlt.w	r2, r2, #2
 8003188:	9307      	strge	r3, [sp, #28]
 800318a:	9307      	strlt	r3, [sp, #28]
 800318c:	bfb8      	it	lt
 800318e:	9204      	strlt	r2, [sp, #16]
 8003190:	7823      	ldrb	r3, [r4, #0]
 8003192:	2b2e      	cmp	r3, #46	; 0x2e
 8003194:	d10c      	bne.n	80031b0 <_svfiprintf_r+0x130>
 8003196:	7863      	ldrb	r3, [r4, #1]
 8003198:	2b2a      	cmp	r3, #42	; 0x2a
 800319a:	d135      	bne.n	8003208 <_svfiprintf_r+0x188>
 800319c:	9b03      	ldr	r3, [sp, #12]
 800319e:	1d1a      	adds	r2, r3, #4
 80031a0:	681b      	ldr	r3, [r3, #0]
 80031a2:	9203      	str	r2, [sp, #12]
 80031a4:	2b00      	cmp	r3, #0
 80031a6:	bfb8      	it	lt
 80031a8:	f04f 33ff 	movlt.w	r3, #4294967295
 80031ac:	3402      	adds	r4, #2
 80031ae:	9305      	str	r3, [sp, #20]
 80031b0:	f8df a0c8 	ldr.w	sl, [pc, #200]	; 800327c <_svfiprintf_r+0x1fc>
 80031b4:	7821      	ldrb	r1, [r4, #0]
 80031b6:	2203      	movs	r2, #3
 80031b8:	4650      	mov	r0, sl
 80031ba:	f7fd f821 	bl	8000200 <memchr>
 80031be:	b140      	cbz	r0, 80031d2 <_svfiprintf_r+0x152>
 80031c0:	2340      	movs	r3, #64	; 0x40
 80031c2:	eba0 000a 	sub.w	r0, r0, sl
 80031c6:	fa03 f000 	lsl.w	r0, r3, r0
 80031ca:	9b04      	ldr	r3, [sp, #16]
 80031cc:	4303      	orrs	r3, r0
 80031ce:	3401      	adds	r4, #1
 80031d0:	9304      	str	r3, [sp, #16]
 80031d2:	f814 1b01 	ldrb.w	r1, [r4], #1
 80031d6:	4826      	ldr	r0, [pc, #152]	; (8003270 <_svfiprintf_r+0x1f0>)
 80031d8:	f88d 1028 	strb.w	r1, [sp, #40]	; 0x28
 80031dc:	2206      	movs	r2, #6
 80031de:	f7fd f80f 	bl	8000200 <memchr>
 80031e2:	2800      	cmp	r0, #0
 80031e4:	d038      	beq.n	8003258 <_svfiprintf_r+0x1d8>
 80031e6:	4b23      	ldr	r3, [pc, #140]	; (8003274 <_svfiprintf_r+0x1f4>)
 80031e8:	bb1b      	cbnz	r3, 8003232 <_svfiprintf_r+0x1b2>
 80031ea:	9b03      	ldr	r3, [sp, #12]
 80031ec:	3307      	adds	r3, #7
 80031ee:	f023 0307 	bic.w	r3, r3, #7
 80031f2:	3308      	adds	r3, #8
 80031f4:	9303      	str	r3, [sp, #12]
 80031f6:	9b09      	ldr	r3, [sp, #36]	; 0x24
 80031f8:	4433      	add	r3, r6
 80031fa:	9309      	str	r3, [sp, #36]	; 0x24
 80031fc:	e767      	b.n	80030ce <_svfiprintf_r+0x4e>
 80031fe:	fb0c 3202 	mla	r2, ip, r2, r3
 8003202:	460c      	mov	r4, r1
 8003204:	2001      	movs	r0, #1
 8003206:	e7a5      	b.n	8003154 <_svfiprintf_r+0xd4>
 8003208:	2300      	movs	r3, #0
 800320a:	3401      	adds	r4, #1
 800320c:	9305      	str	r3, [sp, #20]
 800320e:	4619      	mov	r1, r3
 8003210:	f04f 0c0a 	mov.w	ip, #10
 8003214:	4620      	mov	r0, r4
 8003216:	f810 2b01 	ldrb.w	r2, [r0], #1
 800321a:	3a30      	subs	r2, #48	; 0x30
 800321c:	2a09      	cmp	r2, #9
 800321e:	d903      	bls.n	8003228 <_svfiprintf_r+0x1a8>
 8003220:	2b00      	cmp	r3, #0
 8003222:	d0c5      	beq.n	80031b0 <_svfiprintf_r+0x130>
 8003224:	9105      	str	r1, [sp, #20]
 8003226:	e7c3      	b.n	80031b0 <_svfiprintf_r+0x130>
 8003228:	fb0c 2101 	mla	r1, ip, r1, r2
 800322c:	4604      	mov	r4, r0
 800322e:	2301      	movs	r3, #1
 8003230:	e7f0      	b.n	8003214 <_svfiprintf_r+0x194>
 8003232:	ab03      	add	r3, sp, #12
 8003234:	9300      	str	r3, [sp, #0]
 8003236:	462a      	mov	r2, r5
 8003238:	4b0f      	ldr	r3, [pc, #60]	; (8003278 <_svfiprintf_r+0x1f8>)
 800323a:	a904      	add	r1, sp, #16
 800323c:	4638      	mov	r0, r7
 800323e:	f3af 8000 	nop.w
 8003242:	1c42      	adds	r2, r0, #1
 8003244:	4606      	mov	r6, r0
 8003246:	d1d6      	bne.n	80031f6 <_svfiprintf_r+0x176>
 8003248:	89ab      	ldrh	r3, [r5, #12]
 800324a:	065b      	lsls	r3, r3, #25
 800324c:	f53f af2c 	bmi.w	80030a8 <_svfiprintf_r+0x28>
 8003250:	9809      	ldr	r0, [sp, #36]	; 0x24
 8003252:	b01d      	add	sp, #116	; 0x74
 8003254:	e8bd 8ff0 	ldmia.w	sp!, {r4, r5, r6, r7, r8, r9, sl, fp, pc}
 8003258:	ab03      	add	r3, sp, #12
 800325a:	9300      	str	r3, [sp, #0]
 800325c:	462a      	mov	r2, r5
 800325e:	4b06      	ldr	r3, [pc, #24]	; (8003278 <_svfiprintf_r+0x1f8>)
 8003260:	a904      	add	r1, sp, #16
 8003262:	4638      	mov	r0, r7
 8003264:	f000 f9d4 	bl	8003610 <_printf_i>
 8003268:	e7eb      	b.n	8003242 <_svfiprintf_r+0x1c2>
 800326a:	bf00      	nop
 800326c:	080042c4 	.word	0x080042c4
 8003270:	080042ce 	.word	0x080042ce
 8003274:	00000000 	.word	0x00000000
 8003278:	08002fc9 	.word	0x08002fc9
 800327c:	080042ca 	.word	0x080042ca

08003280 <__sfputc_r>:
 8003280:	6893      	ldr	r3, [r2, #8]
 8003282:	3b01      	subs	r3, #1
 8003284:	2b00      	cmp	r3, #0
 8003286:	b410      	push	{r4}
 8003288:	6093      	str	r3, [r2, #8]
 800328a:	da08      	bge.n	800329e <__sfputc_r+0x1e>
 800328c:	6994      	ldr	r4, [r2, #24]
 800328e:	42a3      	cmp	r3, r4
 8003290:	db01      	blt.n	8003296 <__sfputc_r+0x16>
 8003292:	290a      	cmp	r1, #10
 8003294:	d103      	bne.n	800329e <__sfputc_r+0x1e>
 8003296:	f85d 4b04 	ldr.w	r4, [sp], #4
 800329a:	f000 baef 	b.w	800387c <__swbuf_r>
 800329e:	6813      	ldr	r3, [r2, #0]
 80032a0:	1c58      	adds	r0, r3, #1
 80032a2:	6010      	str	r0, [r2, #0]
 80032a4:	7019      	strb	r1, [r3, #0]
 80032a6:	4608      	mov	r0, r1
 80032a8:	f85d 4b04 	ldr.w	r4, [sp], #4
 80032ac:	4770      	bx	lr

080032ae <__sfputs_r>:
 80032ae:	b5f8      	push	{r3, r4, r5, r6, r7, lr}
 80032b0:	4606      	mov	r6, r0
 80032b2:	460f      	mov	r7, r1
 80032b4:	4614      	mov	r4, r2
 80032b6:	18d5      	adds	r5, r2, r3
 80032b8:	42ac      	cmp	r4, r5
 80032ba:	d101      	bne.n	80032c0 <__sfputs_r+0x12>
 80032bc:	2000      	movs	r0, #0
 80032be:	e007      	b.n	80032d0 <__sfputs_r+0x22>
 80032c0:	f814 1b01 	ldrb.w	r1, [r4], #1
 80032c4:	463a      	mov	r2, r7
 80032c6:	4630      	mov	r0, r6
 80032c8:	f7ff ffda 	bl	8003280 <__sfputc_r>
 80032cc:	1c43      	adds	r3, r0, #1
 80032ce:	d1f3      	bne.n	80032b8 <__sfputs_r+0xa>
 80032d0:	bdf8      	pop	{r3, r4, r5, r6, r7, pc}
	...

080032d4 <_vfiprintf_r>:
 80032d4:	e92d 4ff0 	stmdb	sp!, {r4, r5, r6, r7, r8, r9, sl, fp, lr}
 80032d8:	460d      	mov	r5, r1
 80032da:	b09d      	sub	sp, #116	; 0x74
 80032dc:	4614      	mov	r4, r2
 80032de:	4698      	mov	r8, r3
 80032e0:	4606      	mov	r6, r0
 80032e2:	b118      	cbz	r0, 80032ec <_vfiprintf_r+0x18>
 80032e4:	6983      	ldr	r3, [r0, #24]
 80032e6:	b90b      	cbnz	r3, 80032ec <_vfiprintf_r+0x18>
 80032e8:	f000 fcaa 	bl	8003c40 <__sinit>
 80032ec:	4b89      	ldr	r3, [pc, #548]	; (8003514 <_vfiprintf_r+0x240>)
 80032ee:	429d      	cmp	r5, r3
 80032f0:	d11b      	bne.n	800332a <_vfiprintf_r+0x56>
 80032f2:	6875      	ldr	r5, [r6, #4]
 80032f4:	6e6b      	ldr	r3, [r5, #100]	; 0x64
 80032f6:	07d9      	lsls	r1, r3, #31
 80032f8:	d405      	bmi.n	8003306 <_vfiprintf_r+0x32>
 80032fa:	89ab      	ldrh	r3, [r5, #12]
 80032fc:	059a      	lsls	r2, r3, #22
 80032fe:	d402      	bmi.n	8003306 <_vfiprintf_r+0x32>
 8003300:	6da8      	ldr	r0, [r5, #88]	; 0x58
 8003302:	f000 fd3b 	bl	8003d7c <__retarget_lock_acquire_recursive>
 8003306:	89ab      	ldrh	r3, [r5, #12]
 8003308:	071b      	lsls	r3, r3, #28
 800330a:	d501      	bpl.n	8003310 <_vfiprintf_r+0x3c>
 800330c:	692b      	ldr	r3, [r5, #16]
 800330e:	b9eb      	cbnz	r3, 800334c <_vfiprintf_r+0x78>
 8003310:	4629      	mov	r1, r5
 8003312:	4630      	mov	r0, r6
 8003314:	f000 fb04 	bl	8003920 <__swsetup_r>
 8003318:	b1c0      	cbz	r0, 800334c <_vfiprintf_r+0x78>
 800331a:	6e6b      	ldr	r3, [r5, #100]	; 0x64
 800331c:	07dc      	lsls	r4, r3, #31
 800331e:	d50e      	bpl.n	800333e <_vfiprintf_r+0x6a>
 8003320:	f04f 30ff 	mov.w	r0, #4294967295
 8003324:	b01d      	add	sp, #116	; 0x74
 8003326:	e8bd 8ff0 	ldmia.w	sp!, {r4, r5, r6, r7, r8, r9, sl, fp, pc}
 800332a:	4b7b      	ldr	r3, [pc, #492]	; (8003518 <_vfiprintf_r+0x244>)
 800332c:	429d      	cmp	r5, r3
 800332e:	d101      	bne.n	8003334 <_vfiprintf_r+0x60>
 8003330:	68b5      	ldr	r5, [r6, #8]
 8003332:	e7df      	b.n	80032f4 <_vfiprintf_r+0x20>
 8003334:	4b79      	ldr	r3, [pc, #484]	; (800351c <_vfiprintf_r+0x248>)
 8003336:	429d      	cmp	r5, r3
 8003338:	bf08      	it	eq
 800333a:	68f5      	ldreq	r5, [r6, #12]
 800333c:	e7da      	b.n	80032f4 <_vfiprintf_r+0x20>
 800333e:	89ab      	ldrh	r3, [r5, #12]
 8003340:	0598      	lsls	r0, r3, #22
 8003342:	d4ed      	bmi.n	8003320 <_vfiprintf_r+0x4c>
 8003344:	6da8      	ldr	r0, [r5, #88]	; 0x58
 8003346:	f000 fd1a 	bl	8003d7e <__retarget_lock_release_recursive>
 800334a:	e7e9      	b.n	8003320 <_vfiprintf_r+0x4c>
 800334c:	2300      	movs	r3, #0
 800334e:	9309      	str	r3, [sp, #36]	; 0x24
 8003350:	2320      	movs	r3, #32
 8003352:	f88d 3029 	strb.w	r3, [sp, #41]	; 0x29
 8003356:	f8cd 800c 	str.w	r8, [sp, #12]
 800335a:	2330      	movs	r3, #48	; 0x30
 800335c:	f8df 81c0 	ldr.w	r8, [pc, #448]	; 8003520 <_vfiprintf_r+0x24c>
 8003360:	f88d 302a 	strb.w	r3, [sp, #42]	; 0x2a
 8003364:	f04f 0901 	mov.w	r9, #1
 8003368:	4623      	mov	r3, r4
 800336a:	469a      	mov	sl, r3
 800336c:	f813 2b01 	ldrb.w	r2, [r3], #1
 8003370:	b10a      	cbz	r2, 8003376 <_vfiprintf_r+0xa2>
 8003372:	2a25      	cmp	r2, #37	; 0x25
 8003374:	d1f9      	bne.n	800336a <_vfiprintf_r+0x96>
 8003376:	ebba 0b04 	subs.w	fp, sl, r4
 800337a:	d00b      	beq.n	8003394 <_vfiprintf_r+0xc0>
 800337c:	465b      	mov	r3, fp
 800337e:	4622      	mov	r2, r4
 8003380:	4629      	mov	r1, r5
 8003382:	4630      	mov	r0, r6
 8003384:	f7ff ff93 	bl	80032ae <__sfputs_r>
 8003388:	3001      	adds	r0, #1
 800338a:	f000 80aa 	beq.w	80034e2 <_vfiprintf_r+0x20e>
 800338e:	9a09      	ldr	r2, [sp, #36]	; 0x24
 8003390:	445a      	add	r2, fp
 8003392:	9209      	str	r2, [sp, #36]	; 0x24
 8003394:	f89a 3000 	ldrb.w	r3, [sl]
 8003398:	2b00      	cmp	r3, #0
 800339a:	f000 80a2 	beq.w	80034e2 <_vfiprintf_r+0x20e>
 800339e:	2300      	movs	r3, #0
 80033a0:	f04f 32ff 	mov.w	r2, #4294967295
 80033a4:	e9cd 2305 	strd	r2, r3, [sp, #20]
 80033a8:	f10a 0a01 	add.w	sl, sl, #1
 80033ac:	9304      	str	r3, [sp, #16]
 80033ae:	9307      	str	r3, [sp, #28]
 80033b0:	f88d 3053 	strb.w	r3, [sp, #83]	; 0x53
 80033b4:	931a      	str	r3, [sp, #104]	; 0x68
 80033b6:	4654      	mov	r4, sl
 80033b8:	2205      	movs	r2, #5
 80033ba:	f814 1b01 	ldrb.w	r1, [r4], #1
 80033be:	4858      	ldr	r0, [pc, #352]	; (8003520 <_vfiprintf_r+0x24c>)
 80033c0:	f7fc ff1e 	bl	8000200 <memchr>
 80033c4:	9a04      	ldr	r2, [sp, #16]
 80033c6:	b9d8      	cbnz	r0, 8003400 <_vfiprintf_r+0x12c>
 80033c8:	06d1      	lsls	r1, r2, #27
 80033ca:	bf44      	itt	mi
 80033cc:	2320      	movmi	r3, #32
 80033ce:	f88d 3053 	strbmi.w	r3, [sp, #83]	; 0x53
 80033d2:	0713      	lsls	r3, r2, #28
 80033d4:	bf44      	itt	mi
 80033d6:	232b      	movmi	r3, #43	; 0x2b
 80033d8:	f88d 3053 	strbmi.w	r3, [sp, #83]	; 0x53
 80033dc:	f89a 3000 	ldrb.w	r3, [sl]
 80033e0:	2b2a      	cmp	r3, #42	; 0x2a
 80033e2:	d015      	beq.n	8003410 <_vfiprintf_r+0x13c>
 80033e4:	9a07      	ldr	r2, [sp, #28]
 80033e6:	4654      	mov	r4, sl
 80033e8:	2000      	movs	r0, #0
 80033ea:	f04f 0c0a 	mov.w	ip, #10
 80033ee:	4621      	mov	r1, r4
 80033f0:	f811 3b01 	ldrb.w	r3, [r1], #1
 80033f4:	3b30      	subs	r3, #48	; 0x30
 80033f6:	2b09      	cmp	r3, #9
 80033f8:	d94e      	bls.n	8003498 <_vfiprintf_r+0x1c4>
 80033fa:	b1b0      	cbz	r0, 800342a <_vfiprintf_r+0x156>
 80033fc:	9207      	str	r2, [sp, #28]
 80033fe:	e014      	b.n	800342a <_vfiprintf_r+0x156>
 8003400:	eba0 0308 	sub.w	r3, r0, r8
 8003404:	fa09 f303 	lsl.w	r3, r9, r3
 8003408:	4313      	orrs	r3, r2
 800340a:	9304      	str	r3, [sp, #16]
 800340c:	46a2      	mov	sl, r4
 800340e:	e7d2      	b.n	80033b6 <_vfiprintf_r+0xe2>
 8003410:	9b03      	ldr	r3, [sp, #12]
 8003412:	1d19      	adds	r1, r3, #4
 8003414:	681b      	ldr	r3, [r3, #0]
 8003416:	9103      	str	r1, [sp, #12]
 8003418:	2b00      	cmp	r3, #0
 800341a:	bfbb      	ittet	lt
 800341c:	425b      	neglt	r3, r3
 800341e:	f042 0202 	orrlt.w	r2, r2, #2
 8003422:	9307      	strge	r3, [sp, #28]
 8003424:	9307      	strlt	r3, [sp, #28]
 8003426:	bfb8      	it	lt
 8003428:	9204      	strlt	r2, [sp, #16]
 800342a:	7823      	ldrb	r3, [r4, #0]
 800342c:	2b2e      	cmp	r3, #46	; 0x2e
 800342e:	d10c      	bne.n	800344a <_vfiprintf_r+0x176>
 8003430:	7863      	ldrb	r3, [r4, #1]
 8003432:	2b2a      	cmp	r3, #42	; 0x2a
 8003434:	d135      	bne.n	80034a2 <_vfiprintf_r+0x1ce>
 8003436:	9b03      	ldr	r3, [sp, #12]
 8003438:	1d1a      	adds	r2, r3, #4
 800343a:	681b      	ldr	r3, [r3, #0]
 800343c:	9203      	str	r2, [sp, #12]
 800343e:	2b00      	cmp	r3, #0
 8003440:	bfb8      	it	lt
 8003442:	f04f 33ff 	movlt.w	r3, #4294967295
 8003446:	3402      	adds	r4, #2
 8003448:	9305      	str	r3, [sp, #20]
 800344a:	f8df a0e4 	ldr.w	sl, [pc, #228]	; 8003530 <_vfiprintf_r+0x25c>
 800344e:	7821      	ldrb	r1, [r4, #0]
 8003450:	2203      	movs	r2, #3
 8003452:	4650      	mov	r0, sl
 8003454:	f7fc fed4 	bl	8000200 <memchr>
 8003458:	b140      	cbz	r0, 800346c <_vfiprintf_r+0x198>
 800345a:	2340      	movs	r3, #64	; 0x40
 800345c:	eba0 000a 	sub.w	r0, r0, sl
 8003460:	fa03 f000 	lsl.w	r0, r3, r0
 8003464:	9b04      	ldr	r3, [sp, #16]
 8003466:	4303      	orrs	r3, r0
 8003468:	3401      	adds	r4, #1
 800346a:	9304      	str	r3, [sp, #16]
 800346c:	f814 1b01 	ldrb.w	r1, [r4], #1
 8003470:	482c      	ldr	r0, [pc, #176]	; (8003524 <_vfiprintf_r+0x250>)
 8003472:	f88d 1028 	strb.w	r1, [sp, #40]	; 0x28
 8003476:	2206      	movs	r2, #6
 8003478:	f7fc fec2 	bl	8000200 <memchr>
 800347c:	2800      	cmp	r0, #0
 800347e:	d03f      	beq.n	8003500 <_vfiprintf_r+0x22c>
 8003480:	4b29      	ldr	r3, [pc, #164]	; (8003528 <_vfiprintf_r+0x254>)
 8003482:	bb1b      	cbnz	r3, 80034cc <_vfiprintf_r+0x1f8>
 8003484:	9b03      	ldr	r3, [sp, #12]
 8003486:	3307      	adds	r3, #7
 8003488:	f023 0307 	bic.w	r3, r3, #7
 800348c:	3308      	adds	r3, #8
 800348e:	9303      	str	r3, [sp, #12]
 8003490:	9b09      	ldr	r3, [sp, #36]	; 0x24
 8003492:	443b      	add	r3, r7
 8003494:	9309      	str	r3, [sp, #36]	; 0x24
 8003496:	e767      	b.n	8003368 <_vfiprintf_r+0x94>
 8003498:	fb0c 3202 	mla	r2, ip, r2, r3
 800349c:	460c      	mov	r4, r1
 800349e:	2001      	movs	r0, #1
 80034a0:	e7a5      	b.n	80033ee <_vfiprintf_r+0x11a>
 80034a2:	2300      	movs	r3, #0
 80034a4:	3401      	adds	r4, #1
 80034a6:	9305      	str	r3, [sp, #20]
 80034a8:	4619      	mov	r1, r3
 80034aa:	f04f 0c0a 	mov.w	ip, #10
 80034ae:	4620      	mov	r0, r4
 80034b0:	f810 2b01 	ldrb.w	r2, [r0], #1
 80034b4:	3a30      	subs	r2, #48	; 0x30
 80034b6:	2a09      	cmp	r2, #9
 80034b8:	d903      	bls.n	80034c2 <_vfiprintf_r+0x1ee>
 80034ba:	2b00      	cmp	r3, #0
 80034bc:	d0c5      	beq.n	800344a <_vfiprintf_r+0x176>
 80034be:	9105      	str	r1, [sp, #20]
 80034c0:	e7c3      	b.n	800344a <_vfiprintf_r+0x176>
 80034c2:	fb0c 2101 	mla	r1, ip, r1, r2
 80034c6:	4604      	mov	r4, r0
 80034c8:	2301      	movs	r3, #1
 80034ca:	e7f0      	b.n	80034ae <_vfiprintf_r+0x1da>
 80034cc:	ab03      	add	r3, sp, #12
 80034ce:	9300      	str	r3, [sp, #0]
 80034d0:	462a      	mov	r2, r5
 80034d2:	4b16      	ldr	r3, [pc, #88]	; (800352c <_vfiprintf_r+0x258>)
 80034d4:	a904      	add	r1, sp, #16
 80034d6:	4630      	mov	r0, r6
 80034d8:	f3af 8000 	nop.w
 80034dc:	4607      	mov	r7, r0
 80034de:	1c78      	adds	r0, r7, #1
 80034e0:	d1d6      	bne.n	8003490 <_vfiprintf_r+0x1bc>
 80034e2:	6e6b      	ldr	r3, [r5, #100]	; 0x64
 80034e4:	07d9      	lsls	r1, r3, #31
 80034e6:	d405      	bmi.n	80034f4 <_vfiprintf_r+0x220>
 80034e8:	89ab      	ldrh	r3, [r5, #12]
 80034ea:	059a      	lsls	r2, r3, #22
 80034ec:	d402      	bmi.n	80034f4 <_vfiprintf_r+0x220>
 80034ee:	6da8      	ldr	r0, [r5, #88]	; 0x58
 80034f0:	f000 fc45 	bl	8003d7e <__retarget_lock_release_recursive>
 80034f4:	89ab      	ldrh	r3, [r5, #12]
 80034f6:	065b      	lsls	r3, r3, #25
 80034f8:	f53f af12 	bmi.w	8003320 <_vfiprintf_r+0x4c>
 80034fc:	9809      	ldr	r0, [sp, #36]	; 0x24
 80034fe:	e711      	b.n	8003324 <_vfiprintf_r+0x50>
 8003500:	ab03      	add	r3, sp, #12
 8003502:	9300      	str	r3, [sp, #0]
 8003504:	462a      	mov	r2, r5
 8003506:	4b09      	ldr	r3, [pc, #36]	; (800352c <_vfiprintf_r+0x258>)
 8003508:	a904      	add	r1, sp, #16
 800350a:	4630      	mov	r0, r6
 800350c:	f000 f880 	bl	8003610 <_printf_i>
 8003510:	e7e4      	b.n	80034dc <_vfiprintf_r+0x208>
 8003512:	bf00      	nop
 8003514:	08004318 	.word	0x08004318
 8003518:	08004338 	.word	0x08004338
 800351c:	080042f8 	.word	0x080042f8
 8003520:	080042c4 	.word	0x080042c4
 8003524:	080042ce 	.word	0x080042ce
 8003528:	00000000 	.word	0x00000000
 800352c:	080032af 	.word	0x080032af
 8003530:	080042ca 	.word	0x080042ca

08003534 <_printf_common>:
 8003534:	e92d 47f0 	stmdb	sp!, {r4, r5, r6, r7, r8, r9, sl, lr}
 8003538:	4616      	mov	r6, r2
 800353a:	4699      	mov	r9, r3
 800353c:	688a      	ldr	r2, [r1, #8]
 800353e:	690b      	ldr	r3, [r1, #16]
 8003540:	f8dd 8020 	ldr.w	r8, [sp, #32]
 8003544:	4293      	cmp	r3, r2
 8003546:	bfb8      	it	lt
 8003548:	4613      	movlt	r3, r2
 800354a:	6033      	str	r3, [r6, #0]
 800354c:	f891 2043 	ldrb.w	r2, [r1, #67]	; 0x43
 8003550:	4607      	mov	r7, r0
 8003552:	460c      	mov	r4, r1
 8003554:	b10a      	cbz	r2, 800355a <_printf_common+0x26>
 8003556:	3301      	adds	r3, #1
 8003558:	6033      	str	r3, [r6, #0]
 800355a:	6823      	ldr	r3, [r4, #0]
 800355c:	0699      	lsls	r1, r3, #26
 800355e:	bf42      	ittt	mi
 8003560:	6833      	ldrmi	r3, [r6, #0]
 8003562:	3302      	addmi	r3, #2
 8003564:	6033      	strmi	r3, [r6, #0]
 8003566:	6825      	ldr	r5, [r4, #0]
 8003568:	f015 0506 	ands.w	r5, r5, #6
 800356c:	d106      	bne.n	800357c <_printf_common+0x48>
 800356e:	f104 0a19 	add.w	sl, r4, #25
 8003572:	68e3      	ldr	r3, [r4, #12]
 8003574:	6832      	ldr	r2, [r6, #0]
 8003576:	1a9b      	subs	r3, r3, r2
 8003578:	42ab      	cmp	r3, r5
 800357a:	dc26      	bgt.n	80035ca <_printf_common+0x96>
 800357c:	f894 2043 	ldrb.w	r2, [r4, #67]	; 0x43
 8003580:	1e13      	subs	r3, r2, #0
 8003582:	6822      	ldr	r2, [r4, #0]
 8003584:	bf18      	it	ne
 8003586:	2301      	movne	r3, #1
 8003588:	0692      	lsls	r2, r2, #26
 800358a:	d42b      	bmi.n	80035e4 <_printf_common+0xb0>
 800358c:	f104 0243 	add.w	r2, r4, #67	; 0x43
 8003590:	4649      	mov	r1, r9
 8003592:	4638      	mov	r0, r7
 8003594:	47c0      	blx	r8
 8003596:	3001      	adds	r0, #1
 8003598:	d01e      	beq.n	80035d8 <_printf_common+0xa4>
 800359a:	6823      	ldr	r3, [r4, #0]
 800359c:	68e5      	ldr	r5, [r4, #12]
 800359e:	6832      	ldr	r2, [r6, #0]
 80035a0:	f003 0306 	and.w	r3, r3, #6
 80035a4:	2b04      	cmp	r3, #4
 80035a6:	bf08      	it	eq
 80035a8:	1aad      	subeq	r5, r5, r2
 80035aa:	68a3      	ldr	r3, [r4, #8]
 80035ac:	6922      	ldr	r2, [r4, #16]
 80035ae:	bf0c      	ite	eq
 80035b0:	ea25 75e5 	biceq.w	r5, r5, r5, asr #31
 80035b4:	2500      	movne	r5, #0
 80035b6:	4293      	cmp	r3, r2
 80035b8:	bfc4      	itt	gt
 80035ba:	1a9b      	subgt	r3, r3, r2
 80035bc:	18ed      	addgt	r5, r5, r3
 80035be:	2600      	movs	r6, #0
 80035c0:	341a      	adds	r4, #26
 80035c2:	42b5      	cmp	r5, r6
 80035c4:	d11a      	bne.n	80035fc <_printf_common+0xc8>
 80035c6:	2000      	movs	r0, #0
 80035c8:	e008      	b.n	80035dc <_printf_common+0xa8>
 80035ca:	2301      	movs	r3, #1
 80035cc:	4652      	mov	r2, sl
 80035ce:	4649      	mov	r1, r9
 80035d0:	4638      	mov	r0, r7
 80035d2:	47c0      	blx	r8
 80035d4:	3001      	adds	r0, #1
 80035d6:	d103      	bne.n	80035e0 <_printf_common+0xac>
 80035d8:	f04f 30ff 	mov.w	r0, #4294967295
 80035dc:	e8bd 87f0 	ldmia.w	sp!, {r4, r5, r6, r7, r8, r9, sl, pc}
 80035e0:	3501      	adds	r5, #1
 80035e2:	e7c6      	b.n	8003572 <_printf_common+0x3e>
 80035e4:	18e1      	adds	r1, r4, r3
 80035e6:	1c5a      	adds	r2, r3, #1
 80035e8:	2030      	movs	r0, #48	; 0x30
 80035ea:	f881 0043 	strb.w	r0, [r1, #67]	; 0x43
 80035ee:	4422      	add	r2, r4
 80035f0:	f894 1045 	ldrb.w	r1, [r4, #69]	; 0x45
 80035f4:	f882 1043 	strb.w	r1, [r2, #67]	; 0x43
 80035f8:	3302      	adds	r3, #2
 80035fa:	e7c7      	b.n	800358c <_printf_common+0x58>
 80035fc:	2301      	movs	r3, #1
 80035fe:	4622      	mov	r2, r4
 8003600:	4649      	mov	r1, r9
 8003602:	4638      	mov	r0, r7
 8003604:	47c0      	blx	r8
 8003606:	3001      	adds	r0, #1
 8003608:	d0e6      	beq.n	80035d8 <_printf_common+0xa4>
 800360a:	3601      	adds	r6, #1
 800360c:	e7d9      	b.n	80035c2 <_printf_common+0x8e>
	...

08003610 <_printf_i>:
 8003610:	e92d 47ff 	stmdb	sp!, {r0, r1, r2, r3, r4, r5, r6, r7, r8, r9, sl, lr}
 8003614:	460c      	mov	r4, r1
 8003616:	4691      	mov	r9, r2
 8003618:	7e27      	ldrb	r7, [r4, #24]
 800361a:	990c      	ldr	r1, [sp, #48]	; 0x30
 800361c:	2f78      	cmp	r7, #120	; 0x78
 800361e:	4680      	mov	r8, r0
 8003620:	469a      	mov	sl, r3
 8003622:	f104 0243 	add.w	r2, r4, #67	; 0x43
 8003626:	d807      	bhi.n	8003638 <_printf_i+0x28>
 8003628:	2f62      	cmp	r7, #98	; 0x62
 800362a:	d80a      	bhi.n	8003642 <_printf_i+0x32>
 800362c:	2f00      	cmp	r7, #0
 800362e:	f000 80d8 	beq.w	80037e2 <_printf_i+0x1d2>
 8003632:	2f58      	cmp	r7, #88	; 0x58
 8003634:	f000 80a3 	beq.w	800377e <_printf_i+0x16e>
 8003638:	f104 0642 	add.w	r6, r4, #66	; 0x42
 800363c:	f884 7042 	strb.w	r7, [r4, #66]	; 0x42
 8003640:	e03a      	b.n	80036b8 <_printf_i+0xa8>
 8003642:	f1a7 0363 	sub.w	r3, r7, #99	; 0x63
 8003646:	2b15      	cmp	r3, #21
 8003648:	d8f6      	bhi.n	8003638 <_printf_i+0x28>
 800364a:	a001      	add	r0, pc, #4	; (adr r0, 8003650 <_printf_i+0x40>)
 800364c:	f850 f023 	ldr.w	pc, [r0, r3, lsl #2]
 8003650:	080036a9 	.word	0x080036a9
 8003654:	080036bd 	.word	0x080036bd
 8003658:	08003639 	.word	0x08003639
 800365c:	08003639 	.word	0x08003639
 8003660:	08003639 	.word	0x08003639
 8003664:	08003639 	.word	0x08003639
 8003668:	080036bd 	.word	0x080036bd
 800366c:	08003639 	.word	0x08003639
 8003670:	08003639 	.word	0x08003639
 8003674:	08003639 	.word	0x08003639
 8003678:	08003639 	.word	0x08003639
 800367c:	080037c9 	.word	0x080037c9
 8003680:	080036ed 	.word	0x080036ed
 8003684:	080037ab 	.word	0x080037ab
 8003688:	08003639 	.word	0x08003639
 800368c:	08003639 	.word	0x08003639
 8003690:	080037eb 	.word	0x080037eb
 8003694:	08003639 	.word	0x08003639
 8003698:	080036ed 	.word	0x080036ed
 800369c:	08003639 	.word	0x08003639
 80036a0:	08003639 	.word	0x08003639
 80036a4:	080037b3 	.word	0x080037b3
 80036a8:	680b      	ldr	r3, [r1, #0]
 80036aa:	1d1a      	adds	r2, r3, #4
 80036ac:	681b      	ldr	r3, [r3, #0]
 80036ae:	600a      	str	r2, [r1, #0]
 80036b0:	f104 0642 	add.w	r6, r4, #66	; 0x42
 80036b4:	f884 3042 	strb.w	r3, [r4, #66]	; 0x42
 80036b8:	2301      	movs	r3, #1
 80036ba:	e0a3      	b.n	8003804 <_printf_i+0x1f4>
 80036bc:	6825      	ldr	r5, [r4, #0]
 80036be:	6808      	ldr	r0, [r1, #0]
 80036c0:	062e      	lsls	r6, r5, #24
 80036c2:	f100 0304 	add.w	r3, r0, #4
 80036c6:	d50a      	bpl.n	80036de <_printf_i+0xce>
 80036c8:	6805      	ldr	r5, [r0, #0]
 80036ca:	600b      	str	r3, [r1, #0]
 80036cc:	2d00      	cmp	r5, #0
 80036ce:	da03      	bge.n	80036d8 <_printf_i+0xc8>
 80036d0:	232d      	movs	r3, #45	; 0x2d
 80036d2:	426d      	negs	r5, r5
 80036d4:	f884 3043 	strb.w	r3, [r4, #67]	; 0x43
 80036d8:	485e      	ldr	r0, [pc, #376]	; (8003854 <_printf_i+0x244>)
 80036da:	230a      	movs	r3, #10
 80036dc:	e019      	b.n	8003712 <_printf_i+0x102>
 80036de:	f015 0f40 	tst.w	r5, #64	; 0x40
 80036e2:	6805      	ldr	r5, [r0, #0]
 80036e4:	600b      	str	r3, [r1, #0]
 80036e6:	bf18      	it	ne
 80036e8:	b22d      	sxthne	r5, r5
 80036ea:	e7ef      	b.n	80036cc <_printf_i+0xbc>
 80036ec:	680b      	ldr	r3, [r1, #0]
 80036ee:	6825      	ldr	r5, [r4, #0]
 80036f0:	1d18      	adds	r0, r3, #4
 80036f2:	6008      	str	r0, [r1, #0]
 80036f4:	0628      	lsls	r0, r5, #24
 80036f6:	d501      	bpl.n	80036fc <_printf_i+0xec>
 80036f8:	681d      	ldr	r5, [r3, #0]
 80036fa:	e002      	b.n	8003702 <_printf_i+0xf2>
 80036fc:	0669      	lsls	r1, r5, #25
 80036fe:	d5fb      	bpl.n	80036f8 <_printf_i+0xe8>
 8003700:	881d      	ldrh	r5, [r3, #0]
 8003702:	4854      	ldr	r0, [pc, #336]	; (8003854 <_printf_i+0x244>)
 8003704:	2f6f      	cmp	r7, #111	; 0x6f
 8003706:	bf0c      	ite	eq
 8003708:	2308      	moveq	r3, #8
 800370a:	230a      	movne	r3, #10
 800370c:	2100      	movs	r1, #0
 800370e:	f884 1043 	strb.w	r1, [r4, #67]	; 0x43
 8003712:	6866      	ldr	r6, [r4, #4]
 8003714:	60a6      	str	r6, [r4, #8]
 8003716:	2e00      	cmp	r6, #0
 8003718:	bfa2      	ittt	ge
 800371a:	6821      	ldrge	r1, [r4, #0]
 800371c:	f021 0104 	bicge.w	r1, r1, #4
 8003720:	6021      	strge	r1, [r4, #0]
 8003722:	b90d      	cbnz	r5, 8003728 <_printf_i+0x118>
 8003724:	2e00      	cmp	r6, #0
 8003726:	d04d      	beq.n	80037c4 <_printf_i+0x1b4>
 8003728:	4616      	mov	r6, r2
 800372a:	fbb5 f1f3 	udiv	r1, r5, r3
 800372e:	fb03 5711 	mls	r7, r3, r1, r5
 8003732:	5dc7      	ldrb	r7, [r0, r7]
 8003734:	f806 7d01 	strb.w	r7, [r6, #-1]!
 8003738:	462f      	mov	r7, r5
 800373a:	42bb      	cmp	r3, r7
 800373c:	460d      	mov	r5, r1
 800373e:	d9f4      	bls.n	800372a <_printf_i+0x11a>
 8003740:	2b08      	cmp	r3, #8
 8003742:	d10b      	bne.n	800375c <_printf_i+0x14c>
 8003744:	6823      	ldr	r3, [r4, #0]
 8003746:	07df      	lsls	r7, r3, #31
 8003748:	d508      	bpl.n	800375c <_printf_i+0x14c>
 800374a:	6923      	ldr	r3, [r4, #16]
 800374c:	6861      	ldr	r1, [r4, #4]
 800374e:	4299      	cmp	r1, r3
 8003750:	bfde      	ittt	le
 8003752:	2330      	movle	r3, #48	; 0x30
 8003754:	f806 3c01 	strble.w	r3, [r6, #-1]
 8003758:	f106 36ff 	addle.w	r6, r6, #4294967295
 800375c:	1b92      	subs	r2, r2, r6
 800375e:	6122      	str	r2, [r4, #16]
 8003760:	f8cd a000 	str.w	sl, [sp]
 8003764:	464b      	mov	r3, r9
 8003766:	aa03      	add	r2, sp, #12
 8003768:	4621      	mov	r1, r4
 800376a:	4640      	mov	r0, r8
 800376c:	f7ff fee2 	bl	8003534 <_printf_common>
 8003770:	3001      	adds	r0, #1
 8003772:	d14c      	bne.n	800380e <_printf_i+0x1fe>
 8003774:	f04f 30ff 	mov.w	r0, #4294967295
 8003778:	b004      	add	sp, #16
 800377a:	e8bd 87f0 	ldmia.w	sp!, {r4, r5, r6, r7, r8, r9, sl, pc}
 800377e:	4835      	ldr	r0, [pc, #212]	; (8003854 <_printf_i+0x244>)
 8003780:	f884 7045 	strb.w	r7, [r4, #69]	; 0x45
 8003784:	6823      	ldr	r3, [r4, #0]
 8003786:	680e      	ldr	r6, [r1, #0]
 8003788:	061f      	lsls	r7, r3, #24
 800378a:	f856 5b04 	ldr.w	r5, [r6], #4
 800378e:	600e      	str	r6, [r1, #0]
 8003790:	d514      	bpl.n	80037bc <_printf_i+0x1ac>
 8003792:	07d9      	lsls	r1, r3, #31
 8003794:	bf44      	itt	mi
 8003796:	f043 0320 	orrmi.w	r3, r3, #32
 800379a:	6023      	strmi	r3, [r4, #0]
 800379c:	b91d      	cbnz	r5, 80037a6 <_printf_i+0x196>
 800379e:	6823      	ldr	r3, [r4, #0]
 80037a0:	f023 0320 	bic.w	r3, r3, #32
 80037a4:	6023      	str	r3, [r4, #0]
 80037a6:	2310      	movs	r3, #16
 80037a8:	e7b0      	b.n	800370c <_printf_i+0xfc>
 80037aa:	6823      	ldr	r3, [r4, #0]
 80037ac:	f043 0320 	orr.w	r3, r3, #32
 80037b0:	6023      	str	r3, [r4, #0]
 80037b2:	2378      	movs	r3, #120	; 0x78
 80037b4:	4828      	ldr	r0, [pc, #160]	; (8003858 <_printf_i+0x248>)
 80037b6:	f884 3045 	strb.w	r3, [r4, #69]	; 0x45
 80037ba:	e7e3      	b.n	8003784 <_printf_i+0x174>
 80037bc:	065e      	lsls	r6, r3, #25
 80037be:	bf48      	it	mi
 80037c0:	b2ad      	uxthmi	r5, r5
 80037c2:	e7e6      	b.n	8003792 <_printf_i+0x182>
 80037c4:	4616      	mov	r6, r2
 80037c6:	e7bb      	b.n	8003740 <_printf_i+0x130>
 80037c8:	680b      	ldr	r3, [r1, #0]
 80037ca:	6826      	ldr	r6, [r4, #0]
 80037cc:	6960      	ldr	r0, [r4, #20]
 80037ce:	1d1d      	adds	r5, r3, #4
 80037d0:	600d      	str	r5, [r1, #0]
 80037d2:	0635      	lsls	r5, r6, #24
 80037d4:	681b      	ldr	r3, [r3, #0]
 80037d6:	d501      	bpl.n	80037dc <_printf_i+0x1cc>
 80037d8:	6018      	str	r0, [r3, #0]
 80037da:	e002      	b.n	80037e2 <_printf_i+0x1d2>
 80037dc:	0671      	lsls	r1, r6, #25
 80037de:	d5fb      	bpl.n	80037d8 <_printf_i+0x1c8>
 80037e0:	8018      	strh	r0, [r3, #0]
 80037e2:	2300      	movs	r3, #0
 80037e4:	6123      	str	r3, [r4, #16]
 80037e6:	4616      	mov	r6, r2
 80037e8:	e7ba      	b.n	8003760 <_printf_i+0x150>
 80037ea:	680b      	ldr	r3, [r1, #0]
 80037ec:	1d1a      	adds	r2, r3, #4
 80037ee:	600a      	str	r2, [r1, #0]
 80037f0:	681e      	ldr	r6, [r3, #0]
 80037f2:	6862      	ldr	r2, [r4, #4]
 80037f4:	2100      	movs	r1, #0
 80037f6:	4630      	mov	r0, r6
 80037f8:	f7fc fd02 	bl	8000200 <memchr>
 80037fc:	b108      	cbz	r0, 8003802 <_printf_i+0x1f2>
 80037fe:	1b80      	subs	r0, r0, r6
 8003800:	6060      	str	r0, [r4, #4]
 8003802:	6863      	ldr	r3, [r4, #4]
 8003804:	6123      	str	r3, [r4, #16]
 8003806:	2300      	movs	r3, #0
 8003808:	f884 3043 	strb.w	r3, [r4, #67]	; 0x43
 800380c:	e7a8      	b.n	8003760 <_printf_i+0x150>
 800380e:	6923      	ldr	r3, [r4, #16]
 8003810:	4632      	mov	r2, r6
 8003812:	4649      	mov	r1, r9
 8003814:	4640      	mov	r0, r8
 8003816:	47d0      	blx	sl
 8003818:	3001      	adds	r0, #1
 800381a:	d0ab      	beq.n	8003774 <_printf_i+0x164>
 800381c:	6823      	ldr	r3, [r4, #0]
 800381e:	079b      	lsls	r3, r3, #30
 8003820:	d413      	bmi.n	800384a <_printf_i+0x23a>
 8003822:	68e0      	ldr	r0, [r4, #12]
 8003824:	9b03      	ldr	r3, [sp, #12]
 8003826:	4298      	cmp	r0, r3
 8003828:	bfb8      	it	lt
 800382a:	4618      	movlt	r0, r3
 800382c:	e7a4      	b.n	8003778 <_printf_i+0x168>
 800382e:	2301      	movs	r3, #1
 8003830:	4632      	mov	r2, r6
 8003832:	4649      	mov	r1, r9
 8003834:	4640      	mov	r0, r8
 8003836:	47d0      	blx	sl
 8003838:	3001      	adds	r0, #1
 800383a:	d09b      	beq.n	8003774 <_printf_i+0x164>
 800383c:	3501      	adds	r5, #1
 800383e:	68e3      	ldr	r3, [r4, #12]
 8003840:	9903      	ldr	r1, [sp, #12]
 8003842:	1a5b      	subs	r3, r3, r1
 8003844:	42ab      	cmp	r3, r5
 8003846:	dcf2      	bgt.n	800382e <_printf_i+0x21e>
 8003848:	e7eb      	b.n	8003822 <_printf_i+0x212>
 800384a:	2500      	movs	r5, #0
 800384c:	f104 0619 	add.w	r6, r4, #25
 8003850:	e7f5      	b.n	800383e <_printf_i+0x22e>
 8003852:	bf00      	nop
 8003854:	080042d5 	.word	0x080042d5
 8003858:	080042e6 	.word	0x080042e6

0800385c <_sbrk_r>:
 800385c:	b538      	push	{r3, r4, r5, lr}
 800385e:	4d06      	ldr	r5, [pc, #24]	; (8003878 <_sbrk_r+0x1c>)
 8003860:	2300      	movs	r3, #0
 8003862:	4604      	mov	r4, r0
 8003864:	4608      	mov	r0, r1
 8003866:	602b      	str	r3, [r5, #0]
 8003868:	f7fd f9ae 	bl	8000bc8 <_sbrk>
 800386c:	1c43      	adds	r3, r0, #1
 800386e:	d102      	bne.n	8003876 <_sbrk_r+0x1a>
 8003870:	682b      	ldr	r3, [r5, #0]
 8003872:	b103      	cbz	r3, 8003876 <_sbrk_r+0x1a>
 8003874:	6023      	str	r3, [r4, #0]
 8003876:	bd38      	pop	{r3, r4, r5, pc}
 8003878:	2001307c 	.word	0x2001307c

0800387c <__swbuf_r>:
 800387c:	b5f8      	push	{r3, r4, r5, r6, r7, lr}
 800387e:	460e      	mov	r6, r1
 8003880:	4614      	mov	r4, r2
 8003882:	4605      	mov	r5, r0
 8003884:	b118      	cbz	r0, 800388e <__swbuf_r+0x12>
 8003886:	6983      	ldr	r3, [r0, #24]
 8003888:	b90b      	cbnz	r3, 800388e <__swbuf_r+0x12>
 800388a:	f000 f9d9 	bl	8003c40 <__sinit>
 800388e:	4b21      	ldr	r3, [pc, #132]	; (8003914 <__swbuf_r+0x98>)
 8003890:	429c      	cmp	r4, r3
 8003892:	d12b      	bne.n	80038ec <__swbuf_r+0x70>
 8003894:	686c      	ldr	r4, [r5, #4]
 8003896:	69a3      	ldr	r3, [r4, #24]
 8003898:	60a3      	str	r3, [r4, #8]
 800389a:	89a3      	ldrh	r3, [r4, #12]
 800389c:	071a      	lsls	r2, r3, #28
 800389e:	d52f      	bpl.n	8003900 <__swbuf_r+0x84>
 80038a0:	6923      	ldr	r3, [r4, #16]
 80038a2:	b36b      	cbz	r3, 8003900 <__swbuf_r+0x84>
 80038a4:	6923      	ldr	r3, [r4, #16]
 80038a6:	6820      	ldr	r0, [r4, #0]
 80038a8:	1ac0      	subs	r0, r0, r3
 80038aa:	6963      	ldr	r3, [r4, #20]
 80038ac:	b2f6      	uxtb	r6, r6
 80038ae:	4283      	cmp	r3, r0
 80038b0:	4637      	mov	r7, r6
 80038b2:	dc04      	bgt.n	80038be <__swbuf_r+0x42>
 80038b4:	4621      	mov	r1, r4
 80038b6:	4628      	mov	r0, r5
 80038b8:	f000 f92e 	bl	8003b18 <_fflush_r>
 80038bc:	bb30      	cbnz	r0, 800390c <__swbuf_r+0x90>
 80038be:	68a3      	ldr	r3, [r4, #8]
 80038c0:	3b01      	subs	r3, #1
 80038c2:	60a3      	str	r3, [r4, #8]
 80038c4:	6823      	ldr	r3, [r4, #0]
 80038c6:	1c5a      	adds	r2, r3, #1
 80038c8:	6022      	str	r2, [r4, #0]
 80038ca:	701e      	strb	r6, [r3, #0]
 80038cc:	6963      	ldr	r3, [r4, #20]
 80038ce:	3001      	adds	r0, #1
 80038d0:	4283      	cmp	r3, r0
 80038d2:	d004      	beq.n	80038de <__swbuf_r+0x62>
 80038d4:	89a3      	ldrh	r3, [r4, #12]
 80038d6:	07db      	lsls	r3, r3, #31
 80038d8:	d506      	bpl.n	80038e8 <__swbuf_r+0x6c>
 80038da:	2e0a      	cmp	r6, #10
 80038dc:	d104      	bne.n	80038e8 <__swbuf_r+0x6c>
 80038de:	4621      	mov	r1, r4
 80038e0:	4628      	mov	r0, r5
 80038e2:	f000 f919 	bl	8003b18 <_fflush_r>
 80038e6:	b988      	cbnz	r0, 800390c <__swbuf_r+0x90>
 80038e8:	4638      	mov	r0, r7
 80038ea:	bdf8      	pop	{r3, r4, r5, r6, r7, pc}
 80038ec:	4b0a      	ldr	r3, [pc, #40]	; (8003918 <__swbuf_r+0x9c>)
 80038ee:	429c      	cmp	r4, r3
 80038f0:	d101      	bne.n	80038f6 <__swbuf_r+0x7a>
 80038f2:	68ac      	ldr	r4, [r5, #8]
 80038f4:	e7cf      	b.n	8003896 <__swbuf_r+0x1a>
 80038f6:	4b09      	ldr	r3, [pc, #36]	; (800391c <__swbuf_r+0xa0>)
 80038f8:	429c      	cmp	r4, r3
 80038fa:	bf08      	it	eq
 80038fc:	68ec      	ldreq	r4, [r5, #12]
 80038fe:	e7ca      	b.n	8003896 <__swbuf_r+0x1a>
 8003900:	4621      	mov	r1, r4
 8003902:	4628      	mov	r0, r5
 8003904:	f000 f80c 	bl	8003920 <__swsetup_r>
 8003908:	2800      	cmp	r0, #0
 800390a:	d0cb      	beq.n	80038a4 <__swbuf_r+0x28>
 800390c:	f04f 37ff 	mov.w	r7, #4294967295
 8003910:	e7ea      	b.n	80038e8 <__swbuf_r+0x6c>
 8003912:	bf00      	nop
 8003914:	08004318 	.word	0x08004318
 8003918:	08004338 	.word	0x08004338
 800391c:	080042f8 	.word	0x080042f8

08003920 <__swsetup_r>:
 8003920:	4b32      	ldr	r3, [pc, #200]	; (80039ec <__swsetup_r+0xcc>)
 8003922:	b570      	push	{r4, r5, r6, lr}
 8003924:	681d      	ldr	r5, [r3, #0]
 8003926:	4606      	mov	r6, r0
 8003928:	460c      	mov	r4, r1
 800392a:	b125      	cbz	r5, 8003936 <__swsetup_r+0x16>
 800392c:	69ab      	ldr	r3, [r5, #24]
 800392e:	b913      	cbnz	r3, 8003936 <__swsetup_r+0x16>
 8003930:	4628      	mov	r0, r5
 8003932:	f000 f985 	bl	8003c40 <__sinit>
 8003936:	4b2e      	ldr	r3, [pc, #184]	; (80039f0 <__swsetup_r+0xd0>)
 8003938:	429c      	cmp	r4, r3
 800393a:	d10f      	bne.n	800395c <__swsetup_r+0x3c>
 800393c:	686c      	ldr	r4, [r5, #4]
 800393e:	89a3      	ldrh	r3, [r4, #12]
 8003940:	f9b4 200c 	ldrsh.w	r2, [r4, #12]
 8003944:	0719      	lsls	r1, r3, #28
 8003946:	d42c      	bmi.n	80039a2 <__swsetup_r+0x82>
 8003948:	06dd      	lsls	r5, r3, #27
 800394a:	d411      	bmi.n	8003970 <__swsetup_r+0x50>
 800394c:	2309      	movs	r3, #9
 800394e:	6033      	str	r3, [r6, #0]
 8003950:	f042 0340 	orr.w	r3, r2, #64	; 0x40
 8003954:	81a3      	strh	r3, [r4, #12]
 8003956:	f04f 30ff 	mov.w	r0, #4294967295
 800395a:	e03e      	b.n	80039da <__swsetup_r+0xba>
 800395c:	4b25      	ldr	r3, [pc, #148]	; (80039f4 <__swsetup_r+0xd4>)
 800395e:	429c      	cmp	r4, r3
 8003960:	d101      	bne.n	8003966 <__swsetup_r+0x46>
 8003962:	68ac      	ldr	r4, [r5, #8]
 8003964:	e7eb      	b.n	800393e <__swsetup_r+0x1e>
 8003966:	4b24      	ldr	r3, [pc, #144]	; (80039f8 <__swsetup_r+0xd8>)
 8003968:	429c      	cmp	r4, r3
 800396a:	bf08      	it	eq
 800396c:	68ec      	ldreq	r4, [r5, #12]
 800396e:	e7e6      	b.n	800393e <__swsetup_r+0x1e>
 8003970:	0758      	lsls	r0, r3, #29
 8003972:	d512      	bpl.n	800399a <__swsetup_r+0x7a>
 8003974:	6b61      	ldr	r1, [r4, #52]	; 0x34
 8003976:	b141      	cbz	r1, 800398a <__swsetup_r+0x6a>
 8003978:	f104 0344 	add.w	r3, r4, #68	; 0x44
 800397c:	4299      	cmp	r1, r3
 800397e:	d002      	beq.n	8003986 <__swsetup_r+0x66>
 8003980:	4630      	mov	r0, r6
 8003982:	f7ff fa77 	bl	8002e74 <_free_r>
 8003986:	2300      	movs	r3, #0
 8003988:	6363      	str	r3, [r4, #52]	; 0x34
 800398a:	89a3      	ldrh	r3, [r4, #12]
 800398c:	f023 0324 	bic.w	r3, r3, #36	; 0x24
 8003990:	81a3      	strh	r3, [r4, #12]
 8003992:	2300      	movs	r3, #0
 8003994:	6063      	str	r3, [r4, #4]
 8003996:	6923      	ldr	r3, [r4, #16]
 8003998:	6023      	str	r3, [r4, #0]
 800399a:	89a3      	ldrh	r3, [r4, #12]
 800399c:	f043 0308 	orr.w	r3, r3, #8
 80039a0:	81a3      	strh	r3, [r4, #12]
 80039a2:	6923      	ldr	r3, [r4, #16]
 80039a4:	b94b      	cbnz	r3, 80039ba <__swsetup_r+0x9a>
 80039a6:	89a3      	ldrh	r3, [r4, #12]
 80039a8:	f403 7320 	and.w	r3, r3, #640	; 0x280
 80039ac:	f5b3 7f00 	cmp.w	r3, #512	; 0x200
 80039b0:	d003      	beq.n	80039ba <__swsetup_r+0x9a>
 80039b2:	4621      	mov	r1, r4
 80039b4:	4630      	mov	r0, r6
 80039b6:	f000 fa07 	bl	8003dc8 <__smakebuf_r>
 80039ba:	89a0      	ldrh	r0, [r4, #12]
 80039bc:	f9b4 200c 	ldrsh.w	r2, [r4, #12]
 80039c0:	f010 0301 	ands.w	r3, r0, #1
 80039c4:	d00a      	beq.n	80039dc <__swsetup_r+0xbc>
 80039c6:	2300      	movs	r3, #0
 80039c8:	60a3      	str	r3, [r4, #8]
 80039ca:	6963      	ldr	r3, [r4, #20]
 80039cc:	425b      	negs	r3, r3
 80039ce:	61a3      	str	r3, [r4, #24]
 80039d0:	6923      	ldr	r3, [r4, #16]
 80039d2:	b943      	cbnz	r3, 80039e6 <__swsetup_r+0xc6>
 80039d4:	f010 0080 	ands.w	r0, r0, #128	; 0x80
 80039d8:	d1ba      	bne.n	8003950 <__swsetup_r+0x30>
 80039da:	bd70      	pop	{r4, r5, r6, pc}
 80039dc:	0781      	lsls	r1, r0, #30
 80039de:	bf58      	it	pl
 80039e0:	6963      	ldrpl	r3, [r4, #20]
 80039e2:	60a3      	str	r3, [r4, #8]
 80039e4:	e7f4      	b.n	80039d0 <__swsetup_r+0xb0>
 80039e6:	2000      	movs	r0, #0
 80039e8:	e7f7      	b.n	80039da <__swsetup_r+0xba>
 80039ea:	bf00      	nop
 80039ec:	2000002c 	.word	0x2000002c
 80039f0:	08004318 	.word	0x08004318
 80039f4:	08004338 	.word	0x08004338
 80039f8:	080042f8 	.word	0x080042f8

080039fc <abort>:
 80039fc:	b508      	push	{r3, lr}
 80039fe:	2006      	movs	r0, #6
 8003a00:	f000 faa4 	bl	8003f4c <raise>
 8003a04:	2001      	movs	r0, #1
 8003a06:	f7fd f8b3 	bl	8000b70 <_exit>
	...

08003a0c <__sflush_r>:
 8003a0c:	898a      	ldrh	r2, [r1, #12]
 8003a0e:	e92d 41f0 	stmdb	sp!, {r4, r5, r6, r7, r8, lr}
 8003a12:	4605      	mov	r5, r0
 8003a14:	0710      	lsls	r0, r2, #28
 8003a16:	460c      	mov	r4, r1
 8003a18:	d458      	bmi.n	8003acc <__sflush_r+0xc0>
 8003a1a:	684b      	ldr	r3, [r1, #4]
 8003a1c:	2b00      	cmp	r3, #0
 8003a1e:	dc05      	bgt.n	8003a2c <__sflush_r+0x20>
 8003a20:	6c0b      	ldr	r3, [r1, #64]	; 0x40
 8003a22:	2b00      	cmp	r3, #0
 8003a24:	dc02      	bgt.n	8003a2c <__sflush_r+0x20>
 8003a26:	2000      	movs	r0, #0
 8003a28:	e8bd 81f0 	ldmia.w	sp!, {r4, r5, r6, r7, r8, pc}
 8003a2c:	6ae6      	ldr	r6, [r4, #44]	; 0x2c
 8003a2e:	2e00      	cmp	r6, #0
 8003a30:	d0f9      	beq.n	8003a26 <__sflush_r+0x1a>
 8003a32:	2300      	movs	r3, #0
 8003a34:	f412 5280 	ands.w	r2, r2, #4096	; 0x1000
 8003a38:	682f      	ldr	r7, [r5, #0]
 8003a3a:	602b      	str	r3, [r5, #0]
 8003a3c:	d032      	beq.n	8003aa4 <__sflush_r+0x98>
 8003a3e:	6d60      	ldr	r0, [r4, #84]	; 0x54
 8003a40:	89a3      	ldrh	r3, [r4, #12]
 8003a42:	075a      	lsls	r2, r3, #29
 8003a44:	d505      	bpl.n	8003a52 <__sflush_r+0x46>
 8003a46:	6863      	ldr	r3, [r4, #4]
 8003a48:	1ac0      	subs	r0, r0, r3
 8003a4a:	6b63      	ldr	r3, [r4, #52]	; 0x34
 8003a4c:	b10b      	cbz	r3, 8003a52 <__sflush_r+0x46>
 8003a4e:	6c23      	ldr	r3, [r4, #64]	; 0x40
 8003a50:	1ac0      	subs	r0, r0, r3
 8003a52:	2300      	movs	r3, #0
 8003a54:	4602      	mov	r2, r0
 8003a56:	6ae6      	ldr	r6, [r4, #44]	; 0x2c
 8003a58:	6a21      	ldr	r1, [r4, #32]
 8003a5a:	4628      	mov	r0, r5
 8003a5c:	47b0      	blx	r6
 8003a5e:	1c43      	adds	r3, r0, #1
 8003a60:	89a3      	ldrh	r3, [r4, #12]
 8003a62:	d106      	bne.n	8003a72 <__sflush_r+0x66>
 8003a64:	6829      	ldr	r1, [r5, #0]
 8003a66:	291d      	cmp	r1, #29
 8003a68:	d82c      	bhi.n	8003ac4 <__sflush_r+0xb8>
 8003a6a:	4a2a      	ldr	r2, [pc, #168]	; (8003b14 <__sflush_r+0x108>)
 8003a6c:	40ca      	lsrs	r2, r1
 8003a6e:	07d6      	lsls	r6, r2, #31
 8003a70:	d528      	bpl.n	8003ac4 <__sflush_r+0xb8>
 8003a72:	2200      	movs	r2, #0
 8003a74:	6062      	str	r2, [r4, #4]
 8003a76:	04d9      	lsls	r1, r3, #19
 8003a78:	6922      	ldr	r2, [r4, #16]
 8003a7a:	6022      	str	r2, [r4, #0]
 8003a7c:	d504      	bpl.n	8003a88 <__sflush_r+0x7c>
 8003a7e:	1c42      	adds	r2, r0, #1
 8003a80:	d101      	bne.n	8003a86 <__sflush_r+0x7a>
 8003a82:	682b      	ldr	r3, [r5, #0]
 8003a84:	b903      	cbnz	r3, 8003a88 <__sflush_r+0x7c>
 8003a86:	6560      	str	r0, [r4, #84]	; 0x54
 8003a88:	6b61      	ldr	r1, [r4, #52]	; 0x34
 8003a8a:	602f      	str	r7, [r5, #0]
 8003a8c:	2900      	cmp	r1, #0
 8003a8e:	d0ca      	beq.n	8003a26 <__sflush_r+0x1a>
 8003a90:	f104 0344 	add.w	r3, r4, #68	; 0x44
 8003a94:	4299      	cmp	r1, r3
 8003a96:	d002      	beq.n	8003a9e <__sflush_r+0x92>
 8003a98:	4628      	mov	r0, r5
 8003a9a:	f7ff f9eb 	bl	8002e74 <_free_r>
 8003a9e:	2000      	movs	r0, #0
 8003aa0:	6360      	str	r0, [r4, #52]	; 0x34
 8003aa2:	e7c1      	b.n	8003a28 <__sflush_r+0x1c>
 8003aa4:	6a21      	ldr	r1, [r4, #32]
 8003aa6:	2301      	movs	r3, #1
 8003aa8:	4628      	mov	r0, r5
 8003aaa:	47b0      	blx	r6
 8003aac:	1c41      	adds	r1, r0, #1
 8003aae:	d1c7      	bne.n	8003a40 <__sflush_r+0x34>
 8003ab0:	682b      	ldr	r3, [r5, #0]
 8003ab2:	2b00      	cmp	r3, #0
 8003ab4:	d0c4      	beq.n	8003a40 <__sflush_r+0x34>
 8003ab6:	2b1d      	cmp	r3, #29
 8003ab8:	d001      	beq.n	8003abe <__sflush_r+0xb2>
 8003aba:	2b16      	cmp	r3, #22
 8003abc:	d101      	bne.n	8003ac2 <__sflush_r+0xb6>
 8003abe:	602f      	str	r7, [r5, #0]
 8003ac0:	e7b1      	b.n	8003a26 <__sflush_r+0x1a>
 8003ac2:	89a3      	ldrh	r3, [r4, #12]
 8003ac4:	f043 0340 	orr.w	r3, r3, #64	; 0x40
 8003ac8:	81a3      	strh	r3, [r4, #12]
 8003aca:	e7ad      	b.n	8003a28 <__sflush_r+0x1c>
 8003acc:	690f      	ldr	r7, [r1, #16]
 8003ace:	2f00      	cmp	r7, #0
 8003ad0:	d0a9      	beq.n	8003a26 <__sflush_r+0x1a>
 8003ad2:	0793      	lsls	r3, r2, #30
 8003ad4:	680e      	ldr	r6, [r1, #0]
 8003ad6:	bf08      	it	eq
 8003ad8:	694b      	ldreq	r3, [r1, #20]
 8003ada:	600f      	str	r7, [r1, #0]
 8003adc:	bf18      	it	ne
 8003ade:	2300      	movne	r3, #0
 8003ae0:	eba6 0807 	sub.w	r8, r6, r7
 8003ae4:	608b      	str	r3, [r1, #8]
 8003ae6:	f1b8 0f00 	cmp.w	r8, #0
 8003aea:	dd9c      	ble.n	8003a26 <__sflush_r+0x1a>
 8003aec:	6a21      	ldr	r1, [r4, #32]
 8003aee:	6aa6      	ldr	r6, [r4, #40]	; 0x28
 8003af0:	4643      	mov	r3, r8
 8003af2:	463a      	mov	r2, r7
 8003af4:	4628      	mov	r0, r5
 8003af6:	47b0      	blx	r6
 8003af8:	2800      	cmp	r0, #0
 8003afa:	dc06      	bgt.n	8003b0a <__sflush_r+0xfe>
 8003afc:	89a3      	ldrh	r3, [r4, #12]
 8003afe:	f043 0340 	orr.w	r3, r3, #64	; 0x40
 8003b02:	81a3      	strh	r3, [r4, #12]
 8003b04:	f04f 30ff 	mov.w	r0, #4294967295
 8003b08:	e78e      	b.n	8003a28 <__sflush_r+0x1c>
 8003b0a:	4407      	add	r7, r0
 8003b0c:	eba8 0800 	sub.w	r8, r8, r0
 8003b10:	e7e9      	b.n	8003ae6 <__sflush_r+0xda>
 8003b12:	bf00      	nop
 8003b14:	20400001 	.word	0x20400001

08003b18 <_fflush_r>:
 8003b18:	b538      	push	{r3, r4, r5, lr}
 8003b1a:	690b      	ldr	r3, [r1, #16]
 8003b1c:	4605      	mov	r5, r0
 8003b1e:	460c      	mov	r4, r1
 8003b20:	b913      	cbnz	r3, 8003b28 <_fflush_r+0x10>
 8003b22:	2500      	movs	r5, #0
 8003b24:	4628      	mov	r0, r5
 8003b26:	bd38      	pop	{r3, r4, r5, pc}
 8003b28:	b118      	cbz	r0, 8003b32 <_fflush_r+0x1a>
 8003b2a:	6983      	ldr	r3, [r0, #24]
 8003b2c:	b90b      	cbnz	r3, 8003b32 <_fflush_r+0x1a>
 8003b2e:	f000 f887 	bl	8003c40 <__sinit>
 8003b32:	4b14      	ldr	r3, [pc, #80]	; (8003b84 <_fflush_r+0x6c>)
 8003b34:	429c      	cmp	r4, r3
 8003b36:	d11b      	bne.n	8003b70 <_fflush_r+0x58>
 8003b38:	686c      	ldr	r4, [r5, #4]
 8003b3a:	f9b4 300c 	ldrsh.w	r3, [r4, #12]
 8003b3e:	2b00      	cmp	r3, #0
 8003b40:	d0ef      	beq.n	8003b22 <_fflush_r+0xa>
 8003b42:	6e62      	ldr	r2, [r4, #100]	; 0x64
 8003b44:	07d0      	lsls	r0, r2, #31
 8003b46:	d404      	bmi.n	8003b52 <_fflush_r+0x3a>
 8003b48:	0599      	lsls	r1, r3, #22
 8003b4a:	d402      	bmi.n	8003b52 <_fflush_r+0x3a>
 8003b4c:	6da0      	ldr	r0, [r4, #88]	; 0x58
 8003b4e:	f000 f915 	bl	8003d7c <__retarget_lock_acquire_recursive>
 8003b52:	4628      	mov	r0, r5
 8003b54:	4621      	mov	r1, r4
 8003b56:	f7ff ff59 	bl	8003a0c <__sflush_r>
 8003b5a:	6e63      	ldr	r3, [r4, #100]	; 0x64
 8003b5c:	07da      	lsls	r2, r3, #31
 8003b5e:	4605      	mov	r5, r0
 8003b60:	d4e0      	bmi.n	8003b24 <_fflush_r+0xc>
 8003b62:	89a3      	ldrh	r3, [r4, #12]
 8003b64:	059b      	lsls	r3, r3, #22
 8003b66:	d4dd      	bmi.n	8003b24 <_fflush_r+0xc>
 8003b68:	6da0      	ldr	r0, [r4, #88]	; 0x58
 8003b6a:	f000 f908 	bl	8003d7e <__retarget_lock_release_recursive>
 8003b6e:	e7d9      	b.n	8003b24 <_fflush_r+0xc>
 8003b70:	4b05      	ldr	r3, [pc, #20]	; (8003b88 <_fflush_r+0x70>)
 8003b72:	429c      	cmp	r4, r3
 8003b74:	d101      	bne.n	8003b7a <_fflush_r+0x62>
 8003b76:	68ac      	ldr	r4, [r5, #8]
 8003b78:	e7df      	b.n	8003b3a <_fflush_r+0x22>
 8003b7a:	4b04      	ldr	r3, [pc, #16]	; (8003b8c <_fflush_r+0x74>)
 8003b7c:	429c      	cmp	r4, r3
 8003b7e:	bf08      	it	eq
 8003b80:	68ec      	ldreq	r4, [r5, #12]
 8003b82:	e7da      	b.n	8003b3a <_fflush_r+0x22>
 8003b84:	08004318 	.word	0x08004318
 8003b88:	08004338 	.word	0x08004338
 8003b8c:	080042f8 	.word	0x080042f8

08003b90 <std>:
 8003b90:	2300      	movs	r3, #0
 8003b92:	b510      	push	{r4, lr}
 8003b94:	4604      	mov	r4, r0
 8003b96:	e9c0 3300 	strd	r3, r3, [r0]
 8003b9a:	e9c0 3304 	strd	r3, r3, [r0, #16]
 8003b9e:	6083      	str	r3, [r0, #8]
 8003ba0:	8181      	strh	r1, [r0, #12]
 8003ba2:	6643      	str	r3, [r0, #100]	; 0x64
 8003ba4:	81c2      	strh	r2, [r0, #14]
 8003ba6:	6183      	str	r3, [r0, #24]
 8003ba8:	4619      	mov	r1, r3
 8003baa:	2208      	movs	r2, #8
 8003bac:	305c      	adds	r0, #92	; 0x5c
 8003bae:	f7ff f8a5 	bl	8002cfc <memset>
 8003bb2:	4b05      	ldr	r3, [pc, #20]	; (8003bc8 <std+0x38>)
 8003bb4:	6263      	str	r3, [r4, #36]	; 0x24
 8003bb6:	4b05      	ldr	r3, [pc, #20]	; (8003bcc <std+0x3c>)
 8003bb8:	62a3      	str	r3, [r4, #40]	; 0x28
 8003bba:	4b05      	ldr	r3, [pc, #20]	; (8003bd0 <std+0x40>)
 8003bbc:	62e3      	str	r3, [r4, #44]	; 0x2c
 8003bbe:	4b05      	ldr	r3, [pc, #20]	; (8003bd4 <std+0x44>)
 8003bc0:	6224      	str	r4, [r4, #32]
 8003bc2:	6323      	str	r3, [r4, #48]	; 0x30
 8003bc4:	bd10      	pop	{r4, pc}
 8003bc6:	bf00      	nop
 8003bc8:	08003f85 	.word	0x08003f85
 8003bcc:	08003fa7 	.word	0x08003fa7
 8003bd0:	08003fdf 	.word	0x08003fdf
 8003bd4:	08004003 	.word	0x08004003

08003bd8 <_cleanup_r>:
 8003bd8:	4901      	ldr	r1, [pc, #4]	; (8003be0 <_cleanup_r+0x8>)
 8003bda:	f000 b8af 	b.w	8003d3c <_fwalk_reent>
 8003bde:	bf00      	nop
 8003be0:	08003b19 	.word	0x08003b19

08003be4 <__sfmoreglue>:
 8003be4:	b570      	push	{r4, r5, r6, lr}
 8003be6:	1e4a      	subs	r2, r1, #1
 8003be8:	2568      	movs	r5, #104	; 0x68
 8003bea:	4355      	muls	r5, r2
 8003bec:	460e      	mov	r6, r1
 8003bee:	f105 0174 	add.w	r1, r5, #116	; 0x74
 8003bf2:	f7ff f98f 	bl	8002f14 <_malloc_r>
 8003bf6:	4604      	mov	r4, r0
 8003bf8:	b140      	cbz	r0, 8003c0c <__sfmoreglue+0x28>
 8003bfa:	2100      	movs	r1, #0
 8003bfc:	e9c0 1600 	strd	r1, r6, [r0]
 8003c00:	300c      	adds	r0, #12
 8003c02:	60a0      	str	r0, [r4, #8]
 8003c04:	f105 0268 	add.w	r2, r5, #104	; 0x68
 8003c08:	f7ff f878 	bl	8002cfc <memset>
 8003c0c:	4620      	mov	r0, r4
 8003c0e:	bd70      	pop	{r4, r5, r6, pc}

08003c10 <__sfp_lock_acquire>:
 8003c10:	4801      	ldr	r0, [pc, #4]	; (8003c18 <__sfp_lock_acquire+0x8>)
 8003c12:	f000 b8b3 	b.w	8003d7c <__retarget_lock_acquire_recursive>
 8003c16:	bf00      	nop
 8003c18:	20013078 	.word	0x20013078

08003c1c <__sfp_lock_release>:
 8003c1c:	4801      	ldr	r0, [pc, #4]	; (8003c24 <__sfp_lock_release+0x8>)
 8003c1e:	f000 b8ae 	b.w	8003d7e <__retarget_lock_release_recursive>
 8003c22:	bf00      	nop
 8003c24:	20013078 	.word	0x20013078

08003c28 <__sinit_lock_acquire>:
 8003c28:	4801      	ldr	r0, [pc, #4]	; (8003c30 <__sinit_lock_acquire+0x8>)
 8003c2a:	f000 b8a7 	b.w	8003d7c <__retarget_lock_acquire_recursive>
 8003c2e:	bf00      	nop
 8003c30:	20013073 	.word	0x20013073

08003c34 <__sinit_lock_release>:
 8003c34:	4801      	ldr	r0, [pc, #4]	; (8003c3c <__sinit_lock_release+0x8>)
 8003c36:	f000 b8a2 	b.w	8003d7e <__retarget_lock_release_recursive>
 8003c3a:	bf00      	nop
 8003c3c:	20013073 	.word	0x20013073

08003c40 <__sinit>:
 8003c40:	b510      	push	{r4, lr}
 8003c42:	4604      	mov	r4, r0
 8003c44:	f7ff fff0 	bl	8003c28 <__sinit_lock_acquire>
 8003c48:	69a3      	ldr	r3, [r4, #24]
 8003c4a:	b11b      	cbz	r3, 8003c54 <__sinit+0x14>
 8003c4c:	e8bd 4010 	ldmia.w	sp!, {r4, lr}
 8003c50:	f7ff bff0 	b.w	8003c34 <__sinit_lock_release>
 8003c54:	e9c4 3312 	strd	r3, r3, [r4, #72]	; 0x48
 8003c58:	6523      	str	r3, [r4, #80]	; 0x50
 8003c5a:	4b13      	ldr	r3, [pc, #76]	; (8003ca8 <__sinit+0x68>)
 8003c5c:	4a13      	ldr	r2, [pc, #76]	; (8003cac <__sinit+0x6c>)
 8003c5e:	681b      	ldr	r3, [r3, #0]
 8003c60:	62a2      	str	r2, [r4, #40]	; 0x28
 8003c62:	42a3      	cmp	r3, r4
 8003c64:	bf04      	itt	eq
 8003c66:	2301      	moveq	r3, #1
 8003c68:	61a3      	streq	r3, [r4, #24]
 8003c6a:	4620      	mov	r0, r4
 8003c6c:	f000 f820 	bl	8003cb0 <__sfp>
 8003c70:	6060      	str	r0, [r4, #4]
 8003c72:	4620      	mov	r0, r4
 8003c74:	f000 f81c 	bl	8003cb0 <__sfp>
 8003c78:	60a0      	str	r0, [r4, #8]
 8003c7a:	4620      	mov	r0, r4
 8003c7c:	f000 f818 	bl	8003cb0 <__sfp>
 8003c80:	2200      	movs	r2, #0
 8003c82:	60e0      	str	r0, [r4, #12]
 8003c84:	2104      	movs	r1, #4
 8003c86:	6860      	ldr	r0, [r4, #4]
 8003c88:	f7ff ff82 	bl	8003b90 <std>
 8003c8c:	68a0      	ldr	r0, [r4, #8]
 8003c8e:	2201      	movs	r2, #1
 8003c90:	2109      	movs	r1, #9
 8003c92:	f7ff ff7d 	bl	8003b90 <std>
 8003c96:	68e0      	ldr	r0, [r4, #12]
 8003c98:	2202      	movs	r2, #2
 8003c9a:	2112      	movs	r1, #18
 8003c9c:	f7ff ff78 	bl	8003b90 <std>
 8003ca0:	2301      	movs	r3, #1
 8003ca2:	61a3      	str	r3, [r4, #24]
 8003ca4:	e7d2      	b.n	8003c4c <__sinit+0xc>
 8003ca6:	bf00      	nop
 8003ca8:	0800420c 	.word	0x0800420c
 8003cac:	08003bd9 	.word	0x08003bd9

08003cb0 <__sfp>:
 8003cb0:	b5f8      	push	{r3, r4, r5, r6, r7, lr}
 8003cb2:	4607      	mov	r7, r0
 8003cb4:	f7ff ffac 	bl	8003c10 <__sfp_lock_acquire>
 8003cb8:	4b1e      	ldr	r3, [pc, #120]	; (8003d34 <__sfp+0x84>)
 8003cba:	681e      	ldr	r6, [r3, #0]
 8003cbc:	69b3      	ldr	r3, [r6, #24]
 8003cbe:	b913      	cbnz	r3, 8003cc6 <__sfp+0x16>
 8003cc0:	4630      	mov	r0, r6
 8003cc2:	f7ff ffbd 	bl	8003c40 <__sinit>
 8003cc6:	3648      	adds	r6, #72	; 0x48
 8003cc8:	e9d6 3401 	ldrd	r3, r4, [r6, #4]
 8003ccc:	3b01      	subs	r3, #1
 8003cce:	d503      	bpl.n	8003cd8 <__sfp+0x28>
 8003cd0:	6833      	ldr	r3, [r6, #0]
 8003cd2:	b30b      	cbz	r3, 8003d18 <__sfp+0x68>
 8003cd4:	6836      	ldr	r6, [r6, #0]
 8003cd6:	e7f7      	b.n	8003cc8 <__sfp+0x18>
 8003cd8:	f9b4 500c 	ldrsh.w	r5, [r4, #12]
 8003cdc:	b9d5      	cbnz	r5, 8003d14 <__sfp+0x64>
 8003cde:	4b16      	ldr	r3, [pc, #88]	; (8003d38 <__sfp+0x88>)
 8003ce0:	60e3      	str	r3, [r4, #12]
 8003ce2:	f104 0058 	add.w	r0, r4, #88	; 0x58
 8003ce6:	6665      	str	r5, [r4, #100]	; 0x64
 8003ce8:	f000 f847 	bl	8003d7a <__retarget_lock_init_recursive>
 8003cec:	f7ff ff96 	bl	8003c1c <__sfp_lock_release>
 8003cf0:	e9c4 5501 	strd	r5, r5, [r4, #4]
 8003cf4:	e9c4 5504 	strd	r5, r5, [r4, #16]
 8003cf8:	6025      	str	r5, [r4, #0]
 8003cfa:	61a5      	str	r5, [r4, #24]
 8003cfc:	2208      	movs	r2, #8
 8003cfe:	4629      	mov	r1, r5
 8003d00:	f104 005c 	add.w	r0, r4, #92	; 0x5c
 8003d04:	f7fe fffa 	bl	8002cfc <memset>
 8003d08:	e9c4 550d 	strd	r5, r5, [r4, #52]	; 0x34
 8003d0c:	e9c4 5512 	strd	r5, r5, [r4, #72]	; 0x48
 8003d10:	4620      	mov	r0, r4
 8003d12:	bdf8      	pop	{r3, r4, r5, r6, r7, pc}
 8003d14:	3468      	adds	r4, #104	; 0x68
 8003d16:	e7d9      	b.n	8003ccc <__sfp+0x1c>
 8003d18:	2104      	movs	r1, #4
 8003d1a:	4638      	mov	r0, r7
 8003d1c:	f7ff ff62 	bl	8003be4 <__sfmoreglue>
 8003d20:	4604      	mov	r4, r0
 8003d22:	6030      	str	r0, [r6, #0]
 8003d24:	2800      	cmp	r0, #0
 8003d26:	d1d5      	bne.n	8003cd4 <__sfp+0x24>
 8003d28:	f7ff ff78 	bl	8003c1c <__sfp_lock_release>
 8003d2c:	230c      	movs	r3, #12
 8003d2e:	603b      	str	r3, [r7, #0]
 8003d30:	e7ee      	b.n	8003d10 <__sfp+0x60>
 8003d32:	bf00      	nop
 8003d34:	0800420c 	.word	0x0800420c
 8003d38:	ffff0001 	.word	0xffff0001

08003d3c <_fwalk_reent>:
 8003d3c:	e92d 43f8 	stmdb	sp!, {r3, r4, r5, r6, r7, r8, r9, lr}
 8003d40:	4606      	mov	r6, r0
 8003d42:	4688      	mov	r8, r1
 8003d44:	f100 0448 	add.w	r4, r0, #72	; 0x48
 8003d48:	2700      	movs	r7, #0
 8003d4a:	e9d4 9501 	ldrd	r9, r5, [r4, #4]
 8003d4e:	f1b9 0901 	subs.w	r9, r9, #1
 8003d52:	d505      	bpl.n	8003d60 <_fwalk_reent+0x24>
 8003d54:	6824      	ldr	r4, [r4, #0]
 8003d56:	2c00      	cmp	r4, #0
 8003d58:	d1f7      	bne.n	8003d4a <_fwalk_reent+0xe>
 8003d5a:	4638      	mov	r0, r7
 8003d5c:	e8bd 83f8 	ldmia.w	sp!, {r3, r4, r5, r6, r7, r8, r9, pc}
 8003d60:	89ab      	ldrh	r3, [r5, #12]
 8003d62:	2b01      	cmp	r3, #1
 8003d64:	d907      	bls.n	8003d76 <_fwalk_reent+0x3a>
 8003d66:	f9b5 300e 	ldrsh.w	r3, [r5, #14]
 8003d6a:	3301      	adds	r3, #1
 8003d6c:	d003      	beq.n	8003d76 <_fwalk_reent+0x3a>
 8003d6e:	4629      	mov	r1, r5
 8003d70:	4630      	mov	r0, r6
 8003d72:	47c0      	blx	r8
 8003d74:	4307      	orrs	r7, r0
 8003d76:	3568      	adds	r5, #104	; 0x68
 8003d78:	e7e9      	b.n	8003d4e <_fwalk_reent+0x12>

08003d7a <__retarget_lock_init_recursive>:
 8003d7a:	4770      	bx	lr

08003d7c <__retarget_lock_acquire_recursive>:
 8003d7c:	4770      	bx	lr

08003d7e <__retarget_lock_release_recursive>:
 8003d7e:	4770      	bx	lr

08003d80 <__swhatbuf_r>:
 8003d80:	b570      	push	{r4, r5, r6, lr}
 8003d82:	460e      	mov	r6, r1
 8003d84:	f9b1 100e 	ldrsh.w	r1, [r1, #14]
 8003d88:	2900      	cmp	r1, #0
 8003d8a:	b096      	sub	sp, #88	; 0x58
 8003d8c:	4614      	mov	r4, r2
 8003d8e:	461d      	mov	r5, r3
 8003d90:	da07      	bge.n	8003da2 <__swhatbuf_r+0x22>
 8003d92:	2300      	movs	r3, #0
 8003d94:	602b      	str	r3, [r5, #0]
 8003d96:	89b3      	ldrh	r3, [r6, #12]
 8003d98:	061a      	lsls	r2, r3, #24
 8003d9a:	d410      	bmi.n	8003dbe <__swhatbuf_r+0x3e>
 8003d9c:	f44f 6380 	mov.w	r3, #1024	; 0x400
 8003da0:	e00e      	b.n	8003dc0 <__swhatbuf_r+0x40>
 8003da2:	466a      	mov	r2, sp
 8003da4:	f000 f954 	bl	8004050 <_fstat_r>
 8003da8:	2800      	cmp	r0, #0
 8003daa:	dbf2      	blt.n	8003d92 <__swhatbuf_r+0x12>
 8003dac:	9a01      	ldr	r2, [sp, #4]
 8003dae:	f402 4270 	and.w	r2, r2, #61440	; 0xf000
 8003db2:	f5a2 5300 	sub.w	r3, r2, #8192	; 0x2000
 8003db6:	425a      	negs	r2, r3
 8003db8:	415a      	adcs	r2, r3
 8003dba:	602a      	str	r2, [r5, #0]
 8003dbc:	e7ee      	b.n	8003d9c <__swhatbuf_r+0x1c>
 8003dbe:	2340      	movs	r3, #64	; 0x40
 8003dc0:	2000      	movs	r0, #0
 8003dc2:	6023      	str	r3, [r4, #0]
 8003dc4:	b016      	add	sp, #88	; 0x58
 8003dc6:	bd70      	pop	{r4, r5, r6, pc}

08003dc8 <__smakebuf_r>:
 8003dc8:	898b      	ldrh	r3, [r1, #12]
 8003dca:	b573      	push	{r0, r1, r4, r5, r6, lr}
 8003dcc:	079d      	lsls	r5, r3, #30
 8003dce:	4606      	mov	r6, r0
 8003dd0:	460c      	mov	r4, r1
 8003dd2:	d507      	bpl.n	8003de4 <__smakebuf_r+0x1c>
 8003dd4:	f104 0347 	add.w	r3, r4, #71	; 0x47
 8003dd8:	6023      	str	r3, [r4, #0]
 8003dda:	6123      	str	r3, [r4, #16]
 8003ddc:	2301      	movs	r3, #1
 8003dde:	6163      	str	r3, [r4, #20]
 8003de0:	b002      	add	sp, #8
 8003de2:	bd70      	pop	{r4, r5, r6, pc}
 8003de4:	ab01      	add	r3, sp, #4
 8003de6:	466a      	mov	r2, sp
 8003de8:	f7ff ffca 	bl	8003d80 <__swhatbuf_r>
 8003dec:	9900      	ldr	r1, [sp, #0]
 8003dee:	4605      	mov	r5, r0
 8003df0:	4630      	mov	r0, r6
 8003df2:	f7ff f88f 	bl	8002f14 <_malloc_r>
 8003df6:	b948      	cbnz	r0, 8003e0c <__smakebuf_r+0x44>
 8003df8:	f9b4 300c 	ldrsh.w	r3, [r4, #12]
 8003dfc:	059a      	lsls	r2, r3, #22
 8003dfe:	d4ef      	bmi.n	8003de0 <__smakebuf_r+0x18>
 8003e00:	f023 0303 	bic.w	r3, r3, #3
 8003e04:	f043 0302 	orr.w	r3, r3, #2
 8003e08:	81a3      	strh	r3, [r4, #12]
 8003e0a:	e7e3      	b.n	8003dd4 <__smakebuf_r+0xc>
 8003e0c:	4b0d      	ldr	r3, [pc, #52]	; (8003e44 <__smakebuf_r+0x7c>)
 8003e0e:	62b3      	str	r3, [r6, #40]	; 0x28
 8003e10:	89a3      	ldrh	r3, [r4, #12]
 8003e12:	6020      	str	r0, [r4, #0]
 8003e14:	f043 0380 	orr.w	r3, r3, #128	; 0x80
 8003e18:	81a3      	strh	r3, [r4, #12]
 8003e1a:	9b00      	ldr	r3, [sp, #0]
 8003e1c:	6163      	str	r3, [r4, #20]
 8003e1e:	9b01      	ldr	r3, [sp, #4]
 8003e20:	6120      	str	r0, [r4, #16]
 8003e22:	b15b      	cbz	r3, 8003e3c <__smakebuf_r+0x74>
 8003e24:	f9b4 100e 	ldrsh.w	r1, [r4, #14]
 8003e28:	4630      	mov	r0, r6
 8003e2a:	f000 f923 	bl	8004074 <_isatty_r>
 8003e2e:	b128      	cbz	r0, 8003e3c <__smakebuf_r+0x74>
 8003e30:	89a3      	ldrh	r3, [r4, #12]
 8003e32:	f023 0303 	bic.w	r3, r3, #3
 8003e36:	f043 0301 	orr.w	r3, r3, #1
 8003e3a:	81a3      	strh	r3, [r4, #12]
 8003e3c:	89a0      	ldrh	r0, [r4, #12]
 8003e3e:	4305      	orrs	r5, r0
 8003e40:	81a5      	strh	r5, [r4, #12]
 8003e42:	e7cd      	b.n	8003de0 <__smakebuf_r+0x18>
 8003e44:	08003bd9 	.word	0x08003bd9

08003e48 <memcpy>:
 8003e48:	440a      	add	r2, r1
 8003e4a:	4291      	cmp	r1, r2
 8003e4c:	f100 33ff 	add.w	r3, r0, #4294967295
 8003e50:	d100      	bne.n	8003e54 <memcpy+0xc>
 8003e52:	4770      	bx	lr
 8003e54:	b510      	push	{r4, lr}
 8003e56:	f811 4b01 	ldrb.w	r4, [r1], #1
 8003e5a:	f803 4f01 	strb.w	r4, [r3, #1]!
 8003e5e:	4291      	cmp	r1, r2
 8003e60:	d1f9      	bne.n	8003e56 <memcpy+0xe>
 8003e62:	bd10      	pop	{r4, pc}

08003e64 <memmove>:
 8003e64:	4288      	cmp	r0, r1
 8003e66:	b510      	push	{r4, lr}
 8003e68:	eb01 0402 	add.w	r4, r1, r2
 8003e6c:	d902      	bls.n	8003e74 <memmove+0x10>
 8003e6e:	4284      	cmp	r4, r0
 8003e70:	4623      	mov	r3, r4
 8003e72:	d807      	bhi.n	8003e84 <memmove+0x20>
 8003e74:	1e43      	subs	r3, r0, #1
 8003e76:	42a1      	cmp	r1, r4
 8003e78:	d008      	beq.n	8003e8c <memmove+0x28>
 8003e7a:	f811 2b01 	ldrb.w	r2, [r1], #1
 8003e7e:	f803 2f01 	strb.w	r2, [r3, #1]!
 8003e82:	e7f8      	b.n	8003e76 <memmove+0x12>
 8003e84:	4402      	add	r2, r0
 8003e86:	4601      	mov	r1, r0
 8003e88:	428a      	cmp	r2, r1
 8003e8a:	d100      	bne.n	8003e8e <memmove+0x2a>
 8003e8c:	bd10      	pop	{r4, pc}
 8003e8e:	f813 4d01 	ldrb.w	r4, [r3, #-1]!
 8003e92:	f802 4d01 	strb.w	r4, [r2, #-1]!
 8003e96:	e7f7      	b.n	8003e88 <memmove+0x24>

08003e98 <__malloc_lock>:
 8003e98:	4801      	ldr	r0, [pc, #4]	; (8003ea0 <__malloc_lock+0x8>)
 8003e9a:	f7ff bf6f 	b.w	8003d7c <__retarget_lock_acquire_recursive>
 8003e9e:	bf00      	nop
 8003ea0:	20013074 	.word	0x20013074

08003ea4 <__malloc_unlock>:
 8003ea4:	4801      	ldr	r0, [pc, #4]	; (8003eac <__malloc_unlock+0x8>)
 8003ea6:	f7ff bf6a 	b.w	8003d7e <__retarget_lock_release_recursive>
 8003eaa:	bf00      	nop
 8003eac:	20013074 	.word	0x20013074

08003eb0 <_realloc_r>:
 8003eb0:	b5f8      	push	{r3, r4, r5, r6, r7, lr}
 8003eb2:	4607      	mov	r7, r0
 8003eb4:	4614      	mov	r4, r2
 8003eb6:	460e      	mov	r6, r1
 8003eb8:	b921      	cbnz	r1, 8003ec4 <_realloc_r+0x14>
 8003eba:	e8bd 40f8 	ldmia.w	sp!, {r3, r4, r5, r6, r7, lr}
 8003ebe:	4611      	mov	r1, r2
 8003ec0:	f7ff b828 	b.w	8002f14 <_malloc_r>
 8003ec4:	b922      	cbnz	r2, 8003ed0 <_realloc_r+0x20>
 8003ec6:	f7fe ffd5 	bl	8002e74 <_free_r>
 8003eca:	4625      	mov	r5, r4
 8003ecc:	4628      	mov	r0, r5
 8003ece:	bdf8      	pop	{r3, r4, r5, r6, r7, pc}
 8003ed0:	f000 f8f2 	bl	80040b8 <_malloc_usable_size_r>
 8003ed4:	42a0      	cmp	r0, r4
 8003ed6:	d20f      	bcs.n	8003ef8 <_realloc_r+0x48>
 8003ed8:	4621      	mov	r1, r4
 8003eda:	4638      	mov	r0, r7
 8003edc:	f7ff f81a 	bl	8002f14 <_malloc_r>
 8003ee0:	4605      	mov	r5, r0
 8003ee2:	2800      	cmp	r0, #0
 8003ee4:	d0f2      	beq.n	8003ecc <_realloc_r+0x1c>
 8003ee6:	4631      	mov	r1, r6
 8003ee8:	4622      	mov	r2, r4
 8003eea:	f7ff ffad 	bl	8003e48 <memcpy>
 8003eee:	4631      	mov	r1, r6
 8003ef0:	4638      	mov	r0, r7
 8003ef2:	f7fe ffbf 	bl	8002e74 <_free_r>
 8003ef6:	e7e9      	b.n	8003ecc <_realloc_r+0x1c>
 8003ef8:	4635      	mov	r5, r6
 8003efa:	e7e7      	b.n	8003ecc <_realloc_r+0x1c>

08003efc <_raise_r>:
 8003efc:	291f      	cmp	r1, #31
 8003efe:	b538      	push	{r3, r4, r5, lr}
 8003f00:	4604      	mov	r4, r0
 8003f02:	460d      	mov	r5, r1
 8003f04:	d904      	bls.n	8003f10 <_raise_r+0x14>
 8003f06:	2316      	movs	r3, #22
 8003f08:	6003      	str	r3, [r0, #0]
 8003f0a:	f04f 30ff 	mov.w	r0, #4294967295
 8003f0e:	bd38      	pop	{r3, r4, r5, pc}
 8003f10:	6c42      	ldr	r2, [r0, #68]	; 0x44
 8003f12:	b112      	cbz	r2, 8003f1a <_raise_r+0x1e>
 8003f14:	f852 3021 	ldr.w	r3, [r2, r1, lsl #2]
 8003f18:	b94b      	cbnz	r3, 8003f2e <_raise_r+0x32>
 8003f1a:	4620      	mov	r0, r4
 8003f1c:	f000 f830 	bl	8003f80 <_getpid_r>
 8003f20:	462a      	mov	r2, r5
 8003f22:	4601      	mov	r1, r0
 8003f24:	4620      	mov	r0, r4
 8003f26:	e8bd 4038 	ldmia.w	sp!, {r3, r4, r5, lr}
 8003f2a:	f000 b817 	b.w	8003f5c <_kill_r>
 8003f2e:	2b01      	cmp	r3, #1
 8003f30:	d00a      	beq.n	8003f48 <_raise_r+0x4c>
 8003f32:	1c59      	adds	r1, r3, #1
 8003f34:	d103      	bne.n	8003f3e <_raise_r+0x42>
 8003f36:	2316      	movs	r3, #22
 8003f38:	6003      	str	r3, [r0, #0]
 8003f3a:	2001      	movs	r0, #1
 8003f3c:	e7e7      	b.n	8003f0e <_raise_r+0x12>
 8003f3e:	2400      	movs	r4, #0
 8003f40:	f842 4025 	str.w	r4, [r2, r5, lsl #2]
 8003f44:	4628      	mov	r0, r5
 8003f46:	4798      	blx	r3
 8003f48:	2000      	movs	r0, #0
 8003f4a:	e7e0      	b.n	8003f0e <_raise_r+0x12>

08003f4c <raise>:
 8003f4c:	4b02      	ldr	r3, [pc, #8]	; (8003f58 <raise+0xc>)
 8003f4e:	4601      	mov	r1, r0
 8003f50:	6818      	ldr	r0, [r3, #0]
 8003f52:	f7ff bfd3 	b.w	8003efc <_raise_r>
 8003f56:	bf00      	nop
 8003f58:	2000002c 	.word	0x2000002c

08003f5c <_kill_r>:
 8003f5c:	b538      	push	{r3, r4, r5, lr}
 8003f5e:	4d07      	ldr	r5, [pc, #28]	; (8003f7c <_kill_r+0x20>)
 8003f60:	2300      	movs	r3, #0
 8003f62:	4604      	mov	r4, r0
 8003f64:	4608      	mov	r0, r1
 8003f66:	4611      	mov	r1, r2
 8003f68:	602b      	str	r3, [r5, #0]
 8003f6a:	f7fc fdf9 	bl	8000b60 <_kill>
 8003f6e:	1c43      	adds	r3, r0, #1
 8003f70:	d102      	bne.n	8003f78 <_kill_r+0x1c>
 8003f72:	682b      	ldr	r3, [r5, #0]
 8003f74:	b103      	cbz	r3, 8003f78 <_kill_r+0x1c>
 8003f76:	6023      	str	r3, [r4, #0]
 8003f78:	bd38      	pop	{r3, r4, r5, pc}
 8003f7a:	bf00      	nop
 8003f7c:	2001307c 	.word	0x2001307c

08003f80 <_getpid_r>:
 8003f80:	f7fc bdec 	b.w	8000b5c <_getpid>

08003f84 <__sread>:
 8003f84:	b510      	push	{r4, lr}
 8003f86:	460c      	mov	r4, r1
 8003f88:	f9b1 100e 	ldrsh.w	r1, [r1, #14]
 8003f8c:	f000 f89c 	bl	80040c8 <_read_r>
 8003f90:	2800      	cmp	r0, #0
 8003f92:	bfab      	itete	ge
 8003f94:	6d63      	ldrge	r3, [r4, #84]	; 0x54
 8003f96:	89a3      	ldrhlt	r3, [r4, #12]
 8003f98:	181b      	addge	r3, r3, r0
 8003f9a:	f423 5380 	biclt.w	r3, r3, #4096	; 0x1000
 8003f9e:	bfac      	ite	ge
 8003fa0:	6563      	strge	r3, [r4, #84]	; 0x54
 8003fa2:	81a3      	strhlt	r3, [r4, #12]
 8003fa4:	bd10      	pop	{r4, pc}

08003fa6 <__swrite>:
 8003fa6:	e92d 41f0 	stmdb	sp!, {r4, r5, r6, r7, r8, lr}
 8003faa:	461f      	mov	r7, r3
 8003fac:	898b      	ldrh	r3, [r1, #12]
 8003fae:	05db      	lsls	r3, r3, #23
 8003fb0:	4605      	mov	r5, r0
 8003fb2:	460c      	mov	r4, r1
 8003fb4:	4616      	mov	r6, r2
 8003fb6:	d505      	bpl.n	8003fc4 <__swrite+0x1e>
 8003fb8:	f9b1 100e 	ldrsh.w	r1, [r1, #14]
 8003fbc:	2302      	movs	r3, #2
 8003fbe:	2200      	movs	r2, #0
 8003fc0:	f000 f868 	bl	8004094 <_lseek_r>
 8003fc4:	89a3      	ldrh	r3, [r4, #12]
 8003fc6:	f9b4 100e 	ldrsh.w	r1, [r4, #14]
 8003fca:	f423 5380 	bic.w	r3, r3, #4096	; 0x1000
 8003fce:	81a3      	strh	r3, [r4, #12]
 8003fd0:	4632      	mov	r2, r6
 8003fd2:	463b      	mov	r3, r7
 8003fd4:	4628      	mov	r0, r5
 8003fd6:	e8bd 41f0 	ldmia.w	sp!, {r4, r5, r6, r7, r8, lr}
 8003fda:	f000 b817 	b.w	800400c <_write_r>

08003fde <__sseek>:
 8003fde:	b510      	push	{r4, lr}
 8003fe0:	460c      	mov	r4, r1
 8003fe2:	f9b1 100e 	ldrsh.w	r1, [r1, #14]
 8003fe6:	f000 f855 	bl	8004094 <_lseek_r>
 8003fea:	1c43      	adds	r3, r0, #1
 8003fec:	89a3      	ldrh	r3, [r4, #12]
 8003fee:	bf15      	itete	ne
 8003ff0:	6560      	strne	r0, [r4, #84]	; 0x54
 8003ff2:	f423 5380 	biceq.w	r3, r3, #4096	; 0x1000
 8003ff6:	f443 5380 	orrne.w	r3, r3, #4096	; 0x1000
 8003ffa:	81a3      	strheq	r3, [r4, #12]
 8003ffc:	bf18      	it	ne
 8003ffe:	81a3      	strhne	r3, [r4, #12]
 8004000:	bd10      	pop	{r4, pc}

08004002 <__sclose>:
 8004002:	f9b1 100e 	ldrsh.w	r1, [r1, #14]
 8004006:	f000 b813 	b.w	8004030 <_close_r>
	...

0800400c <_write_r>:
 800400c:	b538      	push	{r3, r4, r5, lr}
 800400e:	4d07      	ldr	r5, [pc, #28]	; (800402c <_write_r+0x20>)
 8004010:	4604      	mov	r4, r0
 8004012:	4608      	mov	r0, r1
 8004014:	4611      	mov	r1, r2
 8004016:	2200      	movs	r2, #0
 8004018:	602a      	str	r2, [r5, #0]
 800401a:	461a      	mov	r2, r3
 800401c:	f7fc fdbb 	bl	8000b96 <_write>
 8004020:	1c43      	adds	r3, r0, #1
 8004022:	d102      	bne.n	800402a <_write_r+0x1e>
 8004024:	682b      	ldr	r3, [r5, #0]
 8004026:	b103      	cbz	r3, 800402a <_write_r+0x1e>
 8004028:	6023      	str	r3, [r4, #0]
 800402a:	bd38      	pop	{r3, r4, r5, pc}
 800402c:	2001307c 	.word	0x2001307c

08004030 <_close_r>:
 8004030:	b538      	push	{r3, r4, r5, lr}
 8004032:	4d06      	ldr	r5, [pc, #24]	; (800404c <_close_r+0x1c>)
 8004034:	2300      	movs	r3, #0
 8004036:	4604      	mov	r4, r0
 8004038:	4608      	mov	r0, r1
 800403a:	602b      	str	r3, [r5, #0]
 800403c:	f7fc fdb8 	bl	8000bb0 <_close>
 8004040:	1c43      	adds	r3, r0, #1
 8004042:	d102      	bne.n	800404a <_close_r+0x1a>
 8004044:	682b      	ldr	r3, [r5, #0]
 8004046:	b103      	cbz	r3, 800404a <_close_r+0x1a>
 8004048:	6023      	str	r3, [r4, #0]
 800404a:	bd38      	pop	{r3, r4, r5, pc}
 800404c:	2001307c 	.word	0x2001307c

08004050 <_fstat_r>:
 8004050:	b538      	push	{r3, r4, r5, lr}
 8004052:	4d07      	ldr	r5, [pc, #28]	; (8004070 <_fstat_r+0x20>)
 8004054:	2300      	movs	r3, #0
 8004056:	4604      	mov	r4, r0
 8004058:	4608      	mov	r0, r1
 800405a:	4611      	mov	r1, r2
 800405c:	602b      	str	r3, [r5, #0]
 800405e:	f7fc fdaa 	bl	8000bb6 <_fstat>
 8004062:	1c43      	adds	r3, r0, #1
 8004064:	d102      	bne.n	800406c <_fstat_r+0x1c>
 8004066:	682b      	ldr	r3, [r5, #0]
 8004068:	b103      	cbz	r3, 800406c <_fstat_r+0x1c>
 800406a:	6023      	str	r3, [r4, #0]
 800406c:	bd38      	pop	{r3, r4, r5, pc}
 800406e:	bf00      	nop
 8004070:	2001307c 	.word	0x2001307c

08004074 <_isatty_r>:
 8004074:	b538      	push	{r3, r4, r5, lr}
 8004076:	4d06      	ldr	r5, [pc, #24]	; (8004090 <_isatty_r+0x1c>)
 8004078:	2300      	movs	r3, #0
 800407a:	4604      	mov	r4, r0
 800407c:	4608      	mov	r0, r1
 800407e:	602b      	str	r3, [r5, #0]
 8004080:	f7fc fd9e 	bl	8000bc0 <_isatty>
 8004084:	1c43      	adds	r3, r0, #1
 8004086:	d102      	bne.n	800408e <_isatty_r+0x1a>
 8004088:	682b      	ldr	r3, [r5, #0]
 800408a:	b103      	cbz	r3, 800408e <_isatty_r+0x1a>
 800408c:	6023      	str	r3, [r4, #0]
 800408e:	bd38      	pop	{r3, r4, r5, pc}
 8004090:	2001307c 	.word	0x2001307c

08004094 <_lseek_r>:
 8004094:	b538      	push	{r3, r4, r5, lr}
 8004096:	4d07      	ldr	r5, [pc, #28]	; (80040b4 <_lseek_r+0x20>)
 8004098:	4604      	mov	r4, r0
 800409a:	4608      	mov	r0, r1
 800409c:	4611      	mov	r1, r2
 800409e:	2200      	movs	r2, #0
 80040a0:	602a      	str	r2, [r5, #0]
 80040a2:	461a      	mov	r2, r3
 80040a4:	f7fc fd8e 	bl	8000bc4 <_lseek>
 80040a8:	1c43      	adds	r3, r0, #1
 80040aa:	d102      	bne.n	80040b2 <_lseek_r+0x1e>
 80040ac:	682b      	ldr	r3, [r5, #0]
 80040ae:	b103      	cbz	r3, 80040b2 <_lseek_r+0x1e>
 80040b0:	6023      	str	r3, [r4, #0]
 80040b2:	bd38      	pop	{r3, r4, r5, pc}
 80040b4:	2001307c 	.word	0x2001307c

080040b8 <_malloc_usable_size_r>:
 80040b8:	f851 3c04 	ldr.w	r3, [r1, #-4]
 80040bc:	1f18      	subs	r0, r3, #4
 80040be:	2b00      	cmp	r3, #0
 80040c0:	bfbc      	itt	lt
 80040c2:	580b      	ldrlt	r3, [r1, r0]
 80040c4:	18c0      	addlt	r0, r0, r3
 80040c6:	4770      	bx	lr

080040c8 <_read_r>:
 80040c8:	b538      	push	{r3, r4, r5, lr}
 80040ca:	4d07      	ldr	r5, [pc, #28]	; (80040e8 <_read_r+0x20>)
 80040cc:	4604      	mov	r4, r0
 80040ce:	4608      	mov	r0, r1
 80040d0:	4611      	mov	r1, r2
 80040d2:	2200      	movs	r2, #0
 80040d4:	602a      	str	r2, [r5, #0]
 80040d6:	461a      	mov	r2, r3
 80040d8:	f7fc fd50 	bl	8000b7c <_read>
 80040dc:	1c43      	adds	r3, r0, #1
 80040de:	d102      	bne.n	80040e6 <_read_r+0x1e>
 80040e0:	682b      	ldr	r3, [r5, #0]
 80040e2:	b103      	cbz	r3, 80040e6 <_read_r+0x1e>
 80040e4:	6023      	str	r3, [r4, #0]
 80040e6:	bd38      	pop	{r3, r4, r5, pc}
 80040e8:	2001307c 	.word	0x2001307c

080040ec <_init>:
 80040ec:	b5f8      	push	{r3, r4, r5, r6, r7, lr}
 80040ee:	bf00      	nop
 80040f0:	bcf8      	pop	{r3, r4, r5, r6, r7}
 80040f2:	bc08      	pop	{r3}
 80040f4:	469e      	mov	lr, r3
 80040f6:	4770      	bx	lr

080040f8 <_fini>:
 80040f8:	b5f8      	push	{r3, r4, r5, r6, r7, lr}
 80040fa:	bf00      	nop
 80040fc:	bcf8      	pop	{r3, r4, r5, r6, r7}
 80040fe:	bc08      	pop	{r3}
 8004100:	469e      	mov	lr, r3
 8004102:	4770      	bx	lr
