
VGAnuS_Software-Ontwikkeling.elf:     file format elf32-littlearm

Sections:
Idx Name          Size      VMA       LMA       File off  Algn
  0 .isr_vector   00000188  08000000  08000000  00010000  2**0
                  CONTENTS, ALLOC, LOAD, READONLY, DATA
  1 .text         000040c4  08000190  08000190  00010190  2**4
                  CONTENTS, ALLOC, LOAD, READONLY, CODE
  2 .rodata       00000354  08004254  08004254  00014254  2**2
                  CONTENTS, ALLOC, LOAD, READONLY, DATA
  3 .ARM.extab    00000000  080045a8  080045a8  00020090  2**0
                  CONTENTS
  4 .ARM          00000008  080045a8  080045a8  000145a8  2**2
                  CONTENTS, ALLOC, LOAD, READONLY, DATA
  5 .preinit_array 00000000  080045b0  080045b0  00020090  2**0
                  CONTENTS, ALLOC, LOAD, DATA
  6 .init_array   00000004  080045b0  080045b0  000145b0  2**2
                  CONTENTS, ALLOC, LOAD, DATA
  7 .fini_array   00000004  080045b4  080045b4  000145b4  2**2
                  CONTENTS, ALLOC, LOAD, DATA
  8 .data         00000090  20000000  080045b8  00020000  2**2
                  CONTENTS, ALLOC, LOAD, DATA
  9 .bss          00012ff0  20000090  08004648  00020090  2**2
                  ALLOC
 10 ._user_heap_stack 00000600  20013080  08004648  00023080  2**0
                  ALLOC
 11 .ARM.attributes 00000030  00000000  00000000  00020090  2**0
                  CONTENTS, READONLY
 12 .comment      00000053  00000000  00000000  000200c0  2**0
                  CONTENTS, READONLY
 13 .debug_frame  00000cd0  00000000  00000000  00020114  2**2
                  CONTENTS, READONLY, DEBUGGING, OCTETS

Disassembly of section .text:

08000190 <__do_global_dtors_aux>:
 8000190:	b510      	push	{r4, lr}
 8000192:	4c05      	ldr	r4, [pc, #20]	; (80001a8 <__do_global_dtors_aux+0x18>)
 8000194:	7823      	ldrb	r3, [r4, #0]
 8000196:	b933      	cbnz	r3, 80001a6 <__do_global_dtors_aux+0x16>
 8000198:	4b04      	ldr	r3, [pc, #16]	; (80001ac <__do_global_dtors_aux+0x1c>)
 800019a:	b113      	cbz	r3, 80001a2 <__do_global_dtors_aux+0x12>
 800019c:	4804      	ldr	r0, [pc, #16]	; (80001b0 <__do_global_dtors_aux+0x20>)
 800019e:	f3af 8000 	nop.w
 80001a2:	2301      	movs	r3, #1
 80001a4:	7023      	strb	r3, [r4, #0]
 80001a6:	bd10      	pop	{r4, pc}
 80001a8:	20000090 	.word	0x20000090
 80001ac:	00000000 	.word	0x00000000
 80001b0:	0800423c 	.word	0x0800423c

080001b4 <frame_dummy>:
 80001b4:	b508      	push	{r3, lr}
 80001b6:	4b03      	ldr	r3, [pc, #12]	; (80001c4 <frame_dummy+0x10>)
 80001b8:	b11b      	cbz	r3, 80001c2 <frame_dummy+0xe>
 80001ba:	4903      	ldr	r1, [pc, #12]	; (80001c8 <frame_dummy+0x14>)
 80001bc:	4803      	ldr	r0, [pc, #12]	; (80001cc <frame_dummy+0x18>)
 80001be:	f3af 8000 	nop.w
 80001c2:	bd08      	pop	{r3, pc}
 80001c4:	00000000 	.word	0x00000000
 80001c8:	20000094 	.word	0x20000094
 80001cc:	0800423c 	.word	0x0800423c

080001d0 <strcmp>:
 80001d0:	f810 2b01 	ldrb.w	r2, [r0], #1
 80001d4:	f811 3b01 	ldrb.w	r3, [r1], #1
 80001d8:	2a01      	cmp	r2, #1
 80001da:	bf28      	it	cs
 80001dc:	429a      	cmpcs	r2, r3
 80001de:	d0f7      	beq.n	80001d0 <strcmp>
 80001e0:	1ad0      	subs	r0, r2, r3
 80001e2:	4770      	bx	lr

080001e4 <strlen>:
 80001e4:	4603      	mov	r3, r0
 80001e6:	f813 2b01 	ldrb.w	r2, [r3], #1
 80001ea:	2a00      	cmp	r2, #0
 80001ec:	d1fb      	bne.n	80001e6 <strlen+0x2>
 80001ee:	1a18      	subs	r0, r3, r0
 80001f0:	3801      	subs	r0, #1
 80001f2:	4770      	bx	lr
	...

08000200 <memchr>:
 8000200:	f001 01ff 	and.w	r1, r1, #255	; 0xff
 8000204:	2a10      	cmp	r2, #16
 8000206:	db2b      	blt.n	8000260 <memchr+0x60>
 8000208:	f010 0f07 	tst.w	r0, #7
 800020c:	d008      	beq.n	8000220 <memchr+0x20>
 800020e:	f810 3b01 	ldrb.w	r3, [r0], #1
 8000212:	3a01      	subs	r2, #1
 8000214:	428b      	cmp	r3, r1
 8000216:	d02d      	beq.n	8000274 <memchr+0x74>
 8000218:	f010 0f07 	tst.w	r0, #7
 800021c:	b342      	cbz	r2, 8000270 <memchr+0x70>
 800021e:	d1f6      	bne.n	800020e <memchr+0xe>
 8000220:	b4f0      	push	{r4, r5, r6, r7}
 8000222:	ea41 2101 	orr.w	r1, r1, r1, lsl #8
 8000226:	ea41 4101 	orr.w	r1, r1, r1, lsl #16
 800022a:	f022 0407 	bic.w	r4, r2, #7
 800022e:	f07f 0700 	mvns.w	r7, #0
 8000232:	2300      	movs	r3, #0
 8000234:	e8f0 5602 	ldrd	r5, r6, [r0], #8
 8000238:	3c08      	subs	r4, #8
 800023a:	ea85 0501 	eor.w	r5, r5, r1
 800023e:	ea86 0601 	eor.w	r6, r6, r1
 8000242:	fa85 f547 	uadd8	r5, r5, r7
 8000246:	faa3 f587 	sel	r5, r3, r7
 800024a:	fa86 f647 	uadd8	r6, r6, r7
 800024e:	faa5 f687 	sel	r6, r5, r7
 8000252:	b98e      	cbnz	r6, 8000278 <memchr+0x78>
 8000254:	d1ee      	bne.n	8000234 <memchr+0x34>
 8000256:	bcf0      	pop	{r4, r5, r6, r7}
 8000258:	f001 01ff 	and.w	r1, r1, #255	; 0xff
 800025c:	f002 0207 	and.w	r2, r2, #7
 8000260:	b132      	cbz	r2, 8000270 <memchr+0x70>
 8000262:	f810 3b01 	ldrb.w	r3, [r0], #1
 8000266:	3a01      	subs	r2, #1
 8000268:	ea83 0301 	eor.w	r3, r3, r1
 800026c:	b113      	cbz	r3, 8000274 <memchr+0x74>
 800026e:	d1f8      	bne.n	8000262 <memchr+0x62>
 8000270:	2000      	movs	r0, #0
 8000272:	4770      	bx	lr
 8000274:	3801      	subs	r0, #1
 8000276:	4770      	bx	lr
 8000278:	2d00      	cmp	r5, #0
 800027a:	bf06      	itte	eq
 800027c:	4635      	moveq	r5, r6
 800027e:	3803      	subeq	r0, #3
 8000280:	3807      	subne	r0, #7
 8000282:	f015 0f01 	tst.w	r5, #1
 8000286:	d107      	bne.n	8000298 <memchr+0x98>
 8000288:	3001      	adds	r0, #1
 800028a:	f415 7f80 	tst.w	r5, #256	; 0x100
 800028e:	bf02      	ittt	eq
 8000290:	3001      	addeq	r0, #1
 8000292:	f415 3fc0 	tsteq.w	r5, #98304	; 0x18000
 8000296:	3001      	addeq	r0, #1
 8000298:	bcf0      	pop	{r4, r5, r6, r7}
 800029a:	3801      	subs	r0, #1
 800029c:	4770      	bx	lr
 800029e:	bf00      	nop

080002a0 <__aeabi_uldivmod>:
 80002a0:	b953      	cbnz	r3, 80002b8 <__aeabi_uldivmod+0x18>
 80002a2:	b94a      	cbnz	r2, 80002b8 <__aeabi_uldivmod+0x18>
 80002a4:	2900      	cmp	r1, #0
 80002a6:	bf08      	it	eq
 80002a8:	2800      	cmpeq	r0, #0
 80002aa:	bf1c      	itt	ne
 80002ac:	f04f 31ff 	movne.w	r1, #4294967295
 80002b0:	f04f 30ff 	movne.w	r0, #4294967295
 80002b4:	f000 b96e 	b.w	8000594 <__aeabi_idiv0>
 80002b8:	f1ad 0c08 	sub.w	ip, sp, #8
 80002bc:	e96d ce04 	strd	ip, lr, [sp, #-16]!
 80002c0:	f000 f806 	bl	80002d0 <__udivmoddi4>
 80002c4:	f8dd e004 	ldr.w	lr, [sp, #4]
 80002c8:	e9dd 2302 	ldrd	r2, r3, [sp, #8]
 80002cc:	b004      	add	sp, #16
 80002ce:	4770      	bx	lr

080002d0 <__udivmoddi4>:
 80002d0:	e92d 47f0 	stmdb	sp!, {r4, r5, r6, r7, r8, r9, sl, lr}
 80002d4:	9d08      	ldr	r5, [sp, #32]
 80002d6:	4604      	mov	r4, r0
 80002d8:	468c      	mov	ip, r1
 80002da:	2b00      	cmp	r3, #0
 80002dc:	f040 8083 	bne.w	80003e6 <__udivmoddi4+0x116>
 80002e0:	428a      	cmp	r2, r1
 80002e2:	4617      	mov	r7, r2
 80002e4:	d947      	bls.n	8000376 <__udivmoddi4+0xa6>
 80002e6:	fab2 f282 	clz	r2, r2
 80002ea:	b142      	cbz	r2, 80002fe <__udivmoddi4+0x2e>
 80002ec:	f1c2 0020 	rsb	r0, r2, #32
 80002f0:	fa24 f000 	lsr.w	r0, r4, r0
 80002f4:	4091      	lsls	r1, r2
 80002f6:	4097      	lsls	r7, r2
 80002f8:	ea40 0c01 	orr.w	ip, r0, r1
 80002fc:	4094      	lsls	r4, r2
 80002fe:	ea4f 4817 	mov.w	r8, r7, lsr #16
 8000302:	0c23      	lsrs	r3, r4, #16
 8000304:	fbbc f6f8 	udiv	r6, ip, r8
 8000308:	fa1f fe87 	uxth.w	lr, r7
 800030c:	fb08 c116 	mls	r1, r8, r6, ip
 8000310:	ea43 4301 	orr.w	r3, r3, r1, lsl #16
 8000314:	fb06 f10e 	mul.w	r1, r6, lr
 8000318:	4299      	cmp	r1, r3
 800031a:	d909      	bls.n	8000330 <__udivmoddi4+0x60>
 800031c:	18fb      	adds	r3, r7, r3
 800031e:	f106 30ff 	add.w	r0, r6, #4294967295
 8000322:	f080 8119 	bcs.w	8000558 <__udivmoddi4+0x288>
 8000326:	4299      	cmp	r1, r3
 8000328:	f240 8116 	bls.w	8000558 <__udivmoddi4+0x288>
 800032c:	3e02      	subs	r6, #2
 800032e:	443b      	add	r3, r7
 8000330:	1a5b      	subs	r3, r3, r1
 8000332:	b2a4      	uxth	r4, r4
 8000334:	fbb3 f0f8 	udiv	r0, r3, r8
 8000338:	fb08 3310 	mls	r3, r8, r0, r3
 800033c:	ea44 4403 	orr.w	r4, r4, r3, lsl #16
 8000340:	fb00 fe0e 	mul.w	lr, r0, lr
 8000344:	45a6      	cmp	lr, r4
 8000346:	d909      	bls.n	800035c <__udivmoddi4+0x8c>
 8000348:	193c      	adds	r4, r7, r4
 800034a:	f100 33ff 	add.w	r3, r0, #4294967295
 800034e:	f080 8105 	bcs.w	800055c <__udivmoddi4+0x28c>
 8000352:	45a6      	cmp	lr, r4
 8000354:	f240 8102 	bls.w	800055c <__udivmoddi4+0x28c>
 8000358:	3802      	subs	r0, #2
 800035a:	443c      	add	r4, r7
 800035c:	ea40 4006 	orr.w	r0, r0, r6, lsl #16
 8000360:	eba4 040e 	sub.w	r4, r4, lr
 8000364:	2600      	movs	r6, #0
 8000366:	b11d      	cbz	r5, 8000370 <__udivmoddi4+0xa0>
 8000368:	40d4      	lsrs	r4, r2
 800036a:	2300      	movs	r3, #0
 800036c:	e9c5 4300 	strd	r4, r3, [r5]
 8000370:	4631      	mov	r1, r6
 8000372:	e8bd 87f0 	ldmia.w	sp!, {r4, r5, r6, r7, r8, r9, sl, pc}
 8000376:	b902      	cbnz	r2, 800037a <__udivmoddi4+0xaa>
 8000378:	deff      	udf	#255	; 0xff
 800037a:	fab2 f282 	clz	r2, r2
 800037e:	2a00      	cmp	r2, #0
 8000380:	d150      	bne.n	8000424 <__udivmoddi4+0x154>
 8000382:	1bcb      	subs	r3, r1, r7
 8000384:	ea4f 4e17 	mov.w	lr, r7, lsr #16
 8000388:	fa1f f887 	uxth.w	r8, r7
 800038c:	2601      	movs	r6, #1
 800038e:	fbb3 fcfe 	udiv	ip, r3, lr
 8000392:	0c21      	lsrs	r1, r4, #16
 8000394:	fb0e 331c 	mls	r3, lr, ip, r3
 8000398:	ea41 4103 	orr.w	r1, r1, r3, lsl #16
 800039c:	fb08 f30c 	mul.w	r3, r8, ip
 80003a0:	428b      	cmp	r3, r1
 80003a2:	d907      	bls.n	80003b4 <__udivmoddi4+0xe4>
 80003a4:	1879      	adds	r1, r7, r1
 80003a6:	f10c 30ff 	add.w	r0, ip, #4294967295
 80003aa:	d202      	bcs.n	80003b2 <__udivmoddi4+0xe2>
 80003ac:	428b      	cmp	r3, r1
 80003ae:	f200 80e9 	bhi.w	8000584 <__udivmoddi4+0x2b4>
 80003b2:	4684      	mov	ip, r0
 80003b4:	1ac9      	subs	r1, r1, r3
 80003b6:	b2a3      	uxth	r3, r4
 80003b8:	fbb1 f0fe 	udiv	r0, r1, lr
 80003bc:	fb0e 1110 	mls	r1, lr, r0, r1
 80003c0:	ea43 4401 	orr.w	r4, r3, r1, lsl #16
 80003c4:	fb08 f800 	mul.w	r8, r8, r0
 80003c8:	45a0      	cmp	r8, r4
 80003ca:	d907      	bls.n	80003dc <__udivmoddi4+0x10c>
 80003cc:	193c      	adds	r4, r7, r4
 80003ce:	f100 33ff 	add.w	r3, r0, #4294967295
 80003d2:	d202      	bcs.n	80003da <__udivmoddi4+0x10a>
 80003d4:	45a0      	cmp	r8, r4
 80003d6:	f200 80d9 	bhi.w	800058c <__udivmoddi4+0x2bc>
 80003da:	4618      	mov	r0, r3
 80003dc:	eba4 0408 	sub.w	r4, r4, r8
 80003e0:	ea40 400c 	orr.w	r0, r0, ip, lsl #16
 80003e4:	e7bf      	b.n	8000366 <__udivmoddi4+0x96>
 80003e6:	428b      	cmp	r3, r1
 80003e8:	d909      	bls.n	80003fe <__udivmoddi4+0x12e>
 80003ea:	2d00      	cmp	r5, #0
 80003ec:	f000 80b1 	beq.w	8000552 <__udivmoddi4+0x282>
 80003f0:	2600      	movs	r6, #0
 80003f2:	e9c5 0100 	strd	r0, r1, [r5]
 80003f6:	4630      	mov	r0, r6
 80003f8:	4631      	mov	r1, r6
 80003fa:	e8bd 87f0 	ldmia.w	sp!, {r4, r5, r6, r7, r8, r9, sl, pc}
 80003fe:	fab3 f683 	clz	r6, r3
 8000402:	2e00      	cmp	r6, #0
 8000404:	d14a      	bne.n	800049c <__udivmoddi4+0x1cc>
 8000406:	428b      	cmp	r3, r1
 8000408:	d302      	bcc.n	8000410 <__udivmoddi4+0x140>
 800040a:	4282      	cmp	r2, r0
 800040c:	f200 80b8 	bhi.w	8000580 <__udivmoddi4+0x2b0>
 8000410:	1a84      	subs	r4, r0, r2
 8000412:	eb61 0103 	sbc.w	r1, r1, r3
 8000416:	2001      	movs	r0, #1
 8000418:	468c      	mov	ip, r1
 800041a:	2d00      	cmp	r5, #0
 800041c:	d0a8      	beq.n	8000370 <__udivmoddi4+0xa0>
 800041e:	e9c5 4c00 	strd	r4, ip, [r5]
 8000422:	e7a5      	b.n	8000370 <__udivmoddi4+0xa0>
 8000424:	f1c2 0320 	rsb	r3, r2, #32
 8000428:	fa20 f603 	lsr.w	r6, r0, r3
 800042c:	4097      	lsls	r7, r2
 800042e:	fa01 f002 	lsl.w	r0, r1, r2
 8000432:	ea4f 4e17 	mov.w	lr, r7, lsr #16
 8000436:	40d9      	lsrs	r1, r3
 8000438:	4330      	orrs	r0, r6
 800043a:	0c03      	lsrs	r3, r0, #16
 800043c:	fbb1 f6fe 	udiv	r6, r1, lr
 8000440:	fa1f f887 	uxth.w	r8, r7
 8000444:	fb0e 1116 	mls	r1, lr, r6, r1
 8000448:	ea43 4301 	orr.w	r3, r3, r1, lsl #16
 800044c:	fb06 f108 	mul.w	r1, r6, r8
 8000450:	4299      	cmp	r1, r3
 8000452:	fa04 f402 	lsl.w	r4, r4, r2
 8000456:	d909      	bls.n	800046c <__udivmoddi4+0x19c>
 8000458:	18fb      	adds	r3, r7, r3
 800045a:	f106 3cff 	add.w	ip, r6, #4294967295
 800045e:	f080 808d 	bcs.w	800057c <__udivmoddi4+0x2ac>
 8000462:	4299      	cmp	r1, r3
 8000464:	f240 808a 	bls.w	800057c <__udivmoddi4+0x2ac>
 8000468:	3e02      	subs	r6, #2
 800046a:	443b      	add	r3, r7
 800046c:	1a5b      	subs	r3, r3, r1
 800046e:	b281      	uxth	r1, r0
 8000470:	fbb3 f0fe 	udiv	r0, r3, lr
 8000474:	fb0e 3310 	mls	r3, lr, r0, r3
 8000478:	ea41 4103 	orr.w	r1, r1, r3, lsl #16
 800047c:	fb00 f308 	mul.w	r3, r0, r8
 8000480:	428b      	cmp	r3, r1
 8000482:	d907      	bls.n	8000494 <__udivmoddi4+0x1c4>
 8000484:	1879      	adds	r1, r7, r1
 8000486:	f100 3cff 	add.w	ip, r0, #4294967295
 800048a:	d273      	bcs.n	8000574 <__udivmoddi4+0x2a4>
 800048c:	428b      	cmp	r3, r1
 800048e:	d971      	bls.n	8000574 <__udivmoddi4+0x2a4>
 8000490:	3802      	subs	r0, #2
 8000492:	4439      	add	r1, r7
 8000494:	1acb      	subs	r3, r1, r3
 8000496:	ea40 4606 	orr.w	r6, r0, r6, lsl #16
 800049a:	e778      	b.n	800038e <__udivmoddi4+0xbe>
 800049c:	f1c6 0c20 	rsb	ip, r6, #32
 80004a0:	fa03 f406 	lsl.w	r4, r3, r6
 80004a4:	fa22 f30c 	lsr.w	r3, r2, ip
 80004a8:	431c      	orrs	r4, r3
 80004aa:	fa20 f70c 	lsr.w	r7, r0, ip
 80004ae:	fa01 f306 	lsl.w	r3, r1, r6
 80004b2:	ea4f 4e14 	mov.w	lr, r4, lsr #16
 80004b6:	fa21 f10c 	lsr.w	r1, r1, ip
 80004ba:	431f      	orrs	r7, r3
 80004bc:	0c3b      	lsrs	r3, r7, #16
 80004be:	fbb1 f9fe 	udiv	r9, r1, lr
 80004c2:	fa1f f884 	uxth.w	r8, r4
 80004c6:	fb0e 1119 	mls	r1, lr, r9, r1
 80004ca:	ea43 4101 	orr.w	r1, r3, r1, lsl #16
 80004ce:	fb09 fa08 	mul.w	sl, r9, r8
 80004d2:	458a      	cmp	sl, r1
 80004d4:	fa02 f206 	lsl.w	r2, r2, r6
 80004d8:	fa00 f306 	lsl.w	r3, r0, r6
 80004dc:	d908      	bls.n	80004f0 <__udivmoddi4+0x220>
 80004de:	1861      	adds	r1, r4, r1
 80004e0:	f109 30ff 	add.w	r0, r9, #4294967295
 80004e4:	d248      	bcs.n	8000578 <__udivmoddi4+0x2a8>
 80004e6:	458a      	cmp	sl, r1
 80004e8:	d946      	bls.n	8000578 <__udivmoddi4+0x2a8>
 80004ea:	f1a9 0902 	sub.w	r9, r9, #2
 80004ee:	4421      	add	r1, r4
 80004f0:	eba1 010a 	sub.w	r1, r1, sl
 80004f4:	b2bf      	uxth	r7, r7
 80004f6:	fbb1 f0fe 	udiv	r0, r1, lr
 80004fa:	fb0e 1110 	mls	r1, lr, r0, r1
 80004fe:	ea47 4701 	orr.w	r7, r7, r1, lsl #16
 8000502:	fb00 f808 	mul.w	r8, r0, r8
 8000506:	45b8      	cmp	r8, r7
 8000508:	d907      	bls.n	800051a <__udivmoddi4+0x24a>
 800050a:	19e7      	adds	r7, r4, r7
 800050c:	f100 31ff 	add.w	r1, r0, #4294967295
 8000510:	d22e      	bcs.n	8000570 <__udivmoddi4+0x2a0>
 8000512:	45b8      	cmp	r8, r7
 8000514:	d92c      	bls.n	8000570 <__udivmoddi4+0x2a0>
 8000516:	3802      	subs	r0, #2
 8000518:	4427      	add	r7, r4
 800051a:	ea40 4009 	orr.w	r0, r0, r9, lsl #16
 800051e:	eba7 0708 	sub.w	r7, r7, r8
 8000522:	fba0 8902 	umull	r8, r9, r0, r2
 8000526:	454f      	cmp	r7, r9
 8000528:	46c6      	mov	lr, r8
 800052a:	4649      	mov	r1, r9
 800052c:	d31a      	bcc.n	8000564 <__udivmoddi4+0x294>
 800052e:	d017      	beq.n	8000560 <__udivmoddi4+0x290>
 8000530:	b15d      	cbz	r5, 800054a <__udivmoddi4+0x27a>
 8000532:	ebb3 020e 	subs.w	r2, r3, lr
 8000536:	eb67 0701 	sbc.w	r7, r7, r1
 800053a:	fa07 fc0c 	lsl.w	ip, r7, ip
 800053e:	40f2      	lsrs	r2, r6
 8000540:	ea4c 0202 	orr.w	r2, ip, r2
 8000544:	40f7      	lsrs	r7, r6
 8000546:	e9c5 2700 	strd	r2, r7, [r5]
 800054a:	2600      	movs	r6, #0
 800054c:	4631      	mov	r1, r6
 800054e:	e8bd 87f0 	ldmia.w	sp!, {r4, r5, r6, r7, r8, r9, sl, pc}
 8000552:	462e      	mov	r6, r5
 8000554:	4628      	mov	r0, r5
 8000556:	e70b      	b.n	8000370 <__udivmoddi4+0xa0>
 8000558:	4606      	mov	r6, r0
 800055a:	e6e9      	b.n	8000330 <__udivmoddi4+0x60>
 800055c:	4618      	mov	r0, r3
 800055e:	e6fd      	b.n	800035c <__udivmoddi4+0x8c>
 8000560:	4543      	cmp	r3, r8
 8000562:	d2e5      	bcs.n	8000530 <__udivmoddi4+0x260>
 8000564:	ebb8 0e02 	subs.w	lr, r8, r2
 8000568:	eb69 0104 	sbc.w	r1, r9, r4
 800056c:	3801      	subs	r0, #1
 800056e:	e7df      	b.n	8000530 <__udivmoddi4+0x260>
 8000570:	4608      	mov	r0, r1
 8000572:	e7d2      	b.n	800051a <__udivmoddi4+0x24a>
 8000574:	4660      	mov	r0, ip
 8000576:	e78d      	b.n	8000494 <__udivmoddi4+0x1c4>
 8000578:	4681      	mov	r9, r0
 800057a:	e7b9      	b.n	80004f0 <__udivmoddi4+0x220>
 800057c:	4666      	mov	r6, ip
 800057e:	e775      	b.n	800046c <__udivmoddi4+0x19c>
 8000580:	4630      	mov	r0, r6
 8000582:	e74a      	b.n	800041a <__udivmoddi4+0x14a>
 8000584:	f1ac 0c02 	sub.w	ip, ip, #2
 8000588:	4439      	add	r1, r7
 800058a:	e713      	b.n	80003b4 <__udivmoddi4+0xe4>
 800058c:	3802      	subs	r0, #2
 800058e:	443c      	add	r4, r7
 8000590:	e724      	b.n	80003dc <__udivmoddi4+0x10c>
 8000592:	bf00      	nop

08000594 <__aeabi_idiv0>:
 8000594:	4770      	bx	lr
 8000596:	bf00      	nop

08000598 <FL_Parse>:
 8000598:	b570      	push	{r4, r5, r6, lr}
 800059a:	494c      	ldr	r1, [pc, #304]	; (80006cc <FL_Parse+0x134>)
 800059c:	4e4b      	ldr	r6, [pc, #300]	; (80006cc <FL_Parse+0x134>)
 800059e:	b09a      	sub	sp, #104	; 0x68
 80005a0:	f002 fbee 	bl	8002d80 <strtok>
 80005a4:	4601      	mov	r1, r0
 80005a6:	4604      	mov	r4, r0
 80005a8:	a801      	add	r0, sp, #4
 80005aa:	f002 fbc9 	bl	8002d40 <siprintf>
 80005ae:	ad01      	add	r5, sp, #4
 80005b0:	4621      	mov	r1, r4
 80005b2:	4628      	mov	r0, r5
 80005b4:	f002 fbc4 	bl	8002d40 <siprintf>
 80005b8:	4631      	mov	r1, r6
 80005ba:	2000      	movs	r0, #0
 80005bc:	f002 fbe0 	bl	8002d80 <strtok>
 80005c0:	350a      	adds	r5, #10
 80005c2:	4604      	mov	r4, r0
 80005c4:	2800      	cmp	r0, #0
 80005c6:	d1f3      	bne.n	80005b0 <FL_Parse+0x18>
 80005c8:	4941      	ldr	r1, [pc, #260]	; (80006d0 <FL_Parse+0x138>)
 80005ca:	a801      	add	r0, sp, #4
 80005cc:	f7ff fe00 	bl	80001d0 <strcmp>
 80005d0:	b9b8      	cbnz	r0, 8000602 <FL_Parse+0x6a>
 80005d2:	4940      	ldr	r1, [pc, #256]	; (80006d4 <FL_Parse+0x13c>)
 80005d4:	4840      	ldr	r0, [pc, #256]	; (80006d8 <FL_Parse+0x140>)
 80005d6:	220c      	movs	r2, #12
 80005d8:	f002 f920 	bl	800281c <HAL_UART_Transmit_DMA>
 80005dc:	f10d 000e 	add.w	r0, sp, #14
 80005e0:	f002 fb78 	bl	8002cd4 <atoi>
 80005e4:	a806      	add	r0, sp, #24
 80005e6:	f002 fb75 	bl	8002cd4 <atoi>
 80005ea:	f10d 0022 	add.w	r0, sp, #34	; 0x22
 80005ee:	f002 fb71 	bl	8002cd4 <atoi>
 80005f2:	a80b      	add	r0, sp, #44	; 0x2c
 80005f4:	f002 fb6e 	bl	8002cd4 <atoi>
 80005f8:	a80b      	add	r0, sp, #44	; 0x2c
 80005fa:	f002 fb6b 	bl	8002cd4 <atoi>
 80005fe:	b01a      	add	sp, #104	; 0x68
 8000600:	bd70      	pop	{r4, r5, r6, pc}
 8000602:	4936      	ldr	r1, [pc, #216]	; (80006dc <FL_Parse+0x144>)
 8000604:	a801      	add	r0, sp, #4
 8000606:	f7ff fde3 	bl	80001d0 <strcmp>
 800060a:	b9a0      	cbnz	r0, 8000636 <FL_Parse+0x9e>
 800060c:	4934      	ldr	r1, [pc, #208]	; (80006e0 <FL_Parse+0x148>)
 800060e:	4832      	ldr	r0, [pc, #200]	; (80006d8 <FL_Parse+0x140>)
 8000610:	2211      	movs	r2, #17
 8000612:	f002 f903 	bl	800281c <HAL_UART_Transmit_DMA>
 8000616:	f10d 000e 	add.w	r0, sp, #14
 800061a:	f002 fb5b 	bl	8002cd4 <atoi>
 800061e:	a806      	add	r0, sp, #24
 8000620:	f002 fb58 	bl	8002cd4 <atoi>
 8000624:	f10d 0022 	add.w	r0, sp, #34	; 0x22
 8000628:	f002 fb54 	bl	8002cd4 <atoi>
 800062c:	a80b      	add	r0, sp, #44	; 0x2c
 800062e:	f002 fb51 	bl	8002cd4 <atoi>
 8000632:	a810      	add	r0, sp, #64	; 0x40
 8000634:	e7e1      	b.n	80005fa <FL_Parse+0x62>
 8000636:	492b      	ldr	r1, [pc, #172]	; (80006e4 <FL_Parse+0x14c>)
 8000638:	a801      	add	r0, sp, #4
 800063a:	f7ff fdc9 	bl	80001d0 <strcmp>
 800063e:	b950      	cbnz	r0, 8000656 <FL_Parse+0xbe>
 8000640:	4929      	ldr	r1, [pc, #164]	; (80006e8 <FL_Parse+0x150>)
 8000642:	4825      	ldr	r0, [pc, #148]	; (80006d8 <FL_Parse+0x140>)
 8000644:	220d      	movs	r2, #13
 8000646:	f002 f8e9 	bl	800281c <HAL_UART_Transmit_DMA>
 800064a:	f10d 000e 	add.w	r0, sp, #14
 800064e:	f002 fb41 	bl	8002cd4 <atoi>
 8000652:	a806      	add	r0, sp, #24
 8000654:	e7eb      	b.n	800062e <FL_Parse+0x96>
 8000656:	4925      	ldr	r1, [pc, #148]	; (80006ec <FL_Parse+0x154>)
 8000658:	a801      	add	r0, sp, #4
 800065a:	f7ff fdb9 	bl	80001d0 <strcmp>
 800065e:	b970      	cbnz	r0, 800067e <FL_Parse+0xe6>
 8000660:	4923      	ldr	r1, [pc, #140]	; (80006f0 <FL_Parse+0x158>)
 8000662:	481d      	ldr	r0, [pc, #116]	; (80006d8 <FL_Parse+0x140>)
 8000664:	220e      	movs	r2, #14
 8000666:	f002 f8d9 	bl	800281c <HAL_UART_Transmit_DMA>
 800066a:	f10d 000e 	add.w	r0, sp, #14
 800066e:	f002 fb31 	bl	8002cd4 <atoi>
 8000672:	a806      	add	r0, sp, #24
 8000674:	f002 fb2e 	bl	8002cd4 <atoi>
 8000678:	f10d 0022 	add.w	r0, sp, #34	; 0x22
 800067c:	e7bd      	b.n	80005fa <FL_Parse+0x62>
 800067e:	491d      	ldr	r1, [pc, #116]	; (80006f4 <FL_Parse+0x15c>)
 8000680:	a801      	add	r0, sp, #4
 8000682:	f7ff fda5 	bl	80001d0 <strcmp>
 8000686:	b928      	cbnz	r0, 8000694 <FL_Parse+0xfc>
 8000688:	491b      	ldr	r1, [pc, #108]	; (80006f8 <FL_Parse+0x160>)
 800068a:	2213      	movs	r2, #19
 800068c:	4812      	ldr	r0, [pc, #72]	; (80006d8 <FL_Parse+0x140>)
 800068e:	f002 f8c5 	bl	800281c <HAL_UART_Transmit_DMA>
 8000692:	e7b4      	b.n	80005fe <FL_Parse+0x66>
 8000694:	4919      	ldr	r1, [pc, #100]	; (80006fc <FL_Parse+0x164>)
 8000696:	a801      	add	r0, sp, #4
 8000698:	f7ff fd9a 	bl	80001d0 <strcmp>
 800069c:	b910      	cbnz	r0, 80006a4 <FL_Parse+0x10c>
 800069e:	4918      	ldr	r1, [pc, #96]	; (8000700 <FL_Parse+0x168>)
 80006a0:	220d      	movs	r2, #13
 80006a2:	e7f3      	b.n	800068c <FL_Parse+0xf4>
 80006a4:	4917      	ldr	r1, [pc, #92]	; (8000704 <FL_Parse+0x16c>)
 80006a6:	a801      	add	r0, sp, #4
 80006a8:	f7ff fd92 	bl	80001d0 <strcmp>
 80006ac:	b910      	cbnz	r0, 80006b4 <FL_Parse+0x11c>
 80006ae:	4916      	ldr	r1, [pc, #88]	; (8000708 <FL_Parse+0x170>)
 80006b0:	220e      	movs	r2, #14
 80006b2:	e7eb      	b.n	800068c <FL_Parse+0xf4>
 80006b4:	4915      	ldr	r1, [pc, #84]	; (800070c <FL_Parse+0x174>)
 80006b6:	a801      	add	r0, sp, #4
 80006b8:	f7ff fd8a 	bl	80001d0 <strcmp>
 80006bc:	b910      	cbnz	r0, 80006c4 <FL_Parse+0x12c>
 80006be:	4914      	ldr	r1, [pc, #80]	; (8000710 <FL_Parse+0x178>)
 80006c0:	220e      	movs	r2, #14
 80006c2:	e7e3      	b.n	800068c <FL_Parse+0xf4>
 80006c4:	4913      	ldr	r1, [pc, #76]	; (8000714 <FL_Parse+0x17c>)
 80006c6:	220b      	movs	r2, #11
 80006c8:	e7e0      	b.n	800068c <FL_Parse+0xf4>
 80006ca:	bf00      	nop
 80006cc:	08004254 	.word	0x08004254
 80006d0:	08004256 	.word	0x08004256
 80006d4:	0800425b 	.word	0x0800425b
 80006d8:	20013028 	.word	0x20013028
 80006dc:	08004268 	.word	0x08004268
 80006e0:	08004272 	.word	0x08004272
 80006e4:	08004284 	.word	0x08004284
 80006e8:	0800428a 	.word	0x0800428a
 80006ec:	08004298 	.word	0x08004298
 80006f0:	0800429f 	.word	0x0800429f
 80006f4:	080042ae 	.word	0x080042ae
 80006f8:	080042ba 	.word	0x080042ba
 80006fc:	080042ce 	.word	0x080042ce
 8000700:	080042d4 	.word	0x080042d4
 8000704:	080042e2 	.word	0x080042e2
 8000708:	080042e9 	.word	0x080042e9
 800070c:	080042f8 	.word	0x080042f8
 8000710:	080042ff 	.word	0x080042ff
 8000714:	0800430e 	.word	0x0800430e

08000718 <MX_DMA_Init>:
 8000718:	b507      	push	{r0, r1, r2, lr}
 800071a:	4b18      	ldr	r3, [pc, #96]	; (800077c <MX_DMA_Init+0x64>)
 800071c:	2200      	movs	r2, #0
 800071e:	9200      	str	r2, [sp, #0]
 8000720:	6b19      	ldr	r1, [r3, #48]	; 0x30
 8000722:	f441 0180 	orr.w	r1, r1, #4194304	; 0x400000
 8000726:	6319      	str	r1, [r3, #48]	; 0x30
 8000728:	6b19      	ldr	r1, [r3, #48]	; 0x30
 800072a:	f401 0180 	and.w	r1, r1, #4194304	; 0x400000
 800072e:	9100      	str	r1, [sp, #0]
 8000730:	9900      	ldr	r1, [sp, #0]
 8000732:	9201      	str	r2, [sp, #4]
 8000734:	6b19      	ldr	r1, [r3, #48]	; 0x30
 8000736:	f441 1100 	orr.w	r1, r1, #2097152	; 0x200000
 800073a:	6319      	str	r1, [r3, #48]	; 0x30
 800073c:	6b1b      	ldr	r3, [r3, #48]	; 0x30
 800073e:	f403 1300 	and.w	r3, r3, #2097152	; 0x200000
 8000742:	4611      	mov	r1, r2
 8000744:	9301      	str	r3, [sp, #4]
 8000746:	2010      	movs	r0, #16
 8000748:	9b01      	ldr	r3, [sp, #4]
 800074a:	f000 fd0b 	bl	8001164 <HAL_NVIC_SetPriority>
 800074e:	2010      	movs	r0, #16
 8000750:	f000 fd3a 	bl	80011c8 <HAL_NVIC_EnableIRQ>
 8000754:	2200      	movs	r2, #0
 8000756:	4611      	mov	r1, r2
 8000758:	2011      	movs	r0, #17
 800075a:	f000 fd03 	bl	8001164 <HAL_NVIC_SetPriority>
 800075e:	2011      	movs	r0, #17
 8000760:	f000 fd32 	bl	80011c8 <HAL_NVIC_EnableIRQ>
 8000764:	2200      	movs	r2, #0
 8000766:	4611      	mov	r1, r2
 8000768:	2044      	movs	r0, #68	; 0x44
 800076a:	f000 fcfb 	bl	8001164 <HAL_NVIC_SetPriority>
 800076e:	2044      	movs	r0, #68	; 0x44
 8000770:	b003      	add	sp, #12
 8000772:	f85d eb04 	ldr.w	lr, [sp], #4
 8000776:	f000 bd27 	b.w	80011c8 <HAL_NVIC_EnableIRQ>
 800077a:	bf00      	nop
 800077c:	40023800 	.word	0x40023800

08000780 <MX_GPIO_Init>:
 8000780:	e92d 41f0 	stmdb	sp!, {r4, r5, r6, r7, r8, lr}
 8000784:	2214      	movs	r2, #20
 8000786:	b08a      	sub	sp, #40	; 0x28
 8000788:	eb0d 0002 	add.w	r0, sp, r2
 800078c:	2100      	movs	r1, #0
 800078e:	f002 facf 	bl	8002d30 <memset>
 8000792:	2400      	movs	r4, #0
 8000794:	4b28      	ldr	r3, [pc, #160]	; (8000838 <MX_GPIO_Init+0xb8>)
 8000796:	9401      	str	r4, [sp, #4]
 8000798:	6b1a      	ldr	r2, [r3, #48]	; 0x30
 800079a:	f8df 80a4 	ldr.w	r8, [pc, #164]	; 8000840 <MX_GPIO_Init+0xc0>
 800079e:	4d27      	ldr	r5, [pc, #156]	; (800083c <MX_GPIO_Init+0xbc>)
 80007a0:	f042 0280 	orr.w	r2, r2, #128	; 0x80
 80007a4:	631a      	str	r2, [r3, #48]	; 0x30
 80007a6:	6b1a      	ldr	r2, [r3, #48]	; 0x30
 80007a8:	f002 0280 	and.w	r2, r2, #128	; 0x80
 80007ac:	9201      	str	r2, [sp, #4]
 80007ae:	9a01      	ldr	r2, [sp, #4]
 80007b0:	9402      	str	r4, [sp, #8]
 80007b2:	6b1a      	ldr	r2, [r3, #48]	; 0x30
 80007b4:	f042 0201 	orr.w	r2, r2, #1
 80007b8:	631a      	str	r2, [r3, #48]	; 0x30
 80007ba:	6b1a      	ldr	r2, [r3, #48]	; 0x30
 80007bc:	f002 0201 	and.w	r2, r2, #1
 80007c0:	9202      	str	r2, [sp, #8]
 80007c2:	9a02      	ldr	r2, [sp, #8]
 80007c4:	9403      	str	r4, [sp, #12]
 80007c6:	6b1a      	ldr	r2, [r3, #48]	; 0x30
 80007c8:	f042 0210 	orr.w	r2, r2, #16
 80007cc:	631a      	str	r2, [r3, #48]	; 0x30
 80007ce:	6b1a      	ldr	r2, [r3, #48]	; 0x30
 80007d0:	f002 0210 	and.w	r2, r2, #16
 80007d4:	9203      	str	r2, [sp, #12]
 80007d6:	9a03      	ldr	r2, [sp, #12]
 80007d8:	9404      	str	r4, [sp, #16]
 80007da:	6b1a      	ldr	r2, [r3, #48]	; 0x30
 80007dc:	f042 0202 	orr.w	r2, r2, #2
 80007e0:	631a      	str	r2, [r3, #48]	; 0x30
 80007e2:	6b1b      	ldr	r3, [r3, #48]	; 0x30
 80007e4:	f003 0302 	and.w	r3, r3, #2
 80007e8:	9304      	str	r3, [sp, #16]
 80007ea:	4622      	mov	r2, r4
 80007ec:	4640      	mov	r0, r8
 80007ee:	f44f 417f 	mov.w	r1, #65280	; 0xff00
 80007f2:	9b04      	ldr	r3, [sp, #16]
 80007f4:	f000 ffca 	bl	800178c <HAL_GPIO_WritePin>
 80007f8:	4622      	mov	r2, r4
 80007fa:	4628      	mov	r0, r5
 80007fc:	f44f 5180 	mov.w	r1, #4096	; 0x1000
 8000800:	f000 ffc4 	bl	800178c <HAL_GPIO_WritePin>
 8000804:	2701      	movs	r7, #1
 8000806:	f44f 437f 	mov.w	r3, #65280	; 0xff00
 800080a:	2603      	movs	r6, #3
 800080c:	a905      	add	r1, sp, #20
 800080e:	4640      	mov	r0, r8
 8000810:	e9cd 3705 	strd	r3, r7, [sp, #20]
 8000814:	9407      	str	r4, [sp, #28]
 8000816:	9608      	str	r6, [sp, #32]
 8000818:	f000 fede 	bl	80015d8 <HAL_GPIO_Init>
 800081c:	f44f 5380 	mov.w	r3, #4096	; 0x1000
 8000820:	a905      	add	r1, sp, #20
 8000822:	4628      	mov	r0, r5
 8000824:	e9cd 3705 	strd	r3, r7, [sp, #20]
 8000828:	e9cd 4607 	strd	r4, r6, [sp, #28]
 800082c:	f000 fed4 	bl	80015d8 <HAL_GPIO_Init>
 8000830:	b00a      	add	sp, #40	; 0x28
 8000832:	e8bd 81f0 	ldmia.w	sp!, {r4, r5, r6, r7, r8, pc}
 8000836:	bf00      	nop
 8000838:	40023800 	.word	0x40023800
 800083c:	40020400 	.word	0x40020400
 8000840:	40021000 	.word	0x40021000

08000844 <SystemClock_Config>:
 8000844:	b530      	push	{r4, r5, lr}
 8000846:	b095      	sub	sp, #84	; 0x54
 8000848:	2210      	movs	r2, #16
 800084a:	2100      	movs	r1, #0
 800084c:	a80a      	add	r0, sp, #40	; 0x28
 800084e:	f002 fa6f 	bl	8002d30 <memset>
 8000852:	2100      	movs	r1, #0
 8000854:	2214      	movs	r2, #20
 8000856:	a803      	add	r0, sp, #12
 8000858:	f002 fa6a 	bl	8002d30 <memset>
 800085c:	2400      	movs	r4, #0
 800085e:	4b1c      	ldr	r3, [pc, #112]	; (80008d0 <SystemClock_Config+0x8c>)
 8000860:	9401      	str	r4, [sp, #4]
 8000862:	6c1a      	ldr	r2, [r3, #64]	; 0x40
 8000864:	f042 5280 	orr.w	r2, r2, #268435456	; 0x10000000
 8000868:	641a      	str	r2, [r3, #64]	; 0x40
 800086a:	6c1b      	ldr	r3, [r3, #64]	; 0x40
 800086c:	f003 5380 	and.w	r3, r3, #268435456	; 0x10000000
 8000870:	9301      	str	r3, [sp, #4]
 8000872:	9b01      	ldr	r3, [sp, #4]
 8000874:	4b17      	ldr	r3, [pc, #92]	; (80008d4 <SystemClock_Config+0x90>)
 8000876:	9402      	str	r4, [sp, #8]
 8000878:	681a      	ldr	r2, [r3, #0]
 800087a:	f442 4280 	orr.w	r2, r2, #16384	; 0x4000
 800087e:	601a      	str	r2, [r3, #0]
 8000880:	681b      	ldr	r3, [r3, #0]
 8000882:	f403 4380 	and.w	r3, r3, #16384	; 0x4000
 8000886:	9302      	str	r3, [sp, #8]
 8000888:	9b02      	ldr	r3, [sp, #8]
 800088a:	2201      	movs	r2, #1
 800088c:	f44f 3380 	mov.w	r3, #65536	; 0x10000
 8000890:	e9cd 2308 	strd	r2, r3, [sp, #32]
 8000894:	2502      	movs	r5, #2
 8000896:	f44f 0380 	mov.w	r3, #4194304	; 0x400000
 800089a:	22a8      	movs	r2, #168	; 0xa8
 800089c:	e9cd 530e 	strd	r5, r3, [sp, #56]	; 0x38
 80008a0:	a808      	add	r0, sp, #32
 80008a2:	2304      	movs	r3, #4
 80008a4:	e9cd 3210 	strd	r3, r2, [sp, #64]	; 0x40
 80008a8:	e9cd 5312 	strd	r5, r3, [sp, #72]	; 0x48
 80008ac:	f000 ff74 	bl	8001798 <HAL_RCC_OscConfig>
 80008b0:	230f      	movs	r3, #15
 80008b2:	e9cd 3503 	strd	r3, r5, [sp, #12]
 80008b6:	f44f 51a0 	mov.w	r1, #5120	; 0x1400
 80008ba:	f44f 5380 	mov.w	r3, #4096	; 0x1000
 80008be:	e9cd 1306 	strd	r1, r3, [sp, #24]
 80008c2:	a803      	add	r0, sp, #12
 80008c4:	2105      	movs	r1, #5
 80008c6:	9405      	str	r4, [sp, #20]
 80008c8:	f001 f940 	bl	8001b4c <HAL_RCC_ClockConfig>
 80008cc:	b015      	add	sp, #84	; 0x54
 80008ce:	bd30      	pop	{r4, r5, pc}
 80008d0:	40023800 	.word	0x40023800
 80008d4:	40007000 	.word	0x40007000

080008d8 <main>:
 80008d8:	b508      	push	{r3, lr}
 80008da:	f000 fc05 	bl	80010e8 <HAL_Init>
 80008de:	f7ff ffb1 	bl	8000844 <SystemClock_Config>
 80008e2:	f7ff ff4d 	bl	8000780 <MX_GPIO_Init>
 80008e6:	f7ff ff17 	bl	8000718 <MX_DMA_Init>
 80008ea:	f000 f9ab 	bl	8000c44 <MX_TIM1_Init>
 80008ee:	f000 fa61 	bl	8000db4 <MX_TIM2_Init>
 80008f2:	f000 faa7 	bl	8000e44 <MX_USART2_UART_Init>
 80008f6:	f000 f831 	bl	800095c <UB_VGA_Screen_Init>
 80008fa:	20ff      	movs	r0, #255	; 0xff
 80008fc:	f000 f886 	bl	8000a0c <UB_VGA_FillScreen>
 8000900:	220a      	movs	r2, #10
 8000902:	4611      	mov	r1, r2
 8000904:	4610      	mov	r0, r2
 8000906:	f000 f86f 	bl	80009e8 <UB_VGA_SetPixel>
 800090a:	2100      	movs	r1, #0
 800090c:	4c0f      	ldr	r4, [pc, #60]	; (800094c <main+0x74>)
 800090e:	4608      	mov	r0, r1
 8000910:	220a      	movs	r2, #10
 8000912:	f000 f869 	bl	80009e8 <UB_VGA_SetPixel>
 8000916:	220a      	movs	r2, #10
 8000918:	2100      	movs	r1, #0
 800091a:	f240 103f 	movw	r0, #319	; 0x13f
 800091e:	f000 f863 	bl	80009e8 <UB_VGA_SetPixel>
 8000922:	6822      	ldr	r2, [r4, #0]
 8000924:	490a      	ldr	r1, [pc, #40]	; (8000950 <main+0x78>)
 8000926:	68d3      	ldr	r3, [r2, #12]
 8000928:	f043 0310 	orr.w	r3, r3, #16
 800092c:	60d3      	str	r3, [r2, #12]
 800092e:	4620      	mov	r0, r4
 8000930:	2280      	movs	r2, #128	; 0x80
 8000932:	f002 f9b7 	bl	8002ca4 <HAL_UART_Receive_DMA>
 8000936:	4807      	ldr	r0, [pc, #28]	; (8000954 <main+0x7c>)
 8000938:	f7ff fc54 	bl	80001e4 <strlen>
 800093c:	4905      	ldr	r1, [pc, #20]	; (8000954 <main+0x7c>)
 800093e:	b282      	uxth	r2, r0
 8000940:	2364      	movs	r3, #100	; 0x64
 8000942:	4620      	mov	r0, r4
 8000944:	f001 ff14 	bl	8002770 <HAL_UART_Transmit>
 8000948:	e7fe      	b.n	8000948 <main+0x70>
 800094a:	bf00      	nop
 800094c:	20013028 	.word	0x20013028
 8000950:	20012ea8 	.word	0x20012ea8
 8000954:	20000000 	.word	0x20000000

08000958 <Error_Handler>:
 8000958:	4770      	bx	lr
	...

0800095c <UB_VGA_Screen_Init>:
 800095c:	b538      	push	{r3, r4, r5, lr}
 800095e:	4c1b      	ldr	r4, [pc, #108]	; (80009cc <UB_VGA_Screen_Init+0x70>)
 8000960:	4d1b      	ldr	r5, [pc, #108]	; (80009d0 <UB_VGA_Screen_Init+0x74>)
 8000962:	2300      	movs	r3, #0
 8000964:	e9c4 3301 	strd	r3, r3, [r4, #4]
 8000968:	8023      	strh	r3, [r4, #0]
 800096a:	f103 4380 	add.w	r3, r3, #1073741824	; 0x40000000
 800096e:	f503 3301 	add.w	r3, r3, #132096	; 0x20400
 8000972:	f44f 5280 	mov.w	r2, #4096	; 0x1000
 8000976:	619a      	str	r2, [r3, #24]
 8000978:	4628      	mov	r0, r5
 800097a:	f001 fa31 	bl	8001de0 <HAL_TIM_Base_Start>
 800097e:	210c      	movs	r1, #12
 8000980:	4628      	mov	r0, r5
 8000982:	f001 fd6d 	bl	8002460 <HAL_TIM_PWM_Start>
 8000986:	2108      	movs	r1, #8
 8000988:	4628      	mov	r0, r5
 800098a:	f001 fde5 	bl	8002558 <HAL_TIM_PWM_Start_IT>
 800098e:	4b11      	ldr	r3, [pc, #68]	; (80009d4 <UB_VGA_Screen_Init+0x78>)
 8000990:	4d11      	ldr	r5, [pc, #68]	; (80009d8 <UB_VGA_Screen_Init+0x7c>)
 8000992:	681b      	ldr	r3, [r3, #0]
 8000994:	4911      	ldr	r1, [pc, #68]	; (80009dc <UB_VGA_Screen_Init+0x80>)
 8000996:	68da      	ldr	r2, [r3, #12]
 8000998:	f442 7280 	orr.w	r2, r2, #256	; 0x100
 800099c:	60da      	str	r2, [r3, #12]
 800099e:	681a      	ldr	r2, [r3, #0]
 80009a0:	f042 0201 	orr.w	r2, r2, #1
 80009a4:	601a      	str	r2, [r3, #0]
 80009a6:	4628      	mov	r0, r5
 80009a8:	4a0d      	ldr	r2, [pc, #52]	; (80009e0 <UB_VGA_Screen_Init+0x84>)
 80009aa:	f240 1341 	movw	r3, #321	; 0x141
 80009ae:	f000 fcc5 	bl	800133c <HAL_DMA_Start_IT>
 80009b2:	4628      	mov	r0, r5
 80009b4:	f000 fc42 	bl	800123c <HAL_DMA_Init>
 80009b8:	682a      	ldr	r2, [r5, #0]
 80009ba:	6813      	ldr	r3, [r2, #0]
 80009bc:	f043 0310 	orr.w	r3, r3, #16
 80009c0:	6013      	str	r3, [r2, #0]
 80009c2:	4b08      	ldr	r3, [pc, #32]	; (80009e4 <UB_VGA_Screen_Init+0x88>)
 80009c4:	681b      	ldr	r3, [r3, #0]
 80009c6:	60a3      	str	r3, [r4, #8]
 80009c8:	bd38      	pop	{r3, r4, r5, pc}
 80009ca:	bf00      	nop
 80009cc:	200000bc 	.word	0x200000bc
 80009d0:	20012e60 	.word	0x20012e60
 80009d4:	20012db8 	.word	0x20012db8
 80009d8:	20012e00 	.word	0x20012e00
 80009dc:	200000c8 	.word	0x200000c8
 80009e0:	40021015 	.word	0x40021015
 80009e4:	40026488 	.word	0x40026488

080009e8 <UB_VGA_SetPixel>:
 80009e8:	4b07      	ldr	r3, [pc, #28]	; (8000a08 <UB_VGA_SetPixel+0x20>)
 80009ea:	b510      	push	{r4, lr}
 80009ec:	29ef      	cmp	r1, #239	; 0xef
 80009ee:	bf88      	it	hi
 80009f0:	2100      	movhi	r1, #0
 80009f2:	f240 1441 	movw	r4, #321	; 0x141
 80009f6:	f5b0 7fa0 	cmp.w	r0, #320	; 0x140
 80009fa:	bf28      	it	cs
 80009fc:	2000      	movcs	r0, #0
 80009fe:	fb04 3101 	mla	r1, r4, r1, r3
 8000a02:	540a      	strb	r2, [r1, r0]
 8000a04:	bd10      	pop	{r4, pc}
 8000a06:	bf00      	nop
 8000a08:	200000c8 	.word	0x200000c8

08000a0c <UB_VGA_FillScreen>:
 8000a0c:	b538      	push	{r3, r4, r5, lr}
 8000a0e:	4602      	mov	r2, r0
 8000a10:	2400      	movs	r4, #0
 8000a12:	2500      	movs	r5, #0
 8000a14:	b2a8      	uxth	r0, r5
 8000a16:	4621      	mov	r1, r4
 8000a18:	3501      	adds	r5, #1
 8000a1a:	f7ff ffe5 	bl	80009e8 <UB_VGA_SetPixel>
 8000a1e:	f5b5 7fa0 	cmp.w	r5, #320	; 0x140
 8000a22:	d1f7      	bne.n	8000a14 <UB_VGA_FillScreen+0x8>
 8000a24:	3401      	adds	r4, #1
 8000a26:	b2a4      	uxth	r4, r4
 8000a28:	2cf0      	cmp	r4, #240	; 0xf0
 8000a2a:	d1f2      	bne.n	8000a12 <UB_VGA_FillScreen+0x6>
 8000a2c:	bd38      	pop	{r3, r4, r5, pc}
	...

08000a30 <HAL_MspInit>:
 8000a30:	b082      	sub	sp, #8
 8000a32:	4b0c      	ldr	r3, [pc, #48]	; (8000a64 <HAL_MspInit+0x34>)
 8000a34:	2100      	movs	r1, #0
 8000a36:	9100      	str	r1, [sp, #0]
 8000a38:	6c5a      	ldr	r2, [r3, #68]	; 0x44
 8000a3a:	f442 4280 	orr.w	r2, r2, #16384	; 0x4000
 8000a3e:	645a      	str	r2, [r3, #68]	; 0x44
 8000a40:	6c5a      	ldr	r2, [r3, #68]	; 0x44
 8000a42:	f402 4280 	and.w	r2, r2, #16384	; 0x4000
 8000a46:	9200      	str	r2, [sp, #0]
 8000a48:	9a00      	ldr	r2, [sp, #0]
 8000a4a:	9101      	str	r1, [sp, #4]
 8000a4c:	6c1a      	ldr	r2, [r3, #64]	; 0x40
 8000a4e:	f042 5280 	orr.w	r2, r2, #268435456	; 0x10000000
 8000a52:	641a      	str	r2, [r3, #64]	; 0x40
 8000a54:	6c1b      	ldr	r3, [r3, #64]	; 0x40
 8000a56:	f003 5380 	and.w	r3, r3, #268435456	; 0x10000000
 8000a5a:	9301      	str	r3, [sp, #4]
 8000a5c:	9b01      	ldr	r3, [sp, #4]
 8000a5e:	b002      	add	sp, #8
 8000a60:	4770      	bx	lr
 8000a62:	bf00      	nop
 8000a64:	40023800 	.word	0x40023800

08000a68 <NMI_Handler>:
 8000a68:	4770      	bx	lr

08000a6a <HardFault_Handler>:
 8000a6a:	e7fe      	b.n	8000a6a <HardFault_Handler>

08000a6c <MemManage_Handler>:
 8000a6c:	e7fe      	b.n	8000a6c <MemManage_Handler>

08000a6e <BusFault_Handler>:
 8000a6e:	e7fe      	b.n	8000a6e <BusFault_Handler>

08000a70 <UsageFault_Handler>:
 8000a70:	e7fe      	b.n	8000a70 <UsageFault_Handler>

08000a72 <SVC_Handler>:
 8000a72:	4770      	bx	lr

08000a74 <DebugMon_Handler>:
 8000a74:	4770      	bx	lr

08000a76 <PendSV_Handler>:
 8000a76:	4770      	bx	lr

08000a78 <SysTick_Handler>:
 8000a78:	f000 bb50 	b.w	800111c <HAL_IncTick>

08000a7c <DMA1_Stream5_IRQHandler>:
 8000a7c:	4801      	ldr	r0, [pc, #4]	; (8000a84 <DMA1_Stream5_IRQHandler+0x8>)
 8000a7e:	f000 bced 	b.w	800145c <HAL_DMA_IRQHandler>
 8000a82:	bf00      	nop
 8000a84:	20012f28 	.word	0x20012f28

08000a88 <DMA1_Stream6_IRQHandler>:
 8000a88:	4801      	ldr	r0, [pc, #4]	; (8000a90 <DMA1_Stream6_IRQHandler+0x8>)
 8000a8a:	f000 bce7 	b.w	800145c <HAL_DMA_IRQHandler>
 8000a8e:	bf00      	nop
 8000a90:	20012f88 	.word	0x20012f88

08000a94 <TIM2_IRQHandler>:
 8000a94:	b510      	push	{r4, lr}
 8000a96:	4c1d      	ldr	r4, [pc, #116]	; (8000b0c <TIM2_IRQHandler+0x78>)
 8000a98:	4620      	mov	r0, r4
 8000a9a:	f001 f9dc 	bl	8001e56 <HAL_TIM_IRQHandler>
 8000a9e:	6823      	ldr	r3, [r4, #0]
 8000aa0:	f06f 0208 	mvn.w	r2, #8
 8000aa4:	611a      	str	r2, [r3, #16]
 8000aa6:	4b1a      	ldr	r3, [pc, #104]	; (8000b10 <TIM2_IRQHandler+0x7c>)
 8000aa8:	881a      	ldrh	r2, [r3, #0]
 8000aaa:	3201      	adds	r2, #1
 8000aac:	b292      	uxth	r2, r2
 8000aae:	f5b2 7f03 	cmp.w	r2, #524	; 0x20c
 8000ab2:	bf86      	itte	hi
 8000ab4:	2200      	movhi	r2, #0
 8000ab6:	801a      	strhhi	r2, [r3, #0]
 8000ab8:	801a      	strhls	r2, [r3, #0]
 8000aba:	8819      	ldrh	r1, [r3, #0]
 8000abc:	bf84      	itt	hi
 8000abe:	4a15      	ldrhi	r2, [pc, #84]	; (8000b14 <TIM2_IRQHandler+0x80>)
 8000ac0:	605a      	strhi	r2, [r3, #4]
 8000ac2:	2902      	cmp	r1, #2
 8000ac4:	4a14      	ldr	r2, [pc, #80]	; (8000b18 <TIM2_IRQHandler+0x84>)
 8000ac6:	bf34      	ite	cc
 8000ac8:	f04f 5080 	movcc.w	r0, #268435456	; 0x10000000
 8000acc:	f44f 5080 	movcs.w	r0, #4096	; 0x1000
 8000ad0:	6190      	str	r0, [r2, #24]
 8000ad2:	f1a1 0224 	sub.w	r2, r1, #36	; 0x24
 8000ad6:	f5b2 7fef 	cmp.w	r2, #478	; 0x1de
 8000ada:	d815      	bhi.n	8000b08 <TIM2_IRQHandler+0x74>
 8000adc:	480f      	ldr	r0, [pc, #60]	; (8000b1c <TIM2_IRQHandler+0x88>)
 8000ade:	689a      	ldr	r2, [r3, #8]
 8000ae0:	6002      	str	r2, [r0, #0]
 8000ae2:	685a      	ldr	r2, [r3, #4]
 8000ae4:	4c0e      	ldr	r4, [pc, #56]	; (8000b20 <TIM2_IRQHandler+0x8c>)
 8000ae6:	60c2      	str	r2, [r0, #12]
 8000ae8:	6820      	ldr	r0, [r4, #0]
 8000aea:	f040 0001 	orr.w	r0, r0, #1
 8000aee:	6020      	str	r0, [r4, #0]
 8000af0:	480c      	ldr	r0, [pc, #48]	; (8000b24 <TIM2_IRQHandler+0x90>)
 8000af2:	6804      	ldr	r4, [r0, #0]
 8000af4:	6820      	ldr	r0, [r4, #0]
 8000af6:	07c9      	lsls	r1, r1, #31
 8000af8:	f040 0001 	orr.w	r0, r0, #1
 8000afc:	bf48      	it	mi
 8000afe:	f202 1241 	addwmi	r2, r2, #321	; 0x141
 8000b02:	6020      	str	r0, [r4, #0]
 8000b04:	bf48      	it	mi
 8000b06:	605a      	strmi	r2, [r3, #4]
 8000b08:	bd10      	pop	{r4, pc}
 8000b0a:	bf00      	nop
 8000b0c:	20012e60 	.word	0x20012e60
 8000b10:	200000bc 	.word	0x200000bc
 8000b14:	200000c8 	.word	0x200000c8
 8000b18:	40020400 	.word	0x40020400
 8000b1c:	40026488 	.word	0x40026488
 8000b20:	40010000 	.word	0x40010000
 8000b24:	20012e00 	.word	0x20012e00

08000b28 <USART2_IRQHandler>:
 8000b28:	b510      	push	{r4, lr}
 8000b2a:	4c07      	ldr	r4, [pc, #28]	; (8000b48 <USART2_IRQHandler+0x20>)
 8000b2c:	4620      	mov	r0, r4
 8000b2e:	f001 ff49 	bl	80029c4 <HAL_UART_IRQHandler>
 8000b32:	6823      	ldr	r3, [r4, #0]
 8000b34:	681b      	ldr	r3, [r3, #0]
 8000b36:	06db      	lsls	r3, r3, #27
 8000b38:	d504      	bpl.n	8000b44 <USART2_IRQHandler+0x1c>
 8000b3a:	4620      	mov	r0, r4
 8000b3c:	e8bd 4010 	ldmia.w	sp!, {r4, lr}
 8000b40:	f000 ba18 	b.w	8000f74 <HAL_UART_RxCpltCallback>
 8000b44:	bd10      	pop	{r4, pc}
 8000b46:	bf00      	nop
 8000b48:	20013028 	.word	0x20013028

08000b4c <DMA2_Stream5_IRQHandler>:
 8000b4c:	4b0b      	ldr	r3, [pc, #44]	; (8000b7c <DMA2_Stream5_IRQHandler+0x30>)
 8000b4e:	681b      	ldr	r3, [r3, #0]
 8000b50:	6a19      	ldr	r1, [r3, #32]
 8000b52:	f241 1211 	movw	r2, #4369	; 0x1111
 8000b56:	4211      	tst	r1, r2
 8000b58:	d108      	bne.n	8000b6c <DMA2_Stream5_IRQHandler+0x20>
 8000b5a:	6a19      	ldr	r1, [r3, #32]
 8000b5c:	f240 4244 	movw	r2, #1092	; 0x444
 8000b60:	4211      	tst	r1, r2
 8000b62:	bf02      	ittt	eq
 8000b64:	681a      	ldreq	r2, [r3, #0]
 8000b66:	f022 0201 	biceq.w	r2, r2, #1
 8000b6a:	601a      	streq	r2, [r3, #0]
 8000b6c:	4b04      	ldr	r3, [pc, #16]	; (8000b80 <DMA2_Stream5_IRQHandler+0x34>)
 8000b6e:	4805      	ldr	r0, [pc, #20]	; (8000b84 <DMA2_Stream5_IRQHandler+0x38>)
 8000b70:	f04f 427f 	mov.w	r2, #4278190080	; 0xff000000
 8000b74:	619a      	str	r2, [r3, #24]
 8000b76:	f000 bc71 	b.w	800145c <HAL_DMA_IRQHandler>
 8000b7a:	bf00      	nop
 8000b7c:	20012db8 	.word	0x20012db8
 8000b80:	40021000 	.word	0x40021000
 8000b84:	20012e00 	.word	0x20012e00

08000b88 <_getpid>:
 8000b88:	2001      	movs	r0, #1
 8000b8a:	4770      	bx	lr

08000b8c <_kill>:
 8000b8c:	b508      	push	{r3, lr}
 8000b8e:	f002 f8a5 	bl	8002cdc <__errno>
 8000b92:	2316      	movs	r3, #22
 8000b94:	6003      	str	r3, [r0, #0]
 8000b96:	f04f 30ff 	mov.w	r0, #4294967295
 8000b9a:	bd08      	pop	{r3, pc}

08000b9c <_exit>:
 8000b9c:	b508      	push	{r3, lr}
 8000b9e:	f002 f89d 	bl	8002cdc <__errno>
 8000ba2:	2316      	movs	r3, #22
 8000ba4:	6003      	str	r3, [r0, #0]
 8000ba6:	e7fe      	b.n	8000ba6 <_exit+0xa>

08000ba8 <_read>:
 8000ba8:	b570      	push	{r4, r5, r6, lr}
 8000baa:	460e      	mov	r6, r1
 8000bac:	4614      	mov	r4, r2
 8000bae:	2500      	movs	r5, #0
 8000bb0:	42a5      	cmp	r5, r4
 8000bb2:	db01      	blt.n	8000bb8 <_read+0x10>
 8000bb4:	4620      	mov	r0, r4
 8000bb6:	bd70      	pop	{r4, r5, r6, pc}
 8000bb8:	f3af 8000 	nop.w
 8000bbc:	5570      	strb	r0, [r6, r5]
 8000bbe:	3501      	adds	r5, #1
 8000bc0:	e7f6      	b.n	8000bb0 <_read+0x8>

08000bc2 <_write>:
 8000bc2:	b570      	push	{r4, r5, r6, lr}
 8000bc4:	460e      	mov	r6, r1
 8000bc6:	4614      	mov	r4, r2
 8000bc8:	2500      	movs	r5, #0
 8000bca:	42a5      	cmp	r5, r4
 8000bcc:	db01      	blt.n	8000bd2 <_write+0x10>
 8000bce:	4620      	mov	r0, r4
 8000bd0:	bd70      	pop	{r4, r5, r6, pc}
 8000bd2:	5d70      	ldrb	r0, [r6, r5]
 8000bd4:	f3af 8000 	nop.w
 8000bd8:	3501      	adds	r5, #1
 8000bda:	e7f6      	b.n	8000bca <_write+0x8>

08000bdc <_close>:
 8000bdc:	f04f 30ff 	mov.w	r0, #4294967295
 8000be0:	4770      	bx	lr

08000be2 <_fstat>:
 8000be2:	f44f 5300 	mov.w	r3, #8192	; 0x2000
 8000be6:	604b      	str	r3, [r1, #4]
 8000be8:	2000      	movs	r0, #0
 8000bea:	4770      	bx	lr

08000bec <_isatty>:
 8000bec:	2001      	movs	r0, #1
 8000bee:	4770      	bx	lr

08000bf0 <_lseek>:
 8000bf0:	2000      	movs	r0, #0
 8000bf2:	4770      	bx	lr

08000bf4 <_sbrk>:
 8000bf4:	b508      	push	{r3, lr}
 8000bf6:	4b0a      	ldr	r3, [pc, #40]	; (8000c20 <_sbrk+0x2c>)
 8000bf8:	6819      	ldr	r1, [r3, #0]
 8000bfa:	4602      	mov	r2, r0
 8000bfc:	b909      	cbnz	r1, 8000c02 <_sbrk+0xe>
 8000bfe:	4909      	ldr	r1, [pc, #36]	; (8000c24 <_sbrk+0x30>)
 8000c00:	6019      	str	r1, [r3, #0]
 8000c02:	6818      	ldr	r0, [r3, #0]
 8000c04:	4669      	mov	r1, sp
 8000c06:	4402      	add	r2, r0
 8000c08:	428a      	cmp	r2, r1
 8000c0a:	d906      	bls.n	8000c1a <_sbrk+0x26>
 8000c0c:	f002 f866 	bl	8002cdc <__errno>
 8000c10:	230c      	movs	r3, #12
 8000c12:	6003      	str	r3, [r0, #0]
 8000c14:	f04f 30ff 	mov.w	r0, #4294967295
 8000c18:	bd08      	pop	{r3, pc}
 8000c1a:	601a      	str	r2, [r3, #0]
 8000c1c:	e7fc      	b.n	8000c18 <_sbrk+0x24>
 8000c1e:	bf00      	nop
 8000c20:	200000ac 	.word	0x200000ac
 8000c24:	20013080 	.word	0x20013080

08000c28 <SystemInit>:
 8000c28:	4b05      	ldr	r3, [pc, #20]	; (8000c40 <SystemInit+0x18>)
 8000c2a:	f8d3 2088 	ldr.w	r2, [r3, #136]	; 0x88
 8000c2e:	f442 0270 	orr.w	r2, r2, #15728640	; 0xf00000
 8000c32:	f8c3 2088 	str.w	r2, [r3, #136]	; 0x88
 8000c36:	f04f 6200 	mov.w	r2, #134217728	; 0x8000000
 8000c3a:	609a      	str	r2, [r3, #8]
 8000c3c:	4770      	bx	lr
 8000c3e:	bf00      	nop
 8000c40:	e000ed00 	.word	0xe000ed00

08000c44 <MX_TIM1_Init>:
 8000c44:	b57f      	push	{r0, r1, r2, r3, r4, r5, r6, lr}
 8000c46:	2210      	movs	r2, #16
 8000c48:	2100      	movs	r1, #0
 8000c4a:	a802      	add	r0, sp, #8
 8000c4c:	f002 f870 	bl	8002d30 <memset>
 8000c50:	4814      	ldr	r0, [pc, #80]	; (8000ca4 <MX_TIM1_Init+0x60>)
 8000c52:	4a15      	ldr	r2, [pc, #84]	; (8000ca8 <MX_TIM1_Init+0x64>)
 8000c54:	2300      	movs	r3, #0
 8000c56:	e9c0 2300 	strd	r2, r3, [r0]
 8000c5a:	220b      	movs	r2, #11
 8000c5c:	e9cd 3300 	strd	r3, r3, [sp]
 8000c60:	e9c0 2303 	strd	r2, r3, [r0, #12]
 8000c64:	e9c0 3305 	strd	r3, r3, [r0, #20]
 8000c68:	6083      	str	r3, [r0, #8]
 8000c6a:	f001 f9fd 	bl	8002068 <HAL_TIM_Base_Init>
 8000c6e:	b108      	cbz	r0, 8000c74 <MX_TIM1_Init+0x30>
 8000c70:	f7ff fe72 	bl	8000958 <Error_Handler>
 8000c74:	f44f 5380 	mov.w	r3, #4096	; 0x1000
 8000c78:	480a      	ldr	r0, [pc, #40]	; (8000ca4 <MX_TIM1_Init+0x60>)
 8000c7a:	9302      	str	r3, [sp, #8]
 8000c7c:	a902      	add	r1, sp, #8
 8000c7e:	f001 fae6 	bl	800224e <HAL_TIM_ConfigClockSource>
 8000c82:	b108      	cbz	r0, 8000c88 <MX_TIM1_Init+0x44>
 8000c84:	f7ff fe68 	bl	8000958 <Error_Handler>
 8000c88:	2300      	movs	r3, #0
 8000c8a:	4806      	ldr	r0, [pc, #24]	; (8000ca4 <MX_TIM1_Init+0x60>)
 8000c8c:	4669      	mov	r1, sp
 8000c8e:	e9cd 3300 	strd	r3, r3, [sp]
 8000c92:	f001 fc63 	bl	800255c <HAL_TIMEx_MasterConfigSynchronization>
 8000c96:	b108      	cbz	r0, 8000c9c <MX_TIM1_Init+0x58>
 8000c98:	f7ff fe5e 	bl	8000958 <Error_Handler>
 8000c9c:	b007      	add	sp, #28
 8000c9e:	f85d fb04 	ldr.w	pc, [sp], #4
 8000ca2:	bf00      	nop
 8000ca4:	20012db8 	.word	0x20012db8
 8000ca8:	40010000 	.word	0x40010000

08000cac <HAL_TIM_Base_MspInit>:
 8000cac:	b537      	push	{r0, r1, r2, r4, r5, lr}
 8000cae:	4b17      	ldr	r3, [pc, #92]	; (8000d0c <HAL_TIM_Base_MspInit+0x60>)
 8000cb0:	6802      	ldr	r2, [r0, #0]
 8000cb2:	429a      	cmp	r2, r3
 8000cb4:	4605      	mov	r5, r0
 8000cb6:	d126      	bne.n	8000d06 <HAL_TIM_Base_MspInit+0x5a>
 8000cb8:	2300      	movs	r3, #0
 8000cba:	4a15      	ldr	r2, [pc, #84]	; (8000d10 <HAL_TIM_Base_MspInit+0x64>)
 8000cbc:	9301      	str	r3, [sp, #4]
 8000cbe:	6c51      	ldr	r1, [r2, #68]	; 0x44
 8000cc0:	4c14      	ldr	r4, [pc, #80]	; (8000d14 <HAL_TIM_Base_MspInit+0x68>)
 8000cc2:	f041 0101 	orr.w	r1, r1, #1
 8000cc6:	6451      	str	r1, [r2, #68]	; 0x44
 8000cc8:	6c52      	ldr	r2, [r2, #68]	; 0x44
 8000cca:	4913      	ldr	r1, [pc, #76]	; (8000d18 <HAL_TIM_Base_MspInit+0x6c>)
 8000ccc:	f002 0201 	and.w	r2, r2, #1
 8000cd0:	9201      	str	r2, [sp, #4]
 8000cd2:	9a01      	ldr	r2, [sp, #4]
 8000cd4:	f04f 6240 	mov.w	r2, #201326592	; 0xc000000
 8000cd8:	e9c4 1200 	strd	r1, r2, [r4]
 8000cdc:	2240      	movs	r2, #64	; 0x40
 8000cde:	e9c4 2302 	strd	r2, r3, [r4, #8]
 8000ce2:	f44f 6280 	mov.w	r2, #1024	; 0x400
 8000ce6:	e9c4 2304 	strd	r2, r3, [r4, #16]
 8000cea:	4620      	mov	r0, r4
 8000cec:	f44f 3240 	mov.w	r2, #196608	; 0x30000
 8000cf0:	e9c4 3306 	strd	r3, r3, [r4, #24]
 8000cf4:	e9c4 2308 	strd	r2, r3, [r4, #32]
 8000cf8:	f000 faa0 	bl	800123c <HAL_DMA_Init>
 8000cfc:	b108      	cbz	r0, 8000d02 <HAL_TIM_Base_MspInit+0x56>
 8000cfe:	f7ff fe2b 	bl	8000958 <Error_Handler>
 8000d02:	622c      	str	r4, [r5, #32]
 8000d04:	63a5      	str	r5, [r4, #56]	; 0x38
 8000d06:	b003      	add	sp, #12
 8000d08:	bd30      	pop	{r4, r5, pc}
 8000d0a:	bf00      	nop
 8000d0c:	40010000 	.word	0x40010000
 8000d10:	40023800 	.word	0x40023800
 8000d14:	20012e00 	.word	0x20012e00
 8000d18:	40026488 	.word	0x40026488

08000d1c <HAL_TIM_PWM_MspInit>:
 8000d1c:	6803      	ldr	r3, [r0, #0]
 8000d1e:	f1b3 4f80 	cmp.w	r3, #1073741824	; 0x40000000
 8000d22:	b507      	push	{r0, r1, r2, lr}
 8000d24:	d116      	bne.n	8000d54 <HAL_TIM_PWM_MspInit+0x38>
 8000d26:	2200      	movs	r2, #0
 8000d28:	f503 330e 	add.w	r3, r3, #145408	; 0x23800
 8000d2c:	9201      	str	r2, [sp, #4]
 8000d2e:	6c19      	ldr	r1, [r3, #64]	; 0x40
 8000d30:	f041 0101 	orr.w	r1, r1, #1
 8000d34:	6419      	str	r1, [r3, #64]	; 0x40
 8000d36:	6c1b      	ldr	r3, [r3, #64]	; 0x40
 8000d38:	f003 0301 	and.w	r3, r3, #1
 8000d3c:	9301      	str	r3, [sp, #4]
 8000d3e:	4611      	mov	r1, r2
 8000d40:	201c      	movs	r0, #28
 8000d42:	9b01      	ldr	r3, [sp, #4]
 8000d44:	f000 fa0e 	bl	8001164 <HAL_NVIC_SetPriority>
 8000d48:	201c      	movs	r0, #28
 8000d4a:	b003      	add	sp, #12
 8000d4c:	f85d eb04 	ldr.w	lr, [sp], #4
 8000d50:	f000 ba3a 	b.w	80011c8 <HAL_NVIC_EnableIRQ>
 8000d54:	b003      	add	sp, #12
 8000d56:	f85d fb04 	ldr.w	pc, [sp], #4
	...

08000d5c <HAL_TIM_MspPostInit>:
 8000d5c:	b510      	push	{r4, lr}
 8000d5e:	4604      	mov	r4, r0
 8000d60:	b086      	sub	sp, #24
 8000d62:	2214      	movs	r2, #20
 8000d64:	2100      	movs	r1, #0
 8000d66:	a801      	add	r0, sp, #4
 8000d68:	f001 ffe2 	bl	8002d30 <memset>
 8000d6c:	6823      	ldr	r3, [r4, #0]
 8000d6e:	f1b3 4f80 	cmp.w	r3, #1073741824	; 0x40000000
 8000d72:	d11a      	bne.n	8000daa <HAL_TIM_MspPostInit+0x4e>
 8000d74:	2100      	movs	r1, #0
 8000d76:	f503 330e 	add.w	r3, r3, #145408	; 0x23800
 8000d7a:	9100      	str	r1, [sp, #0]
 8000d7c:	6b1a      	ldr	r2, [r3, #48]	; 0x30
 8000d7e:	480c      	ldr	r0, [pc, #48]	; (8000db0 <HAL_TIM_MspPostInit+0x54>)
 8000d80:	f042 0202 	orr.w	r2, r2, #2
 8000d84:	631a      	str	r2, [r3, #48]	; 0x30
 8000d86:	6b1b      	ldr	r3, [r3, #48]	; 0x30
 8000d88:	9103      	str	r1, [sp, #12]
 8000d8a:	f003 0302 	and.w	r3, r3, #2
 8000d8e:	9300      	str	r3, [sp, #0]
 8000d90:	9b00      	ldr	r3, [sp, #0]
 8000d92:	f44f 6200 	mov.w	r2, #2048	; 0x800
 8000d96:	2302      	movs	r3, #2
 8000d98:	2103      	movs	r1, #3
 8000d9a:	e9cd 2301 	strd	r2, r3, [sp, #4]
 8000d9e:	2301      	movs	r3, #1
 8000da0:	e9cd 1304 	strd	r1, r3, [sp, #16]
 8000da4:	a901      	add	r1, sp, #4
 8000da6:	f000 fc17 	bl	80015d8 <HAL_GPIO_Init>
 8000daa:	b006      	add	sp, #24
 8000dac:	bd10      	pop	{r4, pc}
 8000dae:	bf00      	nop
 8000db0:	40020400 	.word	0x40020400

08000db4 <MX_TIM2_Init>:
 8000db4:	b510      	push	{r4, lr}
 8000db6:	2400      	movs	r4, #0
 8000db8:	b08a      	sub	sp, #40	; 0x28
 8000dba:	221c      	movs	r2, #28
 8000dbc:	4621      	mov	r1, r4
 8000dbe:	a803      	add	r0, sp, #12
 8000dc0:	e9cd 4401 	strd	r4, r4, [sp, #4]
 8000dc4:	f001 ffb4 	bl	8002d30 <memset>
 8000dc8:	481d      	ldr	r0, [pc, #116]	; (8000e40 <MX_TIM2_Init+0x8c>)
 8000dca:	f04f 4380 	mov.w	r3, #1073741824	; 0x40000000
 8000dce:	e9c0 3400 	strd	r3, r4, [r0]
 8000dd2:	f640 236b 	movw	r3, #2667	; 0xa6b
 8000dd6:	e9c0 3403 	strd	r3, r4, [r0, #12]
 8000dda:	6084      	str	r4, [r0, #8]
 8000ddc:	6184      	str	r4, [r0, #24]
 8000dde:	f001 f96f 	bl	80020c0 <HAL_TIM_PWM_Init>
 8000de2:	b108      	cbz	r0, 8000de8 <MX_TIM2_Init+0x34>
 8000de4:	f7ff fdb8 	bl	8000958 <Error_Handler>
 8000de8:	4815      	ldr	r0, [pc, #84]	; (8000e40 <MX_TIM2_Init+0x8c>)
 8000dea:	a901      	add	r1, sp, #4
 8000dec:	e9cd 4401 	strd	r4, r4, [sp, #4]
 8000df0:	f001 fbb4 	bl	800255c <HAL_TIMEx_MasterConfigSynchronization>
 8000df4:	b108      	cbz	r0, 8000dfa <MX_TIM2_Init+0x46>
 8000df6:	f7ff fdaf 	bl	8000958 <Error_Handler>
 8000dfa:	2260      	movs	r2, #96	; 0x60
 8000dfc:	f240 13bb 	movw	r3, #443	; 0x1bb
 8000e00:	e9cd 2303 	strd	r2, r3, [sp, #12]
 8000e04:	2302      	movs	r3, #2
 8000e06:	9305      	str	r3, [sp, #20]
 8000e08:	480d      	ldr	r0, [pc, #52]	; (8000e40 <MX_TIM2_Init+0x8c>)
 8000e0a:	2300      	movs	r3, #0
 8000e0c:	2208      	movs	r2, #8
 8000e0e:	a903      	add	r1, sp, #12
 8000e10:	9307      	str	r3, [sp, #28]
 8000e12:	f001 f9b7 	bl	8002184 <HAL_TIM_PWM_ConfigChannel>
 8000e16:	b108      	cbz	r0, 8000e1c <MX_TIM2_Init+0x68>
 8000e18:	f7ff fd9e 	bl	8000958 <Error_Handler>
 8000e1c:	220c      	movs	r2, #12
 8000e1e:	f44f 73a0 	mov.w	r3, #320	; 0x140
 8000e22:	4807      	ldr	r0, [pc, #28]	; (8000e40 <MX_TIM2_Init+0x8c>)
 8000e24:	9304      	str	r3, [sp, #16]
 8000e26:	eb0d 0102 	add.w	r1, sp, r2
 8000e2a:	f001 f9ab 	bl	8002184 <HAL_TIM_PWM_ConfigChannel>
 8000e2e:	b108      	cbz	r0, 8000e34 <MX_TIM2_Init+0x80>
 8000e30:	f7ff fd92 	bl	8000958 <Error_Handler>
 8000e34:	4802      	ldr	r0, [pc, #8]	; (8000e40 <MX_TIM2_Init+0x8c>)
 8000e36:	f7ff ff91 	bl	8000d5c <HAL_TIM_MspPostInit>
 8000e3a:	b00a      	add	sp, #40	; 0x28
 8000e3c:	bd10      	pop	{r4, pc}
 8000e3e:	bf00      	nop
 8000e40:	20012e60 	.word	0x20012e60

08000e44 <MX_USART2_UART_Init>:
 8000e44:	480b      	ldr	r0, [pc, #44]	; (8000e74 <MX_USART2_UART_Init+0x30>)
 8000e46:	4a0c      	ldr	r2, [pc, #48]	; (8000e78 <MX_USART2_UART_Init+0x34>)
 8000e48:	b508      	push	{r3, lr}
 8000e4a:	f44f 33e1 	mov.w	r3, #115200	; 0x1c200
 8000e4e:	e9c0 2300 	strd	r2, r3, [r0]
 8000e52:	2300      	movs	r3, #0
 8000e54:	220c      	movs	r2, #12
 8000e56:	e9c0 3302 	strd	r3, r3, [r0, #8]
 8000e5a:	e9c0 2305 	strd	r2, r3, [r0, #20]
 8000e5e:	6103      	str	r3, [r0, #16]
 8000e60:	61c3      	str	r3, [r0, #28]
 8000e62:	f001 fc57 	bl	8002714 <HAL_UART_Init>
 8000e66:	b118      	cbz	r0, 8000e70 <MX_USART2_UART_Init+0x2c>
 8000e68:	e8bd 4008 	ldmia.w	sp!, {r3, lr}
 8000e6c:	f7ff bd74 	b.w	8000958 <Error_Handler>
 8000e70:	bd08      	pop	{r3, pc}
 8000e72:	bf00      	nop
 8000e74:	20013028 	.word	0x20013028
 8000e78:	40004400 	.word	0x40004400

08000e7c <HAL_UART_MspInit>:
 8000e7c:	b570      	push	{r4, r5, r6, lr}
 8000e7e:	4606      	mov	r6, r0
 8000e80:	b088      	sub	sp, #32
 8000e82:	2214      	movs	r2, #20
 8000e84:	2100      	movs	r1, #0
 8000e86:	a803      	add	r0, sp, #12
 8000e88:	f001 ff52 	bl	8002d30 <memset>
 8000e8c:	6832      	ldr	r2, [r6, #0]
 8000e8e:	4b33      	ldr	r3, [pc, #204]	; (8000f5c <HAL_UART_MspInit+0xe0>)
 8000e90:	429a      	cmp	r2, r3
 8000e92:	d160      	bne.n	8000f56 <HAL_UART_MspInit+0xda>
 8000e94:	2500      	movs	r5, #0
 8000e96:	f503 33fa 	add.w	r3, r3, #128000	; 0x1f400
 8000e9a:	9501      	str	r5, [sp, #4]
 8000e9c:	6c1a      	ldr	r2, [r3, #64]	; 0x40
 8000e9e:	f442 3200 	orr.w	r2, r2, #131072	; 0x20000
 8000ea2:	641a      	str	r2, [r3, #64]	; 0x40
 8000ea4:	6c1a      	ldr	r2, [r3, #64]	; 0x40
 8000ea6:	f402 3200 	and.w	r2, r2, #131072	; 0x20000
 8000eaa:	9201      	str	r2, [sp, #4]
 8000eac:	9a01      	ldr	r2, [sp, #4]
 8000eae:	9502      	str	r5, [sp, #8]
 8000eb0:	6b1a      	ldr	r2, [r3, #48]	; 0x30
 8000eb2:	f042 0201 	orr.w	r2, r2, #1
 8000eb6:	631a      	str	r2, [r3, #48]	; 0x30
 8000eb8:	6b1b      	ldr	r3, [r3, #48]	; 0x30
 8000eba:	9505      	str	r5, [sp, #20]
 8000ebc:	f003 0301 	and.w	r3, r3, #1
 8000ec0:	9302      	str	r3, [sp, #8]
 8000ec2:	9b02      	ldr	r3, [sp, #8]
 8000ec4:	200c      	movs	r0, #12
 8000ec6:	2302      	movs	r3, #2
 8000ec8:	e9cd 0303 	strd	r0, r3, [sp, #12]
 8000ecc:	2403      	movs	r4, #3
 8000ece:	2307      	movs	r3, #7
 8000ed0:	4823      	ldr	r0, [pc, #140]	; (8000f60 <HAL_UART_MspInit+0xe4>)
 8000ed2:	a903      	add	r1, sp, #12
 8000ed4:	e9cd 4306 	strd	r4, r3, [sp, #24]
 8000ed8:	f000 fb7e 	bl	80015d8 <HAL_GPIO_Init>
 8000edc:	4c21      	ldr	r4, [pc, #132]	; (8000f64 <HAL_UART_MspInit+0xe8>)
 8000ede:	f8df c090 	ldr.w	ip, [pc, #144]	; 8000f70 <HAL_UART_MspInit+0xf4>
 8000ee2:	61a5      	str	r5, [r4, #24]
 8000ee4:	f04f 6300 	mov.w	r3, #134217728	; 0x8000000
 8000ee8:	e9c4 c300 	strd	ip, r3, [r4]
 8000eec:	f44f 6380 	mov.w	r3, #1024	; 0x400
 8000ef0:	e9c4 3504 	strd	r3, r5, [r4, #16]
 8000ef4:	4620      	mov	r0, r4
 8000ef6:	f44f 7380 	mov.w	r3, #256	; 0x100
 8000efa:	e9c4 5502 	strd	r5, r5, [r4, #8]
 8000efe:	e9c4 3507 	strd	r3, r5, [r4, #28]
 8000f02:	6265      	str	r5, [r4, #36]	; 0x24
 8000f04:	f000 f99a 	bl	800123c <HAL_DMA_Init>
 8000f08:	b108      	cbz	r0, 8000f0e <HAL_UART_MspInit+0x92>
 8000f0a:	f7ff fd25 	bl	8000958 <Error_Handler>
 8000f0e:	4a16      	ldr	r2, [pc, #88]	; (8000f68 <HAL_UART_MspInit+0xec>)
 8000f10:	63b4      	str	r4, [r6, #56]	; 0x38
 8000f12:	63a6      	str	r6, [r4, #56]	; 0x38
 8000f14:	4c15      	ldr	r4, [pc, #84]	; (8000f6c <HAL_UART_MspInit+0xf0>)
 8000f16:	f04f 6300 	mov.w	r3, #134217728	; 0x8000000
 8000f1a:	e9c4 2300 	strd	r2, r3, [r4]
 8000f1e:	2140      	movs	r1, #64	; 0x40
 8000f20:	2300      	movs	r3, #0
 8000f22:	f44f 6280 	mov.w	r2, #1024	; 0x400
 8000f26:	4620      	mov	r0, r4
 8000f28:	e9c4 1302 	strd	r1, r3, [r4, #8]
 8000f2c:	e9c4 2304 	strd	r2, r3, [r4, #16]
 8000f30:	e9c4 3306 	strd	r3, r3, [r4, #24]
 8000f34:	e9c4 3308 	strd	r3, r3, [r4, #32]
 8000f38:	f000 f980 	bl	800123c <HAL_DMA_Init>
 8000f3c:	b108      	cbz	r0, 8000f42 <HAL_UART_MspInit+0xc6>
 8000f3e:	f7ff fd0b 	bl	8000958 <Error_Handler>
 8000f42:	2200      	movs	r2, #0
 8000f44:	6374      	str	r4, [r6, #52]	; 0x34
 8000f46:	2026      	movs	r0, #38	; 0x26
 8000f48:	4611      	mov	r1, r2
 8000f4a:	63a6      	str	r6, [r4, #56]	; 0x38
 8000f4c:	f000 f90a 	bl	8001164 <HAL_NVIC_SetPriority>
 8000f50:	2026      	movs	r0, #38	; 0x26
 8000f52:	f000 f939 	bl	80011c8 <HAL_NVIC_EnableIRQ>
 8000f56:	b008      	add	sp, #32
 8000f58:	bd70      	pop	{r4, r5, r6, pc}
 8000f5a:	bf00      	nop
 8000f5c:	40004400 	.word	0x40004400
 8000f60:	40020000 	.word	0x40020000
 8000f64:	20012f28 	.word	0x20012f28
 8000f68:	400260a0 	.word	0x400260a0
 8000f6c:	20012f88 	.word	0x20012f88
 8000f70:	40026088 	.word	0x40026088

08000f74 <HAL_UART_RxCpltCallback>:
 8000f74:	b5f7      	push	{r0, r1, r2, r4, r5, r6, r7, lr}
 8000f76:	6803      	ldr	r3, [r0, #0]
 8000f78:	4a29      	ldr	r2, [pc, #164]	; (8001020 <HAL_UART_RxCpltCallback+0xac>)
 8000f7a:	681b      	ldr	r3, [r3, #0]
 8000f7c:	7811      	ldrb	r1, [r2, #0]
 8000f7e:	f013 0f10 	tst.w	r3, #16
 8000f82:	4615      	mov	r5, r2
 8000f84:	d049      	beq.n	800101a <HAL_UART_RxCpltCallback+0xa6>
 8000f86:	4b27      	ldr	r3, [pc, #156]	; (8001024 <HAL_UART_RxCpltCallback+0xb0>)
 8000f88:	4f27      	ldr	r7, [pc, #156]	; (8001028 <HAL_UART_RxCpltCallback+0xb4>)
 8000f8a:	681b      	ldr	r3, [r3, #0]
 8000f8c:	2400      	movs	r4, #0
 8000f8e:	9401      	str	r4, [sp, #4]
 8000f90:	681a      	ldr	r2, [r3, #0]
 8000f92:	9201      	str	r2, [sp, #4]
 8000f94:	685b      	ldr	r3, [r3, #4]
 8000f96:	9301      	str	r3, [sp, #4]
 8000f98:	9b01      	ldr	r3, [sp, #4]
 8000f9a:	4b24      	ldr	r3, [pc, #144]	; (800102c <HAL_UART_RxCpltCallback+0xb8>)
 8000f9c:	781a      	ldrb	r2, [r3, #0]
 8000f9e:	3201      	adds	r2, #1
 8000fa0:	701a      	strb	r2, [r3, #0]
 8000fa2:	6b83      	ldr	r3, [r0, #56]	; 0x38
 8000fa4:	4a22      	ldr	r2, [pc, #136]	; (8001030 <HAL_UART_RxCpltCallback+0xbc>)
 8000fa6:	681b      	ldr	r3, [r3, #0]
 8000fa8:	7816      	ldrb	r6, [r2, #0]
 8000faa:	685b      	ldr	r3, [r3, #4]
 8000fac:	703c      	strb	r4, [r7, #0]
 8000fae:	f1c3 0380 	rsb	r3, r3, #128	; 0x80
 8000fb2:	b2db      	uxtb	r3, r3
 8000fb4:	2901      	cmp	r1, #1
 8000fb6:	7013      	strb	r3, [r2, #0]
 8000fb8:	d824      	bhi.n	8001004 <HAL_UART_RxCpltCallback+0x90>
 8000fba:	b2b2      	uxth	r2, r6
 8000fbc:	b29c      	uxth	r4, r3
 8000fbe:	b1f9      	cbz	r1, 8001000 <HAL_UART_RxCpltCallback+0x8c>
 8000fc0:	429e      	cmp	r6, r3
 8000fc2:	d321      	bcc.n	8001008 <HAL_UART_RxCpltCallback+0x94>
 8000fc4:	f1c2 0280 	rsb	r2, r2, #128	; 0x80
 8000fc8:	4414      	add	r4, r2
 8000fca:	b2a4      	uxth	r4, r4
 8000fcc:	1e63      	subs	r3, r4, #1
 8000fce:	2b7f      	cmp	r3, #127	; 0x7f
 8000fd0:	d81c      	bhi.n	800100c <HAL_UART_RxCpltCallback+0x98>
 8000fd2:	4815      	ldr	r0, [pc, #84]	; (8001028 <HAL_UART_RxCpltCallback+0xb4>)
 8000fd4:	f7ff f906 	bl	80001e4 <strlen>
 8000fd8:	4916      	ldr	r1, [pc, #88]	; (8001034 <HAL_UART_RxCpltCallback+0xc0>)
 8000fda:	4438      	add	r0, r7
 8000fdc:	2300      	movs	r3, #0
 8000fde:	18f2      	adds	r2, r6, r3
 8000fe0:	f002 027f 	and.w	r2, r2, #127	; 0x7f
 8000fe4:	3301      	adds	r3, #1
 8000fe6:	5c52      	ldrb	r2, [r2, r1]
 8000fe8:	f800 2b01 	strb.w	r2, [r0], #1
 8000fec:	b29a      	uxth	r2, r3
 8000fee:	4294      	cmp	r4, r2
 8000ff0:	d8f5      	bhi.n	8000fde <HAL_UART_RxCpltCallback+0x6a>
 8000ff2:	480d      	ldr	r0, [pc, #52]	; (8001028 <HAL_UART_RxCpltCallback+0xb4>)
 8000ff4:	f7ff fad0 	bl	8000598 <FL_Parse>
 8000ff8:	2300      	movs	r3, #0
 8000ffa:	702b      	strb	r3, [r5, #0]
 8000ffc:	b003      	add	sp, #12
 8000ffe:	bdf0      	pop	{r4, r5, r6, r7, pc}
 8001000:	1aa4      	subs	r4, r4, r2
 8001002:	e7e2      	b.n	8000fca <HAL_UART_RxCpltCallback+0x56>
 8001004:	2482      	movs	r4, #130	; 0x82
 8001006:	e7e1      	b.n	8000fcc <HAL_UART_RxCpltCallback+0x58>
 8001008:	2481      	movs	r4, #129	; 0x81
 800100a:	e7df      	b.n	8000fcc <HAL_UART_RxCpltCallback+0x58>
 800100c:	490a      	ldr	r1, [pc, #40]	; (8001038 <HAL_UART_RxCpltCallback+0xc4>)
 800100e:	4806      	ldr	r0, [pc, #24]	; (8001028 <HAL_UART_RxCpltCallback+0xb4>)
 8001010:	f1a4 0280 	sub.w	r2, r4, #128	; 0x80
 8001014:	f001 fe94 	bl	8002d40 <siprintf>
 8001018:	e7eb      	b.n	8000ff2 <HAL_UART_RxCpltCallback+0x7e>
 800101a:	1c4b      	adds	r3, r1, #1
 800101c:	7013      	strb	r3, [r2, #0]
 800101e:	e7ed      	b.n	8000ffc <HAL_UART_RxCpltCallback+0x88>
 8001020:	200000b2 	.word	0x200000b2
 8001024:	20013028 	.word	0x20013028
 8001028:	20012fe8 	.word	0x20012fe8
 800102c:	200000b1 	.word	0x200000b1
 8001030:	200000b0 	.word	0x200000b0
 8001034:	20012ea8 	.word	0x20012ea8
 8001038:	08004332 	.word	0x08004332

0800103c <HAL_UART_TxCpltCallback>:
 800103c:	4a02      	ldr	r2, [pc, #8]	; (8001048 <HAL_UART_TxCpltCallback+0xc>)
 800103e:	7813      	ldrb	r3, [r2, #0]
 8001040:	3301      	adds	r3, #1
 8001042:	7013      	strb	r3, [r2, #0]
 8001044:	4770      	bx	lr
 8001046:	bf00      	nop
 8001048:	200000b3 	.word	0x200000b3

0800104c <Reset_Handler>:
 800104c:	f8df d034 	ldr.w	sp, [pc, #52]	; 8001084 <LoopFillZerobss+0x14>
 8001050:	2100      	movs	r1, #0
 8001052:	e003      	b.n	800105c <LoopCopyDataInit>

08001054 <CopyDataInit>:
 8001054:	4b0c      	ldr	r3, [pc, #48]	; (8001088 <LoopFillZerobss+0x18>)
 8001056:	585b      	ldr	r3, [r3, r1]
 8001058:	5043      	str	r3, [r0, r1]
 800105a:	3104      	adds	r1, #4

0800105c <LoopCopyDataInit>:
 800105c:	480b      	ldr	r0, [pc, #44]	; (800108c <LoopFillZerobss+0x1c>)
 800105e:	4b0c      	ldr	r3, [pc, #48]	; (8001090 <LoopFillZerobss+0x20>)
 8001060:	1842      	adds	r2, r0, r1
 8001062:	429a      	cmp	r2, r3
 8001064:	d3f6      	bcc.n	8001054 <CopyDataInit>
 8001066:	4a0b      	ldr	r2, [pc, #44]	; (8001094 <LoopFillZerobss+0x24>)
 8001068:	e002      	b.n	8001070 <LoopFillZerobss>

0800106a <FillZerobss>:
 800106a:	2300      	movs	r3, #0
 800106c:	f842 3b04 	str.w	r3, [r2], #4

08001070 <LoopFillZerobss>:
 8001070:	4b09      	ldr	r3, [pc, #36]	; (8001098 <LoopFillZerobss+0x28>)
 8001072:	429a      	cmp	r2, r3
 8001074:	d3f9      	bcc.n	800106a <FillZerobss>
 8001076:	f7ff fdd7 	bl	8000c28 <SystemInit>
 800107a:	f001 fe35 	bl	8002ce8 <__libc_init_array>
 800107e:	f7ff fc2b 	bl	80008d8 <main>
 8001082:	4770      	bx	lr
 8001084:	20020000 	.word	0x20020000
 8001088:	080045b8 	.word	0x080045b8
 800108c:	20000000 	.word	0x20000000
 8001090:	20000090 	.word	0x20000090
 8001094:	20000090 	.word	0x20000090
 8001098:	20013080 	.word	0x20013080

0800109c <ADC_IRQHandler>:
 800109c:	e7fe      	b.n	800109c <ADC_IRQHandler>
	...

080010a0 <HAL_InitTick>:
 80010a0:	b538      	push	{r3, r4, r5, lr}
 80010a2:	4a0e      	ldr	r2, [pc, #56]	; (80010dc <HAL_InitTick+0x3c>)
 80010a4:	4b0e      	ldr	r3, [pc, #56]	; (80010e0 <HAL_InitTick+0x40>)
 80010a6:	4605      	mov	r5, r0
 80010a8:	7818      	ldrb	r0, [r3, #0]
 80010aa:	f44f 737a 	mov.w	r3, #1000	; 0x3e8
 80010ae:	fbb3 f3f0 	udiv	r3, r3, r0
 80010b2:	6810      	ldr	r0, [r2, #0]
 80010b4:	fbb0 f0f3 	udiv	r0, r0, r3
 80010b8:	f000 f894 	bl	80011e4 <HAL_SYSTICK_Config>
 80010bc:	4604      	mov	r4, r0
 80010be:	b958      	cbnz	r0, 80010d8 <HAL_InitTick+0x38>
 80010c0:	2d0f      	cmp	r5, #15
 80010c2:	d809      	bhi.n	80010d8 <HAL_InitTick+0x38>
 80010c4:	4602      	mov	r2, r0
 80010c6:	4629      	mov	r1, r5
 80010c8:	f04f 30ff 	mov.w	r0, #4294967295
 80010cc:	f000 f84a 	bl	8001164 <HAL_NVIC_SetPriority>
 80010d0:	4b04      	ldr	r3, [pc, #16]	; (80010e4 <HAL_InitTick+0x44>)
 80010d2:	4620      	mov	r0, r4
 80010d4:	601d      	str	r5, [r3, #0]
 80010d6:	bd38      	pop	{r3, r4, r5, pc}
 80010d8:	2001      	movs	r0, #1
 80010da:	e7fc      	b.n	80010d6 <HAL_InitTick+0x36>
 80010dc:	20000020 	.word	0x20000020
 80010e0:	20000024 	.word	0x20000024
 80010e4:	20000028 	.word	0x20000028

080010e8 <HAL_Init>:
 80010e8:	b508      	push	{r3, lr}
 80010ea:	4b0b      	ldr	r3, [pc, #44]	; (8001118 <HAL_Init+0x30>)
 80010ec:	681a      	ldr	r2, [r3, #0]
 80010ee:	f442 7200 	orr.w	r2, r2, #512	; 0x200
 80010f2:	601a      	str	r2, [r3, #0]
 80010f4:	681a      	ldr	r2, [r3, #0]
 80010f6:	f442 6280 	orr.w	r2, r2, #1024	; 0x400
 80010fa:	601a      	str	r2, [r3, #0]
 80010fc:	681a      	ldr	r2, [r3, #0]
 80010fe:	f442 7280 	orr.w	r2, r2, #256	; 0x100
 8001102:	601a      	str	r2, [r3, #0]
 8001104:	2003      	movs	r0, #3
 8001106:	f000 f81b 	bl	8001140 <HAL_NVIC_SetPriorityGrouping>
 800110a:	2000      	movs	r0, #0
 800110c:	f7ff ffc8 	bl	80010a0 <HAL_InitTick>
 8001110:	f7ff fc8e 	bl	8000a30 <HAL_MspInit>
 8001114:	2000      	movs	r0, #0
 8001116:	bd08      	pop	{r3, pc}
 8001118:	40023c00 	.word	0x40023c00

0800111c <HAL_IncTick>:
 800111c:	4a03      	ldr	r2, [pc, #12]	; (800112c <HAL_IncTick+0x10>)
 800111e:	4b04      	ldr	r3, [pc, #16]	; (8001130 <HAL_IncTick+0x14>)
 8001120:	6811      	ldr	r1, [r2, #0]
 8001122:	781b      	ldrb	r3, [r3, #0]
 8001124:	440b      	add	r3, r1
 8001126:	6013      	str	r3, [r2, #0]
 8001128:	4770      	bx	lr
 800112a:	bf00      	nop
 800112c:	2001306c 	.word	0x2001306c
 8001130:	20000024 	.word	0x20000024

08001134 <HAL_GetTick>:
 8001134:	4b01      	ldr	r3, [pc, #4]	; (800113c <HAL_GetTick+0x8>)
 8001136:	6818      	ldr	r0, [r3, #0]
 8001138:	4770      	bx	lr
 800113a:	bf00      	nop
 800113c:	2001306c 	.word	0x2001306c

08001140 <HAL_NVIC_SetPriorityGrouping>:
 8001140:	4907      	ldr	r1, [pc, #28]	; (8001160 <HAL_NVIC_SetPriorityGrouping+0x20>)
 8001142:	68ca      	ldr	r2, [r1, #12]
 8001144:	f422 62e0 	bic.w	r2, r2, #1792	; 0x700
 8001148:	0203      	lsls	r3, r0, #8
 800114a:	0412      	lsls	r2, r2, #16
 800114c:	f403 63e0 	and.w	r3, r3, #1792	; 0x700
 8001150:	0c12      	lsrs	r2, r2, #16
 8001152:	4313      	orrs	r3, r2
 8001154:	f043 63bf 	orr.w	r3, r3, #100139008	; 0x5f80000
 8001158:	f443 3300 	orr.w	r3, r3, #131072	; 0x20000
 800115c:	60cb      	str	r3, [r1, #12]
 800115e:	4770      	bx	lr
 8001160:	e000ed00 	.word	0xe000ed00

08001164 <HAL_NVIC_SetPriority>:
 8001164:	4b16      	ldr	r3, [pc, #88]	; (80011c0 <HAL_NVIC_SetPriority+0x5c>)
 8001166:	b530      	push	{r4, r5, lr}
 8001168:	68dc      	ldr	r4, [r3, #12]
 800116a:	f3c4 2402 	ubfx	r4, r4, #8, #3
 800116e:	f1c4 0507 	rsb	r5, r4, #7
 8001172:	1d23      	adds	r3, r4, #4
 8001174:	2d04      	cmp	r5, #4
 8001176:	bf28      	it	cs
 8001178:	2504      	movcs	r5, #4
 800117a:	2b06      	cmp	r3, #6
 800117c:	f04f 33ff 	mov.w	r3, #4294967295
 8001180:	bf8c      	ite	hi
 8001182:	3c03      	subhi	r4, #3
 8001184:	2400      	movls	r4, #0
 8001186:	fa03 f505 	lsl.w	r5, r3, r5
 800118a:	ea21 0105 	bic.w	r1, r1, r5
 800118e:	40a3      	lsls	r3, r4
 8001190:	ea22 0203 	bic.w	r2, r2, r3
 8001194:	40a1      	lsls	r1, r4
 8001196:	2800      	cmp	r0, #0
 8001198:	ea41 0302 	orr.w	r3, r1, r2
 800119c:	bfac      	ite	ge
 800119e:	f100 4060 	addge.w	r0, r0, #3758096384	; 0xe0000000
 80011a2:	4a08      	ldrlt	r2, [pc, #32]	; (80011c4 <HAL_NVIC_SetPriority+0x60>)
 80011a4:	ea4f 1303 	mov.w	r3, r3, lsl #4
 80011a8:	bfb8      	it	lt
 80011aa:	f000 000f 	andlt.w	r0, r0, #15
 80011ae:	b2db      	uxtb	r3, r3
 80011b0:	bfaa      	itet	ge
 80011b2:	f500 4061 	addge.w	r0, r0, #57600	; 0xe100
 80011b6:	5413      	strblt	r3, [r2, r0]
 80011b8:	f880 3300 	strbge.w	r3, [r0, #768]	; 0x300
 80011bc:	bd30      	pop	{r4, r5, pc}
 80011be:	bf00      	nop
 80011c0:	e000ed00 	.word	0xe000ed00
 80011c4:	e000ed14 	.word	0xe000ed14

080011c8 <HAL_NVIC_EnableIRQ>:
 80011c8:	2800      	cmp	r0, #0
 80011ca:	db08      	blt.n	80011de <HAL_NVIC_EnableIRQ+0x16>
 80011cc:	0942      	lsrs	r2, r0, #5
 80011ce:	2301      	movs	r3, #1
 80011d0:	f000 001f 	and.w	r0, r0, #31
 80011d4:	fa03 f000 	lsl.w	r0, r3, r0
 80011d8:	4b01      	ldr	r3, [pc, #4]	; (80011e0 <HAL_NVIC_EnableIRQ+0x18>)
 80011da:	f843 0022 	str.w	r0, [r3, r2, lsl #2]
 80011de:	4770      	bx	lr
 80011e0:	e000e100 	.word	0xe000e100

080011e4 <HAL_SYSTICK_Config>:
 80011e4:	3801      	subs	r0, #1
 80011e6:	f1b0 7f80 	cmp.w	r0, #16777216	; 0x1000000
 80011ea:	d20a      	bcs.n	8001202 <HAL_SYSTICK_Config+0x1e>
 80011ec:	4b06      	ldr	r3, [pc, #24]	; (8001208 <HAL_SYSTICK_Config+0x24>)
 80011ee:	4a07      	ldr	r2, [pc, #28]	; (800120c <HAL_SYSTICK_Config+0x28>)
 80011f0:	6058      	str	r0, [r3, #4]
 80011f2:	21f0      	movs	r1, #240	; 0xf0
 80011f4:	f882 1023 	strb.w	r1, [r2, #35]	; 0x23
 80011f8:	2000      	movs	r0, #0
 80011fa:	2207      	movs	r2, #7
 80011fc:	6098      	str	r0, [r3, #8]
 80011fe:	601a      	str	r2, [r3, #0]
 8001200:	4770      	bx	lr
 8001202:	2001      	movs	r0, #1
 8001204:	4770      	bx	lr
 8001206:	bf00      	nop
 8001208:	e000e010 	.word	0xe000e010
 800120c:	e000ed00 	.word	0xe000ed00

08001210 <DMA_CalcBaseAndBitshift>:
 8001210:	6803      	ldr	r3, [r0, #0]
 8001212:	b510      	push	{r4, lr}
 8001214:	4c08      	ldr	r4, [pc, #32]	; (8001238 <DMA_CalcBaseAndBitshift+0x28>)
 8001216:	4602      	mov	r2, r0
 8001218:	b2d9      	uxtb	r1, r3
 800121a:	3910      	subs	r1, #16
 800121c:	2018      	movs	r0, #24
 800121e:	fbb1 f0f0 	udiv	r0, r1, r0
 8001222:	5c20      	ldrb	r0, [r4, r0]
 8001224:	65d0      	str	r0, [r2, #92]	; 0x5c
 8001226:	f423 707f 	bic.w	r0, r3, #1020	; 0x3fc
 800122a:	f020 0003 	bic.w	r0, r0, #3
 800122e:	295f      	cmp	r1, #95	; 0x5f
 8001230:	bf88      	it	hi
 8001232:	3004      	addhi	r0, #4
 8001234:	6590      	str	r0, [r2, #88]	; 0x58
 8001236:	bd10      	pop	{r4, pc}
 8001238:	08004354 	.word	0x08004354

0800123c <HAL_DMA_Init>:
 800123c:	b570      	push	{r4, r5, r6, lr}
 800123e:	4604      	mov	r4, r0
 8001240:	f7ff ff78 	bl	8001134 <HAL_GetTick>
 8001244:	4605      	mov	r5, r0
 8001246:	2c00      	cmp	r4, #0
 8001248:	d073      	beq.n	8001332 <HAL_DMA_Init+0xf6>
 800124a:	2300      	movs	r3, #0
 800124c:	f884 3034 	strb.w	r3, [r4, #52]	; 0x34
 8001250:	6822      	ldr	r2, [r4, #0]
 8001252:	2302      	movs	r3, #2
 8001254:	f884 3035 	strb.w	r3, [r4, #53]	; 0x35
 8001258:	6813      	ldr	r3, [r2, #0]
 800125a:	f023 0301 	bic.w	r3, r3, #1
 800125e:	6013      	str	r3, [r2, #0]
 8001260:	6821      	ldr	r1, [r4, #0]
 8001262:	680b      	ldr	r3, [r1, #0]
 8001264:	07d8      	lsls	r0, r3, #31
 8001266:	d42f      	bmi.n	80012c8 <HAL_DMA_Init+0x8c>
 8001268:	680b      	ldr	r3, [r1, #0]
 800126a:	4d33      	ldr	r5, [pc, #204]	; (8001338 <HAL_DMA_Init+0xfc>)
 800126c:	69a0      	ldr	r0, [r4, #24]
 800126e:	401d      	ands	r5, r3
 8001270:	e9d4 2301 	ldrd	r2, r3, [r4, #4]
 8001274:	4313      	orrs	r3, r2
 8001276:	68e2      	ldr	r2, [r4, #12]
 8001278:	4313      	orrs	r3, r2
 800127a:	6922      	ldr	r2, [r4, #16]
 800127c:	4313      	orrs	r3, r2
 800127e:	6962      	ldr	r2, [r4, #20]
 8001280:	4313      	orrs	r3, r2
 8001282:	69e2      	ldr	r2, [r4, #28]
 8001284:	4303      	orrs	r3, r0
 8001286:	4313      	orrs	r3, r2
 8001288:	6a22      	ldr	r2, [r4, #32]
 800128a:	4313      	orrs	r3, r2
 800128c:	6a62      	ldr	r2, [r4, #36]	; 0x24
 800128e:	2a04      	cmp	r2, #4
 8001290:	ea43 0305 	orr.w	r3, r3, r5
 8001294:	bf02      	ittt	eq
 8001296:	e9d4 560b 	ldrdeq	r5, r6, [r4, #44]	; 0x2c
 800129a:	4335      	orreq	r5, r6
 800129c:	432b      	orreq	r3, r5
 800129e:	600b      	str	r3, [r1, #0]
 80012a0:	694b      	ldr	r3, [r1, #20]
 80012a2:	2a04      	cmp	r2, #4
 80012a4:	f023 0307 	bic.w	r3, r3, #7
 80012a8:	ea43 0302 	orr.w	r3, r3, r2
 80012ac:	d133      	bne.n	8001316 <HAL_DMA_Init+0xda>
 80012ae:	6aa2      	ldr	r2, [r4, #40]	; 0x28
 80012b0:	6ae5      	ldr	r5, [r4, #44]	; 0x2c
 80012b2:	4313      	orrs	r3, r2
 80012b4:	b37d      	cbz	r5, 8001316 <HAL_DMA_Init+0xda>
 80012b6:	b990      	cbnz	r0, 80012de <HAL_DMA_Init+0xa2>
 80012b8:	2a01      	cmp	r2, #1
 80012ba:	d021      	beq.n	8001300 <HAL_DMA_Init+0xc4>
 80012bc:	f032 0202 	bics.w	r2, r2, #2
 80012c0:	d129      	bne.n	8001316 <HAL_DMA_Init+0xda>
 80012c2:	01ea      	lsls	r2, r5, #7
 80012c4:	d527      	bpl.n	8001316 <HAL_DMA_Init+0xda>
 80012c6:	e01e      	b.n	8001306 <HAL_DMA_Init+0xca>
 80012c8:	f7ff ff34 	bl	8001134 <HAL_GetTick>
 80012cc:	1b40      	subs	r0, r0, r5
 80012ce:	2805      	cmp	r0, #5
 80012d0:	d9c6      	bls.n	8001260 <HAL_DMA_Init+0x24>
 80012d2:	2320      	movs	r3, #32
 80012d4:	6563      	str	r3, [r4, #84]	; 0x54
 80012d6:	2003      	movs	r0, #3
 80012d8:	f884 0035 	strb.w	r0, [r4, #53]	; 0x35
 80012dc:	bd70      	pop	{r4, r5, r6, pc}
 80012de:	f5b0 5f00 	cmp.w	r0, #8192	; 0x2000
 80012e2:	d114      	bne.n	800130e <HAL_DMA_Init+0xd2>
 80012e4:	2a03      	cmp	r2, #3
 80012e6:	d816      	bhi.n	8001316 <HAL_DMA_Init+0xda>
 80012e8:	a001      	add	r0, pc, #4	; (adr r0, 80012f0 <HAL_DMA_Init+0xb4>)
 80012ea:	f850 f022 	ldr.w	pc, [r0, r2, lsl #2]
 80012ee:	bf00      	nop
 80012f0:	08001307 	.word	0x08001307
 80012f4:	080012c3 	.word	0x080012c3
 80012f8:	08001307 	.word	0x08001307
 80012fc:	08001301 	.word	0x08001301
 8001300:	f1b5 7fc0 	cmp.w	r5, #25165824	; 0x1800000
 8001304:	d107      	bne.n	8001316 <HAL_DMA_Init+0xda>
 8001306:	2340      	movs	r3, #64	; 0x40
 8001308:	6563      	str	r3, [r4, #84]	; 0x54
 800130a:	2001      	movs	r0, #1
 800130c:	e7e4      	b.n	80012d8 <HAL_DMA_Init+0x9c>
 800130e:	2a02      	cmp	r2, #2
 8001310:	d9f9      	bls.n	8001306 <HAL_DMA_Init+0xca>
 8001312:	2a03      	cmp	r2, #3
 8001314:	d0d5      	beq.n	80012c2 <HAL_DMA_Init+0x86>
 8001316:	614b      	str	r3, [r1, #20]
 8001318:	4620      	mov	r0, r4
 800131a:	f7ff ff79 	bl	8001210 <DMA_CalcBaseAndBitshift>
 800131e:	6de2      	ldr	r2, [r4, #92]	; 0x5c
 8001320:	233f      	movs	r3, #63	; 0x3f
 8001322:	4093      	lsls	r3, r2
 8001324:	6083      	str	r3, [r0, #8]
 8001326:	2000      	movs	r0, #0
 8001328:	2301      	movs	r3, #1
 800132a:	6560      	str	r0, [r4, #84]	; 0x54
 800132c:	f884 3035 	strb.w	r3, [r4, #53]	; 0x35
 8001330:	e7d4      	b.n	80012dc <HAL_DMA_Init+0xa0>
 8001332:	2001      	movs	r0, #1
 8001334:	e7d2      	b.n	80012dc <HAL_DMA_Init+0xa0>
 8001336:	bf00      	nop
 8001338:	f010803f 	.word	0xf010803f

0800133c <HAL_DMA_Start_IT>:
 800133c:	b570      	push	{r4, r5, r6, lr}
 800133e:	f890 4034 	ldrb.w	r4, [r0, #52]	; 0x34
 8001342:	6d86      	ldr	r6, [r0, #88]	; 0x58
 8001344:	2c01      	cmp	r4, #1
 8001346:	d031      	beq.n	80013ac <HAL_DMA_Start_IT+0x70>
 8001348:	2401      	movs	r4, #1
 800134a:	f880 4034 	strb.w	r4, [r0, #52]	; 0x34
 800134e:	f890 4035 	ldrb.w	r4, [r0, #53]	; 0x35
 8001352:	2c01      	cmp	r4, #1
 8001354:	f04f 0500 	mov.w	r5, #0
 8001358:	f04f 0402 	mov.w	r4, #2
 800135c:	d124      	bne.n	80013a8 <HAL_DMA_Start_IT+0x6c>
 800135e:	f880 4035 	strb.w	r4, [r0, #53]	; 0x35
 8001362:	6804      	ldr	r4, [r0, #0]
 8001364:	6545      	str	r5, [r0, #84]	; 0x54
 8001366:	6825      	ldr	r5, [r4, #0]
 8001368:	f425 2580 	bic.w	r5, r5, #262144	; 0x40000
 800136c:	6025      	str	r5, [r4, #0]
 800136e:	6063      	str	r3, [r4, #4]
 8001370:	6883      	ldr	r3, [r0, #8]
 8001372:	2b40      	cmp	r3, #64	; 0x40
 8001374:	bf0e      	itee	eq
 8001376:	60a2      	streq	r2, [r4, #8]
 8001378:	60a1      	strne	r1, [r4, #8]
 800137a:	60e2      	strne	r2, [r4, #12]
 800137c:	6dc2      	ldr	r2, [r0, #92]	; 0x5c
 800137e:	bf08      	it	eq
 8001380:	60e1      	streq	r1, [r4, #12]
 8001382:	233f      	movs	r3, #63	; 0x3f
 8001384:	4093      	lsls	r3, r2
 8001386:	60b3      	str	r3, [r6, #8]
 8001388:	6823      	ldr	r3, [r4, #0]
 800138a:	f043 0316 	orr.w	r3, r3, #22
 800138e:	6023      	str	r3, [r4, #0]
 8001390:	6c03      	ldr	r3, [r0, #64]	; 0x40
 8001392:	b11b      	cbz	r3, 800139c <HAL_DMA_Start_IT+0x60>
 8001394:	6823      	ldr	r3, [r4, #0]
 8001396:	f043 0308 	orr.w	r3, r3, #8
 800139a:	6023      	str	r3, [r4, #0]
 800139c:	6823      	ldr	r3, [r4, #0]
 800139e:	f043 0301 	orr.w	r3, r3, #1
 80013a2:	6023      	str	r3, [r4, #0]
 80013a4:	2000      	movs	r0, #0
 80013a6:	bd70      	pop	{r4, r5, r6, pc}
 80013a8:	f880 5034 	strb.w	r5, [r0, #52]	; 0x34
 80013ac:	2002      	movs	r0, #2
 80013ae:	e7fa      	b.n	80013a6 <HAL_DMA_Start_IT+0x6a>

080013b0 <HAL_DMA_Abort>:
 80013b0:	b570      	push	{r4, r5, r6, lr}
 80013b2:	4604      	mov	r4, r0
 80013b4:	6d86      	ldr	r6, [r0, #88]	; 0x58
 80013b6:	f7ff febd 	bl	8001134 <HAL_GetTick>
 80013ba:	f894 3035 	ldrb.w	r3, [r4, #53]	; 0x35
 80013be:	2b02      	cmp	r3, #2
 80013c0:	4605      	mov	r5, r0
 80013c2:	d006      	beq.n	80013d2 <HAL_DMA_Abort+0x22>
 80013c4:	2380      	movs	r3, #128	; 0x80
 80013c6:	6563      	str	r3, [r4, #84]	; 0x54
 80013c8:	2300      	movs	r3, #0
 80013ca:	f884 3034 	strb.w	r3, [r4, #52]	; 0x34
 80013ce:	2001      	movs	r0, #1
 80013d0:	bd70      	pop	{r4, r5, r6, pc}
 80013d2:	6823      	ldr	r3, [r4, #0]
 80013d4:	681a      	ldr	r2, [r3, #0]
 80013d6:	f022 0216 	bic.w	r2, r2, #22
 80013da:	601a      	str	r2, [r3, #0]
 80013dc:	695a      	ldr	r2, [r3, #20]
 80013de:	f022 0280 	bic.w	r2, r2, #128	; 0x80
 80013e2:	615a      	str	r2, [r3, #20]
 80013e4:	6c22      	ldr	r2, [r4, #64]	; 0x40
 80013e6:	b90a      	cbnz	r2, 80013ec <HAL_DMA_Abort+0x3c>
 80013e8:	6ca2      	ldr	r2, [r4, #72]	; 0x48
 80013ea:	b11a      	cbz	r2, 80013f4 <HAL_DMA_Abort+0x44>
 80013ec:	681a      	ldr	r2, [r3, #0]
 80013ee:	f022 0208 	bic.w	r2, r2, #8
 80013f2:	601a      	str	r2, [r3, #0]
 80013f4:	681a      	ldr	r2, [r3, #0]
 80013f6:	f022 0201 	bic.w	r2, r2, #1
 80013fa:	601a      	str	r2, [r3, #0]
 80013fc:	6823      	ldr	r3, [r4, #0]
 80013fe:	681b      	ldr	r3, [r3, #0]
 8001400:	f013 0301 	ands.w	r3, r3, #1
 8001404:	d10a      	bne.n	800141c <HAL_DMA_Abort+0x6c>
 8001406:	6de1      	ldr	r1, [r4, #92]	; 0x5c
 8001408:	223f      	movs	r2, #63	; 0x3f
 800140a:	408a      	lsls	r2, r1
 800140c:	60b2      	str	r2, [r6, #8]
 800140e:	2201      	movs	r2, #1
 8001410:	f884 3034 	strb.w	r3, [r4, #52]	; 0x34
 8001414:	f884 2035 	strb.w	r2, [r4, #53]	; 0x35
 8001418:	4618      	mov	r0, r3
 800141a:	e7d9      	b.n	80013d0 <HAL_DMA_Abort+0x20>
 800141c:	f7ff fe8a 	bl	8001134 <HAL_GetTick>
 8001420:	1b40      	subs	r0, r0, r5
 8001422:	2805      	cmp	r0, #5
 8001424:	d9ea      	bls.n	80013fc <HAL_DMA_Abort+0x4c>
 8001426:	2320      	movs	r3, #32
 8001428:	6563      	str	r3, [r4, #84]	; 0x54
 800142a:	2003      	movs	r0, #3
 800142c:	2300      	movs	r3, #0
 800142e:	f884 3034 	strb.w	r3, [r4, #52]	; 0x34
 8001432:	f884 0035 	strb.w	r0, [r4, #53]	; 0x35
 8001436:	e7cb      	b.n	80013d0 <HAL_DMA_Abort+0x20>

08001438 <HAL_DMA_Abort_IT>:
 8001438:	f890 3035 	ldrb.w	r3, [r0, #53]	; 0x35
 800143c:	2b02      	cmp	r3, #2
 800143e:	d003      	beq.n	8001448 <HAL_DMA_Abort_IT+0x10>
 8001440:	2380      	movs	r3, #128	; 0x80
 8001442:	6543      	str	r3, [r0, #84]	; 0x54
 8001444:	2001      	movs	r0, #1
 8001446:	4770      	bx	lr
 8001448:	6802      	ldr	r2, [r0, #0]
 800144a:	2305      	movs	r3, #5
 800144c:	f880 3035 	strb.w	r3, [r0, #53]	; 0x35
 8001450:	6813      	ldr	r3, [r2, #0]
 8001452:	f023 0301 	bic.w	r3, r3, #1
 8001456:	6013      	str	r3, [r2, #0]
 8001458:	2000      	movs	r0, #0
 800145a:	4770      	bx	lr

0800145c <HAL_DMA_IRQHandler>:
 800145c:	b5f7      	push	{r0, r1, r2, r4, r5, r6, r7, lr}
 800145e:	2300      	movs	r3, #0
 8001460:	9301      	str	r3, [sp, #4]
 8001462:	4b5c      	ldr	r3, [pc, #368]	; (80015d4 <HAL_DMA_IRQHandler+0x178>)
 8001464:	6d85      	ldr	r5, [r0, #88]	; 0x58
 8001466:	681f      	ldr	r7, [r3, #0]
 8001468:	6dc3      	ldr	r3, [r0, #92]	; 0x5c
 800146a:	682e      	ldr	r6, [r5, #0]
 800146c:	2208      	movs	r2, #8
 800146e:	409a      	lsls	r2, r3
 8001470:	4232      	tst	r2, r6
 8001472:	4604      	mov	r4, r0
 8001474:	d00c      	beq.n	8001490 <HAL_DMA_IRQHandler+0x34>
 8001476:	6801      	ldr	r1, [r0, #0]
 8001478:	6808      	ldr	r0, [r1, #0]
 800147a:	0740      	lsls	r0, r0, #29
 800147c:	d508      	bpl.n	8001490 <HAL_DMA_IRQHandler+0x34>
 800147e:	6808      	ldr	r0, [r1, #0]
 8001480:	f020 0004 	bic.w	r0, r0, #4
 8001484:	6008      	str	r0, [r1, #0]
 8001486:	60aa      	str	r2, [r5, #8]
 8001488:	6d62      	ldr	r2, [r4, #84]	; 0x54
 800148a:	f042 0201 	orr.w	r2, r2, #1
 800148e:	6562      	str	r2, [r4, #84]	; 0x54
 8001490:	2201      	movs	r2, #1
 8001492:	409a      	lsls	r2, r3
 8001494:	4232      	tst	r2, r6
 8001496:	d008      	beq.n	80014aa <HAL_DMA_IRQHandler+0x4e>
 8001498:	6821      	ldr	r1, [r4, #0]
 800149a:	6949      	ldr	r1, [r1, #20]
 800149c:	0609      	lsls	r1, r1, #24
 800149e:	bf41      	itttt	mi
 80014a0:	60aa      	strmi	r2, [r5, #8]
 80014a2:	6d62      	ldrmi	r2, [r4, #84]	; 0x54
 80014a4:	f042 0202 	orrmi.w	r2, r2, #2
 80014a8:	6562      	strmi	r2, [r4, #84]	; 0x54
 80014aa:	2204      	movs	r2, #4
 80014ac:	409a      	lsls	r2, r3
 80014ae:	4232      	tst	r2, r6
 80014b0:	d008      	beq.n	80014c4 <HAL_DMA_IRQHandler+0x68>
 80014b2:	6821      	ldr	r1, [r4, #0]
 80014b4:	6809      	ldr	r1, [r1, #0]
 80014b6:	0788      	lsls	r0, r1, #30
 80014b8:	bf41      	itttt	mi
 80014ba:	60aa      	strmi	r2, [r5, #8]
 80014bc:	6d62      	ldrmi	r2, [r4, #84]	; 0x54
 80014be:	f042 0204 	orrmi.w	r2, r2, #4
 80014c2:	6562      	strmi	r2, [r4, #84]	; 0x54
 80014c4:	2210      	movs	r2, #16
 80014c6:	409a      	lsls	r2, r3
 80014c8:	4232      	tst	r2, r6
 80014ca:	d010      	beq.n	80014ee <HAL_DMA_IRQHandler+0x92>
 80014cc:	6823      	ldr	r3, [r4, #0]
 80014ce:	6819      	ldr	r1, [r3, #0]
 80014d0:	0709      	lsls	r1, r1, #28
 80014d2:	d50c      	bpl.n	80014ee <HAL_DMA_IRQHandler+0x92>
 80014d4:	60aa      	str	r2, [r5, #8]
 80014d6:	681a      	ldr	r2, [r3, #0]
 80014d8:	0350      	lsls	r0, r2, #13
 80014da:	d537      	bpl.n	800154c <HAL_DMA_IRQHandler+0xf0>
 80014dc:	681b      	ldr	r3, [r3, #0]
 80014de:	0319      	lsls	r1, r3, #12
 80014e0:	d401      	bmi.n	80014e6 <HAL_DMA_IRQHandler+0x8a>
 80014e2:	6c23      	ldr	r3, [r4, #64]	; 0x40
 80014e4:	e000      	b.n	80014e8 <HAL_DMA_IRQHandler+0x8c>
 80014e6:	6ca3      	ldr	r3, [r4, #72]	; 0x48
 80014e8:	b10b      	cbz	r3, 80014ee <HAL_DMA_IRQHandler+0x92>
 80014ea:	4620      	mov	r0, r4
 80014ec:	4798      	blx	r3
 80014ee:	6de1      	ldr	r1, [r4, #92]	; 0x5c
 80014f0:	2220      	movs	r2, #32
 80014f2:	408a      	lsls	r2, r1
 80014f4:	4232      	tst	r2, r6
 80014f6:	d03a      	beq.n	800156e <HAL_DMA_IRQHandler+0x112>
 80014f8:	6823      	ldr	r3, [r4, #0]
 80014fa:	6818      	ldr	r0, [r3, #0]
 80014fc:	06c6      	lsls	r6, r0, #27
 80014fe:	d536      	bpl.n	800156e <HAL_DMA_IRQHandler+0x112>
 8001500:	60aa      	str	r2, [r5, #8]
 8001502:	f894 2035 	ldrb.w	r2, [r4, #53]	; 0x35
 8001506:	2a05      	cmp	r2, #5
 8001508:	681a      	ldr	r2, [r3, #0]
 800150a:	d127      	bne.n	800155c <HAL_DMA_IRQHandler+0x100>
 800150c:	f022 0216 	bic.w	r2, r2, #22
 8001510:	601a      	str	r2, [r3, #0]
 8001512:	695a      	ldr	r2, [r3, #20]
 8001514:	f022 0280 	bic.w	r2, r2, #128	; 0x80
 8001518:	615a      	str	r2, [r3, #20]
 800151a:	6c22      	ldr	r2, [r4, #64]	; 0x40
 800151c:	b90a      	cbnz	r2, 8001522 <HAL_DMA_IRQHandler+0xc6>
 800151e:	6ca2      	ldr	r2, [r4, #72]	; 0x48
 8001520:	b11a      	cbz	r2, 800152a <HAL_DMA_IRQHandler+0xce>
 8001522:	681a      	ldr	r2, [r3, #0]
 8001524:	f022 0208 	bic.w	r2, r2, #8
 8001528:	601a      	str	r2, [r3, #0]
 800152a:	233f      	movs	r3, #63	; 0x3f
 800152c:	408b      	lsls	r3, r1
 800152e:	60ab      	str	r3, [r5, #8]
 8001530:	2300      	movs	r3, #0
 8001532:	f884 3034 	strb.w	r3, [r4, #52]	; 0x34
 8001536:	2301      	movs	r3, #1
 8001538:	f884 3035 	strb.w	r3, [r4, #53]	; 0x35
 800153c:	6d23      	ldr	r3, [r4, #80]	; 0x50
 800153e:	2b00      	cmp	r3, #0
 8001540:	d045      	beq.n	80015ce <HAL_DMA_IRQHandler+0x172>
 8001542:	4620      	mov	r0, r4
 8001544:	b003      	add	sp, #12
 8001546:	e8bd 40f0 	ldmia.w	sp!, {r4, r5, r6, r7, lr}
 800154a:	4718      	bx	r3
 800154c:	681a      	ldr	r2, [r3, #0]
 800154e:	05d2      	lsls	r2, r2, #23
 8001550:	bf5e      	ittt	pl
 8001552:	681a      	ldrpl	r2, [r3, #0]
 8001554:	f022 0208 	bicpl.w	r2, r2, #8
 8001558:	601a      	strpl	r2, [r3, #0]
 800155a:	e7c2      	b.n	80014e2 <HAL_DMA_IRQHandler+0x86>
 800155c:	0350      	lsls	r0, r2, #13
 800155e:	d527      	bpl.n	80015b0 <HAL_DMA_IRQHandler+0x154>
 8001560:	681b      	ldr	r3, [r3, #0]
 8001562:	0319      	lsls	r1, r3, #12
 8001564:	d431      	bmi.n	80015ca <HAL_DMA_IRQHandler+0x16e>
 8001566:	6c63      	ldr	r3, [r4, #68]	; 0x44
 8001568:	b10b      	cbz	r3, 800156e <HAL_DMA_IRQHandler+0x112>
 800156a:	4620      	mov	r0, r4
 800156c:	4798      	blx	r3
 800156e:	6d63      	ldr	r3, [r4, #84]	; 0x54
 8001570:	b36b      	cbz	r3, 80015ce <HAL_DMA_IRQHandler+0x172>
 8001572:	6d63      	ldr	r3, [r4, #84]	; 0x54
 8001574:	07da      	lsls	r2, r3, #31
 8001576:	d519      	bpl.n	80015ac <HAL_DMA_IRQHandler+0x150>
 8001578:	6822      	ldr	r2, [r4, #0]
 800157a:	f44f 5316 	mov.w	r3, #9600	; 0x2580
 800157e:	fbb7 f7f3 	udiv	r7, r7, r3
 8001582:	2305      	movs	r3, #5
 8001584:	f884 3035 	strb.w	r3, [r4, #53]	; 0x35
 8001588:	6813      	ldr	r3, [r2, #0]
 800158a:	f023 0301 	bic.w	r3, r3, #1
 800158e:	6013      	str	r3, [r2, #0]
 8001590:	9b01      	ldr	r3, [sp, #4]
 8001592:	3301      	adds	r3, #1
 8001594:	42bb      	cmp	r3, r7
 8001596:	9301      	str	r3, [sp, #4]
 8001598:	d802      	bhi.n	80015a0 <HAL_DMA_IRQHandler+0x144>
 800159a:	6813      	ldr	r3, [r2, #0]
 800159c:	07db      	lsls	r3, r3, #31
 800159e:	d4f7      	bmi.n	8001590 <HAL_DMA_IRQHandler+0x134>
 80015a0:	2300      	movs	r3, #0
 80015a2:	f884 3034 	strb.w	r3, [r4, #52]	; 0x34
 80015a6:	2301      	movs	r3, #1
 80015a8:	f884 3035 	strb.w	r3, [r4, #53]	; 0x35
 80015ac:	6ce3      	ldr	r3, [r4, #76]	; 0x4c
 80015ae:	e7c6      	b.n	800153e <HAL_DMA_IRQHandler+0xe2>
 80015b0:	681a      	ldr	r2, [r3, #0]
 80015b2:	f412 7280 	ands.w	r2, r2, #256	; 0x100
 80015b6:	d108      	bne.n	80015ca <HAL_DMA_IRQHandler+0x16e>
 80015b8:	6819      	ldr	r1, [r3, #0]
 80015ba:	f021 0110 	bic.w	r1, r1, #16
 80015be:	6019      	str	r1, [r3, #0]
 80015c0:	2301      	movs	r3, #1
 80015c2:	f884 2034 	strb.w	r2, [r4, #52]	; 0x34
 80015c6:	f884 3035 	strb.w	r3, [r4, #53]	; 0x35
 80015ca:	6be3      	ldr	r3, [r4, #60]	; 0x3c
 80015cc:	e7cc      	b.n	8001568 <HAL_DMA_IRQHandler+0x10c>
 80015ce:	b003      	add	sp, #12
 80015d0:	bdf0      	pop	{r4, r5, r6, r7, pc}
 80015d2:	bf00      	nop
 80015d4:	20000020 	.word	0x20000020

080015d8 <HAL_GPIO_Init>:
 80015d8:	e92d 4ff7 	stmdb	sp!, {r0, r1, r2, r4, r5, r6, r7, r8, r9, sl, fp, lr}
 80015dc:	f8df 91a8 	ldr.w	r9, [pc, #424]	; 8001788 <HAL_GPIO_Init+0x1b0>
 80015e0:	4a67      	ldr	r2, [pc, #412]	; (8001780 <HAL_GPIO_Init+0x1a8>)
 80015e2:	2300      	movs	r3, #0
 80015e4:	680d      	ldr	r5, [r1, #0]
 80015e6:	2401      	movs	r4, #1
 80015e8:	409c      	lsls	r4, r3
 80015ea:	ea04 0c05 	and.w	ip, r4, r5
 80015ee:	43ac      	bics	r4, r5
 80015f0:	f040 80b0 	bne.w	8001754 <HAL_GPIO_Init+0x17c>
 80015f4:	684d      	ldr	r5, [r1, #4]
 80015f6:	f005 0403 	and.w	r4, r5, #3
 80015fa:	ea4f 0843 	mov.w	r8, r3, lsl #1
 80015fe:	2603      	movs	r6, #3
 8001600:	1e67      	subs	r7, r4, #1
 8001602:	fa06 f608 	lsl.w	r6, r6, r8
 8001606:	2f01      	cmp	r7, #1
 8001608:	ea6f 0606 	mvn.w	r6, r6
 800160c:	d834      	bhi.n	8001678 <HAL_GPIO_Init+0xa0>
 800160e:	6887      	ldr	r7, [r0, #8]
 8001610:	ea07 0e06 	and.w	lr, r7, r6
 8001614:	68cf      	ldr	r7, [r1, #12]
 8001616:	fa07 f708 	lsl.w	r7, r7, r8
 800161a:	ea47 070e 	orr.w	r7, r7, lr
 800161e:	6087      	str	r7, [r0, #8]
 8001620:	6847      	ldr	r7, [r0, #4]
 8001622:	ea27 0e0c 	bic.w	lr, r7, ip
 8001626:	f3c5 1700 	ubfx	r7, r5, #4, #1
 800162a:	409f      	lsls	r7, r3
 800162c:	ea47 070e 	orr.w	r7, r7, lr
 8001630:	6047      	str	r7, [r0, #4]
 8001632:	68c7      	ldr	r7, [r0, #12]
 8001634:	ea07 0e06 	and.w	lr, r7, r6
 8001638:	688f      	ldr	r7, [r1, #8]
 800163a:	fa07 f708 	lsl.w	r7, r7, r8
 800163e:	ea47 070e 	orr.w	r7, r7, lr
 8001642:	2c02      	cmp	r4, #2
 8001644:	60c7      	str	r7, [r0, #12]
 8001646:	d119      	bne.n	800167c <HAL_GPIO_Init+0xa4>
 8001648:	ea4f 0ad3 	mov.w	sl, r3, lsr #3
 800164c:	eb00 0a8a 	add.w	sl, r0, sl, lsl #2
 8001650:	f003 0b07 	and.w	fp, r3, #7
 8001654:	f8da 7020 	ldr.w	r7, [sl, #32]
 8001658:	ea4f 0b8b 	mov.w	fp, fp, lsl #2
 800165c:	f04f 0e0f 	mov.w	lr, #15
 8001660:	fa0e fe0b 	lsl.w	lr, lr, fp
 8001664:	ea27 0e0e 	bic.w	lr, r7, lr
 8001668:	690f      	ldr	r7, [r1, #16]
 800166a:	fa07 f70b 	lsl.w	r7, r7, fp
 800166e:	ea47 070e 	orr.w	r7, r7, lr
 8001672:	f8ca 7020 	str.w	r7, [sl, #32]
 8001676:	e001      	b.n	800167c <HAL_GPIO_Init+0xa4>
 8001678:	2c03      	cmp	r4, #3
 800167a:	d1da      	bne.n	8001632 <HAL_GPIO_Init+0x5a>
 800167c:	6807      	ldr	r7, [r0, #0]
 800167e:	fa04 f408 	lsl.w	r4, r4, r8
 8001682:	403e      	ands	r6, r7
 8001684:	4326      	orrs	r6, r4
 8001686:	00ec      	lsls	r4, r5, #3
 8001688:	6006      	str	r6, [r0, #0]
 800168a:	d563      	bpl.n	8001754 <HAL_GPIO_Init+0x17c>
 800168c:	f04f 0a00 	mov.w	sl, #0
 8001690:	f8cd a004 	str.w	sl, [sp, #4]
 8001694:	f8d9 6044 	ldr.w	r6, [r9, #68]	; 0x44
 8001698:	4c3a      	ldr	r4, [pc, #232]	; (8001784 <HAL_GPIO_Init+0x1ac>)
 800169a:	f446 4680 	orr.w	r6, r6, #16384	; 0x4000
 800169e:	f8c9 6044 	str.w	r6, [r9, #68]	; 0x44
 80016a2:	f8d9 6044 	ldr.w	r6, [r9, #68]	; 0x44
 80016a6:	f406 4680 	and.w	r6, r6, #16384	; 0x4000
 80016aa:	9601      	str	r6, [sp, #4]
 80016ac:	9e01      	ldr	r6, [sp, #4]
 80016ae:	f023 0603 	bic.w	r6, r3, #3
 80016b2:	f106 4680 	add.w	r6, r6, #1073741824	; 0x40000000
 80016b6:	f506 369c 	add.w	r6, r6, #79872	; 0x13800
 80016ba:	f003 0e03 	and.w	lr, r3, #3
 80016be:	f8d6 8008 	ldr.w	r8, [r6, #8]
 80016c2:	ea4f 0e8e 	mov.w	lr, lr, lsl #2
 80016c6:	270f      	movs	r7, #15
 80016c8:	fa07 f70e 	lsl.w	r7, r7, lr
 80016cc:	42a0      	cmp	r0, r4
 80016ce:	ea28 0707 	bic.w	r7, r8, r7
 80016d2:	d046      	beq.n	8001762 <HAL_GPIO_Init+0x18a>
 80016d4:	f504 6480 	add.w	r4, r4, #1024	; 0x400
 80016d8:	42a0      	cmp	r0, r4
 80016da:	d044      	beq.n	8001766 <HAL_GPIO_Init+0x18e>
 80016dc:	f504 6480 	add.w	r4, r4, #1024	; 0x400
 80016e0:	42a0      	cmp	r0, r4
 80016e2:	d042      	beq.n	800176a <HAL_GPIO_Init+0x192>
 80016e4:	f504 6480 	add.w	r4, r4, #1024	; 0x400
 80016e8:	42a0      	cmp	r0, r4
 80016ea:	d040      	beq.n	800176e <HAL_GPIO_Init+0x196>
 80016ec:	f504 6480 	add.w	r4, r4, #1024	; 0x400
 80016f0:	42a0      	cmp	r0, r4
 80016f2:	d03e      	beq.n	8001772 <HAL_GPIO_Init+0x19a>
 80016f4:	f504 6480 	add.w	r4, r4, #1024	; 0x400
 80016f8:	42a0      	cmp	r0, r4
 80016fa:	d03c      	beq.n	8001776 <HAL_GPIO_Init+0x19e>
 80016fc:	f504 6480 	add.w	r4, r4, #1024	; 0x400
 8001700:	42a0      	cmp	r0, r4
 8001702:	d03a      	beq.n	800177a <HAL_GPIO_Init+0x1a2>
 8001704:	f504 6480 	add.w	r4, r4, #1024	; 0x400
 8001708:	42a0      	cmp	r0, r4
 800170a:	bf0c      	ite	eq
 800170c:	2407      	moveq	r4, #7
 800170e:	2408      	movne	r4, #8
 8001710:	fa04 f40e 	lsl.w	r4, r4, lr
 8001714:	433c      	orrs	r4, r7
 8001716:	60b4      	str	r4, [r6, #8]
 8001718:	6814      	ldr	r4, [r2, #0]
 800171a:	ea6f 060c 	mvn.w	r6, ip
 800171e:	03ef      	lsls	r7, r5, #15
 8001720:	bf54      	ite	pl
 8001722:	4034      	andpl	r4, r6
 8001724:	ea4c 0404 	orrmi.w	r4, ip, r4
 8001728:	6014      	str	r4, [r2, #0]
 800172a:	6854      	ldr	r4, [r2, #4]
 800172c:	03af      	lsls	r7, r5, #14
 800172e:	bf54      	ite	pl
 8001730:	4034      	andpl	r4, r6
 8001732:	ea4c 0404 	orrmi.w	r4, ip, r4
 8001736:	6054      	str	r4, [r2, #4]
 8001738:	6894      	ldr	r4, [r2, #8]
 800173a:	02ef      	lsls	r7, r5, #11
 800173c:	bf54      	ite	pl
 800173e:	4034      	andpl	r4, r6
 8001740:	ea4c 0404 	orrmi.w	r4, ip, r4
 8001744:	6094      	str	r4, [r2, #8]
 8001746:	68d4      	ldr	r4, [r2, #12]
 8001748:	02ad      	lsls	r5, r5, #10
 800174a:	bf54      	ite	pl
 800174c:	4034      	andpl	r4, r6
 800174e:	ea4c 0404 	orrmi.w	r4, ip, r4
 8001752:	60d4      	str	r4, [r2, #12]
 8001754:	3301      	adds	r3, #1
 8001756:	2b10      	cmp	r3, #16
 8001758:	f47f af44 	bne.w	80015e4 <HAL_GPIO_Init+0xc>
 800175c:	b003      	add	sp, #12
 800175e:	e8bd 8ff0 	ldmia.w	sp!, {r4, r5, r6, r7, r8, r9, sl, fp, pc}
 8001762:	4654      	mov	r4, sl
 8001764:	e7d4      	b.n	8001710 <HAL_GPIO_Init+0x138>
 8001766:	2401      	movs	r4, #1
 8001768:	e7d2      	b.n	8001710 <HAL_GPIO_Init+0x138>
 800176a:	2402      	movs	r4, #2
 800176c:	e7d0      	b.n	8001710 <HAL_GPIO_Init+0x138>
 800176e:	2403      	movs	r4, #3
 8001770:	e7ce      	b.n	8001710 <HAL_GPIO_Init+0x138>
 8001772:	2404      	movs	r4, #4
 8001774:	e7cc      	b.n	8001710 <HAL_GPIO_Init+0x138>
 8001776:	2405      	movs	r4, #5
 8001778:	e7ca      	b.n	8001710 <HAL_GPIO_Init+0x138>
 800177a:	2406      	movs	r4, #6
 800177c:	e7c8      	b.n	8001710 <HAL_GPIO_Init+0x138>
 800177e:	bf00      	nop
 8001780:	40013c00 	.word	0x40013c00
 8001784:	40020000 	.word	0x40020000
 8001788:	40023800 	.word	0x40023800

0800178c <HAL_GPIO_WritePin>:
 800178c:	b10a      	cbz	r2, 8001792 <HAL_GPIO_WritePin+0x6>
 800178e:	6181      	str	r1, [r0, #24]
 8001790:	4770      	bx	lr
 8001792:	0409      	lsls	r1, r1, #16
 8001794:	e7fb      	b.n	800178e <HAL_GPIO_WritePin+0x2>
	...

08001798 <HAL_RCC_OscConfig>:
 8001798:	e92d 41f3 	stmdb	sp!, {r0, r1, r4, r5, r6, r7, r8, lr}
 800179c:	4604      	mov	r4, r0
 800179e:	b340      	cbz	r0, 80017f2 <HAL_RCC_OscConfig+0x5a>
 80017a0:	6803      	ldr	r3, [r0, #0]
 80017a2:	07dd      	lsls	r5, r3, #31
 80017a4:	d410      	bmi.n	80017c8 <HAL_RCC_OscConfig+0x30>
 80017a6:	6823      	ldr	r3, [r4, #0]
 80017a8:	0798      	lsls	r0, r3, #30
 80017aa:	d45e      	bmi.n	800186a <HAL_RCC_OscConfig+0xd2>
 80017ac:	6823      	ldr	r3, [r4, #0]
 80017ae:	071a      	lsls	r2, r3, #28
 80017b0:	f100 80a0 	bmi.w	80018f4 <HAL_RCC_OscConfig+0x15c>
 80017b4:	6823      	ldr	r3, [r4, #0]
 80017b6:	075b      	lsls	r3, r3, #29
 80017b8:	f100 80be 	bmi.w	8001938 <HAL_RCC_OscConfig+0x1a0>
 80017bc:	69a0      	ldr	r0, [r4, #24]
 80017be:	2800      	cmp	r0, #0
 80017c0:	f040 811f 	bne.w	8001a02 <HAL_RCC_OscConfig+0x26a>
 80017c4:	2000      	movs	r0, #0
 80017c6:	e02b      	b.n	8001820 <HAL_RCC_OscConfig+0x88>
 80017c8:	4ba6      	ldr	r3, [pc, #664]	; (8001a64 <HAL_RCC_OscConfig+0x2cc>)
 80017ca:	689a      	ldr	r2, [r3, #8]
 80017cc:	f002 020c 	and.w	r2, r2, #12
 80017d0:	2a04      	cmp	r2, #4
 80017d2:	d007      	beq.n	80017e4 <HAL_RCC_OscConfig+0x4c>
 80017d4:	689a      	ldr	r2, [r3, #8]
 80017d6:	f002 020c 	and.w	r2, r2, #12
 80017da:	2a08      	cmp	r2, #8
 80017dc:	d10b      	bne.n	80017f6 <HAL_RCC_OscConfig+0x5e>
 80017de:	685a      	ldr	r2, [r3, #4]
 80017e0:	0251      	lsls	r1, r2, #9
 80017e2:	d508      	bpl.n	80017f6 <HAL_RCC_OscConfig+0x5e>
 80017e4:	4b9f      	ldr	r3, [pc, #636]	; (8001a64 <HAL_RCC_OscConfig+0x2cc>)
 80017e6:	681b      	ldr	r3, [r3, #0]
 80017e8:	039a      	lsls	r2, r3, #14
 80017ea:	d5dc      	bpl.n	80017a6 <HAL_RCC_OscConfig+0xe>
 80017ec:	6863      	ldr	r3, [r4, #4]
 80017ee:	2b00      	cmp	r3, #0
 80017f0:	d1d9      	bne.n	80017a6 <HAL_RCC_OscConfig+0xe>
 80017f2:	2001      	movs	r0, #1
 80017f4:	e014      	b.n	8001820 <HAL_RCC_OscConfig+0x88>
 80017f6:	6862      	ldr	r2, [r4, #4]
 80017f8:	f5b2 3f80 	cmp.w	r2, #65536	; 0x10000
 80017fc:	d113      	bne.n	8001826 <HAL_RCC_OscConfig+0x8e>
 80017fe:	681a      	ldr	r2, [r3, #0]
 8001800:	f442 3280 	orr.w	r2, r2, #65536	; 0x10000
 8001804:	601a      	str	r2, [r3, #0]
 8001806:	f7ff fc95 	bl	8001134 <HAL_GetTick>
 800180a:	4e96      	ldr	r6, [pc, #600]	; (8001a64 <HAL_RCC_OscConfig+0x2cc>)
 800180c:	4605      	mov	r5, r0
 800180e:	6833      	ldr	r3, [r6, #0]
 8001810:	039b      	lsls	r3, r3, #14
 8001812:	d4c8      	bmi.n	80017a6 <HAL_RCC_OscConfig+0xe>
 8001814:	f7ff fc8e 	bl	8001134 <HAL_GetTick>
 8001818:	1b40      	subs	r0, r0, r5
 800181a:	2864      	cmp	r0, #100	; 0x64
 800181c:	d9f7      	bls.n	800180e <HAL_RCC_OscConfig+0x76>
 800181e:	2003      	movs	r0, #3
 8001820:	b002      	add	sp, #8
 8001822:	e8bd 81f0 	ldmia.w	sp!, {r4, r5, r6, r7, r8, pc}
 8001826:	4d8f      	ldr	r5, [pc, #572]	; (8001a64 <HAL_RCC_OscConfig+0x2cc>)
 8001828:	f5b2 2fa0 	cmp.w	r2, #327680	; 0x50000
 800182c:	682b      	ldr	r3, [r5, #0]
 800182e:	d107      	bne.n	8001840 <HAL_RCC_OscConfig+0xa8>
 8001830:	f443 2380 	orr.w	r3, r3, #262144	; 0x40000
 8001834:	602b      	str	r3, [r5, #0]
 8001836:	682b      	ldr	r3, [r5, #0]
 8001838:	f443 3380 	orr.w	r3, r3, #65536	; 0x10000
 800183c:	602b      	str	r3, [r5, #0]
 800183e:	e7e2      	b.n	8001806 <HAL_RCC_OscConfig+0x6e>
 8001840:	f423 3380 	bic.w	r3, r3, #65536	; 0x10000
 8001844:	602b      	str	r3, [r5, #0]
 8001846:	682b      	ldr	r3, [r5, #0]
 8001848:	f423 2380 	bic.w	r3, r3, #262144	; 0x40000
 800184c:	602b      	str	r3, [r5, #0]
 800184e:	2a00      	cmp	r2, #0
 8001850:	d1d9      	bne.n	8001806 <HAL_RCC_OscConfig+0x6e>
 8001852:	f7ff fc6f 	bl	8001134 <HAL_GetTick>
 8001856:	4606      	mov	r6, r0
 8001858:	682b      	ldr	r3, [r5, #0]
 800185a:	039f      	lsls	r7, r3, #14
 800185c:	d5a3      	bpl.n	80017a6 <HAL_RCC_OscConfig+0xe>
 800185e:	f7ff fc69 	bl	8001134 <HAL_GetTick>
 8001862:	1b80      	subs	r0, r0, r6
 8001864:	2864      	cmp	r0, #100	; 0x64
 8001866:	d9f7      	bls.n	8001858 <HAL_RCC_OscConfig+0xc0>
 8001868:	e7d9      	b.n	800181e <HAL_RCC_OscConfig+0x86>
 800186a:	4b7e      	ldr	r3, [pc, #504]	; (8001a64 <HAL_RCC_OscConfig+0x2cc>)
 800186c:	689a      	ldr	r2, [r3, #8]
 800186e:	f012 0f0c 	tst.w	r2, #12
 8001872:	d007      	beq.n	8001884 <HAL_RCC_OscConfig+0xec>
 8001874:	689a      	ldr	r2, [r3, #8]
 8001876:	f002 020c 	and.w	r2, r2, #12
 800187a:	2a08      	cmp	r2, #8
 800187c:	d111      	bne.n	80018a2 <HAL_RCC_OscConfig+0x10a>
 800187e:	685b      	ldr	r3, [r3, #4]
 8001880:	025e      	lsls	r6, r3, #9
 8001882:	d40e      	bmi.n	80018a2 <HAL_RCC_OscConfig+0x10a>
 8001884:	4b77      	ldr	r3, [pc, #476]	; (8001a64 <HAL_RCC_OscConfig+0x2cc>)
 8001886:	681a      	ldr	r2, [r3, #0]
 8001888:	0795      	lsls	r5, r2, #30
 800188a:	d502      	bpl.n	8001892 <HAL_RCC_OscConfig+0xfa>
 800188c:	68e2      	ldr	r2, [r4, #12]
 800188e:	2a01      	cmp	r2, #1
 8001890:	d1af      	bne.n	80017f2 <HAL_RCC_OscConfig+0x5a>
 8001892:	681a      	ldr	r2, [r3, #0]
 8001894:	6921      	ldr	r1, [r4, #16]
 8001896:	f022 02f8 	bic.w	r2, r2, #248	; 0xf8
 800189a:	ea42 02c1 	orr.w	r2, r2, r1, lsl #3
 800189e:	601a      	str	r2, [r3, #0]
 80018a0:	e784      	b.n	80017ac <HAL_RCC_OscConfig+0x14>
 80018a2:	68e2      	ldr	r2, [r4, #12]
 80018a4:	4b70      	ldr	r3, [pc, #448]	; (8001a68 <HAL_RCC_OscConfig+0x2d0>)
 80018a6:	b1b2      	cbz	r2, 80018d6 <HAL_RCC_OscConfig+0x13e>
 80018a8:	2201      	movs	r2, #1
 80018aa:	601a      	str	r2, [r3, #0]
 80018ac:	f7ff fc42 	bl	8001134 <HAL_GetTick>
 80018b0:	4d6c      	ldr	r5, [pc, #432]	; (8001a64 <HAL_RCC_OscConfig+0x2cc>)
 80018b2:	4606      	mov	r6, r0
 80018b4:	682b      	ldr	r3, [r5, #0]
 80018b6:	0798      	lsls	r0, r3, #30
 80018b8:	d507      	bpl.n	80018ca <HAL_RCC_OscConfig+0x132>
 80018ba:	682b      	ldr	r3, [r5, #0]
 80018bc:	6922      	ldr	r2, [r4, #16]
 80018be:	f023 03f8 	bic.w	r3, r3, #248	; 0xf8
 80018c2:	ea43 03c2 	orr.w	r3, r3, r2, lsl #3
 80018c6:	602b      	str	r3, [r5, #0]
 80018c8:	e770      	b.n	80017ac <HAL_RCC_OscConfig+0x14>
 80018ca:	f7ff fc33 	bl	8001134 <HAL_GetTick>
 80018ce:	1b80      	subs	r0, r0, r6
 80018d0:	2802      	cmp	r0, #2
 80018d2:	d9ef      	bls.n	80018b4 <HAL_RCC_OscConfig+0x11c>
 80018d4:	e7a3      	b.n	800181e <HAL_RCC_OscConfig+0x86>
 80018d6:	601a      	str	r2, [r3, #0]
 80018d8:	f7ff fc2c 	bl	8001134 <HAL_GetTick>
 80018dc:	4e61      	ldr	r6, [pc, #388]	; (8001a64 <HAL_RCC_OscConfig+0x2cc>)
 80018de:	4605      	mov	r5, r0
 80018e0:	6833      	ldr	r3, [r6, #0]
 80018e2:	0799      	lsls	r1, r3, #30
 80018e4:	f57f af62 	bpl.w	80017ac <HAL_RCC_OscConfig+0x14>
 80018e8:	f7ff fc24 	bl	8001134 <HAL_GetTick>
 80018ec:	1b40      	subs	r0, r0, r5
 80018ee:	2802      	cmp	r0, #2
 80018f0:	d9f6      	bls.n	80018e0 <HAL_RCC_OscConfig+0x148>
 80018f2:	e794      	b.n	800181e <HAL_RCC_OscConfig+0x86>
 80018f4:	6962      	ldr	r2, [r4, #20]
 80018f6:	4b5d      	ldr	r3, [pc, #372]	; (8001a6c <HAL_RCC_OscConfig+0x2d4>)
 80018f8:	b17a      	cbz	r2, 800191a <HAL_RCC_OscConfig+0x182>
 80018fa:	2201      	movs	r2, #1
 80018fc:	601a      	str	r2, [r3, #0]
 80018fe:	f7ff fc19 	bl	8001134 <HAL_GetTick>
 8001902:	4e58      	ldr	r6, [pc, #352]	; (8001a64 <HAL_RCC_OscConfig+0x2cc>)
 8001904:	4605      	mov	r5, r0
 8001906:	6f73      	ldr	r3, [r6, #116]	; 0x74
 8001908:	079f      	lsls	r7, r3, #30
 800190a:	f53f af53 	bmi.w	80017b4 <HAL_RCC_OscConfig+0x1c>
 800190e:	f7ff fc11 	bl	8001134 <HAL_GetTick>
 8001912:	1b40      	subs	r0, r0, r5
 8001914:	2802      	cmp	r0, #2
 8001916:	d9f6      	bls.n	8001906 <HAL_RCC_OscConfig+0x16e>
 8001918:	e781      	b.n	800181e <HAL_RCC_OscConfig+0x86>
 800191a:	601a      	str	r2, [r3, #0]
 800191c:	f7ff fc0a 	bl	8001134 <HAL_GetTick>
 8001920:	4e50      	ldr	r6, [pc, #320]	; (8001a64 <HAL_RCC_OscConfig+0x2cc>)
 8001922:	4605      	mov	r5, r0
 8001924:	6f73      	ldr	r3, [r6, #116]	; 0x74
 8001926:	0798      	lsls	r0, r3, #30
 8001928:	f57f af44 	bpl.w	80017b4 <HAL_RCC_OscConfig+0x1c>
 800192c:	f7ff fc02 	bl	8001134 <HAL_GetTick>
 8001930:	1b40      	subs	r0, r0, r5
 8001932:	2802      	cmp	r0, #2
 8001934:	d9f6      	bls.n	8001924 <HAL_RCC_OscConfig+0x18c>
 8001936:	e772      	b.n	800181e <HAL_RCC_OscConfig+0x86>
 8001938:	4b4a      	ldr	r3, [pc, #296]	; (8001a64 <HAL_RCC_OscConfig+0x2cc>)
 800193a:	6c1a      	ldr	r2, [r3, #64]	; 0x40
 800193c:	f012 5280 	ands.w	r2, r2, #268435456	; 0x10000000
 8001940:	d128      	bne.n	8001994 <HAL_RCC_OscConfig+0x1fc>
 8001942:	9201      	str	r2, [sp, #4]
 8001944:	6c1a      	ldr	r2, [r3, #64]	; 0x40
 8001946:	f042 5280 	orr.w	r2, r2, #268435456	; 0x10000000
 800194a:	641a      	str	r2, [r3, #64]	; 0x40
 800194c:	6c1b      	ldr	r3, [r3, #64]	; 0x40
 800194e:	f003 5380 	and.w	r3, r3, #268435456	; 0x10000000
 8001952:	9301      	str	r3, [sp, #4]
 8001954:	9b01      	ldr	r3, [sp, #4]
 8001956:	2701      	movs	r7, #1
 8001958:	4d45      	ldr	r5, [pc, #276]	; (8001a70 <HAL_RCC_OscConfig+0x2d8>)
 800195a:	682b      	ldr	r3, [r5, #0]
 800195c:	05d9      	lsls	r1, r3, #23
 800195e:	d51b      	bpl.n	8001998 <HAL_RCC_OscConfig+0x200>
 8001960:	68a3      	ldr	r3, [r4, #8]
 8001962:	4d40      	ldr	r5, [pc, #256]	; (8001a64 <HAL_RCC_OscConfig+0x2cc>)
 8001964:	2b01      	cmp	r3, #1
 8001966:	d127      	bne.n	80019b8 <HAL_RCC_OscConfig+0x220>
 8001968:	6f2b      	ldr	r3, [r5, #112]	; 0x70
 800196a:	f043 0301 	orr.w	r3, r3, #1
 800196e:	672b      	str	r3, [r5, #112]	; 0x70
 8001970:	f7ff fbe0 	bl	8001134 <HAL_GetTick>
 8001974:	4e3b      	ldr	r6, [pc, #236]	; (8001a64 <HAL_RCC_OscConfig+0x2cc>)
 8001976:	4605      	mov	r5, r0
 8001978:	f241 3888 	movw	r8, #5000	; 0x1388
 800197c:	6f33      	ldr	r3, [r6, #112]	; 0x70
 800197e:	079b      	lsls	r3, r3, #30
 8001980:	d539      	bpl.n	80019f6 <HAL_RCC_OscConfig+0x25e>
 8001982:	2f00      	cmp	r7, #0
 8001984:	f43f af1a 	beq.w	80017bc <HAL_RCC_OscConfig+0x24>
 8001988:	4a36      	ldr	r2, [pc, #216]	; (8001a64 <HAL_RCC_OscConfig+0x2cc>)
 800198a:	6c13      	ldr	r3, [r2, #64]	; 0x40
 800198c:	f023 5380 	bic.w	r3, r3, #268435456	; 0x10000000
 8001990:	6413      	str	r3, [r2, #64]	; 0x40
 8001992:	e713      	b.n	80017bc <HAL_RCC_OscConfig+0x24>
 8001994:	2700      	movs	r7, #0
 8001996:	e7df      	b.n	8001958 <HAL_RCC_OscConfig+0x1c0>
 8001998:	682b      	ldr	r3, [r5, #0]
 800199a:	f443 7380 	orr.w	r3, r3, #256	; 0x100
 800199e:	602b      	str	r3, [r5, #0]
 80019a0:	f7ff fbc8 	bl	8001134 <HAL_GetTick>
 80019a4:	4606      	mov	r6, r0
 80019a6:	682b      	ldr	r3, [r5, #0]
 80019a8:	05da      	lsls	r2, r3, #23
 80019aa:	d4d9      	bmi.n	8001960 <HAL_RCC_OscConfig+0x1c8>
 80019ac:	f7ff fbc2 	bl	8001134 <HAL_GetTick>
 80019b0:	1b80      	subs	r0, r0, r6
 80019b2:	2802      	cmp	r0, #2
 80019b4:	d9f7      	bls.n	80019a6 <HAL_RCC_OscConfig+0x20e>
 80019b6:	e732      	b.n	800181e <HAL_RCC_OscConfig+0x86>
 80019b8:	2b05      	cmp	r3, #5
 80019ba:	d104      	bne.n	80019c6 <HAL_RCC_OscConfig+0x22e>
 80019bc:	6f2b      	ldr	r3, [r5, #112]	; 0x70
 80019be:	f043 0304 	orr.w	r3, r3, #4
 80019c2:	672b      	str	r3, [r5, #112]	; 0x70
 80019c4:	e7d0      	b.n	8001968 <HAL_RCC_OscConfig+0x1d0>
 80019c6:	6f2a      	ldr	r2, [r5, #112]	; 0x70
 80019c8:	f022 0201 	bic.w	r2, r2, #1
 80019cc:	672a      	str	r2, [r5, #112]	; 0x70
 80019ce:	6f2a      	ldr	r2, [r5, #112]	; 0x70
 80019d0:	f022 0204 	bic.w	r2, r2, #4
 80019d4:	672a      	str	r2, [r5, #112]	; 0x70
 80019d6:	2b00      	cmp	r3, #0
 80019d8:	d1ca      	bne.n	8001970 <HAL_RCC_OscConfig+0x1d8>
 80019da:	f7ff fbab 	bl	8001134 <HAL_GetTick>
 80019de:	f241 3888 	movw	r8, #5000	; 0x1388
 80019e2:	4606      	mov	r6, r0
 80019e4:	6f2b      	ldr	r3, [r5, #112]	; 0x70
 80019e6:	0798      	lsls	r0, r3, #30
 80019e8:	d5cb      	bpl.n	8001982 <HAL_RCC_OscConfig+0x1ea>
 80019ea:	f7ff fba3 	bl	8001134 <HAL_GetTick>
 80019ee:	1b80      	subs	r0, r0, r6
 80019f0:	4540      	cmp	r0, r8
 80019f2:	d9f7      	bls.n	80019e4 <HAL_RCC_OscConfig+0x24c>
 80019f4:	e713      	b.n	800181e <HAL_RCC_OscConfig+0x86>
 80019f6:	f7ff fb9d 	bl	8001134 <HAL_GetTick>
 80019fa:	1b40      	subs	r0, r0, r5
 80019fc:	4540      	cmp	r0, r8
 80019fe:	d9bd      	bls.n	800197c <HAL_RCC_OscConfig+0x1e4>
 8001a00:	e70d      	b.n	800181e <HAL_RCC_OscConfig+0x86>
 8001a02:	4d18      	ldr	r5, [pc, #96]	; (8001a64 <HAL_RCC_OscConfig+0x2cc>)
 8001a04:	68ab      	ldr	r3, [r5, #8]
 8001a06:	f003 030c 	and.w	r3, r3, #12
 8001a0a:	2b08      	cmp	r3, #8
 8001a0c:	d047      	beq.n	8001a9e <HAL_RCC_OscConfig+0x306>
 8001a0e:	4e19      	ldr	r6, [pc, #100]	; (8001a74 <HAL_RCC_OscConfig+0x2dc>)
 8001a10:	2300      	movs	r3, #0
 8001a12:	2802      	cmp	r0, #2
 8001a14:	6033      	str	r3, [r6, #0]
 8001a16:	d135      	bne.n	8001a84 <HAL_RCC_OscConfig+0x2ec>
 8001a18:	f7ff fb8c 	bl	8001134 <HAL_GetTick>
 8001a1c:	4607      	mov	r7, r0
 8001a1e:	682b      	ldr	r3, [r5, #0]
 8001a20:	0199      	lsls	r1, r3, #6
 8001a22:	d429      	bmi.n	8001a78 <HAL_RCC_OscConfig+0x2e0>
 8001a24:	e9d4 3207 	ldrd	r3, r2, [r4, #28]
 8001a28:	4313      	orrs	r3, r2
 8001a2a:	6a62      	ldr	r2, [r4, #36]	; 0x24
 8001a2c:	ea43 1382 	orr.w	r3, r3, r2, lsl #6
 8001a30:	6ae2      	ldr	r2, [r4, #44]	; 0x2c
 8001a32:	ea43 6302 	orr.w	r3, r3, r2, lsl #24
 8001a36:	6aa2      	ldr	r2, [r4, #40]	; 0x28
 8001a38:	0852      	lsrs	r2, r2, #1
 8001a3a:	3a01      	subs	r2, #1
 8001a3c:	ea43 4302 	orr.w	r3, r3, r2, lsl #16
 8001a40:	606b      	str	r3, [r5, #4]
 8001a42:	2301      	movs	r3, #1
 8001a44:	6033      	str	r3, [r6, #0]
 8001a46:	f7ff fb75 	bl	8001134 <HAL_GetTick>
 8001a4a:	4d06      	ldr	r5, [pc, #24]	; (8001a64 <HAL_RCC_OscConfig+0x2cc>)
 8001a4c:	4604      	mov	r4, r0
 8001a4e:	682b      	ldr	r3, [r5, #0]
 8001a50:	019a      	lsls	r2, r3, #6
 8001a52:	f53f aeb7 	bmi.w	80017c4 <HAL_RCC_OscConfig+0x2c>
 8001a56:	f7ff fb6d 	bl	8001134 <HAL_GetTick>
 8001a5a:	1b00      	subs	r0, r0, r4
 8001a5c:	2802      	cmp	r0, #2
 8001a5e:	d9f6      	bls.n	8001a4e <HAL_RCC_OscConfig+0x2b6>
 8001a60:	e6dd      	b.n	800181e <HAL_RCC_OscConfig+0x86>
 8001a62:	bf00      	nop
 8001a64:	40023800 	.word	0x40023800
 8001a68:	42470000 	.word	0x42470000
 8001a6c:	42470e80 	.word	0x42470e80
 8001a70:	40007000 	.word	0x40007000
 8001a74:	42470060 	.word	0x42470060
 8001a78:	f7ff fb5c 	bl	8001134 <HAL_GetTick>
 8001a7c:	1bc0      	subs	r0, r0, r7
 8001a7e:	2802      	cmp	r0, #2
 8001a80:	d9cd      	bls.n	8001a1e <HAL_RCC_OscConfig+0x286>
 8001a82:	e6cc      	b.n	800181e <HAL_RCC_OscConfig+0x86>
 8001a84:	f7ff fb56 	bl	8001134 <HAL_GetTick>
 8001a88:	4604      	mov	r4, r0
 8001a8a:	682b      	ldr	r3, [r5, #0]
 8001a8c:	019b      	lsls	r3, r3, #6
 8001a8e:	f57f ae99 	bpl.w	80017c4 <HAL_RCC_OscConfig+0x2c>
 8001a92:	f7ff fb4f 	bl	8001134 <HAL_GetTick>
 8001a96:	1b00      	subs	r0, r0, r4
 8001a98:	2802      	cmp	r0, #2
 8001a9a:	d9f6      	bls.n	8001a8a <HAL_RCC_OscConfig+0x2f2>
 8001a9c:	e6bf      	b.n	800181e <HAL_RCC_OscConfig+0x86>
 8001a9e:	2801      	cmp	r0, #1
 8001aa0:	f43f aebe 	beq.w	8001820 <HAL_RCC_OscConfig+0x88>
 8001aa4:	686b      	ldr	r3, [r5, #4]
 8001aa6:	69e2      	ldr	r2, [r4, #28]
 8001aa8:	f403 0180 	and.w	r1, r3, #4194304	; 0x400000
 8001aac:	4291      	cmp	r1, r2
 8001aae:	f47f aea0 	bne.w	80017f2 <HAL_RCC_OscConfig+0x5a>
 8001ab2:	6a21      	ldr	r1, [r4, #32]
 8001ab4:	f003 023f 	and.w	r2, r3, #63	; 0x3f
 8001ab8:	428a      	cmp	r2, r1
 8001aba:	f47f ae9a 	bne.w	80017f2 <HAL_RCC_OscConfig+0x5a>
 8001abe:	6a61      	ldr	r1, [r4, #36]	; 0x24
 8001ac0:	f647 72c0 	movw	r2, #32704	; 0x7fc0
 8001ac4:	401a      	ands	r2, r3
 8001ac6:	ebb2 1f81 	cmp.w	r2, r1, lsl #6
 8001aca:	f47f ae92 	bne.w	80017f2 <HAL_RCC_OscConfig+0x5a>
 8001ace:	6aa2      	ldr	r2, [r4, #40]	; 0x28
 8001ad0:	0852      	lsrs	r2, r2, #1
 8001ad2:	f403 3140 	and.w	r1, r3, #196608	; 0x30000
 8001ad6:	3a01      	subs	r2, #1
 8001ad8:	ebb1 4f02 	cmp.w	r1, r2, lsl #16
 8001adc:	f47f ae89 	bne.w	80017f2 <HAL_RCC_OscConfig+0x5a>
 8001ae0:	6ae2      	ldr	r2, [r4, #44]	; 0x2c
 8001ae2:	f003 6370 	and.w	r3, r3, #251658240	; 0xf000000
 8001ae6:	ebb3 6f02 	cmp.w	r3, r2, lsl #24
 8001aea:	f43f ae6b 	beq.w	80017c4 <HAL_RCC_OscConfig+0x2c>
 8001aee:	e680      	b.n	80017f2 <HAL_RCC_OscConfig+0x5a>

08001af0 <HAL_RCC_GetSysClockFreq>:
 8001af0:	4913      	ldr	r1, [pc, #76]	; (8001b40 <HAL_RCC_GetSysClockFreq+0x50>)
 8001af2:	b508      	push	{r3, lr}
 8001af4:	688b      	ldr	r3, [r1, #8]
 8001af6:	f003 030c 	and.w	r3, r3, #12
 8001afa:	2b04      	cmp	r3, #4
 8001afc:	d01c      	beq.n	8001b38 <HAL_RCC_GetSysClockFreq+0x48>
 8001afe:	2b08      	cmp	r3, #8
 8001b00:	d11c      	bne.n	8001b3c <HAL_RCC_GetSysClockFreq+0x4c>
 8001b02:	684a      	ldr	r2, [r1, #4]
 8001b04:	684b      	ldr	r3, [r1, #4]
 8001b06:	6849      	ldr	r1, [r1, #4]
 8001b08:	f413 0380 	ands.w	r3, r3, #4194304	; 0x400000
 8001b0c:	bf14      	ite	ne
 8001b0e:	480d      	ldrne	r0, [pc, #52]	; (8001b44 <HAL_RCC_GetSysClockFreq+0x54>)
 8001b10:	480d      	ldreq	r0, [pc, #52]	; (8001b48 <HAL_RCC_GetSysClockFreq+0x58>)
 8001b12:	f3c1 1188 	ubfx	r1, r1, #6, #9
 8001b16:	bf18      	it	ne
 8001b18:	2300      	movne	r3, #0
 8001b1a:	f002 023f 	and.w	r2, r2, #63	; 0x3f
 8001b1e:	fba1 0100 	umull	r0, r1, r1, r0
 8001b22:	f7fe fbbd 	bl	80002a0 <__aeabi_uldivmod>
 8001b26:	4b06      	ldr	r3, [pc, #24]	; (8001b40 <HAL_RCC_GetSysClockFreq+0x50>)
 8001b28:	685b      	ldr	r3, [r3, #4]
 8001b2a:	f3c3 4301 	ubfx	r3, r3, #16, #2
 8001b2e:	3301      	adds	r3, #1
 8001b30:	005b      	lsls	r3, r3, #1
 8001b32:	fbb0 f0f3 	udiv	r0, r0, r3
 8001b36:	bd08      	pop	{r3, pc}
 8001b38:	4802      	ldr	r0, [pc, #8]	; (8001b44 <HAL_RCC_GetSysClockFreq+0x54>)
 8001b3a:	e7fc      	b.n	8001b36 <HAL_RCC_GetSysClockFreq+0x46>
 8001b3c:	4802      	ldr	r0, [pc, #8]	; (8001b48 <HAL_RCC_GetSysClockFreq+0x58>)
 8001b3e:	e7fa      	b.n	8001b36 <HAL_RCC_GetSysClockFreq+0x46>
 8001b40:	40023800 	.word	0x40023800
 8001b44:	007a1200 	.word	0x007a1200
 8001b48:	00f42400 	.word	0x00f42400

08001b4c <HAL_RCC_ClockConfig>:
 8001b4c:	e92d 41f0 	stmdb	sp!, {r4, r5, r6, r7, r8, lr}
 8001b50:	460d      	mov	r5, r1
 8001b52:	4604      	mov	r4, r0
 8001b54:	b910      	cbnz	r0, 8001b5c <HAL_RCC_ClockConfig+0x10>
 8001b56:	2001      	movs	r0, #1
 8001b58:	e8bd 81f0 	ldmia.w	sp!, {r4, r5, r6, r7, r8, pc}
 8001b5c:	4b44      	ldr	r3, [pc, #272]	; (8001c70 <HAL_RCC_ClockConfig+0x124>)
 8001b5e:	681a      	ldr	r2, [r3, #0]
 8001b60:	f002 0207 	and.w	r2, r2, #7
 8001b64:	428a      	cmp	r2, r1
 8001b66:	d328      	bcc.n	8001bba <HAL_RCC_ClockConfig+0x6e>
 8001b68:	6822      	ldr	r2, [r4, #0]
 8001b6a:	0797      	lsls	r7, r2, #30
 8001b6c:	d42d      	bmi.n	8001bca <HAL_RCC_ClockConfig+0x7e>
 8001b6e:	07d0      	lsls	r0, r2, #31
 8001b70:	d441      	bmi.n	8001bf6 <HAL_RCC_ClockConfig+0xaa>
 8001b72:	4b3f      	ldr	r3, [pc, #252]	; (8001c70 <HAL_RCC_ClockConfig+0x124>)
 8001b74:	681a      	ldr	r2, [r3, #0]
 8001b76:	f002 0207 	and.w	r2, r2, #7
 8001b7a:	42aa      	cmp	r2, r5
 8001b7c:	d866      	bhi.n	8001c4c <HAL_RCC_ClockConfig+0x100>
 8001b7e:	6822      	ldr	r2, [r4, #0]
 8001b80:	0751      	lsls	r1, r2, #29
 8001b82:	d46c      	bmi.n	8001c5e <HAL_RCC_ClockConfig+0x112>
 8001b84:	0713      	lsls	r3, r2, #28
 8001b86:	d507      	bpl.n	8001b98 <HAL_RCC_ClockConfig+0x4c>
 8001b88:	4a3a      	ldr	r2, [pc, #232]	; (8001c74 <HAL_RCC_ClockConfig+0x128>)
 8001b8a:	6921      	ldr	r1, [r4, #16]
 8001b8c:	6893      	ldr	r3, [r2, #8]
 8001b8e:	f423 4360 	bic.w	r3, r3, #57344	; 0xe000
 8001b92:	ea43 03c1 	orr.w	r3, r3, r1, lsl #3
 8001b96:	6093      	str	r3, [r2, #8]
 8001b98:	f7ff ffaa 	bl	8001af0 <HAL_RCC_GetSysClockFreq>
 8001b9c:	4b35      	ldr	r3, [pc, #212]	; (8001c74 <HAL_RCC_ClockConfig+0x128>)
 8001b9e:	4a36      	ldr	r2, [pc, #216]	; (8001c78 <HAL_RCC_ClockConfig+0x12c>)
 8001ba0:	689b      	ldr	r3, [r3, #8]
 8001ba2:	f3c3 1303 	ubfx	r3, r3, #4, #4
 8001ba6:	5cd3      	ldrb	r3, [r2, r3]
 8001ba8:	40d8      	lsrs	r0, r3
 8001baa:	4b34      	ldr	r3, [pc, #208]	; (8001c7c <HAL_RCC_ClockConfig+0x130>)
 8001bac:	6018      	str	r0, [r3, #0]
 8001bae:	4b34      	ldr	r3, [pc, #208]	; (8001c80 <HAL_RCC_ClockConfig+0x134>)
 8001bb0:	6818      	ldr	r0, [r3, #0]
 8001bb2:	f7ff fa75 	bl	80010a0 <HAL_InitTick>
 8001bb6:	2000      	movs	r0, #0
 8001bb8:	e7ce      	b.n	8001b58 <HAL_RCC_ClockConfig+0xc>
 8001bba:	b2ca      	uxtb	r2, r1
 8001bbc:	701a      	strb	r2, [r3, #0]
 8001bbe:	681b      	ldr	r3, [r3, #0]
 8001bc0:	f003 0307 	and.w	r3, r3, #7
 8001bc4:	428b      	cmp	r3, r1
 8001bc6:	d1c6      	bne.n	8001b56 <HAL_RCC_ClockConfig+0xa>
 8001bc8:	e7ce      	b.n	8001b68 <HAL_RCC_ClockConfig+0x1c>
 8001bca:	4b2a      	ldr	r3, [pc, #168]	; (8001c74 <HAL_RCC_ClockConfig+0x128>)
 8001bcc:	f012 0f04 	tst.w	r2, #4
 8001bd0:	bf1e      	ittt	ne
 8001bd2:	6899      	ldrne	r1, [r3, #8]
 8001bd4:	f441 51e0 	orrne.w	r1, r1, #7168	; 0x1c00
 8001bd8:	6099      	strne	r1, [r3, #8]
 8001bda:	0716      	lsls	r6, r2, #28
 8001bdc:	bf42      	ittt	mi
 8001bde:	6899      	ldrmi	r1, [r3, #8]
 8001be0:	f441 4160 	orrmi.w	r1, r1, #57344	; 0xe000
 8001be4:	6099      	strmi	r1, [r3, #8]
 8001be6:	4923      	ldr	r1, [pc, #140]	; (8001c74 <HAL_RCC_ClockConfig+0x128>)
 8001be8:	68a0      	ldr	r0, [r4, #8]
 8001bea:	688b      	ldr	r3, [r1, #8]
 8001bec:	f023 03f0 	bic.w	r3, r3, #240	; 0xf0
 8001bf0:	4303      	orrs	r3, r0
 8001bf2:	608b      	str	r3, [r1, #8]
 8001bf4:	e7bb      	b.n	8001b6e <HAL_RCC_ClockConfig+0x22>
 8001bf6:	6862      	ldr	r2, [r4, #4]
 8001bf8:	4b1e      	ldr	r3, [pc, #120]	; (8001c74 <HAL_RCC_ClockConfig+0x128>)
 8001bfa:	2a01      	cmp	r2, #1
 8001bfc:	d11c      	bne.n	8001c38 <HAL_RCC_ClockConfig+0xec>
 8001bfe:	681b      	ldr	r3, [r3, #0]
 8001c00:	f413 3f00 	tst.w	r3, #131072	; 0x20000
 8001c04:	d0a7      	beq.n	8001b56 <HAL_RCC_ClockConfig+0xa>
 8001c06:	4e1b      	ldr	r6, [pc, #108]	; (8001c74 <HAL_RCC_ClockConfig+0x128>)
 8001c08:	68b3      	ldr	r3, [r6, #8]
 8001c0a:	f023 0303 	bic.w	r3, r3, #3
 8001c0e:	4313      	orrs	r3, r2
 8001c10:	60b3      	str	r3, [r6, #8]
 8001c12:	f7ff fa8f 	bl	8001134 <HAL_GetTick>
 8001c16:	f241 3888 	movw	r8, #5000	; 0x1388
 8001c1a:	4607      	mov	r7, r0
 8001c1c:	68b3      	ldr	r3, [r6, #8]
 8001c1e:	6862      	ldr	r2, [r4, #4]
 8001c20:	f003 030c 	and.w	r3, r3, #12
 8001c24:	ebb3 0f82 	cmp.w	r3, r2, lsl #2
 8001c28:	d0a3      	beq.n	8001b72 <HAL_RCC_ClockConfig+0x26>
 8001c2a:	f7ff fa83 	bl	8001134 <HAL_GetTick>
 8001c2e:	1bc0      	subs	r0, r0, r7
 8001c30:	4540      	cmp	r0, r8
 8001c32:	d9f3      	bls.n	8001c1c <HAL_RCC_ClockConfig+0xd0>
 8001c34:	2003      	movs	r0, #3
 8001c36:	e78f      	b.n	8001b58 <HAL_RCC_ClockConfig+0xc>
 8001c38:	1e91      	subs	r1, r2, #2
 8001c3a:	2901      	cmp	r1, #1
 8001c3c:	681b      	ldr	r3, [r3, #0]
 8001c3e:	d802      	bhi.n	8001c46 <HAL_RCC_ClockConfig+0xfa>
 8001c40:	f013 7f00 	tst.w	r3, #33554432	; 0x2000000
 8001c44:	e7de      	b.n	8001c04 <HAL_RCC_ClockConfig+0xb8>
 8001c46:	f013 0f02 	tst.w	r3, #2
 8001c4a:	e7db      	b.n	8001c04 <HAL_RCC_ClockConfig+0xb8>
 8001c4c:	b2ea      	uxtb	r2, r5
 8001c4e:	701a      	strb	r2, [r3, #0]
 8001c50:	681b      	ldr	r3, [r3, #0]
 8001c52:	f003 0307 	and.w	r3, r3, #7
 8001c56:	42ab      	cmp	r3, r5
 8001c58:	f47f af7d 	bne.w	8001b56 <HAL_RCC_ClockConfig+0xa>
 8001c5c:	e78f      	b.n	8001b7e <HAL_RCC_ClockConfig+0x32>
 8001c5e:	4905      	ldr	r1, [pc, #20]	; (8001c74 <HAL_RCC_ClockConfig+0x128>)
 8001c60:	68e0      	ldr	r0, [r4, #12]
 8001c62:	688b      	ldr	r3, [r1, #8]
 8001c64:	f423 53e0 	bic.w	r3, r3, #7168	; 0x1c00
 8001c68:	4303      	orrs	r3, r0
 8001c6a:	608b      	str	r3, [r1, #8]
 8001c6c:	e78a      	b.n	8001b84 <HAL_RCC_ClockConfig+0x38>
 8001c6e:	bf00      	nop
 8001c70:	40023c00 	.word	0x40023c00
 8001c74:	40023800 	.word	0x40023800
 8001c78:	0800431a 	.word	0x0800431a
 8001c7c:	20000020 	.word	0x20000020
 8001c80:	20000028 	.word	0x20000028

08001c84 <HAL_RCC_GetPCLK1Freq>:
 8001c84:	4b04      	ldr	r3, [pc, #16]	; (8001c98 <HAL_RCC_GetPCLK1Freq+0x14>)
 8001c86:	4a05      	ldr	r2, [pc, #20]	; (8001c9c <HAL_RCC_GetPCLK1Freq+0x18>)
 8001c88:	689b      	ldr	r3, [r3, #8]
 8001c8a:	f3c3 2382 	ubfx	r3, r3, #10, #3
 8001c8e:	5cd3      	ldrb	r3, [r2, r3]
 8001c90:	4a03      	ldr	r2, [pc, #12]	; (8001ca0 <HAL_RCC_GetPCLK1Freq+0x1c>)
 8001c92:	6810      	ldr	r0, [r2, #0]
 8001c94:	40d8      	lsrs	r0, r3
 8001c96:	4770      	bx	lr
 8001c98:	40023800 	.word	0x40023800
 8001c9c:	0800432a 	.word	0x0800432a
 8001ca0:	20000020 	.word	0x20000020

08001ca4 <HAL_RCC_GetPCLK2Freq>:
 8001ca4:	4b04      	ldr	r3, [pc, #16]	; (8001cb8 <HAL_RCC_GetPCLK2Freq+0x14>)
 8001ca6:	4a05      	ldr	r2, [pc, #20]	; (8001cbc <HAL_RCC_GetPCLK2Freq+0x18>)
 8001ca8:	689b      	ldr	r3, [r3, #8]
 8001caa:	f3c3 3342 	ubfx	r3, r3, #13, #3
 8001cae:	5cd3      	ldrb	r3, [r2, r3]
 8001cb0:	4a03      	ldr	r2, [pc, #12]	; (8001cc0 <HAL_RCC_GetPCLK2Freq+0x1c>)
 8001cb2:	6810      	ldr	r0, [r2, #0]
 8001cb4:	40d8      	lsrs	r0, r3
 8001cb6:	4770      	bx	lr
 8001cb8:	40023800 	.word	0x40023800
 8001cbc:	0800432a 	.word	0x0800432a
 8001cc0:	20000020 	.word	0x20000020

08001cc4 <TIM_OC1_SetConfig>:
 8001cc4:	6a03      	ldr	r3, [r0, #32]
 8001cc6:	f023 0301 	bic.w	r3, r3, #1
 8001cca:	6203      	str	r3, [r0, #32]
 8001ccc:	6a03      	ldr	r3, [r0, #32]
 8001cce:	b570      	push	{r4, r5, r6, lr}
 8001cd0:	6844      	ldr	r4, [r0, #4]
 8001cd2:	6982      	ldr	r2, [r0, #24]
 8001cd4:	680d      	ldr	r5, [r1, #0]
 8001cd6:	f022 0273 	bic.w	r2, r2, #115	; 0x73
 8001cda:	432a      	orrs	r2, r5
 8001cdc:	688d      	ldr	r5, [r1, #8]
 8001cde:	f023 0302 	bic.w	r3, r3, #2
 8001ce2:	432b      	orrs	r3, r5
 8001ce4:	4d0e      	ldr	r5, [pc, #56]	; (8001d20 <TIM_OC1_SetConfig+0x5c>)
 8001ce6:	42a8      	cmp	r0, r5
 8001ce8:	d002      	beq.n	8001cf0 <TIM_OC1_SetConfig+0x2c>
 8001cea:	4e0e      	ldr	r6, [pc, #56]	; (8001d24 <TIM_OC1_SetConfig+0x60>)
 8001cec:	42b0      	cmp	r0, r6
 8001cee:	d110      	bne.n	8001d12 <TIM_OC1_SetConfig+0x4e>
 8001cf0:	68ce      	ldr	r6, [r1, #12]
 8001cf2:	f023 0308 	bic.w	r3, r3, #8
 8001cf6:	4333      	orrs	r3, r6
 8001cf8:	42a8      	cmp	r0, r5
 8001cfa:	f023 0304 	bic.w	r3, r3, #4
 8001cfe:	d002      	beq.n	8001d06 <TIM_OC1_SetConfig+0x42>
 8001d00:	4d08      	ldr	r5, [pc, #32]	; (8001d24 <TIM_OC1_SetConfig+0x60>)
 8001d02:	42a8      	cmp	r0, r5
 8001d04:	d105      	bne.n	8001d12 <TIM_OC1_SetConfig+0x4e>
 8001d06:	e9d1 5605 	ldrd	r5, r6, [r1, #20]
 8001d0a:	f424 7440 	bic.w	r4, r4, #768	; 0x300
 8001d0e:	4335      	orrs	r5, r6
 8001d10:	432c      	orrs	r4, r5
 8001d12:	6044      	str	r4, [r0, #4]
 8001d14:	6182      	str	r2, [r0, #24]
 8001d16:	684a      	ldr	r2, [r1, #4]
 8001d18:	6342      	str	r2, [r0, #52]	; 0x34
 8001d1a:	6203      	str	r3, [r0, #32]
 8001d1c:	bd70      	pop	{r4, r5, r6, pc}
 8001d1e:	bf00      	nop
 8001d20:	40010000 	.word	0x40010000
 8001d24:	40010400 	.word	0x40010400

08001d28 <TIM_OC3_SetConfig>:
 8001d28:	6a03      	ldr	r3, [r0, #32]
 8001d2a:	f423 7380 	bic.w	r3, r3, #256	; 0x100
 8001d2e:	6203      	str	r3, [r0, #32]
 8001d30:	6a03      	ldr	r3, [r0, #32]
 8001d32:	b570      	push	{r4, r5, r6, lr}
 8001d34:	6844      	ldr	r4, [r0, #4]
 8001d36:	69c2      	ldr	r2, [r0, #28]
 8001d38:	680d      	ldr	r5, [r1, #0]
 8001d3a:	f022 0273 	bic.w	r2, r2, #115	; 0x73
 8001d3e:	432a      	orrs	r2, r5
 8001d40:	688d      	ldr	r5, [r1, #8]
 8001d42:	f423 7300 	bic.w	r3, r3, #512	; 0x200
 8001d46:	ea43 2305 	orr.w	r3, r3, r5, lsl #8
 8001d4a:	4d11      	ldr	r5, [pc, #68]	; (8001d90 <TIM_OC3_SetConfig+0x68>)
 8001d4c:	42a8      	cmp	r0, r5
 8001d4e:	d003      	beq.n	8001d58 <TIM_OC3_SetConfig+0x30>
 8001d50:	f505 6580 	add.w	r5, r5, #1024	; 0x400
 8001d54:	42a8      	cmp	r0, r5
 8001d56:	d114      	bne.n	8001d82 <TIM_OC3_SetConfig+0x5a>
 8001d58:	68cd      	ldr	r5, [r1, #12]
 8001d5a:	f423 6300 	bic.w	r3, r3, #2048	; 0x800
 8001d5e:	ea43 2305 	orr.w	r3, r3, r5, lsl #8
 8001d62:	4d0b      	ldr	r5, [pc, #44]	; (8001d90 <TIM_OC3_SetConfig+0x68>)
 8001d64:	42a8      	cmp	r0, r5
 8001d66:	f423 6380 	bic.w	r3, r3, #1024	; 0x400
 8001d6a:	d003      	beq.n	8001d74 <TIM_OC3_SetConfig+0x4c>
 8001d6c:	f505 6580 	add.w	r5, r5, #1024	; 0x400
 8001d70:	42a8      	cmp	r0, r5
 8001d72:	d106      	bne.n	8001d82 <TIM_OC3_SetConfig+0x5a>
 8001d74:	e9d1 5605 	ldrd	r5, r6, [r1, #20]
 8001d78:	f424 5440 	bic.w	r4, r4, #12288	; 0x3000
 8001d7c:	4335      	orrs	r5, r6
 8001d7e:	ea44 1405 	orr.w	r4, r4, r5, lsl #4
 8001d82:	6044      	str	r4, [r0, #4]
 8001d84:	61c2      	str	r2, [r0, #28]
 8001d86:	684a      	ldr	r2, [r1, #4]
 8001d88:	63c2      	str	r2, [r0, #60]	; 0x3c
 8001d8a:	6203      	str	r3, [r0, #32]
 8001d8c:	bd70      	pop	{r4, r5, r6, pc}
 8001d8e:	bf00      	nop
 8001d90:	40010000 	.word	0x40010000

08001d94 <TIM_OC4_SetConfig>:
 8001d94:	6a03      	ldr	r3, [r0, #32]
 8001d96:	f423 5380 	bic.w	r3, r3, #4096	; 0x1000
 8001d9a:	6203      	str	r3, [r0, #32]
 8001d9c:	6a03      	ldr	r3, [r0, #32]
 8001d9e:	b530      	push	{r4, r5, lr}
 8001da0:	6844      	ldr	r4, [r0, #4]
 8001da2:	69c2      	ldr	r2, [r0, #28]
 8001da4:	680d      	ldr	r5, [r1, #0]
 8001da6:	f422 42e6 	bic.w	r2, r2, #29440	; 0x7300
 8001daa:	ea42 2205 	orr.w	r2, r2, r5, lsl #8
 8001dae:	688d      	ldr	r5, [r1, #8]
 8001db0:	f423 5300 	bic.w	r3, r3, #8192	; 0x2000
 8001db4:	ea43 3305 	orr.w	r3, r3, r5, lsl #12
 8001db8:	4d08      	ldr	r5, [pc, #32]	; (8001ddc <TIM_OC4_SetConfig+0x48>)
 8001dba:	42a8      	cmp	r0, r5
 8001dbc:	d003      	beq.n	8001dc6 <TIM_OC4_SetConfig+0x32>
 8001dbe:	f505 6580 	add.w	r5, r5, #1024	; 0x400
 8001dc2:	42a8      	cmp	r0, r5
 8001dc4:	d104      	bne.n	8001dd0 <TIM_OC4_SetConfig+0x3c>
 8001dc6:	694d      	ldr	r5, [r1, #20]
 8001dc8:	f424 4480 	bic.w	r4, r4, #16384	; 0x4000
 8001dcc:	ea44 1485 	orr.w	r4, r4, r5, lsl #6
 8001dd0:	6044      	str	r4, [r0, #4]
 8001dd2:	61c2      	str	r2, [r0, #28]
 8001dd4:	684a      	ldr	r2, [r1, #4]
 8001dd6:	6402      	str	r2, [r0, #64]	; 0x40
 8001dd8:	6203      	str	r3, [r0, #32]
 8001dda:	bd30      	pop	{r4, r5, pc}
 8001ddc:	40010000 	.word	0x40010000

08001de0 <HAL_TIM_Base_Start>:
 8001de0:	f890 303d 	ldrb.w	r3, [r0, #61]	; 0x3d
 8001de4:	2b01      	cmp	r3, #1
 8001de6:	d12c      	bne.n	8001e42 <HAL_TIM_Base_Start+0x62>
 8001de8:	2302      	movs	r3, #2
 8001dea:	4a17      	ldr	r2, [pc, #92]	; (8001e48 <HAL_TIM_Base_Start+0x68>)
 8001dec:	f880 303d 	strb.w	r3, [r0, #61]	; 0x3d
 8001df0:	6803      	ldr	r3, [r0, #0]
 8001df2:	4293      	cmp	r3, r2
 8001df4:	d01a      	beq.n	8001e2c <HAL_TIM_Base_Start+0x4c>
 8001df6:	f1b3 4f80 	cmp.w	r3, #1073741824	; 0x40000000
 8001dfa:	d017      	beq.n	8001e2c <HAL_TIM_Base_Start+0x4c>
 8001dfc:	f5a2 427c 	sub.w	r2, r2, #64512	; 0xfc00
 8001e00:	4293      	cmp	r3, r2
 8001e02:	d013      	beq.n	8001e2c <HAL_TIM_Base_Start+0x4c>
 8001e04:	f502 6280 	add.w	r2, r2, #1024	; 0x400
 8001e08:	4293      	cmp	r3, r2
 8001e0a:	d00f      	beq.n	8001e2c <HAL_TIM_Base_Start+0x4c>
 8001e0c:	f502 6280 	add.w	r2, r2, #1024	; 0x400
 8001e10:	4293      	cmp	r3, r2
 8001e12:	d00b      	beq.n	8001e2c <HAL_TIM_Base_Start+0x4c>
 8001e14:	f502 4278 	add.w	r2, r2, #63488	; 0xf800
 8001e18:	4293      	cmp	r3, r2
 8001e1a:	d007      	beq.n	8001e2c <HAL_TIM_Base_Start+0x4c>
 8001e1c:	f502 5270 	add.w	r2, r2, #15360	; 0x3c00
 8001e20:	4293      	cmp	r3, r2
 8001e22:	d003      	beq.n	8001e2c <HAL_TIM_Base_Start+0x4c>
 8001e24:	f5a2 3294 	sub.w	r2, r2, #75776	; 0x12800
 8001e28:	4293      	cmp	r3, r2
 8001e2a:	d104      	bne.n	8001e36 <HAL_TIM_Base_Start+0x56>
 8001e2c:	689a      	ldr	r2, [r3, #8]
 8001e2e:	f002 0207 	and.w	r2, r2, #7
 8001e32:	2a06      	cmp	r2, #6
 8001e34:	d003      	beq.n	8001e3e <HAL_TIM_Base_Start+0x5e>
 8001e36:	681a      	ldr	r2, [r3, #0]
 8001e38:	f042 0201 	orr.w	r2, r2, #1
 8001e3c:	601a      	str	r2, [r3, #0]
 8001e3e:	2000      	movs	r0, #0
 8001e40:	4770      	bx	lr
 8001e42:	2001      	movs	r0, #1
 8001e44:	4770      	bx	lr
 8001e46:	bf00      	nop
 8001e48:	40010000 	.word	0x40010000

08001e4c <HAL_TIM_PeriodElapsedCallback>:
 8001e4c:	4770      	bx	lr

08001e4e <HAL_TIM_OC_DelayElapsedCallback>:
 8001e4e:	4770      	bx	lr

08001e50 <HAL_TIM_IC_CaptureCallback>:
 8001e50:	4770      	bx	lr

08001e52 <HAL_TIM_PWM_PulseFinishedCallback>:
 8001e52:	4770      	bx	lr

08001e54 <HAL_TIM_TriggerCallback>:
 8001e54:	4770      	bx	lr

08001e56 <HAL_TIM_IRQHandler>:
 8001e56:	6803      	ldr	r3, [r0, #0]
 8001e58:	691a      	ldr	r2, [r3, #16]
 8001e5a:	0791      	lsls	r1, r2, #30
 8001e5c:	b510      	push	{r4, lr}
 8001e5e:	4604      	mov	r4, r0
 8001e60:	d50e      	bpl.n	8001e80 <HAL_TIM_IRQHandler+0x2a>
 8001e62:	68da      	ldr	r2, [r3, #12]
 8001e64:	0792      	lsls	r2, r2, #30
 8001e66:	d50b      	bpl.n	8001e80 <HAL_TIM_IRQHandler+0x2a>
 8001e68:	f06f 0202 	mvn.w	r2, #2
 8001e6c:	611a      	str	r2, [r3, #16]
 8001e6e:	2201      	movs	r2, #1
 8001e70:	7702      	strb	r2, [r0, #28]
 8001e72:	699b      	ldr	r3, [r3, #24]
 8001e74:	079b      	lsls	r3, r3, #30
 8001e76:	d077      	beq.n	8001f68 <HAL_TIM_IRQHandler+0x112>
 8001e78:	f7ff ffea 	bl	8001e50 <HAL_TIM_IC_CaptureCallback>
 8001e7c:	2300      	movs	r3, #0
 8001e7e:	7723      	strb	r3, [r4, #28]
 8001e80:	6823      	ldr	r3, [r4, #0]
 8001e82:	691a      	ldr	r2, [r3, #16]
 8001e84:	0750      	lsls	r0, r2, #29
 8001e86:	d510      	bpl.n	8001eaa <HAL_TIM_IRQHandler+0x54>
 8001e88:	68da      	ldr	r2, [r3, #12]
 8001e8a:	0751      	lsls	r1, r2, #29
 8001e8c:	d50d      	bpl.n	8001eaa <HAL_TIM_IRQHandler+0x54>
 8001e8e:	f06f 0204 	mvn.w	r2, #4
 8001e92:	611a      	str	r2, [r3, #16]
 8001e94:	2202      	movs	r2, #2
 8001e96:	7722      	strb	r2, [r4, #28]
 8001e98:	699b      	ldr	r3, [r3, #24]
 8001e9a:	f413 7f40 	tst.w	r3, #768	; 0x300
 8001e9e:	4620      	mov	r0, r4
 8001ea0:	d068      	beq.n	8001f74 <HAL_TIM_IRQHandler+0x11e>
 8001ea2:	f7ff ffd5 	bl	8001e50 <HAL_TIM_IC_CaptureCallback>
 8001ea6:	2300      	movs	r3, #0
 8001ea8:	7723      	strb	r3, [r4, #28]
 8001eaa:	6823      	ldr	r3, [r4, #0]
 8001eac:	691a      	ldr	r2, [r3, #16]
 8001eae:	0712      	lsls	r2, r2, #28
 8001eb0:	d50f      	bpl.n	8001ed2 <HAL_TIM_IRQHandler+0x7c>
 8001eb2:	68da      	ldr	r2, [r3, #12]
 8001eb4:	0710      	lsls	r0, r2, #28
 8001eb6:	d50c      	bpl.n	8001ed2 <HAL_TIM_IRQHandler+0x7c>
 8001eb8:	f06f 0208 	mvn.w	r2, #8
 8001ebc:	611a      	str	r2, [r3, #16]
 8001ebe:	2204      	movs	r2, #4
 8001ec0:	7722      	strb	r2, [r4, #28]
 8001ec2:	69db      	ldr	r3, [r3, #28]
 8001ec4:	0799      	lsls	r1, r3, #30
 8001ec6:	4620      	mov	r0, r4
 8001ec8:	d05a      	beq.n	8001f80 <HAL_TIM_IRQHandler+0x12a>
 8001eca:	f7ff ffc1 	bl	8001e50 <HAL_TIM_IC_CaptureCallback>
 8001ece:	2300      	movs	r3, #0
 8001ed0:	7723      	strb	r3, [r4, #28]
 8001ed2:	6823      	ldr	r3, [r4, #0]
 8001ed4:	691a      	ldr	r2, [r3, #16]
 8001ed6:	06d2      	lsls	r2, r2, #27
 8001ed8:	d510      	bpl.n	8001efc <HAL_TIM_IRQHandler+0xa6>
 8001eda:	68da      	ldr	r2, [r3, #12]
 8001edc:	06d0      	lsls	r0, r2, #27
 8001ede:	d50d      	bpl.n	8001efc <HAL_TIM_IRQHandler+0xa6>
 8001ee0:	f06f 0210 	mvn.w	r2, #16
 8001ee4:	611a      	str	r2, [r3, #16]
 8001ee6:	2208      	movs	r2, #8
 8001ee8:	7722      	strb	r2, [r4, #28]
 8001eea:	69db      	ldr	r3, [r3, #28]
 8001eec:	f413 7f40 	tst.w	r3, #768	; 0x300
 8001ef0:	4620      	mov	r0, r4
 8001ef2:	d04b      	beq.n	8001f8c <HAL_TIM_IRQHandler+0x136>
 8001ef4:	f7ff ffac 	bl	8001e50 <HAL_TIM_IC_CaptureCallback>
 8001ef8:	2300      	movs	r3, #0
 8001efa:	7723      	strb	r3, [r4, #28]
 8001efc:	6823      	ldr	r3, [r4, #0]
 8001efe:	691a      	ldr	r2, [r3, #16]
 8001f00:	07d1      	lsls	r1, r2, #31
 8001f02:	d508      	bpl.n	8001f16 <HAL_TIM_IRQHandler+0xc0>
 8001f04:	68da      	ldr	r2, [r3, #12]
 8001f06:	07d2      	lsls	r2, r2, #31
 8001f08:	d505      	bpl.n	8001f16 <HAL_TIM_IRQHandler+0xc0>
 8001f0a:	f06f 0201 	mvn.w	r2, #1
 8001f0e:	611a      	str	r2, [r3, #16]
 8001f10:	4620      	mov	r0, r4
 8001f12:	f7ff ff9b 	bl	8001e4c <HAL_TIM_PeriodElapsedCallback>
 8001f16:	6823      	ldr	r3, [r4, #0]
 8001f18:	691a      	ldr	r2, [r3, #16]
 8001f1a:	0610      	lsls	r0, r2, #24
 8001f1c:	d508      	bpl.n	8001f30 <HAL_TIM_IRQHandler+0xda>
 8001f1e:	68da      	ldr	r2, [r3, #12]
 8001f20:	0611      	lsls	r1, r2, #24
 8001f22:	d505      	bpl.n	8001f30 <HAL_TIM_IRQHandler+0xda>
 8001f24:	f06f 0280 	mvn.w	r2, #128	; 0x80
 8001f28:	611a      	str	r2, [r3, #16]
 8001f2a:	4620      	mov	r0, r4
 8001f2c:	f000 fb55 	bl	80025da <HAL_TIMEx_BreakCallback>
 8001f30:	6823      	ldr	r3, [r4, #0]
 8001f32:	691a      	ldr	r2, [r3, #16]
 8001f34:	0652      	lsls	r2, r2, #25
 8001f36:	d508      	bpl.n	8001f4a <HAL_TIM_IRQHandler+0xf4>
 8001f38:	68da      	ldr	r2, [r3, #12]
 8001f3a:	0650      	lsls	r0, r2, #25
 8001f3c:	d505      	bpl.n	8001f4a <HAL_TIM_IRQHandler+0xf4>
 8001f3e:	f06f 0240 	mvn.w	r2, #64	; 0x40
 8001f42:	611a      	str	r2, [r3, #16]
 8001f44:	4620      	mov	r0, r4
 8001f46:	f7ff ff85 	bl	8001e54 <HAL_TIM_TriggerCallback>
 8001f4a:	6823      	ldr	r3, [r4, #0]
 8001f4c:	691a      	ldr	r2, [r3, #16]
 8001f4e:	0691      	lsls	r1, r2, #26
 8001f50:	d522      	bpl.n	8001f98 <HAL_TIM_IRQHandler+0x142>
 8001f52:	68da      	ldr	r2, [r3, #12]
 8001f54:	0692      	lsls	r2, r2, #26
 8001f56:	d51f      	bpl.n	8001f98 <HAL_TIM_IRQHandler+0x142>
 8001f58:	f06f 0220 	mvn.w	r2, #32
 8001f5c:	4620      	mov	r0, r4
 8001f5e:	611a      	str	r2, [r3, #16]
 8001f60:	e8bd 4010 	ldmia.w	sp!, {r4, lr}
 8001f64:	f000 bb38 	b.w	80025d8 <HAL_TIMEx_CommutCallback>
 8001f68:	f7ff ff71 	bl	8001e4e <HAL_TIM_OC_DelayElapsedCallback>
 8001f6c:	4620      	mov	r0, r4
 8001f6e:	f7ff ff70 	bl	8001e52 <HAL_TIM_PWM_PulseFinishedCallback>
 8001f72:	e783      	b.n	8001e7c <HAL_TIM_IRQHandler+0x26>
 8001f74:	f7ff ff6b 	bl	8001e4e <HAL_TIM_OC_DelayElapsedCallback>
 8001f78:	4620      	mov	r0, r4
 8001f7a:	f7ff ff6a 	bl	8001e52 <HAL_TIM_PWM_PulseFinishedCallback>
 8001f7e:	e792      	b.n	8001ea6 <HAL_TIM_IRQHandler+0x50>
 8001f80:	f7ff ff65 	bl	8001e4e <HAL_TIM_OC_DelayElapsedCallback>
 8001f84:	4620      	mov	r0, r4
 8001f86:	f7ff ff64 	bl	8001e52 <HAL_TIM_PWM_PulseFinishedCallback>
 8001f8a:	e7a0      	b.n	8001ece <HAL_TIM_IRQHandler+0x78>
 8001f8c:	f7ff ff5f 	bl	8001e4e <HAL_TIM_OC_DelayElapsedCallback>
 8001f90:	4620      	mov	r0, r4
 8001f92:	f7ff ff5e 	bl	8001e52 <HAL_TIM_PWM_PulseFinishedCallback>
 8001f96:	e7af      	b.n	8001ef8 <HAL_TIM_IRQHandler+0xa2>
 8001f98:	bd10      	pop	{r4, pc}
	...

08001f9c <TIM_Base_SetConfig>:
 8001f9c:	4a30      	ldr	r2, [pc, #192]	; (8002060 <TIM_Base_SetConfig+0xc4>)
 8001f9e:	6803      	ldr	r3, [r0, #0]
 8001fa0:	4290      	cmp	r0, r2
 8001fa2:	d012      	beq.n	8001fca <TIM_Base_SetConfig+0x2e>
 8001fa4:	f1b0 4f80 	cmp.w	r0, #1073741824	; 0x40000000
 8001fa8:	d00f      	beq.n	8001fca <TIM_Base_SetConfig+0x2e>
 8001faa:	f5a2 427c 	sub.w	r2, r2, #64512	; 0xfc00
 8001fae:	4290      	cmp	r0, r2
 8001fb0:	d00b      	beq.n	8001fca <TIM_Base_SetConfig+0x2e>
 8001fb2:	f502 6280 	add.w	r2, r2, #1024	; 0x400
 8001fb6:	4290      	cmp	r0, r2
 8001fb8:	d007      	beq.n	8001fca <TIM_Base_SetConfig+0x2e>
 8001fba:	f502 6280 	add.w	r2, r2, #1024	; 0x400
 8001fbe:	4290      	cmp	r0, r2
 8001fc0:	d003      	beq.n	8001fca <TIM_Base_SetConfig+0x2e>
 8001fc2:	f502 4278 	add.w	r2, r2, #63488	; 0xf800
 8001fc6:	4290      	cmp	r0, r2
 8001fc8:	d119      	bne.n	8001ffe <TIM_Base_SetConfig+0x62>
 8001fca:	684a      	ldr	r2, [r1, #4]
 8001fcc:	f023 0370 	bic.w	r3, r3, #112	; 0x70
 8001fd0:	4313      	orrs	r3, r2
 8001fd2:	4a23      	ldr	r2, [pc, #140]	; (8002060 <TIM_Base_SetConfig+0xc4>)
 8001fd4:	4290      	cmp	r0, r2
 8001fd6:	d029      	beq.n	800202c <TIM_Base_SetConfig+0x90>
 8001fd8:	f1b0 4f80 	cmp.w	r0, #1073741824	; 0x40000000
 8001fdc:	d026      	beq.n	800202c <TIM_Base_SetConfig+0x90>
 8001fde:	f5a2 427c 	sub.w	r2, r2, #64512	; 0xfc00
 8001fe2:	4290      	cmp	r0, r2
 8001fe4:	d022      	beq.n	800202c <TIM_Base_SetConfig+0x90>
 8001fe6:	f502 6280 	add.w	r2, r2, #1024	; 0x400
 8001fea:	4290      	cmp	r0, r2
 8001fec:	d01e      	beq.n	800202c <TIM_Base_SetConfig+0x90>
 8001fee:	f502 6280 	add.w	r2, r2, #1024	; 0x400
 8001ff2:	4290      	cmp	r0, r2
 8001ff4:	d01a      	beq.n	800202c <TIM_Base_SetConfig+0x90>
 8001ff6:	f502 4278 	add.w	r2, r2, #63488	; 0xf800
 8001ffa:	4290      	cmp	r0, r2
 8001ffc:	d016      	beq.n	800202c <TIM_Base_SetConfig+0x90>
 8001ffe:	4a19      	ldr	r2, [pc, #100]	; (8002064 <TIM_Base_SetConfig+0xc8>)
 8002000:	4290      	cmp	r0, r2
 8002002:	d013      	beq.n	800202c <TIM_Base_SetConfig+0x90>
 8002004:	f502 6280 	add.w	r2, r2, #1024	; 0x400
 8002008:	4290      	cmp	r0, r2
 800200a:	d00f      	beq.n	800202c <TIM_Base_SetConfig+0x90>
 800200c:	f502 6280 	add.w	r2, r2, #1024	; 0x400
 8002010:	4290      	cmp	r0, r2
 8002012:	d00b      	beq.n	800202c <TIM_Base_SetConfig+0x90>
 8002014:	f5a2 3298 	sub.w	r2, r2, #77824	; 0x13000
 8002018:	4290      	cmp	r0, r2
 800201a:	d007      	beq.n	800202c <TIM_Base_SetConfig+0x90>
 800201c:	f502 6280 	add.w	r2, r2, #1024	; 0x400
 8002020:	4290      	cmp	r0, r2
 8002022:	d003      	beq.n	800202c <TIM_Base_SetConfig+0x90>
 8002024:	f502 6280 	add.w	r2, r2, #1024	; 0x400
 8002028:	4290      	cmp	r0, r2
 800202a:	d103      	bne.n	8002034 <TIM_Base_SetConfig+0x98>
 800202c:	68ca      	ldr	r2, [r1, #12]
 800202e:	f423 7340 	bic.w	r3, r3, #768	; 0x300
 8002032:	4313      	orrs	r3, r2
 8002034:	694a      	ldr	r2, [r1, #20]
 8002036:	f023 0380 	bic.w	r3, r3, #128	; 0x80
 800203a:	4313      	orrs	r3, r2
 800203c:	6003      	str	r3, [r0, #0]
 800203e:	688b      	ldr	r3, [r1, #8]
 8002040:	62c3      	str	r3, [r0, #44]	; 0x2c
 8002042:	680b      	ldr	r3, [r1, #0]
 8002044:	6283      	str	r3, [r0, #40]	; 0x28
 8002046:	4b06      	ldr	r3, [pc, #24]	; (8002060 <TIM_Base_SetConfig+0xc4>)
 8002048:	4298      	cmp	r0, r3
 800204a:	d003      	beq.n	8002054 <TIM_Base_SetConfig+0xb8>
 800204c:	f503 6380 	add.w	r3, r3, #1024	; 0x400
 8002050:	4298      	cmp	r0, r3
 8002052:	d101      	bne.n	8002058 <TIM_Base_SetConfig+0xbc>
 8002054:	690b      	ldr	r3, [r1, #16]
 8002056:	6303      	str	r3, [r0, #48]	; 0x30
 8002058:	2301      	movs	r3, #1
 800205a:	6143      	str	r3, [r0, #20]
 800205c:	4770      	bx	lr
 800205e:	bf00      	nop
 8002060:	40010000 	.word	0x40010000
 8002064:	40014000 	.word	0x40014000

08002068 <HAL_TIM_Base_Init>:
 8002068:	b510      	push	{r4, lr}
 800206a:	4604      	mov	r4, r0
 800206c:	b330      	cbz	r0, 80020bc <HAL_TIM_Base_Init+0x54>
 800206e:	f890 303d 	ldrb.w	r3, [r0, #61]	; 0x3d
 8002072:	f003 02ff 	and.w	r2, r3, #255	; 0xff
 8002076:	b91b      	cbnz	r3, 8002080 <HAL_TIM_Base_Init+0x18>
 8002078:	f880 203c 	strb.w	r2, [r0, #60]	; 0x3c
 800207c:	f7fe fe16 	bl	8000cac <HAL_TIM_Base_MspInit>
 8002080:	2302      	movs	r3, #2
 8002082:	6820      	ldr	r0, [r4, #0]
 8002084:	f884 303d 	strb.w	r3, [r4, #61]	; 0x3d
 8002088:	1d21      	adds	r1, r4, #4
 800208a:	f7ff ff87 	bl	8001f9c <TIM_Base_SetConfig>
 800208e:	2301      	movs	r3, #1
 8002090:	f884 3046 	strb.w	r3, [r4, #70]	; 0x46
 8002094:	2000      	movs	r0, #0
 8002096:	f884 303e 	strb.w	r3, [r4, #62]	; 0x3e
 800209a:	f884 303f 	strb.w	r3, [r4, #63]	; 0x3f
 800209e:	f884 3040 	strb.w	r3, [r4, #64]	; 0x40
 80020a2:	f884 3041 	strb.w	r3, [r4, #65]	; 0x41
 80020a6:	f884 3042 	strb.w	r3, [r4, #66]	; 0x42
 80020aa:	f884 3043 	strb.w	r3, [r4, #67]	; 0x43
 80020ae:	f884 3044 	strb.w	r3, [r4, #68]	; 0x44
 80020b2:	f884 3045 	strb.w	r3, [r4, #69]	; 0x45
 80020b6:	f884 303d 	strb.w	r3, [r4, #61]	; 0x3d
 80020ba:	bd10      	pop	{r4, pc}
 80020bc:	2001      	movs	r0, #1
 80020be:	e7fc      	b.n	80020ba <HAL_TIM_Base_Init+0x52>

080020c0 <HAL_TIM_PWM_Init>:
 80020c0:	b510      	push	{r4, lr}
 80020c2:	4604      	mov	r4, r0
 80020c4:	b330      	cbz	r0, 8002114 <HAL_TIM_PWM_Init+0x54>
 80020c6:	f890 303d 	ldrb.w	r3, [r0, #61]	; 0x3d
 80020ca:	f003 02ff 	and.w	r2, r3, #255	; 0xff
 80020ce:	b91b      	cbnz	r3, 80020d8 <HAL_TIM_PWM_Init+0x18>
 80020d0:	f880 203c 	strb.w	r2, [r0, #60]	; 0x3c
 80020d4:	f7fe fe22 	bl	8000d1c <HAL_TIM_PWM_MspInit>
 80020d8:	2302      	movs	r3, #2
 80020da:	6820      	ldr	r0, [r4, #0]
 80020dc:	f884 303d 	strb.w	r3, [r4, #61]	; 0x3d
 80020e0:	1d21      	adds	r1, r4, #4
 80020e2:	f7ff ff5b 	bl	8001f9c <TIM_Base_SetConfig>
 80020e6:	2301      	movs	r3, #1
 80020e8:	f884 3046 	strb.w	r3, [r4, #70]	; 0x46
 80020ec:	2000      	movs	r0, #0
 80020ee:	f884 303e 	strb.w	r3, [r4, #62]	; 0x3e
 80020f2:	f884 303f 	strb.w	r3, [r4, #63]	; 0x3f
 80020f6:	f884 3040 	strb.w	r3, [r4, #64]	; 0x40
 80020fa:	f884 3041 	strb.w	r3, [r4, #65]	; 0x41
 80020fe:	f884 3042 	strb.w	r3, [r4, #66]	; 0x42
 8002102:	f884 3043 	strb.w	r3, [r4, #67]	; 0x43
 8002106:	f884 3044 	strb.w	r3, [r4, #68]	; 0x44
 800210a:	f884 3045 	strb.w	r3, [r4, #69]	; 0x45
 800210e:	f884 303d 	strb.w	r3, [r4, #61]	; 0x3d
 8002112:	bd10      	pop	{r4, pc}
 8002114:	2001      	movs	r0, #1
 8002116:	e7fc      	b.n	8002112 <HAL_TIM_PWM_Init+0x52>

08002118 <TIM_OC2_SetConfig>:
 8002118:	6a03      	ldr	r3, [r0, #32]
 800211a:	f023 0310 	bic.w	r3, r3, #16
 800211e:	6203      	str	r3, [r0, #32]
 8002120:	6a03      	ldr	r3, [r0, #32]
 8002122:	b570      	push	{r4, r5, r6, lr}
 8002124:	6844      	ldr	r4, [r0, #4]
 8002126:	6982      	ldr	r2, [r0, #24]
 8002128:	680d      	ldr	r5, [r1, #0]
 800212a:	f422 42e6 	bic.w	r2, r2, #29440	; 0x7300
 800212e:	ea42 2205 	orr.w	r2, r2, r5, lsl #8
 8002132:	688d      	ldr	r5, [r1, #8]
 8002134:	f023 0320 	bic.w	r3, r3, #32
 8002138:	ea43 1305 	orr.w	r3, r3, r5, lsl #4
 800213c:	4d10      	ldr	r5, [pc, #64]	; (8002180 <TIM_OC2_SetConfig+0x68>)
 800213e:	42a8      	cmp	r0, r5
 8002140:	d003      	beq.n	800214a <TIM_OC2_SetConfig+0x32>
 8002142:	f505 6580 	add.w	r5, r5, #1024	; 0x400
 8002146:	42a8      	cmp	r0, r5
 8002148:	d114      	bne.n	8002174 <TIM_OC2_SetConfig+0x5c>
 800214a:	68cd      	ldr	r5, [r1, #12]
 800214c:	f023 0380 	bic.w	r3, r3, #128	; 0x80
 8002150:	ea43 1305 	orr.w	r3, r3, r5, lsl #4
 8002154:	4d0a      	ldr	r5, [pc, #40]	; (8002180 <TIM_OC2_SetConfig+0x68>)
 8002156:	42a8      	cmp	r0, r5
 8002158:	f023 0340 	bic.w	r3, r3, #64	; 0x40
 800215c:	d003      	beq.n	8002166 <TIM_OC2_SetConfig+0x4e>
 800215e:	f505 6580 	add.w	r5, r5, #1024	; 0x400
 8002162:	42a8      	cmp	r0, r5
 8002164:	d106      	bne.n	8002174 <TIM_OC2_SetConfig+0x5c>
 8002166:	e9d1 5605 	ldrd	r5, r6, [r1, #20]
 800216a:	f424 6440 	bic.w	r4, r4, #3072	; 0xc00
 800216e:	4335      	orrs	r5, r6
 8002170:	ea44 0485 	orr.w	r4, r4, r5, lsl #2
 8002174:	6044      	str	r4, [r0, #4]
 8002176:	6182      	str	r2, [r0, #24]
 8002178:	684a      	ldr	r2, [r1, #4]
 800217a:	6382      	str	r2, [r0, #56]	; 0x38
 800217c:	6203      	str	r3, [r0, #32]
 800217e:	bd70      	pop	{r4, r5, r6, pc}
 8002180:	40010000 	.word	0x40010000

08002184 <HAL_TIM_PWM_ConfigChannel>:
 8002184:	b538      	push	{r3, r4, r5, lr}
 8002186:	f890 303c 	ldrb.w	r3, [r0, #60]	; 0x3c
 800218a:	2b01      	cmp	r3, #1
 800218c:	4604      	mov	r4, r0
 800218e:	d052      	beq.n	8002236 <HAL_TIM_PWM_ConfigChannel+0xb2>
 8002190:	2301      	movs	r3, #1
 8002192:	2a08      	cmp	r2, #8
 8002194:	f880 303c 	strb.w	r3, [r0, #60]	; 0x3c
 8002198:	d03c      	beq.n	8002214 <HAL_TIM_PWM_ConfigChannel+0x90>
 800219a:	d806      	bhi.n	80021aa <HAL_TIM_PWM_ConfigChannel+0x26>
 800219c:	b1c2      	cbz	r2, 80021d0 <HAL_TIM_PWM_ConfigChannel+0x4c>
 800219e:	2a04      	cmp	r2, #4
 80021a0:	d027      	beq.n	80021f2 <HAL_TIM_PWM_ConfigChannel+0x6e>
 80021a2:	2000      	movs	r0, #0
 80021a4:	f884 003c 	strb.w	r0, [r4, #60]	; 0x3c
 80021a8:	bd38      	pop	{r3, r4, r5, pc}
 80021aa:	2a0c      	cmp	r2, #12
 80021ac:	d1f9      	bne.n	80021a2 <HAL_TIM_PWM_ConfigChannel+0x1e>
 80021ae:	6800      	ldr	r0, [r0, #0]
 80021b0:	f7ff fdf0 	bl	8001d94 <TIM_OC4_SetConfig>
 80021b4:	6823      	ldr	r3, [r4, #0]
 80021b6:	6909      	ldr	r1, [r1, #16]
 80021b8:	69da      	ldr	r2, [r3, #28]
 80021ba:	f442 6200 	orr.w	r2, r2, #2048	; 0x800
 80021be:	61da      	str	r2, [r3, #28]
 80021c0:	69da      	ldr	r2, [r3, #28]
 80021c2:	f422 6280 	bic.w	r2, r2, #1024	; 0x400
 80021c6:	61da      	str	r2, [r3, #28]
 80021c8:	69da      	ldr	r2, [r3, #28]
 80021ca:	ea42 2201 	orr.w	r2, r2, r1, lsl #8
 80021ce:	e030      	b.n	8002232 <HAL_TIM_PWM_ConfigChannel+0xae>
 80021d0:	6800      	ldr	r0, [r0, #0]
 80021d2:	f7ff fd77 	bl	8001cc4 <TIM_OC1_SetConfig>
 80021d6:	6823      	ldr	r3, [r4, #0]
 80021d8:	6909      	ldr	r1, [r1, #16]
 80021da:	699a      	ldr	r2, [r3, #24]
 80021dc:	f042 0208 	orr.w	r2, r2, #8
 80021e0:	619a      	str	r2, [r3, #24]
 80021e2:	699a      	ldr	r2, [r3, #24]
 80021e4:	f022 0204 	bic.w	r2, r2, #4
 80021e8:	619a      	str	r2, [r3, #24]
 80021ea:	699a      	ldr	r2, [r3, #24]
 80021ec:	430a      	orrs	r2, r1
 80021ee:	619a      	str	r2, [r3, #24]
 80021f0:	e7d7      	b.n	80021a2 <HAL_TIM_PWM_ConfigChannel+0x1e>
 80021f2:	6800      	ldr	r0, [r0, #0]
 80021f4:	f7ff ff90 	bl	8002118 <TIM_OC2_SetConfig>
 80021f8:	6823      	ldr	r3, [r4, #0]
 80021fa:	6909      	ldr	r1, [r1, #16]
 80021fc:	699a      	ldr	r2, [r3, #24]
 80021fe:	f442 6200 	orr.w	r2, r2, #2048	; 0x800
 8002202:	619a      	str	r2, [r3, #24]
 8002204:	699a      	ldr	r2, [r3, #24]
 8002206:	f422 6280 	bic.w	r2, r2, #1024	; 0x400
 800220a:	619a      	str	r2, [r3, #24]
 800220c:	699a      	ldr	r2, [r3, #24]
 800220e:	ea42 2201 	orr.w	r2, r2, r1, lsl #8
 8002212:	e7ec      	b.n	80021ee <HAL_TIM_PWM_ConfigChannel+0x6a>
 8002214:	6800      	ldr	r0, [r0, #0]
 8002216:	f7ff fd87 	bl	8001d28 <TIM_OC3_SetConfig>
 800221a:	6823      	ldr	r3, [r4, #0]
 800221c:	6909      	ldr	r1, [r1, #16]
 800221e:	69da      	ldr	r2, [r3, #28]
 8002220:	f042 0208 	orr.w	r2, r2, #8
 8002224:	61da      	str	r2, [r3, #28]
 8002226:	69da      	ldr	r2, [r3, #28]
 8002228:	f022 0204 	bic.w	r2, r2, #4
 800222c:	61da      	str	r2, [r3, #28]
 800222e:	69da      	ldr	r2, [r3, #28]
 8002230:	430a      	orrs	r2, r1
 8002232:	61da      	str	r2, [r3, #28]
 8002234:	e7b5      	b.n	80021a2 <HAL_TIM_PWM_ConfigChannel+0x1e>
 8002236:	2002      	movs	r0, #2
 8002238:	e7b6      	b.n	80021a8 <HAL_TIM_PWM_ConfigChannel+0x24>

0800223a <TIM_ETR_SetConfig>:
 800223a:	b510      	push	{r4, lr}
 800223c:	6884      	ldr	r4, [r0, #8]
 800223e:	4311      	orrs	r1, r2
 8002240:	f424 447f 	bic.w	r4, r4, #65280	; 0xff00
 8002244:	ea41 2303 	orr.w	r3, r1, r3, lsl #8
 8002248:	4323      	orrs	r3, r4
 800224a:	6083      	str	r3, [r0, #8]
 800224c:	bd10      	pop	{r4, pc}

0800224e <HAL_TIM_ConfigClockSource>:
 800224e:	b570      	push	{r4, r5, r6, lr}
 8002250:	f890 303c 	ldrb.w	r3, [r0, #60]	; 0x3c
 8002254:	2b01      	cmp	r3, #1
 8002256:	4604      	mov	r4, r0
 8002258:	f04f 0002 	mov.w	r0, #2
 800225c:	d027      	beq.n	80022ae <HAL_TIM_ConfigClockSource+0x60>
 800225e:	f884 003d 	strb.w	r0, [r4, #61]	; 0x3d
 8002262:	2301      	movs	r3, #1
 8002264:	6820      	ldr	r0, [r4, #0]
 8002266:	f884 303c 	strb.w	r3, [r4, #60]	; 0x3c
 800226a:	6883      	ldr	r3, [r0, #8]
 800226c:	f423 437f 	bic.w	r3, r3, #65280	; 0xff00
 8002270:	f023 0377 	bic.w	r3, r3, #119	; 0x77
 8002274:	6083      	str	r3, [r0, #8]
 8002276:	680b      	ldr	r3, [r1, #0]
 8002278:	2b60      	cmp	r3, #96	; 0x60
 800227a:	d04d      	beq.n	8002318 <HAL_TIM_ConfigClockSource+0xca>
 800227c:	d832      	bhi.n	80022e4 <HAL_TIM_ConfigClockSource+0x96>
 800227e:	2b40      	cmp	r3, #64	; 0x40
 8002280:	d062      	beq.n	8002348 <HAL_TIM_ConfigClockSource+0xfa>
 8002282:	d815      	bhi.n	80022b0 <HAL_TIM_ConfigClockSource+0x62>
 8002284:	2b20      	cmp	r3, #32
 8002286:	d003      	beq.n	8002290 <HAL_TIM_ConfigClockSource+0x42>
 8002288:	d809      	bhi.n	800229e <HAL_TIM_ConfigClockSource+0x50>
 800228a:	f033 0210 	bics.w	r2, r3, #16
 800228e:	d108      	bne.n	80022a2 <HAL_TIM_ConfigClockSource+0x54>
 8002290:	6882      	ldr	r2, [r0, #8]
 8002292:	f022 0270 	bic.w	r2, r2, #112	; 0x70
 8002296:	4313      	orrs	r3, r2
 8002298:	f043 0307 	orr.w	r3, r3, #7
 800229c:	e020      	b.n	80022e0 <HAL_TIM_ConfigClockSource+0x92>
 800229e:	2b30      	cmp	r3, #48	; 0x30
 80022a0:	d0f6      	beq.n	8002290 <HAL_TIM_ConfigClockSource+0x42>
 80022a2:	2301      	movs	r3, #1
 80022a4:	2000      	movs	r0, #0
 80022a6:	f884 303d 	strb.w	r3, [r4, #61]	; 0x3d
 80022aa:	f884 003c 	strb.w	r0, [r4, #60]	; 0x3c
 80022ae:	bd70      	pop	{r4, r5, r6, pc}
 80022b0:	2b50      	cmp	r3, #80	; 0x50
 80022b2:	d1f6      	bne.n	80022a2 <HAL_TIM_ConfigClockSource+0x54>
 80022b4:	684a      	ldr	r2, [r1, #4]
 80022b6:	68ce      	ldr	r6, [r1, #12]
 80022b8:	6a01      	ldr	r1, [r0, #32]
 80022ba:	6a05      	ldr	r5, [r0, #32]
 80022bc:	f025 0501 	bic.w	r5, r5, #1
 80022c0:	6205      	str	r5, [r0, #32]
 80022c2:	6983      	ldr	r3, [r0, #24]
 80022c4:	f021 010a 	bic.w	r1, r1, #10
 80022c8:	f023 03f0 	bic.w	r3, r3, #240	; 0xf0
 80022cc:	ea43 1306 	orr.w	r3, r3, r6, lsl #4
 80022d0:	430a      	orrs	r2, r1
 80022d2:	6183      	str	r3, [r0, #24]
 80022d4:	6202      	str	r2, [r0, #32]
 80022d6:	6883      	ldr	r3, [r0, #8]
 80022d8:	f023 0370 	bic.w	r3, r3, #112	; 0x70
 80022dc:	f043 0357 	orr.w	r3, r3, #87	; 0x57
 80022e0:	6083      	str	r3, [r0, #8]
 80022e2:	e7de      	b.n	80022a2 <HAL_TIM_ConfigClockSource+0x54>
 80022e4:	2b70      	cmp	r3, #112	; 0x70
 80022e6:	d00c      	beq.n	8002302 <HAL_TIM_ConfigClockSource+0xb4>
 80022e8:	f5b3 5f00 	cmp.w	r3, #8192	; 0x2000
 80022ec:	d1d9      	bne.n	80022a2 <HAL_TIM_ConfigClockSource+0x54>
 80022ee:	68cb      	ldr	r3, [r1, #12]
 80022f0:	e9d1 2101 	ldrd	r2, r1, [r1, #4]
 80022f4:	f7ff ffa1 	bl	800223a <TIM_ETR_SetConfig>
 80022f8:	6822      	ldr	r2, [r4, #0]
 80022fa:	6893      	ldr	r3, [r2, #8]
 80022fc:	f443 4380 	orr.w	r3, r3, #16384	; 0x4000
 8002300:	e008      	b.n	8002314 <HAL_TIM_ConfigClockSource+0xc6>
 8002302:	68cb      	ldr	r3, [r1, #12]
 8002304:	e9d1 2101 	ldrd	r2, r1, [r1, #4]
 8002308:	f7ff ff97 	bl	800223a <TIM_ETR_SetConfig>
 800230c:	6822      	ldr	r2, [r4, #0]
 800230e:	6893      	ldr	r3, [r2, #8]
 8002310:	f043 0377 	orr.w	r3, r3, #119	; 0x77
 8002314:	6093      	str	r3, [r2, #8]
 8002316:	e7c4      	b.n	80022a2 <HAL_TIM_ConfigClockSource+0x54>
 8002318:	684d      	ldr	r5, [r1, #4]
 800231a:	68ce      	ldr	r6, [r1, #12]
 800231c:	6a01      	ldr	r1, [r0, #32]
 800231e:	f021 0110 	bic.w	r1, r1, #16
 8002322:	6201      	str	r1, [r0, #32]
 8002324:	6982      	ldr	r2, [r0, #24]
 8002326:	6a03      	ldr	r3, [r0, #32]
 8002328:	f422 4270 	bic.w	r2, r2, #61440	; 0xf000
 800232c:	f023 03a0 	bic.w	r3, r3, #160	; 0xa0
 8002330:	ea43 1305 	orr.w	r3, r3, r5, lsl #4
 8002334:	ea42 3206 	orr.w	r2, r2, r6, lsl #12
 8002338:	6182      	str	r2, [r0, #24]
 800233a:	6203      	str	r3, [r0, #32]
 800233c:	6883      	ldr	r3, [r0, #8]
 800233e:	f023 0370 	bic.w	r3, r3, #112	; 0x70
 8002342:	f043 0367 	orr.w	r3, r3, #103	; 0x67
 8002346:	e7cb      	b.n	80022e0 <HAL_TIM_ConfigClockSource+0x92>
 8002348:	684a      	ldr	r2, [r1, #4]
 800234a:	68ce      	ldr	r6, [r1, #12]
 800234c:	6a01      	ldr	r1, [r0, #32]
 800234e:	6a05      	ldr	r5, [r0, #32]
 8002350:	f025 0501 	bic.w	r5, r5, #1
 8002354:	6205      	str	r5, [r0, #32]
 8002356:	6983      	ldr	r3, [r0, #24]
 8002358:	f021 010a 	bic.w	r1, r1, #10
 800235c:	f023 03f0 	bic.w	r3, r3, #240	; 0xf0
 8002360:	ea43 1306 	orr.w	r3, r3, r6, lsl #4
 8002364:	430a      	orrs	r2, r1
 8002366:	6183      	str	r3, [r0, #24]
 8002368:	6202      	str	r2, [r0, #32]
 800236a:	6883      	ldr	r3, [r0, #8]
 800236c:	f023 0370 	bic.w	r3, r3, #112	; 0x70
 8002370:	f043 0347 	orr.w	r3, r3, #71	; 0x47
 8002374:	e7b4      	b.n	80022e0 <HAL_TIM_ConfigClockSource+0x92>

08002376 <TIM_CCxChannelCmd>:
 8002376:	6a03      	ldr	r3, [r0, #32]
 8002378:	f001 011f 	and.w	r1, r1, #31
 800237c:	b510      	push	{r4, lr}
 800237e:	2401      	movs	r4, #1
 8002380:	408c      	lsls	r4, r1
 8002382:	ea23 0304 	bic.w	r3, r3, r4
 8002386:	6203      	str	r3, [r0, #32]
 8002388:	6a03      	ldr	r3, [r0, #32]
 800238a:	408a      	lsls	r2, r1
 800238c:	431a      	orrs	r2, r3
 800238e:	6202      	str	r2, [r0, #32]
 8002390:	bd10      	pop	{r4, pc}
	...

08002394 <HAL_TIM_OC_Start>:
 8002394:	b510      	push	{r4, lr}
 8002396:	4604      	mov	r4, r0
 8002398:	b929      	cbnz	r1, 80023a6 <HAL_TIM_OC_Start+0x12>
 800239a:	f890 303e 	ldrb.w	r3, [r0, #62]	; 0x3e
 800239e:	2b01      	cmp	r3, #1
 80023a0:	d01d      	beq.n	80023de <HAL_TIM_OC_Start+0x4a>
 80023a2:	2001      	movs	r0, #1
 80023a4:	e032      	b.n	800240c <HAL_TIM_OC_Start+0x78>
 80023a6:	2904      	cmp	r1, #4
 80023a8:	d107      	bne.n	80023ba <HAL_TIM_OC_Start+0x26>
 80023aa:	f890 303f 	ldrb.w	r3, [r0, #63]	; 0x3f
 80023ae:	2b01      	cmp	r3, #1
 80023b0:	d1f7      	bne.n	80023a2 <HAL_TIM_OC_Start+0xe>
 80023b2:	2302      	movs	r3, #2
 80023b4:	f880 303f 	strb.w	r3, [r0, #63]	; 0x3f
 80023b8:	e014      	b.n	80023e4 <HAL_TIM_OC_Start+0x50>
 80023ba:	2908      	cmp	r1, #8
 80023bc:	d107      	bne.n	80023ce <HAL_TIM_OC_Start+0x3a>
 80023be:	f890 3040 	ldrb.w	r3, [r0, #64]	; 0x40
 80023c2:	2b01      	cmp	r3, #1
 80023c4:	d1ed      	bne.n	80023a2 <HAL_TIM_OC_Start+0xe>
 80023c6:	2302      	movs	r3, #2
 80023c8:	f880 3040 	strb.w	r3, [r0, #64]	; 0x40
 80023cc:	e00a      	b.n	80023e4 <HAL_TIM_OC_Start+0x50>
 80023ce:	f890 3041 	ldrb.w	r3, [r0, #65]	; 0x41
 80023d2:	2b01      	cmp	r3, #1
 80023d4:	d1e5      	bne.n	80023a2 <HAL_TIM_OC_Start+0xe>
 80023d6:	2302      	movs	r3, #2
 80023d8:	f880 3041 	strb.w	r3, [r0, #65]	; 0x41
 80023dc:	e002      	b.n	80023e4 <HAL_TIM_OC_Start+0x50>
 80023de:	2302      	movs	r3, #2
 80023e0:	f880 303e 	strb.w	r3, [r0, #62]	; 0x3e
 80023e4:	2201      	movs	r2, #1
 80023e6:	6820      	ldr	r0, [r4, #0]
 80023e8:	f7ff ffc5 	bl	8002376 <TIM_CCxChannelCmd>
 80023ec:	6823      	ldr	r3, [r4, #0]
 80023ee:	4a19      	ldr	r2, [pc, #100]	; (8002454 <HAL_TIM_OC_Start+0xc0>)
 80023f0:	4293      	cmp	r3, r2
 80023f2:	d00c      	beq.n	800240e <HAL_TIM_OC_Start+0x7a>
 80023f4:	4918      	ldr	r1, [pc, #96]	; (8002458 <HAL_TIM_OC_Start+0xc4>)
 80023f6:	428b      	cmp	r3, r1
 80023f8:	d009      	beq.n	800240e <HAL_TIM_OC_Start+0x7a>
 80023fa:	f1b3 4f80 	cmp.w	r3, #1073741824	; 0x40000000
 80023fe:	d10d      	bne.n	800241c <HAL_TIM_OC_Start+0x88>
 8002400:	689a      	ldr	r2, [r3, #8]
 8002402:	f002 0207 	and.w	r2, r2, #7
 8002406:	2a06      	cmp	r2, #6
 8002408:	d11f      	bne.n	800244a <HAL_TIM_OC_Start+0xb6>
 800240a:	2000      	movs	r0, #0
 800240c:	bd10      	pop	{r4, pc}
 800240e:	6c59      	ldr	r1, [r3, #68]	; 0x44
 8002410:	4293      	cmp	r3, r2
 8002412:	f441 4100 	orr.w	r1, r1, #32768	; 0x8000
 8002416:	6459      	str	r1, [r3, #68]	; 0x44
 8002418:	d0f2      	beq.n	8002400 <HAL_TIM_OC_Start+0x6c>
 800241a:	e7ee      	b.n	80023fa <HAL_TIM_OC_Start+0x66>
 800241c:	4a0f      	ldr	r2, [pc, #60]	; (800245c <HAL_TIM_OC_Start+0xc8>)
 800241e:	4293      	cmp	r3, r2
 8002420:	d0ee      	beq.n	8002400 <HAL_TIM_OC_Start+0x6c>
 8002422:	f502 6280 	add.w	r2, r2, #1024	; 0x400
 8002426:	4293      	cmp	r3, r2
 8002428:	d0ea      	beq.n	8002400 <HAL_TIM_OC_Start+0x6c>
 800242a:	f502 6280 	add.w	r2, r2, #1024	; 0x400
 800242e:	4293      	cmp	r3, r2
 8002430:	d0e6      	beq.n	8002400 <HAL_TIM_OC_Start+0x6c>
 8002432:	f502 4278 	add.w	r2, r2, #63488	; 0xf800
 8002436:	4293      	cmp	r3, r2
 8002438:	d0e2      	beq.n	8002400 <HAL_TIM_OC_Start+0x6c>
 800243a:	f502 5270 	add.w	r2, r2, #15360	; 0x3c00
 800243e:	4293      	cmp	r3, r2
 8002440:	d0de      	beq.n	8002400 <HAL_TIM_OC_Start+0x6c>
 8002442:	f5a2 3294 	sub.w	r2, r2, #75776	; 0x12800
 8002446:	4293      	cmp	r3, r2
 8002448:	d0da      	beq.n	8002400 <HAL_TIM_OC_Start+0x6c>
 800244a:	681a      	ldr	r2, [r3, #0]
 800244c:	f042 0201 	orr.w	r2, r2, #1
 8002450:	601a      	str	r2, [r3, #0]
 8002452:	e7da      	b.n	800240a <HAL_TIM_OC_Start+0x76>
 8002454:	40010000 	.word	0x40010000
 8002458:	40010400 	.word	0x40010400
 800245c:	40000400 	.word	0x40000400

08002460 <HAL_TIM_PWM_Start>:
 8002460:	f7ff bf98 	b.w	8002394 <HAL_TIM_OC_Start>

08002464 <HAL_TIM_OC_Start_IT>:
 8002464:	b510      	push	{r4, lr}
 8002466:	4604      	mov	r4, r0
 8002468:	b929      	cbnz	r1, 8002476 <HAL_TIM_OC_Start_IT+0x12>
 800246a:	f890 303e 	ldrb.w	r3, [r0, #62]	; 0x3e
 800246e:	2b01      	cmp	r3, #1
 8002470:	d02b      	beq.n	80024ca <HAL_TIM_OC_Start_IT+0x66>
 8002472:	2001      	movs	r0, #1
 8002474:	e045      	b.n	8002502 <HAL_TIM_OC_Start_IT+0x9e>
 8002476:	2904      	cmp	r1, #4
 8002478:	d10b      	bne.n	8002492 <HAL_TIM_OC_Start_IT+0x2e>
 800247a:	f890 303f 	ldrb.w	r3, [r0, #63]	; 0x3f
 800247e:	2b01      	cmp	r3, #1
 8002480:	d1f7      	bne.n	8002472 <HAL_TIM_OC_Start_IT+0xe>
 8002482:	2302      	movs	r3, #2
 8002484:	6802      	ldr	r2, [r0, #0]
 8002486:	f880 303f 	strb.w	r3, [r0, #63]	; 0x3f
 800248a:	68d3      	ldr	r3, [r2, #12]
 800248c:	f043 0304 	orr.w	r3, r3, #4
 8002490:	e022      	b.n	80024d8 <HAL_TIM_OC_Start_IT+0x74>
 8002492:	2908      	cmp	r1, #8
 8002494:	d10b      	bne.n	80024ae <HAL_TIM_OC_Start_IT+0x4a>
 8002496:	f890 3040 	ldrb.w	r3, [r0, #64]	; 0x40
 800249a:	2b01      	cmp	r3, #1
 800249c:	d1e9      	bne.n	8002472 <HAL_TIM_OC_Start_IT+0xe>
 800249e:	2302      	movs	r3, #2
 80024a0:	6802      	ldr	r2, [r0, #0]
 80024a2:	f880 3040 	strb.w	r3, [r0, #64]	; 0x40
 80024a6:	68d3      	ldr	r3, [r2, #12]
 80024a8:	f043 0308 	orr.w	r3, r3, #8
 80024ac:	e014      	b.n	80024d8 <HAL_TIM_OC_Start_IT+0x74>
 80024ae:	f890 3041 	ldrb.w	r3, [r0, #65]	; 0x41
 80024b2:	2b01      	cmp	r3, #1
 80024b4:	d1dd      	bne.n	8002472 <HAL_TIM_OC_Start_IT+0xe>
 80024b6:	2302      	movs	r3, #2
 80024b8:	290c      	cmp	r1, #12
 80024ba:	f880 3041 	strb.w	r3, [r0, #65]	; 0x41
 80024be:	d10c      	bne.n	80024da <HAL_TIM_OC_Start_IT+0x76>
 80024c0:	6802      	ldr	r2, [r0, #0]
 80024c2:	68d3      	ldr	r3, [r2, #12]
 80024c4:	f043 0310 	orr.w	r3, r3, #16
 80024c8:	e006      	b.n	80024d8 <HAL_TIM_OC_Start_IT+0x74>
 80024ca:	2302      	movs	r3, #2
 80024cc:	6802      	ldr	r2, [r0, #0]
 80024ce:	f880 303e 	strb.w	r3, [r0, #62]	; 0x3e
 80024d2:	68d3      	ldr	r3, [r2, #12]
 80024d4:	f043 0302 	orr.w	r3, r3, #2
 80024d8:	60d3      	str	r3, [r2, #12]
 80024da:	2201      	movs	r2, #1
 80024dc:	6820      	ldr	r0, [r4, #0]
 80024de:	f7ff ff4a 	bl	8002376 <TIM_CCxChannelCmd>
 80024e2:	6823      	ldr	r3, [r4, #0]
 80024e4:	4a19      	ldr	r2, [pc, #100]	; (800254c <HAL_TIM_OC_Start_IT+0xe8>)
 80024e6:	4293      	cmp	r3, r2
 80024e8:	d00c      	beq.n	8002504 <HAL_TIM_OC_Start_IT+0xa0>
 80024ea:	4919      	ldr	r1, [pc, #100]	; (8002550 <HAL_TIM_OC_Start_IT+0xec>)
 80024ec:	428b      	cmp	r3, r1
 80024ee:	d009      	beq.n	8002504 <HAL_TIM_OC_Start_IT+0xa0>
 80024f0:	f1b3 4f80 	cmp.w	r3, #1073741824	; 0x40000000
 80024f4:	d10d      	bne.n	8002512 <HAL_TIM_OC_Start_IT+0xae>
 80024f6:	689a      	ldr	r2, [r3, #8]
 80024f8:	f002 0207 	and.w	r2, r2, #7
 80024fc:	2a06      	cmp	r2, #6
 80024fe:	d11f      	bne.n	8002540 <HAL_TIM_OC_Start_IT+0xdc>
 8002500:	2000      	movs	r0, #0
 8002502:	bd10      	pop	{r4, pc}
 8002504:	6c59      	ldr	r1, [r3, #68]	; 0x44
 8002506:	4293      	cmp	r3, r2
 8002508:	f441 4100 	orr.w	r1, r1, #32768	; 0x8000
 800250c:	6459      	str	r1, [r3, #68]	; 0x44
 800250e:	d0f2      	beq.n	80024f6 <HAL_TIM_OC_Start_IT+0x92>
 8002510:	e7ee      	b.n	80024f0 <HAL_TIM_OC_Start_IT+0x8c>
 8002512:	4a10      	ldr	r2, [pc, #64]	; (8002554 <HAL_TIM_OC_Start_IT+0xf0>)
 8002514:	4293      	cmp	r3, r2
 8002516:	d0ee      	beq.n	80024f6 <HAL_TIM_OC_Start_IT+0x92>
 8002518:	f502 6280 	add.w	r2, r2, #1024	; 0x400
 800251c:	4293      	cmp	r3, r2
 800251e:	d0ea      	beq.n	80024f6 <HAL_TIM_OC_Start_IT+0x92>
 8002520:	f502 6280 	add.w	r2, r2, #1024	; 0x400
 8002524:	4293      	cmp	r3, r2
 8002526:	d0e6      	beq.n	80024f6 <HAL_TIM_OC_Start_IT+0x92>
 8002528:	f502 4278 	add.w	r2, r2, #63488	; 0xf800
 800252c:	4293      	cmp	r3, r2
 800252e:	d0e2      	beq.n	80024f6 <HAL_TIM_OC_Start_IT+0x92>
 8002530:	f502 5270 	add.w	r2, r2, #15360	; 0x3c00
 8002534:	4293      	cmp	r3, r2
 8002536:	d0de      	beq.n	80024f6 <HAL_TIM_OC_Start_IT+0x92>
 8002538:	f5a2 3294 	sub.w	r2, r2, #75776	; 0x12800
 800253c:	4293      	cmp	r3, r2
 800253e:	d0da      	beq.n	80024f6 <HAL_TIM_OC_Start_IT+0x92>
 8002540:	681a      	ldr	r2, [r3, #0]
 8002542:	f042 0201 	orr.w	r2, r2, #1
 8002546:	601a      	str	r2, [r3, #0]
 8002548:	e7da      	b.n	8002500 <HAL_TIM_OC_Start_IT+0x9c>
 800254a:	bf00      	nop
 800254c:	40010000 	.word	0x40010000
 8002550:	40010400 	.word	0x40010400
 8002554:	40000400 	.word	0x40000400

08002558 <HAL_TIM_PWM_Start_IT>:
 8002558:	f7ff bf84 	b.w	8002464 <HAL_TIM_OC_Start_IT>

0800255c <HAL_TIMEx_MasterConfigSynchronization>:
 800255c:	b530      	push	{r4, r5, lr}
 800255e:	f890 303c 	ldrb.w	r3, [r0, #60]	; 0x3c
 8002562:	2b01      	cmp	r3, #1
 8002564:	f04f 0302 	mov.w	r3, #2
 8002568:	d032      	beq.n	80025d0 <HAL_TIMEx_MasterConfigSynchronization+0x74>
 800256a:	f880 303d 	strb.w	r3, [r0, #61]	; 0x3d
 800256e:	6803      	ldr	r3, [r0, #0]
 8002570:	680d      	ldr	r5, [r1, #0]
 8002572:	685c      	ldr	r4, [r3, #4]
 8002574:	689a      	ldr	r2, [r3, #8]
 8002576:	f024 0470 	bic.w	r4, r4, #112	; 0x70
 800257a:	432c      	orrs	r4, r5
 800257c:	605c      	str	r4, [r3, #4]
 800257e:	4c15      	ldr	r4, [pc, #84]	; (80025d4 <HAL_TIMEx_MasterConfigSynchronization+0x78>)
 8002580:	42a3      	cmp	r3, r4
 8002582:	d01a      	beq.n	80025ba <HAL_TIMEx_MasterConfigSynchronization+0x5e>
 8002584:	f1b3 4f80 	cmp.w	r3, #1073741824	; 0x40000000
 8002588:	d017      	beq.n	80025ba <HAL_TIMEx_MasterConfigSynchronization+0x5e>
 800258a:	f5a4 447c 	sub.w	r4, r4, #64512	; 0xfc00
 800258e:	42a3      	cmp	r3, r4
 8002590:	d013      	beq.n	80025ba <HAL_TIMEx_MasterConfigSynchronization+0x5e>
 8002592:	f504 6480 	add.w	r4, r4, #1024	; 0x400
 8002596:	42a3      	cmp	r3, r4
 8002598:	d00f      	beq.n	80025ba <HAL_TIMEx_MasterConfigSynchronization+0x5e>
 800259a:	f504 6480 	add.w	r4, r4, #1024	; 0x400
 800259e:	42a3      	cmp	r3, r4
 80025a0:	d00b      	beq.n	80025ba <HAL_TIMEx_MasterConfigSynchronization+0x5e>
 80025a2:	f504 4478 	add.w	r4, r4, #63488	; 0xf800
 80025a6:	42a3      	cmp	r3, r4
 80025a8:	d007      	beq.n	80025ba <HAL_TIMEx_MasterConfigSynchronization+0x5e>
 80025aa:	f504 5470 	add.w	r4, r4, #15360	; 0x3c00
 80025ae:	42a3      	cmp	r3, r4
 80025b0:	d003      	beq.n	80025ba <HAL_TIMEx_MasterConfigSynchronization+0x5e>
 80025b2:	f5a4 3494 	sub.w	r4, r4, #75776	; 0x12800
 80025b6:	42a3      	cmp	r3, r4
 80025b8:	d104      	bne.n	80025c4 <HAL_TIMEx_MasterConfigSynchronization+0x68>
 80025ba:	6849      	ldr	r1, [r1, #4]
 80025bc:	f022 0280 	bic.w	r2, r2, #128	; 0x80
 80025c0:	430a      	orrs	r2, r1
 80025c2:	609a      	str	r2, [r3, #8]
 80025c4:	2301      	movs	r3, #1
 80025c6:	f880 303d 	strb.w	r3, [r0, #61]	; 0x3d
 80025ca:	2300      	movs	r3, #0
 80025cc:	f880 303c 	strb.w	r3, [r0, #60]	; 0x3c
 80025d0:	4618      	mov	r0, r3
 80025d2:	bd30      	pop	{r4, r5, pc}
 80025d4:	40010000 	.word	0x40010000

080025d8 <HAL_TIMEx_CommutCallback>:
 80025d8:	4770      	bx	lr

080025da <HAL_TIMEx_BreakCallback>:
 80025da:	4770      	bx	lr

080025dc <UART_EndRxTransfer>:
 80025dc:	6803      	ldr	r3, [r0, #0]
 80025de:	68da      	ldr	r2, [r3, #12]
 80025e0:	f422 7290 	bic.w	r2, r2, #288	; 0x120
 80025e4:	60da      	str	r2, [r3, #12]
 80025e6:	695a      	ldr	r2, [r3, #20]
 80025e8:	f022 0201 	bic.w	r2, r2, #1
 80025ec:	615a      	str	r2, [r3, #20]
 80025ee:	6b02      	ldr	r2, [r0, #48]	; 0x30
 80025f0:	2a01      	cmp	r2, #1
 80025f2:	bf02      	ittt	eq
 80025f4:	68da      	ldreq	r2, [r3, #12]
 80025f6:	f022 0210 	biceq.w	r2, r2, #16
 80025fa:	60da      	streq	r2, [r3, #12]
 80025fc:	2320      	movs	r3, #32
 80025fe:	f880 303e 	strb.w	r3, [r0, #62]	; 0x3e
 8002602:	2300      	movs	r3, #0
 8002604:	6303      	str	r3, [r0, #48]	; 0x30
 8002606:	4770      	bx	lr

08002608 <UART_SetConfig>:
 8002608:	6802      	ldr	r2, [r0, #0]
 800260a:	68c1      	ldr	r1, [r0, #12]
 800260c:	b538      	push	{r3, r4, r5, lr}
 800260e:	6913      	ldr	r3, [r2, #16]
 8002610:	f423 5340 	bic.w	r3, r3, #12288	; 0x3000
 8002614:	430b      	orrs	r3, r1
 8002616:	6113      	str	r3, [r2, #16]
 8002618:	4605      	mov	r5, r0
 800261a:	6883      	ldr	r3, [r0, #8]
 800261c:	6900      	ldr	r0, [r0, #16]
 800261e:	68d1      	ldr	r1, [r2, #12]
 8002620:	4303      	orrs	r3, r0
 8002622:	6968      	ldr	r0, [r5, #20]
 8002624:	4303      	orrs	r3, r0
 8002626:	69e8      	ldr	r0, [r5, #28]
 8002628:	f421 4116 	bic.w	r1, r1, #38400	; 0x9600
 800262c:	f021 010c 	bic.w	r1, r1, #12
 8002630:	4303      	orrs	r3, r0
 8002632:	430b      	orrs	r3, r1
 8002634:	60d3      	str	r3, [r2, #12]
 8002636:	6953      	ldr	r3, [r2, #20]
 8002638:	69a9      	ldr	r1, [r5, #24]
 800263a:	f423 7340 	bic.w	r3, r3, #768	; 0x300
 800263e:	430b      	orrs	r3, r1
 8002640:	6153      	str	r3, [r2, #20]
 8002642:	4b1f      	ldr	r3, [pc, #124]	; (80026c0 <UART_SetConfig+0xb8>)
 8002644:	429a      	cmp	r2, r3
 8002646:	d003      	beq.n	8002650 <UART_SetConfig+0x48>
 8002648:	f503 6380 	add.w	r3, r3, #1024	; 0x400
 800264c:	429a      	cmp	r2, r3
 800264e:	d124      	bne.n	800269a <UART_SetConfig+0x92>
 8002650:	f7ff fb28 	bl	8001ca4 <HAL_RCC_GetPCLK2Freq>
 8002654:	69ea      	ldr	r2, [r5, #28]
 8002656:	2319      	movs	r3, #25
 8002658:	f5b2 4f00 	cmp.w	r2, #32768	; 0x8000
 800265c:	fba0 0103 	umull	r0, r1, r0, r3
 8002660:	e9d5 4300 	ldrd	r4, r3, [r5]
 8002664:	d11c      	bne.n	80026a0 <UART_SetConfig+0x98>
 8002666:	461a      	mov	r2, r3
 8002668:	1892      	adds	r2, r2, r2
 800266a:	f04f 0300 	mov.w	r3, #0
 800266e:	415b      	adcs	r3, r3
 8002670:	f7fd fe16 	bl	80002a0 <__aeabi_uldivmod>
 8002674:	2164      	movs	r1, #100	; 0x64
 8002676:	fbb0 f5f1 	udiv	r5, r0, r1
 800267a:	fb01 0315 	mls	r3, r1, r5, r0
 800267e:	00db      	lsls	r3, r3, #3
 8002680:	3332      	adds	r3, #50	; 0x32
 8002682:	fbb3 f3f1 	udiv	r3, r3, r1
 8002686:	f003 0207 	and.w	r2, r3, #7
 800268a:	005b      	lsls	r3, r3, #1
 800268c:	eb02 1205 	add.w	r2, r2, r5, lsl #4
 8002690:	f403 73f8 	and.w	r3, r3, #496	; 0x1f0
 8002694:	4413      	add	r3, r2
 8002696:	60a3      	str	r3, [r4, #8]
 8002698:	bd38      	pop	{r3, r4, r5, pc}
 800269a:	f7ff faf3 	bl	8001c84 <HAL_RCC_GetPCLK1Freq>
 800269e:	e7d9      	b.n	8002654 <UART_SetConfig+0x4c>
 80026a0:	009a      	lsls	r2, r3, #2
 80026a2:	0f9b      	lsrs	r3, r3, #30
 80026a4:	f7fd fdfc 	bl	80002a0 <__aeabi_uldivmod>
 80026a8:	2264      	movs	r2, #100	; 0x64
 80026aa:	fbb0 f1f2 	udiv	r1, r0, r2
 80026ae:	fb02 0311 	mls	r3, r2, r1, r0
 80026b2:	011b      	lsls	r3, r3, #4
 80026b4:	3332      	adds	r3, #50	; 0x32
 80026b6:	fbb3 f3f2 	udiv	r3, r3, r2
 80026ba:	eb03 1301 	add.w	r3, r3, r1, lsl #4
 80026be:	e7ea      	b.n	8002696 <UART_SetConfig+0x8e>
 80026c0:	40011000 	.word	0x40011000

080026c4 <UART_WaitOnFlagUntilTimeout.constprop.0>:
 80026c4:	b5f8      	push	{r3, r4, r5, r6, r7, lr}
 80026c6:	4604      	mov	r4, r0
 80026c8:	460e      	mov	r6, r1
 80026ca:	4617      	mov	r7, r2
 80026cc:	461d      	mov	r5, r3
 80026ce:	6822      	ldr	r2, [r4, #0]
 80026d0:	6813      	ldr	r3, [r2, #0]
 80026d2:	ea36 0303 	bics.w	r3, r6, r3
 80026d6:	d101      	bne.n	80026dc <UART_WaitOnFlagUntilTimeout.constprop.0+0x18>
 80026d8:	2000      	movs	r0, #0
 80026da:	e014      	b.n	8002706 <UART_WaitOnFlagUntilTimeout.constprop.0+0x42>
 80026dc:	1c6b      	adds	r3, r5, #1
 80026de:	d0f7      	beq.n	80026d0 <UART_WaitOnFlagUntilTimeout.constprop.0+0xc>
 80026e0:	b995      	cbnz	r5, 8002708 <UART_WaitOnFlagUntilTimeout.constprop.0+0x44>
 80026e2:	6823      	ldr	r3, [r4, #0]
 80026e4:	68da      	ldr	r2, [r3, #12]
 80026e6:	f422 72d0 	bic.w	r2, r2, #416	; 0x1a0
 80026ea:	60da      	str	r2, [r3, #12]
 80026ec:	695a      	ldr	r2, [r3, #20]
 80026ee:	f022 0201 	bic.w	r2, r2, #1
 80026f2:	615a      	str	r2, [r3, #20]
 80026f4:	2320      	movs	r3, #32
 80026f6:	f884 303d 	strb.w	r3, [r4, #61]	; 0x3d
 80026fa:	f884 303e 	strb.w	r3, [r4, #62]	; 0x3e
 80026fe:	2300      	movs	r3, #0
 8002700:	f884 303c 	strb.w	r3, [r4, #60]	; 0x3c
 8002704:	2003      	movs	r0, #3
 8002706:	bdf8      	pop	{r3, r4, r5, r6, r7, pc}
 8002708:	f7fe fd14 	bl	8001134 <HAL_GetTick>
 800270c:	1bc0      	subs	r0, r0, r7
 800270e:	4285      	cmp	r5, r0
 8002710:	d2dd      	bcs.n	80026ce <UART_WaitOnFlagUntilTimeout.constprop.0+0xa>
 8002712:	e7e6      	b.n	80026e2 <UART_WaitOnFlagUntilTimeout.constprop.0+0x1e>

08002714 <HAL_UART_Init>:
 8002714:	b510      	push	{r4, lr}
 8002716:	4604      	mov	r4, r0
 8002718:	b340      	cbz	r0, 800276c <HAL_UART_Init+0x58>
 800271a:	f890 303d 	ldrb.w	r3, [r0, #61]	; 0x3d
 800271e:	f003 02ff 	and.w	r2, r3, #255	; 0xff
 8002722:	b91b      	cbnz	r3, 800272c <HAL_UART_Init+0x18>
 8002724:	f880 203c 	strb.w	r2, [r0, #60]	; 0x3c
 8002728:	f7fe fba8 	bl	8000e7c <HAL_UART_MspInit>
 800272c:	6822      	ldr	r2, [r4, #0]
 800272e:	2324      	movs	r3, #36	; 0x24
 8002730:	f884 303d 	strb.w	r3, [r4, #61]	; 0x3d
 8002734:	68d3      	ldr	r3, [r2, #12]
 8002736:	f423 5300 	bic.w	r3, r3, #8192	; 0x2000
 800273a:	60d3      	str	r3, [r2, #12]
 800273c:	4620      	mov	r0, r4
 800273e:	f7ff ff63 	bl	8002608 <UART_SetConfig>
 8002742:	6823      	ldr	r3, [r4, #0]
 8002744:	691a      	ldr	r2, [r3, #16]
 8002746:	f422 4290 	bic.w	r2, r2, #18432	; 0x4800
 800274a:	611a      	str	r2, [r3, #16]
 800274c:	695a      	ldr	r2, [r3, #20]
 800274e:	f022 022a 	bic.w	r2, r2, #42	; 0x2a
 8002752:	615a      	str	r2, [r3, #20]
 8002754:	68da      	ldr	r2, [r3, #12]
 8002756:	f442 5200 	orr.w	r2, r2, #8192	; 0x2000
 800275a:	60da      	str	r2, [r3, #12]
 800275c:	2000      	movs	r0, #0
 800275e:	2320      	movs	r3, #32
 8002760:	6420      	str	r0, [r4, #64]	; 0x40
 8002762:	f884 303d 	strb.w	r3, [r4, #61]	; 0x3d
 8002766:	f884 303e 	strb.w	r3, [r4, #62]	; 0x3e
 800276a:	bd10      	pop	{r4, pc}
 800276c:	2001      	movs	r0, #1
 800276e:	e7fc      	b.n	800276a <HAL_UART_Init+0x56>

08002770 <HAL_UART_Transmit>:
 8002770:	b5f7      	push	{r0, r1, r2, r4, r5, r6, r7, lr}
 8002772:	4617      	mov	r7, r2
 8002774:	f890 203d 	ldrb.w	r2, [r0, #61]	; 0x3d
 8002778:	9300      	str	r3, [sp, #0]
 800277a:	2a20      	cmp	r2, #32
 800277c:	4604      	mov	r4, r0
 800277e:	460e      	mov	r6, r1
 8002780:	d149      	bne.n	8002816 <HAL_UART_Transmit+0xa6>
 8002782:	2900      	cmp	r1, #0
 8002784:	d045      	beq.n	8002812 <HAL_UART_Transmit+0xa2>
 8002786:	2f00      	cmp	r7, #0
 8002788:	d043      	beq.n	8002812 <HAL_UART_Transmit+0xa2>
 800278a:	f890 203c 	ldrb.w	r2, [r0, #60]	; 0x3c
 800278e:	2a01      	cmp	r2, #1
 8002790:	d041      	beq.n	8002816 <HAL_UART_Transmit+0xa6>
 8002792:	2201      	movs	r2, #1
 8002794:	f880 203c 	strb.w	r2, [r0, #60]	; 0x3c
 8002798:	2500      	movs	r5, #0
 800279a:	2221      	movs	r2, #33	; 0x21
 800279c:	6405      	str	r5, [r0, #64]	; 0x40
 800279e:	f880 203d 	strb.w	r2, [r0, #61]	; 0x3d
 80027a2:	f7fe fcc7 	bl	8001134 <HAL_GetTick>
 80027a6:	68a1      	ldr	r1, [r4, #8]
 80027a8:	9b00      	ldr	r3, [sp, #0]
 80027aa:	84a7      	strh	r7, [r4, #36]	; 0x24
 80027ac:	f5b1 5f80 	cmp.w	r1, #4096	; 0x1000
 80027b0:	4602      	mov	r2, r0
 80027b2:	84e7      	strh	r7, [r4, #38]	; 0x26
 80027b4:	d103      	bne.n	80027be <HAL_UART_Transmit+0x4e>
 80027b6:	6921      	ldr	r1, [r4, #16]
 80027b8:	b909      	cbnz	r1, 80027be <HAL_UART_Transmit+0x4e>
 80027ba:	4635      	mov	r5, r6
 80027bc:	460e      	mov	r6, r1
 80027be:	2100      	movs	r1, #0
 80027c0:	f884 103c 	strb.w	r1, [r4, #60]	; 0x3c
 80027c4:	8ce1      	ldrh	r1, [r4, #38]	; 0x26
 80027c6:	b289      	uxth	r1, r1
 80027c8:	b941      	cbnz	r1, 80027dc <HAL_UART_Transmit+0x6c>
 80027ca:	2140      	movs	r1, #64	; 0x40
 80027cc:	4620      	mov	r0, r4
 80027ce:	f7ff ff79 	bl	80026c4 <UART_WaitOnFlagUntilTimeout.constprop.0>
 80027d2:	b960      	cbnz	r0, 80027ee <HAL_UART_Transmit+0x7e>
 80027d4:	2320      	movs	r3, #32
 80027d6:	f884 303d 	strb.w	r3, [r4, #61]	; 0x3d
 80027da:	e009      	b.n	80027f0 <HAL_UART_Transmit+0x80>
 80027dc:	2180      	movs	r1, #128	; 0x80
 80027de:	4620      	mov	r0, r4
 80027e0:	e9cd 2300 	strd	r2, r3, [sp]
 80027e4:	f7ff ff6e 	bl	80026c4 <UART_WaitOnFlagUntilTimeout.constprop.0>
 80027e8:	e9dd 2300 	ldrd	r2, r3, [sp]
 80027ec:	b110      	cbz	r0, 80027f4 <HAL_UART_Transmit+0x84>
 80027ee:	2003      	movs	r0, #3
 80027f0:	b003      	add	sp, #12
 80027f2:	bdf0      	pop	{r4, r5, r6, r7, pc}
 80027f4:	6820      	ldr	r0, [r4, #0]
 80027f6:	b94e      	cbnz	r6, 800280c <HAL_UART_Transmit+0x9c>
 80027f8:	f835 1b02 	ldrh.w	r1, [r5], #2
 80027fc:	f3c1 0108 	ubfx	r1, r1, #0, #9
 8002800:	6041      	str	r1, [r0, #4]
 8002802:	8ce1      	ldrh	r1, [r4, #38]	; 0x26
 8002804:	3901      	subs	r1, #1
 8002806:	b289      	uxth	r1, r1
 8002808:	84e1      	strh	r1, [r4, #38]	; 0x26
 800280a:	e7db      	b.n	80027c4 <HAL_UART_Transmit+0x54>
 800280c:	f816 1b01 	ldrb.w	r1, [r6], #1
 8002810:	e7f6      	b.n	8002800 <HAL_UART_Transmit+0x90>
 8002812:	2001      	movs	r0, #1
 8002814:	e7ec      	b.n	80027f0 <HAL_UART_Transmit+0x80>
 8002816:	2002      	movs	r0, #2
 8002818:	e7ea      	b.n	80027f0 <HAL_UART_Transmit+0x80>
	...

0800281c <HAL_UART_Transmit_DMA>:
 800281c:	b538      	push	{r3, r4, r5, lr}
 800281e:	4604      	mov	r4, r0
 8002820:	4613      	mov	r3, r2
 8002822:	f894 203d 	ldrb.w	r2, [r4, #61]	; 0x3d
 8002826:	2a20      	cmp	r2, #32
 8002828:	d12a      	bne.n	8002880 <HAL_UART_Transmit_DMA+0x64>
 800282a:	b339      	cbz	r1, 800287c <HAL_UART_Transmit_DMA+0x60>
 800282c:	b333      	cbz	r3, 800287c <HAL_UART_Transmit_DMA+0x60>
 800282e:	f894 203c 	ldrb.w	r2, [r4, #60]	; 0x3c
 8002832:	2a01      	cmp	r2, #1
 8002834:	d024      	beq.n	8002880 <HAL_UART_Transmit_DMA+0x64>
 8002836:	2201      	movs	r2, #1
 8002838:	f884 203c 	strb.w	r2, [r4, #60]	; 0x3c
 800283c:	6b60      	ldr	r0, [r4, #52]	; 0x34
 800283e:	84e3      	strh	r3, [r4, #38]	; 0x26
 8002840:	2500      	movs	r5, #0
 8002842:	2221      	movs	r2, #33	; 0x21
 8002844:	6425      	str	r5, [r4, #64]	; 0x40
 8002846:	f884 203d 	strb.w	r2, [r4, #61]	; 0x3d
 800284a:	4a0e      	ldr	r2, [pc, #56]	; (8002884 <HAL_UART_Transmit_DMA+0x68>)
 800284c:	84a3      	strh	r3, [r4, #36]	; 0x24
 800284e:	6221      	str	r1, [r4, #32]
 8002850:	63c2      	str	r2, [r0, #60]	; 0x3c
 8002852:	4a0d      	ldr	r2, [pc, #52]	; (8002888 <HAL_UART_Transmit_DMA+0x6c>)
 8002854:	6402      	str	r2, [r0, #64]	; 0x40
 8002856:	4a0d      	ldr	r2, [pc, #52]	; (800288c <HAL_UART_Transmit_DMA+0x70>)
 8002858:	e9c0 2513 	strd	r2, r5, [r0, #76]	; 0x4c
 800285c:	6822      	ldr	r2, [r4, #0]
 800285e:	3204      	adds	r2, #4
 8002860:	f7fe fd6c 	bl	800133c <HAL_DMA_Start_IT>
 8002864:	6823      	ldr	r3, [r4, #0]
 8002866:	f06f 0240 	mvn.w	r2, #64	; 0x40
 800286a:	601a      	str	r2, [r3, #0]
 800286c:	f884 503c 	strb.w	r5, [r4, #60]	; 0x3c
 8002870:	695a      	ldr	r2, [r3, #20]
 8002872:	f042 0280 	orr.w	r2, r2, #128	; 0x80
 8002876:	615a      	str	r2, [r3, #20]
 8002878:	4628      	mov	r0, r5
 800287a:	bd38      	pop	{r3, r4, r5, pc}
 800287c:	2001      	movs	r0, #1
 800287e:	e7fc      	b.n	800287a <HAL_UART_Transmit_DMA+0x5e>
 8002880:	2002      	movs	r0, #2
 8002882:	e7fa      	b.n	800287a <HAL_UART_Transmit_DMA+0x5e>
 8002884:	08002891 	.word	0x08002891
 8002888:	080028bf 	.word	0x080028bf
 800288c:	080028cd 	.word	0x080028cd

08002890 <UART_DMATransmitCplt>:
 8002890:	b508      	push	{r3, lr}
 8002892:	6803      	ldr	r3, [r0, #0]
 8002894:	6b82      	ldr	r2, [r0, #56]	; 0x38
 8002896:	681b      	ldr	r3, [r3, #0]
 8002898:	f413 7380 	ands.w	r3, r3, #256	; 0x100
 800289c:	d10a      	bne.n	80028b4 <UART_DMATransmitCplt+0x24>
 800289e:	84d3      	strh	r3, [r2, #38]	; 0x26
 80028a0:	6813      	ldr	r3, [r2, #0]
 80028a2:	695a      	ldr	r2, [r3, #20]
 80028a4:	f022 0280 	bic.w	r2, r2, #128	; 0x80
 80028a8:	615a      	str	r2, [r3, #20]
 80028aa:	68da      	ldr	r2, [r3, #12]
 80028ac:	f042 0240 	orr.w	r2, r2, #64	; 0x40
 80028b0:	60da      	str	r2, [r3, #12]
 80028b2:	bd08      	pop	{r3, pc}
 80028b4:	4610      	mov	r0, r2
 80028b6:	f7fe fbc1 	bl	800103c <HAL_UART_TxCpltCallback>
 80028ba:	e7fa      	b.n	80028b2 <UART_DMATransmitCplt+0x22>

080028bc <HAL_UART_TxHalfCpltCallback>:
 80028bc:	4770      	bx	lr

080028be <UART_DMATxHalfCplt>:
 80028be:	b508      	push	{r3, lr}
 80028c0:	6b80      	ldr	r0, [r0, #56]	; 0x38
 80028c2:	f7ff fffb 	bl	80028bc <HAL_UART_TxHalfCpltCallback>
 80028c6:	bd08      	pop	{r3, pc}

080028c8 <HAL_UART_RxHalfCpltCallback>:
 80028c8:	4770      	bx	lr

080028ca <HAL_UART_ErrorCallback>:
 80028ca:	4770      	bx	lr

080028cc <UART_DMAError>:
 80028cc:	b508      	push	{r3, lr}
 80028ce:	6b80      	ldr	r0, [r0, #56]	; 0x38
 80028d0:	6803      	ldr	r3, [r0, #0]
 80028d2:	695a      	ldr	r2, [r3, #20]
 80028d4:	f890 103d 	ldrb.w	r1, [r0, #61]	; 0x3d
 80028d8:	2921      	cmp	r1, #33	; 0x21
 80028da:	d10a      	bne.n	80028f2 <UART_DMAError+0x26>
 80028dc:	0612      	lsls	r2, r2, #24
 80028de:	d508      	bpl.n	80028f2 <UART_DMAError+0x26>
 80028e0:	2200      	movs	r2, #0
 80028e2:	84c2      	strh	r2, [r0, #38]	; 0x26
 80028e4:	68da      	ldr	r2, [r3, #12]
 80028e6:	f022 02c0 	bic.w	r2, r2, #192	; 0xc0
 80028ea:	60da      	str	r2, [r3, #12]
 80028ec:	2220      	movs	r2, #32
 80028ee:	f880 203d 	strb.w	r2, [r0, #61]	; 0x3d
 80028f2:	695b      	ldr	r3, [r3, #20]
 80028f4:	f890 203e 	ldrb.w	r2, [r0, #62]	; 0x3e
 80028f8:	2a22      	cmp	r2, #34	; 0x22
 80028fa:	d105      	bne.n	8002908 <UART_DMAError+0x3c>
 80028fc:	065b      	lsls	r3, r3, #25
 80028fe:	d503      	bpl.n	8002908 <UART_DMAError+0x3c>
 8002900:	2300      	movs	r3, #0
 8002902:	85c3      	strh	r3, [r0, #46]	; 0x2e
 8002904:	f7ff fe6a 	bl	80025dc <UART_EndRxTransfer>
 8002908:	6c03      	ldr	r3, [r0, #64]	; 0x40
 800290a:	f043 0310 	orr.w	r3, r3, #16
 800290e:	6403      	str	r3, [r0, #64]	; 0x40
 8002910:	f7ff ffdb 	bl	80028ca <HAL_UART_ErrorCallback>
 8002914:	bd08      	pop	{r3, pc}

08002916 <UART_DMAAbortOnError>:
 8002916:	b508      	push	{r3, lr}
 8002918:	6b80      	ldr	r0, [r0, #56]	; 0x38
 800291a:	2300      	movs	r3, #0
 800291c:	85c3      	strh	r3, [r0, #46]	; 0x2e
 800291e:	84c3      	strh	r3, [r0, #38]	; 0x26
 8002920:	f7ff ffd3 	bl	80028ca <HAL_UART_ErrorCallback>
 8002924:	bd08      	pop	{r3, pc}

08002926 <HAL_UARTEx_RxEventCallback>:
 8002926:	4770      	bx	lr

08002928 <UART_Receive_IT>:
 8002928:	b510      	push	{r4, lr}
 800292a:	f890 303e 	ldrb.w	r3, [r0, #62]	; 0x3e
 800292e:	2b22      	cmp	r3, #34	; 0x22
 8002930:	4604      	mov	r4, r0
 8002932:	d143      	bne.n	80029bc <UART_Receive_IT+0x94>
 8002934:	6881      	ldr	r1, [r0, #8]
 8002936:	6a83      	ldr	r3, [r0, #40]	; 0x28
 8002938:	6802      	ldr	r2, [r0, #0]
 800293a:	f5b1 5f80 	cmp.w	r1, #4096	; 0x1000
 800293e:	d12c      	bne.n	800299a <UART_Receive_IT+0x72>
 8002940:	6901      	ldr	r1, [r0, #16]
 8002942:	2900      	cmp	r1, #0
 8002944:	d12c      	bne.n	80029a0 <UART_Receive_IT+0x78>
 8002946:	6852      	ldr	r2, [r2, #4]
 8002948:	f3c2 0208 	ubfx	r2, r2, #0, #9
 800294c:	f823 2b02 	strh.w	r2, [r3], #2
 8002950:	62a3      	str	r3, [r4, #40]	; 0x28
 8002952:	8de3      	ldrh	r3, [r4, #46]	; 0x2e
 8002954:	3b01      	subs	r3, #1
 8002956:	b29b      	uxth	r3, r3
 8002958:	85e3      	strh	r3, [r4, #46]	; 0x2e
 800295a:	2b00      	cmp	r3, #0
 800295c:	d130      	bne.n	80029c0 <UART_Receive_IT+0x98>
 800295e:	6823      	ldr	r3, [r4, #0]
 8002960:	68da      	ldr	r2, [r3, #12]
 8002962:	f022 0220 	bic.w	r2, r2, #32
 8002966:	60da      	str	r2, [r3, #12]
 8002968:	68da      	ldr	r2, [r3, #12]
 800296a:	f422 7280 	bic.w	r2, r2, #256	; 0x100
 800296e:	60da      	str	r2, [r3, #12]
 8002970:	695a      	ldr	r2, [r3, #20]
 8002972:	f022 0201 	bic.w	r2, r2, #1
 8002976:	615a      	str	r2, [r3, #20]
 8002978:	2220      	movs	r2, #32
 800297a:	f884 203e 	strb.w	r2, [r4, #62]	; 0x3e
 800297e:	6b22      	ldr	r2, [r4, #48]	; 0x30
 8002980:	2a01      	cmp	r2, #1
 8002982:	d117      	bne.n	80029b4 <UART_Receive_IT+0x8c>
 8002984:	68da      	ldr	r2, [r3, #12]
 8002986:	8da1      	ldrh	r1, [r4, #44]	; 0x2c
 8002988:	f022 0210 	bic.w	r2, r2, #16
 800298c:	60da      	str	r2, [r3, #12]
 800298e:	4620      	mov	r0, r4
 8002990:	f7ff ffc9 	bl	8002926 <HAL_UARTEx_RxEventCallback>
 8002994:	2000      	movs	r0, #0
 8002996:	6320      	str	r0, [r4, #48]	; 0x30
 8002998:	bd10      	pop	{r4, pc}
 800299a:	b939      	cbnz	r1, 80029ac <UART_Receive_IT+0x84>
 800299c:	6901      	ldr	r1, [r0, #16]
 800299e:	b929      	cbnz	r1, 80029ac <UART_Receive_IT+0x84>
 80029a0:	6852      	ldr	r2, [r2, #4]
 80029a2:	b2d2      	uxtb	r2, r2
 80029a4:	701a      	strb	r2, [r3, #0]
 80029a6:	6aa3      	ldr	r3, [r4, #40]	; 0x28
 80029a8:	3301      	adds	r3, #1
 80029aa:	e7d1      	b.n	8002950 <UART_Receive_IT+0x28>
 80029ac:	6852      	ldr	r2, [r2, #4]
 80029ae:	f002 027f 	and.w	r2, r2, #127	; 0x7f
 80029b2:	e7f7      	b.n	80029a4 <UART_Receive_IT+0x7c>
 80029b4:	4620      	mov	r0, r4
 80029b6:	f7fe fadd 	bl	8000f74 <HAL_UART_RxCpltCallback>
 80029ba:	e7eb      	b.n	8002994 <UART_Receive_IT+0x6c>
 80029bc:	2002      	movs	r0, #2
 80029be:	e7eb      	b.n	8002998 <UART_Receive_IT+0x70>
 80029c0:	2000      	movs	r0, #0
 80029c2:	e7e9      	b.n	8002998 <UART_Receive_IT+0x70>

080029c4 <HAL_UART_IRQHandler>:
 80029c4:	6803      	ldr	r3, [r0, #0]
 80029c6:	b537      	push	{r0, r1, r2, r4, r5, lr}
 80029c8:	681a      	ldr	r2, [r3, #0]
 80029ca:	68d9      	ldr	r1, [r3, #12]
 80029cc:	695d      	ldr	r5, [r3, #20]
 80029ce:	f012 0f0f 	tst.w	r2, #15
 80029d2:	4604      	mov	r4, r0
 80029d4:	d108      	bne.n	80029e8 <HAL_UART_IRQHandler+0x24>
 80029d6:	0695      	lsls	r5, r2, #26
 80029d8:	d55f      	bpl.n	8002a9a <HAL_UART_IRQHandler+0xd6>
 80029da:	068d      	lsls	r5, r1, #26
 80029dc:	d55d      	bpl.n	8002a9a <HAL_UART_IRQHandler+0xd6>
 80029de:	b003      	add	sp, #12
 80029e0:	e8bd 4030 	ldmia.w	sp!, {r4, r5, lr}
 80029e4:	f7ff bfa0 	b.w	8002928 <UART_Receive_IT>
 80029e8:	f005 0001 	and.w	r0, r5, #1
 80029ec:	f401 7590 	and.w	r5, r1, #288	; 0x120
 80029f0:	4305      	orrs	r5, r0
 80029f2:	d052      	beq.n	8002a9a <HAL_UART_IRQHandler+0xd6>
 80029f4:	07d5      	lsls	r5, r2, #31
 80029f6:	d505      	bpl.n	8002a04 <HAL_UART_IRQHandler+0x40>
 80029f8:	05cb      	lsls	r3, r1, #23
 80029fa:	bf42      	ittt	mi
 80029fc:	6c23      	ldrmi	r3, [r4, #64]	; 0x40
 80029fe:	f043 0301 	orrmi.w	r3, r3, #1
 8002a02:	6423      	strmi	r3, [r4, #64]	; 0x40
 8002a04:	0755      	lsls	r5, r2, #29
 8002a06:	d504      	bpl.n	8002a12 <HAL_UART_IRQHandler+0x4e>
 8002a08:	b118      	cbz	r0, 8002a12 <HAL_UART_IRQHandler+0x4e>
 8002a0a:	6c23      	ldr	r3, [r4, #64]	; 0x40
 8002a0c:	f043 0302 	orr.w	r3, r3, #2
 8002a10:	6423      	str	r3, [r4, #64]	; 0x40
 8002a12:	0793      	lsls	r3, r2, #30
 8002a14:	d504      	bpl.n	8002a20 <HAL_UART_IRQHandler+0x5c>
 8002a16:	b118      	cbz	r0, 8002a20 <HAL_UART_IRQHandler+0x5c>
 8002a18:	6c23      	ldr	r3, [r4, #64]	; 0x40
 8002a1a:	f043 0304 	orr.w	r3, r3, #4
 8002a1e:	6423      	str	r3, [r4, #64]	; 0x40
 8002a20:	0715      	lsls	r5, r2, #28
 8002a22:	d507      	bpl.n	8002a34 <HAL_UART_IRQHandler+0x70>
 8002a24:	f001 0320 	and.w	r3, r1, #32
 8002a28:	4303      	orrs	r3, r0
 8002a2a:	bf1e      	ittt	ne
 8002a2c:	6c23      	ldrne	r3, [r4, #64]	; 0x40
 8002a2e:	f043 0308 	orrne.w	r3, r3, #8
 8002a32:	6423      	strne	r3, [r4, #64]	; 0x40
 8002a34:	6c23      	ldr	r3, [r4, #64]	; 0x40
 8002a36:	b353      	cbz	r3, 8002a8e <HAL_UART_IRQHandler+0xca>
 8002a38:	0692      	lsls	r2, r2, #26
 8002a3a:	d504      	bpl.n	8002a46 <HAL_UART_IRQHandler+0x82>
 8002a3c:	068b      	lsls	r3, r1, #26
 8002a3e:	d502      	bpl.n	8002a46 <HAL_UART_IRQHandler+0x82>
 8002a40:	4620      	mov	r0, r4
 8002a42:	f7ff ff71 	bl	8002928 <UART_Receive_IT>
 8002a46:	6823      	ldr	r3, [r4, #0]
 8002a48:	695b      	ldr	r3, [r3, #20]
 8002a4a:	6c25      	ldr	r5, [r4, #64]	; 0x40
 8002a4c:	f003 0340 	and.w	r3, r3, #64	; 0x40
 8002a50:	f005 0508 	and.w	r5, r5, #8
 8002a54:	431d      	orrs	r5, r3
 8002a56:	4620      	mov	r0, r4
 8002a58:	d01b      	beq.n	8002a92 <HAL_UART_IRQHandler+0xce>
 8002a5a:	f7ff fdbf 	bl	80025dc <UART_EndRxTransfer>
 8002a5e:	6823      	ldr	r3, [r4, #0]
 8002a60:	695a      	ldr	r2, [r3, #20]
 8002a62:	0655      	lsls	r5, r2, #25
 8002a64:	d510      	bpl.n	8002a88 <HAL_UART_IRQHandler+0xc4>
 8002a66:	695a      	ldr	r2, [r3, #20]
 8002a68:	6ba0      	ldr	r0, [r4, #56]	; 0x38
 8002a6a:	f022 0240 	bic.w	r2, r2, #64	; 0x40
 8002a6e:	615a      	str	r2, [r3, #20]
 8002a70:	b150      	cbz	r0, 8002a88 <HAL_UART_IRQHandler+0xc4>
 8002a72:	4b54      	ldr	r3, [pc, #336]	; (8002bc4 <HAL_UART_IRQHandler+0x200>)
 8002a74:	6503      	str	r3, [r0, #80]	; 0x50
 8002a76:	f7fe fcdf 	bl	8001438 <HAL_DMA_Abort_IT>
 8002a7a:	b140      	cbz	r0, 8002a8e <HAL_UART_IRQHandler+0xca>
 8002a7c:	6ba0      	ldr	r0, [r4, #56]	; 0x38
 8002a7e:	6d03      	ldr	r3, [r0, #80]	; 0x50
 8002a80:	b003      	add	sp, #12
 8002a82:	e8bd 4030 	ldmia.w	sp!, {r4, r5, lr}
 8002a86:	4718      	bx	r3
 8002a88:	4620      	mov	r0, r4
 8002a8a:	f7ff ff1e 	bl	80028ca <HAL_UART_ErrorCallback>
 8002a8e:	b003      	add	sp, #12
 8002a90:	bd30      	pop	{r4, r5, pc}
 8002a92:	f7ff ff1a 	bl	80028ca <HAL_UART_ErrorCallback>
 8002a96:	6425      	str	r5, [r4, #64]	; 0x40
 8002a98:	e7f9      	b.n	8002a8e <HAL_UART_IRQHandler+0xca>
 8002a9a:	6b20      	ldr	r0, [r4, #48]	; 0x30
 8002a9c:	2801      	cmp	r0, #1
 8002a9e:	d156      	bne.n	8002b4e <HAL_UART_IRQHandler+0x18a>
 8002aa0:	06d0      	lsls	r0, r2, #27
 8002aa2:	d554      	bpl.n	8002b4e <HAL_UART_IRQHandler+0x18a>
 8002aa4:	06cd      	lsls	r5, r1, #27
 8002aa6:	d552      	bpl.n	8002b4e <HAL_UART_IRQHandler+0x18a>
 8002aa8:	2100      	movs	r1, #0
 8002aaa:	9101      	str	r1, [sp, #4]
 8002aac:	681a      	ldr	r2, [r3, #0]
 8002aae:	9201      	str	r2, [sp, #4]
 8002ab0:	685a      	ldr	r2, [r3, #4]
 8002ab2:	9201      	str	r2, [sp, #4]
 8002ab4:	9a01      	ldr	r2, [sp, #4]
 8002ab6:	695a      	ldr	r2, [r3, #20]
 8002ab8:	f012 0240 	ands.w	r2, r2, #64	; 0x40
 8002abc:	d02b      	beq.n	8002b16 <HAL_UART_IRQHandler+0x152>
 8002abe:	6ba0      	ldr	r0, [r4, #56]	; 0x38
 8002ac0:	6802      	ldr	r2, [r0, #0]
 8002ac2:	6852      	ldr	r2, [r2, #4]
 8002ac4:	b292      	uxth	r2, r2
 8002ac6:	2a00      	cmp	r2, #0
 8002ac8:	d0e1      	beq.n	8002a8e <HAL_UART_IRQHandler+0xca>
 8002aca:	8da5      	ldrh	r5, [r4, #44]	; 0x2c
 8002acc:	4295      	cmp	r5, r2
 8002ace:	d9de      	bls.n	8002a8e <HAL_UART_IRQHandler+0xca>
 8002ad0:	85e2      	strh	r2, [r4, #46]	; 0x2e
 8002ad2:	69c2      	ldr	r2, [r0, #28]
 8002ad4:	f5b2 7f80 	cmp.w	r2, #256	; 0x100
 8002ad8:	d015      	beq.n	8002b06 <HAL_UART_IRQHandler+0x142>
 8002ada:	68da      	ldr	r2, [r3, #12]
 8002adc:	f422 7280 	bic.w	r2, r2, #256	; 0x100
 8002ae0:	60da      	str	r2, [r3, #12]
 8002ae2:	695a      	ldr	r2, [r3, #20]
 8002ae4:	f022 0201 	bic.w	r2, r2, #1
 8002ae8:	615a      	str	r2, [r3, #20]
 8002aea:	695a      	ldr	r2, [r3, #20]
 8002aec:	f022 0240 	bic.w	r2, r2, #64	; 0x40
 8002af0:	615a      	str	r2, [r3, #20]
 8002af2:	2220      	movs	r2, #32
 8002af4:	f884 203e 	strb.w	r2, [r4, #62]	; 0x3e
 8002af8:	6321      	str	r1, [r4, #48]	; 0x30
 8002afa:	68da      	ldr	r2, [r3, #12]
 8002afc:	f022 0210 	bic.w	r2, r2, #16
 8002b00:	60da      	str	r2, [r3, #12]
 8002b02:	f7fe fc55 	bl	80013b0 <HAL_DMA_Abort>
 8002b06:	8de3      	ldrh	r3, [r4, #46]	; 0x2e
 8002b08:	8da1      	ldrh	r1, [r4, #44]	; 0x2c
 8002b0a:	1ac9      	subs	r1, r1, r3
 8002b0c:	b289      	uxth	r1, r1
 8002b0e:	4620      	mov	r0, r4
 8002b10:	f7ff ff09 	bl	8002926 <HAL_UARTEx_RxEventCallback>
 8002b14:	e7bb      	b.n	8002a8e <HAL_UART_IRQHandler+0xca>
 8002b16:	8de1      	ldrh	r1, [r4, #46]	; 0x2e
 8002b18:	b288      	uxth	r0, r1
 8002b1a:	8de1      	ldrh	r1, [r4, #46]	; 0x2e
 8002b1c:	b289      	uxth	r1, r1
 8002b1e:	2900      	cmp	r1, #0
 8002b20:	d0b5      	beq.n	8002a8e <HAL_UART_IRQHandler+0xca>
 8002b22:	8da1      	ldrh	r1, [r4, #44]	; 0x2c
 8002b24:	1a09      	subs	r1, r1, r0
 8002b26:	b289      	uxth	r1, r1
 8002b28:	2900      	cmp	r1, #0
 8002b2a:	d0b0      	beq.n	8002a8e <HAL_UART_IRQHandler+0xca>
 8002b2c:	68d8      	ldr	r0, [r3, #12]
 8002b2e:	f420 7090 	bic.w	r0, r0, #288	; 0x120
 8002b32:	60d8      	str	r0, [r3, #12]
 8002b34:	6958      	ldr	r0, [r3, #20]
 8002b36:	f020 0001 	bic.w	r0, r0, #1
 8002b3a:	6158      	str	r0, [r3, #20]
 8002b3c:	2020      	movs	r0, #32
 8002b3e:	f884 003e 	strb.w	r0, [r4, #62]	; 0x3e
 8002b42:	6322      	str	r2, [r4, #48]	; 0x30
 8002b44:	68da      	ldr	r2, [r3, #12]
 8002b46:	f022 0210 	bic.w	r2, r2, #16
 8002b4a:	60da      	str	r2, [r3, #12]
 8002b4c:	e7df      	b.n	8002b0e <HAL_UART_IRQHandler+0x14a>
 8002b4e:	0610      	lsls	r0, r2, #24
 8002b50:	d526      	bpl.n	8002ba0 <HAL_UART_IRQHandler+0x1dc>
 8002b52:	060d      	lsls	r5, r1, #24
 8002b54:	d524      	bpl.n	8002ba0 <HAL_UART_IRQHandler+0x1dc>
 8002b56:	f894 203d 	ldrb.w	r2, [r4, #61]	; 0x3d
 8002b5a:	2a21      	cmp	r2, #33	; 0x21
 8002b5c:	d197      	bne.n	8002a8e <HAL_UART_IRQHandler+0xca>
 8002b5e:	68a1      	ldr	r1, [r4, #8]
 8002b60:	6a22      	ldr	r2, [r4, #32]
 8002b62:	f5b1 5f80 	cmp.w	r1, #4096	; 0x1000
 8002b66:	d116      	bne.n	8002b96 <HAL_UART_IRQHandler+0x1d2>
 8002b68:	6921      	ldr	r1, [r4, #16]
 8002b6a:	b9a1      	cbnz	r1, 8002b96 <HAL_UART_IRQHandler+0x1d2>
 8002b6c:	f832 1b02 	ldrh.w	r1, [r2], #2
 8002b70:	f3c1 0108 	ubfx	r1, r1, #0, #9
 8002b74:	6059      	str	r1, [r3, #4]
 8002b76:	6222      	str	r2, [r4, #32]
 8002b78:	8ce2      	ldrh	r2, [r4, #38]	; 0x26
 8002b7a:	3a01      	subs	r2, #1
 8002b7c:	b292      	uxth	r2, r2
 8002b7e:	84e2      	strh	r2, [r4, #38]	; 0x26
 8002b80:	2a00      	cmp	r2, #0
 8002b82:	d184      	bne.n	8002a8e <HAL_UART_IRQHandler+0xca>
 8002b84:	68da      	ldr	r2, [r3, #12]
 8002b86:	f022 0280 	bic.w	r2, r2, #128	; 0x80
 8002b8a:	60da      	str	r2, [r3, #12]
 8002b8c:	68da      	ldr	r2, [r3, #12]
 8002b8e:	f042 0240 	orr.w	r2, r2, #64	; 0x40
 8002b92:	60da      	str	r2, [r3, #12]
 8002b94:	e77b      	b.n	8002a8e <HAL_UART_IRQHandler+0xca>
 8002b96:	1c51      	adds	r1, r2, #1
 8002b98:	6221      	str	r1, [r4, #32]
 8002b9a:	7812      	ldrb	r2, [r2, #0]
 8002b9c:	605a      	str	r2, [r3, #4]
 8002b9e:	e7eb      	b.n	8002b78 <HAL_UART_IRQHandler+0x1b4>
 8002ba0:	0650      	lsls	r0, r2, #25
 8002ba2:	f57f af74 	bpl.w	8002a8e <HAL_UART_IRQHandler+0xca>
 8002ba6:	064a      	lsls	r2, r1, #25
 8002ba8:	f57f af71 	bpl.w	8002a8e <HAL_UART_IRQHandler+0xca>
 8002bac:	68da      	ldr	r2, [r3, #12]
 8002bae:	f022 0240 	bic.w	r2, r2, #64	; 0x40
 8002bb2:	60da      	str	r2, [r3, #12]
 8002bb4:	2320      	movs	r3, #32
 8002bb6:	f884 303d 	strb.w	r3, [r4, #61]	; 0x3d
 8002bba:	4620      	mov	r0, r4
 8002bbc:	f7fe fa3e 	bl	800103c <HAL_UART_TxCpltCallback>
 8002bc0:	e765      	b.n	8002a8e <HAL_UART_IRQHandler+0xca>
 8002bc2:	bf00      	nop
 8002bc4:	08002917 	.word	0x08002917

08002bc8 <UART_DMARxHalfCplt>:
 8002bc8:	6b80      	ldr	r0, [r0, #56]	; 0x38
 8002bca:	b508      	push	{r3, lr}
 8002bcc:	6b03      	ldr	r3, [r0, #48]	; 0x30
 8002bce:	2b01      	cmp	r3, #1
 8002bd0:	d104      	bne.n	8002bdc <UART_DMARxHalfCplt+0x14>
 8002bd2:	8d81      	ldrh	r1, [r0, #44]	; 0x2c
 8002bd4:	0849      	lsrs	r1, r1, #1
 8002bd6:	f7ff fea6 	bl	8002926 <HAL_UARTEx_RxEventCallback>
 8002bda:	bd08      	pop	{r3, pc}
 8002bdc:	f7ff fe74 	bl	80028c8 <HAL_UART_RxHalfCpltCallback>
 8002be0:	e7fb      	b.n	8002bda <UART_DMARxHalfCplt+0x12>

08002be2 <UART_DMAReceiveCplt>:
 8002be2:	b508      	push	{r3, lr}
 8002be4:	4603      	mov	r3, r0
 8002be6:	6b80      	ldr	r0, [r0, #56]	; 0x38
 8002be8:	681b      	ldr	r3, [r3, #0]
 8002bea:	681b      	ldr	r3, [r3, #0]
 8002bec:	f413 7380 	ands.w	r3, r3, #256	; 0x100
 8002bf0:	d117      	bne.n	8002c22 <UART_DMAReceiveCplt+0x40>
 8002bf2:	85c3      	strh	r3, [r0, #46]	; 0x2e
 8002bf4:	6803      	ldr	r3, [r0, #0]
 8002bf6:	68da      	ldr	r2, [r3, #12]
 8002bf8:	f422 7280 	bic.w	r2, r2, #256	; 0x100
 8002bfc:	60da      	str	r2, [r3, #12]
 8002bfe:	695a      	ldr	r2, [r3, #20]
 8002c00:	f022 0201 	bic.w	r2, r2, #1
 8002c04:	615a      	str	r2, [r3, #20]
 8002c06:	695a      	ldr	r2, [r3, #20]
 8002c08:	f022 0240 	bic.w	r2, r2, #64	; 0x40
 8002c0c:	615a      	str	r2, [r3, #20]
 8002c0e:	2220      	movs	r2, #32
 8002c10:	f880 203e 	strb.w	r2, [r0, #62]	; 0x3e
 8002c14:	6b02      	ldr	r2, [r0, #48]	; 0x30
 8002c16:	2a01      	cmp	r2, #1
 8002c18:	bf02      	ittt	eq
 8002c1a:	68da      	ldreq	r2, [r3, #12]
 8002c1c:	f022 0210 	biceq.w	r2, r2, #16
 8002c20:	60da      	streq	r2, [r3, #12]
 8002c22:	6b03      	ldr	r3, [r0, #48]	; 0x30
 8002c24:	2b01      	cmp	r3, #1
 8002c26:	d103      	bne.n	8002c30 <UART_DMAReceiveCplt+0x4e>
 8002c28:	8d81      	ldrh	r1, [r0, #44]	; 0x2c
 8002c2a:	f7ff fe7c 	bl	8002926 <HAL_UARTEx_RxEventCallback>
 8002c2e:	bd08      	pop	{r3, pc}
 8002c30:	f7fe f9a0 	bl	8000f74 <HAL_UART_RxCpltCallback>
 8002c34:	e7fb      	b.n	8002c2e <UART_DMAReceiveCplt+0x4c>
	...

08002c38 <UART_Start_Receive_DMA>:
 8002c38:	b573      	push	{r0, r1, r4, r5, r6, lr}
 8002c3a:	2322      	movs	r3, #34	; 0x22
 8002c3c:	2500      	movs	r5, #0
 8002c3e:	4604      	mov	r4, r0
 8002c40:	6405      	str	r5, [r0, #64]	; 0x40
 8002c42:	6281      	str	r1, [r0, #40]	; 0x28
 8002c44:	f880 303e 	strb.w	r3, [r0, #62]	; 0x3e
 8002c48:	8582      	strh	r2, [r0, #44]	; 0x2c
 8002c4a:	6b80      	ldr	r0, [r0, #56]	; 0x38
 8002c4c:	4b12      	ldr	r3, [pc, #72]	; (8002c98 <UART_Start_Receive_DMA+0x60>)
 8002c4e:	63c3      	str	r3, [r0, #60]	; 0x3c
 8002c50:	4b12      	ldr	r3, [pc, #72]	; (8002c9c <UART_Start_Receive_DMA+0x64>)
 8002c52:	6826      	ldr	r6, [r4, #0]
 8002c54:	6403      	str	r3, [r0, #64]	; 0x40
 8002c56:	4b12      	ldr	r3, [pc, #72]	; (8002ca0 <UART_Start_Receive_DMA+0x68>)
 8002c58:	e9c0 3513 	strd	r3, r5, [r0, #76]	; 0x4c
 8002c5c:	4613      	mov	r3, r2
 8002c5e:	460a      	mov	r2, r1
 8002c60:	1d31      	adds	r1, r6, #4
 8002c62:	f7fe fb6b 	bl	800133c <HAL_DMA_Start_IT>
 8002c66:	6823      	ldr	r3, [r4, #0]
 8002c68:	9501      	str	r5, [sp, #4]
 8002c6a:	681a      	ldr	r2, [r3, #0]
 8002c6c:	9201      	str	r2, [sp, #4]
 8002c6e:	685a      	ldr	r2, [r3, #4]
 8002c70:	9201      	str	r2, [sp, #4]
 8002c72:	f884 503c 	strb.w	r5, [r4, #60]	; 0x3c
 8002c76:	9a01      	ldr	r2, [sp, #4]
 8002c78:	68da      	ldr	r2, [r3, #12]
 8002c7a:	f442 7280 	orr.w	r2, r2, #256	; 0x100
 8002c7e:	60da      	str	r2, [r3, #12]
 8002c80:	695a      	ldr	r2, [r3, #20]
 8002c82:	f042 0201 	orr.w	r2, r2, #1
 8002c86:	615a      	str	r2, [r3, #20]
 8002c88:	695a      	ldr	r2, [r3, #20]
 8002c8a:	4628      	mov	r0, r5
 8002c8c:	f042 0240 	orr.w	r2, r2, #64	; 0x40
 8002c90:	615a      	str	r2, [r3, #20]
 8002c92:	b002      	add	sp, #8
 8002c94:	bd70      	pop	{r4, r5, r6, pc}
 8002c96:	bf00      	nop
 8002c98:	08002be3 	.word	0x08002be3
 8002c9c:	08002bc9 	.word	0x08002bc9
 8002ca0:	080028cd 	.word	0x080028cd

08002ca4 <HAL_UART_Receive_DMA>:
 8002ca4:	b470      	push	{r4, r5, r6}
 8002ca6:	f890 603e 	ldrb.w	r6, [r0, #62]	; 0x3e
 8002caa:	2e20      	cmp	r6, #32
 8002cac:	d110      	bne.n	8002cd0 <HAL_UART_Receive_DMA+0x2c>
 8002cae:	b161      	cbz	r1, 8002cca <HAL_UART_Receive_DMA+0x26>
 8002cb0:	b15a      	cbz	r2, 8002cca <HAL_UART_Receive_DMA+0x26>
 8002cb2:	f890 403c 	ldrb.w	r4, [r0, #60]	; 0x3c
 8002cb6:	2c01      	cmp	r4, #1
 8002cb8:	d00a      	beq.n	8002cd0 <HAL_UART_Receive_DMA+0x2c>
 8002cba:	2401      	movs	r4, #1
 8002cbc:	f880 403c 	strb.w	r4, [r0, #60]	; 0x3c
 8002cc0:	2400      	movs	r4, #0
 8002cc2:	6304      	str	r4, [r0, #48]	; 0x30
 8002cc4:	bc70      	pop	{r4, r5, r6}
 8002cc6:	f7ff bfb7 	b.w	8002c38 <UART_Start_Receive_DMA>
 8002cca:	2001      	movs	r0, #1
 8002ccc:	bc70      	pop	{r4, r5, r6}
 8002cce:	4770      	bx	lr
 8002cd0:	2002      	movs	r0, #2
 8002cd2:	e7fb      	b.n	8002ccc <HAL_UART_Receive_DMA+0x28>

08002cd4 <atoi>:
 8002cd4:	220a      	movs	r2, #10
 8002cd6:	2100      	movs	r1, #0
 8002cd8:	f000 b932 	b.w	8002f40 <strtol>

08002cdc <__errno>:
 8002cdc:	4b01      	ldr	r3, [pc, #4]	; (8002ce4 <__errno+0x8>)
 8002cde:	6818      	ldr	r0, [r3, #0]
 8002ce0:	4770      	bx	lr
 8002ce2:	bf00      	nop
 8002ce4:	2000002c 	.word	0x2000002c

08002ce8 <__libc_init_array>:
 8002ce8:	b570      	push	{r4, r5, r6, lr}
 8002cea:	4d0d      	ldr	r5, [pc, #52]	; (8002d20 <__libc_init_array+0x38>)
 8002cec:	4c0d      	ldr	r4, [pc, #52]	; (8002d24 <__libc_init_array+0x3c>)
 8002cee:	1b64      	subs	r4, r4, r5
 8002cf0:	10a4      	asrs	r4, r4, #2
 8002cf2:	2600      	movs	r6, #0
 8002cf4:	42a6      	cmp	r6, r4
 8002cf6:	d109      	bne.n	8002d0c <__libc_init_array+0x24>
 8002cf8:	4d0b      	ldr	r5, [pc, #44]	; (8002d28 <__libc_init_array+0x40>)
 8002cfa:	4c0c      	ldr	r4, [pc, #48]	; (8002d2c <__libc_init_array+0x44>)
 8002cfc:	f001 fa9e 	bl	800423c <_init>
 8002d00:	1b64      	subs	r4, r4, r5
 8002d02:	10a4      	asrs	r4, r4, #2
 8002d04:	2600      	movs	r6, #0
 8002d06:	42a6      	cmp	r6, r4
 8002d08:	d105      	bne.n	8002d16 <__libc_init_array+0x2e>
 8002d0a:	bd70      	pop	{r4, r5, r6, pc}
 8002d0c:	f855 3b04 	ldr.w	r3, [r5], #4
 8002d10:	4798      	blx	r3
 8002d12:	3601      	adds	r6, #1
 8002d14:	e7ee      	b.n	8002cf4 <__libc_init_array+0xc>
 8002d16:	f855 3b04 	ldr.w	r3, [r5], #4
 8002d1a:	4798      	blx	r3
 8002d1c:	3601      	adds	r6, #1
 8002d1e:	e7f2      	b.n	8002d06 <__libc_init_array+0x1e>
 8002d20:	080045b0 	.word	0x080045b0
 8002d24:	080045b0 	.word	0x080045b0
 8002d28:	080045b0 	.word	0x080045b0
 8002d2c:	080045b4 	.word	0x080045b4

08002d30 <memset>:
 8002d30:	4402      	add	r2, r0
 8002d32:	4603      	mov	r3, r0
 8002d34:	4293      	cmp	r3, r2
 8002d36:	d100      	bne.n	8002d3a <memset+0xa>
 8002d38:	4770      	bx	lr
 8002d3a:	f803 1b01 	strb.w	r1, [r3], #1
 8002d3e:	e7f9      	b.n	8002d34 <memset+0x4>

08002d40 <siprintf>:
 8002d40:	b40e      	push	{r1, r2, r3}
 8002d42:	b500      	push	{lr}
 8002d44:	b09c      	sub	sp, #112	; 0x70
 8002d46:	ab1d      	add	r3, sp, #116	; 0x74
 8002d48:	9002      	str	r0, [sp, #8]
 8002d4a:	9006      	str	r0, [sp, #24]
 8002d4c:	f06f 4100 	mvn.w	r1, #2147483648	; 0x80000000
 8002d50:	4809      	ldr	r0, [pc, #36]	; (8002d78 <siprintf+0x38>)
 8002d52:	9107      	str	r1, [sp, #28]
 8002d54:	9104      	str	r1, [sp, #16]
 8002d56:	4909      	ldr	r1, [pc, #36]	; (8002d7c <siprintf+0x3c>)
 8002d58:	f853 2b04 	ldr.w	r2, [r3], #4
 8002d5c:	9105      	str	r1, [sp, #20]
 8002d5e:	6800      	ldr	r0, [r0, #0]
 8002d60:	9301      	str	r3, [sp, #4]
 8002d62:	a902      	add	r1, sp, #8
 8002d64:	f000 fa34 	bl	80031d0 <_svfiprintf_r>
 8002d68:	9b02      	ldr	r3, [sp, #8]
 8002d6a:	2200      	movs	r2, #0
 8002d6c:	701a      	strb	r2, [r3, #0]
 8002d6e:	b01c      	add	sp, #112	; 0x70
 8002d70:	f85d eb04 	ldr.w	lr, [sp], #4
 8002d74:	b003      	add	sp, #12
 8002d76:	4770      	bx	lr
 8002d78:	2000002c 	.word	0x2000002c
 8002d7c:	ffff0208 	.word	0xffff0208

08002d80 <strtok>:
 8002d80:	4b16      	ldr	r3, [pc, #88]	; (8002ddc <strtok+0x5c>)
 8002d82:	b573      	push	{r0, r1, r4, r5, r6, lr}
 8002d84:	681e      	ldr	r6, [r3, #0]
 8002d86:	6db4      	ldr	r4, [r6, #88]	; 0x58
 8002d88:	4605      	mov	r5, r0
 8002d8a:	b9fc      	cbnz	r4, 8002dcc <strtok+0x4c>
 8002d8c:	2050      	movs	r0, #80	; 0x50
 8002d8e:	9101      	str	r1, [sp, #4]
 8002d90:	f000 f910 	bl	8002fb4 <malloc>
 8002d94:	9901      	ldr	r1, [sp, #4]
 8002d96:	65b0      	str	r0, [r6, #88]	; 0x58
 8002d98:	4602      	mov	r2, r0
 8002d9a:	b920      	cbnz	r0, 8002da6 <strtok+0x26>
 8002d9c:	4b10      	ldr	r3, [pc, #64]	; (8002de0 <strtok+0x60>)
 8002d9e:	4811      	ldr	r0, [pc, #68]	; (8002de4 <strtok+0x64>)
 8002da0:	2157      	movs	r1, #87	; 0x57
 8002da2:	f000 f8d7 	bl	8002f54 <__assert_func>
 8002da6:	e9c0 4400 	strd	r4, r4, [r0]
 8002daa:	e9c0 4402 	strd	r4, r4, [r0, #8]
 8002dae:	e9c0 4404 	strd	r4, r4, [r0, #16]
 8002db2:	e9c0 440a 	strd	r4, r4, [r0, #40]	; 0x28
 8002db6:	e9c0 440c 	strd	r4, r4, [r0, #48]	; 0x30
 8002dba:	e9c0 440e 	strd	r4, r4, [r0, #56]	; 0x38
 8002dbe:	e9c0 4410 	strd	r4, r4, [r0, #64]	; 0x40
 8002dc2:	e9c0 4412 	strd	r4, r4, [r0, #72]	; 0x48
 8002dc6:	6184      	str	r4, [r0, #24]
 8002dc8:	7704      	strb	r4, [r0, #28]
 8002dca:	6244      	str	r4, [r0, #36]	; 0x24
 8002dcc:	6db2      	ldr	r2, [r6, #88]	; 0x58
 8002dce:	2301      	movs	r3, #1
 8002dd0:	4628      	mov	r0, r5
 8002dd2:	b002      	add	sp, #8
 8002dd4:	e8bd 4070 	ldmia.w	sp!, {r4, r5, r6, lr}
 8002dd8:	f000 b806 	b.w	8002de8 <__strtok_r>
 8002ddc:	2000002c 	.word	0x2000002c
 8002de0:	08004360 	.word	0x08004360
 8002de4:	08004377 	.word	0x08004377

08002de8 <__strtok_r>:
 8002de8:	b5f0      	push	{r4, r5, r6, r7, lr}
 8002dea:	b908      	cbnz	r0, 8002df0 <__strtok_r+0x8>
 8002dec:	6810      	ldr	r0, [r2, #0]
 8002dee:	b188      	cbz	r0, 8002e14 <__strtok_r+0x2c>
 8002df0:	4604      	mov	r4, r0
 8002df2:	4620      	mov	r0, r4
 8002df4:	f814 5b01 	ldrb.w	r5, [r4], #1
 8002df8:	460f      	mov	r7, r1
 8002dfa:	f817 6b01 	ldrb.w	r6, [r7], #1
 8002dfe:	b91e      	cbnz	r6, 8002e08 <__strtok_r+0x20>
 8002e00:	b965      	cbnz	r5, 8002e1c <__strtok_r+0x34>
 8002e02:	6015      	str	r5, [r2, #0]
 8002e04:	4628      	mov	r0, r5
 8002e06:	e005      	b.n	8002e14 <__strtok_r+0x2c>
 8002e08:	42b5      	cmp	r5, r6
 8002e0a:	d1f6      	bne.n	8002dfa <__strtok_r+0x12>
 8002e0c:	2b00      	cmp	r3, #0
 8002e0e:	d1f0      	bne.n	8002df2 <__strtok_r+0xa>
 8002e10:	6014      	str	r4, [r2, #0]
 8002e12:	7003      	strb	r3, [r0, #0]
 8002e14:	bdf0      	pop	{r4, r5, r6, r7, pc}
 8002e16:	461c      	mov	r4, r3
 8002e18:	e00c      	b.n	8002e34 <__strtok_r+0x4c>
 8002e1a:	b915      	cbnz	r5, 8002e22 <__strtok_r+0x3a>
 8002e1c:	f814 3b01 	ldrb.w	r3, [r4], #1
 8002e20:	460e      	mov	r6, r1
 8002e22:	f816 5b01 	ldrb.w	r5, [r6], #1
 8002e26:	42ab      	cmp	r3, r5
 8002e28:	d1f7      	bne.n	8002e1a <__strtok_r+0x32>
 8002e2a:	2b00      	cmp	r3, #0
 8002e2c:	d0f3      	beq.n	8002e16 <__strtok_r+0x2e>
 8002e2e:	2300      	movs	r3, #0
 8002e30:	f804 3c01 	strb.w	r3, [r4, #-1]
 8002e34:	6014      	str	r4, [r2, #0]
 8002e36:	e7ed      	b.n	8002e14 <__strtok_r+0x2c>

08002e38 <_strtol_l.isra.0>:
 8002e38:	2b01      	cmp	r3, #1
 8002e3a:	e92d 47f0 	stmdb	sp!, {r4, r5, r6, r7, r8, r9, sl, lr}
 8002e3e:	d001      	beq.n	8002e44 <_strtol_l.isra.0+0xc>
 8002e40:	2b24      	cmp	r3, #36	; 0x24
 8002e42:	d906      	bls.n	8002e52 <_strtol_l.isra.0+0x1a>
 8002e44:	f7ff ff4a 	bl	8002cdc <__errno>
 8002e48:	2316      	movs	r3, #22
 8002e4a:	6003      	str	r3, [r0, #0]
 8002e4c:	2000      	movs	r0, #0
 8002e4e:	e8bd 87f0 	ldmia.w	sp!, {r4, r5, r6, r7, r8, r9, sl, pc}
 8002e52:	4f3a      	ldr	r7, [pc, #232]	; (8002f3c <_strtol_l.isra.0+0x104>)
 8002e54:	468e      	mov	lr, r1
 8002e56:	4676      	mov	r6, lr
 8002e58:	f81e 4b01 	ldrb.w	r4, [lr], #1
 8002e5c:	5de5      	ldrb	r5, [r4, r7]
 8002e5e:	f015 0508 	ands.w	r5, r5, #8
 8002e62:	d1f8      	bne.n	8002e56 <_strtol_l.isra.0+0x1e>
 8002e64:	2c2d      	cmp	r4, #45	; 0x2d
 8002e66:	d134      	bne.n	8002ed2 <_strtol_l.isra.0+0x9a>
 8002e68:	f89e 4000 	ldrb.w	r4, [lr]
 8002e6c:	f04f 0801 	mov.w	r8, #1
 8002e70:	f106 0e02 	add.w	lr, r6, #2
 8002e74:	2b00      	cmp	r3, #0
 8002e76:	d05c      	beq.n	8002f32 <_strtol_l.isra.0+0xfa>
 8002e78:	2b10      	cmp	r3, #16
 8002e7a:	d10c      	bne.n	8002e96 <_strtol_l.isra.0+0x5e>
 8002e7c:	2c30      	cmp	r4, #48	; 0x30
 8002e7e:	d10a      	bne.n	8002e96 <_strtol_l.isra.0+0x5e>
 8002e80:	f89e 4000 	ldrb.w	r4, [lr]
 8002e84:	f004 04df 	and.w	r4, r4, #223	; 0xdf
 8002e88:	2c58      	cmp	r4, #88	; 0x58
 8002e8a:	d14d      	bne.n	8002f28 <_strtol_l.isra.0+0xf0>
 8002e8c:	f89e 4001 	ldrb.w	r4, [lr, #1]
 8002e90:	2310      	movs	r3, #16
 8002e92:	f10e 0e02 	add.w	lr, lr, #2
 8002e96:	f108 4c00 	add.w	ip, r8, #2147483648	; 0x80000000
 8002e9a:	f10c 3cff 	add.w	ip, ip, #4294967295
 8002e9e:	2600      	movs	r6, #0
 8002ea0:	fbbc f9f3 	udiv	r9, ip, r3
 8002ea4:	4635      	mov	r5, r6
 8002ea6:	fb03 ca19 	mls	sl, r3, r9, ip
 8002eaa:	f1a4 0730 	sub.w	r7, r4, #48	; 0x30
 8002eae:	2f09      	cmp	r7, #9
 8002eb0:	d818      	bhi.n	8002ee4 <_strtol_l.isra.0+0xac>
 8002eb2:	463c      	mov	r4, r7
 8002eb4:	42a3      	cmp	r3, r4
 8002eb6:	dd24      	ble.n	8002f02 <_strtol_l.isra.0+0xca>
 8002eb8:	2e00      	cmp	r6, #0
 8002eba:	db1f      	blt.n	8002efc <_strtol_l.isra.0+0xc4>
 8002ebc:	45a9      	cmp	r9, r5
 8002ebe:	d31d      	bcc.n	8002efc <_strtol_l.isra.0+0xc4>
 8002ec0:	d101      	bne.n	8002ec6 <_strtol_l.isra.0+0x8e>
 8002ec2:	45a2      	cmp	sl, r4
 8002ec4:	db1a      	blt.n	8002efc <_strtol_l.isra.0+0xc4>
 8002ec6:	fb05 4503 	mla	r5, r5, r3, r4
 8002eca:	2601      	movs	r6, #1
 8002ecc:	f81e 4b01 	ldrb.w	r4, [lr], #1
 8002ed0:	e7eb      	b.n	8002eaa <_strtol_l.isra.0+0x72>
 8002ed2:	2c2b      	cmp	r4, #43	; 0x2b
 8002ed4:	bf08      	it	eq
 8002ed6:	f89e 4000 	ldrbeq.w	r4, [lr]
 8002eda:	46a8      	mov	r8, r5
 8002edc:	bf08      	it	eq
 8002ede:	f106 0e02 	addeq.w	lr, r6, #2
 8002ee2:	e7c7      	b.n	8002e74 <_strtol_l.isra.0+0x3c>
 8002ee4:	f1a4 0741 	sub.w	r7, r4, #65	; 0x41
 8002ee8:	2f19      	cmp	r7, #25
 8002eea:	d801      	bhi.n	8002ef0 <_strtol_l.isra.0+0xb8>
 8002eec:	3c37      	subs	r4, #55	; 0x37
 8002eee:	e7e1      	b.n	8002eb4 <_strtol_l.isra.0+0x7c>
 8002ef0:	f1a4 0761 	sub.w	r7, r4, #97	; 0x61
 8002ef4:	2f19      	cmp	r7, #25
 8002ef6:	d804      	bhi.n	8002f02 <_strtol_l.isra.0+0xca>
 8002ef8:	3c57      	subs	r4, #87	; 0x57
 8002efa:	e7db      	b.n	8002eb4 <_strtol_l.isra.0+0x7c>
 8002efc:	f04f 36ff 	mov.w	r6, #4294967295
 8002f00:	e7e4      	b.n	8002ecc <_strtol_l.isra.0+0x94>
 8002f02:	2e00      	cmp	r6, #0
 8002f04:	da05      	bge.n	8002f12 <_strtol_l.isra.0+0xda>
 8002f06:	2322      	movs	r3, #34	; 0x22
 8002f08:	6003      	str	r3, [r0, #0]
 8002f0a:	4665      	mov	r5, ip
 8002f0c:	b942      	cbnz	r2, 8002f20 <_strtol_l.isra.0+0xe8>
 8002f0e:	4628      	mov	r0, r5
 8002f10:	e79d      	b.n	8002e4e <_strtol_l.isra.0+0x16>
 8002f12:	f1b8 0f00 	cmp.w	r8, #0
 8002f16:	d000      	beq.n	8002f1a <_strtol_l.isra.0+0xe2>
 8002f18:	426d      	negs	r5, r5
 8002f1a:	2a00      	cmp	r2, #0
 8002f1c:	d0f7      	beq.n	8002f0e <_strtol_l.isra.0+0xd6>
 8002f1e:	b10e      	cbz	r6, 8002f24 <_strtol_l.isra.0+0xec>
 8002f20:	f10e 31ff 	add.w	r1, lr, #4294967295
 8002f24:	6011      	str	r1, [r2, #0]
 8002f26:	e7f2      	b.n	8002f0e <_strtol_l.isra.0+0xd6>
 8002f28:	2430      	movs	r4, #48	; 0x30
 8002f2a:	2b00      	cmp	r3, #0
 8002f2c:	d1b3      	bne.n	8002e96 <_strtol_l.isra.0+0x5e>
 8002f2e:	2308      	movs	r3, #8
 8002f30:	e7b1      	b.n	8002e96 <_strtol_l.isra.0+0x5e>
 8002f32:	2c30      	cmp	r4, #48	; 0x30
 8002f34:	d0a4      	beq.n	8002e80 <_strtol_l.isra.0+0x48>
 8002f36:	230a      	movs	r3, #10
 8002f38:	e7ad      	b.n	8002e96 <_strtol_l.isra.0+0x5e>
 8002f3a:	bf00      	nop
 8002f3c:	08004415 	.word	0x08004415

08002f40 <strtol>:
 8002f40:	4613      	mov	r3, r2
 8002f42:	460a      	mov	r2, r1
 8002f44:	4601      	mov	r1, r0
 8002f46:	4802      	ldr	r0, [pc, #8]	; (8002f50 <strtol+0x10>)
 8002f48:	6800      	ldr	r0, [r0, #0]
 8002f4a:	f7ff bf75 	b.w	8002e38 <_strtol_l.isra.0>
 8002f4e:	bf00      	nop
 8002f50:	2000002c 	.word	0x2000002c

08002f54 <__assert_func>:
 8002f54:	b51f      	push	{r0, r1, r2, r3, r4, lr}
 8002f56:	4614      	mov	r4, r2
 8002f58:	461a      	mov	r2, r3
 8002f5a:	4b09      	ldr	r3, [pc, #36]	; (8002f80 <__assert_func+0x2c>)
 8002f5c:	681b      	ldr	r3, [r3, #0]
 8002f5e:	4605      	mov	r5, r0
 8002f60:	68d8      	ldr	r0, [r3, #12]
 8002f62:	b14c      	cbz	r4, 8002f78 <__assert_func+0x24>
 8002f64:	4b07      	ldr	r3, [pc, #28]	; (8002f84 <__assert_func+0x30>)
 8002f66:	9100      	str	r1, [sp, #0]
 8002f68:	e9cd 3401 	strd	r3, r4, [sp, #4]
 8002f6c:	4906      	ldr	r1, [pc, #24]	; (8002f88 <__assert_func+0x34>)
 8002f6e:	462b      	mov	r3, r5
 8002f70:	f000 f80e 	bl	8002f90 <fiprintf>
 8002f74:	f000 fdea 	bl	8003b4c <abort>
 8002f78:	4b04      	ldr	r3, [pc, #16]	; (8002f8c <__assert_func+0x38>)
 8002f7a:	461c      	mov	r4, r3
 8002f7c:	e7f3      	b.n	8002f66 <__assert_func+0x12>
 8002f7e:	bf00      	nop
 8002f80:	2000002c 	.word	0x2000002c
 8002f84:	080043d8 	.word	0x080043d8
 8002f88:	080043e5 	.word	0x080043e5
 8002f8c:	08004353 	.word	0x08004353

08002f90 <fiprintf>:
 8002f90:	b40e      	push	{r1, r2, r3}
 8002f92:	b503      	push	{r0, r1, lr}
 8002f94:	4601      	mov	r1, r0
 8002f96:	ab03      	add	r3, sp, #12
 8002f98:	4805      	ldr	r0, [pc, #20]	; (8002fb0 <fiprintf+0x20>)
 8002f9a:	f853 2b04 	ldr.w	r2, [r3], #4
 8002f9e:	6800      	ldr	r0, [r0, #0]
 8002fa0:	9301      	str	r3, [sp, #4]
 8002fa2:	f000 fa3f 	bl	8003424 <_vfiprintf_r>
 8002fa6:	b002      	add	sp, #8
 8002fa8:	f85d eb04 	ldr.w	lr, [sp], #4
 8002fac:	b003      	add	sp, #12
 8002fae:	4770      	bx	lr
 8002fb0:	2000002c 	.word	0x2000002c

08002fb4 <malloc>:
 8002fb4:	4b02      	ldr	r3, [pc, #8]	; (8002fc0 <malloc+0xc>)
 8002fb6:	4601      	mov	r1, r0
 8002fb8:	6818      	ldr	r0, [r3, #0]
 8002fba:	f000 b853 	b.w	8003064 <_malloc_r>
 8002fbe:	bf00      	nop
 8002fc0:	2000002c 	.word	0x2000002c

08002fc4 <_free_r>:
 8002fc4:	b537      	push	{r0, r1, r2, r4, r5, lr}
 8002fc6:	2900      	cmp	r1, #0
 8002fc8:	d048      	beq.n	800305c <_free_r+0x98>
 8002fca:	f851 3c04 	ldr.w	r3, [r1, #-4]
 8002fce:	9001      	str	r0, [sp, #4]
 8002fd0:	2b00      	cmp	r3, #0
 8002fd2:	f1a1 0404 	sub.w	r4, r1, #4
 8002fd6:	bfb8      	it	lt
 8002fd8:	18e4      	addlt	r4, r4, r3
 8002fda:	f001 f805 	bl	8003fe8 <__malloc_lock>
 8002fde:	4a20      	ldr	r2, [pc, #128]	; (8003060 <_free_r+0x9c>)
 8002fe0:	9801      	ldr	r0, [sp, #4]
 8002fe2:	6813      	ldr	r3, [r2, #0]
 8002fe4:	4615      	mov	r5, r2
 8002fe6:	b933      	cbnz	r3, 8002ff6 <_free_r+0x32>
 8002fe8:	6063      	str	r3, [r4, #4]
 8002fea:	6014      	str	r4, [r2, #0]
 8002fec:	b003      	add	sp, #12
 8002fee:	e8bd 4030 	ldmia.w	sp!, {r4, r5, lr}
 8002ff2:	f000 bfff 	b.w	8003ff4 <__malloc_unlock>
 8002ff6:	42a3      	cmp	r3, r4
 8002ff8:	d90b      	bls.n	8003012 <_free_r+0x4e>
 8002ffa:	6821      	ldr	r1, [r4, #0]
 8002ffc:	1862      	adds	r2, r4, r1
 8002ffe:	4293      	cmp	r3, r2
 8003000:	bf04      	itt	eq
 8003002:	681a      	ldreq	r2, [r3, #0]
 8003004:	685b      	ldreq	r3, [r3, #4]
 8003006:	6063      	str	r3, [r4, #4]
 8003008:	bf04      	itt	eq
 800300a:	1852      	addeq	r2, r2, r1
 800300c:	6022      	streq	r2, [r4, #0]
 800300e:	602c      	str	r4, [r5, #0]
 8003010:	e7ec      	b.n	8002fec <_free_r+0x28>
 8003012:	461a      	mov	r2, r3
 8003014:	685b      	ldr	r3, [r3, #4]
 8003016:	b10b      	cbz	r3, 800301c <_free_r+0x58>
 8003018:	42a3      	cmp	r3, r4
 800301a:	d9fa      	bls.n	8003012 <_free_r+0x4e>
 800301c:	6811      	ldr	r1, [r2, #0]
 800301e:	1855      	adds	r5, r2, r1
 8003020:	42a5      	cmp	r5, r4
 8003022:	d10b      	bne.n	800303c <_free_r+0x78>
 8003024:	6824      	ldr	r4, [r4, #0]
 8003026:	4421      	add	r1, r4
 8003028:	1854      	adds	r4, r2, r1
 800302a:	42a3      	cmp	r3, r4
 800302c:	6011      	str	r1, [r2, #0]
 800302e:	d1dd      	bne.n	8002fec <_free_r+0x28>
 8003030:	681c      	ldr	r4, [r3, #0]
 8003032:	685b      	ldr	r3, [r3, #4]
 8003034:	6053      	str	r3, [r2, #4]
 8003036:	4421      	add	r1, r4
 8003038:	6011      	str	r1, [r2, #0]
 800303a:	e7d7      	b.n	8002fec <_free_r+0x28>
 800303c:	d902      	bls.n	8003044 <_free_r+0x80>
 800303e:	230c      	movs	r3, #12
 8003040:	6003      	str	r3, [r0, #0]
 8003042:	e7d3      	b.n	8002fec <_free_r+0x28>
 8003044:	6825      	ldr	r5, [r4, #0]
 8003046:	1961      	adds	r1, r4, r5
 8003048:	428b      	cmp	r3, r1
 800304a:	bf04      	itt	eq
 800304c:	6819      	ldreq	r1, [r3, #0]
 800304e:	685b      	ldreq	r3, [r3, #4]
 8003050:	6063      	str	r3, [r4, #4]
 8003052:	bf04      	itt	eq
 8003054:	1949      	addeq	r1, r1, r5
 8003056:	6021      	streq	r1, [r4, #0]
 8003058:	6054      	str	r4, [r2, #4]
 800305a:	e7c7      	b.n	8002fec <_free_r+0x28>
 800305c:	b003      	add	sp, #12
 800305e:	bd30      	pop	{r4, r5, pc}
 8003060:	200000b4 	.word	0x200000b4

08003064 <_malloc_r>:
 8003064:	b5f8      	push	{r3, r4, r5, r6, r7, lr}
 8003066:	1ccd      	adds	r5, r1, #3
 8003068:	f025 0503 	bic.w	r5, r5, #3
 800306c:	3508      	adds	r5, #8
 800306e:	2d0c      	cmp	r5, #12
 8003070:	bf38      	it	cc
 8003072:	250c      	movcc	r5, #12
 8003074:	2d00      	cmp	r5, #0
 8003076:	4606      	mov	r6, r0
 8003078:	db01      	blt.n	800307e <_malloc_r+0x1a>
 800307a:	42a9      	cmp	r1, r5
 800307c:	d903      	bls.n	8003086 <_malloc_r+0x22>
 800307e:	230c      	movs	r3, #12
 8003080:	6033      	str	r3, [r6, #0]
 8003082:	2000      	movs	r0, #0
 8003084:	bdf8      	pop	{r3, r4, r5, r6, r7, pc}
 8003086:	f000 ffaf 	bl	8003fe8 <__malloc_lock>
 800308a:	4921      	ldr	r1, [pc, #132]	; (8003110 <_malloc_r+0xac>)
 800308c:	680a      	ldr	r2, [r1, #0]
 800308e:	4614      	mov	r4, r2
 8003090:	b99c      	cbnz	r4, 80030ba <_malloc_r+0x56>
 8003092:	4f20      	ldr	r7, [pc, #128]	; (8003114 <_malloc_r+0xb0>)
 8003094:	683b      	ldr	r3, [r7, #0]
 8003096:	b923      	cbnz	r3, 80030a2 <_malloc_r+0x3e>
 8003098:	4621      	mov	r1, r4
 800309a:	4630      	mov	r0, r6
 800309c:	f000 fc86 	bl	80039ac <_sbrk_r>
 80030a0:	6038      	str	r0, [r7, #0]
 80030a2:	4629      	mov	r1, r5
 80030a4:	4630      	mov	r0, r6
 80030a6:	f000 fc81 	bl	80039ac <_sbrk_r>
 80030aa:	1c43      	adds	r3, r0, #1
 80030ac:	d123      	bne.n	80030f6 <_malloc_r+0x92>
 80030ae:	230c      	movs	r3, #12
 80030b0:	6033      	str	r3, [r6, #0]
 80030b2:	4630      	mov	r0, r6
 80030b4:	f000 ff9e 	bl	8003ff4 <__malloc_unlock>
 80030b8:	e7e3      	b.n	8003082 <_malloc_r+0x1e>
 80030ba:	6823      	ldr	r3, [r4, #0]
 80030bc:	1b5b      	subs	r3, r3, r5
 80030be:	d417      	bmi.n	80030f0 <_malloc_r+0x8c>
 80030c0:	2b0b      	cmp	r3, #11
 80030c2:	d903      	bls.n	80030cc <_malloc_r+0x68>
 80030c4:	6023      	str	r3, [r4, #0]
 80030c6:	441c      	add	r4, r3
 80030c8:	6025      	str	r5, [r4, #0]
 80030ca:	e004      	b.n	80030d6 <_malloc_r+0x72>
 80030cc:	6863      	ldr	r3, [r4, #4]
 80030ce:	42a2      	cmp	r2, r4
 80030d0:	bf0c      	ite	eq
 80030d2:	600b      	streq	r3, [r1, #0]
 80030d4:	6053      	strne	r3, [r2, #4]
 80030d6:	4630      	mov	r0, r6
 80030d8:	f000 ff8c 	bl	8003ff4 <__malloc_unlock>
 80030dc:	f104 000b 	add.w	r0, r4, #11
 80030e0:	1d23      	adds	r3, r4, #4
 80030e2:	f020 0007 	bic.w	r0, r0, #7
 80030e6:	1ac2      	subs	r2, r0, r3
 80030e8:	d0cc      	beq.n	8003084 <_malloc_r+0x20>
 80030ea:	1a1b      	subs	r3, r3, r0
 80030ec:	50a3      	str	r3, [r4, r2]
 80030ee:	e7c9      	b.n	8003084 <_malloc_r+0x20>
 80030f0:	4622      	mov	r2, r4
 80030f2:	6864      	ldr	r4, [r4, #4]
 80030f4:	e7cc      	b.n	8003090 <_malloc_r+0x2c>
 80030f6:	1cc4      	adds	r4, r0, #3
 80030f8:	f024 0403 	bic.w	r4, r4, #3
 80030fc:	42a0      	cmp	r0, r4
 80030fe:	d0e3      	beq.n	80030c8 <_malloc_r+0x64>
 8003100:	1a21      	subs	r1, r4, r0
 8003102:	4630      	mov	r0, r6
 8003104:	f000 fc52 	bl	80039ac <_sbrk_r>
 8003108:	3001      	adds	r0, #1
 800310a:	d1dd      	bne.n	80030c8 <_malloc_r+0x64>
 800310c:	e7cf      	b.n	80030ae <_malloc_r+0x4a>
 800310e:	bf00      	nop
 8003110:	200000b4 	.word	0x200000b4
 8003114:	200000b8 	.word	0x200000b8

08003118 <__ssputs_r>:
 8003118:	e92d 47f0 	stmdb	sp!, {r4, r5, r6, r7, r8, r9, sl, lr}
 800311c:	688e      	ldr	r6, [r1, #8]
 800311e:	429e      	cmp	r6, r3
 8003120:	4682      	mov	sl, r0
 8003122:	460c      	mov	r4, r1
 8003124:	4690      	mov	r8, r2
 8003126:	461f      	mov	r7, r3
 8003128:	d838      	bhi.n	800319c <__ssputs_r+0x84>
 800312a:	898a      	ldrh	r2, [r1, #12]
 800312c:	f412 6f90 	tst.w	r2, #1152	; 0x480
 8003130:	d032      	beq.n	8003198 <__ssputs_r+0x80>
 8003132:	6825      	ldr	r5, [r4, #0]
 8003134:	6909      	ldr	r1, [r1, #16]
 8003136:	eba5 0901 	sub.w	r9, r5, r1
 800313a:	6965      	ldr	r5, [r4, #20]
 800313c:	eb05 0545 	add.w	r5, r5, r5, lsl #1
 8003140:	eb05 75d5 	add.w	r5, r5, r5, lsr #31
 8003144:	3301      	adds	r3, #1
 8003146:	444b      	add	r3, r9
 8003148:	106d      	asrs	r5, r5, #1
 800314a:	429d      	cmp	r5, r3
 800314c:	bf38      	it	cc
 800314e:	461d      	movcc	r5, r3
 8003150:	0553      	lsls	r3, r2, #21
 8003152:	d531      	bpl.n	80031b8 <__ssputs_r+0xa0>
 8003154:	4629      	mov	r1, r5
 8003156:	f7ff ff85 	bl	8003064 <_malloc_r>
 800315a:	4606      	mov	r6, r0
 800315c:	b950      	cbnz	r0, 8003174 <__ssputs_r+0x5c>
 800315e:	230c      	movs	r3, #12
 8003160:	f8ca 3000 	str.w	r3, [sl]
 8003164:	89a3      	ldrh	r3, [r4, #12]
 8003166:	f043 0340 	orr.w	r3, r3, #64	; 0x40
 800316a:	81a3      	strh	r3, [r4, #12]
 800316c:	f04f 30ff 	mov.w	r0, #4294967295
 8003170:	e8bd 87f0 	ldmia.w	sp!, {r4, r5, r6, r7, r8, r9, sl, pc}
 8003174:	6921      	ldr	r1, [r4, #16]
 8003176:	464a      	mov	r2, r9
 8003178:	f000 ff0e 	bl	8003f98 <memcpy>
 800317c:	89a3      	ldrh	r3, [r4, #12]
 800317e:	f423 6390 	bic.w	r3, r3, #1152	; 0x480
 8003182:	f043 0380 	orr.w	r3, r3, #128	; 0x80
 8003186:	81a3      	strh	r3, [r4, #12]
 8003188:	6126      	str	r6, [r4, #16]
 800318a:	6165      	str	r5, [r4, #20]
 800318c:	444e      	add	r6, r9
 800318e:	eba5 0509 	sub.w	r5, r5, r9
 8003192:	6026      	str	r6, [r4, #0]
 8003194:	60a5      	str	r5, [r4, #8]
 8003196:	463e      	mov	r6, r7
 8003198:	42be      	cmp	r6, r7
 800319a:	d900      	bls.n	800319e <__ssputs_r+0x86>
 800319c:	463e      	mov	r6, r7
 800319e:	4632      	mov	r2, r6
 80031a0:	6820      	ldr	r0, [r4, #0]
 80031a2:	4641      	mov	r1, r8
 80031a4:	f000 ff06 	bl	8003fb4 <memmove>
 80031a8:	68a3      	ldr	r3, [r4, #8]
 80031aa:	6822      	ldr	r2, [r4, #0]
 80031ac:	1b9b      	subs	r3, r3, r6
 80031ae:	4432      	add	r2, r6
 80031b0:	60a3      	str	r3, [r4, #8]
 80031b2:	6022      	str	r2, [r4, #0]
 80031b4:	2000      	movs	r0, #0
 80031b6:	e7db      	b.n	8003170 <__ssputs_r+0x58>
 80031b8:	462a      	mov	r2, r5
 80031ba:	f000 ff21 	bl	8004000 <_realloc_r>
 80031be:	4606      	mov	r6, r0
 80031c0:	2800      	cmp	r0, #0
 80031c2:	d1e1      	bne.n	8003188 <__ssputs_r+0x70>
 80031c4:	6921      	ldr	r1, [r4, #16]
 80031c6:	4650      	mov	r0, sl
 80031c8:	f7ff fefc 	bl	8002fc4 <_free_r>
 80031cc:	e7c7      	b.n	800315e <__ssputs_r+0x46>
	...

080031d0 <_svfiprintf_r>:
 80031d0:	e92d 4ff0 	stmdb	sp!, {r4, r5, r6, r7, r8, r9, sl, fp, lr}
 80031d4:	4698      	mov	r8, r3
 80031d6:	898b      	ldrh	r3, [r1, #12]
 80031d8:	061b      	lsls	r3, r3, #24
 80031da:	b09d      	sub	sp, #116	; 0x74
 80031dc:	4607      	mov	r7, r0
 80031de:	460d      	mov	r5, r1
 80031e0:	4614      	mov	r4, r2
 80031e2:	d50e      	bpl.n	8003202 <_svfiprintf_r+0x32>
 80031e4:	690b      	ldr	r3, [r1, #16]
 80031e6:	b963      	cbnz	r3, 8003202 <_svfiprintf_r+0x32>
 80031e8:	2140      	movs	r1, #64	; 0x40
 80031ea:	f7ff ff3b 	bl	8003064 <_malloc_r>
 80031ee:	6028      	str	r0, [r5, #0]
 80031f0:	6128      	str	r0, [r5, #16]
 80031f2:	b920      	cbnz	r0, 80031fe <_svfiprintf_r+0x2e>
 80031f4:	230c      	movs	r3, #12
 80031f6:	603b      	str	r3, [r7, #0]
 80031f8:	f04f 30ff 	mov.w	r0, #4294967295
 80031fc:	e0d1      	b.n	80033a2 <_svfiprintf_r+0x1d2>
 80031fe:	2340      	movs	r3, #64	; 0x40
 8003200:	616b      	str	r3, [r5, #20]
 8003202:	2300      	movs	r3, #0
 8003204:	9309      	str	r3, [sp, #36]	; 0x24
 8003206:	2320      	movs	r3, #32
 8003208:	f88d 3029 	strb.w	r3, [sp, #41]	; 0x29
 800320c:	f8cd 800c 	str.w	r8, [sp, #12]
 8003210:	2330      	movs	r3, #48	; 0x30
 8003212:	f8df 81a8 	ldr.w	r8, [pc, #424]	; 80033bc <_svfiprintf_r+0x1ec>
 8003216:	f88d 302a 	strb.w	r3, [sp, #42]	; 0x2a
 800321a:	f04f 0901 	mov.w	r9, #1
 800321e:	4623      	mov	r3, r4
 8003220:	469a      	mov	sl, r3
 8003222:	f813 2b01 	ldrb.w	r2, [r3], #1
 8003226:	b10a      	cbz	r2, 800322c <_svfiprintf_r+0x5c>
 8003228:	2a25      	cmp	r2, #37	; 0x25
 800322a:	d1f9      	bne.n	8003220 <_svfiprintf_r+0x50>
 800322c:	ebba 0b04 	subs.w	fp, sl, r4
 8003230:	d00b      	beq.n	800324a <_svfiprintf_r+0x7a>
 8003232:	465b      	mov	r3, fp
 8003234:	4622      	mov	r2, r4
 8003236:	4629      	mov	r1, r5
 8003238:	4638      	mov	r0, r7
 800323a:	f7ff ff6d 	bl	8003118 <__ssputs_r>
 800323e:	3001      	adds	r0, #1
 8003240:	f000 80aa 	beq.w	8003398 <_svfiprintf_r+0x1c8>
 8003244:	9a09      	ldr	r2, [sp, #36]	; 0x24
 8003246:	445a      	add	r2, fp
 8003248:	9209      	str	r2, [sp, #36]	; 0x24
 800324a:	f89a 3000 	ldrb.w	r3, [sl]
 800324e:	2b00      	cmp	r3, #0
 8003250:	f000 80a2 	beq.w	8003398 <_svfiprintf_r+0x1c8>
 8003254:	2300      	movs	r3, #0
 8003256:	f04f 32ff 	mov.w	r2, #4294967295
 800325a:	e9cd 2305 	strd	r2, r3, [sp, #20]
 800325e:	f10a 0a01 	add.w	sl, sl, #1
 8003262:	9304      	str	r3, [sp, #16]
 8003264:	9307      	str	r3, [sp, #28]
 8003266:	f88d 3053 	strb.w	r3, [sp, #83]	; 0x53
 800326a:	931a      	str	r3, [sp, #104]	; 0x68
 800326c:	4654      	mov	r4, sl
 800326e:	2205      	movs	r2, #5
 8003270:	f814 1b01 	ldrb.w	r1, [r4], #1
 8003274:	4851      	ldr	r0, [pc, #324]	; (80033bc <_svfiprintf_r+0x1ec>)
 8003276:	f7fc ffc3 	bl	8000200 <memchr>
 800327a:	9a04      	ldr	r2, [sp, #16]
 800327c:	b9d8      	cbnz	r0, 80032b6 <_svfiprintf_r+0xe6>
 800327e:	06d0      	lsls	r0, r2, #27
 8003280:	bf44      	itt	mi
 8003282:	2320      	movmi	r3, #32
 8003284:	f88d 3053 	strbmi.w	r3, [sp, #83]	; 0x53
 8003288:	0711      	lsls	r1, r2, #28
 800328a:	bf44      	itt	mi
 800328c:	232b      	movmi	r3, #43	; 0x2b
 800328e:	f88d 3053 	strbmi.w	r3, [sp, #83]	; 0x53
 8003292:	f89a 3000 	ldrb.w	r3, [sl]
 8003296:	2b2a      	cmp	r3, #42	; 0x2a
 8003298:	d015      	beq.n	80032c6 <_svfiprintf_r+0xf6>
 800329a:	9a07      	ldr	r2, [sp, #28]
 800329c:	4654      	mov	r4, sl
 800329e:	2000      	movs	r0, #0
 80032a0:	f04f 0c0a 	mov.w	ip, #10
 80032a4:	4621      	mov	r1, r4
 80032a6:	f811 3b01 	ldrb.w	r3, [r1], #1
 80032aa:	3b30      	subs	r3, #48	; 0x30
 80032ac:	2b09      	cmp	r3, #9
 80032ae:	d94e      	bls.n	800334e <_svfiprintf_r+0x17e>
 80032b0:	b1b0      	cbz	r0, 80032e0 <_svfiprintf_r+0x110>
 80032b2:	9207      	str	r2, [sp, #28]
 80032b4:	e014      	b.n	80032e0 <_svfiprintf_r+0x110>
 80032b6:	eba0 0308 	sub.w	r3, r0, r8
 80032ba:	fa09 f303 	lsl.w	r3, r9, r3
 80032be:	4313      	orrs	r3, r2
 80032c0:	9304      	str	r3, [sp, #16]
 80032c2:	46a2      	mov	sl, r4
 80032c4:	e7d2      	b.n	800326c <_svfiprintf_r+0x9c>
 80032c6:	9b03      	ldr	r3, [sp, #12]
 80032c8:	1d19      	adds	r1, r3, #4
 80032ca:	681b      	ldr	r3, [r3, #0]
 80032cc:	9103      	str	r1, [sp, #12]
 80032ce:	2b00      	cmp	r3, #0
 80032d0:	bfbb      	ittet	lt
 80032d2:	425b      	neglt	r3, r3
 80032d4:	f042 0202 	orrlt.w	r2, r2, #2
 80032d8:	9307      	strge	r3, [sp, #28]
 80032da:	9307      	strlt	r3, [sp, #28]
 80032dc:	bfb8      	it	lt
 80032de:	9204      	strlt	r2, [sp, #16]
 80032e0:	7823      	ldrb	r3, [r4, #0]
 80032e2:	2b2e      	cmp	r3, #46	; 0x2e
 80032e4:	d10c      	bne.n	8003300 <_svfiprintf_r+0x130>
 80032e6:	7863      	ldrb	r3, [r4, #1]
 80032e8:	2b2a      	cmp	r3, #42	; 0x2a
 80032ea:	d135      	bne.n	8003358 <_svfiprintf_r+0x188>
 80032ec:	9b03      	ldr	r3, [sp, #12]
 80032ee:	1d1a      	adds	r2, r3, #4
 80032f0:	681b      	ldr	r3, [r3, #0]
 80032f2:	9203      	str	r2, [sp, #12]
 80032f4:	2b00      	cmp	r3, #0
 80032f6:	bfb8      	it	lt
 80032f8:	f04f 33ff 	movlt.w	r3, #4294967295
 80032fc:	3402      	adds	r4, #2
 80032fe:	9305      	str	r3, [sp, #20]
 8003300:	f8df a0c8 	ldr.w	sl, [pc, #200]	; 80033cc <_svfiprintf_r+0x1fc>
 8003304:	7821      	ldrb	r1, [r4, #0]
 8003306:	2203      	movs	r2, #3
 8003308:	4650      	mov	r0, sl
 800330a:	f7fc ff79 	bl	8000200 <memchr>
 800330e:	b140      	cbz	r0, 8003322 <_svfiprintf_r+0x152>
 8003310:	2340      	movs	r3, #64	; 0x40
 8003312:	eba0 000a 	sub.w	r0, r0, sl
 8003316:	fa03 f000 	lsl.w	r0, r3, r0
 800331a:	9b04      	ldr	r3, [sp, #16]
 800331c:	4303      	orrs	r3, r0
 800331e:	3401      	adds	r4, #1
 8003320:	9304      	str	r3, [sp, #16]
 8003322:	f814 1b01 	ldrb.w	r1, [r4], #1
 8003326:	4826      	ldr	r0, [pc, #152]	; (80033c0 <_svfiprintf_r+0x1f0>)
 8003328:	f88d 1028 	strb.w	r1, [sp, #40]	; 0x28
 800332c:	2206      	movs	r2, #6
 800332e:	f7fc ff67 	bl	8000200 <memchr>
 8003332:	2800      	cmp	r0, #0
 8003334:	d038      	beq.n	80033a8 <_svfiprintf_r+0x1d8>
 8003336:	4b23      	ldr	r3, [pc, #140]	; (80033c4 <_svfiprintf_r+0x1f4>)
 8003338:	bb1b      	cbnz	r3, 8003382 <_svfiprintf_r+0x1b2>
 800333a:	9b03      	ldr	r3, [sp, #12]
 800333c:	3307      	adds	r3, #7
 800333e:	f023 0307 	bic.w	r3, r3, #7
 8003342:	3308      	adds	r3, #8
 8003344:	9303      	str	r3, [sp, #12]
 8003346:	9b09      	ldr	r3, [sp, #36]	; 0x24
 8003348:	4433      	add	r3, r6
 800334a:	9309      	str	r3, [sp, #36]	; 0x24
 800334c:	e767      	b.n	800321e <_svfiprintf_r+0x4e>
 800334e:	fb0c 3202 	mla	r2, ip, r2, r3
 8003352:	460c      	mov	r4, r1
 8003354:	2001      	movs	r0, #1
 8003356:	e7a5      	b.n	80032a4 <_svfiprintf_r+0xd4>
 8003358:	2300      	movs	r3, #0
 800335a:	3401      	adds	r4, #1
 800335c:	9305      	str	r3, [sp, #20]
 800335e:	4619      	mov	r1, r3
 8003360:	f04f 0c0a 	mov.w	ip, #10
 8003364:	4620      	mov	r0, r4
 8003366:	f810 2b01 	ldrb.w	r2, [r0], #1
 800336a:	3a30      	subs	r2, #48	; 0x30
 800336c:	2a09      	cmp	r2, #9
 800336e:	d903      	bls.n	8003378 <_svfiprintf_r+0x1a8>
 8003370:	2b00      	cmp	r3, #0
 8003372:	d0c5      	beq.n	8003300 <_svfiprintf_r+0x130>
 8003374:	9105      	str	r1, [sp, #20]
 8003376:	e7c3      	b.n	8003300 <_svfiprintf_r+0x130>
 8003378:	fb0c 2101 	mla	r1, ip, r1, r2
 800337c:	4604      	mov	r4, r0
 800337e:	2301      	movs	r3, #1
 8003380:	e7f0      	b.n	8003364 <_svfiprintf_r+0x194>
 8003382:	ab03      	add	r3, sp, #12
 8003384:	9300      	str	r3, [sp, #0]
 8003386:	462a      	mov	r2, r5
 8003388:	4b0f      	ldr	r3, [pc, #60]	; (80033c8 <_svfiprintf_r+0x1f8>)
 800338a:	a904      	add	r1, sp, #16
 800338c:	4638      	mov	r0, r7
 800338e:	f3af 8000 	nop.w
 8003392:	1c42      	adds	r2, r0, #1
 8003394:	4606      	mov	r6, r0
 8003396:	d1d6      	bne.n	8003346 <_svfiprintf_r+0x176>
 8003398:	89ab      	ldrh	r3, [r5, #12]
 800339a:	065b      	lsls	r3, r3, #25
 800339c:	f53f af2c 	bmi.w	80031f8 <_svfiprintf_r+0x28>
 80033a0:	9809      	ldr	r0, [sp, #36]	; 0x24
 80033a2:	b01d      	add	sp, #116	; 0x74
 80033a4:	e8bd 8ff0 	ldmia.w	sp!, {r4, r5, r6, r7, r8, r9, sl, fp, pc}
 80033a8:	ab03      	add	r3, sp, #12
 80033aa:	9300      	str	r3, [sp, #0]
 80033ac:	462a      	mov	r2, r5
 80033ae:	4b06      	ldr	r3, [pc, #24]	; (80033c8 <_svfiprintf_r+0x1f8>)
 80033b0:	a904      	add	r1, sp, #16
 80033b2:	4638      	mov	r0, r7
 80033b4:	f000 f9d4 	bl	8003760 <_printf_i>
 80033b8:	e7eb      	b.n	8003392 <_svfiprintf_r+0x1c2>
 80033ba:	bf00      	nop
 80033bc:	08004515 	.word	0x08004515
 80033c0:	0800451f 	.word	0x0800451f
 80033c4:	00000000 	.word	0x00000000
 80033c8:	08003119 	.word	0x08003119
 80033cc:	0800451b 	.word	0x0800451b

080033d0 <__sfputc_r>:
 80033d0:	6893      	ldr	r3, [r2, #8]
 80033d2:	3b01      	subs	r3, #1
 80033d4:	2b00      	cmp	r3, #0
 80033d6:	b410      	push	{r4}
 80033d8:	6093      	str	r3, [r2, #8]
 80033da:	da08      	bge.n	80033ee <__sfputc_r+0x1e>
 80033dc:	6994      	ldr	r4, [r2, #24]
 80033de:	42a3      	cmp	r3, r4
 80033e0:	db01      	blt.n	80033e6 <__sfputc_r+0x16>
 80033e2:	290a      	cmp	r1, #10
 80033e4:	d103      	bne.n	80033ee <__sfputc_r+0x1e>
 80033e6:	f85d 4b04 	ldr.w	r4, [sp], #4
 80033ea:	f000 baef 	b.w	80039cc <__swbuf_r>
 80033ee:	6813      	ldr	r3, [r2, #0]
 80033f0:	1c58      	adds	r0, r3, #1
 80033f2:	6010      	str	r0, [r2, #0]
 80033f4:	7019      	strb	r1, [r3, #0]
 80033f6:	4608      	mov	r0, r1
 80033f8:	f85d 4b04 	ldr.w	r4, [sp], #4
 80033fc:	4770      	bx	lr

080033fe <__sfputs_r>:
 80033fe:	b5f8      	push	{r3, r4, r5, r6, r7, lr}
 8003400:	4606      	mov	r6, r0
 8003402:	460f      	mov	r7, r1
 8003404:	4614      	mov	r4, r2
 8003406:	18d5      	adds	r5, r2, r3
 8003408:	42ac      	cmp	r4, r5
 800340a:	d101      	bne.n	8003410 <__sfputs_r+0x12>
 800340c:	2000      	movs	r0, #0
 800340e:	e007      	b.n	8003420 <__sfputs_r+0x22>
 8003410:	f814 1b01 	ldrb.w	r1, [r4], #1
 8003414:	463a      	mov	r2, r7
 8003416:	4630      	mov	r0, r6
 8003418:	f7ff ffda 	bl	80033d0 <__sfputc_r>
 800341c:	1c43      	adds	r3, r0, #1
 800341e:	d1f3      	bne.n	8003408 <__sfputs_r+0xa>
 8003420:	bdf8      	pop	{r3, r4, r5, r6, r7, pc}
	...

08003424 <_vfiprintf_r>:
 8003424:	e92d 4ff0 	stmdb	sp!, {r4, r5, r6, r7, r8, r9, sl, fp, lr}
 8003428:	460d      	mov	r5, r1
 800342a:	b09d      	sub	sp, #116	; 0x74
 800342c:	4614      	mov	r4, r2
 800342e:	4698      	mov	r8, r3
 8003430:	4606      	mov	r6, r0
 8003432:	b118      	cbz	r0, 800343c <_vfiprintf_r+0x18>
 8003434:	6983      	ldr	r3, [r0, #24]
 8003436:	b90b      	cbnz	r3, 800343c <_vfiprintf_r+0x18>
 8003438:	f000 fcaa 	bl	8003d90 <__sinit>
 800343c:	4b89      	ldr	r3, [pc, #548]	; (8003664 <_vfiprintf_r+0x240>)
 800343e:	429d      	cmp	r5, r3
 8003440:	d11b      	bne.n	800347a <_vfiprintf_r+0x56>
 8003442:	6875      	ldr	r5, [r6, #4]
 8003444:	6e6b      	ldr	r3, [r5, #100]	; 0x64
 8003446:	07d9      	lsls	r1, r3, #31
 8003448:	d405      	bmi.n	8003456 <_vfiprintf_r+0x32>
 800344a:	89ab      	ldrh	r3, [r5, #12]
 800344c:	059a      	lsls	r2, r3, #22
 800344e:	d402      	bmi.n	8003456 <_vfiprintf_r+0x32>
 8003450:	6da8      	ldr	r0, [r5, #88]	; 0x58
 8003452:	f000 fd3b 	bl	8003ecc <__retarget_lock_acquire_recursive>
 8003456:	89ab      	ldrh	r3, [r5, #12]
 8003458:	071b      	lsls	r3, r3, #28
 800345a:	d501      	bpl.n	8003460 <_vfiprintf_r+0x3c>
 800345c:	692b      	ldr	r3, [r5, #16]
 800345e:	b9eb      	cbnz	r3, 800349c <_vfiprintf_r+0x78>
 8003460:	4629      	mov	r1, r5
 8003462:	4630      	mov	r0, r6
 8003464:	f000 fb04 	bl	8003a70 <__swsetup_r>
 8003468:	b1c0      	cbz	r0, 800349c <_vfiprintf_r+0x78>
 800346a:	6e6b      	ldr	r3, [r5, #100]	; 0x64
 800346c:	07dc      	lsls	r4, r3, #31
 800346e:	d50e      	bpl.n	800348e <_vfiprintf_r+0x6a>
 8003470:	f04f 30ff 	mov.w	r0, #4294967295
 8003474:	b01d      	add	sp, #116	; 0x74
 8003476:	e8bd 8ff0 	ldmia.w	sp!, {r4, r5, r6, r7, r8, r9, sl, fp, pc}
 800347a:	4b7b      	ldr	r3, [pc, #492]	; (8003668 <_vfiprintf_r+0x244>)
 800347c:	429d      	cmp	r5, r3
 800347e:	d101      	bne.n	8003484 <_vfiprintf_r+0x60>
 8003480:	68b5      	ldr	r5, [r6, #8]
 8003482:	e7df      	b.n	8003444 <_vfiprintf_r+0x20>
 8003484:	4b79      	ldr	r3, [pc, #484]	; (800366c <_vfiprintf_r+0x248>)
 8003486:	429d      	cmp	r5, r3
 8003488:	bf08      	it	eq
 800348a:	68f5      	ldreq	r5, [r6, #12]
 800348c:	e7da      	b.n	8003444 <_vfiprintf_r+0x20>
 800348e:	89ab      	ldrh	r3, [r5, #12]
 8003490:	0598      	lsls	r0, r3, #22
 8003492:	d4ed      	bmi.n	8003470 <_vfiprintf_r+0x4c>
 8003494:	6da8      	ldr	r0, [r5, #88]	; 0x58
 8003496:	f000 fd1a 	bl	8003ece <__retarget_lock_release_recursive>
 800349a:	e7e9      	b.n	8003470 <_vfiprintf_r+0x4c>
 800349c:	2300      	movs	r3, #0
 800349e:	9309      	str	r3, [sp, #36]	; 0x24
 80034a0:	2320      	movs	r3, #32
 80034a2:	f88d 3029 	strb.w	r3, [sp, #41]	; 0x29
 80034a6:	f8cd 800c 	str.w	r8, [sp, #12]
 80034aa:	2330      	movs	r3, #48	; 0x30
 80034ac:	f8df 81c0 	ldr.w	r8, [pc, #448]	; 8003670 <_vfiprintf_r+0x24c>
 80034b0:	f88d 302a 	strb.w	r3, [sp, #42]	; 0x2a
 80034b4:	f04f 0901 	mov.w	r9, #1
 80034b8:	4623      	mov	r3, r4
 80034ba:	469a      	mov	sl, r3
 80034bc:	f813 2b01 	ldrb.w	r2, [r3], #1
 80034c0:	b10a      	cbz	r2, 80034c6 <_vfiprintf_r+0xa2>
 80034c2:	2a25      	cmp	r2, #37	; 0x25
 80034c4:	d1f9      	bne.n	80034ba <_vfiprintf_r+0x96>
 80034c6:	ebba 0b04 	subs.w	fp, sl, r4
 80034ca:	d00b      	beq.n	80034e4 <_vfiprintf_r+0xc0>
 80034cc:	465b      	mov	r3, fp
 80034ce:	4622      	mov	r2, r4
 80034d0:	4629      	mov	r1, r5
 80034d2:	4630      	mov	r0, r6
 80034d4:	f7ff ff93 	bl	80033fe <__sfputs_r>
 80034d8:	3001      	adds	r0, #1
 80034da:	f000 80aa 	beq.w	8003632 <_vfiprintf_r+0x20e>
 80034de:	9a09      	ldr	r2, [sp, #36]	; 0x24
 80034e0:	445a      	add	r2, fp
 80034e2:	9209      	str	r2, [sp, #36]	; 0x24
 80034e4:	f89a 3000 	ldrb.w	r3, [sl]
 80034e8:	2b00      	cmp	r3, #0
 80034ea:	f000 80a2 	beq.w	8003632 <_vfiprintf_r+0x20e>
 80034ee:	2300      	movs	r3, #0
 80034f0:	f04f 32ff 	mov.w	r2, #4294967295
 80034f4:	e9cd 2305 	strd	r2, r3, [sp, #20]
 80034f8:	f10a 0a01 	add.w	sl, sl, #1
 80034fc:	9304      	str	r3, [sp, #16]
 80034fe:	9307      	str	r3, [sp, #28]
 8003500:	f88d 3053 	strb.w	r3, [sp, #83]	; 0x53
 8003504:	931a      	str	r3, [sp, #104]	; 0x68
 8003506:	4654      	mov	r4, sl
 8003508:	2205      	movs	r2, #5
 800350a:	f814 1b01 	ldrb.w	r1, [r4], #1
 800350e:	4858      	ldr	r0, [pc, #352]	; (8003670 <_vfiprintf_r+0x24c>)
 8003510:	f7fc fe76 	bl	8000200 <memchr>
 8003514:	9a04      	ldr	r2, [sp, #16]
 8003516:	b9d8      	cbnz	r0, 8003550 <_vfiprintf_r+0x12c>
 8003518:	06d1      	lsls	r1, r2, #27
 800351a:	bf44      	itt	mi
 800351c:	2320      	movmi	r3, #32
 800351e:	f88d 3053 	strbmi.w	r3, [sp, #83]	; 0x53
 8003522:	0713      	lsls	r3, r2, #28
 8003524:	bf44      	itt	mi
 8003526:	232b      	movmi	r3, #43	; 0x2b
 8003528:	f88d 3053 	strbmi.w	r3, [sp, #83]	; 0x53
 800352c:	f89a 3000 	ldrb.w	r3, [sl]
 8003530:	2b2a      	cmp	r3, #42	; 0x2a
 8003532:	d015      	beq.n	8003560 <_vfiprintf_r+0x13c>
 8003534:	9a07      	ldr	r2, [sp, #28]
 8003536:	4654      	mov	r4, sl
 8003538:	2000      	movs	r0, #0
 800353a:	f04f 0c0a 	mov.w	ip, #10
 800353e:	4621      	mov	r1, r4
 8003540:	f811 3b01 	ldrb.w	r3, [r1], #1
 8003544:	3b30      	subs	r3, #48	; 0x30
 8003546:	2b09      	cmp	r3, #9
 8003548:	d94e      	bls.n	80035e8 <_vfiprintf_r+0x1c4>
 800354a:	b1b0      	cbz	r0, 800357a <_vfiprintf_r+0x156>
 800354c:	9207      	str	r2, [sp, #28]
 800354e:	e014      	b.n	800357a <_vfiprintf_r+0x156>
 8003550:	eba0 0308 	sub.w	r3, r0, r8
 8003554:	fa09 f303 	lsl.w	r3, r9, r3
 8003558:	4313      	orrs	r3, r2
 800355a:	9304      	str	r3, [sp, #16]
 800355c:	46a2      	mov	sl, r4
 800355e:	e7d2      	b.n	8003506 <_vfiprintf_r+0xe2>
 8003560:	9b03      	ldr	r3, [sp, #12]
 8003562:	1d19      	adds	r1, r3, #4
 8003564:	681b      	ldr	r3, [r3, #0]
 8003566:	9103      	str	r1, [sp, #12]
 8003568:	2b00      	cmp	r3, #0
 800356a:	bfbb      	ittet	lt
 800356c:	425b      	neglt	r3, r3
 800356e:	f042 0202 	orrlt.w	r2, r2, #2
 8003572:	9307      	strge	r3, [sp, #28]
 8003574:	9307      	strlt	r3, [sp, #28]
 8003576:	bfb8      	it	lt
 8003578:	9204      	strlt	r2, [sp, #16]
 800357a:	7823      	ldrb	r3, [r4, #0]
 800357c:	2b2e      	cmp	r3, #46	; 0x2e
 800357e:	d10c      	bne.n	800359a <_vfiprintf_r+0x176>
 8003580:	7863      	ldrb	r3, [r4, #1]
 8003582:	2b2a      	cmp	r3, #42	; 0x2a
 8003584:	d135      	bne.n	80035f2 <_vfiprintf_r+0x1ce>
 8003586:	9b03      	ldr	r3, [sp, #12]
 8003588:	1d1a      	adds	r2, r3, #4
 800358a:	681b      	ldr	r3, [r3, #0]
 800358c:	9203      	str	r2, [sp, #12]
 800358e:	2b00      	cmp	r3, #0
 8003590:	bfb8      	it	lt
 8003592:	f04f 33ff 	movlt.w	r3, #4294967295
 8003596:	3402      	adds	r4, #2
 8003598:	9305      	str	r3, [sp, #20]
 800359a:	f8df a0e4 	ldr.w	sl, [pc, #228]	; 8003680 <_vfiprintf_r+0x25c>
 800359e:	7821      	ldrb	r1, [r4, #0]
 80035a0:	2203      	movs	r2, #3
 80035a2:	4650      	mov	r0, sl
 80035a4:	f7fc fe2c 	bl	8000200 <memchr>
 80035a8:	b140      	cbz	r0, 80035bc <_vfiprintf_r+0x198>
 80035aa:	2340      	movs	r3, #64	; 0x40
 80035ac:	eba0 000a 	sub.w	r0, r0, sl
 80035b0:	fa03 f000 	lsl.w	r0, r3, r0
 80035b4:	9b04      	ldr	r3, [sp, #16]
 80035b6:	4303      	orrs	r3, r0
 80035b8:	3401      	adds	r4, #1
 80035ba:	9304      	str	r3, [sp, #16]
 80035bc:	f814 1b01 	ldrb.w	r1, [r4], #1
 80035c0:	482c      	ldr	r0, [pc, #176]	; (8003674 <_vfiprintf_r+0x250>)
 80035c2:	f88d 1028 	strb.w	r1, [sp, #40]	; 0x28
 80035c6:	2206      	movs	r2, #6
 80035c8:	f7fc fe1a 	bl	8000200 <memchr>
 80035cc:	2800      	cmp	r0, #0
 80035ce:	d03f      	beq.n	8003650 <_vfiprintf_r+0x22c>
 80035d0:	4b29      	ldr	r3, [pc, #164]	; (8003678 <_vfiprintf_r+0x254>)
 80035d2:	bb1b      	cbnz	r3, 800361c <_vfiprintf_r+0x1f8>
 80035d4:	9b03      	ldr	r3, [sp, #12]
 80035d6:	3307      	adds	r3, #7
 80035d8:	f023 0307 	bic.w	r3, r3, #7
 80035dc:	3308      	adds	r3, #8
 80035de:	9303      	str	r3, [sp, #12]
 80035e0:	9b09      	ldr	r3, [sp, #36]	; 0x24
 80035e2:	443b      	add	r3, r7
 80035e4:	9309      	str	r3, [sp, #36]	; 0x24
 80035e6:	e767      	b.n	80034b8 <_vfiprintf_r+0x94>
 80035e8:	fb0c 3202 	mla	r2, ip, r2, r3
 80035ec:	460c      	mov	r4, r1
 80035ee:	2001      	movs	r0, #1
 80035f0:	e7a5      	b.n	800353e <_vfiprintf_r+0x11a>
 80035f2:	2300      	movs	r3, #0
 80035f4:	3401      	adds	r4, #1
 80035f6:	9305      	str	r3, [sp, #20]
 80035f8:	4619      	mov	r1, r3
 80035fa:	f04f 0c0a 	mov.w	ip, #10
 80035fe:	4620      	mov	r0, r4
 8003600:	f810 2b01 	ldrb.w	r2, [r0], #1
 8003604:	3a30      	subs	r2, #48	; 0x30
 8003606:	2a09      	cmp	r2, #9
 8003608:	d903      	bls.n	8003612 <_vfiprintf_r+0x1ee>
 800360a:	2b00      	cmp	r3, #0
 800360c:	d0c5      	beq.n	800359a <_vfiprintf_r+0x176>
 800360e:	9105      	str	r1, [sp, #20]
 8003610:	e7c3      	b.n	800359a <_vfiprintf_r+0x176>
 8003612:	fb0c 2101 	mla	r1, ip, r1, r2
 8003616:	4604      	mov	r4, r0
 8003618:	2301      	movs	r3, #1
 800361a:	e7f0      	b.n	80035fe <_vfiprintf_r+0x1da>
 800361c:	ab03      	add	r3, sp, #12
 800361e:	9300      	str	r3, [sp, #0]
 8003620:	462a      	mov	r2, r5
 8003622:	4b16      	ldr	r3, [pc, #88]	; (800367c <_vfiprintf_r+0x258>)
 8003624:	a904      	add	r1, sp, #16
 8003626:	4630      	mov	r0, r6
 8003628:	f3af 8000 	nop.w
 800362c:	4607      	mov	r7, r0
 800362e:	1c78      	adds	r0, r7, #1
 8003630:	d1d6      	bne.n	80035e0 <_vfiprintf_r+0x1bc>
 8003632:	6e6b      	ldr	r3, [r5, #100]	; 0x64
 8003634:	07d9      	lsls	r1, r3, #31
 8003636:	d405      	bmi.n	8003644 <_vfiprintf_r+0x220>
 8003638:	89ab      	ldrh	r3, [r5, #12]
 800363a:	059a      	lsls	r2, r3, #22
 800363c:	d402      	bmi.n	8003644 <_vfiprintf_r+0x220>
 800363e:	6da8      	ldr	r0, [r5, #88]	; 0x58
 8003640:	f000 fc45 	bl	8003ece <__retarget_lock_release_recursive>
 8003644:	89ab      	ldrh	r3, [r5, #12]
 8003646:	065b      	lsls	r3, r3, #25
 8003648:	f53f af12 	bmi.w	8003470 <_vfiprintf_r+0x4c>
 800364c:	9809      	ldr	r0, [sp, #36]	; 0x24
 800364e:	e711      	b.n	8003474 <_vfiprintf_r+0x50>
 8003650:	ab03      	add	r3, sp, #12
 8003652:	9300      	str	r3, [sp, #0]
 8003654:	462a      	mov	r2, r5
 8003656:	4b09      	ldr	r3, [pc, #36]	; (800367c <_vfiprintf_r+0x258>)
 8003658:	a904      	add	r1, sp, #16
 800365a:	4630      	mov	r0, r6
 800365c:	f000 f880 	bl	8003760 <_printf_i>
 8003660:	e7e4      	b.n	800362c <_vfiprintf_r+0x208>
 8003662:	bf00      	nop
 8003664:	08004568 	.word	0x08004568
 8003668:	08004588 	.word	0x08004588
 800366c:	08004548 	.word	0x08004548
 8003670:	08004515 	.word	0x08004515
 8003674:	0800451f 	.word	0x0800451f
 8003678:	00000000 	.word	0x00000000
 800367c:	080033ff 	.word	0x080033ff
 8003680:	0800451b 	.word	0x0800451b

08003684 <_printf_common>:
 8003684:	e92d 47f0 	stmdb	sp!, {r4, r5, r6, r7, r8, r9, sl, lr}
 8003688:	4616      	mov	r6, r2
 800368a:	4699      	mov	r9, r3
 800368c:	688a      	ldr	r2, [r1, #8]
 800368e:	690b      	ldr	r3, [r1, #16]
 8003690:	f8dd 8020 	ldr.w	r8, [sp, #32]
 8003694:	4293      	cmp	r3, r2
 8003696:	bfb8      	it	lt
 8003698:	4613      	movlt	r3, r2
 800369a:	6033      	str	r3, [r6, #0]
 800369c:	f891 2043 	ldrb.w	r2, [r1, #67]	; 0x43
 80036a0:	4607      	mov	r7, r0
 80036a2:	460c      	mov	r4, r1
 80036a4:	b10a      	cbz	r2, 80036aa <_printf_common+0x26>
 80036a6:	3301      	adds	r3, #1
 80036a8:	6033      	str	r3, [r6, #0]
 80036aa:	6823      	ldr	r3, [r4, #0]
 80036ac:	0699      	lsls	r1, r3, #26
 80036ae:	bf42      	ittt	mi
 80036b0:	6833      	ldrmi	r3, [r6, #0]
 80036b2:	3302      	addmi	r3, #2
 80036b4:	6033      	strmi	r3, [r6, #0]
 80036b6:	6825      	ldr	r5, [r4, #0]
 80036b8:	f015 0506 	ands.w	r5, r5, #6
 80036bc:	d106      	bne.n	80036cc <_printf_common+0x48>
 80036be:	f104 0a19 	add.w	sl, r4, #25
 80036c2:	68e3      	ldr	r3, [r4, #12]
 80036c4:	6832      	ldr	r2, [r6, #0]
 80036c6:	1a9b      	subs	r3, r3, r2
 80036c8:	42ab      	cmp	r3, r5
 80036ca:	dc26      	bgt.n	800371a <_printf_common+0x96>
 80036cc:	f894 2043 	ldrb.w	r2, [r4, #67]	; 0x43
 80036d0:	1e13      	subs	r3, r2, #0
 80036d2:	6822      	ldr	r2, [r4, #0]
 80036d4:	bf18      	it	ne
 80036d6:	2301      	movne	r3, #1
 80036d8:	0692      	lsls	r2, r2, #26
 80036da:	d42b      	bmi.n	8003734 <_printf_common+0xb0>
 80036dc:	f104 0243 	add.w	r2, r4, #67	; 0x43
 80036e0:	4649      	mov	r1, r9
 80036e2:	4638      	mov	r0, r7
 80036e4:	47c0      	blx	r8
 80036e6:	3001      	adds	r0, #1
 80036e8:	d01e      	beq.n	8003728 <_printf_common+0xa4>
 80036ea:	6823      	ldr	r3, [r4, #0]
 80036ec:	68e5      	ldr	r5, [r4, #12]
 80036ee:	6832      	ldr	r2, [r6, #0]
 80036f0:	f003 0306 	and.w	r3, r3, #6
 80036f4:	2b04      	cmp	r3, #4
 80036f6:	bf08      	it	eq
 80036f8:	1aad      	subeq	r5, r5, r2
 80036fa:	68a3      	ldr	r3, [r4, #8]
 80036fc:	6922      	ldr	r2, [r4, #16]
 80036fe:	bf0c      	ite	eq
 8003700:	ea25 75e5 	biceq.w	r5, r5, r5, asr #31
 8003704:	2500      	movne	r5, #0
 8003706:	4293      	cmp	r3, r2
 8003708:	bfc4      	itt	gt
 800370a:	1a9b      	subgt	r3, r3, r2
 800370c:	18ed      	addgt	r5, r5, r3
 800370e:	2600      	movs	r6, #0
 8003710:	341a      	adds	r4, #26
 8003712:	42b5      	cmp	r5, r6
 8003714:	d11a      	bne.n	800374c <_printf_common+0xc8>
 8003716:	2000      	movs	r0, #0
 8003718:	e008      	b.n	800372c <_printf_common+0xa8>
 800371a:	2301      	movs	r3, #1
 800371c:	4652      	mov	r2, sl
 800371e:	4649      	mov	r1, r9
 8003720:	4638      	mov	r0, r7
 8003722:	47c0      	blx	r8
 8003724:	3001      	adds	r0, #1
 8003726:	d103      	bne.n	8003730 <_printf_common+0xac>
 8003728:	f04f 30ff 	mov.w	r0, #4294967295
 800372c:	e8bd 87f0 	ldmia.w	sp!, {r4, r5, r6, r7, r8, r9, sl, pc}
 8003730:	3501      	adds	r5, #1
 8003732:	e7c6      	b.n	80036c2 <_printf_common+0x3e>
 8003734:	18e1      	adds	r1, r4, r3
 8003736:	1c5a      	adds	r2, r3, #1
 8003738:	2030      	movs	r0, #48	; 0x30
 800373a:	f881 0043 	strb.w	r0, [r1, #67]	; 0x43
 800373e:	4422      	add	r2, r4
 8003740:	f894 1045 	ldrb.w	r1, [r4, #69]	; 0x45
 8003744:	f882 1043 	strb.w	r1, [r2, #67]	; 0x43
 8003748:	3302      	adds	r3, #2
 800374a:	e7c7      	b.n	80036dc <_printf_common+0x58>
 800374c:	2301      	movs	r3, #1
 800374e:	4622      	mov	r2, r4
 8003750:	4649      	mov	r1, r9
 8003752:	4638      	mov	r0, r7
 8003754:	47c0      	blx	r8
 8003756:	3001      	adds	r0, #1
 8003758:	d0e6      	beq.n	8003728 <_printf_common+0xa4>
 800375a:	3601      	adds	r6, #1
 800375c:	e7d9      	b.n	8003712 <_printf_common+0x8e>
	...

08003760 <_printf_i>:
 8003760:	e92d 47ff 	stmdb	sp!, {r0, r1, r2, r3, r4, r5, r6, r7, r8, r9, sl, lr}
 8003764:	460c      	mov	r4, r1
 8003766:	4691      	mov	r9, r2
 8003768:	7e27      	ldrb	r7, [r4, #24]
 800376a:	990c      	ldr	r1, [sp, #48]	; 0x30
 800376c:	2f78      	cmp	r7, #120	; 0x78
 800376e:	4680      	mov	r8, r0
 8003770:	469a      	mov	sl, r3
 8003772:	f104 0243 	add.w	r2, r4, #67	; 0x43
 8003776:	d807      	bhi.n	8003788 <_printf_i+0x28>
 8003778:	2f62      	cmp	r7, #98	; 0x62
 800377a:	d80a      	bhi.n	8003792 <_printf_i+0x32>
 800377c:	2f00      	cmp	r7, #0
 800377e:	f000 80d8 	beq.w	8003932 <_printf_i+0x1d2>
 8003782:	2f58      	cmp	r7, #88	; 0x58
 8003784:	f000 80a3 	beq.w	80038ce <_printf_i+0x16e>
 8003788:	f104 0642 	add.w	r6, r4, #66	; 0x42
 800378c:	f884 7042 	strb.w	r7, [r4, #66]	; 0x42
 8003790:	e03a      	b.n	8003808 <_printf_i+0xa8>
 8003792:	f1a7 0363 	sub.w	r3, r7, #99	; 0x63
 8003796:	2b15      	cmp	r3, #21
 8003798:	d8f6      	bhi.n	8003788 <_printf_i+0x28>
 800379a:	a001      	add	r0, pc, #4	; (adr r0, 80037a0 <_printf_i+0x40>)
 800379c:	f850 f023 	ldr.w	pc, [r0, r3, lsl #2]
 80037a0:	080037f9 	.word	0x080037f9
 80037a4:	0800380d 	.word	0x0800380d
 80037a8:	08003789 	.word	0x08003789
 80037ac:	08003789 	.word	0x08003789
 80037b0:	08003789 	.word	0x08003789
 80037b4:	08003789 	.word	0x08003789
 80037b8:	0800380d 	.word	0x0800380d
 80037bc:	08003789 	.word	0x08003789
 80037c0:	08003789 	.word	0x08003789
 80037c4:	08003789 	.word	0x08003789
 80037c8:	08003789 	.word	0x08003789
 80037cc:	08003919 	.word	0x08003919
 80037d0:	0800383d 	.word	0x0800383d
 80037d4:	080038fb 	.word	0x080038fb
 80037d8:	08003789 	.word	0x08003789
 80037dc:	08003789 	.word	0x08003789
 80037e0:	0800393b 	.word	0x0800393b
 80037e4:	08003789 	.word	0x08003789
 80037e8:	0800383d 	.word	0x0800383d
 80037ec:	08003789 	.word	0x08003789
 80037f0:	08003789 	.word	0x08003789
 80037f4:	08003903 	.word	0x08003903
 80037f8:	680b      	ldr	r3, [r1, #0]
 80037fa:	1d1a      	adds	r2, r3, #4
 80037fc:	681b      	ldr	r3, [r3, #0]
 80037fe:	600a      	str	r2, [r1, #0]
 8003800:	f104 0642 	add.w	r6, r4, #66	; 0x42
 8003804:	f884 3042 	strb.w	r3, [r4, #66]	; 0x42
 8003808:	2301      	movs	r3, #1
 800380a:	e0a3      	b.n	8003954 <_printf_i+0x1f4>
 800380c:	6825      	ldr	r5, [r4, #0]
 800380e:	6808      	ldr	r0, [r1, #0]
 8003810:	062e      	lsls	r6, r5, #24
 8003812:	f100 0304 	add.w	r3, r0, #4
 8003816:	d50a      	bpl.n	800382e <_printf_i+0xce>
 8003818:	6805      	ldr	r5, [r0, #0]
 800381a:	600b      	str	r3, [r1, #0]
 800381c:	2d00      	cmp	r5, #0
 800381e:	da03      	bge.n	8003828 <_printf_i+0xc8>
 8003820:	232d      	movs	r3, #45	; 0x2d
 8003822:	426d      	negs	r5, r5
 8003824:	f884 3043 	strb.w	r3, [r4, #67]	; 0x43
 8003828:	485e      	ldr	r0, [pc, #376]	; (80039a4 <_printf_i+0x244>)
 800382a:	230a      	movs	r3, #10
 800382c:	e019      	b.n	8003862 <_printf_i+0x102>
 800382e:	f015 0f40 	tst.w	r5, #64	; 0x40
 8003832:	6805      	ldr	r5, [r0, #0]
 8003834:	600b      	str	r3, [r1, #0]
 8003836:	bf18      	it	ne
 8003838:	b22d      	sxthne	r5, r5
 800383a:	e7ef      	b.n	800381c <_printf_i+0xbc>
 800383c:	680b      	ldr	r3, [r1, #0]
 800383e:	6825      	ldr	r5, [r4, #0]
 8003840:	1d18      	adds	r0, r3, #4
 8003842:	6008      	str	r0, [r1, #0]
 8003844:	0628      	lsls	r0, r5, #24
 8003846:	d501      	bpl.n	800384c <_printf_i+0xec>
 8003848:	681d      	ldr	r5, [r3, #0]
 800384a:	e002      	b.n	8003852 <_printf_i+0xf2>
 800384c:	0669      	lsls	r1, r5, #25
 800384e:	d5fb      	bpl.n	8003848 <_printf_i+0xe8>
 8003850:	881d      	ldrh	r5, [r3, #0]
 8003852:	4854      	ldr	r0, [pc, #336]	; (80039a4 <_printf_i+0x244>)
 8003854:	2f6f      	cmp	r7, #111	; 0x6f
 8003856:	bf0c      	ite	eq
 8003858:	2308      	moveq	r3, #8
 800385a:	230a      	movne	r3, #10
 800385c:	2100      	movs	r1, #0
 800385e:	f884 1043 	strb.w	r1, [r4, #67]	; 0x43
 8003862:	6866      	ldr	r6, [r4, #4]
 8003864:	60a6      	str	r6, [r4, #8]
 8003866:	2e00      	cmp	r6, #0
 8003868:	bfa2      	ittt	ge
 800386a:	6821      	ldrge	r1, [r4, #0]
 800386c:	f021 0104 	bicge.w	r1, r1, #4
 8003870:	6021      	strge	r1, [r4, #0]
 8003872:	b90d      	cbnz	r5, 8003878 <_printf_i+0x118>
 8003874:	2e00      	cmp	r6, #0
 8003876:	d04d      	beq.n	8003914 <_printf_i+0x1b4>
 8003878:	4616      	mov	r6, r2
 800387a:	fbb5 f1f3 	udiv	r1, r5, r3
 800387e:	fb03 5711 	mls	r7, r3, r1, r5
 8003882:	5dc7      	ldrb	r7, [r0, r7]
 8003884:	f806 7d01 	strb.w	r7, [r6, #-1]!
 8003888:	462f      	mov	r7, r5
 800388a:	42bb      	cmp	r3, r7
 800388c:	460d      	mov	r5, r1
 800388e:	d9f4      	bls.n	800387a <_printf_i+0x11a>
 8003890:	2b08      	cmp	r3, #8
 8003892:	d10b      	bne.n	80038ac <_printf_i+0x14c>
 8003894:	6823      	ldr	r3, [r4, #0]
 8003896:	07df      	lsls	r7, r3, #31
 8003898:	d508      	bpl.n	80038ac <_printf_i+0x14c>
 800389a:	6923      	ldr	r3, [r4, #16]
 800389c:	6861      	ldr	r1, [r4, #4]
 800389e:	4299      	cmp	r1, r3
 80038a0:	bfde      	ittt	le
 80038a2:	2330      	movle	r3, #48	; 0x30
 80038a4:	f806 3c01 	strble.w	r3, [r6, #-1]
 80038a8:	f106 36ff 	addle.w	r6, r6, #4294967295
 80038ac:	1b92      	subs	r2, r2, r6
 80038ae:	6122      	str	r2, [r4, #16]
 80038b0:	f8cd a000 	str.w	sl, [sp]
 80038b4:	464b      	mov	r3, r9
 80038b6:	aa03      	add	r2, sp, #12
 80038b8:	4621      	mov	r1, r4
 80038ba:	4640      	mov	r0, r8
 80038bc:	f7ff fee2 	bl	8003684 <_printf_common>
 80038c0:	3001      	adds	r0, #1
 80038c2:	d14c      	bne.n	800395e <_printf_i+0x1fe>
 80038c4:	f04f 30ff 	mov.w	r0, #4294967295
 80038c8:	b004      	add	sp, #16
 80038ca:	e8bd 87f0 	ldmia.w	sp!, {r4, r5, r6, r7, r8, r9, sl, pc}
 80038ce:	4835      	ldr	r0, [pc, #212]	; (80039a4 <_printf_i+0x244>)
 80038d0:	f884 7045 	strb.w	r7, [r4, #69]	; 0x45
 80038d4:	6823      	ldr	r3, [r4, #0]
 80038d6:	680e      	ldr	r6, [r1, #0]
 80038d8:	061f      	lsls	r7, r3, #24
 80038da:	f856 5b04 	ldr.w	r5, [r6], #4
 80038de:	600e      	str	r6, [r1, #0]
 80038e0:	d514      	bpl.n	800390c <_printf_i+0x1ac>
 80038e2:	07d9      	lsls	r1, r3, #31
 80038e4:	bf44      	itt	mi
 80038e6:	f043 0320 	orrmi.w	r3, r3, #32
 80038ea:	6023      	strmi	r3, [r4, #0]
 80038ec:	b91d      	cbnz	r5, 80038f6 <_printf_i+0x196>
 80038ee:	6823      	ldr	r3, [r4, #0]
 80038f0:	f023 0320 	bic.w	r3, r3, #32
 80038f4:	6023      	str	r3, [r4, #0]
 80038f6:	2310      	movs	r3, #16
 80038f8:	e7b0      	b.n	800385c <_printf_i+0xfc>
 80038fa:	6823      	ldr	r3, [r4, #0]
 80038fc:	f043 0320 	orr.w	r3, r3, #32
 8003900:	6023      	str	r3, [r4, #0]
 8003902:	2378      	movs	r3, #120	; 0x78
 8003904:	4828      	ldr	r0, [pc, #160]	; (80039a8 <_printf_i+0x248>)
 8003906:	f884 3045 	strb.w	r3, [r4, #69]	; 0x45
 800390a:	e7e3      	b.n	80038d4 <_printf_i+0x174>
 800390c:	065e      	lsls	r6, r3, #25
 800390e:	bf48      	it	mi
 8003910:	b2ad      	uxthmi	r5, r5
 8003912:	e7e6      	b.n	80038e2 <_printf_i+0x182>
 8003914:	4616      	mov	r6, r2
 8003916:	e7bb      	b.n	8003890 <_printf_i+0x130>
 8003918:	680b      	ldr	r3, [r1, #0]
 800391a:	6826      	ldr	r6, [r4, #0]
 800391c:	6960      	ldr	r0, [r4, #20]
 800391e:	1d1d      	adds	r5, r3, #4
 8003920:	600d      	str	r5, [r1, #0]
 8003922:	0635      	lsls	r5, r6, #24
 8003924:	681b      	ldr	r3, [r3, #0]
 8003926:	d501      	bpl.n	800392c <_printf_i+0x1cc>
 8003928:	6018      	str	r0, [r3, #0]
 800392a:	e002      	b.n	8003932 <_printf_i+0x1d2>
 800392c:	0671      	lsls	r1, r6, #25
 800392e:	d5fb      	bpl.n	8003928 <_printf_i+0x1c8>
 8003930:	8018      	strh	r0, [r3, #0]
 8003932:	2300      	movs	r3, #0
 8003934:	6123      	str	r3, [r4, #16]
 8003936:	4616      	mov	r6, r2
 8003938:	e7ba      	b.n	80038b0 <_printf_i+0x150>
 800393a:	680b      	ldr	r3, [r1, #0]
 800393c:	1d1a      	adds	r2, r3, #4
 800393e:	600a      	str	r2, [r1, #0]
 8003940:	681e      	ldr	r6, [r3, #0]
 8003942:	6862      	ldr	r2, [r4, #4]
 8003944:	2100      	movs	r1, #0
 8003946:	4630      	mov	r0, r6
 8003948:	f7fc fc5a 	bl	8000200 <memchr>
 800394c:	b108      	cbz	r0, 8003952 <_printf_i+0x1f2>
 800394e:	1b80      	subs	r0, r0, r6
 8003950:	6060      	str	r0, [r4, #4]
 8003952:	6863      	ldr	r3, [r4, #4]
 8003954:	6123      	str	r3, [r4, #16]
 8003956:	2300      	movs	r3, #0
 8003958:	f884 3043 	strb.w	r3, [r4, #67]	; 0x43
 800395c:	e7a8      	b.n	80038b0 <_printf_i+0x150>
 800395e:	6923      	ldr	r3, [r4, #16]
 8003960:	4632      	mov	r2, r6
 8003962:	4649      	mov	r1, r9
 8003964:	4640      	mov	r0, r8
 8003966:	47d0      	blx	sl
 8003968:	3001      	adds	r0, #1
 800396a:	d0ab      	beq.n	80038c4 <_printf_i+0x164>
 800396c:	6823      	ldr	r3, [r4, #0]
 800396e:	079b      	lsls	r3, r3, #30
 8003970:	d413      	bmi.n	800399a <_printf_i+0x23a>
 8003972:	68e0      	ldr	r0, [r4, #12]
 8003974:	9b03      	ldr	r3, [sp, #12]
 8003976:	4298      	cmp	r0, r3
 8003978:	bfb8      	it	lt
 800397a:	4618      	movlt	r0, r3
 800397c:	e7a4      	b.n	80038c8 <_printf_i+0x168>
 800397e:	2301      	movs	r3, #1
 8003980:	4632      	mov	r2, r6
 8003982:	4649      	mov	r1, r9
 8003984:	4640      	mov	r0, r8
 8003986:	47d0      	blx	sl
 8003988:	3001      	adds	r0, #1
 800398a:	d09b      	beq.n	80038c4 <_printf_i+0x164>
 800398c:	3501      	adds	r5, #1
 800398e:	68e3      	ldr	r3, [r4, #12]
 8003990:	9903      	ldr	r1, [sp, #12]
 8003992:	1a5b      	subs	r3, r3, r1
 8003994:	42ab      	cmp	r3, r5
 8003996:	dcf2      	bgt.n	800397e <_printf_i+0x21e>
 8003998:	e7eb      	b.n	8003972 <_printf_i+0x212>
 800399a:	2500      	movs	r5, #0
 800399c:	f104 0619 	add.w	r6, r4, #25
 80039a0:	e7f5      	b.n	800398e <_printf_i+0x22e>
 80039a2:	bf00      	nop
 80039a4:	08004526 	.word	0x08004526
 80039a8:	08004537 	.word	0x08004537

080039ac <_sbrk_r>:
 80039ac:	b538      	push	{r3, r4, r5, lr}
 80039ae:	4d06      	ldr	r5, [pc, #24]	; (80039c8 <_sbrk_r+0x1c>)
 80039b0:	2300      	movs	r3, #0
 80039b2:	4604      	mov	r4, r0
 80039b4:	4608      	mov	r0, r1
 80039b6:	602b      	str	r3, [r5, #0]
 80039b8:	f7fd f91c 	bl	8000bf4 <_sbrk>
 80039bc:	1c43      	adds	r3, r0, #1
 80039be:	d102      	bne.n	80039c6 <_sbrk_r+0x1a>
 80039c0:	682b      	ldr	r3, [r5, #0]
 80039c2:	b103      	cbz	r3, 80039c6 <_sbrk_r+0x1a>
 80039c4:	6023      	str	r3, [r4, #0]
 80039c6:	bd38      	pop	{r3, r4, r5, pc}
 80039c8:	2001307c 	.word	0x2001307c

080039cc <__swbuf_r>:
 80039cc:	b5f8      	push	{r3, r4, r5, r6, r7, lr}
 80039ce:	460e      	mov	r6, r1
 80039d0:	4614      	mov	r4, r2
 80039d2:	4605      	mov	r5, r0
 80039d4:	b118      	cbz	r0, 80039de <__swbuf_r+0x12>
 80039d6:	6983      	ldr	r3, [r0, #24]
 80039d8:	b90b      	cbnz	r3, 80039de <__swbuf_r+0x12>
 80039da:	f000 f9d9 	bl	8003d90 <__sinit>
 80039de:	4b21      	ldr	r3, [pc, #132]	; (8003a64 <__swbuf_r+0x98>)
 80039e0:	429c      	cmp	r4, r3
 80039e2:	d12b      	bne.n	8003a3c <__swbuf_r+0x70>
 80039e4:	686c      	ldr	r4, [r5, #4]
 80039e6:	69a3      	ldr	r3, [r4, #24]
 80039e8:	60a3      	str	r3, [r4, #8]
 80039ea:	89a3      	ldrh	r3, [r4, #12]
 80039ec:	071a      	lsls	r2, r3, #28
 80039ee:	d52f      	bpl.n	8003a50 <__swbuf_r+0x84>
 80039f0:	6923      	ldr	r3, [r4, #16]
 80039f2:	b36b      	cbz	r3, 8003a50 <__swbuf_r+0x84>
 80039f4:	6923      	ldr	r3, [r4, #16]
 80039f6:	6820      	ldr	r0, [r4, #0]
 80039f8:	1ac0      	subs	r0, r0, r3
 80039fa:	6963      	ldr	r3, [r4, #20]
 80039fc:	b2f6      	uxtb	r6, r6
 80039fe:	4283      	cmp	r3, r0
 8003a00:	4637      	mov	r7, r6
 8003a02:	dc04      	bgt.n	8003a0e <__swbuf_r+0x42>
 8003a04:	4621      	mov	r1, r4
 8003a06:	4628      	mov	r0, r5
 8003a08:	f000 f92e 	bl	8003c68 <_fflush_r>
 8003a0c:	bb30      	cbnz	r0, 8003a5c <__swbuf_r+0x90>
 8003a0e:	68a3      	ldr	r3, [r4, #8]
 8003a10:	3b01      	subs	r3, #1
 8003a12:	60a3      	str	r3, [r4, #8]
 8003a14:	6823      	ldr	r3, [r4, #0]
 8003a16:	1c5a      	adds	r2, r3, #1
 8003a18:	6022      	str	r2, [r4, #0]
 8003a1a:	701e      	strb	r6, [r3, #0]
 8003a1c:	6963      	ldr	r3, [r4, #20]
 8003a1e:	3001      	adds	r0, #1
 8003a20:	4283      	cmp	r3, r0
 8003a22:	d004      	beq.n	8003a2e <__swbuf_r+0x62>
 8003a24:	89a3      	ldrh	r3, [r4, #12]
 8003a26:	07db      	lsls	r3, r3, #31
 8003a28:	d506      	bpl.n	8003a38 <__swbuf_r+0x6c>
 8003a2a:	2e0a      	cmp	r6, #10
 8003a2c:	d104      	bne.n	8003a38 <__swbuf_r+0x6c>
 8003a2e:	4621      	mov	r1, r4
 8003a30:	4628      	mov	r0, r5
 8003a32:	f000 f919 	bl	8003c68 <_fflush_r>
 8003a36:	b988      	cbnz	r0, 8003a5c <__swbuf_r+0x90>
 8003a38:	4638      	mov	r0, r7
 8003a3a:	bdf8      	pop	{r3, r4, r5, r6, r7, pc}
 8003a3c:	4b0a      	ldr	r3, [pc, #40]	; (8003a68 <__swbuf_r+0x9c>)
 8003a3e:	429c      	cmp	r4, r3
 8003a40:	d101      	bne.n	8003a46 <__swbuf_r+0x7a>
 8003a42:	68ac      	ldr	r4, [r5, #8]
 8003a44:	e7cf      	b.n	80039e6 <__swbuf_r+0x1a>
 8003a46:	4b09      	ldr	r3, [pc, #36]	; (8003a6c <__swbuf_r+0xa0>)
 8003a48:	429c      	cmp	r4, r3
 8003a4a:	bf08      	it	eq
 8003a4c:	68ec      	ldreq	r4, [r5, #12]
 8003a4e:	e7ca      	b.n	80039e6 <__swbuf_r+0x1a>
 8003a50:	4621      	mov	r1, r4
 8003a52:	4628      	mov	r0, r5
 8003a54:	f000 f80c 	bl	8003a70 <__swsetup_r>
 8003a58:	2800      	cmp	r0, #0
 8003a5a:	d0cb      	beq.n	80039f4 <__swbuf_r+0x28>
 8003a5c:	f04f 37ff 	mov.w	r7, #4294967295
 8003a60:	e7ea      	b.n	8003a38 <__swbuf_r+0x6c>
 8003a62:	bf00      	nop
 8003a64:	08004568 	.word	0x08004568
 8003a68:	08004588 	.word	0x08004588
 8003a6c:	08004548 	.word	0x08004548

08003a70 <__swsetup_r>:
 8003a70:	4b32      	ldr	r3, [pc, #200]	; (8003b3c <__swsetup_r+0xcc>)
 8003a72:	b570      	push	{r4, r5, r6, lr}
 8003a74:	681d      	ldr	r5, [r3, #0]
 8003a76:	4606      	mov	r6, r0
 8003a78:	460c      	mov	r4, r1
 8003a7a:	b125      	cbz	r5, 8003a86 <__swsetup_r+0x16>
 8003a7c:	69ab      	ldr	r3, [r5, #24]
 8003a7e:	b913      	cbnz	r3, 8003a86 <__swsetup_r+0x16>
 8003a80:	4628      	mov	r0, r5
 8003a82:	f000 f985 	bl	8003d90 <__sinit>
 8003a86:	4b2e      	ldr	r3, [pc, #184]	; (8003b40 <__swsetup_r+0xd0>)
 8003a88:	429c      	cmp	r4, r3
 8003a8a:	d10f      	bne.n	8003aac <__swsetup_r+0x3c>
 8003a8c:	686c      	ldr	r4, [r5, #4]
 8003a8e:	89a3      	ldrh	r3, [r4, #12]
 8003a90:	f9b4 200c 	ldrsh.w	r2, [r4, #12]
 8003a94:	0719      	lsls	r1, r3, #28
 8003a96:	d42c      	bmi.n	8003af2 <__swsetup_r+0x82>
 8003a98:	06dd      	lsls	r5, r3, #27
 8003a9a:	d411      	bmi.n	8003ac0 <__swsetup_r+0x50>
 8003a9c:	2309      	movs	r3, #9
 8003a9e:	6033      	str	r3, [r6, #0]
 8003aa0:	f042 0340 	orr.w	r3, r2, #64	; 0x40
 8003aa4:	81a3      	strh	r3, [r4, #12]
 8003aa6:	f04f 30ff 	mov.w	r0, #4294967295
 8003aaa:	e03e      	b.n	8003b2a <__swsetup_r+0xba>
 8003aac:	4b25      	ldr	r3, [pc, #148]	; (8003b44 <__swsetup_r+0xd4>)
 8003aae:	429c      	cmp	r4, r3
 8003ab0:	d101      	bne.n	8003ab6 <__swsetup_r+0x46>
 8003ab2:	68ac      	ldr	r4, [r5, #8]
 8003ab4:	e7eb      	b.n	8003a8e <__swsetup_r+0x1e>
 8003ab6:	4b24      	ldr	r3, [pc, #144]	; (8003b48 <__swsetup_r+0xd8>)
 8003ab8:	429c      	cmp	r4, r3
 8003aba:	bf08      	it	eq
 8003abc:	68ec      	ldreq	r4, [r5, #12]
 8003abe:	e7e6      	b.n	8003a8e <__swsetup_r+0x1e>
 8003ac0:	0758      	lsls	r0, r3, #29
 8003ac2:	d512      	bpl.n	8003aea <__swsetup_r+0x7a>
 8003ac4:	6b61      	ldr	r1, [r4, #52]	; 0x34
 8003ac6:	b141      	cbz	r1, 8003ada <__swsetup_r+0x6a>
 8003ac8:	f104 0344 	add.w	r3, r4, #68	; 0x44
 8003acc:	4299      	cmp	r1, r3
 8003ace:	d002      	beq.n	8003ad6 <__swsetup_r+0x66>
 8003ad0:	4630      	mov	r0, r6
 8003ad2:	f7ff fa77 	bl	8002fc4 <_free_r>
 8003ad6:	2300      	movs	r3, #0
 8003ad8:	6363      	str	r3, [r4, #52]	; 0x34
 8003ada:	89a3      	ldrh	r3, [r4, #12]
 8003adc:	f023 0324 	bic.w	r3, r3, #36	; 0x24
 8003ae0:	81a3      	strh	r3, [r4, #12]
 8003ae2:	2300      	movs	r3, #0
 8003ae4:	6063      	str	r3, [r4, #4]
 8003ae6:	6923      	ldr	r3, [r4, #16]
 8003ae8:	6023      	str	r3, [r4, #0]
 8003aea:	89a3      	ldrh	r3, [r4, #12]
 8003aec:	f043 0308 	orr.w	r3, r3, #8
 8003af0:	81a3      	strh	r3, [r4, #12]
 8003af2:	6923      	ldr	r3, [r4, #16]
 8003af4:	b94b      	cbnz	r3, 8003b0a <__swsetup_r+0x9a>
 8003af6:	89a3      	ldrh	r3, [r4, #12]
 8003af8:	f403 7320 	and.w	r3, r3, #640	; 0x280
 8003afc:	f5b3 7f00 	cmp.w	r3, #512	; 0x200
 8003b00:	d003      	beq.n	8003b0a <__swsetup_r+0x9a>
 8003b02:	4621      	mov	r1, r4
 8003b04:	4630      	mov	r0, r6
 8003b06:	f000 fa07 	bl	8003f18 <__smakebuf_r>
 8003b0a:	89a0      	ldrh	r0, [r4, #12]
 8003b0c:	f9b4 200c 	ldrsh.w	r2, [r4, #12]
 8003b10:	f010 0301 	ands.w	r3, r0, #1
 8003b14:	d00a      	beq.n	8003b2c <__swsetup_r+0xbc>
 8003b16:	2300      	movs	r3, #0
 8003b18:	60a3      	str	r3, [r4, #8]
 8003b1a:	6963      	ldr	r3, [r4, #20]
 8003b1c:	425b      	negs	r3, r3
 8003b1e:	61a3      	str	r3, [r4, #24]
 8003b20:	6923      	ldr	r3, [r4, #16]
 8003b22:	b943      	cbnz	r3, 8003b36 <__swsetup_r+0xc6>
 8003b24:	f010 0080 	ands.w	r0, r0, #128	; 0x80
 8003b28:	d1ba      	bne.n	8003aa0 <__swsetup_r+0x30>
 8003b2a:	bd70      	pop	{r4, r5, r6, pc}
 8003b2c:	0781      	lsls	r1, r0, #30
 8003b2e:	bf58      	it	pl
 8003b30:	6963      	ldrpl	r3, [r4, #20]
 8003b32:	60a3      	str	r3, [r4, #8]
 8003b34:	e7f4      	b.n	8003b20 <__swsetup_r+0xb0>
 8003b36:	2000      	movs	r0, #0
 8003b38:	e7f7      	b.n	8003b2a <__swsetup_r+0xba>
 8003b3a:	bf00      	nop
 8003b3c:	2000002c 	.word	0x2000002c
 8003b40:	08004568 	.word	0x08004568
 8003b44:	08004588 	.word	0x08004588
 8003b48:	08004548 	.word	0x08004548

08003b4c <abort>:
 8003b4c:	b508      	push	{r3, lr}
 8003b4e:	2006      	movs	r0, #6
 8003b50:	f000 faa4 	bl	800409c <raise>
 8003b54:	2001      	movs	r0, #1
 8003b56:	f7fd f821 	bl	8000b9c <_exit>
	...

08003b5c <__sflush_r>:
 8003b5c:	898a      	ldrh	r2, [r1, #12]
 8003b5e:	e92d 41f0 	stmdb	sp!, {r4, r5, r6, r7, r8, lr}
 8003b62:	4605      	mov	r5, r0
 8003b64:	0710      	lsls	r0, r2, #28
 8003b66:	460c      	mov	r4, r1
 8003b68:	d458      	bmi.n	8003c1c <__sflush_r+0xc0>
 8003b6a:	684b      	ldr	r3, [r1, #4]
 8003b6c:	2b00      	cmp	r3, #0
 8003b6e:	dc05      	bgt.n	8003b7c <__sflush_r+0x20>
 8003b70:	6c0b      	ldr	r3, [r1, #64]	; 0x40
 8003b72:	2b00      	cmp	r3, #0
 8003b74:	dc02      	bgt.n	8003b7c <__sflush_r+0x20>
 8003b76:	2000      	movs	r0, #0
 8003b78:	e8bd 81f0 	ldmia.w	sp!, {r4, r5, r6, r7, r8, pc}
 8003b7c:	6ae6      	ldr	r6, [r4, #44]	; 0x2c
 8003b7e:	2e00      	cmp	r6, #0
 8003b80:	d0f9      	beq.n	8003b76 <__sflush_r+0x1a>
 8003b82:	2300      	movs	r3, #0
 8003b84:	f412 5280 	ands.w	r2, r2, #4096	; 0x1000
 8003b88:	682f      	ldr	r7, [r5, #0]
 8003b8a:	602b      	str	r3, [r5, #0]
 8003b8c:	d032      	beq.n	8003bf4 <__sflush_r+0x98>
 8003b8e:	6d60      	ldr	r0, [r4, #84]	; 0x54
 8003b90:	89a3      	ldrh	r3, [r4, #12]
 8003b92:	075a      	lsls	r2, r3, #29
 8003b94:	d505      	bpl.n	8003ba2 <__sflush_r+0x46>
 8003b96:	6863      	ldr	r3, [r4, #4]
 8003b98:	1ac0      	subs	r0, r0, r3
 8003b9a:	6b63      	ldr	r3, [r4, #52]	; 0x34
 8003b9c:	b10b      	cbz	r3, 8003ba2 <__sflush_r+0x46>
 8003b9e:	6c23      	ldr	r3, [r4, #64]	; 0x40
 8003ba0:	1ac0      	subs	r0, r0, r3
 8003ba2:	2300      	movs	r3, #0
 8003ba4:	4602      	mov	r2, r0
 8003ba6:	6ae6      	ldr	r6, [r4, #44]	; 0x2c
 8003ba8:	6a21      	ldr	r1, [r4, #32]
 8003baa:	4628      	mov	r0, r5
 8003bac:	47b0      	blx	r6
 8003bae:	1c43      	adds	r3, r0, #1
 8003bb0:	89a3      	ldrh	r3, [r4, #12]
 8003bb2:	d106      	bne.n	8003bc2 <__sflush_r+0x66>
 8003bb4:	6829      	ldr	r1, [r5, #0]
 8003bb6:	291d      	cmp	r1, #29
 8003bb8:	d82c      	bhi.n	8003c14 <__sflush_r+0xb8>
 8003bba:	4a2a      	ldr	r2, [pc, #168]	; (8003c64 <__sflush_r+0x108>)
 8003bbc:	40ca      	lsrs	r2, r1
 8003bbe:	07d6      	lsls	r6, r2, #31
 8003bc0:	d528      	bpl.n	8003c14 <__sflush_r+0xb8>
 8003bc2:	2200      	movs	r2, #0
 8003bc4:	6062      	str	r2, [r4, #4]
 8003bc6:	04d9      	lsls	r1, r3, #19
 8003bc8:	6922      	ldr	r2, [r4, #16]
 8003bca:	6022      	str	r2, [r4, #0]
 8003bcc:	d504      	bpl.n	8003bd8 <__sflush_r+0x7c>
 8003bce:	1c42      	adds	r2, r0, #1
 8003bd0:	d101      	bne.n	8003bd6 <__sflush_r+0x7a>
 8003bd2:	682b      	ldr	r3, [r5, #0]
 8003bd4:	b903      	cbnz	r3, 8003bd8 <__sflush_r+0x7c>
 8003bd6:	6560      	str	r0, [r4, #84]	; 0x54
 8003bd8:	6b61      	ldr	r1, [r4, #52]	; 0x34
 8003bda:	602f      	str	r7, [r5, #0]
 8003bdc:	2900      	cmp	r1, #0
 8003bde:	d0ca      	beq.n	8003b76 <__sflush_r+0x1a>
 8003be0:	f104 0344 	add.w	r3, r4, #68	; 0x44
 8003be4:	4299      	cmp	r1, r3
 8003be6:	d002      	beq.n	8003bee <__sflush_r+0x92>
 8003be8:	4628      	mov	r0, r5
 8003bea:	f7ff f9eb 	bl	8002fc4 <_free_r>
 8003bee:	2000      	movs	r0, #0
 8003bf0:	6360      	str	r0, [r4, #52]	; 0x34
 8003bf2:	e7c1      	b.n	8003b78 <__sflush_r+0x1c>
 8003bf4:	6a21      	ldr	r1, [r4, #32]
 8003bf6:	2301      	movs	r3, #1
 8003bf8:	4628      	mov	r0, r5
 8003bfa:	47b0      	blx	r6
 8003bfc:	1c41      	adds	r1, r0, #1
 8003bfe:	d1c7      	bne.n	8003b90 <__sflush_r+0x34>
 8003c00:	682b      	ldr	r3, [r5, #0]
 8003c02:	2b00      	cmp	r3, #0
 8003c04:	d0c4      	beq.n	8003b90 <__sflush_r+0x34>
 8003c06:	2b1d      	cmp	r3, #29
 8003c08:	d001      	beq.n	8003c0e <__sflush_r+0xb2>
 8003c0a:	2b16      	cmp	r3, #22
 8003c0c:	d101      	bne.n	8003c12 <__sflush_r+0xb6>
 8003c0e:	602f      	str	r7, [r5, #0]
 8003c10:	e7b1      	b.n	8003b76 <__sflush_r+0x1a>
 8003c12:	89a3      	ldrh	r3, [r4, #12]
 8003c14:	f043 0340 	orr.w	r3, r3, #64	; 0x40
 8003c18:	81a3      	strh	r3, [r4, #12]
 8003c1a:	e7ad      	b.n	8003b78 <__sflush_r+0x1c>
 8003c1c:	690f      	ldr	r7, [r1, #16]
 8003c1e:	2f00      	cmp	r7, #0
 8003c20:	d0a9      	beq.n	8003b76 <__sflush_r+0x1a>
 8003c22:	0793      	lsls	r3, r2, #30
 8003c24:	680e      	ldr	r6, [r1, #0]
 8003c26:	bf08      	it	eq
 8003c28:	694b      	ldreq	r3, [r1, #20]
 8003c2a:	600f      	str	r7, [r1, #0]
 8003c2c:	bf18      	it	ne
 8003c2e:	2300      	movne	r3, #0
 8003c30:	eba6 0807 	sub.w	r8, r6, r7
 8003c34:	608b      	str	r3, [r1, #8]
 8003c36:	f1b8 0f00 	cmp.w	r8, #0
 8003c3a:	dd9c      	ble.n	8003b76 <__sflush_r+0x1a>
 8003c3c:	6a21      	ldr	r1, [r4, #32]
 8003c3e:	6aa6      	ldr	r6, [r4, #40]	; 0x28
 8003c40:	4643      	mov	r3, r8
 8003c42:	463a      	mov	r2, r7
 8003c44:	4628      	mov	r0, r5
 8003c46:	47b0      	blx	r6
 8003c48:	2800      	cmp	r0, #0
 8003c4a:	dc06      	bgt.n	8003c5a <__sflush_r+0xfe>
 8003c4c:	89a3      	ldrh	r3, [r4, #12]
 8003c4e:	f043 0340 	orr.w	r3, r3, #64	; 0x40
 8003c52:	81a3      	strh	r3, [r4, #12]
 8003c54:	f04f 30ff 	mov.w	r0, #4294967295
 8003c58:	e78e      	b.n	8003b78 <__sflush_r+0x1c>
 8003c5a:	4407      	add	r7, r0
 8003c5c:	eba8 0800 	sub.w	r8, r8, r0
 8003c60:	e7e9      	b.n	8003c36 <__sflush_r+0xda>
 8003c62:	bf00      	nop
 8003c64:	20400001 	.word	0x20400001

08003c68 <_fflush_r>:
 8003c68:	b538      	push	{r3, r4, r5, lr}
 8003c6a:	690b      	ldr	r3, [r1, #16]
 8003c6c:	4605      	mov	r5, r0
 8003c6e:	460c      	mov	r4, r1
 8003c70:	b913      	cbnz	r3, 8003c78 <_fflush_r+0x10>
 8003c72:	2500      	movs	r5, #0
 8003c74:	4628      	mov	r0, r5
 8003c76:	bd38      	pop	{r3, r4, r5, pc}
 8003c78:	b118      	cbz	r0, 8003c82 <_fflush_r+0x1a>
 8003c7a:	6983      	ldr	r3, [r0, #24]
 8003c7c:	b90b      	cbnz	r3, 8003c82 <_fflush_r+0x1a>
 8003c7e:	f000 f887 	bl	8003d90 <__sinit>
 8003c82:	4b14      	ldr	r3, [pc, #80]	; (8003cd4 <_fflush_r+0x6c>)
 8003c84:	429c      	cmp	r4, r3
 8003c86:	d11b      	bne.n	8003cc0 <_fflush_r+0x58>
 8003c88:	686c      	ldr	r4, [r5, #4]
 8003c8a:	f9b4 300c 	ldrsh.w	r3, [r4, #12]
 8003c8e:	2b00      	cmp	r3, #0
 8003c90:	d0ef      	beq.n	8003c72 <_fflush_r+0xa>
 8003c92:	6e62      	ldr	r2, [r4, #100]	; 0x64
 8003c94:	07d0      	lsls	r0, r2, #31
 8003c96:	d404      	bmi.n	8003ca2 <_fflush_r+0x3a>
 8003c98:	0599      	lsls	r1, r3, #22
 8003c9a:	d402      	bmi.n	8003ca2 <_fflush_r+0x3a>
 8003c9c:	6da0      	ldr	r0, [r4, #88]	; 0x58
 8003c9e:	f000 f915 	bl	8003ecc <__retarget_lock_acquire_recursive>
 8003ca2:	4628      	mov	r0, r5
 8003ca4:	4621      	mov	r1, r4
 8003ca6:	f7ff ff59 	bl	8003b5c <__sflush_r>
 8003caa:	6e63      	ldr	r3, [r4, #100]	; 0x64
 8003cac:	07da      	lsls	r2, r3, #31
 8003cae:	4605      	mov	r5, r0
 8003cb0:	d4e0      	bmi.n	8003c74 <_fflush_r+0xc>
 8003cb2:	89a3      	ldrh	r3, [r4, #12]
 8003cb4:	059b      	lsls	r3, r3, #22
 8003cb6:	d4dd      	bmi.n	8003c74 <_fflush_r+0xc>
 8003cb8:	6da0      	ldr	r0, [r4, #88]	; 0x58
 8003cba:	f000 f908 	bl	8003ece <__retarget_lock_release_recursive>
 8003cbe:	e7d9      	b.n	8003c74 <_fflush_r+0xc>
 8003cc0:	4b05      	ldr	r3, [pc, #20]	; (8003cd8 <_fflush_r+0x70>)
 8003cc2:	429c      	cmp	r4, r3
 8003cc4:	d101      	bne.n	8003cca <_fflush_r+0x62>
 8003cc6:	68ac      	ldr	r4, [r5, #8]
 8003cc8:	e7df      	b.n	8003c8a <_fflush_r+0x22>
 8003cca:	4b04      	ldr	r3, [pc, #16]	; (8003cdc <_fflush_r+0x74>)
 8003ccc:	429c      	cmp	r4, r3
 8003cce:	bf08      	it	eq
 8003cd0:	68ec      	ldreq	r4, [r5, #12]
 8003cd2:	e7da      	b.n	8003c8a <_fflush_r+0x22>
 8003cd4:	08004568 	.word	0x08004568
 8003cd8:	08004588 	.word	0x08004588
 8003cdc:	08004548 	.word	0x08004548

08003ce0 <std>:
 8003ce0:	2300      	movs	r3, #0
 8003ce2:	b510      	push	{r4, lr}
 8003ce4:	4604      	mov	r4, r0
 8003ce6:	e9c0 3300 	strd	r3, r3, [r0]
 8003cea:	e9c0 3304 	strd	r3, r3, [r0, #16]
 8003cee:	6083      	str	r3, [r0, #8]
 8003cf0:	8181      	strh	r1, [r0, #12]
 8003cf2:	6643      	str	r3, [r0, #100]	; 0x64
 8003cf4:	81c2      	strh	r2, [r0, #14]
 8003cf6:	6183      	str	r3, [r0, #24]
 8003cf8:	4619      	mov	r1, r3
 8003cfa:	2208      	movs	r2, #8
 8003cfc:	305c      	adds	r0, #92	; 0x5c
 8003cfe:	f7ff f817 	bl	8002d30 <memset>
 8003d02:	4b05      	ldr	r3, [pc, #20]	; (8003d18 <std+0x38>)
 8003d04:	6263      	str	r3, [r4, #36]	; 0x24
 8003d06:	4b05      	ldr	r3, [pc, #20]	; (8003d1c <std+0x3c>)
 8003d08:	62a3      	str	r3, [r4, #40]	; 0x28
 8003d0a:	4b05      	ldr	r3, [pc, #20]	; (8003d20 <std+0x40>)
 8003d0c:	62e3      	str	r3, [r4, #44]	; 0x2c
 8003d0e:	4b05      	ldr	r3, [pc, #20]	; (8003d24 <std+0x44>)
 8003d10:	6224      	str	r4, [r4, #32]
 8003d12:	6323      	str	r3, [r4, #48]	; 0x30
 8003d14:	bd10      	pop	{r4, pc}
 8003d16:	bf00      	nop
 8003d18:	080040d5 	.word	0x080040d5
 8003d1c:	080040f7 	.word	0x080040f7
 8003d20:	0800412f 	.word	0x0800412f
 8003d24:	08004153 	.word	0x08004153

08003d28 <_cleanup_r>:
 8003d28:	4901      	ldr	r1, [pc, #4]	; (8003d30 <_cleanup_r+0x8>)
 8003d2a:	f000 b8af 	b.w	8003e8c <_fwalk_reent>
 8003d2e:	bf00      	nop
 8003d30:	08003c69 	.word	0x08003c69

08003d34 <__sfmoreglue>:
 8003d34:	b570      	push	{r4, r5, r6, lr}
 8003d36:	1e4a      	subs	r2, r1, #1
 8003d38:	2568      	movs	r5, #104	; 0x68
 8003d3a:	4355      	muls	r5, r2
 8003d3c:	460e      	mov	r6, r1
 8003d3e:	f105 0174 	add.w	r1, r5, #116	; 0x74
 8003d42:	f7ff f98f 	bl	8003064 <_malloc_r>
 8003d46:	4604      	mov	r4, r0
 8003d48:	b140      	cbz	r0, 8003d5c <__sfmoreglue+0x28>
 8003d4a:	2100      	movs	r1, #0
 8003d4c:	e9c0 1600 	strd	r1, r6, [r0]
 8003d50:	300c      	adds	r0, #12
 8003d52:	60a0      	str	r0, [r4, #8]
 8003d54:	f105 0268 	add.w	r2, r5, #104	; 0x68
 8003d58:	f7fe ffea 	bl	8002d30 <memset>
 8003d5c:	4620      	mov	r0, r4
 8003d5e:	bd70      	pop	{r4, r5, r6, pc}

08003d60 <__sfp_lock_acquire>:
 8003d60:	4801      	ldr	r0, [pc, #4]	; (8003d68 <__sfp_lock_acquire+0x8>)
 8003d62:	f000 b8b3 	b.w	8003ecc <__retarget_lock_acquire_recursive>
 8003d66:	bf00      	nop
 8003d68:	20013078 	.word	0x20013078

08003d6c <__sfp_lock_release>:
 8003d6c:	4801      	ldr	r0, [pc, #4]	; (8003d74 <__sfp_lock_release+0x8>)
 8003d6e:	f000 b8ae 	b.w	8003ece <__retarget_lock_release_recursive>
 8003d72:	bf00      	nop
 8003d74:	20013078 	.word	0x20013078

08003d78 <__sinit_lock_acquire>:
 8003d78:	4801      	ldr	r0, [pc, #4]	; (8003d80 <__sinit_lock_acquire+0x8>)
 8003d7a:	f000 b8a7 	b.w	8003ecc <__retarget_lock_acquire_recursive>
 8003d7e:	bf00      	nop
 8003d80:	20013073 	.word	0x20013073

08003d84 <__sinit_lock_release>:
 8003d84:	4801      	ldr	r0, [pc, #4]	; (8003d8c <__sinit_lock_release+0x8>)
 8003d86:	f000 b8a2 	b.w	8003ece <__retarget_lock_release_recursive>
 8003d8a:	bf00      	nop
 8003d8c:	20013073 	.word	0x20013073

08003d90 <__sinit>:
 8003d90:	b510      	push	{r4, lr}
 8003d92:	4604      	mov	r4, r0
 8003d94:	f7ff fff0 	bl	8003d78 <__sinit_lock_acquire>
 8003d98:	69a3      	ldr	r3, [r4, #24]
 8003d9a:	b11b      	cbz	r3, 8003da4 <__sinit+0x14>
 8003d9c:	e8bd 4010 	ldmia.w	sp!, {r4, lr}
 8003da0:	f7ff bff0 	b.w	8003d84 <__sinit_lock_release>
 8003da4:	e9c4 3312 	strd	r3, r3, [r4, #72]	; 0x48
 8003da8:	6523      	str	r3, [r4, #80]	; 0x50
 8003daa:	4b13      	ldr	r3, [pc, #76]	; (8003df8 <__sinit+0x68>)
 8003dac:	4a13      	ldr	r2, [pc, #76]	; (8003dfc <__sinit+0x6c>)
 8003dae:	681b      	ldr	r3, [r3, #0]
 8003db0:	62a2      	str	r2, [r4, #40]	; 0x28
 8003db2:	42a3      	cmp	r3, r4
 8003db4:	bf04      	itt	eq
 8003db6:	2301      	moveq	r3, #1
 8003db8:	61a3      	streq	r3, [r4, #24]
 8003dba:	4620      	mov	r0, r4
 8003dbc:	f000 f820 	bl	8003e00 <__sfp>
 8003dc0:	6060      	str	r0, [r4, #4]
 8003dc2:	4620      	mov	r0, r4
 8003dc4:	f000 f81c 	bl	8003e00 <__sfp>
 8003dc8:	60a0      	str	r0, [r4, #8]
 8003dca:	4620      	mov	r0, r4
 8003dcc:	f000 f818 	bl	8003e00 <__sfp>
 8003dd0:	2200      	movs	r2, #0
 8003dd2:	60e0      	str	r0, [r4, #12]
 8003dd4:	2104      	movs	r1, #4
 8003dd6:	6860      	ldr	r0, [r4, #4]
 8003dd8:	f7ff ff82 	bl	8003ce0 <std>
 8003ddc:	68a0      	ldr	r0, [r4, #8]
 8003dde:	2201      	movs	r2, #1
 8003de0:	2109      	movs	r1, #9
 8003de2:	f7ff ff7d 	bl	8003ce0 <std>
 8003de6:	68e0      	ldr	r0, [r4, #12]
 8003de8:	2202      	movs	r2, #2
 8003dea:	2112      	movs	r1, #18
 8003dec:	f7ff ff78 	bl	8003ce0 <std>
 8003df0:	2301      	movs	r3, #1
 8003df2:	61a3      	str	r3, [r4, #24]
 8003df4:	e7d2      	b.n	8003d9c <__sinit+0xc>
 8003df6:	bf00      	nop
 8003df8:	0800435c 	.word	0x0800435c
 8003dfc:	08003d29 	.word	0x08003d29

08003e00 <__sfp>:
 8003e00:	b5f8      	push	{r3, r4, r5, r6, r7, lr}
 8003e02:	4607      	mov	r7, r0
 8003e04:	f7ff ffac 	bl	8003d60 <__sfp_lock_acquire>
 8003e08:	4b1e      	ldr	r3, [pc, #120]	; (8003e84 <__sfp+0x84>)
 8003e0a:	681e      	ldr	r6, [r3, #0]
 8003e0c:	69b3      	ldr	r3, [r6, #24]
 8003e0e:	b913      	cbnz	r3, 8003e16 <__sfp+0x16>
 8003e10:	4630      	mov	r0, r6
 8003e12:	f7ff ffbd 	bl	8003d90 <__sinit>
 8003e16:	3648      	adds	r6, #72	; 0x48
 8003e18:	e9d6 3401 	ldrd	r3, r4, [r6, #4]
 8003e1c:	3b01      	subs	r3, #1
 8003e1e:	d503      	bpl.n	8003e28 <__sfp+0x28>
 8003e20:	6833      	ldr	r3, [r6, #0]
 8003e22:	b30b      	cbz	r3, 8003e68 <__sfp+0x68>
 8003e24:	6836      	ldr	r6, [r6, #0]
 8003e26:	e7f7      	b.n	8003e18 <__sfp+0x18>
 8003e28:	f9b4 500c 	ldrsh.w	r5, [r4, #12]
 8003e2c:	b9d5      	cbnz	r5, 8003e64 <__sfp+0x64>
 8003e2e:	4b16      	ldr	r3, [pc, #88]	; (8003e88 <__sfp+0x88>)
 8003e30:	60e3      	str	r3, [r4, #12]
 8003e32:	f104 0058 	add.w	r0, r4, #88	; 0x58
 8003e36:	6665      	str	r5, [r4, #100]	; 0x64
 8003e38:	f000 f847 	bl	8003eca <__retarget_lock_init_recursive>
 8003e3c:	f7ff ff96 	bl	8003d6c <__sfp_lock_release>
 8003e40:	e9c4 5501 	strd	r5, r5, [r4, #4]
 8003e44:	e9c4 5504 	strd	r5, r5, [r4, #16]
 8003e48:	6025      	str	r5, [r4, #0]
 8003e4a:	61a5      	str	r5, [r4, #24]
 8003e4c:	2208      	movs	r2, #8
 8003e4e:	4629      	mov	r1, r5
 8003e50:	f104 005c 	add.w	r0, r4, #92	; 0x5c
 8003e54:	f7fe ff6c 	bl	8002d30 <memset>
 8003e58:	e9c4 550d 	strd	r5, r5, [r4, #52]	; 0x34
 8003e5c:	e9c4 5512 	strd	r5, r5, [r4, #72]	; 0x48
 8003e60:	4620      	mov	r0, r4
 8003e62:	bdf8      	pop	{r3, r4, r5, r6, r7, pc}
 8003e64:	3468      	adds	r4, #104	; 0x68
 8003e66:	e7d9      	b.n	8003e1c <__sfp+0x1c>
 8003e68:	2104      	movs	r1, #4
 8003e6a:	4638      	mov	r0, r7
 8003e6c:	f7ff ff62 	bl	8003d34 <__sfmoreglue>
 8003e70:	4604      	mov	r4, r0
 8003e72:	6030      	str	r0, [r6, #0]
 8003e74:	2800      	cmp	r0, #0
 8003e76:	d1d5      	bne.n	8003e24 <__sfp+0x24>
 8003e78:	f7ff ff78 	bl	8003d6c <__sfp_lock_release>
 8003e7c:	230c      	movs	r3, #12
 8003e7e:	603b      	str	r3, [r7, #0]
 8003e80:	e7ee      	b.n	8003e60 <__sfp+0x60>
 8003e82:	bf00      	nop
 8003e84:	0800435c 	.word	0x0800435c
 8003e88:	ffff0001 	.word	0xffff0001

08003e8c <_fwalk_reent>:
 8003e8c:	e92d 43f8 	stmdb	sp!, {r3, r4, r5, r6, r7, r8, r9, lr}
 8003e90:	4606      	mov	r6, r0
 8003e92:	4688      	mov	r8, r1
 8003e94:	f100 0448 	add.w	r4, r0, #72	; 0x48
 8003e98:	2700      	movs	r7, #0
 8003e9a:	e9d4 9501 	ldrd	r9, r5, [r4, #4]
 8003e9e:	f1b9 0901 	subs.w	r9, r9, #1
 8003ea2:	d505      	bpl.n	8003eb0 <_fwalk_reent+0x24>
 8003ea4:	6824      	ldr	r4, [r4, #0]
 8003ea6:	2c00      	cmp	r4, #0
 8003ea8:	d1f7      	bne.n	8003e9a <_fwalk_reent+0xe>
 8003eaa:	4638      	mov	r0, r7
 8003eac:	e8bd 83f8 	ldmia.w	sp!, {r3, r4, r5, r6, r7, r8, r9, pc}
 8003eb0:	89ab      	ldrh	r3, [r5, #12]
 8003eb2:	2b01      	cmp	r3, #1
 8003eb4:	d907      	bls.n	8003ec6 <_fwalk_reent+0x3a>
 8003eb6:	f9b5 300e 	ldrsh.w	r3, [r5, #14]
 8003eba:	3301      	adds	r3, #1
 8003ebc:	d003      	beq.n	8003ec6 <_fwalk_reent+0x3a>
 8003ebe:	4629      	mov	r1, r5
 8003ec0:	4630      	mov	r0, r6
 8003ec2:	47c0      	blx	r8
 8003ec4:	4307      	orrs	r7, r0
 8003ec6:	3568      	adds	r5, #104	; 0x68
 8003ec8:	e7e9      	b.n	8003e9e <_fwalk_reent+0x12>

08003eca <__retarget_lock_init_recursive>:
 8003eca:	4770      	bx	lr

08003ecc <__retarget_lock_acquire_recursive>:
 8003ecc:	4770      	bx	lr

08003ece <__retarget_lock_release_recursive>:
 8003ece:	4770      	bx	lr

08003ed0 <__swhatbuf_r>:
 8003ed0:	b570      	push	{r4, r5, r6, lr}
 8003ed2:	460e      	mov	r6, r1
 8003ed4:	f9b1 100e 	ldrsh.w	r1, [r1, #14]
 8003ed8:	2900      	cmp	r1, #0
 8003eda:	b096      	sub	sp, #88	; 0x58
 8003edc:	4614      	mov	r4, r2
 8003ede:	461d      	mov	r5, r3
 8003ee0:	da07      	bge.n	8003ef2 <__swhatbuf_r+0x22>
 8003ee2:	2300      	movs	r3, #0
 8003ee4:	602b      	str	r3, [r5, #0]
 8003ee6:	89b3      	ldrh	r3, [r6, #12]
 8003ee8:	061a      	lsls	r2, r3, #24
 8003eea:	d410      	bmi.n	8003f0e <__swhatbuf_r+0x3e>
 8003eec:	f44f 6380 	mov.w	r3, #1024	; 0x400
 8003ef0:	e00e      	b.n	8003f10 <__swhatbuf_r+0x40>
 8003ef2:	466a      	mov	r2, sp
 8003ef4:	f000 f954 	bl	80041a0 <_fstat_r>
 8003ef8:	2800      	cmp	r0, #0
 8003efa:	dbf2      	blt.n	8003ee2 <__swhatbuf_r+0x12>
 8003efc:	9a01      	ldr	r2, [sp, #4]
 8003efe:	f402 4270 	and.w	r2, r2, #61440	; 0xf000
 8003f02:	f5a2 5300 	sub.w	r3, r2, #8192	; 0x2000
 8003f06:	425a      	negs	r2, r3
 8003f08:	415a      	adcs	r2, r3
 8003f0a:	602a      	str	r2, [r5, #0]
 8003f0c:	e7ee      	b.n	8003eec <__swhatbuf_r+0x1c>
 8003f0e:	2340      	movs	r3, #64	; 0x40
 8003f10:	2000      	movs	r0, #0
 8003f12:	6023      	str	r3, [r4, #0]
 8003f14:	b016      	add	sp, #88	; 0x58
 8003f16:	bd70      	pop	{r4, r5, r6, pc}

08003f18 <__smakebuf_r>:
 8003f18:	898b      	ldrh	r3, [r1, #12]
 8003f1a:	b573      	push	{r0, r1, r4, r5, r6, lr}
 8003f1c:	079d      	lsls	r5, r3, #30
 8003f1e:	4606      	mov	r6, r0
 8003f20:	460c      	mov	r4, r1
 8003f22:	d507      	bpl.n	8003f34 <__smakebuf_r+0x1c>
 8003f24:	f104 0347 	add.w	r3, r4, #71	; 0x47
 8003f28:	6023      	str	r3, [r4, #0]
 8003f2a:	6123      	str	r3, [r4, #16]
 8003f2c:	2301      	movs	r3, #1
 8003f2e:	6163      	str	r3, [r4, #20]
 8003f30:	b002      	add	sp, #8
 8003f32:	bd70      	pop	{r4, r5, r6, pc}
 8003f34:	ab01      	add	r3, sp, #4
 8003f36:	466a      	mov	r2, sp
 8003f38:	f7ff ffca 	bl	8003ed0 <__swhatbuf_r>
 8003f3c:	9900      	ldr	r1, [sp, #0]
 8003f3e:	4605      	mov	r5, r0
 8003f40:	4630      	mov	r0, r6
 8003f42:	f7ff f88f 	bl	8003064 <_malloc_r>
 8003f46:	b948      	cbnz	r0, 8003f5c <__smakebuf_r+0x44>
 8003f48:	f9b4 300c 	ldrsh.w	r3, [r4, #12]
 8003f4c:	059a      	lsls	r2, r3, #22
 8003f4e:	d4ef      	bmi.n	8003f30 <__smakebuf_r+0x18>
 8003f50:	f023 0303 	bic.w	r3, r3, #3
 8003f54:	f043 0302 	orr.w	r3, r3, #2
 8003f58:	81a3      	strh	r3, [r4, #12]
 8003f5a:	e7e3      	b.n	8003f24 <__smakebuf_r+0xc>
 8003f5c:	4b0d      	ldr	r3, [pc, #52]	; (8003f94 <__smakebuf_r+0x7c>)
 8003f5e:	62b3      	str	r3, [r6, #40]	; 0x28
 8003f60:	89a3      	ldrh	r3, [r4, #12]
 8003f62:	6020      	str	r0, [r4, #0]
 8003f64:	f043 0380 	orr.w	r3, r3, #128	; 0x80
 8003f68:	81a3      	strh	r3, [r4, #12]
 8003f6a:	9b00      	ldr	r3, [sp, #0]
 8003f6c:	6163      	str	r3, [r4, #20]
 8003f6e:	9b01      	ldr	r3, [sp, #4]
 8003f70:	6120      	str	r0, [r4, #16]
 8003f72:	b15b      	cbz	r3, 8003f8c <__smakebuf_r+0x74>
 8003f74:	f9b4 100e 	ldrsh.w	r1, [r4, #14]
 8003f78:	4630      	mov	r0, r6
 8003f7a:	f000 f923 	bl	80041c4 <_isatty_r>
 8003f7e:	b128      	cbz	r0, 8003f8c <__smakebuf_r+0x74>
 8003f80:	89a3      	ldrh	r3, [r4, #12]
 8003f82:	f023 0303 	bic.w	r3, r3, #3
 8003f86:	f043 0301 	orr.w	r3, r3, #1
 8003f8a:	81a3      	strh	r3, [r4, #12]
 8003f8c:	89a0      	ldrh	r0, [r4, #12]
 8003f8e:	4305      	orrs	r5, r0
 8003f90:	81a5      	strh	r5, [r4, #12]
 8003f92:	e7cd      	b.n	8003f30 <__smakebuf_r+0x18>
 8003f94:	08003d29 	.word	0x08003d29

08003f98 <memcpy>:
 8003f98:	440a      	add	r2, r1
 8003f9a:	4291      	cmp	r1, r2
 8003f9c:	f100 33ff 	add.w	r3, r0, #4294967295
 8003fa0:	d100      	bne.n	8003fa4 <memcpy+0xc>
 8003fa2:	4770      	bx	lr
 8003fa4:	b510      	push	{r4, lr}
 8003fa6:	f811 4b01 	ldrb.w	r4, [r1], #1
 8003faa:	f803 4f01 	strb.w	r4, [r3, #1]!
 8003fae:	4291      	cmp	r1, r2
 8003fb0:	d1f9      	bne.n	8003fa6 <memcpy+0xe>
 8003fb2:	bd10      	pop	{r4, pc}

08003fb4 <memmove>:
 8003fb4:	4288      	cmp	r0, r1
 8003fb6:	b510      	push	{r4, lr}
 8003fb8:	eb01 0402 	add.w	r4, r1, r2
 8003fbc:	d902      	bls.n	8003fc4 <memmove+0x10>
 8003fbe:	4284      	cmp	r4, r0
 8003fc0:	4623      	mov	r3, r4
 8003fc2:	d807      	bhi.n	8003fd4 <memmove+0x20>
 8003fc4:	1e43      	subs	r3, r0, #1
 8003fc6:	42a1      	cmp	r1, r4
 8003fc8:	d008      	beq.n	8003fdc <memmove+0x28>
 8003fca:	f811 2b01 	ldrb.w	r2, [r1], #1
 8003fce:	f803 2f01 	strb.w	r2, [r3, #1]!
 8003fd2:	e7f8      	b.n	8003fc6 <memmove+0x12>
 8003fd4:	4402      	add	r2, r0
 8003fd6:	4601      	mov	r1, r0
 8003fd8:	428a      	cmp	r2, r1
 8003fda:	d100      	bne.n	8003fde <memmove+0x2a>
 8003fdc:	bd10      	pop	{r4, pc}
 8003fde:	f813 4d01 	ldrb.w	r4, [r3, #-1]!
 8003fe2:	f802 4d01 	strb.w	r4, [r2, #-1]!
 8003fe6:	e7f7      	b.n	8003fd8 <memmove+0x24>

08003fe8 <__malloc_lock>:
 8003fe8:	4801      	ldr	r0, [pc, #4]	; (8003ff0 <__malloc_lock+0x8>)
 8003fea:	f7ff bf6f 	b.w	8003ecc <__retarget_lock_acquire_recursive>
 8003fee:	bf00      	nop
 8003ff0:	20013074 	.word	0x20013074

08003ff4 <__malloc_unlock>:
 8003ff4:	4801      	ldr	r0, [pc, #4]	; (8003ffc <__malloc_unlock+0x8>)
 8003ff6:	f7ff bf6a 	b.w	8003ece <__retarget_lock_release_recursive>
 8003ffa:	bf00      	nop
 8003ffc:	20013074 	.word	0x20013074

08004000 <_realloc_r>:
 8004000:	b5f8      	push	{r3, r4, r5, r6, r7, lr}
 8004002:	4607      	mov	r7, r0
 8004004:	4614      	mov	r4, r2
 8004006:	460e      	mov	r6, r1
 8004008:	b921      	cbnz	r1, 8004014 <_realloc_r+0x14>
 800400a:	e8bd 40f8 	ldmia.w	sp!, {r3, r4, r5, r6, r7, lr}
 800400e:	4611      	mov	r1, r2
 8004010:	f7ff b828 	b.w	8003064 <_malloc_r>
 8004014:	b922      	cbnz	r2, 8004020 <_realloc_r+0x20>
 8004016:	f7fe ffd5 	bl	8002fc4 <_free_r>
 800401a:	4625      	mov	r5, r4
 800401c:	4628      	mov	r0, r5
 800401e:	bdf8      	pop	{r3, r4, r5, r6, r7, pc}
 8004020:	f000 f8f2 	bl	8004208 <_malloc_usable_size_r>
 8004024:	42a0      	cmp	r0, r4
 8004026:	d20f      	bcs.n	8004048 <_realloc_r+0x48>
 8004028:	4621      	mov	r1, r4
 800402a:	4638      	mov	r0, r7
 800402c:	f7ff f81a 	bl	8003064 <_malloc_r>
 8004030:	4605      	mov	r5, r0
 8004032:	2800      	cmp	r0, #0
 8004034:	d0f2      	beq.n	800401c <_realloc_r+0x1c>
 8004036:	4631      	mov	r1, r6
 8004038:	4622      	mov	r2, r4
 800403a:	f7ff ffad 	bl	8003f98 <memcpy>
 800403e:	4631      	mov	r1, r6
 8004040:	4638      	mov	r0, r7
 8004042:	f7fe ffbf 	bl	8002fc4 <_free_r>
 8004046:	e7e9      	b.n	800401c <_realloc_r+0x1c>
 8004048:	4635      	mov	r5, r6
 800404a:	e7e7      	b.n	800401c <_realloc_r+0x1c>

0800404c <_raise_r>:
 800404c:	291f      	cmp	r1, #31
 800404e:	b538      	push	{r3, r4, r5, lr}
 8004050:	4604      	mov	r4, r0
 8004052:	460d      	mov	r5, r1
 8004054:	d904      	bls.n	8004060 <_raise_r+0x14>
 8004056:	2316      	movs	r3, #22
 8004058:	6003      	str	r3, [r0, #0]
 800405a:	f04f 30ff 	mov.w	r0, #4294967295
 800405e:	bd38      	pop	{r3, r4, r5, pc}
 8004060:	6c42      	ldr	r2, [r0, #68]	; 0x44
 8004062:	b112      	cbz	r2, 800406a <_raise_r+0x1e>
 8004064:	f852 3021 	ldr.w	r3, [r2, r1, lsl #2]
 8004068:	b94b      	cbnz	r3, 800407e <_raise_r+0x32>
 800406a:	4620      	mov	r0, r4
 800406c:	f000 f830 	bl	80040d0 <_getpid_r>
 8004070:	462a      	mov	r2, r5
 8004072:	4601      	mov	r1, r0
 8004074:	4620      	mov	r0, r4
 8004076:	e8bd 4038 	ldmia.w	sp!, {r3, r4, r5, lr}
 800407a:	f000 b817 	b.w	80040ac <_kill_r>
 800407e:	2b01      	cmp	r3, #1
 8004080:	d00a      	beq.n	8004098 <_raise_r+0x4c>
 8004082:	1c59      	adds	r1, r3, #1
 8004084:	d103      	bne.n	800408e <_raise_r+0x42>
 8004086:	2316      	movs	r3, #22
 8004088:	6003      	str	r3, [r0, #0]
 800408a:	2001      	movs	r0, #1
 800408c:	e7e7      	b.n	800405e <_raise_r+0x12>
 800408e:	2400      	movs	r4, #0
 8004090:	f842 4025 	str.w	r4, [r2, r5, lsl #2]
 8004094:	4628      	mov	r0, r5
 8004096:	4798      	blx	r3
 8004098:	2000      	movs	r0, #0
 800409a:	e7e0      	b.n	800405e <_raise_r+0x12>

0800409c <raise>:
 800409c:	4b02      	ldr	r3, [pc, #8]	; (80040a8 <raise+0xc>)
 800409e:	4601      	mov	r1, r0
 80040a0:	6818      	ldr	r0, [r3, #0]
 80040a2:	f7ff bfd3 	b.w	800404c <_raise_r>
 80040a6:	bf00      	nop
 80040a8:	2000002c 	.word	0x2000002c

080040ac <_kill_r>:
 80040ac:	b538      	push	{r3, r4, r5, lr}
 80040ae:	4d07      	ldr	r5, [pc, #28]	; (80040cc <_kill_r+0x20>)
 80040b0:	2300      	movs	r3, #0
 80040b2:	4604      	mov	r4, r0
 80040b4:	4608      	mov	r0, r1
 80040b6:	4611      	mov	r1, r2
 80040b8:	602b      	str	r3, [r5, #0]
 80040ba:	f7fc fd67 	bl	8000b8c <_kill>
 80040be:	1c43      	adds	r3, r0, #1
 80040c0:	d102      	bne.n	80040c8 <_kill_r+0x1c>
 80040c2:	682b      	ldr	r3, [r5, #0]
 80040c4:	b103      	cbz	r3, 80040c8 <_kill_r+0x1c>
 80040c6:	6023      	str	r3, [r4, #0]
 80040c8:	bd38      	pop	{r3, r4, r5, pc}
 80040ca:	bf00      	nop
 80040cc:	2001307c 	.word	0x2001307c

080040d0 <_getpid_r>:
 80040d0:	f7fc bd5a 	b.w	8000b88 <_getpid>

080040d4 <__sread>:
 80040d4:	b510      	push	{r4, lr}
 80040d6:	460c      	mov	r4, r1
 80040d8:	f9b1 100e 	ldrsh.w	r1, [r1, #14]
 80040dc:	f000 f89c 	bl	8004218 <_read_r>
 80040e0:	2800      	cmp	r0, #0
 80040e2:	bfab      	itete	ge
 80040e4:	6d63      	ldrge	r3, [r4, #84]	; 0x54
 80040e6:	89a3      	ldrhlt	r3, [r4, #12]
 80040e8:	181b      	addge	r3, r3, r0
 80040ea:	f423 5380 	biclt.w	r3, r3, #4096	; 0x1000
 80040ee:	bfac      	ite	ge
 80040f0:	6563      	strge	r3, [r4, #84]	; 0x54
 80040f2:	81a3      	strhlt	r3, [r4, #12]
 80040f4:	bd10      	pop	{r4, pc}

080040f6 <__swrite>:
 80040f6:	e92d 41f0 	stmdb	sp!, {r4, r5, r6, r7, r8, lr}
 80040fa:	461f      	mov	r7, r3
 80040fc:	898b      	ldrh	r3, [r1, #12]
 80040fe:	05db      	lsls	r3, r3, #23
 8004100:	4605      	mov	r5, r0
 8004102:	460c      	mov	r4, r1
 8004104:	4616      	mov	r6, r2
 8004106:	d505      	bpl.n	8004114 <__swrite+0x1e>
 8004108:	f9b1 100e 	ldrsh.w	r1, [r1, #14]
 800410c:	2302      	movs	r3, #2
 800410e:	2200      	movs	r2, #0
 8004110:	f000 f868 	bl	80041e4 <_lseek_r>
 8004114:	89a3      	ldrh	r3, [r4, #12]
 8004116:	f9b4 100e 	ldrsh.w	r1, [r4, #14]
 800411a:	f423 5380 	bic.w	r3, r3, #4096	; 0x1000
 800411e:	81a3      	strh	r3, [r4, #12]
 8004120:	4632      	mov	r2, r6
 8004122:	463b      	mov	r3, r7
 8004124:	4628      	mov	r0, r5
 8004126:	e8bd 41f0 	ldmia.w	sp!, {r4, r5, r6, r7, r8, lr}
 800412a:	f000 b817 	b.w	800415c <_write_r>

0800412e <__sseek>:
 800412e:	b510      	push	{r4, lr}
 8004130:	460c      	mov	r4, r1
 8004132:	f9b1 100e 	ldrsh.w	r1, [r1, #14]
 8004136:	f000 f855 	bl	80041e4 <_lseek_r>
 800413a:	1c43      	adds	r3, r0, #1
 800413c:	89a3      	ldrh	r3, [r4, #12]
 800413e:	bf15      	itete	ne
 8004140:	6560      	strne	r0, [r4, #84]	; 0x54
 8004142:	f423 5380 	biceq.w	r3, r3, #4096	; 0x1000
 8004146:	f443 5380 	orrne.w	r3, r3, #4096	; 0x1000
 800414a:	81a3      	strheq	r3, [r4, #12]
 800414c:	bf18      	it	ne
 800414e:	81a3      	strhne	r3, [r4, #12]
 8004150:	bd10      	pop	{r4, pc}

08004152 <__sclose>:
 8004152:	f9b1 100e 	ldrsh.w	r1, [r1, #14]
 8004156:	f000 b813 	b.w	8004180 <_close_r>
	...

0800415c <_write_r>:
 800415c:	b538      	push	{r3, r4, r5, lr}
 800415e:	4d07      	ldr	r5, [pc, #28]	; (800417c <_write_r+0x20>)
 8004160:	4604      	mov	r4, r0
 8004162:	4608      	mov	r0, r1
 8004164:	4611      	mov	r1, r2
 8004166:	2200      	movs	r2, #0
 8004168:	602a      	str	r2, [r5, #0]
 800416a:	461a      	mov	r2, r3
 800416c:	f7fc fd29 	bl	8000bc2 <_write>
 8004170:	1c43      	adds	r3, r0, #1
 8004172:	d102      	bne.n	800417a <_write_r+0x1e>
 8004174:	682b      	ldr	r3, [r5, #0]
 8004176:	b103      	cbz	r3, 800417a <_write_r+0x1e>
 8004178:	6023      	str	r3, [r4, #0]
 800417a:	bd38      	pop	{r3, r4, r5, pc}
 800417c:	2001307c 	.word	0x2001307c

08004180 <_close_r>:
 8004180:	b538      	push	{r3, r4, r5, lr}
 8004182:	4d06      	ldr	r5, [pc, #24]	; (800419c <_close_r+0x1c>)
 8004184:	2300      	movs	r3, #0
 8004186:	4604      	mov	r4, r0
 8004188:	4608      	mov	r0, r1
 800418a:	602b      	str	r3, [r5, #0]
 800418c:	f7fc fd26 	bl	8000bdc <_close>
 8004190:	1c43      	adds	r3, r0, #1
 8004192:	d102      	bne.n	800419a <_close_r+0x1a>
 8004194:	682b      	ldr	r3, [r5, #0]
 8004196:	b103      	cbz	r3, 800419a <_close_r+0x1a>
 8004198:	6023      	str	r3, [r4, #0]
 800419a:	bd38      	pop	{r3, r4, r5, pc}
 800419c:	2001307c 	.word	0x2001307c

080041a0 <_fstat_r>:
 80041a0:	b538      	push	{r3, r4, r5, lr}
 80041a2:	4d07      	ldr	r5, [pc, #28]	; (80041c0 <_fstat_r+0x20>)
 80041a4:	2300      	movs	r3, #0
 80041a6:	4604      	mov	r4, r0
 80041a8:	4608      	mov	r0, r1
 80041aa:	4611      	mov	r1, r2
 80041ac:	602b      	str	r3, [r5, #0]
 80041ae:	f7fc fd18 	bl	8000be2 <_fstat>
 80041b2:	1c43      	adds	r3, r0, #1
 80041b4:	d102      	bne.n	80041bc <_fstat_r+0x1c>
 80041b6:	682b      	ldr	r3, [r5, #0]
 80041b8:	b103      	cbz	r3, 80041bc <_fstat_r+0x1c>
 80041ba:	6023      	str	r3, [r4, #0]
 80041bc:	bd38      	pop	{r3, r4, r5, pc}
 80041be:	bf00      	nop
 80041c0:	2001307c 	.word	0x2001307c

080041c4 <_isatty_r>:
 80041c4:	b538      	push	{r3, r4, r5, lr}
 80041c6:	4d06      	ldr	r5, [pc, #24]	; (80041e0 <_isatty_r+0x1c>)
 80041c8:	2300      	movs	r3, #0
 80041ca:	4604      	mov	r4, r0
 80041cc:	4608      	mov	r0, r1
 80041ce:	602b      	str	r3, [r5, #0]
 80041d0:	f7fc fd0c 	bl	8000bec <_isatty>
 80041d4:	1c43      	adds	r3, r0, #1
 80041d6:	d102      	bne.n	80041de <_isatty_r+0x1a>
 80041d8:	682b      	ldr	r3, [r5, #0]
 80041da:	b103      	cbz	r3, 80041de <_isatty_r+0x1a>
 80041dc:	6023      	str	r3, [r4, #0]
 80041de:	bd38      	pop	{r3, r4, r5, pc}
 80041e0:	2001307c 	.word	0x2001307c

080041e4 <_lseek_r>:
 80041e4:	b538      	push	{r3, r4, r5, lr}
 80041e6:	4d07      	ldr	r5, [pc, #28]	; (8004204 <_lseek_r+0x20>)
 80041e8:	4604      	mov	r4, r0
 80041ea:	4608      	mov	r0, r1
 80041ec:	4611      	mov	r1, r2
 80041ee:	2200      	movs	r2, #0
 80041f0:	602a      	str	r2, [r5, #0]
 80041f2:	461a      	mov	r2, r3
 80041f4:	f7fc fcfc 	bl	8000bf0 <_lseek>
 80041f8:	1c43      	adds	r3, r0, #1
 80041fa:	d102      	bne.n	8004202 <_lseek_r+0x1e>
 80041fc:	682b      	ldr	r3, [r5, #0]
 80041fe:	b103      	cbz	r3, 8004202 <_lseek_r+0x1e>
 8004200:	6023      	str	r3, [r4, #0]
 8004202:	bd38      	pop	{r3, r4, r5, pc}
 8004204:	2001307c 	.word	0x2001307c

08004208 <_malloc_usable_size_r>:
 8004208:	f851 3c04 	ldr.w	r3, [r1, #-4]
 800420c:	1f18      	subs	r0, r3, #4
 800420e:	2b00      	cmp	r3, #0
 8004210:	bfbc      	itt	lt
 8004212:	580b      	ldrlt	r3, [r1, r0]
 8004214:	18c0      	addlt	r0, r0, r3
 8004216:	4770      	bx	lr

08004218 <_read_r>:
 8004218:	b538      	push	{r3, r4, r5, lr}
 800421a:	4d07      	ldr	r5, [pc, #28]	; (8004238 <_read_r+0x20>)
 800421c:	4604      	mov	r4, r0
 800421e:	4608      	mov	r0, r1
 8004220:	4611      	mov	r1, r2
 8004222:	2200      	movs	r2, #0
 8004224:	602a      	str	r2, [r5, #0]
 8004226:	461a      	mov	r2, r3
 8004228:	f7fc fcbe 	bl	8000ba8 <_read>
 800422c:	1c43      	adds	r3, r0, #1
 800422e:	d102      	bne.n	8004236 <_read_r+0x1e>
 8004230:	682b      	ldr	r3, [r5, #0]
 8004232:	b103      	cbz	r3, 8004236 <_read_r+0x1e>
 8004234:	6023      	str	r3, [r4, #0]
 8004236:	bd38      	pop	{r3, r4, r5, pc}
 8004238:	2001307c 	.word	0x2001307c

0800423c <_init>:
 800423c:	b5f8      	push	{r3, r4, r5, r6, r7, lr}
 800423e:	bf00      	nop
 8004240:	bcf8      	pop	{r3, r4, r5, r6, r7}
 8004242:	bc08      	pop	{r3}
 8004244:	469e      	mov	lr, r3
 8004246:	4770      	bx	lr

08004248 <_fini>:
 8004248:	b5f8      	push	{r3, r4, r5, r6, r7, lr}
 800424a:	bf00      	nop
 800424c:	bcf8      	pop	{r3, r4, r5, r6, r7}
 800424e:	bc08      	pop	{r3}
 8004250:	469e      	mov	lr, r3
 8004252:	4770      	bx	lr
