
VGAnuS_Software-Ontwikkeling.elf:     file format elf32-littlearm

Sections:
Idx Name          Size      VMA       LMA       File off  Algn
  0 .isr_vector   00000188  08000000  08000000  00010000  2**0
                  CONTENTS, ALLOC, LOAD, READONLY, DATA
  1 .text         00006098  08000190  08000190  00010190  2**4
                  CONTENTS, ALLOC, LOAD, READONLY, CODE
  2 .rodata       00000194  08006228  08006228  00016228  2**2
                  CONTENTS, ALLOC, LOAD, READONLY, DATA
  3 .ARM.extab    00000000  080063bc  080063bc  00020090  2**0
                  CONTENTS
  4 .ARM          00000008  080063bc  080063bc  000163bc  2**2
                  CONTENTS, ALLOC, LOAD, READONLY, DATA
  5 .preinit_array 00000000  080063c4  080063c4  00020090  2**0
                  CONTENTS, ALLOC, LOAD, DATA
  6 .init_array   00000004  080063c4  080063c4  000163c4  2**2
                  CONTENTS, ALLOC, LOAD, DATA
  7 .fini_array   00000004  080063c8  080063c8  000163c8  2**2
                  CONTENTS, ALLOC, LOAD, DATA
  8 .data         00000090  20000000  080063cc  00020000  2**2
                  CONTENTS, ALLOC, LOAD, DATA
  9 .bss          00012ff0  20000090  0800645c  00020090  2**2
                  ALLOC
 10 ._user_heap_stack 00000600  20013080  0800645c  00023080  2**0
                  ALLOC
 11 .ARM.attributes 00000030  00000000  00000000  00020090  2**0
                  CONTENTS, READONLY
 12 .debug_info   00016254  00000000  00000000  000200c0  2**0
                  CONTENTS, READONLY, DEBUGGING, OCTETS
 13 .debug_abbrev 00002d82  00000000  00000000  00036314  2**0
                  CONTENTS, READONLY, DEBUGGING, OCTETS
 14 .debug_aranges 00000dc0  00000000  00000000  00039098  2**3
                  CONTENTS, READONLY, DEBUGGING, OCTETS
 15 .debug_ranges 00000ca8  00000000  00000000  00039e58  2**3
                  CONTENTS, READONLY, DEBUGGING, OCTETS
 16 .debug_macro  00023914  00000000  00000000  0003ab00  2**0
                  CONTENTS, READONLY, DEBUGGING, OCTETS
 17 .debug_line   00011312  00000000  00000000  0005e414  2**0
                  CONTENTS, READONLY, DEBUGGING, OCTETS
 18 .debug_str    000cc6fb  00000000  00000000  0006f726  2**0
                  CONTENTS, READONLY, DEBUGGING, OCTETS
 19 .comment      00000053  00000000  00000000  0013be21  2**0
                  CONTENTS, READONLY
 20 .debug_frame  00004324  00000000  00000000  0013be74  2**2
                  CONTENTS, READONLY, DEBUGGING, OCTETS

Disassembly of section .text:

08000190 <__do_global_dtors_aux>:
 8000190:	b510      	push	{r4, lr}
 8000192:	4c05      	ldr	r4, [pc, #20]	; (80001a8 <__do_global_dtors_aux+0x18>)
 8000194:	7823      	ldrb	r3, [r4, #0]
 8000196:	b933      	cbnz	r3, 80001a6 <__do_global_dtors_aux+0x16>
 8000198:	4b04      	ldr	r3, [pc, #16]	; (80001ac <__do_global_dtors_aux+0x1c>)
 800019a:	b113      	cbz	r3, 80001a2 <__do_global_dtors_aux+0x12>
 800019c:	4804      	ldr	r0, [pc, #16]	; (80001b0 <__do_global_dtors_aux+0x20>)
 800019e:	f3af 8000 	nop.w
 80001a2:	2301      	movs	r3, #1
 80001a4:	7023      	strb	r3, [r4, #0]
 80001a6:	bd10      	pop	{r4, pc}
 80001a8:	20000090 	.word	0x20000090
 80001ac:	00000000 	.word	0x00000000
 80001b0:	08006210 	.word	0x08006210

080001b4 <frame_dummy>:
 80001b4:	b508      	push	{r3, lr}
 80001b6:	4b03      	ldr	r3, [pc, #12]	; (80001c4 <frame_dummy+0x10>)
 80001b8:	b11b      	cbz	r3, 80001c2 <frame_dummy+0xe>
 80001ba:	4903      	ldr	r1, [pc, #12]	; (80001c8 <frame_dummy+0x14>)
 80001bc:	4803      	ldr	r0, [pc, #12]	; (80001cc <frame_dummy+0x18>)
 80001be:	f3af 8000 	nop.w
 80001c2:	bd08      	pop	{r3, pc}
 80001c4:	00000000 	.word	0x00000000
 80001c8:	20000094 	.word	0x20000094
 80001cc:	08006210 	.word	0x08006210

080001d0 <strlen>:
 80001d0:	4603      	mov	r3, r0
 80001d2:	f813 2b01 	ldrb.w	r2, [r3], #1
 80001d6:	2a00      	cmp	r2, #0
 80001d8:	d1fb      	bne.n	80001d2 <strlen+0x2>
 80001da:	1a18      	subs	r0, r3, r0
 80001dc:	3801      	subs	r0, #1
 80001de:	4770      	bx	lr

080001e0 <memchr>:
 80001e0:	f001 01ff 	and.w	r1, r1, #255	; 0xff
 80001e4:	2a10      	cmp	r2, #16
 80001e6:	db2b      	blt.n	8000240 <memchr+0x60>
 80001e8:	f010 0f07 	tst.w	r0, #7
 80001ec:	d008      	beq.n	8000200 <memchr+0x20>
 80001ee:	f810 3b01 	ldrb.w	r3, [r0], #1
 80001f2:	3a01      	subs	r2, #1
 80001f4:	428b      	cmp	r3, r1
 80001f6:	d02d      	beq.n	8000254 <memchr+0x74>
 80001f8:	f010 0f07 	tst.w	r0, #7
 80001fc:	b342      	cbz	r2, 8000250 <memchr+0x70>
 80001fe:	d1f6      	bne.n	80001ee <memchr+0xe>
 8000200:	b4f0      	push	{r4, r5, r6, r7}
 8000202:	ea41 2101 	orr.w	r1, r1, r1, lsl #8
 8000206:	ea41 4101 	orr.w	r1, r1, r1, lsl #16
 800020a:	f022 0407 	bic.w	r4, r2, #7
 800020e:	f07f 0700 	mvns.w	r7, #0
 8000212:	2300      	movs	r3, #0
 8000214:	e8f0 5602 	ldrd	r5, r6, [r0], #8
 8000218:	3c08      	subs	r4, #8
 800021a:	ea85 0501 	eor.w	r5, r5, r1
 800021e:	ea86 0601 	eor.w	r6, r6, r1
 8000222:	fa85 f547 	uadd8	r5, r5, r7
 8000226:	faa3 f587 	sel	r5, r3, r7
 800022a:	fa86 f647 	uadd8	r6, r6, r7
 800022e:	faa5 f687 	sel	r6, r5, r7
 8000232:	b98e      	cbnz	r6, 8000258 <memchr+0x78>
 8000234:	d1ee      	bne.n	8000214 <memchr+0x34>
 8000236:	bcf0      	pop	{r4, r5, r6, r7}
 8000238:	f001 01ff 	and.w	r1, r1, #255	; 0xff
 800023c:	f002 0207 	and.w	r2, r2, #7
 8000240:	b132      	cbz	r2, 8000250 <memchr+0x70>
 8000242:	f810 3b01 	ldrb.w	r3, [r0], #1
 8000246:	3a01      	subs	r2, #1
 8000248:	ea83 0301 	eor.w	r3, r3, r1
 800024c:	b113      	cbz	r3, 8000254 <memchr+0x74>
 800024e:	d1f8      	bne.n	8000242 <memchr+0x62>
 8000250:	2000      	movs	r0, #0
 8000252:	4770      	bx	lr
 8000254:	3801      	subs	r0, #1
 8000256:	4770      	bx	lr
 8000258:	2d00      	cmp	r5, #0
 800025a:	bf06      	itte	eq
 800025c:	4635      	moveq	r5, r6
 800025e:	3803      	subeq	r0, #3
 8000260:	3807      	subne	r0, #7
 8000262:	f015 0f01 	tst.w	r5, #1
 8000266:	d107      	bne.n	8000278 <memchr+0x98>
 8000268:	3001      	adds	r0, #1
 800026a:	f415 7f80 	tst.w	r5, #256	; 0x100
 800026e:	bf02      	ittt	eq
 8000270:	3001      	addeq	r0, #1
 8000272:	f415 3fc0 	tsteq.w	r5, #98304	; 0x18000
 8000276:	3001      	addeq	r0, #1
 8000278:	bcf0      	pop	{r4, r5, r6, r7}
 800027a:	3801      	subs	r0, #1
 800027c:	4770      	bx	lr
 800027e:	bf00      	nop

08000280 <__aeabi_uldivmod>:
 8000280:	b953      	cbnz	r3, 8000298 <__aeabi_uldivmod+0x18>
 8000282:	b94a      	cbnz	r2, 8000298 <__aeabi_uldivmod+0x18>
 8000284:	2900      	cmp	r1, #0
 8000286:	bf08      	it	eq
 8000288:	2800      	cmpeq	r0, #0
 800028a:	bf1c      	itt	ne
 800028c:	f04f 31ff 	movne.w	r1, #4294967295
 8000290:	f04f 30ff 	movne.w	r0, #4294967295
 8000294:	f000 b96e 	b.w	8000574 <__aeabi_idiv0>
 8000298:	f1ad 0c08 	sub.w	ip, sp, #8
 800029c:	e96d ce04 	strd	ip, lr, [sp, #-16]!
 80002a0:	f000 f806 	bl	80002b0 <__udivmoddi4>
 80002a4:	f8dd e004 	ldr.w	lr, [sp, #4]
 80002a8:	e9dd 2302 	ldrd	r2, r3, [sp, #8]
 80002ac:	b004      	add	sp, #16
 80002ae:	4770      	bx	lr

080002b0 <__udivmoddi4>:
 80002b0:	e92d 47f0 	stmdb	sp!, {r4, r5, r6, r7, r8, r9, sl, lr}
 80002b4:	9d08      	ldr	r5, [sp, #32]
 80002b6:	4604      	mov	r4, r0
 80002b8:	468c      	mov	ip, r1
 80002ba:	2b00      	cmp	r3, #0
 80002bc:	f040 8083 	bne.w	80003c6 <__udivmoddi4+0x116>
 80002c0:	428a      	cmp	r2, r1
 80002c2:	4617      	mov	r7, r2
 80002c4:	d947      	bls.n	8000356 <__udivmoddi4+0xa6>
 80002c6:	fab2 f282 	clz	r2, r2
 80002ca:	b142      	cbz	r2, 80002de <__udivmoddi4+0x2e>
 80002cc:	f1c2 0020 	rsb	r0, r2, #32
 80002d0:	fa24 f000 	lsr.w	r0, r4, r0
 80002d4:	4091      	lsls	r1, r2
 80002d6:	4097      	lsls	r7, r2
 80002d8:	ea40 0c01 	orr.w	ip, r0, r1
 80002dc:	4094      	lsls	r4, r2
 80002de:	ea4f 4817 	mov.w	r8, r7, lsr #16
 80002e2:	0c23      	lsrs	r3, r4, #16
 80002e4:	fbbc f6f8 	udiv	r6, ip, r8
 80002e8:	fa1f fe87 	uxth.w	lr, r7
 80002ec:	fb08 c116 	mls	r1, r8, r6, ip
 80002f0:	ea43 4301 	orr.w	r3, r3, r1, lsl #16
 80002f4:	fb06 f10e 	mul.w	r1, r6, lr
 80002f8:	4299      	cmp	r1, r3
 80002fa:	d909      	bls.n	8000310 <__udivmoddi4+0x60>
 80002fc:	18fb      	adds	r3, r7, r3
 80002fe:	f106 30ff 	add.w	r0, r6, #4294967295
 8000302:	f080 8119 	bcs.w	8000538 <__udivmoddi4+0x288>
 8000306:	4299      	cmp	r1, r3
 8000308:	f240 8116 	bls.w	8000538 <__udivmoddi4+0x288>
 800030c:	3e02      	subs	r6, #2
 800030e:	443b      	add	r3, r7
 8000310:	1a5b      	subs	r3, r3, r1
 8000312:	b2a4      	uxth	r4, r4
 8000314:	fbb3 f0f8 	udiv	r0, r3, r8
 8000318:	fb08 3310 	mls	r3, r8, r0, r3
 800031c:	ea44 4403 	orr.w	r4, r4, r3, lsl #16
 8000320:	fb00 fe0e 	mul.w	lr, r0, lr
 8000324:	45a6      	cmp	lr, r4
 8000326:	d909      	bls.n	800033c <__udivmoddi4+0x8c>
 8000328:	193c      	adds	r4, r7, r4
 800032a:	f100 33ff 	add.w	r3, r0, #4294967295
 800032e:	f080 8105 	bcs.w	800053c <__udivmoddi4+0x28c>
 8000332:	45a6      	cmp	lr, r4
 8000334:	f240 8102 	bls.w	800053c <__udivmoddi4+0x28c>
 8000338:	3802      	subs	r0, #2
 800033a:	443c      	add	r4, r7
 800033c:	ea40 4006 	orr.w	r0, r0, r6, lsl #16
 8000340:	eba4 040e 	sub.w	r4, r4, lr
 8000344:	2600      	movs	r6, #0
 8000346:	b11d      	cbz	r5, 8000350 <__udivmoddi4+0xa0>
 8000348:	40d4      	lsrs	r4, r2
 800034a:	2300      	movs	r3, #0
 800034c:	e9c5 4300 	strd	r4, r3, [r5]
 8000350:	4631      	mov	r1, r6
 8000352:	e8bd 87f0 	ldmia.w	sp!, {r4, r5, r6, r7, r8, r9, sl, pc}
 8000356:	b902      	cbnz	r2, 800035a <__udivmoddi4+0xaa>
 8000358:	deff      	udf	#255	; 0xff
 800035a:	fab2 f282 	clz	r2, r2
 800035e:	2a00      	cmp	r2, #0
 8000360:	d150      	bne.n	8000404 <__udivmoddi4+0x154>
 8000362:	1bcb      	subs	r3, r1, r7
 8000364:	ea4f 4e17 	mov.w	lr, r7, lsr #16
 8000368:	fa1f f887 	uxth.w	r8, r7
 800036c:	2601      	movs	r6, #1
 800036e:	fbb3 fcfe 	udiv	ip, r3, lr
 8000372:	0c21      	lsrs	r1, r4, #16
 8000374:	fb0e 331c 	mls	r3, lr, ip, r3
 8000378:	ea41 4103 	orr.w	r1, r1, r3, lsl #16
 800037c:	fb08 f30c 	mul.w	r3, r8, ip
 8000380:	428b      	cmp	r3, r1
 8000382:	d907      	bls.n	8000394 <__udivmoddi4+0xe4>
 8000384:	1879      	adds	r1, r7, r1
 8000386:	f10c 30ff 	add.w	r0, ip, #4294967295
 800038a:	d202      	bcs.n	8000392 <__udivmoddi4+0xe2>
 800038c:	428b      	cmp	r3, r1
 800038e:	f200 80e9 	bhi.w	8000564 <__udivmoddi4+0x2b4>
 8000392:	4684      	mov	ip, r0
 8000394:	1ac9      	subs	r1, r1, r3
 8000396:	b2a3      	uxth	r3, r4
 8000398:	fbb1 f0fe 	udiv	r0, r1, lr
 800039c:	fb0e 1110 	mls	r1, lr, r0, r1
 80003a0:	ea43 4401 	orr.w	r4, r3, r1, lsl #16
 80003a4:	fb08 f800 	mul.w	r8, r8, r0
 80003a8:	45a0      	cmp	r8, r4
 80003aa:	d907      	bls.n	80003bc <__udivmoddi4+0x10c>
 80003ac:	193c      	adds	r4, r7, r4
 80003ae:	f100 33ff 	add.w	r3, r0, #4294967295
 80003b2:	d202      	bcs.n	80003ba <__udivmoddi4+0x10a>
 80003b4:	45a0      	cmp	r8, r4
 80003b6:	f200 80d9 	bhi.w	800056c <__udivmoddi4+0x2bc>
 80003ba:	4618      	mov	r0, r3
 80003bc:	eba4 0408 	sub.w	r4, r4, r8
 80003c0:	ea40 400c 	orr.w	r0, r0, ip, lsl #16
 80003c4:	e7bf      	b.n	8000346 <__udivmoddi4+0x96>
 80003c6:	428b      	cmp	r3, r1
 80003c8:	d909      	bls.n	80003de <__udivmoddi4+0x12e>
 80003ca:	2d00      	cmp	r5, #0
 80003cc:	f000 80b1 	beq.w	8000532 <__udivmoddi4+0x282>
 80003d0:	2600      	movs	r6, #0
 80003d2:	e9c5 0100 	strd	r0, r1, [r5]
 80003d6:	4630      	mov	r0, r6
 80003d8:	4631      	mov	r1, r6
 80003da:	e8bd 87f0 	ldmia.w	sp!, {r4, r5, r6, r7, r8, r9, sl, pc}
 80003de:	fab3 f683 	clz	r6, r3
 80003e2:	2e00      	cmp	r6, #0
 80003e4:	d14a      	bne.n	800047c <__udivmoddi4+0x1cc>
 80003e6:	428b      	cmp	r3, r1
 80003e8:	d302      	bcc.n	80003f0 <__udivmoddi4+0x140>
 80003ea:	4282      	cmp	r2, r0
 80003ec:	f200 80b8 	bhi.w	8000560 <__udivmoddi4+0x2b0>
 80003f0:	1a84      	subs	r4, r0, r2
 80003f2:	eb61 0103 	sbc.w	r1, r1, r3
 80003f6:	2001      	movs	r0, #1
 80003f8:	468c      	mov	ip, r1
 80003fa:	2d00      	cmp	r5, #0
 80003fc:	d0a8      	beq.n	8000350 <__udivmoddi4+0xa0>
 80003fe:	e9c5 4c00 	strd	r4, ip, [r5]
 8000402:	e7a5      	b.n	8000350 <__udivmoddi4+0xa0>
 8000404:	f1c2 0320 	rsb	r3, r2, #32
 8000408:	fa20 f603 	lsr.w	r6, r0, r3
 800040c:	4097      	lsls	r7, r2
 800040e:	fa01 f002 	lsl.w	r0, r1, r2
 8000412:	ea4f 4e17 	mov.w	lr, r7, lsr #16
 8000416:	40d9      	lsrs	r1, r3
 8000418:	4330      	orrs	r0, r6
 800041a:	0c03      	lsrs	r3, r0, #16
 800041c:	fbb1 f6fe 	udiv	r6, r1, lr
 8000420:	fa1f f887 	uxth.w	r8, r7
 8000424:	fb0e 1116 	mls	r1, lr, r6, r1
 8000428:	ea43 4301 	orr.w	r3, r3, r1, lsl #16
 800042c:	fb06 f108 	mul.w	r1, r6, r8
 8000430:	4299      	cmp	r1, r3
 8000432:	fa04 f402 	lsl.w	r4, r4, r2
 8000436:	d909      	bls.n	800044c <__udivmoddi4+0x19c>
 8000438:	18fb      	adds	r3, r7, r3
 800043a:	f106 3cff 	add.w	ip, r6, #4294967295
 800043e:	f080 808d 	bcs.w	800055c <__udivmoddi4+0x2ac>
 8000442:	4299      	cmp	r1, r3
 8000444:	f240 808a 	bls.w	800055c <__udivmoddi4+0x2ac>
 8000448:	3e02      	subs	r6, #2
 800044a:	443b      	add	r3, r7
 800044c:	1a5b      	subs	r3, r3, r1
 800044e:	b281      	uxth	r1, r0
 8000450:	fbb3 f0fe 	udiv	r0, r3, lr
 8000454:	fb0e 3310 	mls	r3, lr, r0, r3
 8000458:	ea41 4103 	orr.w	r1, r1, r3, lsl #16
 800045c:	fb00 f308 	mul.w	r3, r0, r8
 8000460:	428b      	cmp	r3, r1
 8000462:	d907      	bls.n	8000474 <__udivmoddi4+0x1c4>
 8000464:	1879      	adds	r1, r7, r1
 8000466:	f100 3cff 	add.w	ip, r0, #4294967295
 800046a:	d273      	bcs.n	8000554 <__udivmoddi4+0x2a4>
 800046c:	428b      	cmp	r3, r1
 800046e:	d971      	bls.n	8000554 <__udivmoddi4+0x2a4>
 8000470:	3802      	subs	r0, #2
 8000472:	4439      	add	r1, r7
 8000474:	1acb      	subs	r3, r1, r3
 8000476:	ea40 4606 	orr.w	r6, r0, r6, lsl #16
 800047a:	e778      	b.n	800036e <__udivmoddi4+0xbe>
 800047c:	f1c6 0c20 	rsb	ip, r6, #32
 8000480:	fa03 f406 	lsl.w	r4, r3, r6
 8000484:	fa22 f30c 	lsr.w	r3, r2, ip
 8000488:	431c      	orrs	r4, r3
 800048a:	fa20 f70c 	lsr.w	r7, r0, ip
 800048e:	fa01 f306 	lsl.w	r3, r1, r6
 8000492:	ea4f 4e14 	mov.w	lr, r4, lsr #16
 8000496:	fa21 f10c 	lsr.w	r1, r1, ip
 800049a:	431f      	orrs	r7, r3
 800049c:	0c3b      	lsrs	r3, r7, #16
 800049e:	fbb1 f9fe 	udiv	r9, r1, lr
 80004a2:	fa1f f884 	uxth.w	r8, r4
 80004a6:	fb0e 1119 	mls	r1, lr, r9, r1
 80004aa:	ea43 4101 	orr.w	r1, r3, r1, lsl #16
 80004ae:	fb09 fa08 	mul.w	sl, r9, r8
 80004b2:	458a      	cmp	sl, r1
 80004b4:	fa02 f206 	lsl.w	r2, r2, r6
 80004b8:	fa00 f306 	lsl.w	r3, r0, r6
 80004bc:	d908      	bls.n	80004d0 <__udivmoddi4+0x220>
 80004be:	1861      	adds	r1, r4, r1
 80004c0:	f109 30ff 	add.w	r0, r9, #4294967295
 80004c4:	d248      	bcs.n	8000558 <__udivmoddi4+0x2a8>
 80004c6:	458a      	cmp	sl, r1
 80004c8:	d946      	bls.n	8000558 <__udivmoddi4+0x2a8>
 80004ca:	f1a9 0902 	sub.w	r9, r9, #2
 80004ce:	4421      	add	r1, r4
 80004d0:	eba1 010a 	sub.w	r1, r1, sl
 80004d4:	b2bf      	uxth	r7, r7
 80004d6:	fbb1 f0fe 	udiv	r0, r1, lr
 80004da:	fb0e 1110 	mls	r1, lr, r0, r1
 80004de:	ea47 4701 	orr.w	r7, r7, r1, lsl #16
 80004e2:	fb00 f808 	mul.w	r8, r0, r8
 80004e6:	45b8      	cmp	r8, r7
 80004e8:	d907      	bls.n	80004fa <__udivmoddi4+0x24a>
 80004ea:	19e7      	adds	r7, r4, r7
 80004ec:	f100 31ff 	add.w	r1, r0, #4294967295
 80004f0:	d22e      	bcs.n	8000550 <__udivmoddi4+0x2a0>
 80004f2:	45b8      	cmp	r8, r7
 80004f4:	d92c      	bls.n	8000550 <__udivmoddi4+0x2a0>
 80004f6:	3802      	subs	r0, #2
 80004f8:	4427      	add	r7, r4
 80004fa:	ea40 4009 	orr.w	r0, r0, r9, lsl #16
 80004fe:	eba7 0708 	sub.w	r7, r7, r8
 8000502:	fba0 8902 	umull	r8, r9, r0, r2
 8000506:	454f      	cmp	r7, r9
 8000508:	46c6      	mov	lr, r8
 800050a:	4649      	mov	r1, r9
 800050c:	d31a      	bcc.n	8000544 <__udivmoddi4+0x294>
 800050e:	d017      	beq.n	8000540 <__udivmoddi4+0x290>
 8000510:	b15d      	cbz	r5, 800052a <__udivmoddi4+0x27a>
 8000512:	ebb3 020e 	subs.w	r2, r3, lr
 8000516:	eb67 0701 	sbc.w	r7, r7, r1
 800051a:	fa07 fc0c 	lsl.w	ip, r7, ip
 800051e:	40f2      	lsrs	r2, r6
 8000520:	ea4c 0202 	orr.w	r2, ip, r2
 8000524:	40f7      	lsrs	r7, r6
 8000526:	e9c5 2700 	strd	r2, r7, [r5]
 800052a:	2600      	movs	r6, #0
 800052c:	4631      	mov	r1, r6
 800052e:	e8bd 87f0 	ldmia.w	sp!, {r4, r5, r6, r7, r8, r9, sl, pc}
 8000532:	462e      	mov	r6, r5
 8000534:	4628      	mov	r0, r5
 8000536:	e70b      	b.n	8000350 <__udivmoddi4+0xa0>
 8000538:	4606      	mov	r6, r0
 800053a:	e6e9      	b.n	8000310 <__udivmoddi4+0x60>
 800053c:	4618      	mov	r0, r3
 800053e:	e6fd      	b.n	800033c <__udivmoddi4+0x8c>
 8000540:	4543      	cmp	r3, r8
 8000542:	d2e5      	bcs.n	8000510 <__udivmoddi4+0x260>
 8000544:	ebb8 0e02 	subs.w	lr, r8, r2
 8000548:	eb69 0104 	sbc.w	r1, r9, r4
 800054c:	3801      	subs	r0, #1
 800054e:	e7df      	b.n	8000510 <__udivmoddi4+0x260>
 8000550:	4608      	mov	r0, r1
 8000552:	e7d2      	b.n	80004fa <__udivmoddi4+0x24a>
 8000554:	4660      	mov	r0, ip
 8000556:	e78d      	b.n	8000474 <__udivmoddi4+0x1c4>
 8000558:	4681      	mov	r9, r0
 800055a:	e7b9      	b.n	80004d0 <__udivmoddi4+0x220>
 800055c:	4666      	mov	r6, ip
 800055e:	e775      	b.n	800044c <__udivmoddi4+0x19c>
 8000560:	4630      	mov	r0, r6
 8000562:	e74a      	b.n	80003fa <__udivmoddi4+0x14a>
 8000564:	f1ac 0c02 	sub.w	ip, ip, #2
 8000568:	4439      	add	r1, r7
 800056a:	e713      	b.n	8000394 <__udivmoddi4+0xe4>
 800056c:	3802      	subs	r0, #2
 800056e:	443c      	add	r4, r7
 8000570:	e724      	b.n	80003bc <__udivmoddi4+0x10c>
 8000572:	bf00      	nop

08000574 <__aeabi_idiv0>:
 8000574:	4770      	bx	lr
 8000576:	bf00      	nop

08000578 <FL_Parse>:
 */

#include "main.h"

void FL_Parse(char *buf)
{
 8000578:	b580      	push	{r7, lr}
 800057a:	b084      	sub	sp, #16
 800057c:	af00      	add	r7, sp, #0
 800057e:	6078      	str	r0, [r7, #4]
	//char splitUp[100] = buf;  //Array in which the sentence is placed
	char *woord;

	woord = strtok(buf, ",");	 //Find the first word in the sentence which is seperated via the delimiter ","
 8000580:	490e      	ldr	r1, [pc, #56]	; (80005bc <FL_Parse+0x44>)
 8000582:	6878      	ldr	r0, [r7, #4]
 8000584:	f004 fc74 	bl	8004e70 <strtok>
 8000588:	60f8      	str	r0, [r7, #12]

	while(woord != NULL){					 //Find all the other words with the delimiter "," between them
 800058a:	e00e      	b.n	80005aa <FL_Parse+0x32>
		HAL_UART_Transmit_DMA(&huart2, (uint8_t*)woord, strlen(woord));						// send a response
 800058c:	68f8      	ldr	r0, [r7, #12]
 800058e:	f7ff fe1f 	bl	80001d0 <strlen>
 8000592:	4603      	mov	r3, r0
 8000594:	b29b      	uxth	r3, r3
 8000596:	461a      	mov	r2, r3
 8000598:	68f9      	ldr	r1, [r7, #12]
 800059a:	4809      	ldr	r0, [pc, #36]	; (80005c0 <FL_Parse+0x48>)
 800059c:	f003 fcf0 	bl	8003f80 <HAL_UART_Transmit_DMA>
		woord = strtok(NULL, ",");
 80005a0:	4906      	ldr	r1, [pc, #24]	; (80005bc <FL_Parse+0x44>)
 80005a2:	2000      	movs	r0, #0
 80005a4:	f004 fc64 	bl	8004e70 <strtok>
 80005a8:	60f8      	str	r0, [r7, #12]
	while(woord != NULL){					 //Find all the other words with the delimiter "," between them
 80005aa:	68fb      	ldr	r3, [r7, #12]
 80005ac:	2b00      	cmp	r3, #0
 80005ae:	d1ed      	bne.n	800058c <FL_Parse+0x14>
		//printf("%s\n", woord);			 //print each word
	}
}
 80005b0:	bf00      	nop
 80005b2:	bf00      	nop
 80005b4:	3710      	adds	r7, #16
 80005b6:	46bd      	mov	sp, r7
 80005b8:	bd80      	pop	{r7, pc}
 80005ba:	bf00      	nop
 80005bc:	08006228 	.word	0x08006228
 80005c0:	20013028 	.word	0x20013028

080005c4 <MX_DMA_Init>:

/**
  * Enable DMA controller clock
  */
void MX_DMA_Init(void)
{
 80005c4:	b580      	push	{r7, lr}
 80005c6:	b082      	sub	sp, #8
 80005c8:	af00      	add	r7, sp, #0

  /* DMA controller clock enable */
  __HAL_RCC_DMA2_CLK_ENABLE();
 80005ca:	2300      	movs	r3, #0
 80005cc:	607b      	str	r3, [r7, #4]
 80005ce:	4b1b      	ldr	r3, [pc, #108]	; (800063c <MX_DMA_Init+0x78>)
 80005d0:	6b1b      	ldr	r3, [r3, #48]	; 0x30
 80005d2:	4a1a      	ldr	r2, [pc, #104]	; (800063c <MX_DMA_Init+0x78>)
 80005d4:	f443 0380 	orr.w	r3, r3, #4194304	; 0x400000
 80005d8:	6313      	str	r3, [r2, #48]	; 0x30
 80005da:	4b18      	ldr	r3, [pc, #96]	; (800063c <MX_DMA_Init+0x78>)
 80005dc:	6b1b      	ldr	r3, [r3, #48]	; 0x30
 80005de:	f403 0380 	and.w	r3, r3, #4194304	; 0x400000
 80005e2:	607b      	str	r3, [r7, #4]
 80005e4:	687b      	ldr	r3, [r7, #4]
  __HAL_RCC_DMA1_CLK_ENABLE();
 80005e6:	2300      	movs	r3, #0
 80005e8:	603b      	str	r3, [r7, #0]
 80005ea:	4b14      	ldr	r3, [pc, #80]	; (800063c <MX_DMA_Init+0x78>)
 80005ec:	6b1b      	ldr	r3, [r3, #48]	; 0x30
 80005ee:	4a13      	ldr	r2, [pc, #76]	; (800063c <MX_DMA_Init+0x78>)
 80005f0:	f443 1300 	orr.w	r3, r3, #2097152	; 0x200000
 80005f4:	6313      	str	r3, [r2, #48]	; 0x30
 80005f6:	4b11      	ldr	r3, [pc, #68]	; (800063c <MX_DMA_Init+0x78>)
 80005f8:	6b1b      	ldr	r3, [r3, #48]	; 0x30
 80005fa:	f403 1300 	and.w	r3, r3, #2097152	; 0x200000
 80005fe:	603b      	str	r3, [r7, #0]
 8000600:	683b      	ldr	r3, [r7, #0]

  /* DMA interrupt init */
  /* DMA1_Stream5_IRQn interrupt configuration */
  HAL_NVIC_SetPriority(DMA1_Stream5_IRQn, 0, 0);
 8000602:	2200      	movs	r2, #0
 8000604:	2100      	movs	r1, #0
 8000606:	2010      	movs	r0, #16
 8000608:	f001 f83d 	bl	8001686 <HAL_NVIC_SetPriority>
  HAL_NVIC_EnableIRQ(DMA1_Stream5_IRQn);
 800060c:	2010      	movs	r0, #16
 800060e:	f001 f856 	bl	80016be <HAL_NVIC_EnableIRQ>
  /* DMA1_Stream6_IRQn interrupt configuration */
  HAL_NVIC_SetPriority(DMA1_Stream6_IRQn, 0, 0);
 8000612:	2200      	movs	r2, #0
 8000614:	2100      	movs	r1, #0
 8000616:	2011      	movs	r0, #17
 8000618:	f001 f835 	bl	8001686 <HAL_NVIC_SetPriority>
  HAL_NVIC_EnableIRQ(DMA1_Stream6_IRQn);
 800061c:	2011      	movs	r0, #17
 800061e:	f001 f84e 	bl	80016be <HAL_NVIC_EnableIRQ>
  /* DMA2_Stream5_IRQn interrupt configuration */
  HAL_NVIC_SetPriority(DMA2_Stream5_IRQn, 0, 0);
 8000622:	2200      	movs	r2, #0
 8000624:	2100      	movs	r1, #0
 8000626:	2044      	movs	r0, #68	; 0x44
 8000628:	f001 f82d 	bl	8001686 <HAL_NVIC_SetPriority>
  HAL_NVIC_EnableIRQ(DMA2_Stream5_IRQn);
 800062c:	2044      	movs	r0, #68	; 0x44
 800062e:	f001 f846 	bl	80016be <HAL_NVIC_EnableIRQ>

}
 8000632:	bf00      	nop
 8000634:	3708      	adds	r7, #8
 8000636:	46bd      	mov	sp, r7
 8000638:	bd80      	pop	{r7, pc}
 800063a:	bf00      	nop
 800063c:	40023800 	.word	0x40023800

08000640 <MX_GPIO_Init>:
        * Output
        * EVENT_OUT
        * EXTI
*/
void MX_GPIO_Init(void)
{
 8000640:	b580      	push	{r7, lr}
 8000642:	b08a      	sub	sp, #40	; 0x28
 8000644:	af00      	add	r7, sp, #0

  GPIO_InitTypeDef GPIO_InitStruct = {0};
 8000646:	f107 0314 	add.w	r3, r7, #20
 800064a:	2200      	movs	r2, #0
 800064c:	601a      	str	r2, [r3, #0]
 800064e:	605a      	str	r2, [r3, #4]
 8000650:	609a      	str	r2, [r3, #8]
 8000652:	60da      	str	r2, [r3, #12]
 8000654:	611a      	str	r2, [r3, #16]

  /* GPIO Ports Clock Enable */
  __HAL_RCC_GPIOH_CLK_ENABLE();
 8000656:	2300      	movs	r3, #0
 8000658:	613b      	str	r3, [r7, #16]
 800065a:	4b32      	ldr	r3, [pc, #200]	; (8000724 <MX_GPIO_Init+0xe4>)
 800065c:	6b1b      	ldr	r3, [r3, #48]	; 0x30
 800065e:	4a31      	ldr	r2, [pc, #196]	; (8000724 <MX_GPIO_Init+0xe4>)
 8000660:	f043 0380 	orr.w	r3, r3, #128	; 0x80
 8000664:	6313      	str	r3, [r2, #48]	; 0x30
 8000666:	4b2f      	ldr	r3, [pc, #188]	; (8000724 <MX_GPIO_Init+0xe4>)
 8000668:	6b1b      	ldr	r3, [r3, #48]	; 0x30
 800066a:	f003 0380 	and.w	r3, r3, #128	; 0x80
 800066e:	613b      	str	r3, [r7, #16]
 8000670:	693b      	ldr	r3, [r7, #16]
  __HAL_RCC_GPIOA_CLK_ENABLE();
 8000672:	2300      	movs	r3, #0
 8000674:	60fb      	str	r3, [r7, #12]
 8000676:	4b2b      	ldr	r3, [pc, #172]	; (8000724 <MX_GPIO_Init+0xe4>)
 8000678:	6b1b      	ldr	r3, [r3, #48]	; 0x30
 800067a:	4a2a      	ldr	r2, [pc, #168]	; (8000724 <MX_GPIO_Init+0xe4>)
 800067c:	f043 0301 	orr.w	r3, r3, #1
 8000680:	6313      	str	r3, [r2, #48]	; 0x30
 8000682:	4b28      	ldr	r3, [pc, #160]	; (8000724 <MX_GPIO_Init+0xe4>)
 8000684:	6b1b      	ldr	r3, [r3, #48]	; 0x30
 8000686:	f003 0301 	and.w	r3, r3, #1
 800068a:	60fb      	str	r3, [r7, #12]
 800068c:	68fb      	ldr	r3, [r7, #12]
  __HAL_RCC_GPIOE_CLK_ENABLE();
 800068e:	2300      	movs	r3, #0
 8000690:	60bb      	str	r3, [r7, #8]
 8000692:	4b24      	ldr	r3, [pc, #144]	; (8000724 <MX_GPIO_Init+0xe4>)
 8000694:	6b1b      	ldr	r3, [r3, #48]	; 0x30
 8000696:	4a23      	ldr	r2, [pc, #140]	; (8000724 <MX_GPIO_Init+0xe4>)
 8000698:	f043 0310 	orr.w	r3, r3, #16
 800069c:	6313      	str	r3, [r2, #48]	; 0x30
 800069e:	4b21      	ldr	r3, [pc, #132]	; (8000724 <MX_GPIO_Init+0xe4>)
 80006a0:	6b1b      	ldr	r3, [r3, #48]	; 0x30
 80006a2:	f003 0310 	and.w	r3, r3, #16
 80006a6:	60bb      	str	r3, [r7, #8]
 80006a8:	68bb      	ldr	r3, [r7, #8]
  __HAL_RCC_GPIOB_CLK_ENABLE();
 80006aa:	2300      	movs	r3, #0
 80006ac:	607b      	str	r3, [r7, #4]
 80006ae:	4b1d      	ldr	r3, [pc, #116]	; (8000724 <MX_GPIO_Init+0xe4>)
 80006b0:	6b1b      	ldr	r3, [r3, #48]	; 0x30
 80006b2:	4a1c      	ldr	r2, [pc, #112]	; (8000724 <MX_GPIO_Init+0xe4>)
 80006b4:	f043 0302 	orr.w	r3, r3, #2
 80006b8:	6313      	str	r3, [r2, #48]	; 0x30
 80006ba:	4b1a      	ldr	r3, [pc, #104]	; (8000724 <MX_GPIO_Init+0xe4>)
 80006bc:	6b1b      	ldr	r3, [r3, #48]	; 0x30
 80006be:	f003 0302 	and.w	r3, r3, #2
 80006c2:	607b      	str	r3, [r7, #4]
 80006c4:	687b      	ldr	r3, [r7, #4]

  /*Configure GPIO pin Output Level */
  HAL_GPIO_WritePin(GPIOE, VGA_BLUE0_Pin|VGA_BLUE1_Pin|VGA_GREEN0_Pin|VGA_GREEN1_Pin
 80006c6:	2200      	movs	r2, #0
 80006c8:	f44f 417f 	mov.w	r1, #65280	; 0xff00
 80006cc:	4816      	ldr	r0, [pc, #88]	; (8000728 <MX_GPIO_Init+0xe8>)
 80006ce:	f001 fdaf 	bl	8002230 <HAL_GPIO_WritePin>
                          |VGA_GREEN2_Pin|VGA_RED0_Pin|VGA_RED1_Pin|VGA_RED2_Pin, GPIO_PIN_RESET);

  /*Configure GPIO pin Output Level */
  HAL_GPIO_WritePin(VGA_VSYNC_GPIO_Port, VGA_VSYNC_Pin, GPIO_PIN_RESET);
 80006d2:	2200      	movs	r2, #0
 80006d4:	f44f 5180 	mov.w	r1, #4096	; 0x1000
 80006d8:	4814      	ldr	r0, [pc, #80]	; (800072c <MX_GPIO_Init+0xec>)
 80006da:	f001 fda9 	bl	8002230 <HAL_GPIO_WritePin>

  /*Configure GPIO pins : PEPin PEPin PEPin PEPin
                           PEPin PEPin PEPin PEPin */
  GPIO_InitStruct.Pin = VGA_BLUE0_Pin|VGA_BLUE1_Pin|VGA_GREEN0_Pin|VGA_GREEN1_Pin
 80006de:	f44f 437f 	mov.w	r3, #65280	; 0xff00
 80006e2:	617b      	str	r3, [r7, #20]
                          |VGA_GREEN2_Pin|VGA_RED0_Pin|VGA_RED1_Pin|VGA_RED2_Pin;
  GPIO_InitStruct.Mode = GPIO_MODE_OUTPUT_PP;
 80006e4:	2301      	movs	r3, #1
 80006e6:	61bb      	str	r3, [r7, #24]
  GPIO_InitStruct.Pull = GPIO_NOPULL;
 80006e8:	2300      	movs	r3, #0
 80006ea:	61fb      	str	r3, [r7, #28]
  GPIO_InitStruct.Speed = GPIO_SPEED_FREQ_VERY_HIGH;
 80006ec:	2303      	movs	r3, #3
 80006ee:	623b      	str	r3, [r7, #32]
  HAL_GPIO_Init(GPIOE, &GPIO_InitStruct);
 80006f0:	f107 0314 	add.w	r3, r7, #20
 80006f4:	4619      	mov	r1, r3
 80006f6:	480c      	ldr	r0, [pc, #48]	; (8000728 <MX_GPIO_Init+0xe8>)
 80006f8:	f001 fbfe 	bl	8001ef8 <HAL_GPIO_Init>

  /*Configure GPIO pin : PtPin */
  GPIO_InitStruct.Pin = VGA_VSYNC_Pin;
 80006fc:	f44f 5380 	mov.w	r3, #4096	; 0x1000
 8000700:	617b      	str	r3, [r7, #20]
  GPIO_InitStruct.Mode = GPIO_MODE_OUTPUT_PP;
 8000702:	2301      	movs	r3, #1
 8000704:	61bb      	str	r3, [r7, #24]
  GPIO_InitStruct.Pull = GPIO_NOPULL;
 8000706:	2300      	movs	r3, #0
 8000708:	61fb      	str	r3, [r7, #28]
  GPIO_InitStruct.Speed = GPIO_SPEED_FREQ_VERY_HIGH;
 800070a:	2303      	movs	r3, #3
 800070c:	623b      	str	r3, [r7, #32]
  HAL_GPIO_Init(VGA_VSYNC_GPIO_Port, &GPIO_InitStruct);
 800070e:	f107 0314 	add.w	r3, r7, #20
 8000712:	4619      	mov	r1, r3
 8000714:	4805      	ldr	r0, [pc, #20]	; (800072c <MX_GPIO_Init+0xec>)
 8000716:	f001 fbef 	bl	8001ef8 <HAL_GPIO_Init>

}
 800071a:	bf00      	nop
 800071c:	3728      	adds	r7, #40	; 0x28
 800071e:	46bd      	mov	sp, r7
 8000720:	bd80      	pop	{r7, pc}
 8000722:	bf00      	nop
 8000724:	40023800 	.word	0x40023800
 8000728:	40021000 	.word	0x40021000
 800072c:	40020400 	.word	0x40020400

08000730 <main>:
/**
  * @brief  The application entry point.
  * @retval int
  */
int main(void)
{
 8000730:	b580      	push	{r7, lr}
 8000732:	af00      	add	r7, sp, #0
  /* USER CODE END 1 */

  /* MCU Configuration--------------------------------------------------------*/

  /* Reset of all peripherals, Initializes the Flash interface and the Systick. */
  HAL_Init();
 8000734:	f000 fe5a 	bl	80013ec <HAL_Init>
  /* USER CODE BEGIN Init */

  /* USER CODE END Init */

  /* Configure the system clock */
  SystemClock_Config();
 8000738:	f000 f83e 	bl	80007b8 <SystemClock_Config>
  /* USER CODE BEGIN SysInit */

  /* USER CODE END SysInit */

  /* Initialize all configured peripherals */
  MX_GPIO_Init();
 800073c:	f7ff ff80 	bl	8000640 <MX_GPIO_Init>
  MX_DMA_Init();
 8000740:	f7ff ff40 	bl	80005c4 <MX_DMA_Init>
  MX_TIM1_Init();
 8000744:	f000 fb24 	bl	8000d90 <MX_TIM1_Init>
  MX_TIM2_Init();
 8000748:	f000 fb72 	bl	8000e30 <MX_TIM2_Init>
  MX_USART2_UART_Init();
 800074c:	f000 fc88 	bl	8001060 <MX_USART2_UART_Init>
  /* USER CODE BEGIN 2 */

  UB_VGA_Screen_Init(); // Init VGA-Screen
 8000750:	f000 f8a4 	bl	800089c <UB_VGA_Screen_Init>

  UB_VGA_FillScreen(VGA_COL_WHITE);
 8000754:	20ff      	movs	r0, #255	; 0xff
 8000756:	f000 f8f3 	bl	8000940 <UB_VGA_FillScreen>
  UB_VGA_SetPixel(10,10,10);
 800075a:	220a      	movs	r2, #10
 800075c:	210a      	movs	r1, #10
 800075e:	200a      	movs	r0, #10
 8000760:	f000 f912 	bl	8000988 <UB_VGA_SetPixel>
  UB_VGA_SetPixel(0,0,10);
 8000764:	220a      	movs	r2, #10
 8000766:	2100      	movs	r1, #0
 8000768:	2000      	movs	r0, #0
 800076a:	f000 f90d 	bl	8000988 <UB_VGA_SetPixel>
  UB_VGA_SetPixel(319,0,10);
 800076e:	220a      	movs	r2, #10
 8000770:	2100      	movs	r1, #0
 8000772:	f240 103f 	movw	r0, #319	; 0x13f
 8000776:	f000 f907 	bl	8000988 <UB_VGA_SetPixel>

  __HAL_UART_ENABLE_IT(&huart2, UART_IT_IDLE);
 800077a:	4b0c      	ldr	r3, [pc, #48]	; (80007ac <main+0x7c>)
 800077c:	681b      	ldr	r3, [r3, #0]
 800077e:	68da      	ldr	r2, [r3, #12]
 8000780:	4b0a      	ldr	r3, [pc, #40]	; (80007ac <main+0x7c>)
 8000782:	681b      	ldr	r3, [r3, #0]
 8000784:	f042 0210 	orr.w	r2, r2, #16
 8000788:	60da      	str	r2, [r3, #12]
  HAL_UART_Receive_DMA(&huart2, UART2_rxBuffer, RX_BUFSIZE);
 800078a:	2280      	movs	r2, #128	; 0x80
 800078c:	4908      	ldr	r1, [pc, #32]	; (80007b0 <main+0x80>)
 800078e:	4807      	ldr	r0, [pc, #28]	; (80007ac <main+0x7c>)
 8000790:	f003 fc62 	bl	8004058 <HAL_UART_Receive_DMA>
  HAL_UART_Transmit(&huart2, US_mess, (uint8_t)strlen((char*)US_mess), 100);
 8000794:	4807      	ldr	r0, [pc, #28]	; (80007b4 <main+0x84>)
 8000796:	f7ff fd1b 	bl	80001d0 <strlen>
 800079a:	4603      	mov	r3, r0
 800079c:	b2db      	uxtb	r3, r3
 800079e:	b29a      	uxth	r2, r3
 80007a0:	2364      	movs	r3, #100	; 0x64
 80007a2:	4904      	ldr	r1, [pc, #16]	; (80007b4 <main+0x84>)
 80007a4:	4801      	ldr	r0, [pc, #4]	; (80007ac <main+0x7c>)
 80007a6:	f003 fb58 	bl	8003e5a <HAL_UART_Transmit>

  /* USER CODE END 2 */

  /* Infinite loop */
  /* USER CODE BEGIN WHILE */
  while (1)
 80007aa:	e7fe      	b.n	80007aa <main+0x7a>
 80007ac:	20013028 	.word	0x20013028
 80007b0:	20012ea8 	.word	0x20012ea8
 80007b4:	20000000 	.word	0x20000000

080007b8 <SystemClock_Config>:
/**
  * @brief System Clock Configuration
  * @retval None
  */
void SystemClock_Config(void)
{
 80007b8:	b580      	push	{r7, lr}
 80007ba:	b094      	sub	sp, #80	; 0x50
 80007bc:	af00      	add	r7, sp, #0
  RCC_OscInitTypeDef RCC_OscInitStruct = {0};
 80007be:	f107 0320 	add.w	r3, r7, #32
 80007c2:	2230      	movs	r2, #48	; 0x30
 80007c4:	2100      	movs	r1, #0
 80007c6:	4618      	mov	r0, r3
 80007c8:	f004 fb2a 	bl	8004e20 <memset>
  RCC_ClkInitTypeDef RCC_ClkInitStruct = {0};
 80007cc:	f107 030c 	add.w	r3, r7, #12
 80007d0:	2200      	movs	r2, #0
 80007d2:	601a      	str	r2, [r3, #0]
 80007d4:	605a      	str	r2, [r3, #4]
 80007d6:	609a      	str	r2, [r3, #8]
 80007d8:	60da      	str	r2, [r3, #12]
 80007da:	611a      	str	r2, [r3, #16]

  /** Configure the main internal regulator output voltage
  */
  __HAL_RCC_PWR_CLK_ENABLE();
 80007dc:	2300      	movs	r3, #0
 80007de:	60bb      	str	r3, [r7, #8]
 80007e0:	4b28      	ldr	r3, [pc, #160]	; (8000884 <SystemClock_Config+0xcc>)
 80007e2:	6c1b      	ldr	r3, [r3, #64]	; 0x40
 80007e4:	4a27      	ldr	r2, [pc, #156]	; (8000884 <SystemClock_Config+0xcc>)
 80007e6:	f043 5380 	orr.w	r3, r3, #268435456	; 0x10000000
 80007ea:	6413      	str	r3, [r2, #64]	; 0x40
 80007ec:	4b25      	ldr	r3, [pc, #148]	; (8000884 <SystemClock_Config+0xcc>)
 80007ee:	6c1b      	ldr	r3, [r3, #64]	; 0x40
 80007f0:	f003 5380 	and.w	r3, r3, #268435456	; 0x10000000
 80007f4:	60bb      	str	r3, [r7, #8]
 80007f6:	68bb      	ldr	r3, [r7, #8]
  __HAL_PWR_VOLTAGESCALING_CONFIG(PWR_REGULATOR_VOLTAGE_SCALE1);
 80007f8:	2300      	movs	r3, #0
 80007fa:	607b      	str	r3, [r7, #4]
 80007fc:	4b22      	ldr	r3, [pc, #136]	; (8000888 <SystemClock_Config+0xd0>)
 80007fe:	681b      	ldr	r3, [r3, #0]
 8000800:	4a21      	ldr	r2, [pc, #132]	; (8000888 <SystemClock_Config+0xd0>)
 8000802:	f443 4380 	orr.w	r3, r3, #16384	; 0x4000
 8000806:	6013      	str	r3, [r2, #0]
 8000808:	4b1f      	ldr	r3, [pc, #124]	; (8000888 <SystemClock_Config+0xd0>)
 800080a:	681b      	ldr	r3, [r3, #0]
 800080c:	f403 4380 	and.w	r3, r3, #16384	; 0x4000
 8000810:	607b      	str	r3, [r7, #4]
 8000812:	687b      	ldr	r3, [r7, #4]
  /** Initializes the RCC Oscillators according to the specified parameters
  * in the RCC_OscInitTypeDef structure.
  */
  RCC_OscInitStruct.OscillatorType = RCC_OSCILLATORTYPE_HSE;
 8000814:	2301      	movs	r3, #1
 8000816:	623b      	str	r3, [r7, #32]
  RCC_OscInitStruct.HSEState = RCC_HSE_ON;
 8000818:	f44f 3380 	mov.w	r3, #65536	; 0x10000
 800081c:	627b      	str	r3, [r7, #36]	; 0x24
  RCC_OscInitStruct.PLL.PLLState = RCC_PLL_ON;
 800081e:	2302      	movs	r3, #2
 8000820:	63bb      	str	r3, [r7, #56]	; 0x38
  RCC_OscInitStruct.PLL.PLLSource = RCC_PLLSOURCE_HSE;
 8000822:	f44f 0380 	mov.w	r3, #4194304	; 0x400000
 8000826:	63fb      	str	r3, [r7, #60]	; 0x3c
  RCC_OscInitStruct.PLL.PLLM = 4;
 8000828:	2304      	movs	r3, #4
 800082a:	643b      	str	r3, [r7, #64]	; 0x40
  RCC_OscInitStruct.PLL.PLLN = 168;
 800082c:	23a8      	movs	r3, #168	; 0xa8
 800082e:	647b      	str	r3, [r7, #68]	; 0x44
  RCC_OscInitStruct.PLL.PLLP = RCC_PLLP_DIV2;
 8000830:	2302      	movs	r3, #2
 8000832:	64bb      	str	r3, [r7, #72]	; 0x48
  RCC_OscInitStruct.PLL.PLLQ = 4;
 8000834:	2304      	movs	r3, #4
 8000836:	64fb      	str	r3, [r7, #76]	; 0x4c
  if (HAL_RCC_OscConfig(&RCC_OscInitStruct) != HAL_OK)
 8000838:	f107 0320 	add.w	r3, r7, #32
 800083c:	4618      	mov	r0, r3
 800083e:	f001 fd11 	bl	8002264 <HAL_RCC_OscConfig>
 8000842:	4603      	mov	r3, r0
 8000844:	2b00      	cmp	r3, #0
 8000846:	d001      	beq.n	800084c <SystemClock_Config+0x94>
  {
    Error_Handler();
 8000848:	f000 f820 	bl	800088c <Error_Handler>
  }
  /** Initializes the CPU, AHB and APB buses clocks
  */
  RCC_ClkInitStruct.ClockType = RCC_CLOCKTYPE_HCLK|RCC_CLOCKTYPE_SYSCLK
 800084c:	230f      	movs	r3, #15
 800084e:	60fb      	str	r3, [r7, #12]
                              |RCC_CLOCKTYPE_PCLK1|RCC_CLOCKTYPE_PCLK2;
  RCC_ClkInitStruct.SYSCLKSource = RCC_SYSCLKSOURCE_PLLCLK;
 8000850:	2302      	movs	r3, #2
 8000852:	613b      	str	r3, [r7, #16]
  RCC_ClkInitStruct.AHBCLKDivider = RCC_SYSCLK_DIV1;
 8000854:	2300      	movs	r3, #0
 8000856:	617b      	str	r3, [r7, #20]
  RCC_ClkInitStruct.APB1CLKDivider = RCC_HCLK_DIV4;
 8000858:	f44f 53a0 	mov.w	r3, #5120	; 0x1400
 800085c:	61bb      	str	r3, [r7, #24]
  RCC_ClkInitStruct.APB2CLKDivider = RCC_HCLK_DIV2;
 800085e:	f44f 5380 	mov.w	r3, #4096	; 0x1000
 8000862:	61fb      	str	r3, [r7, #28]

  if (HAL_RCC_ClockConfig(&RCC_ClkInitStruct, FLASH_LATENCY_5) != HAL_OK)
 8000864:	f107 030c 	add.w	r3, r7, #12
 8000868:	2105      	movs	r1, #5
 800086a:	4618      	mov	r0, r3
 800086c:	f001 ff72 	bl	8002754 <HAL_RCC_ClockConfig>
 8000870:	4603      	mov	r3, r0
 8000872:	2b00      	cmp	r3, #0
 8000874:	d001      	beq.n	800087a <SystemClock_Config+0xc2>
  {
    Error_Handler();
 8000876:	f000 f809 	bl	800088c <Error_Handler>
  }
}
 800087a:	bf00      	nop
 800087c:	3750      	adds	r7, #80	; 0x50
 800087e:	46bd      	mov	sp, r7
 8000880:	bd80      	pop	{r7, pc}
 8000882:	bf00      	nop
 8000884:	40023800 	.word	0x40023800
 8000888:	40007000 	.word	0x40007000

0800088c <Error_Handler>:
/**
  * @brief  This function is executed in case of error occurrence.
  * @retval None
  */
void Error_Handler(void)
{
 800088c:	b480      	push	{r7}
 800088e:	af00      	add	r7, sp, #0
  /* USER CODE BEGIN Error_Handler_Debug */
  /* User can add his own implementation to report the HAL error return state */

  /* USER CODE END Error_Handler_Debug */
}
 8000890:	bf00      	nop
 8000892:	46bd      	mov	sp, r7
 8000894:	f85d 7b04 	ldr.w	r7, [sp], #4
 8000898:	4770      	bx	lr
	...

0800089c <UB_VGA_Screen_Init>:

//--------------------------------------------------------------
// Init VGA-Module
//--------------------------------------------------------------
void UB_VGA_Screen_Init(void)
{
 800089c:	b580      	push	{r7, lr}
 800089e:	af00      	add	r7, sp, #0
  VGA.hsync_cnt = 0;
 80008a0:	4b1f      	ldr	r3, [pc, #124]	; (8000920 <UB_VGA_Screen_Init+0x84>)
 80008a2:	2200      	movs	r2, #0
 80008a4:	801a      	strh	r2, [r3, #0]
  VGA.start_adr = 0;
 80008a6:	4b1e      	ldr	r3, [pc, #120]	; (8000920 <UB_VGA_Screen_Init+0x84>)
 80008a8:	2200      	movs	r2, #0
 80008aa:	605a      	str	r2, [r3, #4]
  VGA.dma2_cr_reg = 0;
 80008ac:	4b1c      	ldr	r3, [pc, #112]	; (8000920 <UB_VGA_Screen_Init+0x84>)
 80008ae:	2200      	movs	r2, #0
 80008b0:	609a      	str	r2, [r3, #8]

  GPIOB->BSRR = VGA_VSYNC_Pin;
 80008b2:	4b1c      	ldr	r3, [pc, #112]	; (8000924 <UB_VGA_Screen_Init+0x88>)
 80008b4:	f44f 5280 	mov.w	r2, #4096	; 0x1000
 80008b8:	619a      	str	r2, [r3, #24]

  // TIM2
  HAL_TIM_Base_Start(&htim2);
 80008ba:	481b      	ldr	r0, [pc, #108]	; (8000928 <UB_VGA_Screen_Init+0x8c>)
 80008bc:	f002 f996 	bl	8002bec <HAL_TIM_Base_Start>
  HAL_TIM_PWM_Start(&htim2, TIM_CHANNEL_4);
 80008c0:	210c      	movs	r1, #12
 80008c2:	4819      	ldr	r0, [pc, #100]	; (8000928 <UB_VGA_Screen_Init+0x8c>)
 80008c4:	f002 fa4a 	bl	8002d5c <HAL_TIM_PWM_Start>
  HAL_TIM_PWM_Start_IT(&htim2, TIM_CHANNEL_3);
 80008c8:	2108      	movs	r1, #8
 80008ca:	4817      	ldr	r0, [pc, #92]	; (8000928 <UB_VGA_Screen_Init+0x8c>)
 80008cc:	f002 fb0e 	bl	8002eec <HAL_TIM_PWM_Start_IT>

  // TIM1
  __HAL_TIM_ENABLE_DMA(&htim1, TIM_DMA_UPDATE);
 80008d0:	4b16      	ldr	r3, [pc, #88]	; (800092c <UB_VGA_Screen_Init+0x90>)
 80008d2:	681b      	ldr	r3, [r3, #0]
 80008d4:	68da      	ldr	r2, [r3, #12]
 80008d6:	4b15      	ldr	r3, [pc, #84]	; (800092c <UB_VGA_Screen_Init+0x90>)
 80008d8:	681b      	ldr	r3, [r3, #0]
 80008da:	f442 7280 	orr.w	r2, r2, #256	; 0x100
 80008de:	60da      	str	r2, [r3, #12]
  __HAL_TIM_ENABLE(&htim1);
 80008e0:	4b12      	ldr	r3, [pc, #72]	; (800092c <UB_VGA_Screen_Init+0x90>)
 80008e2:	681b      	ldr	r3, [r3, #0]
 80008e4:	681a      	ldr	r2, [r3, #0]
 80008e6:	4b11      	ldr	r3, [pc, #68]	; (800092c <UB_VGA_Screen_Init+0x90>)
 80008e8:	681b      	ldr	r3, [r3, #0]
 80008ea:	f042 0201 	orr.w	r2, r2, #1
 80008ee:	601a      	str	r2, [r3, #0]
  HAL_DMA_Start_IT(&hdma_tim1_up, (uint32_t)&VGA_RAM1[0], VGA_GPIOE_ODR_ADDRESS, VGA_DISPLAY_X + 1);
 80008f0:	490f      	ldr	r1, [pc, #60]	; (8000930 <UB_VGA_Screen_Init+0x94>)
 80008f2:	f240 1341 	movw	r3, #321	; 0x141
 80008f6:	4a0f      	ldr	r2, [pc, #60]	; (8000934 <UB_VGA_Screen_Init+0x98>)
 80008f8:	480f      	ldr	r0, [pc, #60]	; (8000938 <UB_VGA_Screen_Init+0x9c>)
 80008fa:	f000 ffa9 	bl	8001850 <HAL_DMA_Start_IT>

  HAL_DMA_Init(&hdma_tim1_up);
 80008fe:	480e      	ldr	r0, [pc, #56]	; (8000938 <UB_VGA_Screen_Init+0x9c>)
 8000900:	f000 fef8 	bl	80016f4 <HAL_DMA_Init>
  __HAL_DMA_ENABLE_IT(&hdma_tim1_up, DMA_IT_TC);
 8000904:	4b0c      	ldr	r3, [pc, #48]	; (8000938 <UB_VGA_Screen_Init+0x9c>)
 8000906:	681b      	ldr	r3, [r3, #0]
 8000908:	681a      	ldr	r2, [r3, #0]
 800090a:	4b0b      	ldr	r3, [pc, #44]	; (8000938 <UB_VGA_Screen_Init+0x9c>)
 800090c:	681b      	ldr	r3, [r3, #0]
 800090e:	f042 0210 	orr.w	r2, r2, #16
 8000912:	601a      	str	r2, [r3, #0]

  //-----------------------
  // Register swap and safe
  //-----------------------
  // content of CR-Register read and save
  VGA.dma2_cr_reg = DMA2_Stream5->CR;
 8000914:	4b09      	ldr	r3, [pc, #36]	; (800093c <UB_VGA_Screen_Init+0xa0>)
 8000916:	681b      	ldr	r3, [r3, #0]
 8000918:	4a01      	ldr	r2, [pc, #4]	; (8000920 <UB_VGA_Screen_Init+0x84>)
 800091a:	6093      	str	r3, [r2, #8]
}
 800091c:	bf00      	nop
 800091e:	bd80      	pop	{r7, pc}
 8000920:	200000bc 	.word	0x200000bc
 8000924:	40020400 	.word	0x40020400
 8000928:	20012e60 	.word	0x20012e60
 800092c:	20012db8 	.word	0x20012db8
 8000930:	200000c8 	.word	0x200000c8
 8000934:	40021015 	.word	0x40021015
 8000938:	20012e00 	.word	0x20012e00
 800093c:	40026488 	.word	0x40026488

08000940 <UB_VGA_FillScreen>:

//--------------------------------------------------------------
// fill the DMA RAM buffer with one color
//--------------------------------------------------------------
void UB_VGA_FillScreen(uint8_t color)
{
 8000940:	b580      	push	{r7, lr}
 8000942:	b084      	sub	sp, #16
 8000944:	af00      	add	r7, sp, #0
 8000946:	4603      	mov	r3, r0
 8000948:	71fb      	strb	r3, [r7, #7]
  uint16_t xp,yp;

  for(yp = 0; yp < VGA_DISPLAY_Y; yp++) {
 800094a:	2300      	movs	r3, #0
 800094c:	81bb      	strh	r3, [r7, #12]
 800094e:	e012      	b.n	8000976 <UB_VGA_FillScreen+0x36>
    for(xp = 0; xp < VGA_DISPLAY_X; xp++) {
 8000950:	2300      	movs	r3, #0
 8000952:	81fb      	strh	r3, [r7, #14]
 8000954:	e008      	b.n	8000968 <UB_VGA_FillScreen+0x28>
      UB_VGA_SetPixel(xp, yp, color);
 8000956:	79fa      	ldrb	r2, [r7, #7]
 8000958:	89b9      	ldrh	r1, [r7, #12]
 800095a:	89fb      	ldrh	r3, [r7, #14]
 800095c:	4618      	mov	r0, r3
 800095e:	f000 f813 	bl	8000988 <UB_VGA_SetPixel>
    for(xp = 0; xp < VGA_DISPLAY_X; xp++) {
 8000962:	89fb      	ldrh	r3, [r7, #14]
 8000964:	3301      	adds	r3, #1
 8000966:	81fb      	strh	r3, [r7, #14]
 8000968:	89fb      	ldrh	r3, [r7, #14]
 800096a:	f5b3 7fa0 	cmp.w	r3, #320	; 0x140
 800096e:	d3f2      	bcc.n	8000956 <UB_VGA_FillScreen+0x16>
  for(yp = 0; yp < VGA_DISPLAY_Y; yp++) {
 8000970:	89bb      	ldrh	r3, [r7, #12]
 8000972:	3301      	adds	r3, #1
 8000974:	81bb      	strh	r3, [r7, #12]
 8000976:	89bb      	ldrh	r3, [r7, #12]
 8000978:	2bef      	cmp	r3, #239	; 0xef
 800097a:	d9e9      	bls.n	8000950 <UB_VGA_FillScreen+0x10>
    }
  }
}
 800097c:	bf00      	nop
 800097e:	bf00      	nop
 8000980:	3710      	adds	r7, #16
 8000982:	46bd      	mov	sp, r7
 8000984:	bd80      	pop	{r7, pc}
	...

08000988 <UB_VGA_SetPixel>:
//--------------------------------------------------------------
// put one Pixel on the screen with one color
// Important : the last Pixel+1 from every line must be black (don't know why??)
//--------------------------------------------------------------
void UB_VGA_SetPixel(uint16_t xp, uint16_t yp, uint8_t color)
{
 8000988:	b480      	push	{r7}
 800098a:	b083      	sub	sp, #12
 800098c:	af00      	add	r7, sp, #0
 800098e:	4603      	mov	r3, r0
 8000990:	80fb      	strh	r3, [r7, #6]
 8000992:	460b      	mov	r3, r1
 8000994:	80bb      	strh	r3, [r7, #4]
 8000996:	4613      	mov	r3, r2
 8000998:	70fb      	strb	r3, [r7, #3]
  if(xp >= VGA_DISPLAY_X)
 800099a:	88fb      	ldrh	r3, [r7, #6]
 800099c:	f5b3 7fa0 	cmp.w	r3, #320	; 0x140
 80009a0:	d301      	bcc.n	80009a6 <UB_VGA_SetPixel+0x1e>
    xp = 0;
 80009a2:	2300      	movs	r3, #0
 80009a4:	80fb      	strh	r3, [r7, #6]
  if(yp >= VGA_DISPLAY_Y)
 80009a6:	88bb      	ldrh	r3, [r7, #4]
 80009a8:	2bef      	cmp	r3, #239	; 0xef
 80009aa:	d901      	bls.n	80009b0 <UB_VGA_SetPixel+0x28>
    yp = 0;
 80009ac:	2300      	movs	r3, #0
 80009ae:	80bb      	strh	r3, [r7, #4]

  // Write pixel to ram
  VGA_RAM1[(yp * (VGA_DISPLAY_X + 1)) + xp] = color;
 80009b0:	88ba      	ldrh	r2, [r7, #4]
 80009b2:	4613      	mov	r3, r2
 80009b4:	009b      	lsls	r3, r3, #2
 80009b6:	4413      	add	r3, r2
 80009b8:	019b      	lsls	r3, r3, #6
 80009ba:	441a      	add	r2, r3
 80009bc:	88fb      	ldrh	r3, [r7, #6]
 80009be:	4413      	add	r3, r2
 80009c0:	4904      	ldr	r1, [pc, #16]	; (80009d4 <UB_VGA_SetPixel+0x4c>)
 80009c2:	78fa      	ldrb	r2, [r7, #3]
 80009c4:	54ca      	strb	r2, [r1, r3]
}
 80009c6:	bf00      	nop
 80009c8:	370c      	adds	r7, #12
 80009ca:	46bd      	mov	sp, r7
 80009cc:	f85d 7b04 	ldr.w	r7, [sp], #4
 80009d0:	4770      	bx	lr
 80009d2:	bf00      	nop
 80009d4:	200000c8 	.word	0x200000c8

080009d8 <HAL_MspInit>:
/* USER CODE END 0 */
/**
  * Initializes the Global MSP.
  */
void HAL_MspInit(void)
{
 80009d8:	b480      	push	{r7}
 80009da:	b083      	sub	sp, #12
 80009dc:	af00      	add	r7, sp, #0
  /* USER CODE BEGIN MspInit 0 */

  /* USER CODE END MspInit 0 */

  __HAL_RCC_SYSCFG_CLK_ENABLE();
 80009de:	2300      	movs	r3, #0
 80009e0:	607b      	str	r3, [r7, #4]
 80009e2:	4b10      	ldr	r3, [pc, #64]	; (8000a24 <HAL_MspInit+0x4c>)
 80009e4:	6c5b      	ldr	r3, [r3, #68]	; 0x44
 80009e6:	4a0f      	ldr	r2, [pc, #60]	; (8000a24 <HAL_MspInit+0x4c>)
 80009e8:	f443 4380 	orr.w	r3, r3, #16384	; 0x4000
 80009ec:	6453      	str	r3, [r2, #68]	; 0x44
 80009ee:	4b0d      	ldr	r3, [pc, #52]	; (8000a24 <HAL_MspInit+0x4c>)
 80009f0:	6c5b      	ldr	r3, [r3, #68]	; 0x44
 80009f2:	f403 4380 	and.w	r3, r3, #16384	; 0x4000
 80009f6:	607b      	str	r3, [r7, #4]
 80009f8:	687b      	ldr	r3, [r7, #4]
  __HAL_RCC_PWR_CLK_ENABLE();
 80009fa:	2300      	movs	r3, #0
 80009fc:	603b      	str	r3, [r7, #0]
 80009fe:	4b09      	ldr	r3, [pc, #36]	; (8000a24 <HAL_MspInit+0x4c>)
 8000a00:	6c1b      	ldr	r3, [r3, #64]	; 0x40
 8000a02:	4a08      	ldr	r2, [pc, #32]	; (8000a24 <HAL_MspInit+0x4c>)
 8000a04:	f043 5380 	orr.w	r3, r3, #268435456	; 0x10000000
 8000a08:	6413      	str	r3, [r2, #64]	; 0x40
 8000a0a:	4b06      	ldr	r3, [pc, #24]	; (8000a24 <HAL_MspInit+0x4c>)
 8000a0c:	6c1b      	ldr	r3, [r3, #64]	; 0x40
 8000a0e:	f003 5380 	and.w	r3, r3, #268435456	; 0x10000000
 8000a12:	603b      	str	r3, [r7, #0]
 8000a14:	683b      	ldr	r3, [r7, #0]
  /* System interrupt init*/

  /* USER CODE BEGIN MspInit 1 */

  /* USER CODE END MspInit 1 */
}
 8000a16:	bf00      	nop
 8000a18:	370c      	adds	r7, #12
 8000a1a:	46bd      	mov	sp, r7
 8000a1c:	f85d 7b04 	ldr.w	r7, [sp], #4
 8000a20:	4770      	bx	lr
 8000a22:	bf00      	nop
 8000a24:	40023800 	.word	0x40023800

08000a28 <NMI_Handler>:
/******************************************************************************/
/**
  * @brief This function handles Non maskable interrupt.
  */
void NMI_Handler(void)
{
 8000a28:	b480      	push	{r7}
 8000a2a:	af00      	add	r7, sp, #0

  /* USER CODE END NonMaskableInt_IRQn 0 */
  /* USER CODE BEGIN NonMaskableInt_IRQn 1 */

  /* USER CODE END NonMaskableInt_IRQn 1 */
}
 8000a2c:	bf00      	nop
 8000a2e:	46bd      	mov	sp, r7
 8000a30:	f85d 7b04 	ldr.w	r7, [sp], #4
 8000a34:	4770      	bx	lr

08000a36 <HardFault_Handler>:

/**
  * @brief This function handles Hard fault interrupt.
  */
void HardFault_Handler(void)
{
 8000a36:	b480      	push	{r7}
 8000a38:	af00      	add	r7, sp, #0
  /* USER CODE BEGIN HardFault_IRQn 0 */

  /* USER CODE END HardFault_IRQn 0 */
  while (1)
 8000a3a:	e7fe      	b.n	8000a3a <HardFault_Handler+0x4>

08000a3c <MemManage_Handler>:

/**
  * @brief This function handles Memory management fault.
  */
void MemManage_Handler(void)
{
 8000a3c:	b480      	push	{r7}
 8000a3e:	af00      	add	r7, sp, #0
  /* USER CODE BEGIN MemoryManagement_IRQn 0 */

  /* USER CODE END MemoryManagement_IRQn 0 */
  while (1)
 8000a40:	e7fe      	b.n	8000a40 <MemManage_Handler+0x4>

08000a42 <BusFault_Handler>:

/**
  * @brief This function handles Pre-fetch fault, memory access fault.
  */
void BusFault_Handler(void)
{
 8000a42:	b480      	push	{r7}
 8000a44:	af00      	add	r7, sp, #0
  /* USER CODE BEGIN BusFault_IRQn 0 */

  /* USER CODE END BusFault_IRQn 0 */
  while (1)
 8000a46:	e7fe      	b.n	8000a46 <BusFault_Handler+0x4>

08000a48 <UsageFault_Handler>:

/**
  * @brief This function handles Undefined instruction or illegal state.
  */
void UsageFault_Handler(void)
{
 8000a48:	b480      	push	{r7}
 8000a4a:	af00      	add	r7, sp, #0
  /* USER CODE BEGIN UsageFault_IRQn 0 */

  /* USER CODE END UsageFault_IRQn 0 */
  while (1)
 8000a4c:	e7fe      	b.n	8000a4c <UsageFault_Handler+0x4>

08000a4e <SVC_Handler>:

/**
  * @brief This function handles System service call via SWI instruction.
  */
void SVC_Handler(void)
{
 8000a4e:	b480      	push	{r7}
 8000a50:	af00      	add	r7, sp, #0

  /* USER CODE END SVCall_IRQn 0 */
  /* USER CODE BEGIN SVCall_IRQn 1 */

  /* USER CODE END SVCall_IRQn 1 */
}
 8000a52:	bf00      	nop
 8000a54:	46bd      	mov	sp, r7
 8000a56:	f85d 7b04 	ldr.w	r7, [sp], #4
 8000a5a:	4770      	bx	lr

08000a5c <DebugMon_Handler>:

/**
  * @brief This function handles Debug monitor.
  */
void DebugMon_Handler(void)
{
 8000a5c:	b480      	push	{r7}
 8000a5e:	af00      	add	r7, sp, #0

  /* USER CODE END DebugMonitor_IRQn 0 */
  /* USER CODE BEGIN DebugMonitor_IRQn 1 */

  /* USER CODE END DebugMonitor_IRQn 1 */
}
 8000a60:	bf00      	nop
 8000a62:	46bd      	mov	sp, r7
 8000a64:	f85d 7b04 	ldr.w	r7, [sp], #4
 8000a68:	4770      	bx	lr

08000a6a <PendSV_Handler>:

/**
  * @brief This function handles Pendable request for system service.
  */
void PendSV_Handler(void)
{
 8000a6a:	b480      	push	{r7}
 8000a6c:	af00      	add	r7, sp, #0

  /* USER CODE END PendSV_IRQn 0 */
  /* USER CODE BEGIN PendSV_IRQn 1 */

  /* USER CODE END PendSV_IRQn 1 */
}
 8000a6e:	bf00      	nop
 8000a70:	46bd      	mov	sp, r7
 8000a72:	f85d 7b04 	ldr.w	r7, [sp], #4
 8000a76:	4770      	bx	lr

08000a78 <SysTick_Handler>:

/**
  * @brief This function handles System tick timer.
  */
void SysTick_Handler(void)
{
 8000a78:	b580      	push	{r7, lr}
 8000a7a:	af00      	add	r7, sp, #0
  /* USER CODE BEGIN SysTick_IRQn 0 */

  /* USER CODE END SysTick_IRQn 0 */
  HAL_IncTick();
 8000a7c:	f000 fd08 	bl	8001490 <HAL_IncTick>
  /* USER CODE BEGIN SysTick_IRQn 1 */

  /* USER CODE END SysTick_IRQn 1 */
}
 8000a80:	bf00      	nop
 8000a82:	bd80      	pop	{r7, pc}

08000a84 <DMA1_Stream5_IRQHandler>:

/**
  * @brief This function handles DMA1 stream5 global interrupt.
  */
void DMA1_Stream5_IRQHandler(void)
{
 8000a84:	b580      	push	{r7, lr}
 8000a86:	af00      	add	r7, sp, #0
  /* USER CODE BEGIN DMA1_Stream5_IRQn 0 */

  /* USER CODE END DMA1_Stream5_IRQn 0 */
  HAL_DMA_IRQHandler(&hdma_usart2_rx);
 8000a88:	4802      	ldr	r0, [pc, #8]	; (8000a94 <DMA1_Stream5_IRQHandler+0x10>)
 8000a8a:	f000 ffcb 	bl	8001a24 <HAL_DMA_IRQHandler>
  /* USER CODE BEGIN DMA1_Stream5_IRQn 1 */

  /* USER CODE END DMA1_Stream5_IRQn 1 */
}
 8000a8e:	bf00      	nop
 8000a90:	bd80      	pop	{r7, pc}
 8000a92:	bf00      	nop
 8000a94:	20012f28 	.word	0x20012f28

08000a98 <DMA1_Stream6_IRQHandler>:

/**
  * @brief This function handles DMA1 stream6 global interrupt.
  */
void DMA1_Stream6_IRQHandler(void)
{
 8000a98:	b580      	push	{r7, lr}
 8000a9a:	af00      	add	r7, sp, #0
  /* USER CODE BEGIN DMA1_Stream6_IRQn 0 */

  /* USER CODE END DMA1_Stream6_IRQn 0 */
  HAL_DMA_IRQHandler(&hdma_usart2_tx);
 8000a9c:	4802      	ldr	r0, [pc, #8]	; (8000aa8 <DMA1_Stream6_IRQHandler+0x10>)
 8000a9e:	f000 ffc1 	bl	8001a24 <HAL_DMA_IRQHandler>
  /* USER CODE BEGIN DMA1_Stream6_IRQn 1 */

  /* USER CODE END DMA1_Stream6_IRQn 1 */
}
 8000aa2:	bf00      	nop
 8000aa4:	bd80      	pop	{r7, pc}
 8000aa6:	bf00      	nop
 8000aa8:	20012f88 	.word	0x20012f88

08000aac <TIM2_IRQHandler>:

/**
  * @brief This function handles TIM2 global interrupt.
  */
void TIM2_IRQHandler(void)
{
 8000aac:	b580      	push	{r7, lr}
 8000aae:	af00      	add	r7, sp, #0
  /* USER CODE BEGIN TIM2_IRQn 0 */

  /* USER CODE END TIM2_IRQn 0 */
  HAL_TIM_IRQHandler(&htim2);
 8000ab0:	4828      	ldr	r0, [pc, #160]	; (8000b54 <TIM2_IRQHandler+0xa8>)
 8000ab2:	f002 fb29 	bl	8003108 <HAL_TIM_IRQHandler>
  /* USER CODE BEGIN TIM2_IRQn 1 */
  __HAL_TIM_CLEAR_IT(&htim2, TIM_IT_CC3); // uncomment HAL_TIM_IRQHandler(&htim2); ^^
 8000ab6:	4b27      	ldr	r3, [pc, #156]	; (8000b54 <TIM2_IRQHandler+0xa8>)
 8000ab8:	681b      	ldr	r3, [r3, #0]
 8000aba:	f06f 0208 	mvn.w	r2, #8
 8000abe:	611a      	str	r2, [r3, #16]

  VGA.hsync_cnt++;
 8000ac0:	4b25      	ldr	r3, [pc, #148]	; (8000b58 <TIM2_IRQHandler+0xac>)
 8000ac2:	881b      	ldrh	r3, [r3, #0]
 8000ac4:	3301      	adds	r3, #1
 8000ac6:	b29a      	uxth	r2, r3
 8000ac8:	4b23      	ldr	r3, [pc, #140]	; (8000b58 <TIM2_IRQHandler+0xac>)
 8000aca:	801a      	strh	r2, [r3, #0]
  if (VGA.hsync_cnt >= VGA_VSYNC_PERIODE)
 8000acc:	4b22      	ldr	r3, [pc, #136]	; (8000b58 <TIM2_IRQHandler+0xac>)
 8000ace:	881b      	ldrh	r3, [r3, #0]
 8000ad0:	f5b3 7f03 	cmp.w	r3, #524	; 0x20c
 8000ad4:	d905      	bls.n	8000ae2 <TIM2_IRQHandler+0x36>
  {
    // -----------
    VGA.hsync_cnt = 0;
 8000ad6:	4b20      	ldr	r3, [pc, #128]	; (8000b58 <TIM2_IRQHandler+0xac>)
 8000ad8:	2200      	movs	r2, #0
 8000ada:	801a      	strh	r2, [r3, #0]
    // Adresspointer first dot
    VGA.start_adr = (uint32_t)(&VGA_RAM1[0]);
 8000adc:	4a1f      	ldr	r2, [pc, #124]	; (8000b5c <TIM2_IRQHandler+0xb0>)
 8000ade:	4b1e      	ldr	r3, [pc, #120]	; (8000b58 <TIM2_IRQHandler+0xac>)
 8000ae0:	605a      	str	r2, [r3, #4]
  }

  // HSync-Pixel
  GPIOB->BSRR = (VGA.hsync_cnt < VGA_VSYNC_IMP) ? VGA_VSYNC_Pin << 16u: VGA_VSYNC_Pin;
 8000ae2:	4b1d      	ldr	r3, [pc, #116]	; (8000b58 <TIM2_IRQHandler+0xac>)
 8000ae4:	881b      	ldrh	r3, [r3, #0]
 8000ae6:	2b01      	cmp	r3, #1
 8000ae8:	d802      	bhi.n	8000af0 <TIM2_IRQHandler+0x44>
 8000aea:	f04f 5380 	mov.w	r3, #268435456	; 0x10000000
 8000aee:	e001      	b.n	8000af4 <TIM2_IRQHandler+0x48>
 8000af0:	f44f 5380 	mov.w	r3, #4096	; 0x1000
 8000af4:	4a1a      	ldr	r2, [pc, #104]	; (8000b60 <TIM2_IRQHandler+0xb4>)
 8000af6:	6193      	str	r3, [r2, #24]

  // Test for DMA start
  if((VGA.hsync_cnt >= VGA_VSYNC_BILD_START) && (VGA.hsync_cnt <= VGA_VSYNC_BILD_STOP))
 8000af8:	4b17      	ldr	r3, [pc, #92]	; (8000b58 <TIM2_IRQHandler+0xac>)
 8000afa:	881b      	ldrh	r3, [r3, #0]
 8000afc:	2b23      	cmp	r3, #35	; 0x23
 8000afe:	d927      	bls.n	8000b50 <TIM2_IRQHandler+0xa4>
 8000b00:	4b15      	ldr	r3, [pc, #84]	; (8000b58 <TIM2_IRQHandler+0xac>)
 8000b02:	881b      	ldrh	r3, [r3, #0]
 8000b04:	f240 2202 	movw	r2, #514	; 0x202
 8000b08:	4293      	cmp	r3, r2
 8000b0a:	d821      	bhi.n	8000b50 <TIM2_IRQHandler+0xa4>
  {
    // after FP start => DMA Transfer

    // DMA2 init
	  DMA2_Stream5->CR = VGA.dma2_cr_reg;
 8000b0c:	4a15      	ldr	r2, [pc, #84]	; (8000b64 <TIM2_IRQHandler+0xb8>)
 8000b0e:	4b12      	ldr	r3, [pc, #72]	; (8000b58 <TIM2_IRQHandler+0xac>)
 8000b10:	689b      	ldr	r3, [r3, #8]
 8000b12:	6013      	str	r3, [r2, #0]
    // set adress
    DMA2_Stream5->M0AR = VGA.start_adr;
 8000b14:	4a13      	ldr	r2, [pc, #76]	; (8000b64 <TIM2_IRQHandler+0xb8>)
 8000b16:	4b10      	ldr	r3, [pc, #64]	; (8000b58 <TIM2_IRQHandler+0xac>)
 8000b18:	685b      	ldr	r3, [r3, #4]
 8000b1a:	60d3      	str	r3, [r2, #12]
    // Timer1 start
    TIM1->CR1 |= TIM_CR1_CEN; // __HAL_TIM_ENABLE(&htim1); // too slow?
 8000b1c:	4b12      	ldr	r3, [pc, #72]	; (8000b68 <TIM2_IRQHandler+0xbc>)
 8000b1e:	681b      	ldr	r3, [r3, #0]
 8000b20:	4a11      	ldr	r2, [pc, #68]	; (8000b68 <TIM2_IRQHandler+0xbc>)
 8000b22:	f043 0301 	orr.w	r3, r3, #1
 8000b26:	6013      	str	r3, [r2, #0]
    // DMA2 enable
    __HAL_DMA_ENABLE(&hdma_tim1_up);
 8000b28:	4b10      	ldr	r3, [pc, #64]	; (8000b6c <TIM2_IRQHandler+0xc0>)
 8000b2a:	681b      	ldr	r3, [r3, #0]
 8000b2c:	681a      	ldr	r2, [r3, #0]
 8000b2e:	4b0f      	ldr	r3, [pc, #60]	; (8000b6c <TIM2_IRQHandler+0xc0>)
 8000b30:	681b      	ldr	r3, [r3, #0]
 8000b32:	f042 0201 	orr.w	r2, r2, #1
 8000b36:	601a      	str	r2, [r3, #0]
    // Test Adrespointer for high
    if(VGA.hsync_cnt & 0x01)
 8000b38:	4b07      	ldr	r3, [pc, #28]	; (8000b58 <TIM2_IRQHandler+0xac>)
 8000b3a:	881b      	ldrh	r3, [r3, #0]
 8000b3c:	f003 0301 	and.w	r3, r3, #1
 8000b40:	2b00      	cmp	r3, #0
 8000b42:	d005      	beq.n	8000b50 <TIM2_IRQHandler+0xa4>
      VGA.start_adr += (VGA_DISPLAY_X + 1); // inc after Hsync
 8000b44:	4b04      	ldr	r3, [pc, #16]	; (8000b58 <TIM2_IRQHandler+0xac>)
 8000b46:	685b      	ldr	r3, [r3, #4]
 8000b48:	f203 1341 	addw	r3, r3, #321	; 0x141
 8000b4c:	4a02      	ldr	r2, [pc, #8]	; (8000b58 <TIM2_IRQHandler+0xac>)
 8000b4e:	6053      	str	r3, [r2, #4]
  }
  /* USER CODE END TIM2_IRQn 1 */
}
 8000b50:	bf00      	nop
 8000b52:	bd80      	pop	{r7, pc}
 8000b54:	20012e60 	.word	0x20012e60
 8000b58:	200000bc 	.word	0x200000bc
 8000b5c:	200000c8 	.word	0x200000c8
 8000b60:	40020400 	.word	0x40020400
 8000b64:	40026488 	.word	0x40026488
 8000b68:	40010000 	.word	0x40010000
 8000b6c:	20012e00 	.word	0x20012e00

08000b70 <USART2_IRQHandler>:

/**
  * @brief This function handles USART2 global interrupt.
  */
void USART2_IRQHandler(void)
{
 8000b70:	b580      	push	{r7, lr}
 8000b72:	af00      	add	r7, sp, #0
  /* USER CODE BEGIN USART2_IRQn 0 */

  /* USER CODE END USART2_IRQn 0 */
  HAL_UART_IRQHandler(&huart2);
 8000b74:	4807      	ldr	r0, [pc, #28]	; (8000b94 <USART2_IRQHandler+0x24>)
 8000b76:	f003 fa9f 	bl	80040b8 <HAL_UART_IRQHandler>
  /* USER CODE BEGIN USART2_IRQn 1 */

  if(__HAL_UART_GET_FLAG(&huart2, UART_FLAG_IDLE))
 8000b7a:	4b06      	ldr	r3, [pc, #24]	; (8000b94 <USART2_IRQHandler+0x24>)
 8000b7c:	681b      	ldr	r3, [r3, #0]
 8000b7e:	681b      	ldr	r3, [r3, #0]
 8000b80:	f003 0310 	and.w	r3, r3, #16
 8000b84:	2b10      	cmp	r3, #16
 8000b86:	d102      	bne.n	8000b8e <USART2_IRQHandler+0x1e>
  {
	  HAL_UART_RxCpltCallback(&huart2);
 8000b88:	4802      	ldr	r0, [pc, #8]	; (8000b94 <USART2_IRQHandler+0x24>)
 8000b8a:	f000 fb49 	bl	8001220 <HAL_UART_RxCpltCallback>
  }

  /* USER CODE END USART2_IRQn 1 */
}
 8000b8e:	bf00      	nop
 8000b90:	bd80      	pop	{r7, pc}
 8000b92:	bf00      	nop
 8000b94:	20013028 	.word	0x20013028

08000b98 <DMA2_Stream5_IRQHandler>:

/**
  * @brief This function handles DMA2 stream5 global interrupt.
  */
void DMA2_Stream5_IRQHandler(void)
{
 8000b98:	b580      	push	{r7, lr}
 8000b9a:	af00      	add	r7, sp, #0
  /* USER CODE BEGIN DMA2_Stream5_IRQn 0 */

  // if (__HAL_DMA_GET_IT_SOURCE(&hdma_tim1_up, DMA_IT_TC)) // not needed?
  // {
    // Timer1 stop
    __HAL_TIM_DISABLE(&htim1);
 8000b9c:	4b10      	ldr	r3, [pc, #64]	; (8000be0 <DMA2_Stream5_IRQHandler+0x48>)
 8000b9e:	681b      	ldr	r3, [r3, #0]
 8000ba0:	6a1a      	ldr	r2, [r3, #32]
 8000ba2:	f241 1311 	movw	r3, #4369	; 0x1111
 8000ba6:	4013      	ands	r3, r2
 8000ba8:	2b00      	cmp	r3, #0
 8000baa:	d10f      	bne.n	8000bcc <DMA2_Stream5_IRQHandler+0x34>
 8000bac:	4b0c      	ldr	r3, [pc, #48]	; (8000be0 <DMA2_Stream5_IRQHandler+0x48>)
 8000bae:	681b      	ldr	r3, [r3, #0]
 8000bb0:	6a1a      	ldr	r2, [r3, #32]
 8000bb2:	f240 4344 	movw	r3, #1092	; 0x444
 8000bb6:	4013      	ands	r3, r2
 8000bb8:	2b00      	cmp	r3, #0
 8000bba:	d107      	bne.n	8000bcc <DMA2_Stream5_IRQHandler+0x34>
 8000bbc:	4b08      	ldr	r3, [pc, #32]	; (8000be0 <DMA2_Stream5_IRQHandler+0x48>)
 8000bbe:	681b      	ldr	r3, [r3, #0]
 8000bc0:	681a      	ldr	r2, [r3, #0]
 8000bc2:	4b07      	ldr	r3, [pc, #28]	; (8000be0 <DMA2_Stream5_IRQHandler+0x48>)
 8000bc4:	681b      	ldr	r3, [r3, #0]
 8000bc6:	f022 0201 	bic.w	r2, r2, #1
 8000bca:	601a      	str	r2, [r3, #0]
    // DMA2 disable
    // __HAL_DMA_DISABLE(&hdma_tim1_up); // not needed?
    // switch on black
    GPIOE->BSRR = VGA_GPIO_HINIBBLE << 16u;
 8000bcc:	4b05      	ldr	r3, [pc, #20]	; (8000be4 <DMA2_Stream5_IRQHandler+0x4c>)
 8000bce:	f04f 427f 	mov.w	r2, #4278190080	; 0xff000000
 8000bd2:	619a      	str	r2, [r3, #24]
  // }

  /* USER CODE END DMA2_Stream5_IRQn 0 */
  HAL_DMA_IRQHandler(&hdma_tim1_up);
 8000bd4:	4804      	ldr	r0, [pc, #16]	; (8000be8 <DMA2_Stream5_IRQHandler+0x50>)
 8000bd6:	f000 ff25 	bl	8001a24 <HAL_DMA_IRQHandler>
  /* USER CODE BEGIN DMA2_Stream5_IRQn 1 */

  /* USER CODE END DMA2_Stream5_IRQn 1 */
}
 8000bda:	bf00      	nop
 8000bdc:	bd80      	pop	{r7, pc}
 8000bde:	bf00      	nop
 8000be0:	20012db8 	.word	0x20012db8
 8000be4:	40021000 	.word	0x40021000
 8000be8:	20012e00 	.word	0x20012e00

08000bec <_getpid>:
void initialise_monitor_handles()
{
}

int _getpid(void)
{
 8000bec:	b480      	push	{r7}
 8000bee:	af00      	add	r7, sp, #0
	return 1;
 8000bf0:	2301      	movs	r3, #1
}
 8000bf2:	4618      	mov	r0, r3
 8000bf4:	46bd      	mov	sp, r7
 8000bf6:	f85d 7b04 	ldr.w	r7, [sp], #4
 8000bfa:	4770      	bx	lr

08000bfc <_kill>:

int _kill(int pid, int sig)
{
 8000bfc:	b580      	push	{r7, lr}
 8000bfe:	b082      	sub	sp, #8
 8000c00:	af00      	add	r7, sp, #0
 8000c02:	6078      	str	r0, [r7, #4]
 8000c04:	6039      	str	r1, [r7, #0]
	errno = EINVAL;
 8000c06:	f004 f8e1 	bl	8004dcc <__errno>
 8000c0a:	4603      	mov	r3, r0
 8000c0c:	2216      	movs	r2, #22
 8000c0e:	601a      	str	r2, [r3, #0]
	return -1;
 8000c10:	f04f 33ff 	mov.w	r3, #4294967295
}
 8000c14:	4618      	mov	r0, r3
 8000c16:	3708      	adds	r7, #8
 8000c18:	46bd      	mov	sp, r7
 8000c1a:	bd80      	pop	{r7, pc}

08000c1c <_exit>:

void _exit (int status)
{
 8000c1c:	b580      	push	{r7, lr}
 8000c1e:	b082      	sub	sp, #8
 8000c20:	af00      	add	r7, sp, #0
 8000c22:	6078      	str	r0, [r7, #4]
	_kill(status, -1);
 8000c24:	f04f 31ff 	mov.w	r1, #4294967295
 8000c28:	6878      	ldr	r0, [r7, #4]
 8000c2a:	f7ff ffe7 	bl	8000bfc <_kill>
	while (1) {}		/* Make sure we hang here */
 8000c2e:	e7fe      	b.n	8000c2e <_exit+0x12>

08000c30 <_read>:
}

__attribute__((weak)) int _read(int file, char *ptr, int len)
{
 8000c30:	b580      	push	{r7, lr}
 8000c32:	b086      	sub	sp, #24
 8000c34:	af00      	add	r7, sp, #0
 8000c36:	60f8      	str	r0, [r7, #12]
 8000c38:	60b9      	str	r1, [r7, #8]
 8000c3a:	607a      	str	r2, [r7, #4]
	int DataIdx;

	for (DataIdx = 0; DataIdx < len; DataIdx++)
 8000c3c:	2300      	movs	r3, #0
 8000c3e:	617b      	str	r3, [r7, #20]
 8000c40:	e00a      	b.n	8000c58 <_read+0x28>
	{
		*ptr++ = __io_getchar();
 8000c42:	f3af 8000 	nop.w
 8000c46:	4601      	mov	r1, r0
 8000c48:	68bb      	ldr	r3, [r7, #8]
 8000c4a:	1c5a      	adds	r2, r3, #1
 8000c4c:	60ba      	str	r2, [r7, #8]
 8000c4e:	b2ca      	uxtb	r2, r1
 8000c50:	701a      	strb	r2, [r3, #0]
	for (DataIdx = 0; DataIdx < len; DataIdx++)
 8000c52:	697b      	ldr	r3, [r7, #20]
 8000c54:	3301      	adds	r3, #1
 8000c56:	617b      	str	r3, [r7, #20]
 8000c58:	697a      	ldr	r2, [r7, #20]
 8000c5a:	687b      	ldr	r3, [r7, #4]
 8000c5c:	429a      	cmp	r2, r3
 8000c5e:	dbf0      	blt.n	8000c42 <_read+0x12>
	}

return len;
 8000c60:	687b      	ldr	r3, [r7, #4]
}
 8000c62:	4618      	mov	r0, r3
 8000c64:	3718      	adds	r7, #24
 8000c66:	46bd      	mov	sp, r7
 8000c68:	bd80      	pop	{r7, pc}

08000c6a <_write>:

__attribute__((weak)) int _write(int file, char *ptr, int len)
{
 8000c6a:	b580      	push	{r7, lr}
 8000c6c:	b086      	sub	sp, #24
 8000c6e:	af00      	add	r7, sp, #0
 8000c70:	60f8      	str	r0, [r7, #12]
 8000c72:	60b9      	str	r1, [r7, #8]
 8000c74:	607a      	str	r2, [r7, #4]
	int DataIdx;

	for (DataIdx = 0; DataIdx < len; DataIdx++)
 8000c76:	2300      	movs	r3, #0
 8000c78:	617b      	str	r3, [r7, #20]
 8000c7a:	e009      	b.n	8000c90 <_write+0x26>
	{
		__io_putchar(*ptr++);
 8000c7c:	68bb      	ldr	r3, [r7, #8]
 8000c7e:	1c5a      	adds	r2, r3, #1
 8000c80:	60ba      	str	r2, [r7, #8]
 8000c82:	781b      	ldrb	r3, [r3, #0]
 8000c84:	4618      	mov	r0, r3
 8000c86:	f3af 8000 	nop.w
	for (DataIdx = 0; DataIdx < len; DataIdx++)
 8000c8a:	697b      	ldr	r3, [r7, #20]
 8000c8c:	3301      	adds	r3, #1
 8000c8e:	617b      	str	r3, [r7, #20]
 8000c90:	697a      	ldr	r2, [r7, #20]
 8000c92:	687b      	ldr	r3, [r7, #4]
 8000c94:	429a      	cmp	r2, r3
 8000c96:	dbf1      	blt.n	8000c7c <_write+0x12>
	}
	return len;
 8000c98:	687b      	ldr	r3, [r7, #4]
}
 8000c9a:	4618      	mov	r0, r3
 8000c9c:	3718      	adds	r7, #24
 8000c9e:	46bd      	mov	sp, r7
 8000ca0:	bd80      	pop	{r7, pc}

08000ca2 <_close>:

int _close(int file)
{
 8000ca2:	b480      	push	{r7}
 8000ca4:	b083      	sub	sp, #12
 8000ca6:	af00      	add	r7, sp, #0
 8000ca8:	6078      	str	r0, [r7, #4]
	return -1;
 8000caa:	f04f 33ff 	mov.w	r3, #4294967295
}
 8000cae:	4618      	mov	r0, r3
 8000cb0:	370c      	adds	r7, #12
 8000cb2:	46bd      	mov	sp, r7
 8000cb4:	f85d 7b04 	ldr.w	r7, [sp], #4
 8000cb8:	4770      	bx	lr

08000cba <_fstat>:


int _fstat(int file, struct stat *st)
{
 8000cba:	b480      	push	{r7}
 8000cbc:	b083      	sub	sp, #12
 8000cbe:	af00      	add	r7, sp, #0
 8000cc0:	6078      	str	r0, [r7, #4]
 8000cc2:	6039      	str	r1, [r7, #0]
	st->st_mode = S_IFCHR;
 8000cc4:	683b      	ldr	r3, [r7, #0]
 8000cc6:	f44f 5200 	mov.w	r2, #8192	; 0x2000
 8000cca:	605a      	str	r2, [r3, #4]
	return 0;
 8000ccc:	2300      	movs	r3, #0
}
 8000cce:	4618      	mov	r0, r3
 8000cd0:	370c      	adds	r7, #12
 8000cd2:	46bd      	mov	sp, r7
 8000cd4:	f85d 7b04 	ldr.w	r7, [sp], #4
 8000cd8:	4770      	bx	lr

08000cda <_isatty>:

int _isatty(int file)
{
 8000cda:	b480      	push	{r7}
 8000cdc:	b083      	sub	sp, #12
 8000cde:	af00      	add	r7, sp, #0
 8000ce0:	6078      	str	r0, [r7, #4]
	return 1;
 8000ce2:	2301      	movs	r3, #1
}
 8000ce4:	4618      	mov	r0, r3
 8000ce6:	370c      	adds	r7, #12
 8000ce8:	46bd      	mov	sp, r7
 8000cea:	f85d 7b04 	ldr.w	r7, [sp], #4
 8000cee:	4770      	bx	lr

08000cf0 <_lseek>:

int _lseek(int file, int ptr, int dir)
{
 8000cf0:	b480      	push	{r7}
 8000cf2:	b085      	sub	sp, #20
 8000cf4:	af00      	add	r7, sp, #0
 8000cf6:	60f8      	str	r0, [r7, #12]
 8000cf8:	60b9      	str	r1, [r7, #8]
 8000cfa:	607a      	str	r2, [r7, #4]
	return 0;
 8000cfc:	2300      	movs	r3, #0
}
 8000cfe:	4618      	mov	r0, r3
 8000d00:	3714      	adds	r7, #20
 8000d02:	46bd      	mov	sp, r7
 8000d04:	f85d 7b04 	ldr.w	r7, [sp], #4
 8000d08:	4770      	bx	lr
	...

08000d0c <_sbrk>:
/**
 _sbrk
 Increase program data space. Malloc and related functions depend on this
**/
caddr_t _sbrk(int incr)
{
 8000d0c:	b580      	push	{r7, lr}
 8000d0e:	b084      	sub	sp, #16
 8000d10:	af00      	add	r7, sp, #0
 8000d12:	6078      	str	r0, [r7, #4]
	extern char end asm("end");
	static char *heap_end;
	char *prev_heap_end;

	if (heap_end == 0)
 8000d14:	4b11      	ldr	r3, [pc, #68]	; (8000d5c <_sbrk+0x50>)
 8000d16:	681b      	ldr	r3, [r3, #0]
 8000d18:	2b00      	cmp	r3, #0
 8000d1a:	d102      	bne.n	8000d22 <_sbrk+0x16>
		heap_end = &end;
 8000d1c:	4b0f      	ldr	r3, [pc, #60]	; (8000d5c <_sbrk+0x50>)
 8000d1e:	4a10      	ldr	r2, [pc, #64]	; (8000d60 <_sbrk+0x54>)
 8000d20:	601a      	str	r2, [r3, #0]

	prev_heap_end = heap_end;
 8000d22:	4b0e      	ldr	r3, [pc, #56]	; (8000d5c <_sbrk+0x50>)
 8000d24:	681b      	ldr	r3, [r3, #0]
 8000d26:	60fb      	str	r3, [r7, #12]
	if (heap_end + incr > stack_ptr)
 8000d28:	4b0c      	ldr	r3, [pc, #48]	; (8000d5c <_sbrk+0x50>)
 8000d2a:	681a      	ldr	r2, [r3, #0]
 8000d2c:	687b      	ldr	r3, [r7, #4]
 8000d2e:	4413      	add	r3, r2
 8000d30:	466a      	mov	r2, sp
 8000d32:	4293      	cmp	r3, r2
 8000d34:	d907      	bls.n	8000d46 <_sbrk+0x3a>
	{
		errno = ENOMEM;
 8000d36:	f004 f849 	bl	8004dcc <__errno>
 8000d3a:	4603      	mov	r3, r0
 8000d3c:	220c      	movs	r2, #12
 8000d3e:	601a      	str	r2, [r3, #0]
		return (caddr_t) -1;
 8000d40:	f04f 33ff 	mov.w	r3, #4294967295
 8000d44:	e006      	b.n	8000d54 <_sbrk+0x48>
	}

	heap_end += incr;
 8000d46:	4b05      	ldr	r3, [pc, #20]	; (8000d5c <_sbrk+0x50>)
 8000d48:	681a      	ldr	r2, [r3, #0]
 8000d4a:	687b      	ldr	r3, [r7, #4]
 8000d4c:	4413      	add	r3, r2
 8000d4e:	4a03      	ldr	r2, [pc, #12]	; (8000d5c <_sbrk+0x50>)
 8000d50:	6013      	str	r3, [r2, #0]

	return (caddr_t) prev_heap_end;
 8000d52:	68fb      	ldr	r3, [r7, #12]
}
 8000d54:	4618      	mov	r0, r3
 8000d56:	3710      	adds	r7, #16
 8000d58:	46bd      	mov	sp, r7
 8000d5a:	bd80      	pop	{r7, pc}
 8000d5c:	200000ac 	.word	0x200000ac
 8000d60:	20013080 	.word	0x20013080

08000d64 <SystemInit>:
  *         configuration.
  * @param  None
  * @retval None
  */
void SystemInit(void)
{
 8000d64:	b480      	push	{r7}
 8000d66:	af00      	add	r7, sp, #0
  /* FPU settings ------------------------------------------------------------*/
  #if (__FPU_PRESENT == 1) && (__FPU_USED == 1)
    SCB->CPACR |= ((3UL << 10*2)|(3UL << 11*2));  /* set CP10 and CP11 Full Access */
 8000d68:	4b08      	ldr	r3, [pc, #32]	; (8000d8c <SystemInit+0x28>)
 8000d6a:	f8d3 3088 	ldr.w	r3, [r3, #136]	; 0x88
 8000d6e:	4a07      	ldr	r2, [pc, #28]	; (8000d8c <SystemInit+0x28>)
 8000d70:	f443 0370 	orr.w	r3, r3, #15728640	; 0xf00000
 8000d74:	f8c2 3088 	str.w	r3, [r2, #136]	; 0x88

  /* Configure the Vector Table location add offset address ------------------*/
#ifdef VECT_TAB_SRAM
  SCB->VTOR = SRAM_BASE | VECT_TAB_OFFSET; /* Vector Table Relocation in Internal SRAM */
#else
  SCB->VTOR = FLASH_BASE | VECT_TAB_OFFSET; /* Vector Table Relocation in Internal FLASH */
 8000d78:	4b04      	ldr	r3, [pc, #16]	; (8000d8c <SystemInit+0x28>)
 8000d7a:	f04f 6200 	mov.w	r2, #134217728	; 0x8000000
 8000d7e:	609a      	str	r2, [r3, #8]
#endif
}
 8000d80:	bf00      	nop
 8000d82:	46bd      	mov	sp, r7
 8000d84:	f85d 7b04 	ldr.w	r7, [sp], #4
 8000d88:	4770      	bx	lr
 8000d8a:	bf00      	nop
 8000d8c:	e000ed00 	.word	0xe000ed00

08000d90 <MX_TIM1_Init>:
TIM_HandleTypeDef htim2;
DMA_HandleTypeDef hdma_tim1_up;

/* TIM1 init function */
void MX_TIM1_Init(void)
{
 8000d90:	b580      	push	{r7, lr}
 8000d92:	b086      	sub	sp, #24
 8000d94:	af00      	add	r7, sp, #0

  /* USER CODE BEGIN TIM1_Init 0 */

  /* USER CODE END TIM1_Init 0 */

  TIM_ClockConfigTypeDef sClockSourceConfig = {0};
 8000d96:	f107 0308 	add.w	r3, r7, #8
 8000d9a:	2200      	movs	r2, #0
 8000d9c:	601a      	str	r2, [r3, #0]
 8000d9e:	605a      	str	r2, [r3, #4]
 8000da0:	609a      	str	r2, [r3, #8]
 8000da2:	60da      	str	r2, [r3, #12]
  TIM_MasterConfigTypeDef sMasterConfig = {0};
 8000da4:	463b      	mov	r3, r7
 8000da6:	2200      	movs	r2, #0
 8000da8:	601a      	str	r2, [r3, #0]
 8000daa:	605a      	str	r2, [r3, #4]

  /* USER CODE BEGIN TIM1_Init 1 */

  /* USER CODE END TIM1_Init 1 */
  htim1.Instance = TIM1;
 8000dac:	4b1e      	ldr	r3, [pc, #120]	; (8000e28 <MX_TIM1_Init+0x98>)
 8000dae:	4a1f      	ldr	r2, [pc, #124]	; (8000e2c <MX_TIM1_Init+0x9c>)
 8000db0:	601a      	str	r2, [r3, #0]
  htim1.Init.Prescaler = VGA_TIM1_PRESCALE;
 8000db2:	4b1d      	ldr	r3, [pc, #116]	; (8000e28 <MX_TIM1_Init+0x98>)
 8000db4:	2200      	movs	r2, #0
 8000db6:	605a      	str	r2, [r3, #4]
  htim1.Init.CounterMode = TIM_COUNTERMODE_UP;
 8000db8:	4b1b      	ldr	r3, [pc, #108]	; (8000e28 <MX_TIM1_Init+0x98>)
 8000dba:	2200      	movs	r2, #0
 8000dbc:	609a      	str	r2, [r3, #8]
  htim1.Init.Period = VGA_TIM1_PERIODE;
 8000dbe:	4b1a      	ldr	r3, [pc, #104]	; (8000e28 <MX_TIM1_Init+0x98>)
 8000dc0:	220b      	movs	r2, #11
 8000dc2:	60da      	str	r2, [r3, #12]
  htim1.Init.ClockDivision = TIM_CLOCKDIVISION_DIV1;
 8000dc4:	4b18      	ldr	r3, [pc, #96]	; (8000e28 <MX_TIM1_Init+0x98>)
 8000dc6:	2200      	movs	r2, #0
 8000dc8:	611a      	str	r2, [r3, #16]
  htim1.Init.RepetitionCounter = 0;
 8000dca:	4b17      	ldr	r3, [pc, #92]	; (8000e28 <MX_TIM1_Init+0x98>)
 8000dcc:	2200      	movs	r2, #0
 8000dce:	615a      	str	r2, [r3, #20]
  htim1.Init.AutoReloadPreload = TIM_AUTORELOAD_PRELOAD_DISABLE;
 8000dd0:	4b15      	ldr	r3, [pc, #84]	; (8000e28 <MX_TIM1_Init+0x98>)
 8000dd2:	2200      	movs	r2, #0
 8000dd4:	619a      	str	r2, [r3, #24]
  if (HAL_TIM_Base_Init(&htim1) != HAL_OK)
 8000dd6:	4814      	ldr	r0, [pc, #80]	; (8000e28 <MX_TIM1_Init+0x98>)
 8000dd8:	f001 feb8 	bl	8002b4c <HAL_TIM_Base_Init>
 8000ddc:	4603      	mov	r3, r0
 8000dde:	2b00      	cmp	r3, #0
 8000de0:	d001      	beq.n	8000de6 <MX_TIM1_Init+0x56>
  {
    Error_Handler();
 8000de2:	f7ff fd53 	bl	800088c <Error_Handler>
  }
  sClockSourceConfig.ClockSource = TIM_CLOCKSOURCE_INTERNAL;
 8000de6:	f44f 5380 	mov.w	r3, #4096	; 0x1000
 8000dea:	60bb      	str	r3, [r7, #8]
  if (HAL_TIM_ConfigClockSource(&htim1, &sClockSourceConfig) != HAL_OK)
 8000dec:	f107 0308 	add.w	r3, r7, #8
 8000df0:	4619      	mov	r1, r3
 8000df2:	480d      	ldr	r0, [pc, #52]	; (8000e28 <MX_TIM1_Init+0x98>)
 8000df4:	f002 fb4e 	bl	8003494 <HAL_TIM_ConfigClockSource>
 8000df8:	4603      	mov	r3, r0
 8000dfa:	2b00      	cmp	r3, #0
 8000dfc:	d001      	beq.n	8000e02 <MX_TIM1_Init+0x72>
  {
    Error_Handler();
 8000dfe:	f7ff fd45 	bl	800088c <Error_Handler>
  }
  sMasterConfig.MasterOutputTrigger = TIM_TRGO_RESET;
 8000e02:	2300      	movs	r3, #0
 8000e04:	603b      	str	r3, [r7, #0]
  sMasterConfig.MasterSlaveMode = TIM_MASTERSLAVEMODE_DISABLE;
 8000e06:	2300      	movs	r3, #0
 8000e08:	607b      	str	r3, [r7, #4]
  if (HAL_TIMEx_MasterConfigSynchronization(&htim1, &sMasterConfig) != HAL_OK)
 8000e0a:	463b      	mov	r3, r7
 8000e0c:	4619      	mov	r1, r3
 8000e0e:	4806      	ldr	r0, [pc, #24]	; (8000e28 <MX_TIM1_Init+0x98>)
 8000e10:	f002 ff46 	bl	8003ca0 <HAL_TIMEx_MasterConfigSynchronization>
 8000e14:	4603      	mov	r3, r0
 8000e16:	2b00      	cmp	r3, #0
 8000e18:	d001      	beq.n	8000e1e <MX_TIM1_Init+0x8e>
  {
    Error_Handler();
 8000e1a:	f7ff fd37 	bl	800088c <Error_Handler>
  }
  /* USER CODE BEGIN TIM1_Init 2 */

  /* USER CODE END TIM1_Init 2 */

}
 8000e1e:	bf00      	nop
 8000e20:	3718      	adds	r7, #24
 8000e22:	46bd      	mov	sp, r7
 8000e24:	bd80      	pop	{r7, pc}
 8000e26:	bf00      	nop
 8000e28:	20012db8 	.word	0x20012db8
 8000e2c:	40010000 	.word	0x40010000

08000e30 <MX_TIM2_Init>:
/* TIM2 init function */
void MX_TIM2_Init(void)
{
 8000e30:	b580      	push	{r7, lr}
 8000e32:	b08a      	sub	sp, #40	; 0x28
 8000e34:	af00      	add	r7, sp, #0

  /* USER CODE BEGIN TIM2_Init 0 */

  /* USER CODE END TIM2_Init 0 */

  TIM_MasterConfigTypeDef sMasterConfig = {0};
 8000e36:	f107 0320 	add.w	r3, r7, #32
 8000e3a:	2200      	movs	r2, #0
 8000e3c:	601a      	str	r2, [r3, #0]
 8000e3e:	605a      	str	r2, [r3, #4]
  TIM_OC_InitTypeDef sConfigOC = {0};
 8000e40:	1d3b      	adds	r3, r7, #4
 8000e42:	2200      	movs	r2, #0
 8000e44:	601a      	str	r2, [r3, #0]
 8000e46:	605a      	str	r2, [r3, #4]
 8000e48:	609a      	str	r2, [r3, #8]
 8000e4a:	60da      	str	r2, [r3, #12]
 8000e4c:	611a      	str	r2, [r3, #16]
 8000e4e:	615a      	str	r2, [r3, #20]
 8000e50:	619a      	str	r2, [r3, #24]

  /* USER CODE BEGIN TIM2_Init 1 */

  /* USER CODE END TIM2_Init 1 */
  htim2.Instance = TIM2;
 8000e52:	4b2a      	ldr	r3, [pc, #168]	; (8000efc <MX_TIM2_Init+0xcc>)
 8000e54:	f04f 4280 	mov.w	r2, #1073741824	; 0x40000000
 8000e58:	601a      	str	r2, [r3, #0]
  htim2.Init.Prescaler = VGA_TIM2_HSYNC_PRESCALE;
 8000e5a:	4b28      	ldr	r3, [pc, #160]	; (8000efc <MX_TIM2_Init+0xcc>)
 8000e5c:	2200      	movs	r2, #0
 8000e5e:	605a      	str	r2, [r3, #4]
  htim2.Init.CounterMode = TIM_COUNTERMODE_UP;
 8000e60:	4b26      	ldr	r3, [pc, #152]	; (8000efc <MX_TIM2_Init+0xcc>)
 8000e62:	2200      	movs	r2, #0
 8000e64:	609a      	str	r2, [r3, #8]
  htim2.Init.Period = VGA_TIM2_HSYNC_PERIODE;
 8000e66:	4b25      	ldr	r3, [pc, #148]	; (8000efc <MX_TIM2_Init+0xcc>)
 8000e68:	f640 226b 	movw	r2, #2667	; 0xa6b
 8000e6c:	60da      	str	r2, [r3, #12]
  htim2.Init.ClockDivision = TIM_CLOCKDIVISION_DIV1;
 8000e6e:	4b23      	ldr	r3, [pc, #140]	; (8000efc <MX_TIM2_Init+0xcc>)
 8000e70:	2200      	movs	r2, #0
 8000e72:	611a      	str	r2, [r3, #16]
  htim2.Init.AutoReloadPreload = TIM_AUTORELOAD_PRELOAD_DISABLE;
 8000e74:	4b21      	ldr	r3, [pc, #132]	; (8000efc <MX_TIM2_Init+0xcc>)
 8000e76:	2200      	movs	r2, #0
 8000e78:	619a      	str	r2, [r3, #24]
  if (HAL_TIM_PWM_Init(&htim2) != HAL_OK)
 8000e7a:	4820      	ldr	r0, [pc, #128]	; (8000efc <MX_TIM2_Init+0xcc>)
 8000e7c:	f001 ff1e 	bl	8002cbc <HAL_TIM_PWM_Init>
 8000e80:	4603      	mov	r3, r0
 8000e82:	2b00      	cmp	r3, #0
 8000e84:	d001      	beq.n	8000e8a <MX_TIM2_Init+0x5a>
  {
    Error_Handler();
 8000e86:	f7ff fd01 	bl	800088c <Error_Handler>
  }
  sMasterConfig.MasterOutputTrigger = TIM_TRGO_RESET;
 8000e8a:	2300      	movs	r3, #0
 8000e8c:	623b      	str	r3, [r7, #32]
  sMasterConfig.MasterSlaveMode = TIM_MASTERSLAVEMODE_DISABLE;
 8000e8e:	2300      	movs	r3, #0
 8000e90:	627b      	str	r3, [r7, #36]	; 0x24
  if (HAL_TIMEx_MasterConfigSynchronization(&htim2, &sMasterConfig) != HAL_OK)
 8000e92:	f107 0320 	add.w	r3, r7, #32
 8000e96:	4619      	mov	r1, r3
 8000e98:	4818      	ldr	r0, [pc, #96]	; (8000efc <MX_TIM2_Init+0xcc>)
 8000e9a:	f002 ff01 	bl	8003ca0 <HAL_TIMEx_MasterConfigSynchronization>
 8000e9e:	4603      	mov	r3, r0
 8000ea0:	2b00      	cmp	r3, #0
 8000ea2:	d001      	beq.n	8000ea8 <MX_TIM2_Init+0x78>
  {
    Error_Handler();
 8000ea4:	f7ff fcf2 	bl	800088c <Error_Handler>
  }
  sConfigOC.OCMode = TIM_OCMODE_PWM1;
 8000ea8:	2360      	movs	r3, #96	; 0x60
 8000eaa:	607b      	str	r3, [r7, #4]
  sConfigOC.Pulse = VGA_TIM2_HTRIGGER_START - VGA_TIM2_DMA_DELAY;
 8000eac:	f240 13bb 	movw	r3, #443	; 0x1bb
 8000eb0:	60bb      	str	r3, [r7, #8]
  sConfigOC.OCPolarity = TIM_OCPOLARITY_LOW;
 8000eb2:	2302      	movs	r3, #2
 8000eb4:	60fb      	str	r3, [r7, #12]
  sConfigOC.OCFastMode = TIM_OCFAST_DISABLE;
 8000eb6:	2300      	movs	r3, #0
 8000eb8:	617b      	str	r3, [r7, #20]
  if (HAL_TIM_PWM_ConfigChannel(&htim2, &sConfigOC, TIM_CHANNEL_3) != HAL_OK)
 8000eba:	1d3b      	adds	r3, r7, #4
 8000ebc:	2208      	movs	r2, #8
 8000ebe:	4619      	mov	r1, r3
 8000ec0:	480e      	ldr	r0, [pc, #56]	; (8000efc <MX_TIM2_Init+0xcc>)
 8000ec2:	f002 fa29 	bl	8003318 <HAL_TIM_PWM_ConfigChannel>
 8000ec6:	4603      	mov	r3, r0
 8000ec8:	2b00      	cmp	r3, #0
 8000eca:	d001      	beq.n	8000ed0 <MX_TIM2_Init+0xa0>
  {
    Error_Handler();
 8000ecc:	f7ff fcde 	bl	800088c <Error_Handler>
  }
  sConfigOC.Pulse = VGA_TIM2_HSYNC_IMP;
 8000ed0:	f44f 73a0 	mov.w	r3, #320	; 0x140
 8000ed4:	60bb      	str	r3, [r7, #8]
  if (HAL_TIM_PWM_ConfigChannel(&htim2, &sConfigOC, TIM_CHANNEL_4) != HAL_OK)
 8000ed6:	1d3b      	adds	r3, r7, #4
 8000ed8:	220c      	movs	r2, #12
 8000eda:	4619      	mov	r1, r3
 8000edc:	4807      	ldr	r0, [pc, #28]	; (8000efc <MX_TIM2_Init+0xcc>)
 8000ede:	f002 fa1b 	bl	8003318 <HAL_TIM_PWM_ConfigChannel>
 8000ee2:	4603      	mov	r3, r0
 8000ee4:	2b00      	cmp	r3, #0
 8000ee6:	d001      	beq.n	8000eec <MX_TIM2_Init+0xbc>
  {
    Error_Handler();
 8000ee8:	f7ff fcd0 	bl	800088c <Error_Handler>
  }
  /* USER CODE BEGIN TIM2_Init 2 */

  /* USER CODE END TIM2_Init 2 */
  HAL_TIM_MspPostInit(&htim2);
 8000eec:	4803      	ldr	r0, [pc, #12]	; (8000efc <MX_TIM2_Init+0xcc>)
 8000eee:	f000 f87f 	bl	8000ff0 <HAL_TIM_MspPostInit>

}
 8000ef2:	bf00      	nop
 8000ef4:	3728      	adds	r7, #40	; 0x28
 8000ef6:	46bd      	mov	sp, r7
 8000ef8:	bd80      	pop	{r7, pc}
 8000efa:	bf00      	nop
 8000efc:	20012e60 	.word	0x20012e60

08000f00 <HAL_TIM_Base_MspInit>:

void HAL_TIM_Base_MspInit(TIM_HandleTypeDef* tim_baseHandle)
{
 8000f00:	b580      	push	{r7, lr}
 8000f02:	b084      	sub	sp, #16
 8000f04:	af00      	add	r7, sp, #0
 8000f06:	6078      	str	r0, [r7, #4]

  if(tim_baseHandle->Instance==TIM1)
 8000f08:	687b      	ldr	r3, [r7, #4]
 8000f0a:	681b      	ldr	r3, [r3, #0]
 8000f0c:	4a21      	ldr	r2, [pc, #132]	; (8000f94 <HAL_TIM_Base_MspInit+0x94>)
 8000f0e:	4293      	cmp	r3, r2
 8000f10:	d13c      	bne.n	8000f8c <HAL_TIM_Base_MspInit+0x8c>
  {
  /* USER CODE BEGIN TIM1_MspInit 0 */

  /* USER CODE END TIM1_MspInit 0 */
    /* TIM1 clock enable */
    __HAL_RCC_TIM1_CLK_ENABLE();
 8000f12:	2300      	movs	r3, #0
 8000f14:	60fb      	str	r3, [r7, #12]
 8000f16:	4b20      	ldr	r3, [pc, #128]	; (8000f98 <HAL_TIM_Base_MspInit+0x98>)
 8000f18:	6c5b      	ldr	r3, [r3, #68]	; 0x44
 8000f1a:	4a1f      	ldr	r2, [pc, #124]	; (8000f98 <HAL_TIM_Base_MspInit+0x98>)
 8000f1c:	f043 0301 	orr.w	r3, r3, #1
 8000f20:	6453      	str	r3, [r2, #68]	; 0x44
 8000f22:	4b1d      	ldr	r3, [pc, #116]	; (8000f98 <HAL_TIM_Base_MspInit+0x98>)
 8000f24:	6c5b      	ldr	r3, [r3, #68]	; 0x44
 8000f26:	f003 0301 	and.w	r3, r3, #1
 8000f2a:	60fb      	str	r3, [r7, #12]
 8000f2c:	68fb      	ldr	r3, [r7, #12]

    /* TIM1 DMA Init */
    /* TIM1_UP Init */
    hdma_tim1_up.Instance = DMA2_Stream5;
 8000f2e:	4b1b      	ldr	r3, [pc, #108]	; (8000f9c <HAL_TIM_Base_MspInit+0x9c>)
 8000f30:	4a1b      	ldr	r2, [pc, #108]	; (8000fa0 <HAL_TIM_Base_MspInit+0xa0>)
 8000f32:	601a      	str	r2, [r3, #0]
    hdma_tim1_up.Init.Channel = DMA_CHANNEL_6;
 8000f34:	4b19      	ldr	r3, [pc, #100]	; (8000f9c <HAL_TIM_Base_MspInit+0x9c>)
 8000f36:	f04f 6240 	mov.w	r2, #201326592	; 0xc000000
 8000f3a:	605a      	str	r2, [r3, #4]
    hdma_tim1_up.Init.Direction = DMA_MEMORY_TO_PERIPH;
 8000f3c:	4b17      	ldr	r3, [pc, #92]	; (8000f9c <HAL_TIM_Base_MspInit+0x9c>)
 8000f3e:	2240      	movs	r2, #64	; 0x40
 8000f40:	609a      	str	r2, [r3, #8]
    hdma_tim1_up.Init.PeriphInc = DMA_PINC_DISABLE;
 8000f42:	4b16      	ldr	r3, [pc, #88]	; (8000f9c <HAL_TIM_Base_MspInit+0x9c>)
 8000f44:	2200      	movs	r2, #0
 8000f46:	60da      	str	r2, [r3, #12]
    hdma_tim1_up.Init.MemInc = DMA_MINC_ENABLE;
 8000f48:	4b14      	ldr	r3, [pc, #80]	; (8000f9c <HAL_TIM_Base_MspInit+0x9c>)
 8000f4a:	f44f 6280 	mov.w	r2, #1024	; 0x400
 8000f4e:	611a      	str	r2, [r3, #16]
    hdma_tim1_up.Init.PeriphDataAlignment = DMA_PDATAALIGN_BYTE;
 8000f50:	4b12      	ldr	r3, [pc, #72]	; (8000f9c <HAL_TIM_Base_MspInit+0x9c>)
 8000f52:	2200      	movs	r2, #0
 8000f54:	615a      	str	r2, [r3, #20]
    hdma_tim1_up.Init.MemDataAlignment = DMA_MDATAALIGN_BYTE;
 8000f56:	4b11      	ldr	r3, [pc, #68]	; (8000f9c <HAL_TIM_Base_MspInit+0x9c>)
 8000f58:	2200      	movs	r2, #0
 8000f5a:	619a      	str	r2, [r3, #24]
    hdma_tim1_up.Init.Mode = DMA_NORMAL;
 8000f5c:	4b0f      	ldr	r3, [pc, #60]	; (8000f9c <HAL_TIM_Base_MspInit+0x9c>)
 8000f5e:	2200      	movs	r2, #0
 8000f60:	61da      	str	r2, [r3, #28]
    hdma_tim1_up.Init.Priority = DMA_PRIORITY_VERY_HIGH;
 8000f62:	4b0e      	ldr	r3, [pc, #56]	; (8000f9c <HAL_TIM_Base_MspInit+0x9c>)
 8000f64:	f44f 3240 	mov.w	r2, #196608	; 0x30000
 8000f68:	621a      	str	r2, [r3, #32]
    hdma_tim1_up.Init.FIFOMode = DMA_FIFOMODE_DISABLE;
 8000f6a:	4b0c      	ldr	r3, [pc, #48]	; (8000f9c <HAL_TIM_Base_MspInit+0x9c>)
 8000f6c:	2200      	movs	r2, #0
 8000f6e:	625a      	str	r2, [r3, #36]	; 0x24
    if (HAL_DMA_Init(&hdma_tim1_up) != HAL_OK)
 8000f70:	480a      	ldr	r0, [pc, #40]	; (8000f9c <HAL_TIM_Base_MspInit+0x9c>)
 8000f72:	f000 fbbf 	bl	80016f4 <HAL_DMA_Init>
 8000f76:	4603      	mov	r3, r0
 8000f78:	2b00      	cmp	r3, #0
 8000f7a:	d001      	beq.n	8000f80 <HAL_TIM_Base_MspInit+0x80>
    {
      Error_Handler();
 8000f7c:	f7ff fc86 	bl	800088c <Error_Handler>
    }

    __HAL_LINKDMA(tim_baseHandle,hdma[TIM_DMA_ID_UPDATE],hdma_tim1_up);
 8000f80:	687b      	ldr	r3, [r7, #4]
 8000f82:	4a06      	ldr	r2, [pc, #24]	; (8000f9c <HAL_TIM_Base_MspInit+0x9c>)
 8000f84:	621a      	str	r2, [r3, #32]
 8000f86:	4a05      	ldr	r2, [pc, #20]	; (8000f9c <HAL_TIM_Base_MspInit+0x9c>)
 8000f88:	687b      	ldr	r3, [r7, #4]
 8000f8a:	6393      	str	r3, [r2, #56]	; 0x38

  /* USER CODE BEGIN TIM1_MspInit 1 */

  /* USER CODE END TIM1_MspInit 1 */
  }
}
 8000f8c:	bf00      	nop
 8000f8e:	3710      	adds	r7, #16
 8000f90:	46bd      	mov	sp, r7
 8000f92:	bd80      	pop	{r7, pc}
 8000f94:	40010000 	.word	0x40010000
 8000f98:	40023800 	.word	0x40023800
 8000f9c:	20012e00 	.word	0x20012e00
 8000fa0:	40026488 	.word	0x40026488

08000fa4 <HAL_TIM_PWM_MspInit>:

void HAL_TIM_PWM_MspInit(TIM_HandleTypeDef* tim_pwmHandle)
{
 8000fa4:	b580      	push	{r7, lr}
 8000fa6:	b084      	sub	sp, #16
 8000fa8:	af00      	add	r7, sp, #0
 8000faa:	6078      	str	r0, [r7, #4]

  if(tim_pwmHandle->Instance==TIM2)
 8000fac:	687b      	ldr	r3, [r7, #4]
 8000fae:	681b      	ldr	r3, [r3, #0]
 8000fb0:	f1b3 4f80 	cmp.w	r3, #1073741824	; 0x40000000
 8000fb4:	d115      	bne.n	8000fe2 <HAL_TIM_PWM_MspInit+0x3e>
  {
  /* USER CODE BEGIN TIM2_MspInit 0 */

  /* USER CODE END TIM2_MspInit 0 */
    /* TIM2 clock enable */
    __HAL_RCC_TIM2_CLK_ENABLE();
 8000fb6:	2300      	movs	r3, #0
 8000fb8:	60fb      	str	r3, [r7, #12]
 8000fba:	4b0c      	ldr	r3, [pc, #48]	; (8000fec <HAL_TIM_PWM_MspInit+0x48>)
 8000fbc:	6c1b      	ldr	r3, [r3, #64]	; 0x40
 8000fbe:	4a0b      	ldr	r2, [pc, #44]	; (8000fec <HAL_TIM_PWM_MspInit+0x48>)
 8000fc0:	f043 0301 	orr.w	r3, r3, #1
 8000fc4:	6413      	str	r3, [r2, #64]	; 0x40
 8000fc6:	4b09      	ldr	r3, [pc, #36]	; (8000fec <HAL_TIM_PWM_MspInit+0x48>)
 8000fc8:	6c1b      	ldr	r3, [r3, #64]	; 0x40
 8000fca:	f003 0301 	and.w	r3, r3, #1
 8000fce:	60fb      	str	r3, [r7, #12]
 8000fd0:	68fb      	ldr	r3, [r7, #12]

    /* TIM2 interrupt Init */
    HAL_NVIC_SetPriority(TIM2_IRQn, 0, 0);
 8000fd2:	2200      	movs	r2, #0
 8000fd4:	2100      	movs	r1, #0
 8000fd6:	201c      	movs	r0, #28
 8000fd8:	f000 fb55 	bl	8001686 <HAL_NVIC_SetPriority>
    HAL_NVIC_EnableIRQ(TIM2_IRQn);
 8000fdc:	201c      	movs	r0, #28
 8000fde:	f000 fb6e 	bl	80016be <HAL_NVIC_EnableIRQ>
  /* USER CODE BEGIN TIM2_MspInit 1 */

  /* USER CODE END TIM2_MspInit 1 */
  }
}
 8000fe2:	bf00      	nop
 8000fe4:	3710      	adds	r7, #16
 8000fe6:	46bd      	mov	sp, r7
 8000fe8:	bd80      	pop	{r7, pc}
 8000fea:	bf00      	nop
 8000fec:	40023800 	.word	0x40023800

08000ff0 <HAL_TIM_MspPostInit>:
void HAL_TIM_MspPostInit(TIM_HandleTypeDef* timHandle)
{
 8000ff0:	b580      	push	{r7, lr}
 8000ff2:	b088      	sub	sp, #32
 8000ff4:	af00      	add	r7, sp, #0
 8000ff6:	6078      	str	r0, [r7, #4]

  GPIO_InitTypeDef GPIO_InitStruct = {0};
 8000ff8:	f107 030c 	add.w	r3, r7, #12
 8000ffc:	2200      	movs	r2, #0
 8000ffe:	601a      	str	r2, [r3, #0]
 8001000:	605a      	str	r2, [r3, #4]
 8001002:	609a      	str	r2, [r3, #8]
 8001004:	60da      	str	r2, [r3, #12]
 8001006:	611a      	str	r2, [r3, #16]
  if(timHandle->Instance==TIM2)
 8001008:	687b      	ldr	r3, [r7, #4]
 800100a:	681b      	ldr	r3, [r3, #0]
 800100c:	f1b3 4f80 	cmp.w	r3, #1073741824	; 0x40000000
 8001010:	d11e      	bne.n	8001050 <HAL_TIM_MspPostInit+0x60>
  {
  /* USER CODE BEGIN TIM2_MspPostInit 0 */

  /* USER CODE END TIM2_MspPostInit 0 */

    __HAL_RCC_GPIOB_CLK_ENABLE();
 8001012:	2300      	movs	r3, #0
 8001014:	60bb      	str	r3, [r7, #8]
 8001016:	4b10      	ldr	r3, [pc, #64]	; (8001058 <HAL_TIM_MspPostInit+0x68>)
 8001018:	6b1b      	ldr	r3, [r3, #48]	; 0x30
 800101a:	4a0f      	ldr	r2, [pc, #60]	; (8001058 <HAL_TIM_MspPostInit+0x68>)
 800101c:	f043 0302 	orr.w	r3, r3, #2
 8001020:	6313      	str	r3, [r2, #48]	; 0x30
 8001022:	4b0d      	ldr	r3, [pc, #52]	; (8001058 <HAL_TIM_MspPostInit+0x68>)
 8001024:	6b1b      	ldr	r3, [r3, #48]	; 0x30
 8001026:	f003 0302 	and.w	r3, r3, #2
 800102a:	60bb      	str	r3, [r7, #8]
 800102c:	68bb      	ldr	r3, [r7, #8]
    /**TIM2 GPIO Configuration
    PB11     ------> TIM2_CH4
    */
    GPIO_InitStruct.Pin = VGA_HSYNC_Pin;
 800102e:	f44f 6300 	mov.w	r3, #2048	; 0x800
 8001032:	60fb      	str	r3, [r7, #12]
    GPIO_InitStruct.Mode = GPIO_MODE_AF_PP;
 8001034:	2302      	movs	r3, #2
 8001036:	613b      	str	r3, [r7, #16]
    GPIO_InitStruct.Pull = GPIO_NOPULL;
 8001038:	2300      	movs	r3, #0
 800103a:	617b      	str	r3, [r7, #20]
    GPIO_InitStruct.Speed = GPIO_SPEED_FREQ_VERY_HIGH;
 800103c:	2303      	movs	r3, #3
 800103e:	61bb      	str	r3, [r7, #24]
    GPIO_InitStruct.Alternate = GPIO_AF1_TIM2;
 8001040:	2301      	movs	r3, #1
 8001042:	61fb      	str	r3, [r7, #28]
    HAL_GPIO_Init(VGA_HSYNC_GPIO_Port, &GPIO_InitStruct);
 8001044:	f107 030c 	add.w	r3, r7, #12
 8001048:	4619      	mov	r1, r3
 800104a:	4804      	ldr	r0, [pc, #16]	; (800105c <HAL_TIM_MspPostInit+0x6c>)
 800104c:	f000 ff54 	bl	8001ef8 <HAL_GPIO_Init>
  /* USER CODE BEGIN TIM2_MspPostInit 1 */

  /* USER CODE END TIM2_MspPostInit 1 */
  }

}
 8001050:	bf00      	nop
 8001052:	3720      	adds	r7, #32
 8001054:	46bd      	mov	sp, r7
 8001056:	bd80      	pop	{r7, pc}
 8001058:	40023800 	.word	0x40023800
 800105c:	40020400 	.word	0x40020400

08001060 <MX_USART2_UART_Init>:
DMA_HandleTypeDef hdma_usart2_tx;

/* USART2 init function */

void MX_USART2_UART_Init(void)
{
 8001060:	b580      	push	{r7, lr}
 8001062:	af00      	add	r7, sp, #0
  /* USER CODE END USART2_Init 0 */

  /* USER CODE BEGIN USART2_Init 1 */

  /* USER CODE END USART2_Init 1 */
  huart2.Instance = USART2;
 8001064:	4b11      	ldr	r3, [pc, #68]	; (80010ac <MX_USART2_UART_Init+0x4c>)
 8001066:	4a12      	ldr	r2, [pc, #72]	; (80010b0 <MX_USART2_UART_Init+0x50>)
 8001068:	601a      	str	r2, [r3, #0]
  huart2.Init.BaudRate = 115200;
 800106a:	4b10      	ldr	r3, [pc, #64]	; (80010ac <MX_USART2_UART_Init+0x4c>)
 800106c:	f44f 32e1 	mov.w	r2, #115200	; 0x1c200
 8001070:	605a      	str	r2, [r3, #4]
  huart2.Init.WordLength = UART_WORDLENGTH_8B;
 8001072:	4b0e      	ldr	r3, [pc, #56]	; (80010ac <MX_USART2_UART_Init+0x4c>)
 8001074:	2200      	movs	r2, #0
 8001076:	609a      	str	r2, [r3, #8]
  huart2.Init.StopBits = UART_STOPBITS_1;
 8001078:	4b0c      	ldr	r3, [pc, #48]	; (80010ac <MX_USART2_UART_Init+0x4c>)
 800107a:	2200      	movs	r2, #0
 800107c:	60da      	str	r2, [r3, #12]
  huart2.Init.Parity = UART_PARITY_NONE;
 800107e:	4b0b      	ldr	r3, [pc, #44]	; (80010ac <MX_USART2_UART_Init+0x4c>)
 8001080:	2200      	movs	r2, #0
 8001082:	611a      	str	r2, [r3, #16]
  huart2.Init.Mode = UART_MODE_TX_RX;
 8001084:	4b09      	ldr	r3, [pc, #36]	; (80010ac <MX_USART2_UART_Init+0x4c>)
 8001086:	220c      	movs	r2, #12
 8001088:	615a      	str	r2, [r3, #20]
  huart2.Init.HwFlowCtl = UART_HWCONTROL_NONE;
 800108a:	4b08      	ldr	r3, [pc, #32]	; (80010ac <MX_USART2_UART_Init+0x4c>)
 800108c:	2200      	movs	r2, #0
 800108e:	619a      	str	r2, [r3, #24]
  huart2.Init.OverSampling = UART_OVERSAMPLING_16;
 8001090:	4b06      	ldr	r3, [pc, #24]	; (80010ac <MX_USART2_UART_Init+0x4c>)
 8001092:	2200      	movs	r2, #0
 8001094:	61da      	str	r2, [r3, #28]
  if (HAL_UART_Init(&huart2) != HAL_OK)
 8001096:	4805      	ldr	r0, [pc, #20]	; (80010ac <MX_USART2_UART_Init+0x4c>)
 8001098:	f002 fe92 	bl	8003dc0 <HAL_UART_Init>
 800109c:	4603      	mov	r3, r0
 800109e:	2b00      	cmp	r3, #0
 80010a0:	d001      	beq.n	80010a6 <MX_USART2_UART_Init+0x46>
  {
    Error_Handler();
 80010a2:	f7ff fbf3 	bl	800088c <Error_Handler>
  }
  /* USER CODE BEGIN USART2_Init 2 */

  /* USER CODE END USART2_Init 2 */

}
 80010a6:	bf00      	nop
 80010a8:	bd80      	pop	{r7, pc}
 80010aa:	bf00      	nop
 80010ac:	20013028 	.word	0x20013028
 80010b0:	40004400 	.word	0x40004400

080010b4 <HAL_UART_MspInit>:

void HAL_UART_MspInit(UART_HandleTypeDef* uartHandle)
{
 80010b4:	b580      	push	{r7, lr}
 80010b6:	b08a      	sub	sp, #40	; 0x28
 80010b8:	af00      	add	r7, sp, #0
 80010ba:	6078      	str	r0, [r7, #4]

  GPIO_InitTypeDef GPIO_InitStruct = {0};
 80010bc:	f107 0314 	add.w	r3, r7, #20
 80010c0:	2200      	movs	r2, #0
 80010c2:	601a      	str	r2, [r3, #0]
 80010c4:	605a      	str	r2, [r3, #4]
 80010c6:	609a      	str	r2, [r3, #8]
 80010c8:	60da      	str	r2, [r3, #12]
 80010ca:	611a      	str	r2, [r3, #16]
  if(uartHandle->Instance==USART2)
 80010cc:	687b      	ldr	r3, [r7, #4]
 80010ce:	681b      	ldr	r3, [r3, #0]
 80010d0:	4a4c      	ldr	r2, [pc, #304]	; (8001204 <HAL_UART_MspInit+0x150>)
 80010d2:	4293      	cmp	r3, r2
 80010d4:	f040 8091 	bne.w	80011fa <HAL_UART_MspInit+0x146>
  {
  /* USER CODE BEGIN USART2_MspInit 0 */

  /* USER CODE END USART2_MspInit 0 */
    /* USART2 clock enable */
    __HAL_RCC_USART2_CLK_ENABLE();
 80010d8:	2300      	movs	r3, #0
 80010da:	613b      	str	r3, [r7, #16]
 80010dc:	4b4a      	ldr	r3, [pc, #296]	; (8001208 <HAL_UART_MspInit+0x154>)
 80010de:	6c1b      	ldr	r3, [r3, #64]	; 0x40
 80010e0:	4a49      	ldr	r2, [pc, #292]	; (8001208 <HAL_UART_MspInit+0x154>)
 80010e2:	f443 3300 	orr.w	r3, r3, #131072	; 0x20000
 80010e6:	6413      	str	r3, [r2, #64]	; 0x40
 80010e8:	4b47      	ldr	r3, [pc, #284]	; (8001208 <HAL_UART_MspInit+0x154>)
 80010ea:	6c1b      	ldr	r3, [r3, #64]	; 0x40
 80010ec:	f403 3300 	and.w	r3, r3, #131072	; 0x20000
 80010f0:	613b      	str	r3, [r7, #16]
 80010f2:	693b      	ldr	r3, [r7, #16]

    __HAL_RCC_GPIOA_CLK_ENABLE();
 80010f4:	2300      	movs	r3, #0
 80010f6:	60fb      	str	r3, [r7, #12]
 80010f8:	4b43      	ldr	r3, [pc, #268]	; (8001208 <HAL_UART_MspInit+0x154>)
 80010fa:	6b1b      	ldr	r3, [r3, #48]	; 0x30
 80010fc:	4a42      	ldr	r2, [pc, #264]	; (8001208 <HAL_UART_MspInit+0x154>)
 80010fe:	f043 0301 	orr.w	r3, r3, #1
 8001102:	6313      	str	r3, [r2, #48]	; 0x30
 8001104:	4b40      	ldr	r3, [pc, #256]	; (8001208 <HAL_UART_MspInit+0x154>)
 8001106:	6b1b      	ldr	r3, [r3, #48]	; 0x30
 8001108:	f003 0301 	and.w	r3, r3, #1
 800110c:	60fb      	str	r3, [r7, #12]
 800110e:	68fb      	ldr	r3, [r7, #12]
    /**USART2 GPIO Configuration
    PA2     ------> USART2_TX
    PA3     ------> USART2_RX
    */
    GPIO_InitStruct.Pin = GPIO_PIN_2|GPIO_PIN_3;
 8001110:	230c      	movs	r3, #12
 8001112:	617b      	str	r3, [r7, #20]
    GPIO_InitStruct.Mode = GPIO_MODE_AF_PP;
 8001114:	2302      	movs	r3, #2
 8001116:	61bb      	str	r3, [r7, #24]
    GPIO_InitStruct.Pull = GPIO_NOPULL;
 8001118:	2300      	movs	r3, #0
 800111a:	61fb      	str	r3, [r7, #28]
    GPIO_InitStruct.Speed = GPIO_SPEED_FREQ_VERY_HIGH;
 800111c:	2303      	movs	r3, #3
 800111e:	623b      	str	r3, [r7, #32]
    GPIO_InitStruct.Alternate = GPIO_AF7_USART2;
 8001120:	2307      	movs	r3, #7
 8001122:	627b      	str	r3, [r7, #36]	; 0x24
    HAL_GPIO_Init(GPIOA, &GPIO_InitStruct);
 8001124:	f107 0314 	add.w	r3, r7, #20
 8001128:	4619      	mov	r1, r3
 800112a:	4838      	ldr	r0, [pc, #224]	; (800120c <HAL_UART_MspInit+0x158>)
 800112c:	f000 fee4 	bl	8001ef8 <HAL_GPIO_Init>

    /* USART2 DMA Init */
    /* USART2_RX Init */
    hdma_usart2_rx.Instance = DMA1_Stream5;
 8001130:	4b37      	ldr	r3, [pc, #220]	; (8001210 <HAL_UART_MspInit+0x15c>)
 8001132:	4a38      	ldr	r2, [pc, #224]	; (8001214 <HAL_UART_MspInit+0x160>)
 8001134:	601a      	str	r2, [r3, #0]
    hdma_usart2_rx.Init.Channel = DMA_CHANNEL_4;
 8001136:	4b36      	ldr	r3, [pc, #216]	; (8001210 <HAL_UART_MspInit+0x15c>)
 8001138:	f04f 6200 	mov.w	r2, #134217728	; 0x8000000
 800113c:	605a      	str	r2, [r3, #4]
    hdma_usart2_rx.Init.Direction = DMA_PERIPH_TO_MEMORY;
 800113e:	4b34      	ldr	r3, [pc, #208]	; (8001210 <HAL_UART_MspInit+0x15c>)
 8001140:	2200      	movs	r2, #0
 8001142:	609a      	str	r2, [r3, #8]
    hdma_usart2_rx.Init.PeriphInc = DMA_PINC_DISABLE;
 8001144:	4b32      	ldr	r3, [pc, #200]	; (8001210 <HAL_UART_MspInit+0x15c>)
 8001146:	2200      	movs	r2, #0
 8001148:	60da      	str	r2, [r3, #12]
    hdma_usart2_rx.Init.MemInc = DMA_MINC_ENABLE;
 800114a:	4b31      	ldr	r3, [pc, #196]	; (8001210 <HAL_UART_MspInit+0x15c>)
 800114c:	f44f 6280 	mov.w	r2, #1024	; 0x400
 8001150:	611a      	str	r2, [r3, #16]
    hdma_usart2_rx.Init.PeriphDataAlignment = DMA_PDATAALIGN_BYTE;
 8001152:	4b2f      	ldr	r3, [pc, #188]	; (8001210 <HAL_UART_MspInit+0x15c>)
 8001154:	2200      	movs	r2, #0
 8001156:	615a      	str	r2, [r3, #20]
    hdma_usart2_rx.Init.MemDataAlignment = DMA_MDATAALIGN_BYTE;
 8001158:	4b2d      	ldr	r3, [pc, #180]	; (8001210 <HAL_UART_MspInit+0x15c>)
 800115a:	2200      	movs	r2, #0
 800115c:	619a      	str	r2, [r3, #24]
    hdma_usart2_rx.Init.Mode = DMA_CIRCULAR;
 800115e:	4b2c      	ldr	r3, [pc, #176]	; (8001210 <HAL_UART_MspInit+0x15c>)
 8001160:	f44f 7280 	mov.w	r2, #256	; 0x100
 8001164:	61da      	str	r2, [r3, #28]
    hdma_usart2_rx.Init.Priority = DMA_PRIORITY_LOW;
 8001166:	4b2a      	ldr	r3, [pc, #168]	; (8001210 <HAL_UART_MspInit+0x15c>)
 8001168:	2200      	movs	r2, #0
 800116a:	621a      	str	r2, [r3, #32]
    hdma_usart2_rx.Init.FIFOMode = DMA_FIFOMODE_DISABLE;
 800116c:	4b28      	ldr	r3, [pc, #160]	; (8001210 <HAL_UART_MspInit+0x15c>)
 800116e:	2200      	movs	r2, #0
 8001170:	625a      	str	r2, [r3, #36]	; 0x24
    if (HAL_DMA_Init(&hdma_usart2_rx) != HAL_OK)
 8001172:	4827      	ldr	r0, [pc, #156]	; (8001210 <HAL_UART_MspInit+0x15c>)
 8001174:	f000 fabe 	bl	80016f4 <HAL_DMA_Init>
 8001178:	4603      	mov	r3, r0
 800117a:	2b00      	cmp	r3, #0
 800117c:	d001      	beq.n	8001182 <HAL_UART_MspInit+0xce>
    {
      Error_Handler();
 800117e:	f7ff fb85 	bl	800088c <Error_Handler>
    }

    __HAL_LINKDMA(uartHandle,hdmarx,hdma_usart2_rx);
 8001182:	687b      	ldr	r3, [r7, #4]
 8001184:	4a22      	ldr	r2, [pc, #136]	; (8001210 <HAL_UART_MspInit+0x15c>)
 8001186:	639a      	str	r2, [r3, #56]	; 0x38
 8001188:	4a21      	ldr	r2, [pc, #132]	; (8001210 <HAL_UART_MspInit+0x15c>)
 800118a:	687b      	ldr	r3, [r7, #4]
 800118c:	6393      	str	r3, [r2, #56]	; 0x38

    /* USART2_TX Init */
    hdma_usart2_tx.Instance = DMA1_Stream6;
 800118e:	4b22      	ldr	r3, [pc, #136]	; (8001218 <HAL_UART_MspInit+0x164>)
 8001190:	4a22      	ldr	r2, [pc, #136]	; (800121c <HAL_UART_MspInit+0x168>)
 8001192:	601a      	str	r2, [r3, #0]
    hdma_usart2_tx.Init.Channel = DMA_CHANNEL_4;
 8001194:	4b20      	ldr	r3, [pc, #128]	; (8001218 <HAL_UART_MspInit+0x164>)
 8001196:	f04f 6200 	mov.w	r2, #134217728	; 0x8000000
 800119a:	605a      	str	r2, [r3, #4]
    hdma_usart2_tx.Init.Direction = DMA_MEMORY_TO_PERIPH;
 800119c:	4b1e      	ldr	r3, [pc, #120]	; (8001218 <HAL_UART_MspInit+0x164>)
 800119e:	2240      	movs	r2, #64	; 0x40
 80011a0:	609a      	str	r2, [r3, #8]
    hdma_usart2_tx.Init.PeriphInc = DMA_PINC_DISABLE;
 80011a2:	4b1d      	ldr	r3, [pc, #116]	; (8001218 <HAL_UART_MspInit+0x164>)
 80011a4:	2200      	movs	r2, #0
 80011a6:	60da      	str	r2, [r3, #12]
    hdma_usart2_tx.Init.MemInc = DMA_MINC_ENABLE;
 80011a8:	4b1b      	ldr	r3, [pc, #108]	; (8001218 <HAL_UART_MspInit+0x164>)
 80011aa:	f44f 6280 	mov.w	r2, #1024	; 0x400
 80011ae:	611a      	str	r2, [r3, #16]
    hdma_usart2_tx.Init.PeriphDataAlignment = DMA_PDATAALIGN_BYTE;
 80011b0:	4b19      	ldr	r3, [pc, #100]	; (8001218 <HAL_UART_MspInit+0x164>)
 80011b2:	2200      	movs	r2, #0
 80011b4:	615a      	str	r2, [r3, #20]
    hdma_usart2_tx.Init.MemDataAlignment = DMA_MDATAALIGN_BYTE;
 80011b6:	4b18      	ldr	r3, [pc, #96]	; (8001218 <HAL_UART_MspInit+0x164>)
 80011b8:	2200      	movs	r2, #0
 80011ba:	619a      	str	r2, [r3, #24]
    hdma_usart2_tx.Init.Mode = DMA_NORMAL;
 80011bc:	4b16      	ldr	r3, [pc, #88]	; (8001218 <HAL_UART_MspInit+0x164>)
 80011be:	2200      	movs	r2, #0
 80011c0:	61da      	str	r2, [r3, #28]
    hdma_usart2_tx.Init.Priority = DMA_PRIORITY_LOW;
 80011c2:	4b15      	ldr	r3, [pc, #84]	; (8001218 <HAL_UART_MspInit+0x164>)
 80011c4:	2200      	movs	r2, #0
 80011c6:	621a      	str	r2, [r3, #32]
    hdma_usart2_tx.Init.FIFOMode = DMA_FIFOMODE_DISABLE;
 80011c8:	4b13      	ldr	r3, [pc, #76]	; (8001218 <HAL_UART_MspInit+0x164>)
 80011ca:	2200      	movs	r2, #0
 80011cc:	625a      	str	r2, [r3, #36]	; 0x24
    if (HAL_DMA_Init(&hdma_usart2_tx) != HAL_OK)
 80011ce:	4812      	ldr	r0, [pc, #72]	; (8001218 <HAL_UART_MspInit+0x164>)
 80011d0:	f000 fa90 	bl	80016f4 <HAL_DMA_Init>
 80011d4:	4603      	mov	r3, r0
 80011d6:	2b00      	cmp	r3, #0
 80011d8:	d001      	beq.n	80011de <HAL_UART_MspInit+0x12a>
    {
      Error_Handler();
 80011da:	f7ff fb57 	bl	800088c <Error_Handler>
    }

    __HAL_LINKDMA(uartHandle,hdmatx,hdma_usart2_tx);
 80011de:	687b      	ldr	r3, [r7, #4]
 80011e0:	4a0d      	ldr	r2, [pc, #52]	; (8001218 <HAL_UART_MspInit+0x164>)
 80011e2:	635a      	str	r2, [r3, #52]	; 0x34
 80011e4:	4a0c      	ldr	r2, [pc, #48]	; (8001218 <HAL_UART_MspInit+0x164>)
 80011e6:	687b      	ldr	r3, [r7, #4]
 80011e8:	6393      	str	r3, [r2, #56]	; 0x38

    /* USART2 interrupt Init */
    HAL_NVIC_SetPriority(USART2_IRQn, 0, 0);
 80011ea:	2200      	movs	r2, #0
 80011ec:	2100      	movs	r1, #0
 80011ee:	2026      	movs	r0, #38	; 0x26
 80011f0:	f000 fa49 	bl	8001686 <HAL_NVIC_SetPriority>
    HAL_NVIC_EnableIRQ(USART2_IRQn);
 80011f4:	2026      	movs	r0, #38	; 0x26
 80011f6:	f000 fa62 	bl	80016be <HAL_NVIC_EnableIRQ>
  /* USER CODE BEGIN USART2_MspInit 1 */

  /* USER CODE END USART2_MspInit 1 */
  }
}
 80011fa:	bf00      	nop
 80011fc:	3728      	adds	r7, #40	; 0x28
 80011fe:	46bd      	mov	sp, r7
 8001200:	bd80      	pop	{r7, pc}
 8001202:	bf00      	nop
 8001204:	40004400 	.word	0x40004400
 8001208:	40023800 	.word	0x40023800
 800120c:	40020000 	.word	0x40020000
 8001210:	20012f28 	.word	0x20012f28
 8001214:	40026088 	.word	0x40026088
 8001218:	20012f88 	.word	0x20012f88
 800121c:	400260a0 	.word	0x400260a0

08001220 <HAL_UART_RxCpltCallback>:
  }
}

/* USER CODE BEGIN 1 */

void HAL_UART_RxCpltCallback(UART_HandleTypeDef *huart) {
 8001220:	b580      	push	{r7, lr}
 8001222:	b086      	sub	sp, #24
 8001224:	af00      	add	r7, sp, #0
 8001226:	6078      	str	r0, [r7, #4]
	// idle detection needs at least one UART clock to detect the bus is idle. So
	// in the case, that the transmission length is one full buffer length
	// and the start buffer pointer is at 0, it will be also 0 at the end of the
	// transmission. In this case the DMA rollover will increment the RxRollover
	// variable first and len will not be zero.
	if(__HAL_UART_GET_FLAG(huart, UART_FLAG_IDLE)) {									// Check if it is an "Idle Interrupt"
 8001228:	687b      	ldr	r3, [r7, #4]
 800122a:	681b      	ldr	r3, [r3, #0]
 800122c:	681b      	ldr	r3, [r3, #0]
 800122e:	f003 0310 	and.w	r3, r3, #16
 8001232:	2b10      	cmp	r3, #16
 8001234:	f040 8085 	bne.w	8001342 <HAL_UART_RxCpltCallback+0x122>
		__HAL_UART_CLEAR_IDLEFLAG(&huart2);												// clear the interrupt
 8001238:	2300      	movs	r3, #0
 800123a:	60fb      	str	r3, [r7, #12]
 800123c:	4b46      	ldr	r3, [pc, #280]	; (8001358 <HAL_UART_RxCpltCallback+0x138>)
 800123e:	681b      	ldr	r3, [r3, #0]
 8001240:	681b      	ldr	r3, [r3, #0]
 8001242:	60fb      	str	r3, [r7, #12]
 8001244:	4b44      	ldr	r3, [pc, #272]	; (8001358 <HAL_UART_RxCpltCallback+0x138>)
 8001246:	681b      	ldr	r3, [r3, #0]
 8001248:	685b      	ldr	r3, [r3, #4]
 800124a:	60fb      	str	r3, [r7, #12]
 800124c:	68fb      	ldr	r3, [r7, #12]
		RxCounter++;																	// increment the Rx Counter
 800124e:	4b43      	ldr	r3, [pc, #268]	; (800135c <HAL_UART_RxCpltCallback+0x13c>)
 8001250:	781b      	ldrb	r3, [r3, #0]
 8001252:	3301      	adds	r3, #1
 8001254:	b2da      	uxtb	r2, r3
 8001256:	4b41      	ldr	r3, [pc, #260]	; (800135c <HAL_UART_RxCpltCallback+0x13c>)
 8001258:	701a      	strb	r2, [r3, #0]

		uint8_t TxSize = 0;
 800125a:	2300      	movs	r3, #0
 800125c:	753b      	strb	r3, [r7, #20]
		uint16_t start = RxBfrPos;														// Rx bytes start position (=last buffer position)
 800125e:	4b40      	ldr	r3, [pc, #256]	; (8001360 <HAL_UART_RxCpltCallback+0x140>)
 8001260:	781b      	ldrb	r3, [r3, #0]
 8001262:	827b      	strh	r3, [r7, #18]
		RxBfrPos = RX_BUFSIZE - (uint16_t)huart->hdmarx->Instance->NDTR;				// determine actual buffer position
 8001264:	687b      	ldr	r3, [r7, #4]
 8001266:	6b9b      	ldr	r3, [r3, #56]	; 0x38
 8001268:	681b      	ldr	r3, [r3, #0]
 800126a:	685b      	ldr	r3, [r3, #4]
 800126c:	b2da      	uxtb	r2, r3
 800126e:	f06f 037f 	mvn.w	r3, #127	; 0x7f
 8001272:	1a9b      	subs	r3, r3, r2
 8001274:	b2da      	uxtb	r2, r3
 8001276:	4b3a      	ldr	r3, [pc, #232]	; (8001360 <HAL_UART_RxCpltCallback+0x140>)
 8001278:	701a      	strb	r2, [r3, #0]
		uint16_t len = RX_BUFSIZE;														// init len with max. size
 800127a:	2380      	movs	r3, #128	; 0x80
 800127c:	82fb      	strh	r3, [r7, #22]
		UART2_txBuffer[0] = '\0';
 800127e:	4b39      	ldr	r3, [pc, #228]	; (8001364 <HAL_UART_RxCpltCallback+0x144>)
 8001280:	2200      	movs	r2, #0
 8001282:	701a      	strb	r2, [r3, #0]

		if(RxRollover < 2)  {
 8001284:	4b38      	ldr	r3, [pc, #224]	; (8001368 <HAL_UART_RxCpltCallback+0x148>)
 8001286:	781b      	ldrb	r3, [r3, #0]
 8001288:	2b01      	cmp	r3, #1
 800128a:	d81c      	bhi.n	80012c6 <HAL_UART_RxCpltCallback+0xa6>
			if(RxRollover) {															// rolled over once
 800128c:	4b36      	ldr	r3, [pc, #216]	; (8001368 <HAL_UART_RxCpltCallback+0x148>)
 800128e:	781b      	ldrb	r3, [r3, #0]
 8001290:	2b00      	cmp	r3, #0
 8001292:	d011      	beq.n	80012b8 <HAL_UART_RxCpltCallback+0x98>
				if(RxBfrPos <= start) len = RxBfrPos + RX_BUFSIZE - start;				// no bytes overwritten
 8001294:	4b32      	ldr	r3, [pc, #200]	; (8001360 <HAL_UART_RxCpltCallback+0x140>)
 8001296:	781b      	ldrb	r3, [r3, #0]
 8001298:	b29b      	uxth	r3, r3
 800129a:	8a7a      	ldrh	r2, [r7, #18]
 800129c:	429a      	cmp	r2, r3
 800129e:	d308      	bcc.n	80012b2 <HAL_UART_RxCpltCallback+0x92>
 80012a0:	4b2f      	ldr	r3, [pc, #188]	; (8001360 <HAL_UART_RxCpltCallback+0x140>)
 80012a2:	781b      	ldrb	r3, [r3, #0]
 80012a4:	b29a      	uxth	r2, r3
 80012a6:	8a7b      	ldrh	r3, [r7, #18]
 80012a8:	1ad3      	subs	r3, r2, r3
 80012aa:	b29b      	uxth	r3, r3
 80012ac:	3380      	adds	r3, #128	; 0x80
 80012ae:	82fb      	strh	r3, [r7, #22]
 80012b0:	e00b      	b.n	80012ca <HAL_UART_RxCpltCallback+0xaa>
				else len = RX_BUFSIZE + 1;												// bytes overwritten error
 80012b2:	2381      	movs	r3, #129	; 0x81
 80012b4:	82fb      	strh	r3, [r7, #22]
 80012b6:	e008      	b.n	80012ca <HAL_UART_RxCpltCallback+0xaa>
			} else {
				len = RxBfrPos - start;													// no bytes overwritten
 80012b8:	4b29      	ldr	r3, [pc, #164]	; (8001360 <HAL_UART_RxCpltCallback+0x140>)
 80012ba:	781b      	ldrb	r3, [r3, #0]
 80012bc:	b29a      	uxth	r2, r3
 80012be:	8a7b      	ldrh	r3, [r7, #18]
 80012c0:	1ad3      	subs	r3, r2, r3
 80012c2:	82fb      	strh	r3, [r7, #22]
 80012c4:	e001      	b.n	80012ca <HAL_UART_RxCpltCallback+0xaa>
			}
		} else {
			len = RX_BUFSIZE + 2;														// dual rollover error
 80012c6:	2382      	movs	r3, #130	; 0x82
 80012c8:	82fb      	strh	r3, [r7, #22]
		}

		if(len && (len <= RX_BUFSIZE)) {
 80012ca:	8afb      	ldrh	r3, [r7, #22]
 80012cc:	2b00      	cmp	r3, #0
 80012ce:	d025      	beq.n	800131c <HAL_UART_RxCpltCallback+0xfc>
 80012d0:	8afb      	ldrh	r3, [r7, #22]
 80012d2:	2b80      	cmp	r3, #128	; 0x80
 80012d4:	d822      	bhi.n	800131c <HAL_UART_RxCpltCallback+0xfc>
				sprintf(UART2_txBuffer, "ACK RxC:%d S:%d L:%d RO:%d RXp:%d >>", RxCounter, start, len, RxRollover, RxBfrPos);

			#else
				//sprintf(UART2_txBuffer, "U heeft ingevoerd:");
			#endif
			TxSize = strlen(UART2_txBuffer);
 80012d6:	4823      	ldr	r0, [pc, #140]	; (8001364 <HAL_UART_RxCpltCallback+0x144>)
 80012d8:	f7fe ff7a 	bl	80001d0 <strlen>
 80012dc:	4603      	mov	r3, r0
 80012de:	753b      	strb	r3, [r7, #20]

			// add received bytes to UART2_txBuffer
			uint8_t i;
			for(i = 0; i < len; i++) *(UART2_txBuffer + TxSize + i) = *(UART2_rxBuffer + ((start + i) % RX_BUFSIZE));
 80012e0:	2300      	movs	r3, #0
 80012e2:	757b      	strb	r3, [r7, #21]
 80012e4:	e010      	b.n	8001308 <HAL_UART_RxCpltCallback+0xe8>
 80012e6:	8a7a      	ldrh	r2, [r7, #18]
 80012e8:	7d7b      	ldrb	r3, [r7, #21]
 80012ea:	4413      	add	r3, r2
 80012ec:	f003 037f 	and.w	r3, r3, #127	; 0x7f
 80012f0:	4a1e      	ldr	r2, [pc, #120]	; (800136c <HAL_UART_RxCpltCallback+0x14c>)
 80012f2:	441a      	add	r2, r3
 80012f4:	7d39      	ldrb	r1, [r7, #20]
 80012f6:	7d7b      	ldrb	r3, [r7, #21]
 80012f8:	440b      	add	r3, r1
 80012fa:	491a      	ldr	r1, [pc, #104]	; (8001364 <HAL_UART_RxCpltCallback+0x144>)
 80012fc:	440b      	add	r3, r1
 80012fe:	7812      	ldrb	r2, [r2, #0]
 8001300:	701a      	strb	r2, [r3, #0]
 8001302:	7d7b      	ldrb	r3, [r7, #21]
 8001304:	3301      	adds	r3, #1
 8001306:	757b      	strb	r3, [r7, #21]
 8001308:	7d7b      	ldrb	r3, [r7, #21]
 800130a:	b29b      	uxth	r3, r3
 800130c:	8afa      	ldrh	r2, [r7, #22]
 800130e:	429a      	cmp	r2, r3
 8001310:	d8e9      	bhi.n	80012e6 <HAL_UART_RxCpltCallback+0xc6>
			TxSize += i;
 8001312:	7d3a      	ldrb	r2, [r7, #20]
 8001314:	7d7b      	ldrb	r3, [r7, #21]
 8001316:	4413      	add	r3, r2
 8001318:	753b      	strb	r3, [r7, #20]
		if(len && (len <= RX_BUFSIZE)) {
 800131a:	e00b      	b.n	8001334 <HAL_UART_RxCpltCallback+0x114>
		} else {
			// buffer overflow error:
			sprintf(UART2_txBuffer, "NAK RX BUFFER OVERFLOW ERROR %d\r\n", (len - RX_BUFSIZE));	// Change error message
 800131c:	8afb      	ldrh	r3, [r7, #22]
 800131e:	3b80      	subs	r3, #128	; 0x80
 8001320:	461a      	mov	r2, r3
 8001322:	4913      	ldr	r1, [pc, #76]	; (8001370 <HAL_UART_RxCpltCallback+0x150>)
 8001324:	480f      	ldr	r0, [pc, #60]	; (8001364 <HAL_UART_RxCpltCallback+0x144>)
 8001326:	f003 fd83 	bl	8004e30 <siprintf>
			TxSize = strlen(UART2_txBuffer);
 800132a:	480e      	ldr	r0, [pc, #56]	; (8001364 <HAL_UART_RxCpltCallback+0x144>)
 800132c:	f7fe ff50 	bl	80001d0 <strlen>
 8001330:	4603      	mov	r3, r0
 8001332:	753b      	strb	r3, [r7, #20]
		}

		FL_Parse(UART2_txBuffer);
 8001334:	480b      	ldr	r0, [pc, #44]	; (8001364 <HAL_UART_RxCpltCallback+0x144>)
 8001336:	f7ff f91f 	bl	8000578 <FL_Parse>

		//HAL_UART_Transmit_DMA(&huart2, (uint8_t*)UART2_txBuffer, TxSize);						// send a response

		RxRollover = 0;																	// reset the Rollover variable
 800133a:	4b0b      	ldr	r3, [pc, #44]	; (8001368 <HAL_UART_RxCpltCallback+0x148>)
 800133c:	2200      	movs	r2, #0
 800133e:	701a      	strb	r2, [r3, #0]
	} else {
		// no idle flag? --> DMA rollover occurred
		RxRollover++;		// increment Rollover Counter
	}
}
 8001340:	e005      	b.n	800134e <HAL_UART_RxCpltCallback+0x12e>
		RxRollover++;		// increment Rollover Counter
 8001342:	4b09      	ldr	r3, [pc, #36]	; (8001368 <HAL_UART_RxCpltCallback+0x148>)
 8001344:	781b      	ldrb	r3, [r3, #0]
 8001346:	3301      	adds	r3, #1
 8001348:	b2da      	uxtb	r2, r3
 800134a:	4b07      	ldr	r3, [pc, #28]	; (8001368 <HAL_UART_RxCpltCallback+0x148>)
 800134c:	701a      	strb	r2, [r3, #0]
}
 800134e:	bf00      	nop
 8001350:	3718      	adds	r7, #24
 8001352:	46bd      	mov	sp, r7
 8001354:	bd80      	pop	{r7, pc}
 8001356:	bf00      	nop
 8001358:	20013028 	.word	0x20013028
 800135c:	200000b1 	.word	0x200000b1
 8001360:	200000b2 	.word	0x200000b2
 8001364:	20012fe8 	.word	0x20012fe8
 8001368:	200000b0 	.word	0x200000b0
 800136c:	20012ea8 	.word	0x20012ea8
 8001370:	0800622c 	.word	0x0800622c

08001374 <HAL_UART_TxCpltCallback>:

void HAL_UART_TxCpltCallback(UART_HandleTypeDef *huart) {
 8001374:	b480      	push	{r7}
 8001376:	b083      	sub	sp, #12
 8001378:	af00      	add	r7, sp, #0
 800137a:	6078      	str	r0, [r7, #4]
	// UART Tx Complete Callback;
	TxCounter++;
 800137c:	4b05      	ldr	r3, [pc, #20]	; (8001394 <HAL_UART_TxCpltCallback+0x20>)
 800137e:	781b      	ldrb	r3, [r3, #0]
 8001380:	3301      	adds	r3, #1
 8001382:	b2da      	uxtb	r2, r3
 8001384:	4b03      	ldr	r3, [pc, #12]	; (8001394 <HAL_UART_TxCpltCallback+0x20>)
 8001386:	701a      	strb	r2, [r3, #0]
}
 8001388:	bf00      	nop
 800138a:	370c      	adds	r7, #12
 800138c:	46bd      	mov	sp, r7
 800138e:	f85d 7b04 	ldr.w	r7, [sp], #4
 8001392:	4770      	bx	lr
 8001394:	200000b3 	.word	0x200000b3

08001398 <Reset_Handler>:

    .section  .text.Reset_Handler
  .weak  Reset_Handler
  .type  Reset_Handler, %function
Reset_Handler:  
  ldr   sp, =_estack     /* set stack pointer */
 8001398:	f8df d034 	ldr.w	sp, [pc, #52]	; 80013d0 <LoopFillZerobss+0x14>

/* Copy the data segment initializers from flash to SRAM */  
  movs  r1, #0
 800139c:	2100      	movs	r1, #0
  b  LoopCopyDataInit
 800139e:	e003      	b.n	80013a8 <LoopCopyDataInit>

080013a0 <CopyDataInit>:

CopyDataInit:
  ldr  r3, =_sidata
 80013a0:	4b0c      	ldr	r3, [pc, #48]	; (80013d4 <LoopFillZerobss+0x18>)
  ldr  r3, [r3, r1]
 80013a2:	585b      	ldr	r3, [r3, r1]
  str  r3, [r0, r1]
 80013a4:	5043      	str	r3, [r0, r1]
  adds  r1, r1, #4
 80013a6:	3104      	adds	r1, #4

080013a8 <LoopCopyDataInit>:
    
LoopCopyDataInit:
  ldr  r0, =_sdata
 80013a8:	480b      	ldr	r0, [pc, #44]	; (80013d8 <LoopFillZerobss+0x1c>)
  ldr  r3, =_edata
 80013aa:	4b0c      	ldr	r3, [pc, #48]	; (80013dc <LoopFillZerobss+0x20>)
  adds  r2, r0, r1
 80013ac:	1842      	adds	r2, r0, r1
  cmp  r2, r3
 80013ae:	429a      	cmp	r2, r3
  bcc  CopyDataInit
 80013b0:	d3f6      	bcc.n	80013a0 <CopyDataInit>
  ldr  r2, =_sbss
 80013b2:	4a0b      	ldr	r2, [pc, #44]	; (80013e0 <LoopFillZerobss+0x24>)
  b  LoopFillZerobss
 80013b4:	e002      	b.n	80013bc <LoopFillZerobss>

080013b6 <FillZerobss>:
/* Zero fill the bss segment. */  
FillZerobss:
  movs  r3, #0
 80013b6:	2300      	movs	r3, #0
  str  r3, [r2], #4
 80013b8:	f842 3b04 	str.w	r3, [r2], #4

080013bc <LoopFillZerobss>:
    
LoopFillZerobss:
  ldr  r3, = _ebss
 80013bc:	4b09      	ldr	r3, [pc, #36]	; (80013e4 <LoopFillZerobss+0x28>)
  cmp  r2, r3
 80013be:	429a      	cmp	r2, r3
  bcc  FillZerobss
 80013c0:	d3f9      	bcc.n	80013b6 <FillZerobss>

/* Call the clock system intitialization function.*/
  bl  SystemInit   
 80013c2:	f7ff fccf 	bl	8000d64 <SystemInit>
/* Call static constructors */
    bl __libc_init_array
 80013c6:	f003 fd07 	bl	8004dd8 <__libc_init_array>
/* Call the application's entry point.*/
  bl  main
 80013ca:	f7ff f9b1 	bl	8000730 <main>
  bx  lr    
 80013ce:	4770      	bx	lr
  ldr   sp, =_estack     /* set stack pointer */
 80013d0:	20020000 	.word	0x20020000
  ldr  r3, =_sidata
 80013d4:	080063cc 	.word	0x080063cc
  ldr  r0, =_sdata
 80013d8:	20000000 	.word	0x20000000
  ldr  r3, =_edata
 80013dc:	20000090 	.word	0x20000090
  ldr  r2, =_sbss
 80013e0:	20000090 	.word	0x20000090
  ldr  r3, = _ebss
 80013e4:	20013080 	.word	0x20013080

080013e8 <ADC_IRQHandler>:
 * @retval None       
*/
    .section  .text.Default_Handler,"ax",%progbits
Default_Handler:
Infinite_Loop:
  b  Infinite_Loop
 80013e8:	e7fe      	b.n	80013e8 <ADC_IRQHandler>
	...

080013ec <HAL_Init>:
  *         need to ensure that the SysTick time base is always set to 1 millisecond
  *         to have correct HAL operation.
  * @retval HAL status
  */
HAL_StatusTypeDef HAL_Init(void)
{
 80013ec:	b580      	push	{r7, lr}
 80013ee:	af00      	add	r7, sp, #0
  /* Configure Flash prefetch, Instruction cache, Data cache */ 
#if (INSTRUCTION_CACHE_ENABLE != 0U)
  __HAL_FLASH_INSTRUCTION_CACHE_ENABLE();
 80013f0:	4b0e      	ldr	r3, [pc, #56]	; (800142c <HAL_Init+0x40>)
 80013f2:	681b      	ldr	r3, [r3, #0]
 80013f4:	4a0d      	ldr	r2, [pc, #52]	; (800142c <HAL_Init+0x40>)
 80013f6:	f443 7300 	orr.w	r3, r3, #512	; 0x200
 80013fa:	6013      	str	r3, [r2, #0]
#endif /* INSTRUCTION_CACHE_ENABLE */

#if (DATA_CACHE_ENABLE != 0U)
  __HAL_FLASH_DATA_CACHE_ENABLE();
 80013fc:	4b0b      	ldr	r3, [pc, #44]	; (800142c <HAL_Init+0x40>)
 80013fe:	681b      	ldr	r3, [r3, #0]
 8001400:	4a0a      	ldr	r2, [pc, #40]	; (800142c <HAL_Init+0x40>)
 8001402:	f443 6380 	orr.w	r3, r3, #1024	; 0x400
 8001406:	6013      	str	r3, [r2, #0]
#endif /* DATA_CACHE_ENABLE */

#if (PREFETCH_ENABLE != 0U)
  __HAL_FLASH_PREFETCH_BUFFER_ENABLE();
 8001408:	4b08      	ldr	r3, [pc, #32]	; (800142c <HAL_Init+0x40>)
 800140a:	681b      	ldr	r3, [r3, #0]
 800140c:	4a07      	ldr	r2, [pc, #28]	; (800142c <HAL_Init+0x40>)
 800140e:	f443 7380 	orr.w	r3, r3, #256	; 0x100
 8001412:	6013      	str	r3, [r2, #0]
#endif /* PREFETCH_ENABLE */

  /* Set Interrupt Group Priority */
  HAL_NVIC_SetPriorityGrouping(NVIC_PRIORITYGROUP_4);
 8001414:	2003      	movs	r0, #3
 8001416:	f000 f92b 	bl	8001670 <HAL_NVIC_SetPriorityGrouping>

  /* Use systick as time base source and configure 1ms tick (default clock after Reset is HSI) */
  HAL_InitTick(TICK_INT_PRIORITY);
 800141a:	2000      	movs	r0, #0
 800141c:	f000 f808 	bl	8001430 <HAL_InitTick>

  /* Init the low level hardware */
  HAL_MspInit();
 8001420:	f7ff fada 	bl	80009d8 <HAL_MspInit>

  /* Return function status */
  return HAL_OK;
 8001424:	2300      	movs	r3, #0
}
 8001426:	4618      	mov	r0, r3
 8001428:	bd80      	pop	{r7, pc}
 800142a:	bf00      	nop
 800142c:	40023c00 	.word	0x40023c00

08001430 <HAL_InitTick>:
  *       implementation  in user file.
  * @param TickPriority Tick interrupt priority.
  * @retval HAL status
  */
__weak HAL_StatusTypeDef HAL_InitTick(uint32_t TickPriority)
{
 8001430:	b580      	push	{r7, lr}
 8001432:	b082      	sub	sp, #8
 8001434:	af00      	add	r7, sp, #0
 8001436:	6078      	str	r0, [r7, #4]
  /* Configure the SysTick to have interrupt in 1ms time basis*/
  if (HAL_SYSTICK_Config(SystemCoreClock / (1000U / uwTickFreq)) > 0U)
 8001438:	4b12      	ldr	r3, [pc, #72]	; (8001484 <HAL_InitTick+0x54>)
 800143a:	681a      	ldr	r2, [r3, #0]
 800143c:	4b12      	ldr	r3, [pc, #72]	; (8001488 <HAL_InitTick+0x58>)
 800143e:	781b      	ldrb	r3, [r3, #0]
 8001440:	4619      	mov	r1, r3
 8001442:	f44f 737a 	mov.w	r3, #1000	; 0x3e8
 8001446:	fbb3 f3f1 	udiv	r3, r3, r1
 800144a:	fbb2 f3f3 	udiv	r3, r2, r3
 800144e:	4618      	mov	r0, r3
 8001450:	f000 f943 	bl	80016da <HAL_SYSTICK_Config>
 8001454:	4603      	mov	r3, r0
 8001456:	2b00      	cmp	r3, #0
 8001458:	d001      	beq.n	800145e <HAL_InitTick+0x2e>
  {
    return HAL_ERROR;
 800145a:	2301      	movs	r3, #1
 800145c:	e00e      	b.n	800147c <HAL_InitTick+0x4c>
  }

  /* Configure the SysTick IRQ priority */
  if (TickPriority < (1UL << __NVIC_PRIO_BITS))
 800145e:	687b      	ldr	r3, [r7, #4]
 8001460:	2b0f      	cmp	r3, #15
 8001462:	d80a      	bhi.n	800147a <HAL_InitTick+0x4a>
  {
    HAL_NVIC_SetPriority(SysTick_IRQn, TickPriority, 0U);
 8001464:	2200      	movs	r2, #0
 8001466:	6879      	ldr	r1, [r7, #4]
 8001468:	f04f 30ff 	mov.w	r0, #4294967295
 800146c:	f000 f90b 	bl	8001686 <HAL_NVIC_SetPriority>
    uwTickPrio = TickPriority;
 8001470:	4a06      	ldr	r2, [pc, #24]	; (800148c <HAL_InitTick+0x5c>)
 8001472:	687b      	ldr	r3, [r7, #4]
 8001474:	6013      	str	r3, [r2, #0]
  {
    return HAL_ERROR;
  }

  /* Return function status */
  return HAL_OK;
 8001476:	2300      	movs	r3, #0
 8001478:	e000      	b.n	800147c <HAL_InitTick+0x4c>
    return HAL_ERROR;
 800147a:	2301      	movs	r3, #1
}
 800147c:	4618      	mov	r0, r3
 800147e:	3708      	adds	r7, #8
 8001480:	46bd      	mov	sp, r7
 8001482:	bd80      	pop	{r7, pc}
 8001484:	20000020 	.word	0x20000020
 8001488:	20000028 	.word	0x20000028
 800148c:	20000024 	.word	0x20000024

08001490 <HAL_IncTick>:
 * @note This function is declared as __weak to be overwritten in case of other 
  *      implementations in user file.
  * @retval None
  */
__weak void HAL_IncTick(void)
{
 8001490:	b480      	push	{r7}
 8001492:	af00      	add	r7, sp, #0
  uwTick += uwTickFreq;
 8001494:	4b06      	ldr	r3, [pc, #24]	; (80014b0 <HAL_IncTick+0x20>)
 8001496:	781b      	ldrb	r3, [r3, #0]
 8001498:	461a      	mov	r2, r3
 800149a:	4b06      	ldr	r3, [pc, #24]	; (80014b4 <HAL_IncTick+0x24>)
 800149c:	681b      	ldr	r3, [r3, #0]
 800149e:	4413      	add	r3, r2
 80014a0:	4a04      	ldr	r2, [pc, #16]	; (80014b4 <HAL_IncTick+0x24>)
 80014a2:	6013      	str	r3, [r2, #0]
}
 80014a4:	bf00      	nop
 80014a6:	46bd      	mov	sp, r7
 80014a8:	f85d 7b04 	ldr.w	r7, [sp], #4
 80014ac:	4770      	bx	lr
 80014ae:	bf00      	nop
 80014b0:	20000028 	.word	0x20000028
 80014b4:	2001306c 	.word	0x2001306c

080014b8 <HAL_GetTick>:
  * @note This function is declared as __weak to be overwritten in case of other 
  *       implementations in user file.
  * @retval tick value
  */
__weak uint32_t HAL_GetTick(void)
{
 80014b8:	b480      	push	{r7}
 80014ba:	af00      	add	r7, sp, #0
  return uwTick;
 80014bc:	4b03      	ldr	r3, [pc, #12]	; (80014cc <HAL_GetTick+0x14>)
 80014be:	681b      	ldr	r3, [r3, #0]
}
 80014c0:	4618      	mov	r0, r3
 80014c2:	46bd      	mov	sp, r7
 80014c4:	f85d 7b04 	ldr.w	r7, [sp], #4
 80014c8:	4770      	bx	lr
 80014ca:	bf00      	nop
 80014cc:	2001306c 	.word	0x2001306c

080014d0 <__NVIC_SetPriorityGrouping>:
           In case of a conflict between priority grouping and available
           priority bits (__NVIC_PRIO_BITS), the smallest possible priority group is set.
  \param [in]      PriorityGroup  Priority grouping field.
 */
__STATIC_INLINE void __NVIC_SetPriorityGrouping(uint32_t PriorityGroup)
{
 80014d0:	b480      	push	{r7}
 80014d2:	b085      	sub	sp, #20
 80014d4:	af00      	add	r7, sp, #0
 80014d6:	6078      	str	r0, [r7, #4]
  uint32_t reg_value;
  uint32_t PriorityGroupTmp = (PriorityGroup & (uint32_t)0x07UL);             /* only values 0..7 are used          */
 80014d8:	687b      	ldr	r3, [r7, #4]
 80014da:	f003 0307 	and.w	r3, r3, #7
 80014de:	60fb      	str	r3, [r7, #12]

  reg_value  =  SCB->AIRCR;                                                   /* read old register configuration    */
 80014e0:	4b0c      	ldr	r3, [pc, #48]	; (8001514 <__NVIC_SetPriorityGrouping+0x44>)
 80014e2:	68db      	ldr	r3, [r3, #12]
 80014e4:	60bb      	str	r3, [r7, #8]
  reg_value &= ~((uint32_t)(SCB_AIRCR_VECTKEY_Msk | SCB_AIRCR_PRIGROUP_Msk)); /* clear bits to change               */
 80014e6:	68ba      	ldr	r2, [r7, #8]
 80014e8:	f64f 03ff 	movw	r3, #63743	; 0xf8ff
 80014ec:	4013      	ands	r3, r2
 80014ee:	60bb      	str	r3, [r7, #8]
  reg_value  =  (reg_value                                   |
                ((uint32_t)0x5FAUL << SCB_AIRCR_VECTKEY_Pos) |
                (PriorityGroupTmp << SCB_AIRCR_PRIGROUP_Pos)  );              /* Insert write key and priority group */
 80014f0:	68fb      	ldr	r3, [r7, #12]
 80014f2:	021a      	lsls	r2, r3, #8
                ((uint32_t)0x5FAUL << SCB_AIRCR_VECTKEY_Pos) |
 80014f4:	68bb      	ldr	r3, [r7, #8]
 80014f6:	4313      	orrs	r3, r2
  reg_value  =  (reg_value                                   |
 80014f8:	f043 63bf 	orr.w	r3, r3, #100139008	; 0x5f80000
 80014fc:	f443 3300 	orr.w	r3, r3, #131072	; 0x20000
 8001500:	60bb      	str	r3, [r7, #8]
  SCB->AIRCR =  reg_value;
 8001502:	4a04      	ldr	r2, [pc, #16]	; (8001514 <__NVIC_SetPriorityGrouping+0x44>)
 8001504:	68bb      	ldr	r3, [r7, #8]
 8001506:	60d3      	str	r3, [r2, #12]
}
 8001508:	bf00      	nop
 800150a:	3714      	adds	r7, #20
 800150c:	46bd      	mov	sp, r7
 800150e:	f85d 7b04 	ldr.w	r7, [sp], #4
 8001512:	4770      	bx	lr
 8001514:	e000ed00 	.word	0xe000ed00

08001518 <__NVIC_GetPriorityGrouping>:
  \brief   Get Priority Grouping
  \details Reads the priority grouping field from the NVIC Interrupt Controller.
  \return                Priority grouping field (SCB->AIRCR [10:8] PRIGROUP field).
 */
__STATIC_INLINE uint32_t __NVIC_GetPriorityGrouping(void)
{
 8001518:	b480      	push	{r7}
 800151a:	af00      	add	r7, sp, #0
  return ((uint32_t)((SCB->AIRCR & SCB_AIRCR_PRIGROUP_Msk) >> SCB_AIRCR_PRIGROUP_Pos));
 800151c:	4b04      	ldr	r3, [pc, #16]	; (8001530 <__NVIC_GetPriorityGrouping+0x18>)
 800151e:	68db      	ldr	r3, [r3, #12]
 8001520:	0a1b      	lsrs	r3, r3, #8
 8001522:	f003 0307 	and.w	r3, r3, #7
}
 8001526:	4618      	mov	r0, r3
 8001528:	46bd      	mov	sp, r7
 800152a:	f85d 7b04 	ldr.w	r7, [sp], #4
 800152e:	4770      	bx	lr
 8001530:	e000ed00 	.word	0xe000ed00

08001534 <__NVIC_EnableIRQ>:
  \details Enables a device specific interrupt in the NVIC interrupt controller.
  \param [in]      IRQn  Device specific interrupt number.
  \note    IRQn must not be negative.
 */
__STATIC_INLINE void __NVIC_EnableIRQ(IRQn_Type IRQn)
{
 8001534:	b480      	push	{r7}
 8001536:	b083      	sub	sp, #12
 8001538:	af00      	add	r7, sp, #0
 800153a:	4603      	mov	r3, r0
 800153c:	71fb      	strb	r3, [r7, #7]
  if ((int32_t)(IRQn) >= 0)
 800153e:	f997 3007 	ldrsb.w	r3, [r7, #7]
 8001542:	2b00      	cmp	r3, #0
 8001544:	db0b      	blt.n	800155e <__NVIC_EnableIRQ+0x2a>
  {
    NVIC->ISER[(((uint32_t)IRQn) >> 5UL)] = (uint32_t)(1UL << (((uint32_t)IRQn) & 0x1FUL));
 8001546:	79fb      	ldrb	r3, [r7, #7]
 8001548:	f003 021f 	and.w	r2, r3, #31
 800154c:	4907      	ldr	r1, [pc, #28]	; (800156c <__NVIC_EnableIRQ+0x38>)
 800154e:	f997 3007 	ldrsb.w	r3, [r7, #7]
 8001552:	095b      	lsrs	r3, r3, #5
 8001554:	2001      	movs	r0, #1
 8001556:	fa00 f202 	lsl.w	r2, r0, r2
 800155a:	f841 2023 	str.w	r2, [r1, r3, lsl #2]
  }
}
 800155e:	bf00      	nop
 8001560:	370c      	adds	r7, #12
 8001562:	46bd      	mov	sp, r7
 8001564:	f85d 7b04 	ldr.w	r7, [sp], #4
 8001568:	4770      	bx	lr
 800156a:	bf00      	nop
 800156c:	e000e100 	.word	0xe000e100

08001570 <__NVIC_SetPriority>:
  \param [in]      IRQn  Interrupt number.
  \param [in]  priority  Priority to set.
  \note    The priority cannot be set for every processor exception.
 */
__STATIC_INLINE void __NVIC_SetPriority(IRQn_Type IRQn, uint32_t priority)
{
 8001570:	b480      	push	{r7}
 8001572:	b083      	sub	sp, #12
 8001574:	af00      	add	r7, sp, #0
 8001576:	4603      	mov	r3, r0
 8001578:	6039      	str	r1, [r7, #0]
 800157a:	71fb      	strb	r3, [r7, #7]
  if ((int32_t)(IRQn) >= 0)
 800157c:	f997 3007 	ldrsb.w	r3, [r7, #7]
 8001580:	2b00      	cmp	r3, #0
 8001582:	db0a      	blt.n	800159a <__NVIC_SetPriority+0x2a>
  {
    NVIC->IP[((uint32_t)IRQn)]               = (uint8_t)((priority << (8U - __NVIC_PRIO_BITS)) & (uint32_t)0xFFUL);
 8001584:	683b      	ldr	r3, [r7, #0]
 8001586:	b2da      	uxtb	r2, r3
 8001588:	490c      	ldr	r1, [pc, #48]	; (80015bc <__NVIC_SetPriority+0x4c>)
 800158a:	f997 3007 	ldrsb.w	r3, [r7, #7]
 800158e:	0112      	lsls	r2, r2, #4
 8001590:	b2d2      	uxtb	r2, r2
 8001592:	440b      	add	r3, r1
 8001594:	f883 2300 	strb.w	r2, [r3, #768]	; 0x300
  }
  else
  {
    SCB->SHP[(((uint32_t)IRQn) & 0xFUL)-4UL] = (uint8_t)((priority << (8U - __NVIC_PRIO_BITS)) & (uint32_t)0xFFUL);
  }
}
 8001598:	e00a      	b.n	80015b0 <__NVIC_SetPriority+0x40>
    SCB->SHP[(((uint32_t)IRQn) & 0xFUL)-4UL] = (uint8_t)((priority << (8U - __NVIC_PRIO_BITS)) & (uint32_t)0xFFUL);
 800159a:	683b      	ldr	r3, [r7, #0]
 800159c:	b2da      	uxtb	r2, r3
 800159e:	4908      	ldr	r1, [pc, #32]	; (80015c0 <__NVIC_SetPriority+0x50>)
 80015a0:	79fb      	ldrb	r3, [r7, #7]
 80015a2:	f003 030f 	and.w	r3, r3, #15
 80015a6:	3b04      	subs	r3, #4
 80015a8:	0112      	lsls	r2, r2, #4
 80015aa:	b2d2      	uxtb	r2, r2
 80015ac:	440b      	add	r3, r1
 80015ae:	761a      	strb	r2, [r3, #24]
}
 80015b0:	bf00      	nop
 80015b2:	370c      	adds	r7, #12
 80015b4:	46bd      	mov	sp, r7
 80015b6:	f85d 7b04 	ldr.w	r7, [sp], #4
 80015ba:	4770      	bx	lr
 80015bc:	e000e100 	.word	0xe000e100
 80015c0:	e000ed00 	.word	0xe000ed00

080015c4 <NVIC_EncodePriority>:
  \param [in]   PreemptPriority  Preemptive priority value (starting from 0).
  \param [in]       SubPriority  Subpriority value (starting from 0).
  \return                        Encoded priority. Value can be used in the function \ref NVIC_SetPriority().
 */
__STATIC_INLINE uint32_t NVIC_EncodePriority (uint32_t PriorityGroup, uint32_t PreemptPriority, uint32_t SubPriority)
{
 80015c4:	b480      	push	{r7}
 80015c6:	b089      	sub	sp, #36	; 0x24
 80015c8:	af00      	add	r7, sp, #0
 80015ca:	60f8      	str	r0, [r7, #12]
 80015cc:	60b9      	str	r1, [r7, #8]
 80015ce:	607a      	str	r2, [r7, #4]
  uint32_t PriorityGroupTmp = (PriorityGroup & (uint32_t)0x07UL);   /* only values 0..7 are used          */
 80015d0:	68fb      	ldr	r3, [r7, #12]
 80015d2:	f003 0307 	and.w	r3, r3, #7
 80015d6:	61fb      	str	r3, [r7, #28]
  uint32_t PreemptPriorityBits;
  uint32_t SubPriorityBits;

  PreemptPriorityBits = ((7UL - PriorityGroupTmp) > (uint32_t)(__NVIC_PRIO_BITS)) ? (uint32_t)(__NVIC_PRIO_BITS) : (uint32_t)(7UL - PriorityGroupTmp);
 80015d8:	69fb      	ldr	r3, [r7, #28]
 80015da:	f1c3 0307 	rsb	r3, r3, #7
 80015de:	2b04      	cmp	r3, #4
 80015e0:	bf28      	it	cs
 80015e2:	2304      	movcs	r3, #4
 80015e4:	61bb      	str	r3, [r7, #24]
  SubPriorityBits     = ((PriorityGroupTmp + (uint32_t)(__NVIC_PRIO_BITS)) < (uint32_t)7UL) ? (uint32_t)0UL : (uint32_t)((PriorityGroupTmp - 7UL) + (uint32_t)(__NVIC_PRIO_BITS));
 80015e6:	69fb      	ldr	r3, [r7, #28]
 80015e8:	3304      	adds	r3, #4
 80015ea:	2b06      	cmp	r3, #6
 80015ec:	d902      	bls.n	80015f4 <NVIC_EncodePriority+0x30>
 80015ee:	69fb      	ldr	r3, [r7, #28]
 80015f0:	3b03      	subs	r3, #3
 80015f2:	e000      	b.n	80015f6 <NVIC_EncodePriority+0x32>
 80015f4:	2300      	movs	r3, #0
 80015f6:	617b      	str	r3, [r7, #20]

  return (
           ((PreemptPriority & (uint32_t)((1UL << (PreemptPriorityBits)) - 1UL)) << SubPriorityBits) |
 80015f8:	f04f 32ff 	mov.w	r2, #4294967295
 80015fc:	69bb      	ldr	r3, [r7, #24]
 80015fe:	fa02 f303 	lsl.w	r3, r2, r3
 8001602:	43da      	mvns	r2, r3
 8001604:	68bb      	ldr	r3, [r7, #8]
 8001606:	401a      	ands	r2, r3
 8001608:	697b      	ldr	r3, [r7, #20]
 800160a:	409a      	lsls	r2, r3
           ((SubPriority     & (uint32_t)((1UL << (SubPriorityBits    )) - 1UL)))
 800160c:	f04f 31ff 	mov.w	r1, #4294967295
 8001610:	697b      	ldr	r3, [r7, #20]
 8001612:	fa01 f303 	lsl.w	r3, r1, r3
 8001616:	43d9      	mvns	r1, r3
 8001618:	687b      	ldr	r3, [r7, #4]
 800161a:	400b      	ands	r3, r1
           ((PreemptPriority & (uint32_t)((1UL << (PreemptPriorityBits)) - 1UL)) << SubPriorityBits) |
 800161c:	4313      	orrs	r3, r2
         );
}
 800161e:	4618      	mov	r0, r3
 8001620:	3724      	adds	r7, #36	; 0x24
 8001622:	46bd      	mov	sp, r7
 8001624:	f85d 7b04 	ldr.w	r7, [sp], #4
 8001628:	4770      	bx	lr
	...

0800162c <SysTick_Config>:
  \note    When the variable <b>__Vendor_SysTickConfig</b> is set to 1, then the
           function <b>SysTick_Config</b> is not included. In this case, the file <b><i>device</i>.h</b>
           must contain a vendor-specific implementation of this function.
 */
__STATIC_INLINE uint32_t SysTick_Config(uint32_t ticks)
{
 800162c:	b580      	push	{r7, lr}
 800162e:	b082      	sub	sp, #8
 8001630:	af00      	add	r7, sp, #0
 8001632:	6078      	str	r0, [r7, #4]
  if ((ticks - 1UL) > SysTick_LOAD_RELOAD_Msk)
 8001634:	687b      	ldr	r3, [r7, #4]
 8001636:	3b01      	subs	r3, #1
 8001638:	f1b3 7f80 	cmp.w	r3, #16777216	; 0x1000000
 800163c:	d301      	bcc.n	8001642 <SysTick_Config+0x16>
  {
    return (1UL);                                                   /* Reload value impossible */
 800163e:	2301      	movs	r3, #1
 8001640:	e00f      	b.n	8001662 <SysTick_Config+0x36>
  }

  SysTick->LOAD  = (uint32_t)(ticks - 1UL);                         /* set reload register */
 8001642:	4a0a      	ldr	r2, [pc, #40]	; (800166c <SysTick_Config+0x40>)
 8001644:	687b      	ldr	r3, [r7, #4]
 8001646:	3b01      	subs	r3, #1
 8001648:	6053      	str	r3, [r2, #4]
  NVIC_SetPriority (SysTick_IRQn, (1UL << __NVIC_PRIO_BITS) - 1UL); /* set Priority for Systick Interrupt */
 800164a:	210f      	movs	r1, #15
 800164c:	f04f 30ff 	mov.w	r0, #4294967295
 8001650:	f7ff ff8e 	bl	8001570 <__NVIC_SetPriority>
  SysTick->VAL   = 0UL;                                             /* Load the SysTick Counter Value */
 8001654:	4b05      	ldr	r3, [pc, #20]	; (800166c <SysTick_Config+0x40>)
 8001656:	2200      	movs	r2, #0
 8001658:	609a      	str	r2, [r3, #8]
  SysTick->CTRL  = SysTick_CTRL_CLKSOURCE_Msk |
 800165a:	4b04      	ldr	r3, [pc, #16]	; (800166c <SysTick_Config+0x40>)
 800165c:	2207      	movs	r2, #7
 800165e:	601a      	str	r2, [r3, #0]
                   SysTick_CTRL_TICKINT_Msk   |
                   SysTick_CTRL_ENABLE_Msk;                         /* Enable SysTick IRQ and SysTick Timer */
  return (0UL);                                                     /* Function successful */
 8001660:	2300      	movs	r3, #0
}
 8001662:	4618      	mov	r0, r3
 8001664:	3708      	adds	r7, #8
 8001666:	46bd      	mov	sp, r7
 8001668:	bd80      	pop	{r7, pc}
 800166a:	bf00      	nop
 800166c:	e000e010 	.word	0xe000e010

08001670 <HAL_NVIC_SetPriorityGrouping>:
  * @note   When the NVIC_PriorityGroup_0 is selected, IRQ preemption is no more possible. 
  *         The pending IRQ priority will be managed only by the subpriority. 
  * @retval None
  */
void HAL_NVIC_SetPriorityGrouping(uint32_t PriorityGroup)
{
 8001670:	b580      	push	{r7, lr}
 8001672:	b082      	sub	sp, #8
 8001674:	af00      	add	r7, sp, #0
 8001676:	6078      	str	r0, [r7, #4]
  /* Check the parameters */
  assert_param(IS_NVIC_PRIORITY_GROUP(PriorityGroup));
  
  /* Set the PRIGROUP[10:8] bits according to the PriorityGroup parameter value */
  NVIC_SetPriorityGrouping(PriorityGroup);
 8001678:	6878      	ldr	r0, [r7, #4]
 800167a:	f7ff ff29 	bl	80014d0 <__NVIC_SetPriorityGrouping>
}
 800167e:	bf00      	nop
 8001680:	3708      	adds	r7, #8
 8001682:	46bd      	mov	sp, r7
 8001684:	bd80      	pop	{r7, pc}

08001686 <HAL_NVIC_SetPriority>:
  *         This parameter can be a value between 0 and 15
  *         A lower priority value indicates a higher priority.          
  * @retval None
  */
void HAL_NVIC_SetPriority(IRQn_Type IRQn, uint32_t PreemptPriority, uint32_t SubPriority)
{ 
 8001686:	b580      	push	{r7, lr}
 8001688:	b086      	sub	sp, #24
 800168a:	af00      	add	r7, sp, #0
 800168c:	4603      	mov	r3, r0
 800168e:	60b9      	str	r1, [r7, #8]
 8001690:	607a      	str	r2, [r7, #4]
 8001692:	73fb      	strb	r3, [r7, #15]
  uint32_t prioritygroup = 0x00U;
 8001694:	2300      	movs	r3, #0
 8001696:	617b      	str	r3, [r7, #20]
  
  /* Check the parameters */
  assert_param(IS_NVIC_SUB_PRIORITY(SubPriority));
  assert_param(IS_NVIC_PREEMPTION_PRIORITY(PreemptPriority));
  
  prioritygroup = NVIC_GetPriorityGrouping();
 8001698:	f7ff ff3e 	bl	8001518 <__NVIC_GetPriorityGrouping>
 800169c:	6178      	str	r0, [r7, #20]
  
  NVIC_SetPriority(IRQn, NVIC_EncodePriority(prioritygroup, PreemptPriority, SubPriority));
 800169e:	687a      	ldr	r2, [r7, #4]
 80016a0:	68b9      	ldr	r1, [r7, #8]
 80016a2:	6978      	ldr	r0, [r7, #20]
 80016a4:	f7ff ff8e 	bl	80015c4 <NVIC_EncodePriority>
 80016a8:	4602      	mov	r2, r0
 80016aa:	f997 300f 	ldrsb.w	r3, [r7, #15]
 80016ae:	4611      	mov	r1, r2
 80016b0:	4618      	mov	r0, r3
 80016b2:	f7ff ff5d 	bl	8001570 <__NVIC_SetPriority>
}
 80016b6:	bf00      	nop
 80016b8:	3718      	adds	r7, #24
 80016ba:	46bd      	mov	sp, r7
 80016bc:	bd80      	pop	{r7, pc}

080016be <HAL_NVIC_EnableIRQ>:
  *         This parameter can be an enumerator of IRQn_Type enumeration
  *         (For the complete STM32 Devices IRQ Channels list, please refer to the appropriate CMSIS device file (stm32f4xxxx.h))
  * @retval None
  */
void HAL_NVIC_EnableIRQ(IRQn_Type IRQn)
{
 80016be:	b580      	push	{r7, lr}
 80016c0:	b082      	sub	sp, #8
 80016c2:	af00      	add	r7, sp, #0
 80016c4:	4603      	mov	r3, r0
 80016c6:	71fb      	strb	r3, [r7, #7]
  /* Check the parameters */
  assert_param(IS_NVIC_DEVICE_IRQ(IRQn));
  
  /* Enable interrupt */
  NVIC_EnableIRQ(IRQn);
 80016c8:	f997 3007 	ldrsb.w	r3, [r7, #7]
 80016cc:	4618      	mov	r0, r3
 80016ce:	f7ff ff31 	bl	8001534 <__NVIC_EnableIRQ>
}
 80016d2:	bf00      	nop
 80016d4:	3708      	adds	r7, #8
 80016d6:	46bd      	mov	sp, r7
 80016d8:	bd80      	pop	{r7, pc}

080016da <HAL_SYSTICK_Config>:
  * @param  TicksNumb Specifies the ticks Number of ticks between two interrupts.
  * @retval status:  - 0  Function succeeded.
  *                  - 1  Function failed.
  */
uint32_t HAL_SYSTICK_Config(uint32_t TicksNumb)
{
 80016da:	b580      	push	{r7, lr}
 80016dc:	b082      	sub	sp, #8
 80016de:	af00      	add	r7, sp, #0
 80016e0:	6078      	str	r0, [r7, #4]
   return SysTick_Config(TicksNumb);
 80016e2:	6878      	ldr	r0, [r7, #4]
 80016e4:	f7ff ffa2 	bl	800162c <SysTick_Config>
 80016e8:	4603      	mov	r3, r0
}
 80016ea:	4618      	mov	r0, r3
 80016ec:	3708      	adds	r7, #8
 80016ee:	46bd      	mov	sp, r7
 80016f0:	bd80      	pop	{r7, pc}
	...

080016f4 <HAL_DMA_Init>:
  * @param  hdma Pointer to a DMA_HandleTypeDef structure that contains
  *               the configuration information for the specified DMA Stream.  
  * @retval HAL status
  */
HAL_StatusTypeDef HAL_DMA_Init(DMA_HandleTypeDef *hdma)
{
 80016f4:	b580      	push	{r7, lr}
 80016f6:	b086      	sub	sp, #24
 80016f8:	af00      	add	r7, sp, #0
 80016fa:	6078      	str	r0, [r7, #4]
  uint32_t tmp = 0U;
 80016fc:	2300      	movs	r3, #0
 80016fe:	617b      	str	r3, [r7, #20]
  uint32_t tickstart = HAL_GetTick();
 8001700:	f7ff feda 	bl	80014b8 <HAL_GetTick>
 8001704:	6138      	str	r0, [r7, #16]
  DMA_Base_Registers *regs;

  /* Check the DMA peripheral state */
  if(hdma == NULL)
 8001706:	687b      	ldr	r3, [r7, #4]
 8001708:	2b00      	cmp	r3, #0
 800170a:	d101      	bne.n	8001710 <HAL_DMA_Init+0x1c>
  {
    return HAL_ERROR;
 800170c:	2301      	movs	r3, #1
 800170e:	e099      	b.n	8001844 <HAL_DMA_Init+0x150>
    assert_param(IS_DMA_MEMORY_BURST(hdma->Init.MemBurst));
    assert_param(IS_DMA_PERIPHERAL_BURST(hdma->Init.PeriphBurst));
  }
  
  /* Allocate lock resource */
  __HAL_UNLOCK(hdma);
 8001710:	687b      	ldr	r3, [r7, #4]
 8001712:	2200      	movs	r2, #0
 8001714:	f883 2034 	strb.w	r2, [r3, #52]	; 0x34

  /* Change DMA peripheral state */
  hdma->State = HAL_DMA_STATE_BUSY;
 8001718:	687b      	ldr	r3, [r7, #4]
 800171a:	2202      	movs	r2, #2
 800171c:	f883 2035 	strb.w	r2, [r3, #53]	; 0x35
  
  /* Disable the peripheral */
  __HAL_DMA_DISABLE(hdma);
 8001720:	687b      	ldr	r3, [r7, #4]
 8001722:	681b      	ldr	r3, [r3, #0]
 8001724:	681a      	ldr	r2, [r3, #0]
 8001726:	687b      	ldr	r3, [r7, #4]
 8001728:	681b      	ldr	r3, [r3, #0]
 800172a:	f022 0201 	bic.w	r2, r2, #1
 800172e:	601a      	str	r2, [r3, #0]
  
  /* Check if the DMA Stream is effectively disabled */
  while((hdma->Instance->CR & DMA_SxCR_EN) != RESET)
 8001730:	e00f      	b.n	8001752 <HAL_DMA_Init+0x5e>
  {
    /* Check for the Timeout */
    if((HAL_GetTick() - tickstart ) > HAL_TIMEOUT_DMA_ABORT)
 8001732:	f7ff fec1 	bl	80014b8 <HAL_GetTick>
 8001736:	4602      	mov	r2, r0
 8001738:	693b      	ldr	r3, [r7, #16]
 800173a:	1ad3      	subs	r3, r2, r3
 800173c:	2b05      	cmp	r3, #5
 800173e:	d908      	bls.n	8001752 <HAL_DMA_Init+0x5e>
    {
      /* Update error code */
      hdma->ErrorCode = HAL_DMA_ERROR_TIMEOUT;
 8001740:	687b      	ldr	r3, [r7, #4]
 8001742:	2220      	movs	r2, #32
 8001744:	655a      	str	r2, [r3, #84]	; 0x54
      
      /* Change the DMA state */
      hdma->State = HAL_DMA_STATE_TIMEOUT;
 8001746:	687b      	ldr	r3, [r7, #4]
 8001748:	2203      	movs	r2, #3
 800174a:	f883 2035 	strb.w	r2, [r3, #53]	; 0x35
      
      return HAL_TIMEOUT;
 800174e:	2303      	movs	r3, #3
 8001750:	e078      	b.n	8001844 <HAL_DMA_Init+0x150>
  while((hdma->Instance->CR & DMA_SxCR_EN) != RESET)
 8001752:	687b      	ldr	r3, [r7, #4]
 8001754:	681b      	ldr	r3, [r3, #0]
 8001756:	681b      	ldr	r3, [r3, #0]
 8001758:	f003 0301 	and.w	r3, r3, #1
 800175c:	2b00      	cmp	r3, #0
 800175e:	d1e8      	bne.n	8001732 <HAL_DMA_Init+0x3e>
    }
  }
  
  /* Get the CR register value */
  tmp = hdma->Instance->CR;
 8001760:	687b      	ldr	r3, [r7, #4]
 8001762:	681b      	ldr	r3, [r3, #0]
 8001764:	681b      	ldr	r3, [r3, #0]
 8001766:	617b      	str	r3, [r7, #20]

  /* Clear CHSEL, MBURST, PBURST, PL, MSIZE, PSIZE, MINC, PINC, CIRC, DIR, CT and DBM bits */
  tmp &= ((uint32_t)~(DMA_SxCR_CHSEL | DMA_SxCR_MBURST | DMA_SxCR_PBURST | \
 8001768:	697a      	ldr	r2, [r7, #20]
 800176a:	4b38      	ldr	r3, [pc, #224]	; (800184c <HAL_DMA_Init+0x158>)
 800176c:	4013      	ands	r3, r2
 800176e:	617b      	str	r3, [r7, #20]
                      DMA_SxCR_PL    | DMA_SxCR_MSIZE  | DMA_SxCR_PSIZE  | \
                      DMA_SxCR_MINC  | DMA_SxCR_PINC   | DMA_SxCR_CIRC   | \
                      DMA_SxCR_DIR   | DMA_SxCR_CT     | DMA_SxCR_DBM));

  /* Prepare the DMA Stream configuration */
  tmp |=  hdma->Init.Channel             | hdma->Init.Direction        |
 8001770:	687b      	ldr	r3, [r7, #4]
 8001772:	685a      	ldr	r2, [r3, #4]
 8001774:	687b      	ldr	r3, [r7, #4]
 8001776:	689b      	ldr	r3, [r3, #8]
 8001778:	431a      	orrs	r2, r3
          hdma->Init.PeriphInc           | hdma->Init.MemInc           |
 800177a:	687b      	ldr	r3, [r7, #4]
 800177c:	68db      	ldr	r3, [r3, #12]
  tmp |=  hdma->Init.Channel             | hdma->Init.Direction        |
 800177e:	431a      	orrs	r2, r3
          hdma->Init.PeriphInc           | hdma->Init.MemInc           |
 8001780:	687b      	ldr	r3, [r7, #4]
 8001782:	691b      	ldr	r3, [r3, #16]
 8001784:	431a      	orrs	r2, r3
          hdma->Init.PeriphDataAlignment | hdma->Init.MemDataAlignment |
 8001786:	687b      	ldr	r3, [r7, #4]
 8001788:	695b      	ldr	r3, [r3, #20]
          hdma->Init.PeriphInc           | hdma->Init.MemInc           |
 800178a:	431a      	orrs	r2, r3
          hdma->Init.PeriphDataAlignment | hdma->Init.MemDataAlignment |
 800178c:	687b      	ldr	r3, [r7, #4]
 800178e:	699b      	ldr	r3, [r3, #24]
 8001790:	431a      	orrs	r2, r3
          hdma->Init.Mode                | hdma->Init.Priority;
 8001792:	687b      	ldr	r3, [r7, #4]
 8001794:	69db      	ldr	r3, [r3, #28]
          hdma->Init.PeriphDataAlignment | hdma->Init.MemDataAlignment |
 8001796:	431a      	orrs	r2, r3
          hdma->Init.Mode                | hdma->Init.Priority;
 8001798:	687b      	ldr	r3, [r7, #4]
 800179a:	6a1b      	ldr	r3, [r3, #32]
 800179c:	4313      	orrs	r3, r2
  tmp |=  hdma->Init.Channel             | hdma->Init.Direction        |
 800179e:	697a      	ldr	r2, [r7, #20]
 80017a0:	4313      	orrs	r3, r2
 80017a2:	617b      	str	r3, [r7, #20]

  /* the Memory burst and peripheral burst are not used when the FIFO is disabled */
  if(hdma->Init.FIFOMode == DMA_FIFOMODE_ENABLE)
 80017a4:	687b      	ldr	r3, [r7, #4]
 80017a6:	6a5b      	ldr	r3, [r3, #36]	; 0x24
 80017a8:	2b04      	cmp	r3, #4
 80017aa:	d107      	bne.n	80017bc <HAL_DMA_Init+0xc8>
  {
    /* Get memory burst and peripheral burst */
    tmp |=  hdma->Init.MemBurst | hdma->Init.PeriphBurst;
 80017ac:	687b      	ldr	r3, [r7, #4]
 80017ae:	6ada      	ldr	r2, [r3, #44]	; 0x2c
 80017b0:	687b      	ldr	r3, [r7, #4]
 80017b2:	6b1b      	ldr	r3, [r3, #48]	; 0x30
 80017b4:	4313      	orrs	r3, r2
 80017b6:	697a      	ldr	r2, [r7, #20]
 80017b8:	4313      	orrs	r3, r2
 80017ba:	617b      	str	r3, [r7, #20]
  }
  
  /* Write to DMA Stream CR register */
  hdma->Instance->CR = tmp;  
 80017bc:	687b      	ldr	r3, [r7, #4]
 80017be:	681b      	ldr	r3, [r3, #0]
 80017c0:	697a      	ldr	r2, [r7, #20]
 80017c2:	601a      	str	r2, [r3, #0]

  /* Get the FCR register value */
  tmp = hdma->Instance->FCR;
 80017c4:	687b      	ldr	r3, [r7, #4]
 80017c6:	681b      	ldr	r3, [r3, #0]
 80017c8:	695b      	ldr	r3, [r3, #20]
 80017ca:	617b      	str	r3, [r7, #20]

  /* Clear Direct mode and FIFO threshold bits */
  tmp &= (uint32_t)~(DMA_SxFCR_DMDIS | DMA_SxFCR_FTH);
 80017cc:	697b      	ldr	r3, [r7, #20]
 80017ce:	f023 0307 	bic.w	r3, r3, #7
 80017d2:	617b      	str	r3, [r7, #20]

  /* Prepare the DMA Stream FIFO configuration */
  tmp |= hdma->Init.FIFOMode;
 80017d4:	687b      	ldr	r3, [r7, #4]
 80017d6:	6a5b      	ldr	r3, [r3, #36]	; 0x24
 80017d8:	697a      	ldr	r2, [r7, #20]
 80017da:	4313      	orrs	r3, r2
 80017dc:	617b      	str	r3, [r7, #20]

  /* The FIFO threshold is not used when the FIFO mode is disabled */
  if(hdma->Init.FIFOMode == DMA_FIFOMODE_ENABLE)
 80017de:	687b      	ldr	r3, [r7, #4]
 80017e0:	6a5b      	ldr	r3, [r3, #36]	; 0x24
 80017e2:	2b04      	cmp	r3, #4
 80017e4:	d117      	bne.n	8001816 <HAL_DMA_Init+0x122>
  {
    /* Get the FIFO threshold */
    tmp |= hdma->Init.FIFOThreshold;
 80017e6:	687b      	ldr	r3, [r7, #4]
 80017e8:	6a9b      	ldr	r3, [r3, #40]	; 0x28
 80017ea:	697a      	ldr	r2, [r7, #20]
 80017ec:	4313      	orrs	r3, r2
 80017ee:	617b      	str	r3, [r7, #20]
    
    /* Check compatibility between FIFO threshold level and size of the memory burst */
    /* for INCR4, INCR8, INCR16 bursts */
    if (hdma->Init.MemBurst != DMA_MBURST_SINGLE)
 80017f0:	687b      	ldr	r3, [r7, #4]
 80017f2:	6adb      	ldr	r3, [r3, #44]	; 0x2c
 80017f4:	2b00      	cmp	r3, #0
 80017f6:	d00e      	beq.n	8001816 <HAL_DMA_Init+0x122>
    {
      if (DMA_CheckFifoParam(hdma) != HAL_OK)
 80017f8:	6878      	ldr	r0, [r7, #4]
 80017fa:	f000 fb01 	bl	8001e00 <DMA_CheckFifoParam>
 80017fe:	4603      	mov	r3, r0
 8001800:	2b00      	cmp	r3, #0
 8001802:	d008      	beq.n	8001816 <HAL_DMA_Init+0x122>
      {
        /* Update error code */
        hdma->ErrorCode = HAL_DMA_ERROR_PARAM;
 8001804:	687b      	ldr	r3, [r7, #4]
 8001806:	2240      	movs	r2, #64	; 0x40
 8001808:	655a      	str	r2, [r3, #84]	; 0x54
        
        /* Change the DMA state */
        hdma->State = HAL_DMA_STATE_READY;
 800180a:	687b      	ldr	r3, [r7, #4]
 800180c:	2201      	movs	r2, #1
 800180e:	f883 2035 	strb.w	r2, [r3, #53]	; 0x35
        
        return HAL_ERROR; 
 8001812:	2301      	movs	r3, #1
 8001814:	e016      	b.n	8001844 <HAL_DMA_Init+0x150>
      }
    }
  }
  
  /* Write to DMA Stream FCR */
  hdma->Instance->FCR = tmp;
 8001816:	687b      	ldr	r3, [r7, #4]
 8001818:	681b      	ldr	r3, [r3, #0]
 800181a:	697a      	ldr	r2, [r7, #20]
 800181c:	615a      	str	r2, [r3, #20]

  /* Initialize StreamBaseAddress and StreamIndex parameters to be used to calculate
     DMA steam Base Address needed by HAL_DMA_IRQHandler() and HAL_DMA_PollForTransfer() */
  regs = (DMA_Base_Registers *)DMA_CalcBaseAndBitshift(hdma);
 800181e:	6878      	ldr	r0, [r7, #4]
 8001820:	f000 fab8 	bl	8001d94 <DMA_CalcBaseAndBitshift>
 8001824:	4603      	mov	r3, r0
 8001826:	60fb      	str	r3, [r7, #12]
  
  /* Clear all interrupt flags */
  regs->IFCR = 0x3FU << hdma->StreamIndex;
 8001828:	687b      	ldr	r3, [r7, #4]
 800182a:	6ddb      	ldr	r3, [r3, #92]	; 0x5c
 800182c:	223f      	movs	r2, #63	; 0x3f
 800182e:	409a      	lsls	r2, r3
 8001830:	68fb      	ldr	r3, [r7, #12]
 8001832:	609a      	str	r2, [r3, #8]

  /* Initialize the error code */
  hdma->ErrorCode = HAL_DMA_ERROR_NONE;
 8001834:	687b      	ldr	r3, [r7, #4]
 8001836:	2200      	movs	r2, #0
 8001838:	655a      	str	r2, [r3, #84]	; 0x54
                                                                                     
  /* Initialize the DMA state */
  hdma->State = HAL_DMA_STATE_READY;
 800183a:	687b      	ldr	r3, [r7, #4]
 800183c:	2201      	movs	r2, #1
 800183e:	f883 2035 	strb.w	r2, [r3, #53]	; 0x35

  return HAL_OK;
 8001842:	2300      	movs	r3, #0
}
 8001844:	4618      	mov	r0, r3
 8001846:	3718      	adds	r7, #24
 8001848:	46bd      	mov	sp, r7
 800184a:	bd80      	pop	{r7, pc}
 800184c:	f010803f 	.word	0xf010803f

08001850 <HAL_DMA_Start_IT>:
  * @param  DstAddress The destination memory Buffer address
  * @param  DataLength The length of data to be transferred from source to destination
  * @retval HAL status
  */
HAL_StatusTypeDef HAL_DMA_Start_IT(DMA_HandleTypeDef *hdma, uint32_t SrcAddress, uint32_t DstAddress, uint32_t DataLength)
{
 8001850:	b580      	push	{r7, lr}
 8001852:	b086      	sub	sp, #24
 8001854:	af00      	add	r7, sp, #0
 8001856:	60f8      	str	r0, [r7, #12]
 8001858:	60b9      	str	r1, [r7, #8]
 800185a:	607a      	str	r2, [r7, #4]
 800185c:	603b      	str	r3, [r7, #0]
  HAL_StatusTypeDef status = HAL_OK;
 800185e:	2300      	movs	r3, #0
 8001860:	75fb      	strb	r3, [r7, #23]

  /* calculate DMA base and stream number */
  DMA_Base_Registers *regs = (DMA_Base_Registers *)hdma->StreamBaseAddress;
 8001862:	68fb      	ldr	r3, [r7, #12]
 8001864:	6d9b      	ldr	r3, [r3, #88]	; 0x58
 8001866:	613b      	str	r3, [r7, #16]
  
  /* Check the parameters */
  assert_param(IS_DMA_BUFFER_SIZE(DataLength));
 
  /* Process locked */
  __HAL_LOCK(hdma);
 8001868:	68fb      	ldr	r3, [r7, #12]
 800186a:	f893 3034 	ldrb.w	r3, [r3, #52]	; 0x34
 800186e:	2b01      	cmp	r3, #1
 8001870:	d101      	bne.n	8001876 <HAL_DMA_Start_IT+0x26>
 8001872:	2302      	movs	r3, #2
 8001874:	e040      	b.n	80018f8 <HAL_DMA_Start_IT+0xa8>
 8001876:	68fb      	ldr	r3, [r7, #12]
 8001878:	2201      	movs	r2, #1
 800187a:	f883 2034 	strb.w	r2, [r3, #52]	; 0x34
  
  if(HAL_DMA_STATE_READY == hdma->State)
 800187e:	68fb      	ldr	r3, [r7, #12]
 8001880:	f893 3035 	ldrb.w	r3, [r3, #53]	; 0x35
 8001884:	b2db      	uxtb	r3, r3
 8001886:	2b01      	cmp	r3, #1
 8001888:	d12f      	bne.n	80018ea <HAL_DMA_Start_IT+0x9a>
  {
    /* Change DMA peripheral state */
    hdma->State = HAL_DMA_STATE_BUSY;
 800188a:	68fb      	ldr	r3, [r7, #12]
 800188c:	2202      	movs	r2, #2
 800188e:	f883 2035 	strb.w	r2, [r3, #53]	; 0x35
    
    /* Initialize the error code */
    hdma->ErrorCode = HAL_DMA_ERROR_NONE;
 8001892:	68fb      	ldr	r3, [r7, #12]
 8001894:	2200      	movs	r2, #0
 8001896:	655a      	str	r2, [r3, #84]	; 0x54
    
    /* Configure the source, destination address and the data length */
    DMA_SetConfig(hdma, SrcAddress, DstAddress, DataLength);
 8001898:	683b      	ldr	r3, [r7, #0]
 800189a:	687a      	ldr	r2, [r7, #4]
 800189c:	68b9      	ldr	r1, [r7, #8]
 800189e:	68f8      	ldr	r0, [r7, #12]
 80018a0:	f000 fa4a 	bl	8001d38 <DMA_SetConfig>
    
    /* Clear all interrupt flags at correct offset within the register */
    regs->IFCR = 0x3FU << hdma->StreamIndex;
 80018a4:	68fb      	ldr	r3, [r7, #12]
 80018a6:	6ddb      	ldr	r3, [r3, #92]	; 0x5c
 80018a8:	223f      	movs	r2, #63	; 0x3f
 80018aa:	409a      	lsls	r2, r3
 80018ac:	693b      	ldr	r3, [r7, #16]
 80018ae:	609a      	str	r2, [r3, #8]
    
    /* Enable Common interrupts*/
    hdma->Instance->CR  |= DMA_IT_TC | DMA_IT_TE | DMA_IT_DME;
 80018b0:	68fb      	ldr	r3, [r7, #12]
 80018b2:	681b      	ldr	r3, [r3, #0]
 80018b4:	681a      	ldr	r2, [r3, #0]
 80018b6:	68fb      	ldr	r3, [r7, #12]
 80018b8:	681b      	ldr	r3, [r3, #0]
 80018ba:	f042 0216 	orr.w	r2, r2, #22
 80018be:	601a      	str	r2, [r3, #0]
    
    if(hdma->XferHalfCpltCallback != NULL)
 80018c0:	68fb      	ldr	r3, [r7, #12]
 80018c2:	6c1b      	ldr	r3, [r3, #64]	; 0x40
 80018c4:	2b00      	cmp	r3, #0
 80018c6:	d007      	beq.n	80018d8 <HAL_DMA_Start_IT+0x88>
    {
      hdma->Instance->CR  |= DMA_IT_HT;
 80018c8:	68fb      	ldr	r3, [r7, #12]
 80018ca:	681b      	ldr	r3, [r3, #0]
 80018cc:	681a      	ldr	r2, [r3, #0]
 80018ce:	68fb      	ldr	r3, [r7, #12]
 80018d0:	681b      	ldr	r3, [r3, #0]
 80018d2:	f042 0208 	orr.w	r2, r2, #8
 80018d6:	601a      	str	r2, [r3, #0]
    }
    
    /* Enable the Peripheral */
    __HAL_DMA_ENABLE(hdma);
 80018d8:	68fb      	ldr	r3, [r7, #12]
 80018da:	681b      	ldr	r3, [r3, #0]
 80018dc:	681a      	ldr	r2, [r3, #0]
 80018de:	68fb      	ldr	r3, [r7, #12]
 80018e0:	681b      	ldr	r3, [r3, #0]
 80018e2:	f042 0201 	orr.w	r2, r2, #1
 80018e6:	601a      	str	r2, [r3, #0]
 80018e8:	e005      	b.n	80018f6 <HAL_DMA_Start_IT+0xa6>
  }
  else
  {
    /* Process unlocked */
    __HAL_UNLOCK(hdma);	  
 80018ea:	68fb      	ldr	r3, [r7, #12]
 80018ec:	2200      	movs	r2, #0
 80018ee:	f883 2034 	strb.w	r2, [r3, #52]	; 0x34
    
    /* Return error status */
    status = HAL_BUSY;
 80018f2:	2302      	movs	r3, #2
 80018f4:	75fb      	strb	r3, [r7, #23]
  }
  
  return status;
 80018f6:	7dfb      	ldrb	r3, [r7, #23]
}
 80018f8:	4618      	mov	r0, r3
 80018fa:	3718      	adds	r7, #24
 80018fc:	46bd      	mov	sp, r7
 80018fe:	bd80      	pop	{r7, pc}

08001900 <HAL_DMA_Abort>:
  *        and the Stream will be effectively disabled only after the transfer of
  *        this single data is finished.  
  * @retval HAL status
  */
HAL_StatusTypeDef HAL_DMA_Abort(DMA_HandleTypeDef *hdma)
{
 8001900:	b580      	push	{r7, lr}
 8001902:	b084      	sub	sp, #16
 8001904:	af00      	add	r7, sp, #0
 8001906:	6078      	str	r0, [r7, #4]
  /* calculate DMA base and stream number */
  DMA_Base_Registers *regs = (DMA_Base_Registers *)hdma->StreamBaseAddress;
 8001908:	687b      	ldr	r3, [r7, #4]
 800190a:	6d9b      	ldr	r3, [r3, #88]	; 0x58
 800190c:	60fb      	str	r3, [r7, #12]
  
  uint32_t tickstart = HAL_GetTick();
 800190e:	f7ff fdd3 	bl	80014b8 <HAL_GetTick>
 8001912:	60b8      	str	r0, [r7, #8]
  
  if(hdma->State != HAL_DMA_STATE_BUSY)
 8001914:	687b      	ldr	r3, [r7, #4]
 8001916:	f893 3035 	ldrb.w	r3, [r3, #53]	; 0x35
 800191a:	b2db      	uxtb	r3, r3
 800191c:	2b02      	cmp	r3, #2
 800191e:	d008      	beq.n	8001932 <HAL_DMA_Abort+0x32>
  {
    hdma->ErrorCode = HAL_DMA_ERROR_NO_XFER;
 8001920:	687b      	ldr	r3, [r7, #4]
 8001922:	2280      	movs	r2, #128	; 0x80
 8001924:	655a      	str	r2, [r3, #84]	; 0x54
    
    /* Process Unlocked */
    __HAL_UNLOCK(hdma);
 8001926:	687b      	ldr	r3, [r7, #4]
 8001928:	2200      	movs	r2, #0
 800192a:	f883 2034 	strb.w	r2, [r3, #52]	; 0x34
    
    return HAL_ERROR;
 800192e:	2301      	movs	r3, #1
 8001930:	e052      	b.n	80019d8 <HAL_DMA_Abort+0xd8>
  }
  else
  {
    /* Disable all the transfer interrupts */
    hdma->Instance->CR  &= ~(DMA_IT_TC | DMA_IT_TE | DMA_IT_DME);
 8001932:	687b      	ldr	r3, [r7, #4]
 8001934:	681b      	ldr	r3, [r3, #0]
 8001936:	681a      	ldr	r2, [r3, #0]
 8001938:	687b      	ldr	r3, [r7, #4]
 800193a:	681b      	ldr	r3, [r3, #0]
 800193c:	f022 0216 	bic.w	r2, r2, #22
 8001940:	601a      	str	r2, [r3, #0]
    hdma->Instance->FCR &= ~(DMA_IT_FE);
 8001942:	687b      	ldr	r3, [r7, #4]
 8001944:	681b      	ldr	r3, [r3, #0]
 8001946:	695a      	ldr	r2, [r3, #20]
 8001948:	687b      	ldr	r3, [r7, #4]
 800194a:	681b      	ldr	r3, [r3, #0]
 800194c:	f022 0280 	bic.w	r2, r2, #128	; 0x80
 8001950:	615a      	str	r2, [r3, #20]
    
    if((hdma->XferHalfCpltCallback != NULL) || (hdma->XferM1HalfCpltCallback != NULL))
 8001952:	687b      	ldr	r3, [r7, #4]
 8001954:	6c1b      	ldr	r3, [r3, #64]	; 0x40
 8001956:	2b00      	cmp	r3, #0
 8001958:	d103      	bne.n	8001962 <HAL_DMA_Abort+0x62>
 800195a:	687b      	ldr	r3, [r7, #4]
 800195c:	6c9b      	ldr	r3, [r3, #72]	; 0x48
 800195e:	2b00      	cmp	r3, #0
 8001960:	d007      	beq.n	8001972 <HAL_DMA_Abort+0x72>
    {
      hdma->Instance->CR  &= ~(DMA_IT_HT);
 8001962:	687b      	ldr	r3, [r7, #4]
 8001964:	681b      	ldr	r3, [r3, #0]
 8001966:	681a      	ldr	r2, [r3, #0]
 8001968:	687b      	ldr	r3, [r7, #4]
 800196a:	681b      	ldr	r3, [r3, #0]
 800196c:	f022 0208 	bic.w	r2, r2, #8
 8001970:	601a      	str	r2, [r3, #0]
    }
    
    /* Disable the stream */
    __HAL_DMA_DISABLE(hdma);
 8001972:	687b      	ldr	r3, [r7, #4]
 8001974:	681b      	ldr	r3, [r3, #0]
 8001976:	681a      	ldr	r2, [r3, #0]
 8001978:	687b      	ldr	r3, [r7, #4]
 800197a:	681b      	ldr	r3, [r3, #0]
 800197c:	f022 0201 	bic.w	r2, r2, #1
 8001980:	601a      	str	r2, [r3, #0]
    
    /* Check if the DMA Stream is effectively disabled */
    while((hdma->Instance->CR & DMA_SxCR_EN) != RESET)
 8001982:	e013      	b.n	80019ac <HAL_DMA_Abort+0xac>
    {
      /* Check for the Timeout */
      if((HAL_GetTick() - tickstart ) > HAL_TIMEOUT_DMA_ABORT)
 8001984:	f7ff fd98 	bl	80014b8 <HAL_GetTick>
 8001988:	4602      	mov	r2, r0
 800198a:	68bb      	ldr	r3, [r7, #8]
 800198c:	1ad3      	subs	r3, r2, r3
 800198e:	2b05      	cmp	r3, #5
 8001990:	d90c      	bls.n	80019ac <HAL_DMA_Abort+0xac>
      {
        /* Update error code */
        hdma->ErrorCode = HAL_DMA_ERROR_TIMEOUT;
 8001992:	687b      	ldr	r3, [r7, #4]
 8001994:	2220      	movs	r2, #32
 8001996:	655a      	str	r2, [r3, #84]	; 0x54
        
        /* Process Unlocked */
        __HAL_UNLOCK(hdma);
 8001998:	687b      	ldr	r3, [r7, #4]
 800199a:	2200      	movs	r2, #0
 800199c:	f883 2034 	strb.w	r2, [r3, #52]	; 0x34
        
        /* Change the DMA state */
        hdma->State = HAL_DMA_STATE_TIMEOUT;
 80019a0:	687b      	ldr	r3, [r7, #4]
 80019a2:	2203      	movs	r2, #3
 80019a4:	f883 2035 	strb.w	r2, [r3, #53]	; 0x35
        
        return HAL_TIMEOUT;
 80019a8:	2303      	movs	r3, #3
 80019aa:	e015      	b.n	80019d8 <HAL_DMA_Abort+0xd8>
    while((hdma->Instance->CR & DMA_SxCR_EN) != RESET)
 80019ac:	687b      	ldr	r3, [r7, #4]
 80019ae:	681b      	ldr	r3, [r3, #0]
 80019b0:	681b      	ldr	r3, [r3, #0]
 80019b2:	f003 0301 	and.w	r3, r3, #1
 80019b6:	2b00      	cmp	r3, #0
 80019b8:	d1e4      	bne.n	8001984 <HAL_DMA_Abort+0x84>
      }
    }
    
    /* Clear all interrupt flags at correct offset within the register */
    regs->IFCR = 0x3FU << hdma->StreamIndex;
 80019ba:	687b      	ldr	r3, [r7, #4]
 80019bc:	6ddb      	ldr	r3, [r3, #92]	; 0x5c
 80019be:	223f      	movs	r2, #63	; 0x3f
 80019c0:	409a      	lsls	r2, r3
 80019c2:	68fb      	ldr	r3, [r7, #12]
 80019c4:	609a      	str	r2, [r3, #8]
    
    /* Process Unlocked */
    __HAL_UNLOCK(hdma);
 80019c6:	687b      	ldr	r3, [r7, #4]
 80019c8:	2200      	movs	r2, #0
 80019ca:	f883 2034 	strb.w	r2, [r3, #52]	; 0x34
    
    /* Change the DMA state*/
    hdma->State = HAL_DMA_STATE_READY;
 80019ce:	687b      	ldr	r3, [r7, #4]
 80019d0:	2201      	movs	r2, #1
 80019d2:	f883 2035 	strb.w	r2, [r3, #53]	; 0x35
  }
  return HAL_OK;
 80019d6:	2300      	movs	r3, #0
}
 80019d8:	4618      	mov	r0, r3
 80019da:	3710      	adds	r7, #16
 80019dc:	46bd      	mov	sp, r7
 80019de:	bd80      	pop	{r7, pc}

080019e0 <HAL_DMA_Abort_IT>:
  * @param  hdma   pointer to a DMA_HandleTypeDef structure that contains
  *                 the configuration information for the specified DMA Stream.
  * @retval HAL status
  */
HAL_StatusTypeDef HAL_DMA_Abort_IT(DMA_HandleTypeDef *hdma)
{
 80019e0:	b480      	push	{r7}
 80019e2:	b083      	sub	sp, #12
 80019e4:	af00      	add	r7, sp, #0
 80019e6:	6078      	str	r0, [r7, #4]
  if(hdma->State != HAL_DMA_STATE_BUSY)
 80019e8:	687b      	ldr	r3, [r7, #4]
 80019ea:	f893 3035 	ldrb.w	r3, [r3, #53]	; 0x35
 80019ee:	b2db      	uxtb	r3, r3
 80019f0:	2b02      	cmp	r3, #2
 80019f2:	d004      	beq.n	80019fe <HAL_DMA_Abort_IT+0x1e>
  {
    hdma->ErrorCode = HAL_DMA_ERROR_NO_XFER;
 80019f4:	687b      	ldr	r3, [r7, #4]
 80019f6:	2280      	movs	r2, #128	; 0x80
 80019f8:	655a      	str	r2, [r3, #84]	; 0x54
    return HAL_ERROR;
 80019fa:	2301      	movs	r3, #1
 80019fc:	e00c      	b.n	8001a18 <HAL_DMA_Abort_IT+0x38>
  }
  else
  {
    /* Set Abort State  */
    hdma->State = HAL_DMA_STATE_ABORT;
 80019fe:	687b      	ldr	r3, [r7, #4]
 8001a00:	2205      	movs	r2, #5
 8001a02:	f883 2035 	strb.w	r2, [r3, #53]	; 0x35
    
    /* Disable the stream */
    __HAL_DMA_DISABLE(hdma);
 8001a06:	687b      	ldr	r3, [r7, #4]
 8001a08:	681b      	ldr	r3, [r3, #0]
 8001a0a:	681a      	ldr	r2, [r3, #0]
 8001a0c:	687b      	ldr	r3, [r7, #4]
 8001a0e:	681b      	ldr	r3, [r3, #0]
 8001a10:	f022 0201 	bic.w	r2, r2, #1
 8001a14:	601a      	str	r2, [r3, #0]
  }

  return HAL_OK;
 8001a16:	2300      	movs	r3, #0
}
 8001a18:	4618      	mov	r0, r3
 8001a1a:	370c      	adds	r7, #12
 8001a1c:	46bd      	mov	sp, r7
 8001a1e:	f85d 7b04 	ldr.w	r7, [sp], #4
 8001a22:	4770      	bx	lr

08001a24 <HAL_DMA_IRQHandler>:
  * @param  hdma pointer to a DMA_HandleTypeDef structure that contains
  *               the configuration information for the specified DMA Stream.  
  * @retval None
  */
void HAL_DMA_IRQHandler(DMA_HandleTypeDef *hdma)
{
 8001a24:	b580      	push	{r7, lr}
 8001a26:	b086      	sub	sp, #24
 8001a28:	af00      	add	r7, sp, #0
 8001a2a:	6078      	str	r0, [r7, #4]
  uint32_t tmpisr;
  __IO uint32_t count = 0U;
 8001a2c:	2300      	movs	r3, #0
 8001a2e:	60bb      	str	r3, [r7, #8]
  uint32_t timeout = SystemCoreClock / 9600U;
 8001a30:	4b92      	ldr	r3, [pc, #584]	; (8001c7c <HAL_DMA_IRQHandler+0x258>)
 8001a32:	681b      	ldr	r3, [r3, #0]
 8001a34:	4a92      	ldr	r2, [pc, #584]	; (8001c80 <HAL_DMA_IRQHandler+0x25c>)
 8001a36:	fba2 2303 	umull	r2, r3, r2, r3
 8001a3a:	0a9b      	lsrs	r3, r3, #10
 8001a3c:	617b      	str	r3, [r7, #20]

  /* calculate DMA base and stream number */
  DMA_Base_Registers *regs = (DMA_Base_Registers *)hdma->StreamBaseAddress;
 8001a3e:	687b      	ldr	r3, [r7, #4]
 8001a40:	6d9b      	ldr	r3, [r3, #88]	; 0x58
 8001a42:	613b      	str	r3, [r7, #16]

  tmpisr = regs->ISR;
 8001a44:	693b      	ldr	r3, [r7, #16]
 8001a46:	681b      	ldr	r3, [r3, #0]
 8001a48:	60fb      	str	r3, [r7, #12]

  /* Transfer Error Interrupt management ***************************************/
  if ((tmpisr & (DMA_FLAG_TEIF0_4 << hdma->StreamIndex)) != RESET)
 8001a4a:	687b      	ldr	r3, [r7, #4]
 8001a4c:	6ddb      	ldr	r3, [r3, #92]	; 0x5c
 8001a4e:	2208      	movs	r2, #8
 8001a50:	409a      	lsls	r2, r3
 8001a52:	68fb      	ldr	r3, [r7, #12]
 8001a54:	4013      	ands	r3, r2
 8001a56:	2b00      	cmp	r3, #0
 8001a58:	d01a      	beq.n	8001a90 <HAL_DMA_IRQHandler+0x6c>
  {
    if(__HAL_DMA_GET_IT_SOURCE(hdma, DMA_IT_TE) != RESET)
 8001a5a:	687b      	ldr	r3, [r7, #4]
 8001a5c:	681b      	ldr	r3, [r3, #0]
 8001a5e:	681b      	ldr	r3, [r3, #0]
 8001a60:	f003 0304 	and.w	r3, r3, #4
 8001a64:	2b00      	cmp	r3, #0
 8001a66:	d013      	beq.n	8001a90 <HAL_DMA_IRQHandler+0x6c>
    {
      /* Disable the transfer error interrupt */
      hdma->Instance->CR  &= ~(DMA_IT_TE);
 8001a68:	687b      	ldr	r3, [r7, #4]
 8001a6a:	681b      	ldr	r3, [r3, #0]
 8001a6c:	681a      	ldr	r2, [r3, #0]
 8001a6e:	687b      	ldr	r3, [r7, #4]
 8001a70:	681b      	ldr	r3, [r3, #0]
 8001a72:	f022 0204 	bic.w	r2, r2, #4
 8001a76:	601a      	str	r2, [r3, #0]
      
      /* Clear the transfer error flag */
      regs->IFCR = DMA_FLAG_TEIF0_4 << hdma->StreamIndex;
 8001a78:	687b      	ldr	r3, [r7, #4]
 8001a7a:	6ddb      	ldr	r3, [r3, #92]	; 0x5c
 8001a7c:	2208      	movs	r2, #8
 8001a7e:	409a      	lsls	r2, r3
 8001a80:	693b      	ldr	r3, [r7, #16]
 8001a82:	609a      	str	r2, [r3, #8]
      
      /* Update error code */
      hdma->ErrorCode |= HAL_DMA_ERROR_TE;
 8001a84:	687b      	ldr	r3, [r7, #4]
 8001a86:	6d5b      	ldr	r3, [r3, #84]	; 0x54
 8001a88:	f043 0201 	orr.w	r2, r3, #1
 8001a8c:	687b      	ldr	r3, [r7, #4]
 8001a8e:	655a      	str	r2, [r3, #84]	; 0x54
    }
  }
  /* FIFO Error Interrupt management ******************************************/
  if ((tmpisr & (DMA_FLAG_FEIF0_4 << hdma->StreamIndex)) != RESET)
 8001a90:	687b      	ldr	r3, [r7, #4]
 8001a92:	6ddb      	ldr	r3, [r3, #92]	; 0x5c
 8001a94:	2201      	movs	r2, #1
 8001a96:	409a      	lsls	r2, r3
 8001a98:	68fb      	ldr	r3, [r7, #12]
 8001a9a:	4013      	ands	r3, r2
 8001a9c:	2b00      	cmp	r3, #0
 8001a9e:	d012      	beq.n	8001ac6 <HAL_DMA_IRQHandler+0xa2>
  {
    if(__HAL_DMA_GET_IT_SOURCE(hdma, DMA_IT_FE) != RESET)
 8001aa0:	687b      	ldr	r3, [r7, #4]
 8001aa2:	681b      	ldr	r3, [r3, #0]
 8001aa4:	695b      	ldr	r3, [r3, #20]
 8001aa6:	f003 0380 	and.w	r3, r3, #128	; 0x80
 8001aaa:	2b00      	cmp	r3, #0
 8001aac:	d00b      	beq.n	8001ac6 <HAL_DMA_IRQHandler+0xa2>
    {
      /* Clear the FIFO error flag */
      regs->IFCR = DMA_FLAG_FEIF0_4 << hdma->StreamIndex;
 8001aae:	687b      	ldr	r3, [r7, #4]
 8001ab0:	6ddb      	ldr	r3, [r3, #92]	; 0x5c
 8001ab2:	2201      	movs	r2, #1
 8001ab4:	409a      	lsls	r2, r3
 8001ab6:	693b      	ldr	r3, [r7, #16]
 8001ab8:	609a      	str	r2, [r3, #8]

      /* Update error code */
      hdma->ErrorCode |= HAL_DMA_ERROR_FE;
 8001aba:	687b      	ldr	r3, [r7, #4]
 8001abc:	6d5b      	ldr	r3, [r3, #84]	; 0x54
 8001abe:	f043 0202 	orr.w	r2, r3, #2
 8001ac2:	687b      	ldr	r3, [r7, #4]
 8001ac4:	655a      	str	r2, [r3, #84]	; 0x54
    }
  }
  /* Direct Mode Error Interrupt management ***********************************/
  if ((tmpisr & (DMA_FLAG_DMEIF0_4 << hdma->StreamIndex)) != RESET)
 8001ac6:	687b      	ldr	r3, [r7, #4]
 8001ac8:	6ddb      	ldr	r3, [r3, #92]	; 0x5c
 8001aca:	2204      	movs	r2, #4
 8001acc:	409a      	lsls	r2, r3
 8001ace:	68fb      	ldr	r3, [r7, #12]
 8001ad0:	4013      	ands	r3, r2
 8001ad2:	2b00      	cmp	r3, #0
 8001ad4:	d012      	beq.n	8001afc <HAL_DMA_IRQHandler+0xd8>
  {
    if(__HAL_DMA_GET_IT_SOURCE(hdma, DMA_IT_DME) != RESET)
 8001ad6:	687b      	ldr	r3, [r7, #4]
 8001ad8:	681b      	ldr	r3, [r3, #0]
 8001ada:	681b      	ldr	r3, [r3, #0]
 8001adc:	f003 0302 	and.w	r3, r3, #2
 8001ae0:	2b00      	cmp	r3, #0
 8001ae2:	d00b      	beq.n	8001afc <HAL_DMA_IRQHandler+0xd8>
    {
      /* Clear the direct mode error flag */
      regs->IFCR = DMA_FLAG_DMEIF0_4 << hdma->StreamIndex;
 8001ae4:	687b      	ldr	r3, [r7, #4]
 8001ae6:	6ddb      	ldr	r3, [r3, #92]	; 0x5c
 8001ae8:	2204      	movs	r2, #4
 8001aea:	409a      	lsls	r2, r3
 8001aec:	693b      	ldr	r3, [r7, #16]
 8001aee:	609a      	str	r2, [r3, #8]

      /* Update error code */
      hdma->ErrorCode |= HAL_DMA_ERROR_DME;
 8001af0:	687b      	ldr	r3, [r7, #4]
 8001af2:	6d5b      	ldr	r3, [r3, #84]	; 0x54
 8001af4:	f043 0204 	orr.w	r2, r3, #4
 8001af8:	687b      	ldr	r3, [r7, #4]
 8001afa:	655a      	str	r2, [r3, #84]	; 0x54
    }
  }
  /* Half Transfer Complete Interrupt management ******************************/
  if ((tmpisr & (DMA_FLAG_HTIF0_4 << hdma->StreamIndex)) != RESET)
 8001afc:	687b      	ldr	r3, [r7, #4]
 8001afe:	6ddb      	ldr	r3, [r3, #92]	; 0x5c
 8001b00:	2210      	movs	r2, #16
 8001b02:	409a      	lsls	r2, r3
 8001b04:	68fb      	ldr	r3, [r7, #12]
 8001b06:	4013      	ands	r3, r2
 8001b08:	2b00      	cmp	r3, #0
 8001b0a:	d043      	beq.n	8001b94 <HAL_DMA_IRQHandler+0x170>
  {
    if(__HAL_DMA_GET_IT_SOURCE(hdma, DMA_IT_HT) != RESET)
 8001b0c:	687b      	ldr	r3, [r7, #4]
 8001b0e:	681b      	ldr	r3, [r3, #0]
 8001b10:	681b      	ldr	r3, [r3, #0]
 8001b12:	f003 0308 	and.w	r3, r3, #8
 8001b16:	2b00      	cmp	r3, #0
 8001b18:	d03c      	beq.n	8001b94 <HAL_DMA_IRQHandler+0x170>
    {
      /* Clear the half transfer complete flag */
      regs->IFCR = DMA_FLAG_HTIF0_4 << hdma->StreamIndex;
 8001b1a:	687b      	ldr	r3, [r7, #4]
 8001b1c:	6ddb      	ldr	r3, [r3, #92]	; 0x5c
 8001b1e:	2210      	movs	r2, #16
 8001b20:	409a      	lsls	r2, r3
 8001b22:	693b      	ldr	r3, [r7, #16]
 8001b24:	609a      	str	r2, [r3, #8]
      
      /* Multi_Buffering mode enabled */
      if(((hdma->Instance->CR) & (uint32_t)(DMA_SxCR_DBM)) != RESET)
 8001b26:	687b      	ldr	r3, [r7, #4]
 8001b28:	681b      	ldr	r3, [r3, #0]
 8001b2a:	681b      	ldr	r3, [r3, #0]
 8001b2c:	f403 2380 	and.w	r3, r3, #262144	; 0x40000
 8001b30:	2b00      	cmp	r3, #0
 8001b32:	d018      	beq.n	8001b66 <HAL_DMA_IRQHandler+0x142>
      {
        /* Current memory buffer used is Memory 0 */
        if((hdma->Instance->CR & DMA_SxCR_CT) == RESET)
 8001b34:	687b      	ldr	r3, [r7, #4]
 8001b36:	681b      	ldr	r3, [r3, #0]
 8001b38:	681b      	ldr	r3, [r3, #0]
 8001b3a:	f403 2300 	and.w	r3, r3, #524288	; 0x80000
 8001b3e:	2b00      	cmp	r3, #0
 8001b40:	d108      	bne.n	8001b54 <HAL_DMA_IRQHandler+0x130>
        {
          if(hdma->XferHalfCpltCallback != NULL)
 8001b42:	687b      	ldr	r3, [r7, #4]
 8001b44:	6c1b      	ldr	r3, [r3, #64]	; 0x40
 8001b46:	2b00      	cmp	r3, #0
 8001b48:	d024      	beq.n	8001b94 <HAL_DMA_IRQHandler+0x170>
          {
            /* Half transfer callback */
            hdma->XferHalfCpltCallback(hdma);
 8001b4a:	687b      	ldr	r3, [r7, #4]
 8001b4c:	6c1b      	ldr	r3, [r3, #64]	; 0x40
 8001b4e:	6878      	ldr	r0, [r7, #4]
 8001b50:	4798      	blx	r3
 8001b52:	e01f      	b.n	8001b94 <HAL_DMA_IRQHandler+0x170>
          }
        }
        /* Current memory buffer used is Memory 1 */
        else
        {
          if(hdma->XferM1HalfCpltCallback != NULL)
 8001b54:	687b      	ldr	r3, [r7, #4]
 8001b56:	6c9b      	ldr	r3, [r3, #72]	; 0x48
 8001b58:	2b00      	cmp	r3, #0
 8001b5a:	d01b      	beq.n	8001b94 <HAL_DMA_IRQHandler+0x170>
          {
            /* Half transfer callback */
            hdma->XferM1HalfCpltCallback(hdma);
 8001b5c:	687b      	ldr	r3, [r7, #4]
 8001b5e:	6c9b      	ldr	r3, [r3, #72]	; 0x48
 8001b60:	6878      	ldr	r0, [r7, #4]
 8001b62:	4798      	blx	r3
 8001b64:	e016      	b.n	8001b94 <HAL_DMA_IRQHandler+0x170>
        }
      }
      else
      {
        /* Disable the half transfer interrupt if the DMA mode is not CIRCULAR */
        if((hdma->Instance->CR & DMA_SxCR_CIRC) == RESET)
 8001b66:	687b      	ldr	r3, [r7, #4]
 8001b68:	681b      	ldr	r3, [r3, #0]
 8001b6a:	681b      	ldr	r3, [r3, #0]
 8001b6c:	f403 7380 	and.w	r3, r3, #256	; 0x100
 8001b70:	2b00      	cmp	r3, #0
 8001b72:	d107      	bne.n	8001b84 <HAL_DMA_IRQHandler+0x160>
        {
          /* Disable the half transfer interrupt */
          hdma->Instance->CR  &= ~(DMA_IT_HT);
 8001b74:	687b      	ldr	r3, [r7, #4]
 8001b76:	681b      	ldr	r3, [r3, #0]
 8001b78:	681a      	ldr	r2, [r3, #0]
 8001b7a:	687b      	ldr	r3, [r7, #4]
 8001b7c:	681b      	ldr	r3, [r3, #0]
 8001b7e:	f022 0208 	bic.w	r2, r2, #8
 8001b82:	601a      	str	r2, [r3, #0]
        }
        
        if(hdma->XferHalfCpltCallback != NULL)
 8001b84:	687b      	ldr	r3, [r7, #4]
 8001b86:	6c1b      	ldr	r3, [r3, #64]	; 0x40
 8001b88:	2b00      	cmp	r3, #0
 8001b8a:	d003      	beq.n	8001b94 <HAL_DMA_IRQHandler+0x170>
        {
          /* Half transfer callback */
          hdma->XferHalfCpltCallback(hdma);
 8001b8c:	687b      	ldr	r3, [r7, #4]
 8001b8e:	6c1b      	ldr	r3, [r3, #64]	; 0x40
 8001b90:	6878      	ldr	r0, [r7, #4]
 8001b92:	4798      	blx	r3
        }
      }
    }
  }
  /* Transfer Complete Interrupt management ***********************************/
  if ((tmpisr & (DMA_FLAG_TCIF0_4 << hdma->StreamIndex)) != RESET)
 8001b94:	687b      	ldr	r3, [r7, #4]
 8001b96:	6ddb      	ldr	r3, [r3, #92]	; 0x5c
 8001b98:	2220      	movs	r2, #32
 8001b9a:	409a      	lsls	r2, r3
 8001b9c:	68fb      	ldr	r3, [r7, #12]
 8001b9e:	4013      	ands	r3, r2
 8001ba0:	2b00      	cmp	r3, #0
 8001ba2:	f000 808e 	beq.w	8001cc2 <HAL_DMA_IRQHandler+0x29e>
  {
    if(__HAL_DMA_GET_IT_SOURCE(hdma, DMA_IT_TC) != RESET)
 8001ba6:	687b      	ldr	r3, [r7, #4]
 8001ba8:	681b      	ldr	r3, [r3, #0]
 8001baa:	681b      	ldr	r3, [r3, #0]
 8001bac:	f003 0310 	and.w	r3, r3, #16
 8001bb0:	2b00      	cmp	r3, #0
 8001bb2:	f000 8086 	beq.w	8001cc2 <HAL_DMA_IRQHandler+0x29e>
    {
      /* Clear the transfer complete flag */
      regs->IFCR = DMA_FLAG_TCIF0_4 << hdma->StreamIndex;
 8001bb6:	687b      	ldr	r3, [r7, #4]
 8001bb8:	6ddb      	ldr	r3, [r3, #92]	; 0x5c
 8001bba:	2220      	movs	r2, #32
 8001bbc:	409a      	lsls	r2, r3
 8001bbe:	693b      	ldr	r3, [r7, #16]
 8001bc0:	609a      	str	r2, [r3, #8]
      
      if(HAL_DMA_STATE_ABORT == hdma->State)
 8001bc2:	687b      	ldr	r3, [r7, #4]
 8001bc4:	f893 3035 	ldrb.w	r3, [r3, #53]	; 0x35
 8001bc8:	b2db      	uxtb	r3, r3
 8001bca:	2b05      	cmp	r3, #5
 8001bcc:	d136      	bne.n	8001c3c <HAL_DMA_IRQHandler+0x218>
      {
        /* Disable all the transfer interrupts */
        hdma->Instance->CR  &= ~(DMA_IT_TC | DMA_IT_TE | DMA_IT_DME);
 8001bce:	687b      	ldr	r3, [r7, #4]
 8001bd0:	681b      	ldr	r3, [r3, #0]
 8001bd2:	681a      	ldr	r2, [r3, #0]
 8001bd4:	687b      	ldr	r3, [r7, #4]
 8001bd6:	681b      	ldr	r3, [r3, #0]
 8001bd8:	f022 0216 	bic.w	r2, r2, #22
 8001bdc:	601a      	str	r2, [r3, #0]
        hdma->Instance->FCR &= ~(DMA_IT_FE);
 8001bde:	687b      	ldr	r3, [r7, #4]
 8001be0:	681b      	ldr	r3, [r3, #0]
 8001be2:	695a      	ldr	r2, [r3, #20]
 8001be4:	687b      	ldr	r3, [r7, #4]
 8001be6:	681b      	ldr	r3, [r3, #0]
 8001be8:	f022 0280 	bic.w	r2, r2, #128	; 0x80
 8001bec:	615a      	str	r2, [r3, #20]
        
        if((hdma->XferHalfCpltCallback != NULL) || (hdma->XferM1HalfCpltCallback != NULL))
 8001bee:	687b      	ldr	r3, [r7, #4]
 8001bf0:	6c1b      	ldr	r3, [r3, #64]	; 0x40
 8001bf2:	2b00      	cmp	r3, #0
 8001bf4:	d103      	bne.n	8001bfe <HAL_DMA_IRQHandler+0x1da>
 8001bf6:	687b      	ldr	r3, [r7, #4]
 8001bf8:	6c9b      	ldr	r3, [r3, #72]	; 0x48
 8001bfa:	2b00      	cmp	r3, #0
 8001bfc:	d007      	beq.n	8001c0e <HAL_DMA_IRQHandler+0x1ea>
        {
          hdma->Instance->CR  &= ~(DMA_IT_HT);
 8001bfe:	687b      	ldr	r3, [r7, #4]
 8001c00:	681b      	ldr	r3, [r3, #0]
 8001c02:	681a      	ldr	r2, [r3, #0]
 8001c04:	687b      	ldr	r3, [r7, #4]
 8001c06:	681b      	ldr	r3, [r3, #0]
 8001c08:	f022 0208 	bic.w	r2, r2, #8
 8001c0c:	601a      	str	r2, [r3, #0]
        }

        /* Clear all interrupt flags at correct offset within the register */
        regs->IFCR = 0x3FU << hdma->StreamIndex;
 8001c0e:	687b      	ldr	r3, [r7, #4]
 8001c10:	6ddb      	ldr	r3, [r3, #92]	; 0x5c
 8001c12:	223f      	movs	r2, #63	; 0x3f
 8001c14:	409a      	lsls	r2, r3
 8001c16:	693b      	ldr	r3, [r7, #16]
 8001c18:	609a      	str	r2, [r3, #8]

        /* Process Unlocked */
        __HAL_UNLOCK(hdma);
 8001c1a:	687b      	ldr	r3, [r7, #4]
 8001c1c:	2200      	movs	r2, #0
 8001c1e:	f883 2034 	strb.w	r2, [r3, #52]	; 0x34

        /* Change the DMA state */
        hdma->State = HAL_DMA_STATE_READY;
 8001c22:	687b      	ldr	r3, [r7, #4]
 8001c24:	2201      	movs	r2, #1
 8001c26:	f883 2035 	strb.w	r2, [r3, #53]	; 0x35

        if(hdma->XferAbortCallback != NULL)
 8001c2a:	687b      	ldr	r3, [r7, #4]
 8001c2c:	6d1b      	ldr	r3, [r3, #80]	; 0x50
 8001c2e:	2b00      	cmp	r3, #0
 8001c30:	d07d      	beq.n	8001d2e <HAL_DMA_IRQHandler+0x30a>
        {
          hdma->XferAbortCallback(hdma);
 8001c32:	687b      	ldr	r3, [r7, #4]
 8001c34:	6d1b      	ldr	r3, [r3, #80]	; 0x50
 8001c36:	6878      	ldr	r0, [r7, #4]
 8001c38:	4798      	blx	r3
        }
        return;
 8001c3a:	e078      	b.n	8001d2e <HAL_DMA_IRQHandler+0x30a>
      }

      if(((hdma->Instance->CR) & (uint32_t)(DMA_SxCR_DBM)) != RESET)
 8001c3c:	687b      	ldr	r3, [r7, #4]
 8001c3e:	681b      	ldr	r3, [r3, #0]
 8001c40:	681b      	ldr	r3, [r3, #0]
 8001c42:	f403 2380 	and.w	r3, r3, #262144	; 0x40000
 8001c46:	2b00      	cmp	r3, #0
 8001c48:	d01c      	beq.n	8001c84 <HAL_DMA_IRQHandler+0x260>
      {
        /* Current memory buffer used is Memory 0 */
        if((hdma->Instance->CR & DMA_SxCR_CT) == RESET)
 8001c4a:	687b      	ldr	r3, [r7, #4]
 8001c4c:	681b      	ldr	r3, [r3, #0]
 8001c4e:	681b      	ldr	r3, [r3, #0]
 8001c50:	f403 2300 	and.w	r3, r3, #524288	; 0x80000
 8001c54:	2b00      	cmp	r3, #0
 8001c56:	d108      	bne.n	8001c6a <HAL_DMA_IRQHandler+0x246>
        {
          if(hdma->XferM1CpltCallback != NULL)
 8001c58:	687b      	ldr	r3, [r7, #4]
 8001c5a:	6c5b      	ldr	r3, [r3, #68]	; 0x44
 8001c5c:	2b00      	cmp	r3, #0
 8001c5e:	d030      	beq.n	8001cc2 <HAL_DMA_IRQHandler+0x29e>
          {
            /* Transfer complete Callback for memory1 */
            hdma->XferM1CpltCallback(hdma);
 8001c60:	687b      	ldr	r3, [r7, #4]
 8001c62:	6c5b      	ldr	r3, [r3, #68]	; 0x44
 8001c64:	6878      	ldr	r0, [r7, #4]
 8001c66:	4798      	blx	r3
 8001c68:	e02b      	b.n	8001cc2 <HAL_DMA_IRQHandler+0x29e>
          }
        }
        /* Current memory buffer used is Memory 1 */
        else
        {
          if(hdma->XferCpltCallback != NULL)
 8001c6a:	687b      	ldr	r3, [r7, #4]
 8001c6c:	6bdb      	ldr	r3, [r3, #60]	; 0x3c
 8001c6e:	2b00      	cmp	r3, #0
 8001c70:	d027      	beq.n	8001cc2 <HAL_DMA_IRQHandler+0x29e>
          {
            /* Transfer complete Callback for memory0 */
            hdma->XferCpltCallback(hdma);
 8001c72:	687b      	ldr	r3, [r7, #4]
 8001c74:	6bdb      	ldr	r3, [r3, #60]	; 0x3c
 8001c76:	6878      	ldr	r0, [r7, #4]
 8001c78:	4798      	blx	r3
 8001c7a:	e022      	b.n	8001cc2 <HAL_DMA_IRQHandler+0x29e>
 8001c7c:	20000020 	.word	0x20000020
 8001c80:	1b4e81b5 	.word	0x1b4e81b5
        }
      }
      /* Disable the transfer complete interrupt if the DMA mode is not CIRCULAR */
      else
      {
        if((hdma->Instance->CR & DMA_SxCR_CIRC) == RESET)
 8001c84:	687b      	ldr	r3, [r7, #4]
 8001c86:	681b      	ldr	r3, [r3, #0]
 8001c88:	681b      	ldr	r3, [r3, #0]
 8001c8a:	f403 7380 	and.w	r3, r3, #256	; 0x100
 8001c8e:	2b00      	cmp	r3, #0
 8001c90:	d10f      	bne.n	8001cb2 <HAL_DMA_IRQHandler+0x28e>
        {
          /* Disable the transfer complete interrupt */
          hdma->Instance->CR  &= ~(DMA_IT_TC);
 8001c92:	687b      	ldr	r3, [r7, #4]
 8001c94:	681b      	ldr	r3, [r3, #0]
 8001c96:	681a      	ldr	r2, [r3, #0]
 8001c98:	687b      	ldr	r3, [r7, #4]
 8001c9a:	681b      	ldr	r3, [r3, #0]
 8001c9c:	f022 0210 	bic.w	r2, r2, #16
 8001ca0:	601a      	str	r2, [r3, #0]

          /* Process Unlocked */
          __HAL_UNLOCK(hdma);
 8001ca2:	687b      	ldr	r3, [r7, #4]
 8001ca4:	2200      	movs	r2, #0
 8001ca6:	f883 2034 	strb.w	r2, [r3, #52]	; 0x34

          /* Change the DMA state */
          hdma->State = HAL_DMA_STATE_READY;
 8001caa:	687b      	ldr	r3, [r7, #4]
 8001cac:	2201      	movs	r2, #1
 8001cae:	f883 2035 	strb.w	r2, [r3, #53]	; 0x35
        }

        if(hdma->XferCpltCallback != NULL)
 8001cb2:	687b      	ldr	r3, [r7, #4]
 8001cb4:	6bdb      	ldr	r3, [r3, #60]	; 0x3c
 8001cb6:	2b00      	cmp	r3, #0
 8001cb8:	d003      	beq.n	8001cc2 <HAL_DMA_IRQHandler+0x29e>
        {
          /* Transfer complete callback */
          hdma->XferCpltCallback(hdma);
 8001cba:	687b      	ldr	r3, [r7, #4]
 8001cbc:	6bdb      	ldr	r3, [r3, #60]	; 0x3c
 8001cbe:	6878      	ldr	r0, [r7, #4]
 8001cc0:	4798      	blx	r3
      }
    }
  }
  
  /* manage error case */
  if(hdma->ErrorCode != HAL_DMA_ERROR_NONE)
 8001cc2:	687b      	ldr	r3, [r7, #4]
 8001cc4:	6d5b      	ldr	r3, [r3, #84]	; 0x54
 8001cc6:	2b00      	cmp	r3, #0
 8001cc8:	d032      	beq.n	8001d30 <HAL_DMA_IRQHandler+0x30c>
  {
    if((hdma->ErrorCode & HAL_DMA_ERROR_TE) != RESET)
 8001cca:	687b      	ldr	r3, [r7, #4]
 8001ccc:	6d5b      	ldr	r3, [r3, #84]	; 0x54
 8001cce:	f003 0301 	and.w	r3, r3, #1
 8001cd2:	2b00      	cmp	r3, #0
 8001cd4:	d022      	beq.n	8001d1c <HAL_DMA_IRQHandler+0x2f8>
    {
      hdma->State = HAL_DMA_STATE_ABORT;
 8001cd6:	687b      	ldr	r3, [r7, #4]
 8001cd8:	2205      	movs	r2, #5
 8001cda:	f883 2035 	strb.w	r2, [r3, #53]	; 0x35

      /* Disable the stream */
      __HAL_DMA_DISABLE(hdma);
 8001cde:	687b      	ldr	r3, [r7, #4]
 8001ce0:	681b      	ldr	r3, [r3, #0]
 8001ce2:	681a      	ldr	r2, [r3, #0]
 8001ce4:	687b      	ldr	r3, [r7, #4]
 8001ce6:	681b      	ldr	r3, [r3, #0]
 8001ce8:	f022 0201 	bic.w	r2, r2, #1
 8001cec:	601a      	str	r2, [r3, #0]

      do
      {
        if (++count > timeout)
 8001cee:	68bb      	ldr	r3, [r7, #8]
 8001cf0:	3301      	adds	r3, #1
 8001cf2:	60bb      	str	r3, [r7, #8]
 8001cf4:	697a      	ldr	r2, [r7, #20]
 8001cf6:	429a      	cmp	r2, r3
 8001cf8:	d307      	bcc.n	8001d0a <HAL_DMA_IRQHandler+0x2e6>
        {
          break;
        }
      }
      while((hdma->Instance->CR & DMA_SxCR_EN) != RESET);
 8001cfa:	687b      	ldr	r3, [r7, #4]
 8001cfc:	681b      	ldr	r3, [r3, #0]
 8001cfe:	681b      	ldr	r3, [r3, #0]
 8001d00:	f003 0301 	and.w	r3, r3, #1
 8001d04:	2b00      	cmp	r3, #0
 8001d06:	d1f2      	bne.n	8001cee <HAL_DMA_IRQHandler+0x2ca>
 8001d08:	e000      	b.n	8001d0c <HAL_DMA_IRQHandler+0x2e8>
          break;
 8001d0a:	bf00      	nop

      /* Process Unlocked */
      __HAL_UNLOCK(hdma);
 8001d0c:	687b      	ldr	r3, [r7, #4]
 8001d0e:	2200      	movs	r2, #0
 8001d10:	f883 2034 	strb.w	r2, [r3, #52]	; 0x34

      /* Change the DMA state */
      hdma->State = HAL_DMA_STATE_READY;
 8001d14:	687b      	ldr	r3, [r7, #4]
 8001d16:	2201      	movs	r2, #1
 8001d18:	f883 2035 	strb.w	r2, [r3, #53]	; 0x35
    }

    if(hdma->XferErrorCallback != NULL)
 8001d1c:	687b      	ldr	r3, [r7, #4]
 8001d1e:	6cdb      	ldr	r3, [r3, #76]	; 0x4c
 8001d20:	2b00      	cmp	r3, #0
 8001d22:	d005      	beq.n	8001d30 <HAL_DMA_IRQHandler+0x30c>
    {
      /* Transfer error callback */
      hdma->XferErrorCallback(hdma);
 8001d24:	687b      	ldr	r3, [r7, #4]
 8001d26:	6cdb      	ldr	r3, [r3, #76]	; 0x4c
 8001d28:	6878      	ldr	r0, [r7, #4]
 8001d2a:	4798      	blx	r3
 8001d2c:	e000      	b.n	8001d30 <HAL_DMA_IRQHandler+0x30c>
        return;
 8001d2e:	bf00      	nop
    }
  }
}
 8001d30:	3718      	adds	r7, #24
 8001d32:	46bd      	mov	sp, r7
 8001d34:	bd80      	pop	{r7, pc}
 8001d36:	bf00      	nop

08001d38 <DMA_SetConfig>:
  * @param  DstAddress The destination memory Buffer address
  * @param  DataLength The length of data to be transferred from source to destination
  * @retval HAL status
  */
static void DMA_SetConfig(DMA_HandleTypeDef *hdma, uint32_t SrcAddress, uint32_t DstAddress, uint32_t DataLength)
{
 8001d38:	b480      	push	{r7}
 8001d3a:	b085      	sub	sp, #20
 8001d3c:	af00      	add	r7, sp, #0
 8001d3e:	60f8      	str	r0, [r7, #12]
 8001d40:	60b9      	str	r1, [r7, #8]
 8001d42:	607a      	str	r2, [r7, #4]
 8001d44:	603b      	str	r3, [r7, #0]
  /* Clear DBM bit */
  hdma->Instance->CR &= (uint32_t)(~DMA_SxCR_DBM);
 8001d46:	68fb      	ldr	r3, [r7, #12]
 8001d48:	681b      	ldr	r3, [r3, #0]
 8001d4a:	681a      	ldr	r2, [r3, #0]
 8001d4c:	68fb      	ldr	r3, [r7, #12]
 8001d4e:	681b      	ldr	r3, [r3, #0]
 8001d50:	f422 2280 	bic.w	r2, r2, #262144	; 0x40000
 8001d54:	601a      	str	r2, [r3, #0]

  /* Configure DMA Stream data length */
  hdma->Instance->NDTR = DataLength;
 8001d56:	68fb      	ldr	r3, [r7, #12]
 8001d58:	681b      	ldr	r3, [r3, #0]
 8001d5a:	683a      	ldr	r2, [r7, #0]
 8001d5c:	605a      	str	r2, [r3, #4]

  /* Memory to Peripheral */
  if((hdma->Init.Direction) == DMA_MEMORY_TO_PERIPH)
 8001d5e:	68fb      	ldr	r3, [r7, #12]
 8001d60:	689b      	ldr	r3, [r3, #8]
 8001d62:	2b40      	cmp	r3, #64	; 0x40
 8001d64:	d108      	bne.n	8001d78 <DMA_SetConfig+0x40>
  {
    /* Configure DMA Stream destination address */
    hdma->Instance->PAR = DstAddress;
 8001d66:	68fb      	ldr	r3, [r7, #12]
 8001d68:	681b      	ldr	r3, [r3, #0]
 8001d6a:	687a      	ldr	r2, [r7, #4]
 8001d6c:	609a      	str	r2, [r3, #8]

    /* Configure DMA Stream source address */
    hdma->Instance->M0AR = SrcAddress;
 8001d6e:	68fb      	ldr	r3, [r7, #12]
 8001d70:	681b      	ldr	r3, [r3, #0]
 8001d72:	68ba      	ldr	r2, [r7, #8]
 8001d74:	60da      	str	r2, [r3, #12]
    hdma->Instance->PAR = SrcAddress;

    /* Configure DMA Stream destination address */
    hdma->Instance->M0AR = DstAddress;
  }
}
 8001d76:	e007      	b.n	8001d88 <DMA_SetConfig+0x50>
    hdma->Instance->PAR = SrcAddress;
 8001d78:	68fb      	ldr	r3, [r7, #12]
 8001d7a:	681b      	ldr	r3, [r3, #0]
 8001d7c:	68ba      	ldr	r2, [r7, #8]
 8001d7e:	609a      	str	r2, [r3, #8]
    hdma->Instance->M0AR = DstAddress;
 8001d80:	68fb      	ldr	r3, [r7, #12]
 8001d82:	681b      	ldr	r3, [r3, #0]
 8001d84:	687a      	ldr	r2, [r7, #4]
 8001d86:	60da      	str	r2, [r3, #12]
}
 8001d88:	bf00      	nop
 8001d8a:	3714      	adds	r7, #20
 8001d8c:	46bd      	mov	sp, r7
 8001d8e:	f85d 7b04 	ldr.w	r7, [sp], #4
 8001d92:	4770      	bx	lr

08001d94 <DMA_CalcBaseAndBitshift>:
  * @param  hdma       pointer to a DMA_HandleTypeDef structure that contains
  *                     the configuration information for the specified DMA Stream. 
  * @retval Stream base address
  */
static uint32_t DMA_CalcBaseAndBitshift(DMA_HandleTypeDef *hdma)
{
 8001d94:	b480      	push	{r7}
 8001d96:	b085      	sub	sp, #20
 8001d98:	af00      	add	r7, sp, #0
 8001d9a:	6078      	str	r0, [r7, #4]
  uint32_t stream_number = (((uint32_t)hdma->Instance & 0xFFU) - 16U) / 24U;
 8001d9c:	687b      	ldr	r3, [r7, #4]
 8001d9e:	681b      	ldr	r3, [r3, #0]
 8001da0:	b2db      	uxtb	r3, r3
 8001da2:	3b10      	subs	r3, #16
 8001da4:	4a14      	ldr	r2, [pc, #80]	; (8001df8 <DMA_CalcBaseAndBitshift+0x64>)
 8001da6:	fba2 2303 	umull	r2, r3, r2, r3
 8001daa:	091b      	lsrs	r3, r3, #4
 8001dac:	60fb      	str	r3, [r7, #12]
  
  /* lookup table for necessary bitshift of flags within status registers */
  static const uint8_t flagBitshiftOffset[8U] = {0U, 6U, 16U, 22U, 0U, 6U, 16U, 22U};
  hdma->StreamIndex = flagBitshiftOffset[stream_number];
 8001dae:	4a13      	ldr	r2, [pc, #76]	; (8001dfc <DMA_CalcBaseAndBitshift+0x68>)
 8001db0:	68fb      	ldr	r3, [r7, #12]
 8001db2:	4413      	add	r3, r2
 8001db4:	781b      	ldrb	r3, [r3, #0]
 8001db6:	461a      	mov	r2, r3
 8001db8:	687b      	ldr	r3, [r7, #4]
 8001dba:	65da      	str	r2, [r3, #92]	; 0x5c
  
  if (stream_number > 3U)
 8001dbc:	68fb      	ldr	r3, [r7, #12]
 8001dbe:	2b03      	cmp	r3, #3
 8001dc0:	d909      	bls.n	8001dd6 <DMA_CalcBaseAndBitshift+0x42>
  {
    /* return pointer to HISR and HIFCR */
    hdma->StreamBaseAddress = (((uint32_t)hdma->Instance & (uint32_t)(~0x3FFU)) + 4U);
 8001dc2:	687b      	ldr	r3, [r7, #4]
 8001dc4:	681b      	ldr	r3, [r3, #0]
 8001dc6:	f423 737f 	bic.w	r3, r3, #1020	; 0x3fc
 8001dca:	f023 0303 	bic.w	r3, r3, #3
 8001dce:	1d1a      	adds	r2, r3, #4
 8001dd0:	687b      	ldr	r3, [r7, #4]
 8001dd2:	659a      	str	r2, [r3, #88]	; 0x58
 8001dd4:	e007      	b.n	8001de6 <DMA_CalcBaseAndBitshift+0x52>
  }
  else
  {
    /* return pointer to LISR and LIFCR */
    hdma->StreamBaseAddress = ((uint32_t)hdma->Instance & (uint32_t)(~0x3FFU));
 8001dd6:	687b      	ldr	r3, [r7, #4]
 8001dd8:	681b      	ldr	r3, [r3, #0]
 8001dda:	f423 737f 	bic.w	r3, r3, #1020	; 0x3fc
 8001dde:	f023 0303 	bic.w	r3, r3, #3
 8001de2:	687a      	ldr	r2, [r7, #4]
 8001de4:	6593      	str	r3, [r2, #88]	; 0x58
  }
  
  return hdma->StreamBaseAddress;
 8001de6:	687b      	ldr	r3, [r7, #4]
 8001de8:	6d9b      	ldr	r3, [r3, #88]	; 0x58
}
 8001dea:	4618      	mov	r0, r3
 8001dec:	3714      	adds	r7, #20
 8001dee:	46bd      	mov	sp, r7
 8001df0:	f85d 7b04 	ldr.w	r7, [sp], #4
 8001df4:	4770      	bx	lr
 8001df6:	bf00      	nop
 8001df8:	aaaaaaab 	.word	0xaaaaaaab
 8001dfc:	08006268 	.word	0x08006268

08001e00 <DMA_CheckFifoParam>:
  * @param  hdma       pointer to a DMA_HandleTypeDef structure that contains
  *                     the configuration information for the specified DMA Stream. 
  * @retval HAL status
  */
static HAL_StatusTypeDef DMA_CheckFifoParam(DMA_HandleTypeDef *hdma)
{
 8001e00:	b480      	push	{r7}
 8001e02:	b085      	sub	sp, #20
 8001e04:	af00      	add	r7, sp, #0
 8001e06:	6078      	str	r0, [r7, #4]
  HAL_StatusTypeDef status = HAL_OK;
 8001e08:	2300      	movs	r3, #0
 8001e0a:	73fb      	strb	r3, [r7, #15]
  uint32_t tmp = hdma->Init.FIFOThreshold;
 8001e0c:	687b      	ldr	r3, [r7, #4]
 8001e0e:	6a9b      	ldr	r3, [r3, #40]	; 0x28
 8001e10:	60bb      	str	r3, [r7, #8]
  
  /* Memory Data size equal to Byte */
  if(hdma->Init.MemDataAlignment == DMA_MDATAALIGN_BYTE)
 8001e12:	687b      	ldr	r3, [r7, #4]
 8001e14:	699b      	ldr	r3, [r3, #24]
 8001e16:	2b00      	cmp	r3, #0
 8001e18:	d11f      	bne.n	8001e5a <DMA_CheckFifoParam+0x5a>
 8001e1a:	68bb      	ldr	r3, [r7, #8]
 8001e1c:	2b03      	cmp	r3, #3
 8001e1e:	d856      	bhi.n	8001ece <DMA_CheckFifoParam+0xce>
 8001e20:	a201      	add	r2, pc, #4	; (adr r2, 8001e28 <DMA_CheckFifoParam+0x28>)
 8001e22:	f852 f023 	ldr.w	pc, [r2, r3, lsl #2]
 8001e26:	bf00      	nop
 8001e28:	08001e39 	.word	0x08001e39
 8001e2c:	08001e4b 	.word	0x08001e4b
 8001e30:	08001e39 	.word	0x08001e39
 8001e34:	08001ecf 	.word	0x08001ecf
  {
    switch (tmp)
    {
    case DMA_FIFO_THRESHOLD_1QUARTERFULL:
    case DMA_FIFO_THRESHOLD_3QUARTERSFULL:
      if ((hdma->Init.MemBurst & DMA_SxCR_MBURST_1) == DMA_SxCR_MBURST_1)
 8001e38:	687b      	ldr	r3, [r7, #4]
 8001e3a:	6adb      	ldr	r3, [r3, #44]	; 0x2c
 8001e3c:	f003 7380 	and.w	r3, r3, #16777216	; 0x1000000
 8001e40:	2b00      	cmp	r3, #0
 8001e42:	d046      	beq.n	8001ed2 <DMA_CheckFifoParam+0xd2>
      {
        status = HAL_ERROR;
 8001e44:	2301      	movs	r3, #1
 8001e46:	73fb      	strb	r3, [r7, #15]
      }
      break;
 8001e48:	e043      	b.n	8001ed2 <DMA_CheckFifoParam+0xd2>
    case DMA_FIFO_THRESHOLD_HALFFULL:
      if (hdma->Init.MemBurst == DMA_MBURST_INC16)
 8001e4a:	687b      	ldr	r3, [r7, #4]
 8001e4c:	6adb      	ldr	r3, [r3, #44]	; 0x2c
 8001e4e:	f1b3 7fc0 	cmp.w	r3, #25165824	; 0x1800000
 8001e52:	d140      	bne.n	8001ed6 <DMA_CheckFifoParam+0xd6>
      {
        status = HAL_ERROR;
 8001e54:	2301      	movs	r3, #1
 8001e56:	73fb      	strb	r3, [r7, #15]
      }
      break;
 8001e58:	e03d      	b.n	8001ed6 <DMA_CheckFifoParam+0xd6>
      break;
    }
  }
  
  /* Memory Data size equal to Half-Word */
  else if (hdma->Init.MemDataAlignment == DMA_MDATAALIGN_HALFWORD)
 8001e5a:	687b      	ldr	r3, [r7, #4]
 8001e5c:	699b      	ldr	r3, [r3, #24]
 8001e5e:	f5b3 5f00 	cmp.w	r3, #8192	; 0x2000
 8001e62:	d121      	bne.n	8001ea8 <DMA_CheckFifoParam+0xa8>
 8001e64:	68bb      	ldr	r3, [r7, #8]
 8001e66:	2b03      	cmp	r3, #3
 8001e68:	d837      	bhi.n	8001eda <DMA_CheckFifoParam+0xda>
 8001e6a:	a201      	add	r2, pc, #4	; (adr r2, 8001e70 <DMA_CheckFifoParam+0x70>)
 8001e6c:	f852 f023 	ldr.w	pc, [r2, r3, lsl #2]
 8001e70:	08001e81 	.word	0x08001e81
 8001e74:	08001e87 	.word	0x08001e87
 8001e78:	08001e81 	.word	0x08001e81
 8001e7c:	08001e99 	.word	0x08001e99
  {
    switch (tmp)
    {
    case DMA_FIFO_THRESHOLD_1QUARTERFULL:
    case DMA_FIFO_THRESHOLD_3QUARTERSFULL:
      status = HAL_ERROR;
 8001e80:	2301      	movs	r3, #1
 8001e82:	73fb      	strb	r3, [r7, #15]
      break;
 8001e84:	e030      	b.n	8001ee8 <DMA_CheckFifoParam+0xe8>
    case DMA_FIFO_THRESHOLD_HALFFULL:
      if ((hdma->Init.MemBurst & DMA_SxCR_MBURST_1) == DMA_SxCR_MBURST_1)
 8001e86:	687b      	ldr	r3, [r7, #4]
 8001e88:	6adb      	ldr	r3, [r3, #44]	; 0x2c
 8001e8a:	f003 7380 	and.w	r3, r3, #16777216	; 0x1000000
 8001e8e:	2b00      	cmp	r3, #0
 8001e90:	d025      	beq.n	8001ede <DMA_CheckFifoParam+0xde>
      {
        status = HAL_ERROR;
 8001e92:	2301      	movs	r3, #1
 8001e94:	73fb      	strb	r3, [r7, #15]
      }
      break;
 8001e96:	e022      	b.n	8001ede <DMA_CheckFifoParam+0xde>
    case DMA_FIFO_THRESHOLD_FULL:
      if (hdma->Init.MemBurst == DMA_MBURST_INC16)
 8001e98:	687b      	ldr	r3, [r7, #4]
 8001e9a:	6adb      	ldr	r3, [r3, #44]	; 0x2c
 8001e9c:	f1b3 7fc0 	cmp.w	r3, #25165824	; 0x1800000
 8001ea0:	d11f      	bne.n	8001ee2 <DMA_CheckFifoParam+0xe2>
      {
        status = HAL_ERROR;
 8001ea2:	2301      	movs	r3, #1
 8001ea4:	73fb      	strb	r3, [r7, #15]
      }
      break;   
 8001ea6:	e01c      	b.n	8001ee2 <DMA_CheckFifoParam+0xe2>
  }
  
  /* Memory Data size equal to Word */
  else
  {
    switch (tmp)
 8001ea8:	68bb      	ldr	r3, [r7, #8]
 8001eaa:	2b02      	cmp	r3, #2
 8001eac:	d903      	bls.n	8001eb6 <DMA_CheckFifoParam+0xb6>
 8001eae:	68bb      	ldr	r3, [r7, #8]
 8001eb0:	2b03      	cmp	r3, #3
 8001eb2:	d003      	beq.n	8001ebc <DMA_CheckFifoParam+0xbc>
      {
        status = HAL_ERROR;
      }
      break;
    default:
      break;
 8001eb4:	e018      	b.n	8001ee8 <DMA_CheckFifoParam+0xe8>
      status = HAL_ERROR;
 8001eb6:	2301      	movs	r3, #1
 8001eb8:	73fb      	strb	r3, [r7, #15]
      break;
 8001eba:	e015      	b.n	8001ee8 <DMA_CheckFifoParam+0xe8>
      if ((hdma->Init.MemBurst & DMA_SxCR_MBURST_1) == DMA_SxCR_MBURST_1)
 8001ebc:	687b      	ldr	r3, [r7, #4]
 8001ebe:	6adb      	ldr	r3, [r3, #44]	; 0x2c
 8001ec0:	f003 7380 	and.w	r3, r3, #16777216	; 0x1000000
 8001ec4:	2b00      	cmp	r3, #0
 8001ec6:	d00e      	beq.n	8001ee6 <DMA_CheckFifoParam+0xe6>
        status = HAL_ERROR;
 8001ec8:	2301      	movs	r3, #1
 8001eca:	73fb      	strb	r3, [r7, #15]
      break;
 8001ecc:	e00b      	b.n	8001ee6 <DMA_CheckFifoParam+0xe6>
      break;
 8001ece:	bf00      	nop
 8001ed0:	e00a      	b.n	8001ee8 <DMA_CheckFifoParam+0xe8>
      break;
 8001ed2:	bf00      	nop
 8001ed4:	e008      	b.n	8001ee8 <DMA_CheckFifoParam+0xe8>
      break;
 8001ed6:	bf00      	nop
 8001ed8:	e006      	b.n	8001ee8 <DMA_CheckFifoParam+0xe8>
      break;
 8001eda:	bf00      	nop
 8001edc:	e004      	b.n	8001ee8 <DMA_CheckFifoParam+0xe8>
      break;
 8001ede:	bf00      	nop
 8001ee0:	e002      	b.n	8001ee8 <DMA_CheckFifoParam+0xe8>
      break;   
 8001ee2:	bf00      	nop
 8001ee4:	e000      	b.n	8001ee8 <DMA_CheckFifoParam+0xe8>
      break;
 8001ee6:	bf00      	nop
    }
  } 
  
  return status; 
 8001ee8:	7bfb      	ldrb	r3, [r7, #15]
}
 8001eea:	4618      	mov	r0, r3
 8001eec:	3714      	adds	r7, #20
 8001eee:	46bd      	mov	sp, r7
 8001ef0:	f85d 7b04 	ldr.w	r7, [sp], #4
 8001ef4:	4770      	bx	lr
 8001ef6:	bf00      	nop

08001ef8 <HAL_GPIO_Init>:
  * @param  GPIO_Init pointer to a GPIO_InitTypeDef structure that contains
  *         the configuration information for the specified GPIO peripheral.
  * @retval None
  */
void HAL_GPIO_Init(GPIO_TypeDef  *GPIOx, GPIO_InitTypeDef *GPIO_Init)
{
 8001ef8:	b480      	push	{r7}
 8001efa:	b089      	sub	sp, #36	; 0x24
 8001efc:	af00      	add	r7, sp, #0
 8001efe:	6078      	str	r0, [r7, #4]
 8001f00:	6039      	str	r1, [r7, #0]
  uint32_t position;
  uint32_t ioposition = 0x00U;
 8001f02:	2300      	movs	r3, #0
 8001f04:	617b      	str	r3, [r7, #20]
  uint32_t iocurrent = 0x00U;
 8001f06:	2300      	movs	r3, #0
 8001f08:	613b      	str	r3, [r7, #16]
  uint32_t temp = 0x00U;
 8001f0a:	2300      	movs	r3, #0
 8001f0c:	61bb      	str	r3, [r7, #24]
  assert_param(IS_GPIO_PIN(GPIO_Init->Pin));
  assert_param(IS_GPIO_MODE(GPIO_Init->Mode));
  assert_param(IS_GPIO_PULL(GPIO_Init->Pull));

  /* Configure the port pins */
  for(position = 0U; position < GPIO_NUMBER; position++)
 8001f0e:	2300      	movs	r3, #0
 8001f10:	61fb      	str	r3, [r7, #28]
 8001f12:	e16b      	b.n	80021ec <HAL_GPIO_Init+0x2f4>
  {
    /* Get the IO position */
    ioposition = 0x01U << position;
 8001f14:	2201      	movs	r2, #1
 8001f16:	69fb      	ldr	r3, [r7, #28]
 8001f18:	fa02 f303 	lsl.w	r3, r2, r3
 8001f1c:	617b      	str	r3, [r7, #20]
    /* Get the current IO position */
    iocurrent = (uint32_t)(GPIO_Init->Pin) & ioposition;
 8001f1e:	683b      	ldr	r3, [r7, #0]
 8001f20:	681b      	ldr	r3, [r3, #0]
 8001f22:	697a      	ldr	r2, [r7, #20]
 8001f24:	4013      	ands	r3, r2
 8001f26:	613b      	str	r3, [r7, #16]

    if(iocurrent == ioposition)
 8001f28:	693a      	ldr	r2, [r7, #16]
 8001f2a:	697b      	ldr	r3, [r7, #20]
 8001f2c:	429a      	cmp	r2, r3
 8001f2e:	f040 815a 	bne.w	80021e6 <HAL_GPIO_Init+0x2ee>
    {
      /*--------------------- GPIO Mode Configuration ------------------------*/
      /* In case of Output or Alternate function mode selection */
      if(((GPIO_Init->Mode & GPIO_MODE) == MODE_OUTPUT) || \
 8001f32:	683b      	ldr	r3, [r7, #0]
 8001f34:	685b      	ldr	r3, [r3, #4]
 8001f36:	f003 0303 	and.w	r3, r3, #3
 8001f3a:	2b01      	cmp	r3, #1
 8001f3c:	d005      	beq.n	8001f4a <HAL_GPIO_Init+0x52>
          (GPIO_Init->Mode & GPIO_MODE) == MODE_AF)
 8001f3e:	683b      	ldr	r3, [r7, #0]
 8001f40:	685b      	ldr	r3, [r3, #4]
 8001f42:	f003 0303 	and.w	r3, r3, #3
      if(((GPIO_Init->Mode & GPIO_MODE) == MODE_OUTPUT) || \
 8001f46:	2b02      	cmp	r3, #2
 8001f48:	d130      	bne.n	8001fac <HAL_GPIO_Init+0xb4>
      {
        /* Check the Speed parameter */
        assert_param(IS_GPIO_SPEED(GPIO_Init->Speed));
        /* Configure the IO Speed */
        temp = GPIOx->OSPEEDR; 
 8001f4a:	687b      	ldr	r3, [r7, #4]
 8001f4c:	689b      	ldr	r3, [r3, #8]
 8001f4e:	61bb      	str	r3, [r7, #24]
        temp &= ~(GPIO_OSPEEDER_OSPEEDR0 << (position * 2U));
 8001f50:	69fb      	ldr	r3, [r7, #28]
 8001f52:	005b      	lsls	r3, r3, #1
 8001f54:	2203      	movs	r2, #3
 8001f56:	fa02 f303 	lsl.w	r3, r2, r3
 8001f5a:	43db      	mvns	r3, r3
 8001f5c:	69ba      	ldr	r2, [r7, #24]
 8001f5e:	4013      	ands	r3, r2
 8001f60:	61bb      	str	r3, [r7, #24]
        temp |= (GPIO_Init->Speed << (position * 2U));
 8001f62:	683b      	ldr	r3, [r7, #0]
 8001f64:	68da      	ldr	r2, [r3, #12]
 8001f66:	69fb      	ldr	r3, [r7, #28]
 8001f68:	005b      	lsls	r3, r3, #1
 8001f6a:	fa02 f303 	lsl.w	r3, r2, r3
 8001f6e:	69ba      	ldr	r2, [r7, #24]
 8001f70:	4313      	orrs	r3, r2
 8001f72:	61bb      	str	r3, [r7, #24]
        GPIOx->OSPEEDR = temp;
 8001f74:	687b      	ldr	r3, [r7, #4]
 8001f76:	69ba      	ldr	r2, [r7, #24]
 8001f78:	609a      	str	r2, [r3, #8]

        /* Configure the IO Output Type */
        temp = GPIOx->OTYPER;
 8001f7a:	687b      	ldr	r3, [r7, #4]
 8001f7c:	685b      	ldr	r3, [r3, #4]
 8001f7e:	61bb      	str	r3, [r7, #24]
        temp &= ~(GPIO_OTYPER_OT_0 << position) ;
 8001f80:	2201      	movs	r2, #1
 8001f82:	69fb      	ldr	r3, [r7, #28]
 8001f84:	fa02 f303 	lsl.w	r3, r2, r3
 8001f88:	43db      	mvns	r3, r3
 8001f8a:	69ba      	ldr	r2, [r7, #24]
 8001f8c:	4013      	ands	r3, r2
 8001f8e:	61bb      	str	r3, [r7, #24]
        temp |= (((GPIO_Init->Mode & GPIO_OUTPUT_TYPE) >> 4U) << position);
 8001f90:	683b      	ldr	r3, [r7, #0]
 8001f92:	685b      	ldr	r3, [r3, #4]
 8001f94:	091b      	lsrs	r3, r3, #4
 8001f96:	f003 0201 	and.w	r2, r3, #1
 8001f9a:	69fb      	ldr	r3, [r7, #28]
 8001f9c:	fa02 f303 	lsl.w	r3, r2, r3
 8001fa0:	69ba      	ldr	r2, [r7, #24]
 8001fa2:	4313      	orrs	r3, r2
 8001fa4:	61bb      	str	r3, [r7, #24]
        GPIOx->OTYPER = temp;
 8001fa6:	687b      	ldr	r3, [r7, #4]
 8001fa8:	69ba      	ldr	r2, [r7, #24]
 8001faa:	605a      	str	r2, [r3, #4]
       }

      if((GPIO_Init->Mode & GPIO_MODE) != MODE_ANALOG)
 8001fac:	683b      	ldr	r3, [r7, #0]
 8001fae:	685b      	ldr	r3, [r3, #4]
 8001fb0:	f003 0303 	and.w	r3, r3, #3
 8001fb4:	2b03      	cmp	r3, #3
 8001fb6:	d017      	beq.n	8001fe8 <HAL_GPIO_Init+0xf0>
      {
        /* Activate the Pull-up or Pull down resistor for the current IO */
        temp = GPIOx->PUPDR;
 8001fb8:	687b      	ldr	r3, [r7, #4]
 8001fba:	68db      	ldr	r3, [r3, #12]
 8001fbc:	61bb      	str	r3, [r7, #24]
        temp &= ~(GPIO_PUPDR_PUPDR0 << (position * 2U));
 8001fbe:	69fb      	ldr	r3, [r7, #28]
 8001fc0:	005b      	lsls	r3, r3, #1
 8001fc2:	2203      	movs	r2, #3
 8001fc4:	fa02 f303 	lsl.w	r3, r2, r3
 8001fc8:	43db      	mvns	r3, r3
 8001fca:	69ba      	ldr	r2, [r7, #24]
 8001fcc:	4013      	ands	r3, r2
 8001fce:	61bb      	str	r3, [r7, #24]
        temp |= ((GPIO_Init->Pull) << (position * 2U));
 8001fd0:	683b      	ldr	r3, [r7, #0]
 8001fd2:	689a      	ldr	r2, [r3, #8]
 8001fd4:	69fb      	ldr	r3, [r7, #28]
 8001fd6:	005b      	lsls	r3, r3, #1
 8001fd8:	fa02 f303 	lsl.w	r3, r2, r3
 8001fdc:	69ba      	ldr	r2, [r7, #24]
 8001fde:	4313      	orrs	r3, r2
 8001fe0:	61bb      	str	r3, [r7, #24]
        GPIOx->PUPDR = temp;
 8001fe2:	687b      	ldr	r3, [r7, #4]
 8001fe4:	69ba      	ldr	r2, [r7, #24]
 8001fe6:	60da      	str	r2, [r3, #12]
      }

      /* In case of Alternate function mode selection */
      if((GPIO_Init->Mode & GPIO_MODE) == MODE_AF)
 8001fe8:	683b      	ldr	r3, [r7, #0]
 8001fea:	685b      	ldr	r3, [r3, #4]
 8001fec:	f003 0303 	and.w	r3, r3, #3
 8001ff0:	2b02      	cmp	r3, #2
 8001ff2:	d123      	bne.n	800203c <HAL_GPIO_Init+0x144>
      {
        /* Check the Alternate function parameter */
        assert_param(IS_GPIO_AF(GPIO_Init->Alternate));
        /* Configure Alternate function mapped with the current IO */
        temp = GPIOx->AFR[position >> 3U];
 8001ff4:	69fb      	ldr	r3, [r7, #28]
 8001ff6:	08da      	lsrs	r2, r3, #3
 8001ff8:	687b      	ldr	r3, [r7, #4]
 8001ffa:	3208      	adds	r2, #8
 8001ffc:	f853 3022 	ldr.w	r3, [r3, r2, lsl #2]
 8002000:	61bb      	str	r3, [r7, #24]
        temp &= ~(0xFU << ((uint32_t)(position & 0x07U) * 4U)) ;
 8002002:	69fb      	ldr	r3, [r7, #28]
 8002004:	f003 0307 	and.w	r3, r3, #7
 8002008:	009b      	lsls	r3, r3, #2
 800200a:	220f      	movs	r2, #15
 800200c:	fa02 f303 	lsl.w	r3, r2, r3
 8002010:	43db      	mvns	r3, r3
 8002012:	69ba      	ldr	r2, [r7, #24]
 8002014:	4013      	ands	r3, r2
 8002016:	61bb      	str	r3, [r7, #24]
        temp |= ((uint32_t)(GPIO_Init->Alternate) << (((uint32_t)position & 0x07U) * 4U));
 8002018:	683b      	ldr	r3, [r7, #0]
 800201a:	691a      	ldr	r2, [r3, #16]
 800201c:	69fb      	ldr	r3, [r7, #28]
 800201e:	f003 0307 	and.w	r3, r3, #7
 8002022:	009b      	lsls	r3, r3, #2
 8002024:	fa02 f303 	lsl.w	r3, r2, r3
 8002028:	69ba      	ldr	r2, [r7, #24]
 800202a:	4313      	orrs	r3, r2
 800202c:	61bb      	str	r3, [r7, #24]
        GPIOx->AFR[position >> 3U] = temp;
 800202e:	69fb      	ldr	r3, [r7, #28]
 8002030:	08da      	lsrs	r2, r3, #3
 8002032:	687b      	ldr	r3, [r7, #4]
 8002034:	3208      	adds	r2, #8
 8002036:	69b9      	ldr	r1, [r7, #24]
 8002038:	f843 1022 	str.w	r1, [r3, r2, lsl #2]
      }

      /* Configure IO Direction mode (Input, Output, Alternate or Analog) */
      temp = GPIOx->MODER;
 800203c:	687b      	ldr	r3, [r7, #4]
 800203e:	681b      	ldr	r3, [r3, #0]
 8002040:	61bb      	str	r3, [r7, #24]
      temp &= ~(GPIO_MODER_MODER0 << (position * 2U));
 8002042:	69fb      	ldr	r3, [r7, #28]
 8002044:	005b      	lsls	r3, r3, #1
 8002046:	2203      	movs	r2, #3
 8002048:	fa02 f303 	lsl.w	r3, r2, r3
 800204c:	43db      	mvns	r3, r3
 800204e:	69ba      	ldr	r2, [r7, #24]
 8002050:	4013      	ands	r3, r2
 8002052:	61bb      	str	r3, [r7, #24]
      temp |= ((GPIO_Init->Mode & GPIO_MODE) << (position * 2U));
 8002054:	683b      	ldr	r3, [r7, #0]
 8002056:	685b      	ldr	r3, [r3, #4]
 8002058:	f003 0203 	and.w	r2, r3, #3
 800205c:	69fb      	ldr	r3, [r7, #28]
 800205e:	005b      	lsls	r3, r3, #1
 8002060:	fa02 f303 	lsl.w	r3, r2, r3
 8002064:	69ba      	ldr	r2, [r7, #24]
 8002066:	4313      	orrs	r3, r2
 8002068:	61bb      	str	r3, [r7, #24]
      GPIOx->MODER = temp;
 800206a:	687b      	ldr	r3, [r7, #4]
 800206c:	69ba      	ldr	r2, [r7, #24]
 800206e:	601a      	str	r2, [r3, #0]

      /*--------------------- EXTI Mode Configuration ------------------------*/
      /* Configure the External Interrupt or event for the current IO */
      if((GPIO_Init->Mode & EXTI_MODE) == EXTI_MODE)
 8002070:	683b      	ldr	r3, [r7, #0]
 8002072:	685b      	ldr	r3, [r3, #4]
 8002074:	f003 5380 	and.w	r3, r3, #268435456	; 0x10000000
 8002078:	2b00      	cmp	r3, #0
 800207a:	f000 80b4 	beq.w	80021e6 <HAL_GPIO_Init+0x2ee>
      {
        /* Enable SYSCFG Clock */
        __HAL_RCC_SYSCFG_CLK_ENABLE();
 800207e:	2300      	movs	r3, #0
 8002080:	60fb      	str	r3, [r7, #12]
 8002082:	4b60      	ldr	r3, [pc, #384]	; (8002204 <HAL_GPIO_Init+0x30c>)
 8002084:	6c5b      	ldr	r3, [r3, #68]	; 0x44
 8002086:	4a5f      	ldr	r2, [pc, #380]	; (8002204 <HAL_GPIO_Init+0x30c>)
 8002088:	f443 4380 	orr.w	r3, r3, #16384	; 0x4000
 800208c:	6453      	str	r3, [r2, #68]	; 0x44
 800208e:	4b5d      	ldr	r3, [pc, #372]	; (8002204 <HAL_GPIO_Init+0x30c>)
 8002090:	6c5b      	ldr	r3, [r3, #68]	; 0x44
 8002092:	f403 4380 	and.w	r3, r3, #16384	; 0x4000
 8002096:	60fb      	str	r3, [r7, #12]
 8002098:	68fb      	ldr	r3, [r7, #12]

        temp = SYSCFG->EXTICR[position >> 2U];
 800209a:	4a5b      	ldr	r2, [pc, #364]	; (8002208 <HAL_GPIO_Init+0x310>)
 800209c:	69fb      	ldr	r3, [r7, #28]
 800209e:	089b      	lsrs	r3, r3, #2
 80020a0:	3302      	adds	r3, #2
 80020a2:	f852 3023 	ldr.w	r3, [r2, r3, lsl #2]
 80020a6:	61bb      	str	r3, [r7, #24]
        temp &= ~(0x0FU << (4U * (position & 0x03U)));
 80020a8:	69fb      	ldr	r3, [r7, #28]
 80020aa:	f003 0303 	and.w	r3, r3, #3
 80020ae:	009b      	lsls	r3, r3, #2
 80020b0:	220f      	movs	r2, #15
 80020b2:	fa02 f303 	lsl.w	r3, r2, r3
 80020b6:	43db      	mvns	r3, r3
 80020b8:	69ba      	ldr	r2, [r7, #24]
 80020ba:	4013      	ands	r3, r2
 80020bc:	61bb      	str	r3, [r7, #24]
        temp |= ((uint32_t)(GPIO_GET_INDEX(GPIOx)) << (4U * (position & 0x03U)));
 80020be:	687b      	ldr	r3, [r7, #4]
 80020c0:	4a52      	ldr	r2, [pc, #328]	; (800220c <HAL_GPIO_Init+0x314>)
 80020c2:	4293      	cmp	r3, r2
 80020c4:	d02b      	beq.n	800211e <HAL_GPIO_Init+0x226>
 80020c6:	687b      	ldr	r3, [r7, #4]
 80020c8:	4a51      	ldr	r2, [pc, #324]	; (8002210 <HAL_GPIO_Init+0x318>)
 80020ca:	4293      	cmp	r3, r2
 80020cc:	d025      	beq.n	800211a <HAL_GPIO_Init+0x222>
 80020ce:	687b      	ldr	r3, [r7, #4]
 80020d0:	4a50      	ldr	r2, [pc, #320]	; (8002214 <HAL_GPIO_Init+0x31c>)
 80020d2:	4293      	cmp	r3, r2
 80020d4:	d01f      	beq.n	8002116 <HAL_GPIO_Init+0x21e>
 80020d6:	687b      	ldr	r3, [r7, #4]
 80020d8:	4a4f      	ldr	r2, [pc, #316]	; (8002218 <HAL_GPIO_Init+0x320>)
 80020da:	4293      	cmp	r3, r2
 80020dc:	d019      	beq.n	8002112 <HAL_GPIO_Init+0x21a>
 80020de:	687b      	ldr	r3, [r7, #4]
 80020e0:	4a4e      	ldr	r2, [pc, #312]	; (800221c <HAL_GPIO_Init+0x324>)
 80020e2:	4293      	cmp	r3, r2
 80020e4:	d013      	beq.n	800210e <HAL_GPIO_Init+0x216>
 80020e6:	687b      	ldr	r3, [r7, #4]
 80020e8:	4a4d      	ldr	r2, [pc, #308]	; (8002220 <HAL_GPIO_Init+0x328>)
 80020ea:	4293      	cmp	r3, r2
 80020ec:	d00d      	beq.n	800210a <HAL_GPIO_Init+0x212>
 80020ee:	687b      	ldr	r3, [r7, #4]
 80020f0:	4a4c      	ldr	r2, [pc, #304]	; (8002224 <HAL_GPIO_Init+0x32c>)
 80020f2:	4293      	cmp	r3, r2
 80020f4:	d007      	beq.n	8002106 <HAL_GPIO_Init+0x20e>
 80020f6:	687b      	ldr	r3, [r7, #4]
 80020f8:	4a4b      	ldr	r2, [pc, #300]	; (8002228 <HAL_GPIO_Init+0x330>)
 80020fa:	4293      	cmp	r3, r2
 80020fc:	d101      	bne.n	8002102 <HAL_GPIO_Init+0x20a>
 80020fe:	2307      	movs	r3, #7
 8002100:	e00e      	b.n	8002120 <HAL_GPIO_Init+0x228>
 8002102:	2308      	movs	r3, #8
 8002104:	e00c      	b.n	8002120 <HAL_GPIO_Init+0x228>
 8002106:	2306      	movs	r3, #6
 8002108:	e00a      	b.n	8002120 <HAL_GPIO_Init+0x228>
 800210a:	2305      	movs	r3, #5
 800210c:	e008      	b.n	8002120 <HAL_GPIO_Init+0x228>
 800210e:	2304      	movs	r3, #4
 8002110:	e006      	b.n	8002120 <HAL_GPIO_Init+0x228>
 8002112:	2303      	movs	r3, #3
 8002114:	e004      	b.n	8002120 <HAL_GPIO_Init+0x228>
 8002116:	2302      	movs	r3, #2
 8002118:	e002      	b.n	8002120 <HAL_GPIO_Init+0x228>
 800211a:	2301      	movs	r3, #1
 800211c:	e000      	b.n	8002120 <HAL_GPIO_Init+0x228>
 800211e:	2300      	movs	r3, #0
 8002120:	69fa      	ldr	r2, [r7, #28]
 8002122:	f002 0203 	and.w	r2, r2, #3
 8002126:	0092      	lsls	r2, r2, #2
 8002128:	4093      	lsls	r3, r2
 800212a:	69ba      	ldr	r2, [r7, #24]
 800212c:	4313      	orrs	r3, r2
 800212e:	61bb      	str	r3, [r7, #24]
        SYSCFG->EXTICR[position >> 2U] = temp;
 8002130:	4935      	ldr	r1, [pc, #212]	; (8002208 <HAL_GPIO_Init+0x310>)
 8002132:	69fb      	ldr	r3, [r7, #28]
 8002134:	089b      	lsrs	r3, r3, #2
 8002136:	3302      	adds	r3, #2
 8002138:	69ba      	ldr	r2, [r7, #24]
 800213a:	f841 2023 	str.w	r2, [r1, r3, lsl #2]

        /* Clear EXTI line configuration */
        temp = EXTI->IMR;
 800213e:	4b3b      	ldr	r3, [pc, #236]	; (800222c <HAL_GPIO_Init+0x334>)
 8002140:	681b      	ldr	r3, [r3, #0]
 8002142:	61bb      	str	r3, [r7, #24]
        temp &= ~((uint32_t)iocurrent);
 8002144:	693b      	ldr	r3, [r7, #16]
 8002146:	43db      	mvns	r3, r3
 8002148:	69ba      	ldr	r2, [r7, #24]
 800214a:	4013      	ands	r3, r2
 800214c:	61bb      	str	r3, [r7, #24]
        if((GPIO_Init->Mode & GPIO_MODE_IT) == GPIO_MODE_IT)
 800214e:	683b      	ldr	r3, [r7, #0]
 8002150:	685b      	ldr	r3, [r3, #4]
 8002152:	f403 3380 	and.w	r3, r3, #65536	; 0x10000
 8002156:	2b00      	cmp	r3, #0
 8002158:	d003      	beq.n	8002162 <HAL_GPIO_Init+0x26a>
        {
          temp |= iocurrent;
 800215a:	69ba      	ldr	r2, [r7, #24]
 800215c:	693b      	ldr	r3, [r7, #16]
 800215e:	4313      	orrs	r3, r2
 8002160:	61bb      	str	r3, [r7, #24]
        }
        EXTI->IMR = temp;
 8002162:	4a32      	ldr	r2, [pc, #200]	; (800222c <HAL_GPIO_Init+0x334>)
 8002164:	69bb      	ldr	r3, [r7, #24]
 8002166:	6013      	str	r3, [r2, #0]

        temp = EXTI->EMR;
 8002168:	4b30      	ldr	r3, [pc, #192]	; (800222c <HAL_GPIO_Init+0x334>)
 800216a:	685b      	ldr	r3, [r3, #4]
 800216c:	61bb      	str	r3, [r7, #24]
        temp &= ~((uint32_t)iocurrent);
 800216e:	693b      	ldr	r3, [r7, #16]
 8002170:	43db      	mvns	r3, r3
 8002172:	69ba      	ldr	r2, [r7, #24]
 8002174:	4013      	ands	r3, r2
 8002176:	61bb      	str	r3, [r7, #24]
        if((GPIO_Init->Mode & GPIO_MODE_EVT) == GPIO_MODE_EVT)
 8002178:	683b      	ldr	r3, [r7, #0]
 800217a:	685b      	ldr	r3, [r3, #4]
 800217c:	f403 3300 	and.w	r3, r3, #131072	; 0x20000
 8002180:	2b00      	cmp	r3, #0
 8002182:	d003      	beq.n	800218c <HAL_GPIO_Init+0x294>
        {
          temp |= iocurrent;
 8002184:	69ba      	ldr	r2, [r7, #24]
 8002186:	693b      	ldr	r3, [r7, #16]
 8002188:	4313      	orrs	r3, r2
 800218a:	61bb      	str	r3, [r7, #24]
        }
        EXTI->EMR = temp;
 800218c:	4a27      	ldr	r2, [pc, #156]	; (800222c <HAL_GPIO_Init+0x334>)
 800218e:	69bb      	ldr	r3, [r7, #24]
 8002190:	6053      	str	r3, [r2, #4]

        /* Clear Rising Falling edge configuration */
        temp = EXTI->RTSR;
 8002192:	4b26      	ldr	r3, [pc, #152]	; (800222c <HAL_GPIO_Init+0x334>)
 8002194:	689b      	ldr	r3, [r3, #8]
 8002196:	61bb      	str	r3, [r7, #24]
        temp &= ~((uint32_t)iocurrent);
 8002198:	693b      	ldr	r3, [r7, #16]
 800219a:	43db      	mvns	r3, r3
 800219c:	69ba      	ldr	r2, [r7, #24]
 800219e:	4013      	ands	r3, r2
 80021a0:	61bb      	str	r3, [r7, #24]
        if((GPIO_Init->Mode & RISING_EDGE) == RISING_EDGE)
 80021a2:	683b      	ldr	r3, [r7, #0]
 80021a4:	685b      	ldr	r3, [r3, #4]
 80021a6:	f403 1380 	and.w	r3, r3, #1048576	; 0x100000
 80021aa:	2b00      	cmp	r3, #0
 80021ac:	d003      	beq.n	80021b6 <HAL_GPIO_Init+0x2be>
        {
          temp |= iocurrent;
 80021ae:	69ba      	ldr	r2, [r7, #24]
 80021b0:	693b      	ldr	r3, [r7, #16]
 80021b2:	4313      	orrs	r3, r2
 80021b4:	61bb      	str	r3, [r7, #24]
        }
        EXTI->RTSR = temp;
 80021b6:	4a1d      	ldr	r2, [pc, #116]	; (800222c <HAL_GPIO_Init+0x334>)
 80021b8:	69bb      	ldr	r3, [r7, #24]
 80021ba:	6093      	str	r3, [r2, #8]

        temp = EXTI->FTSR;
 80021bc:	4b1b      	ldr	r3, [pc, #108]	; (800222c <HAL_GPIO_Init+0x334>)
 80021be:	68db      	ldr	r3, [r3, #12]
 80021c0:	61bb      	str	r3, [r7, #24]
        temp &= ~((uint32_t)iocurrent);
 80021c2:	693b      	ldr	r3, [r7, #16]
 80021c4:	43db      	mvns	r3, r3
 80021c6:	69ba      	ldr	r2, [r7, #24]
 80021c8:	4013      	ands	r3, r2
 80021ca:	61bb      	str	r3, [r7, #24]
        if((GPIO_Init->Mode & FALLING_EDGE) == FALLING_EDGE)
 80021cc:	683b      	ldr	r3, [r7, #0]
 80021ce:	685b      	ldr	r3, [r3, #4]
 80021d0:	f403 1300 	and.w	r3, r3, #2097152	; 0x200000
 80021d4:	2b00      	cmp	r3, #0
 80021d6:	d003      	beq.n	80021e0 <HAL_GPIO_Init+0x2e8>
        {
          temp |= iocurrent;
 80021d8:	69ba      	ldr	r2, [r7, #24]
 80021da:	693b      	ldr	r3, [r7, #16]
 80021dc:	4313      	orrs	r3, r2
 80021de:	61bb      	str	r3, [r7, #24]
        }
        EXTI->FTSR = temp;
 80021e0:	4a12      	ldr	r2, [pc, #72]	; (800222c <HAL_GPIO_Init+0x334>)
 80021e2:	69bb      	ldr	r3, [r7, #24]
 80021e4:	60d3      	str	r3, [r2, #12]
  for(position = 0U; position < GPIO_NUMBER; position++)
 80021e6:	69fb      	ldr	r3, [r7, #28]
 80021e8:	3301      	adds	r3, #1
 80021ea:	61fb      	str	r3, [r7, #28]
 80021ec:	69fb      	ldr	r3, [r7, #28]
 80021ee:	2b0f      	cmp	r3, #15
 80021f0:	f67f ae90 	bls.w	8001f14 <HAL_GPIO_Init+0x1c>
      }
    }
  }
}
 80021f4:	bf00      	nop
 80021f6:	bf00      	nop
 80021f8:	3724      	adds	r7, #36	; 0x24
 80021fa:	46bd      	mov	sp, r7
 80021fc:	f85d 7b04 	ldr.w	r7, [sp], #4
 8002200:	4770      	bx	lr
 8002202:	bf00      	nop
 8002204:	40023800 	.word	0x40023800
 8002208:	40013800 	.word	0x40013800
 800220c:	40020000 	.word	0x40020000
 8002210:	40020400 	.word	0x40020400
 8002214:	40020800 	.word	0x40020800
 8002218:	40020c00 	.word	0x40020c00
 800221c:	40021000 	.word	0x40021000
 8002220:	40021400 	.word	0x40021400
 8002224:	40021800 	.word	0x40021800
 8002228:	40021c00 	.word	0x40021c00
 800222c:	40013c00 	.word	0x40013c00

08002230 <HAL_GPIO_WritePin>:
  *            @arg GPIO_PIN_RESET: to clear the port pin
  *            @arg GPIO_PIN_SET: to set the port pin
  * @retval None
  */
void HAL_GPIO_WritePin(GPIO_TypeDef* GPIOx, uint16_t GPIO_Pin, GPIO_PinState PinState)
{
 8002230:	b480      	push	{r7}
 8002232:	b083      	sub	sp, #12
 8002234:	af00      	add	r7, sp, #0
 8002236:	6078      	str	r0, [r7, #4]
 8002238:	460b      	mov	r3, r1
 800223a:	807b      	strh	r3, [r7, #2]
 800223c:	4613      	mov	r3, r2
 800223e:	707b      	strb	r3, [r7, #1]
  /* Check the parameters */
  assert_param(IS_GPIO_PIN(GPIO_Pin));
  assert_param(IS_GPIO_PIN_ACTION(PinState));

  if(PinState != GPIO_PIN_RESET)
 8002240:	787b      	ldrb	r3, [r7, #1]
 8002242:	2b00      	cmp	r3, #0
 8002244:	d003      	beq.n	800224e <HAL_GPIO_WritePin+0x1e>
  {
    GPIOx->BSRR = GPIO_Pin;
 8002246:	887a      	ldrh	r2, [r7, #2]
 8002248:	687b      	ldr	r3, [r7, #4]
 800224a:	619a      	str	r2, [r3, #24]
  }
  else
  {
    GPIOx->BSRR = (uint32_t)GPIO_Pin << 16U;
  }
}
 800224c:	e003      	b.n	8002256 <HAL_GPIO_WritePin+0x26>
    GPIOx->BSRR = (uint32_t)GPIO_Pin << 16U;
 800224e:	887b      	ldrh	r3, [r7, #2]
 8002250:	041a      	lsls	r2, r3, #16
 8002252:	687b      	ldr	r3, [r7, #4]
 8002254:	619a      	str	r2, [r3, #24]
}
 8002256:	bf00      	nop
 8002258:	370c      	adds	r7, #12
 800225a:	46bd      	mov	sp, r7
 800225c:	f85d 7b04 	ldr.w	r7, [sp], #4
 8002260:	4770      	bx	lr
	...

08002264 <HAL_RCC_OscConfig>:
  *         supported by this API. User should request a transition to HSE Off
  *         first and then HSE On or HSE Bypass.
  * @retval HAL status
  */
__weak HAL_StatusTypeDef HAL_RCC_OscConfig(RCC_OscInitTypeDef  *RCC_OscInitStruct)
{
 8002264:	b580      	push	{r7, lr}
 8002266:	b086      	sub	sp, #24
 8002268:	af00      	add	r7, sp, #0
 800226a:	6078      	str	r0, [r7, #4]
  uint32_t tickstart, pll_config;

  /* Check Null pointer */
  if(RCC_OscInitStruct == NULL)
 800226c:	687b      	ldr	r3, [r7, #4]
 800226e:	2b00      	cmp	r3, #0
 8002270:	d101      	bne.n	8002276 <HAL_RCC_OscConfig+0x12>
  {
    return HAL_ERROR;
 8002272:	2301      	movs	r3, #1
 8002274:	e264      	b.n	8002740 <HAL_RCC_OscConfig+0x4dc>
  }

  /* Check the parameters */
  assert_param(IS_RCC_OSCILLATORTYPE(RCC_OscInitStruct->OscillatorType));
  /*------------------------------- HSE Configuration ------------------------*/
  if(((RCC_OscInitStruct->OscillatorType) & RCC_OSCILLATORTYPE_HSE) == RCC_OSCILLATORTYPE_HSE)
 8002276:	687b      	ldr	r3, [r7, #4]
 8002278:	681b      	ldr	r3, [r3, #0]
 800227a:	f003 0301 	and.w	r3, r3, #1
 800227e:	2b00      	cmp	r3, #0
 8002280:	d075      	beq.n	800236e <HAL_RCC_OscConfig+0x10a>
  {
    /* Check the parameters */
    assert_param(IS_RCC_HSE(RCC_OscInitStruct->HSEState));
    /* When the HSE is used as system clock or clock source for PLL in these cases HSE will not disabled */
    if((__HAL_RCC_GET_SYSCLK_SOURCE() == RCC_CFGR_SWS_HSE) ||\
 8002282:	4ba3      	ldr	r3, [pc, #652]	; (8002510 <HAL_RCC_OscConfig+0x2ac>)
 8002284:	689b      	ldr	r3, [r3, #8]
 8002286:	f003 030c 	and.w	r3, r3, #12
 800228a:	2b04      	cmp	r3, #4
 800228c:	d00c      	beq.n	80022a8 <HAL_RCC_OscConfig+0x44>
      ((__HAL_RCC_GET_SYSCLK_SOURCE() == RCC_CFGR_SWS_PLL) && ((RCC->PLLCFGR & RCC_PLLCFGR_PLLSRC) == RCC_PLLCFGR_PLLSRC_HSE)))
 800228e:	4ba0      	ldr	r3, [pc, #640]	; (8002510 <HAL_RCC_OscConfig+0x2ac>)
 8002290:	689b      	ldr	r3, [r3, #8]
 8002292:	f003 030c 	and.w	r3, r3, #12
    if((__HAL_RCC_GET_SYSCLK_SOURCE() == RCC_CFGR_SWS_HSE) ||\
 8002296:	2b08      	cmp	r3, #8
 8002298:	d112      	bne.n	80022c0 <HAL_RCC_OscConfig+0x5c>
      ((__HAL_RCC_GET_SYSCLK_SOURCE() == RCC_CFGR_SWS_PLL) && ((RCC->PLLCFGR & RCC_PLLCFGR_PLLSRC) == RCC_PLLCFGR_PLLSRC_HSE)))
 800229a:	4b9d      	ldr	r3, [pc, #628]	; (8002510 <HAL_RCC_OscConfig+0x2ac>)
 800229c:	685b      	ldr	r3, [r3, #4]
 800229e:	f403 0380 	and.w	r3, r3, #4194304	; 0x400000
 80022a2:	f5b3 0f80 	cmp.w	r3, #4194304	; 0x400000
 80022a6:	d10b      	bne.n	80022c0 <HAL_RCC_OscConfig+0x5c>
    {
      if((__HAL_RCC_GET_FLAG(RCC_FLAG_HSERDY) != RESET) && (RCC_OscInitStruct->HSEState == RCC_HSE_OFF))
 80022a8:	4b99      	ldr	r3, [pc, #612]	; (8002510 <HAL_RCC_OscConfig+0x2ac>)
 80022aa:	681b      	ldr	r3, [r3, #0]
 80022ac:	f403 3300 	and.w	r3, r3, #131072	; 0x20000
 80022b0:	2b00      	cmp	r3, #0
 80022b2:	d05b      	beq.n	800236c <HAL_RCC_OscConfig+0x108>
 80022b4:	687b      	ldr	r3, [r7, #4]
 80022b6:	685b      	ldr	r3, [r3, #4]
 80022b8:	2b00      	cmp	r3, #0
 80022ba:	d157      	bne.n	800236c <HAL_RCC_OscConfig+0x108>
      {
        return HAL_ERROR;
 80022bc:	2301      	movs	r3, #1
 80022be:	e23f      	b.n	8002740 <HAL_RCC_OscConfig+0x4dc>
      }
    }
    else
    {
      /* Set the new HSE configuration ---------------------------------------*/
      __HAL_RCC_HSE_CONFIG(RCC_OscInitStruct->HSEState);
 80022c0:	687b      	ldr	r3, [r7, #4]
 80022c2:	685b      	ldr	r3, [r3, #4]
 80022c4:	f5b3 3f80 	cmp.w	r3, #65536	; 0x10000
 80022c8:	d106      	bne.n	80022d8 <HAL_RCC_OscConfig+0x74>
 80022ca:	4b91      	ldr	r3, [pc, #580]	; (8002510 <HAL_RCC_OscConfig+0x2ac>)
 80022cc:	681b      	ldr	r3, [r3, #0]
 80022ce:	4a90      	ldr	r2, [pc, #576]	; (8002510 <HAL_RCC_OscConfig+0x2ac>)
 80022d0:	f443 3380 	orr.w	r3, r3, #65536	; 0x10000
 80022d4:	6013      	str	r3, [r2, #0]
 80022d6:	e01d      	b.n	8002314 <HAL_RCC_OscConfig+0xb0>
 80022d8:	687b      	ldr	r3, [r7, #4]
 80022da:	685b      	ldr	r3, [r3, #4]
 80022dc:	f5b3 2fa0 	cmp.w	r3, #327680	; 0x50000
 80022e0:	d10c      	bne.n	80022fc <HAL_RCC_OscConfig+0x98>
 80022e2:	4b8b      	ldr	r3, [pc, #556]	; (8002510 <HAL_RCC_OscConfig+0x2ac>)
 80022e4:	681b      	ldr	r3, [r3, #0]
 80022e6:	4a8a      	ldr	r2, [pc, #552]	; (8002510 <HAL_RCC_OscConfig+0x2ac>)
 80022e8:	f443 2380 	orr.w	r3, r3, #262144	; 0x40000
 80022ec:	6013      	str	r3, [r2, #0]
 80022ee:	4b88      	ldr	r3, [pc, #544]	; (8002510 <HAL_RCC_OscConfig+0x2ac>)
 80022f0:	681b      	ldr	r3, [r3, #0]
 80022f2:	4a87      	ldr	r2, [pc, #540]	; (8002510 <HAL_RCC_OscConfig+0x2ac>)
 80022f4:	f443 3380 	orr.w	r3, r3, #65536	; 0x10000
 80022f8:	6013      	str	r3, [r2, #0]
 80022fa:	e00b      	b.n	8002314 <HAL_RCC_OscConfig+0xb0>
 80022fc:	4b84      	ldr	r3, [pc, #528]	; (8002510 <HAL_RCC_OscConfig+0x2ac>)
 80022fe:	681b      	ldr	r3, [r3, #0]
 8002300:	4a83      	ldr	r2, [pc, #524]	; (8002510 <HAL_RCC_OscConfig+0x2ac>)
 8002302:	f423 3380 	bic.w	r3, r3, #65536	; 0x10000
 8002306:	6013      	str	r3, [r2, #0]
 8002308:	4b81      	ldr	r3, [pc, #516]	; (8002510 <HAL_RCC_OscConfig+0x2ac>)
 800230a:	681b      	ldr	r3, [r3, #0]
 800230c:	4a80      	ldr	r2, [pc, #512]	; (8002510 <HAL_RCC_OscConfig+0x2ac>)
 800230e:	f423 2380 	bic.w	r3, r3, #262144	; 0x40000
 8002312:	6013      	str	r3, [r2, #0]

      /* Check the HSE State */
      if((RCC_OscInitStruct->HSEState) != RCC_HSE_OFF)
 8002314:	687b      	ldr	r3, [r7, #4]
 8002316:	685b      	ldr	r3, [r3, #4]
 8002318:	2b00      	cmp	r3, #0
 800231a:	d013      	beq.n	8002344 <HAL_RCC_OscConfig+0xe0>
      {
        /* Get Start Tick */
        tickstart = HAL_GetTick();
 800231c:	f7ff f8cc 	bl	80014b8 <HAL_GetTick>
 8002320:	6138      	str	r0, [r7, #16]

        /* Wait till HSE is ready */
        while(__HAL_RCC_GET_FLAG(RCC_FLAG_HSERDY) == RESET)
 8002322:	e008      	b.n	8002336 <HAL_RCC_OscConfig+0xd2>
        {
          if((HAL_GetTick() - tickstart ) > HSE_TIMEOUT_VALUE)
 8002324:	f7ff f8c8 	bl	80014b8 <HAL_GetTick>
 8002328:	4602      	mov	r2, r0
 800232a:	693b      	ldr	r3, [r7, #16]
 800232c:	1ad3      	subs	r3, r2, r3
 800232e:	2b64      	cmp	r3, #100	; 0x64
 8002330:	d901      	bls.n	8002336 <HAL_RCC_OscConfig+0xd2>
          {
            return HAL_TIMEOUT;
 8002332:	2303      	movs	r3, #3
 8002334:	e204      	b.n	8002740 <HAL_RCC_OscConfig+0x4dc>
        while(__HAL_RCC_GET_FLAG(RCC_FLAG_HSERDY) == RESET)
 8002336:	4b76      	ldr	r3, [pc, #472]	; (8002510 <HAL_RCC_OscConfig+0x2ac>)
 8002338:	681b      	ldr	r3, [r3, #0]
 800233a:	f403 3300 	and.w	r3, r3, #131072	; 0x20000
 800233e:	2b00      	cmp	r3, #0
 8002340:	d0f0      	beq.n	8002324 <HAL_RCC_OscConfig+0xc0>
 8002342:	e014      	b.n	800236e <HAL_RCC_OscConfig+0x10a>
        }
      }
      else
      {
        /* Get Start Tick */
        tickstart = HAL_GetTick();
 8002344:	f7ff f8b8 	bl	80014b8 <HAL_GetTick>
 8002348:	6138      	str	r0, [r7, #16]

        /* Wait till HSE is bypassed or disabled */
        while(__HAL_RCC_GET_FLAG(RCC_FLAG_HSERDY) != RESET)
 800234a:	e008      	b.n	800235e <HAL_RCC_OscConfig+0xfa>
        {
          if((HAL_GetTick() - tickstart ) > HSE_TIMEOUT_VALUE)
 800234c:	f7ff f8b4 	bl	80014b8 <HAL_GetTick>
 8002350:	4602      	mov	r2, r0
 8002352:	693b      	ldr	r3, [r7, #16]
 8002354:	1ad3      	subs	r3, r2, r3
 8002356:	2b64      	cmp	r3, #100	; 0x64
 8002358:	d901      	bls.n	800235e <HAL_RCC_OscConfig+0xfa>
          {
            return HAL_TIMEOUT;
 800235a:	2303      	movs	r3, #3
 800235c:	e1f0      	b.n	8002740 <HAL_RCC_OscConfig+0x4dc>
        while(__HAL_RCC_GET_FLAG(RCC_FLAG_HSERDY) != RESET)
 800235e:	4b6c      	ldr	r3, [pc, #432]	; (8002510 <HAL_RCC_OscConfig+0x2ac>)
 8002360:	681b      	ldr	r3, [r3, #0]
 8002362:	f403 3300 	and.w	r3, r3, #131072	; 0x20000
 8002366:	2b00      	cmp	r3, #0
 8002368:	d1f0      	bne.n	800234c <HAL_RCC_OscConfig+0xe8>
 800236a:	e000      	b.n	800236e <HAL_RCC_OscConfig+0x10a>
      if((__HAL_RCC_GET_FLAG(RCC_FLAG_HSERDY) != RESET) && (RCC_OscInitStruct->HSEState == RCC_HSE_OFF))
 800236c:	bf00      	nop
        }
      }
    }
  }
  /*----------------------------- HSI Configuration --------------------------*/
  if(((RCC_OscInitStruct->OscillatorType) & RCC_OSCILLATORTYPE_HSI) == RCC_OSCILLATORTYPE_HSI)
 800236e:	687b      	ldr	r3, [r7, #4]
 8002370:	681b      	ldr	r3, [r3, #0]
 8002372:	f003 0302 	and.w	r3, r3, #2
 8002376:	2b00      	cmp	r3, #0
 8002378:	d063      	beq.n	8002442 <HAL_RCC_OscConfig+0x1de>
    /* Check the parameters */
    assert_param(IS_RCC_HSI(RCC_OscInitStruct->HSIState));
    assert_param(IS_RCC_CALIBRATION_VALUE(RCC_OscInitStruct->HSICalibrationValue));

    /* Check if HSI is used as system clock or as PLL source when PLL is selected as system clock */
    if((__HAL_RCC_GET_SYSCLK_SOURCE() == RCC_CFGR_SWS_HSI) ||\
 800237a:	4b65      	ldr	r3, [pc, #404]	; (8002510 <HAL_RCC_OscConfig+0x2ac>)
 800237c:	689b      	ldr	r3, [r3, #8]
 800237e:	f003 030c 	and.w	r3, r3, #12
 8002382:	2b00      	cmp	r3, #0
 8002384:	d00b      	beq.n	800239e <HAL_RCC_OscConfig+0x13a>
      ((__HAL_RCC_GET_SYSCLK_SOURCE() == RCC_CFGR_SWS_PLL) && ((RCC->PLLCFGR & RCC_PLLCFGR_PLLSRC) == RCC_PLLCFGR_PLLSRC_HSI)))
 8002386:	4b62      	ldr	r3, [pc, #392]	; (8002510 <HAL_RCC_OscConfig+0x2ac>)
 8002388:	689b      	ldr	r3, [r3, #8]
 800238a:	f003 030c 	and.w	r3, r3, #12
    if((__HAL_RCC_GET_SYSCLK_SOURCE() == RCC_CFGR_SWS_HSI) ||\
 800238e:	2b08      	cmp	r3, #8
 8002390:	d11c      	bne.n	80023cc <HAL_RCC_OscConfig+0x168>
      ((__HAL_RCC_GET_SYSCLK_SOURCE() == RCC_CFGR_SWS_PLL) && ((RCC->PLLCFGR & RCC_PLLCFGR_PLLSRC) == RCC_PLLCFGR_PLLSRC_HSI)))
 8002392:	4b5f      	ldr	r3, [pc, #380]	; (8002510 <HAL_RCC_OscConfig+0x2ac>)
 8002394:	685b      	ldr	r3, [r3, #4]
 8002396:	f403 0380 	and.w	r3, r3, #4194304	; 0x400000
 800239a:	2b00      	cmp	r3, #0
 800239c:	d116      	bne.n	80023cc <HAL_RCC_OscConfig+0x168>
    {
      /* When HSI is used as system clock it will not disabled */
      if((__HAL_RCC_GET_FLAG(RCC_FLAG_HSIRDY) != RESET) && (RCC_OscInitStruct->HSIState != RCC_HSI_ON))
 800239e:	4b5c      	ldr	r3, [pc, #368]	; (8002510 <HAL_RCC_OscConfig+0x2ac>)
 80023a0:	681b      	ldr	r3, [r3, #0]
 80023a2:	f003 0302 	and.w	r3, r3, #2
 80023a6:	2b00      	cmp	r3, #0
 80023a8:	d005      	beq.n	80023b6 <HAL_RCC_OscConfig+0x152>
 80023aa:	687b      	ldr	r3, [r7, #4]
 80023ac:	68db      	ldr	r3, [r3, #12]
 80023ae:	2b01      	cmp	r3, #1
 80023b0:	d001      	beq.n	80023b6 <HAL_RCC_OscConfig+0x152>
      {
        return HAL_ERROR;
 80023b2:	2301      	movs	r3, #1
 80023b4:	e1c4      	b.n	8002740 <HAL_RCC_OscConfig+0x4dc>
      }
      /* Otherwise, just the calibration is allowed */
      else
      {
        /* Adjusts the Internal High Speed oscillator (HSI) calibration value.*/
        __HAL_RCC_HSI_CALIBRATIONVALUE_ADJUST(RCC_OscInitStruct->HSICalibrationValue);
 80023b6:	4b56      	ldr	r3, [pc, #344]	; (8002510 <HAL_RCC_OscConfig+0x2ac>)
 80023b8:	681b      	ldr	r3, [r3, #0]
 80023ba:	f023 02f8 	bic.w	r2, r3, #248	; 0xf8
 80023be:	687b      	ldr	r3, [r7, #4]
 80023c0:	691b      	ldr	r3, [r3, #16]
 80023c2:	00db      	lsls	r3, r3, #3
 80023c4:	4952      	ldr	r1, [pc, #328]	; (8002510 <HAL_RCC_OscConfig+0x2ac>)
 80023c6:	4313      	orrs	r3, r2
 80023c8:	600b      	str	r3, [r1, #0]
      if((__HAL_RCC_GET_FLAG(RCC_FLAG_HSIRDY) != RESET) && (RCC_OscInitStruct->HSIState != RCC_HSI_ON))
 80023ca:	e03a      	b.n	8002442 <HAL_RCC_OscConfig+0x1de>
      }
    }
    else
    {
      /* Check the HSI State */
      if((RCC_OscInitStruct->HSIState)!= RCC_HSI_OFF)
 80023cc:	687b      	ldr	r3, [r7, #4]
 80023ce:	68db      	ldr	r3, [r3, #12]
 80023d0:	2b00      	cmp	r3, #0
 80023d2:	d020      	beq.n	8002416 <HAL_RCC_OscConfig+0x1b2>
      {
        /* Enable the Internal High Speed oscillator (HSI). */
        __HAL_RCC_HSI_ENABLE();
 80023d4:	4b4f      	ldr	r3, [pc, #316]	; (8002514 <HAL_RCC_OscConfig+0x2b0>)
 80023d6:	2201      	movs	r2, #1
 80023d8:	601a      	str	r2, [r3, #0]

        /* Get Start Tick*/
        tickstart = HAL_GetTick();
 80023da:	f7ff f86d 	bl	80014b8 <HAL_GetTick>
 80023de:	6138      	str	r0, [r7, #16]

        /* Wait till HSI is ready */
        while(__HAL_RCC_GET_FLAG(RCC_FLAG_HSIRDY) == RESET)
 80023e0:	e008      	b.n	80023f4 <HAL_RCC_OscConfig+0x190>
        {
          if((HAL_GetTick() - tickstart ) > HSI_TIMEOUT_VALUE)
 80023e2:	f7ff f869 	bl	80014b8 <HAL_GetTick>
 80023e6:	4602      	mov	r2, r0
 80023e8:	693b      	ldr	r3, [r7, #16]
 80023ea:	1ad3      	subs	r3, r2, r3
 80023ec:	2b02      	cmp	r3, #2
 80023ee:	d901      	bls.n	80023f4 <HAL_RCC_OscConfig+0x190>
          {
            return HAL_TIMEOUT;
 80023f0:	2303      	movs	r3, #3
 80023f2:	e1a5      	b.n	8002740 <HAL_RCC_OscConfig+0x4dc>
        while(__HAL_RCC_GET_FLAG(RCC_FLAG_HSIRDY) == RESET)
 80023f4:	4b46      	ldr	r3, [pc, #280]	; (8002510 <HAL_RCC_OscConfig+0x2ac>)
 80023f6:	681b      	ldr	r3, [r3, #0]
 80023f8:	f003 0302 	and.w	r3, r3, #2
 80023fc:	2b00      	cmp	r3, #0
 80023fe:	d0f0      	beq.n	80023e2 <HAL_RCC_OscConfig+0x17e>
          }
        }

        /* Adjusts the Internal High Speed oscillator (HSI) calibration value. */
        __HAL_RCC_HSI_CALIBRATIONVALUE_ADJUST(RCC_OscInitStruct->HSICalibrationValue);
 8002400:	4b43      	ldr	r3, [pc, #268]	; (8002510 <HAL_RCC_OscConfig+0x2ac>)
 8002402:	681b      	ldr	r3, [r3, #0]
 8002404:	f023 02f8 	bic.w	r2, r3, #248	; 0xf8
 8002408:	687b      	ldr	r3, [r7, #4]
 800240a:	691b      	ldr	r3, [r3, #16]
 800240c:	00db      	lsls	r3, r3, #3
 800240e:	4940      	ldr	r1, [pc, #256]	; (8002510 <HAL_RCC_OscConfig+0x2ac>)
 8002410:	4313      	orrs	r3, r2
 8002412:	600b      	str	r3, [r1, #0]
 8002414:	e015      	b.n	8002442 <HAL_RCC_OscConfig+0x1de>
      }
      else
      {
        /* Disable the Internal High Speed oscillator (HSI). */
        __HAL_RCC_HSI_DISABLE();
 8002416:	4b3f      	ldr	r3, [pc, #252]	; (8002514 <HAL_RCC_OscConfig+0x2b0>)
 8002418:	2200      	movs	r2, #0
 800241a:	601a      	str	r2, [r3, #0]

        /* Get Start Tick*/
        tickstart = HAL_GetTick();
 800241c:	f7ff f84c 	bl	80014b8 <HAL_GetTick>
 8002420:	6138      	str	r0, [r7, #16]

        /* Wait till HSI is ready */
        while(__HAL_RCC_GET_FLAG(RCC_FLAG_HSIRDY) != RESET)
 8002422:	e008      	b.n	8002436 <HAL_RCC_OscConfig+0x1d2>
        {
          if((HAL_GetTick() - tickstart ) > HSI_TIMEOUT_VALUE)
 8002424:	f7ff f848 	bl	80014b8 <HAL_GetTick>
 8002428:	4602      	mov	r2, r0
 800242a:	693b      	ldr	r3, [r7, #16]
 800242c:	1ad3      	subs	r3, r2, r3
 800242e:	2b02      	cmp	r3, #2
 8002430:	d901      	bls.n	8002436 <HAL_RCC_OscConfig+0x1d2>
          {
            return HAL_TIMEOUT;
 8002432:	2303      	movs	r3, #3
 8002434:	e184      	b.n	8002740 <HAL_RCC_OscConfig+0x4dc>
        while(__HAL_RCC_GET_FLAG(RCC_FLAG_HSIRDY) != RESET)
 8002436:	4b36      	ldr	r3, [pc, #216]	; (8002510 <HAL_RCC_OscConfig+0x2ac>)
 8002438:	681b      	ldr	r3, [r3, #0]
 800243a:	f003 0302 	and.w	r3, r3, #2
 800243e:	2b00      	cmp	r3, #0
 8002440:	d1f0      	bne.n	8002424 <HAL_RCC_OscConfig+0x1c0>
        }
      }
    }
  }
  /*------------------------------ LSI Configuration -------------------------*/
  if(((RCC_OscInitStruct->OscillatorType) & RCC_OSCILLATORTYPE_LSI) == RCC_OSCILLATORTYPE_LSI)
 8002442:	687b      	ldr	r3, [r7, #4]
 8002444:	681b      	ldr	r3, [r3, #0]
 8002446:	f003 0308 	and.w	r3, r3, #8
 800244a:	2b00      	cmp	r3, #0
 800244c:	d030      	beq.n	80024b0 <HAL_RCC_OscConfig+0x24c>
  {
    /* Check the parameters */
    assert_param(IS_RCC_LSI(RCC_OscInitStruct->LSIState));

    /* Check the LSI State */
    if((RCC_OscInitStruct->LSIState)!= RCC_LSI_OFF)
 800244e:	687b      	ldr	r3, [r7, #4]
 8002450:	695b      	ldr	r3, [r3, #20]
 8002452:	2b00      	cmp	r3, #0
 8002454:	d016      	beq.n	8002484 <HAL_RCC_OscConfig+0x220>
    {
      /* Enable the Internal Low Speed oscillator (LSI). */
      __HAL_RCC_LSI_ENABLE();
 8002456:	4b30      	ldr	r3, [pc, #192]	; (8002518 <HAL_RCC_OscConfig+0x2b4>)
 8002458:	2201      	movs	r2, #1
 800245a:	601a      	str	r2, [r3, #0]

      /* Get Start Tick*/
      tickstart = HAL_GetTick();
 800245c:	f7ff f82c 	bl	80014b8 <HAL_GetTick>
 8002460:	6138      	str	r0, [r7, #16]

      /* Wait till LSI is ready */
      while(__HAL_RCC_GET_FLAG(RCC_FLAG_LSIRDY) == RESET)
 8002462:	e008      	b.n	8002476 <HAL_RCC_OscConfig+0x212>
      {
        if((HAL_GetTick() - tickstart ) > LSI_TIMEOUT_VALUE)
 8002464:	f7ff f828 	bl	80014b8 <HAL_GetTick>
 8002468:	4602      	mov	r2, r0
 800246a:	693b      	ldr	r3, [r7, #16]
 800246c:	1ad3      	subs	r3, r2, r3
 800246e:	2b02      	cmp	r3, #2
 8002470:	d901      	bls.n	8002476 <HAL_RCC_OscConfig+0x212>
        {
          return HAL_TIMEOUT;
 8002472:	2303      	movs	r3, #3
 8002474:	e164      	b.n	8002740 <HAL_RCC_OscConfig+0x4dc>
      while(__HAL_RCC_GET_FLAG(RCC_FLAG_LSIRDY) == RESET)
 8002476:	4b26      	ldr	r3, [pc, #152]	; (8002510 <HAL_RCC_OscConfig+0x2ac>)
 8002478:	6f5b      	ldr	r3, [r3, #116]	; 0x74
 800247a:	f003 0302 	and.w	r3, r3, #2
 800247e:	2b00      	cmp	r3, #0
 8002480:	d0f0      	beq.n	8002464 <HAL_RCC_OscConfig+0x200>
 8002482:	e015      	b.n	80024b0 <HAL_RCC_OscConfig+0x24c>
      }
    }
    else
    {
      /* Disable the Internal Low Speed oscillator (LSI). */
      __HAL_RCC_LSI_DISABLE();
 8002484:	4b24      	ldr	r3, [pc, #144]	; (8002518 <HAL_RCC_OscConfig+0x2b4>)
 8002486:	2200      	movs	r2, #0
 8002488:	601a      	str	r2, [r3, #0]

      /* Get Start Tick */
      tickstart = HAL_GetTick();
 800248a:	f7ff f815 	bl	80014b8 <HAL_GetTick>
 800248e:	6138      	str	r0, [r7, #16]

      /* Wait till LSI is ready */
      while(__HAL_RCC_GET_FLAG(RCC_FLAG_LSIRDY) != RESET)
 8002490:	e008      	b.n	80024a4 <HAL_RCC_OscConfig+0x240>
      {
        if((HAL_GetTick() - tickstart ) > LSI_TIMEOUT_VALUE)
 8002492:	f7ff f811 	bl	80014b8 <HAL_GetTick>
 8002496:	4602      	mov	r2, r0
 8002498:	693b      	ldr	r3, [r7, #16]
 800249a:	1ad3      	subs	r3, r2, r3
 800249c:	2b02      	cmp	r3, #2
 800249e:	d901      	bls.n	80024a4 <HAL_RCC_OscConfig+0x240>
        {
          return HAL_TIMEOUT;
 80024a0:	2303      	movs	r3, #3
 80024a2:	e14d      	b.n	8002740 <HAL_RCC_OscConfig+0x4dc>
      while(__HAL_RCC_GET_FLAG(RCC_FLAG_LSIRDY) != RESET)
 80024a4:	4b1a      	ldr	r3, [pc, #104]	; (8002510 <HAL_RCC_OscConfig+0x2ac>)
 80024a6:	6f5b      	ldr	r3, [r3, #116]	; 0x74
 80024a8:	f003 0302 	and.w	r3, r3, #2
 80024ac:	2b00      	cmp	r3, #0
 80024ae:	d1f0      	bne.n	8002492 <HAL_RCC_OscConfig+0x22e>
        }
      }
    }
  }
  /*------------------------------ LSE Configuration -------------------------*/
  if(((RCC_OscInitStruct->OscillatorType) & RCC_OSCILLATORTYPE_LSE) == RCC_OSCILLATORTYPE_LSE)
 80024b0:	687b      	ldr	r3, [r7, #4]
 80024b2:	681b      	ldr	r3, [r3, #0]
 80024b4:	f003 0304 	and.w	r3, r3, #4
 80024b8:	2b00      	cmp	r3, #0
 80024ba:	f000 80a0 	beq.w	80025fe <HAL_RCC_OscConfig+0x39a>
  {
    FlagStatus       pwrclkchanged = RESET;
 80024be:	2300      	movs	r3, #0
 80024c0:	75fb      	strb	r3, [r7, #23]
    /* Check the parameters */
    assert_param(IS_RCC_LSE(RCC_OscInitStruct->LSEState));

    /* Update LSE configuration in Backup Domain control register    */
    /* Requires to enable write access to Backup Domain of necessary */
    if(__HAL_RCC_PWR_IS_CLK_DISABLED())
 80024c2:	4b13      	ldr	r3, [pc, #76]	; (8002510 <HAL_RCC_OscConfig+0x2ac>)
 80024c4:	6c1b      	ldr	r3, [r3, #64]	; 0x40
 80024c6:	f003 5380 	and.w	r3, r3, #268435456	; 0x10000000
 80024ca:	2b00      	cmp	r3, #0
 80024cc:	d10f      	bne.n	80024ee <HAL_RCC_OscConfig+0x28a>
    {
      __HAL_RCC_PWR_CLK_ENABLE();
 80024ce:	2300      	movs	r3, #0
 80024d0:	60bb      	str	r3, [r7, #8]
 80024d2:	4b0f      	ldr	r3, [pc, #60]	; (8002510 <HAL_RCC_OscConfig+0x2ac>)
 80024d4:	6c1b      	ldr	r3, [r3, #64]	; 0x40
 80024d6:	4a0e      	ldr	r2, [pc, #56]	; (8002510 <HAL_RCC_OscConfig+0x2ac>)
 80024d8:	f043 5380 	orr.w	r3, r3, #268435456	; 0x10000000
 80024dc:	6413      	str	r3, [r2, #64]	; 0x40
 80024de:	4b0c      	ldr	r3, [pc, #48]	; (8002510 <HAL_RCC_OscConfig+0x2ac>)
 80024e0:	6c1b      	ldr	r3, [r3, #64]	; 0x40
 80024e2:	f003 5380 	and.w	r3, r3, #268435456	; 0x10000000
 80024e6:	60bb      	str	r3, [r7, #8]
 80024e8:	68bb      	ldr	r3, [r7, #8]
      pwrclkchanged = SET;
 80024ea:	2301      	movs	r3, #1
 80024ec:	75fb      	strb	r3, [r7, #23]
    }

    if(HAL_IS_BIT_CLR(PWR->CR, PWR_CR_DBP))
 80024ee:	4b0b      	ldr	r3, [pc, #44]	; (800251c <HAL_RCC_OscConfig+0x2b8>)
 80024f0:	681b      	ldr	r3, [r3, #0]
 80024f2:	f403 7380 	and.w	r3, r3, #256	; 0x100
 80024f6:	2b00      	cmp	r3, #0
 80024f8:	d121      	bne.n	800253e <HAL_RCC_OscConfig+0x2da>
    {
      /* Enable write access to Backup domain */
      SET_BIT(PWR->CR, PWR_CR_DBP);
 80024fa:	4b08      	ldr	r3, [pc, #32]	; (800251c <HAL_RCC_OscConfig+0x2b8>)
 80024fc:	681b      	ldr	r3, [r3, #0]
 80024fe:	4a07      	ldr	r2, [pc, #28]	; (800251c <HAL_RCC_OscConfig+0x2b8>)
 8002500:	f443 7380 	orr.w	r3, r3, #256	; 0x100
 8002504:	6013      	str	r3, [r2, #0]

      /* Wait for Backup domain Write protection disable */
      tickstart = HAL_GetTick();
 8002506:	f7fe ffd7 	bl	80014b8 <HAL_GetTick>
 800250a:	6138      	str	r0, [r7, #16]

      while(HAL_IS_BIT_CLR(PWR->CR, PWR_CR_DBP))
 800250c:	e011      	b.n	8002532 <HAL_RCC_OscConfig+0x2ce>
 800250e:	bf00      	nop
 8002510:	40023800 	.word	0x40023800
 8002514:	42470000 	.word	0x42470000
 8002518:	42470e80 	.word	0x42470e80
 800251c:	40007000 	.word	0x40007000
      {
        if((HAL_GetTick() - tickstart) > RCC_DBP_TIMEOUT_VALUE)
 8002520:	f7fe ffca 	bl	80014b8 <HAL_GetTick>
 8002524:	4602      	mov	r2, r0
 8002526:	693b      	ldr	r3, [r7, #16]
 8002528:	1ad3      	subs	r3, r2, r3
 800252a:	2b02      	cmp	r3, #2
 800252c:	d901      	bls.n	8002532 <HAL_RCC_OscConfig+0x2ce>
        {
          return HAL_TIMEOUT;
 800252e:	2303      	movs	r3, #3
 8002530:	e106      	b.n	8002740 <HAL_RCC_OscConfig+0x4dc>
      while(HAL_IS_BIT_CLR(PWR->CR, PWR_CR_DBP))
 8002532:	4b85      	ldr	r3, [pc, #532]	; (8002748 <HAL_RCC_OscConfig+0x4e4>)
 8002534:	681b      	ldr	r3, [r3, #0]
 8002536:	f403 7380 	and.w	r3, r3, #256	; 0x100
 800253a:	2b00      	cmp	r3, #0
 800253c:	d0f0      	beq.n	8002520 <HAL_RCC_OscConfig+0x2bc>
        }
      }
    }

    /* Set the new LSE configuration -----------------------------------------*/
    __HAL_RCC_LSE_CONFIG(RCC_OscInitStruct->LSEState);
 800253e:	687b      	ldr	r3, [r7, #4]
 8002540:	689b      	ldr	r3, [r3, #8]
 8002542:	2b01      	cmp	r3, #1
 8002544:	d106      	bne.n	8002554 <HAL_RCC_OscConfig+0x2f0>
 8002546:	4b81      	ldr	r3, [pc, #516]	; (800274c <HAL_RCC_OscConfig+0x4e8>)
 8002548:	6f1b      	ldr	r3, [r3, #112]	; 0x70
 800254a:	4a80      	ldr	r2, [pc, #512]	; (800274c <HAL_RCC_OscConfig+0x4e8>)
 800254c:	f043 0301 	orr.w	r3, r3, #1
 8002550:	6713      	str	r3, [r2, #112]	; 0x70
 8002552:	e01c      	b.n	800258e <HAL_RCC_OscConfig+0x32a>
 8002554:	687b      	ldr	r3, [r7, #4]
 8002556:	689b      	ldr	r3, [r3, #8]
 8002558:	2b05      	cmp	r3, #5
 800255a:	d10c      	bne.n	8002576 <HAL_RCC_OscConfig+0x312>
 800255c:	4b7b      	ldr	r3, [pc, #492]	; (800274c <HAL_RCC_OscConfig+0x4e8>)
 800255e:	6f1b      	ldr	r3, [r3, #112]	; 0x70
 8002560:	4a7a      	ldr	r2, [pc, #488]	; (800274c <HAL_RCC_OscConfig+0x4e8>)
 8002562:	f043 0304 	orr.w	r3, r3, #4
 8002566:	6713      	str	r3, [r2, #112]	; 0x70
 8002568:	4b78      	ldr	r3, [pc, #480]	; (800274c <HAL_RCC_OscConfig+0x4e8>)
 800256a:	6f1b      	ldr	r3, [r3, #112]	; 0x70
 800256c:	4a77      	ldr	r2, [pc, #476]	; (800274c <HAL_RCC_OscConfig+0x4e8>)
 800256e:	f043 0301 	orr.w	r3, r3, #1
 8002572:	6713      	str	r3, [r2, #112]	; 0x70
 8002574:	e00b      	b.n	800258e <HAL_RCC_OscConfig+0x32a>
 8002576:	4b75      	ldr	r3, [pc, #468]	; (800274c <HAL_RCC_OscConfig+0x4e8>)
 8002578:	6f1b      	ldr	r3, [r3, #112]	; 0x70
 800257a:	4a74      	ldr	r2, [pc, #464]	; (800274c <HAL_RCC_OscConfig+0x4e8>)
 800257c:	f023 0301 	bic.w	r3, r3, #1
 8002580:	6713      	str	r3, [r2, #112]	; 0x70
 8002582:	4b72      	ldr	r3, [pc, #456]	; (800274c <HAL_RCC_OscConfig+0x4e8>)
 8002584:	6f1b      	ldr	r3, [r3, #112]	; 0x70
 8002586:	4a71      	ldr	r2, [pc, #452]	; (800274c <HAL_RCC_OscConfig+0x4e8>)
 8002588:	f023 0304 	bic.w	r3, r3, #4
 800258c:	6713      	str	r3, [r2, #112]	; 0x70
    /* Check the LSE State */
    if((RCC_OscInitStruct->LSEState) != RCC_LSE_OFF)
 800258e:	687b      	ldr	r3, [r7, #4]
 8002590:	689b      	ldr	r3, [r3, #8]
 8002592:	2b00      	cmp	r3, #0
 8002594:	d015      	beq.n	80025c2 <HAL_RCC_OscConfig+0x35e>
    {
      /* Get Start Tick*/
      tickstart = HAL_GetTick();
 8002596:	f7fe ff8f 	bl	80014b8 <HAL_GetTick>
 800259a:	6138      	str	r0, [r7, #16]

      /* Wait till LSE is ready */
      while(__HAL_RCC_GET_FLAG(RCC_FLAG_LSERDY) == RESET)
 800259c:	e00a      	b.n	80025b4 <HAL_RCC_OscConfig+0x350>
      {
        if((HAL_GetTick() - tickstart ) > RCC_LSE_TIMEOUT_VALUE)
 800259e:	f7fe ff8b 	bl	80014b8 <HAL_GetTick>
 80025a2:	4602      	mov	r2, r0
 80025a4:	693b      	ldr	r3, [r7, #16]
 80025a6:	1ad3      	subs	r3, r2, r3
 80025a8:	f241 3288 	movw	r2, #5000	; 0x1388
 80025ac:	4293      	cmp	r3, r2
 80025ae:	d901      	bls.n	80025b4 <HAL_RCC_OscConfig+0x350>
        {
          return HAL_TIMEOUT;
 80025b0:	2303      	movs	r3, #3
 80025b2:	e0c5      	b.n	8002740 <HAL_RCC_OscConfig+0x4dc>
      while(__HAL_RCC_GET_FLAG(RCC_FLAG_LSERDY) == RESET)
 80025b4:	4b65      	ldr	r3, [pc, #404]	; (800274c <HAL_RCC_OscConfig+0x4e8>)
 80025b6:	6f1b      	ldr	r3, [r3, #112]	; 0x70
 80025b8:	f003 0302 	and.w	r3, r3, #2
 80025bc:	2b00      	cmp	r3, #0
 80025be:	d0ee      	beq.n	800259e <HAL_RCC_OscConfig+0x33a>
 80025c0:	e014      	b.n	80025ec <HAL_RCC_OscConfig+0x388>
      }
    }
    else
    {
      /* Get Start Tick */
      tickstart = HAL_GetTick();
 80025c2:	f7fe ff79 	bl	80014b8 <HAL_GetTick>
 80025c6:	6138      	str	r0, [r7, #16]

      /* Wait till LSE is ready */
      while(__HAL_RCC_GET_FLAG(RCC_FLAG_LSERDY) != RESET)
 80025c8:	e00a      	b.n	80025e0 <HAL_RCC_OscConfig+0x37c>
      {
        if((HAL_GetTick() - tickstart ) > RCC_LSE_TIMEOUT_VALUE)
 80025ca:	f7fe ff75 	bl	80014b8 <HAL_GetTick>
 80025ce:	4602      	mov	r2, r0
 80025d0:	693b      	ldr	r3, [r7, #16]
 80025d2:	1ad3      	subs	r3, r2, r3
 80025d4:	f241 3288 	movw	r2, #5000	; 0x1388
 80025d8:	4293      	cmp	r3, r2
 80025da:	d901      	bls.n	80025e0 <HAL_RCC_OscConfig+0x37c>
        {
          return HAL_TIMEOUT;
 80025dc:	2303      	movs	r3, #3
 80025de:	e0af      	b.n	8002740 <HAL_RCC_OscConfig+0x4dc>
      while(__HAL_RCC_GET_FLAG(RCC_FLAG_LSERDY) != RESET)
 80025e0:	4b5a      	ldr	r3, [pc, #360]	; (800274c <HAL_RCC_OscConfig+0x4e8>)
 80025e2:	6f1b      	ldr	r3, [r3, #112]	; 0x70
 80025e4:	f003 0302 	and.w	r3, r3, #2
 80025e8:	2b00      	cmp	r3, #0
 80025ea:	d1ee      	bne.n	80025ca <HAL_RCC_OscConfig+0x366>
        }
      }
    }

    /* Restore clock configuration if changed */
    if(pwrclkchanged == SET)
 80025ec:	7dfb      	ldrb	r3, [r7, #23]
 80025ee:	2b01      	cmp	r3, #1
 80025f0:	d105      	bne.n	80025fe <HAL_RCC_OscConfig+0x39a>
    {
      __HAL_RCC_PWR_CLK_DISABLE();
 80025f2:	4b56      	ldr	r3, [pc, #344]	; (800274c <HAL_RCC_OscConfig+0x4e8>)
 80025f4:	6c1b      	ldr	r3, [r3, #64]	; 0x40
 80025f6:	4a55      	ldr	r2, [pc, #340]	; (800274c <HAL_RCC_OscConfig+0x4e8>)
 80025f8:	f023 5380 	bic.w	r3, r3, #268435456	; 0x10000000
 80025fc:	6413      	str	r3, [r2, #64]	; 0x40
    }
  }
  /*-------------------------------- PLL Configuration -----------------------*/
  /* Check the parameters */
  assert_param(IS_RCC_PLL(RCC_OscInitStruct->PLL.PLLState));
  if ((RCC_OscInitStruct->PLL.PLLState) != RCC_PLL_NONE)
 80025fe:	687b      	ldr	r3, [r7, #4]
 8002600:	699b      	ldr	r3, [r3, #24]
 8002602:	2b00      	cmp	r3, #0
 8002604:	f000 809b 	beq.w	800273e <HAL_RCC_OscConfig+0x4da>
  {
    /* Check if the PLL is used as system clock or not */
    if(__HAL_RCC_GET_SYSCLK_SOURCE() != RCC_CFGR_SWS_PLL)
 8002608:	4b50      	ldr	r3, [pc, #320]	; (800274c <HAL_RCC_OscConfig+0x4e8>)
 800260a:	689b      	ldr	r3, [r3, #8]
 800260c:	f003 030c 	and.w	r3, r3, #12
 8002610:	2b08      	cmp	r3, #8
 8002612:	d05c      	beq.n	80026ce <HAL_RCC_OscConfig+0x46a>
    {
      if((RCC_OscInitStruct->PLL.PLLState) == RCC_PLL_ON)
 8002614:	687b      	ldr	r3, [r7, #4]
 8002616:	699b      	ldr	r3, [r3, #24]
 8002618:	2b02      	cmp	r3, #2
 800261a:	d141      	bne.n	80026a0 <HAL_RCC_OscConfig+0x43c>
        assert_param(IS_RCC_PLLN_VALUE(RCC_OscInitStruct->PLL.PLLN));
        assert_param(IS_RCC_PLLP_VALUE(RCC_OscInitStruct->PLL.PLLP));
        assert_param(IS_RCC_PLLQ_VALUE(RCC_OscInitStruct->PLL.PLLQ));

        /* Disable the main PLL. */
        __HAL_RCC_PLL_DISABLE();
 800261c:	4b4c      	ldr	r3, [pc, #304]	; (8002750 <HAL_RCC_OscConfig+0x4ec>)
 800261e:	2200      	movs	r2, #0
 8002620:	601a      	str	r2, [r3, #0]

        /* Get Start Tick */
        tickstart = HAL_GetTick();
 8002622:	f7fe ff49 	bl	80014b8 <HAL_GetTick>
 8002626:	6138      	str	r0, [r7, #16]

        /* Wait till PLL is ready */
        while(__HAL_RCC_GET_FLAG(RCC_FLAG_PLLRDY) != RESET)
 8002628:	e008      	b.n	800263c <HAL_RCC_OscConfig+0x3d8>
        {
          if((HAL_GetTick() - tickstart ) > PLL_TIMEOUT_VALUE)
 800262a:	f7fe ff45 	bl	80014b8 <HAL_GetTick>
 800262e:	4602      	mov	r2, r0
 8002630:	693b      	ldr	r3, [r7, #16]
 8002632:	1ad3      	subs	r3, r2, r3
 8002634:	2b02      	cmp	r3, #2
 8002636:	d901      	bls.n	800263c <HAL_RCC_OscConfig+0x3d8>
          {
            return HAL_TIMEOUT;
 8002638:	2303      	movs	r3, #3
 800263a:	e081      	b.n	8002740 <HAL_RCC_OscConfig+0x4dc>
        while(__HAL_RCC_GET_FLAG(RCC_FLAG_PLLRDY) != RESET)
 800263c:	4b43      	ldr	r3, [pc, #268]	; (800274c <HAL_RCC_OscConfig+0x4e8>)
 800263e:	681b      	ldr	r3, [r3, #0]
 8002640:	f003 7300 	and.w	r3, r3, #33554432	; 0x2000000
 8002644:	2b00      	cmp	r3, #0
 8002646:	d1f0      	bne.n	800262a <HAL_RCC_OscConfig+0x3c6>
          }
        }

        /* Configure the main PLL clock source, multiplication and division factors. */
        WRITE_REG(RCC->PLLCFGR, (RCC_OscInitStruct->PLL.PLLSource                                            | \
 8002648:	687b      	ldr	r3, [r7, #4]
 800264a:	69da      	ldr	r2, [r3, #28]
 800264c:	687b      	ldr	r3, [r7, #4]
 800264e:	6a1b      	ldr	r3, [r3, #32]
 8002650:	431a      	orrs	r2, r3
 8002652:	687b      	ldr	r3, [r7, #4]
 8002654:	6a5b      	ldr	r3, [r3, #36]	; 0x24
 8002656:	019b      	lsls	r3, r3, #6
 8002658:	431a      	orrs	r2, r3
 800265a:	687b      	ldr	r3, [r7, #4]
 800265c:	6a9b      	ldr	r3, [r3, #40]	; 0x28
 800265e:	085b      	lsrs	r3, r3, #1
 8002660:	3b01      	subs	r3, #1
 8002662:	041b      	lsls	r3, r3, #16
 8002664:	431a      	orrs	r2, r3
 8002666:	687b      	ldr	r3, [r7, #4]
 8002668:	6adb      	ldr	r3, [r3, #44]	; 0x2c
 800266a:	061b      	lsls	r3, r3, #24
 800266c:	4937      	ldr	r1, [pc, #220]	; (800274c <HAL_RCC_OscConfig+0x4e8>)
 800266e:	4313      	orrs	r3, r2
 8002670:	604b      	str	r3, [r1, #4]
                                 RCC_OscInitStruct->PLL.PLLM                                                 | \
                                 (RCC_OscInitStruct->PLL.PLLN << RCC_PLLCFGR_PLLN_Pos)             | \
                                 (((RCC_OscInitStruct->PLL.PLLP >> 1U) - 1U) << RCC_PLLCFGR_PLLP_Pos) | \
                                 (RCC_OscInitStruct->PLL.PLLQ << RCC_PLLCFGR_PLLQ_Pos)));
        /* Enable the main PLL. */
        __HAL_RCC_PLL_ENABLE();
 8002672:	4b37      	ldr	r3, [pc, #220]	; (8002750 <HAL_RCC_OscConfig+0x4ec>)
 8002674:	2201      	movs	r2, #1
 8002676:	601a      	str	r2, [r3, #0]

        /* Get Start Tick */
        tickstart = HAL_GetTick();
 8002678:	f7fe ff1e 	bl	80014b8 <HAL_GetTick>
 800267c:	6138      	str	r0, [r7, #16]

        /* Wait till PLL is ready */
        while(__HAL_RCC_GET_FLAG(RCC_FLAG_PLLRDY) == RESET)
 800267e:	e008      	b.n	8002692 <HAL_RCC_OscConfig+0x42e>
        {
          if((HAL_GetTick() - tickstart ) > PLL_TIMEOUT_VALUE)
 8002680:	f7fe ff1a 	bl	80014b8 <HAL_GetTick>
 8002684:	4602      	mov	r2, r0
 8002686:	693b      	ldr	r3, [r7, #16]
 8002688:	1ad3      	subs	r3, r2, r3
 800268a:	2b02      	cmp	r3, #2
 800268c:	d901      	bls.n	8002692 <HAL_RCC_OscConfig+0x42e>
          {
            return HAL_TIMEOUT;
 800268e:	2303      	movs	r3, #3
 8002690:	e056      	b.n	8002740 <HAL_RCC_OscConfig+0x4dc>
        while(__HAL_RCC_GET_FLAG(RCC_FLAG_PLLRDY) == RESET)
 8002692:	4b2e      	ldr	r3, [pc, #184]	; (800274c <HAL_RCC_OscConfig+0x4e8>)
 8002694:	681b      	ldr	r3, [r3, #0]
 8002696:	f003 7300 	and.w	r3, r3, #33554432	; 0x2000000
 800269a:	2b00      	cmp	r3, #0
 800269c:	d0f0      	beq.n	8002680 <HAL_RCC_OscConfig+0x41c>
 800269e:	e04e      	b.n	800273e <HAL_RCC_OscConfig+0x4da>
        }
      }
      else
      {
        /* Disable the main PLL. */
        __HAL_RCC_PLL_DISABLE();
 80026a0:	4b2b      	ldr	r3, [pc, #172]	; (8002750 <HAL_RCC_OscConfig+0x4ec>)
 80026a2:	2200      	movs	r2, #0
 80026a4:	601a      	str	r2, [r3, #0]

        /* Get Start Tick */
        tickstart = HAL_GetTick();
 80026a6:	f7fe ff07 	bl	80014b8 <HAL_GetTick>
 80026aa:	6138      	str	r0, [r7, #16]

        /* Wait till PLL is ready */
        while(__HAL_RCC_GET_FLAG(RCC_FLAG_PLLRDY) != RESET)
 80026ac:	e008      	b.n	80026c0 <HAL_RCC_OscConfig+0x45c>
        {
          if((HAL_GetTick() - tickstart ) > PLL_TIMEOUT_VALUE)
 80026ae:	f7fe ff03 	bl	80014b8 <HAL_GetTick>
 80026b2:	4602      	mov	r2, r0
 80026b4:	693b      	ldr	r3, [r7, #16]
 80026b6:	1ad3      	subs	r3, r2, r3
 80026b8:	2b02      	cmp	r3, #2
 80026ba:	d901      	bls.n	80026c0 <HAL_RCC_OscConfig+0x45c>
          {
            return HAL_TIMEOUT;
 80026bc:	2303      	movs	r3, #3
 80026be:	e03f      	b.n	8002740 <HAL_RCC_OscConfig+0x4dc>
        while(__HAL_RCC_GET_FLAG(RCC_FLAG_PLLRDY) != RESET)
 80026c0:	4b22      	ldr	r3, [pc, #136]	; (800274c <HAL_RCC_OscConfig+0x4e8>)
 80026c2:	681b      	ldr	r3, [r3, #0]
 80026c4:	f003 7300 	and.w	r3, r3, #33554432	; 0x2000000
 80026c8:	2b00      	cmp	r3, #0
 80026ca:	d1f0      	bne.n	80026ae <HAL_RCC_OscConfig+0x44a>
 80026cc:	e037      	b.n	800273e <HAL_RCC_OscConfig+0x4da>
      }
    }
    else
    {
      /* Check if there is a request to disable the PLL used as System clock source */
      if((RCC_OscInitStruct->PLL.PLLState) == RCC_PLL_OFF)
 80026ce:	687b      	ldr	r3, [r7, #4]
 80026d0:	699b      	ldr	r3, [r3, #24]
 80026d2:	2b01      	cmp	r3, #1
 80026d4:	d101      	bne.n	80026da <HAL_RCC_OscConfig+0x476>
      {
        return HAL_ERROR;
 80026d6:	2301      	movs	r3, #1
 80026d8:	e032      	b.n	8002740 <HAL_RCC_OscConfig+0x4dc>
      }
      else
      {
        /* Do not return HAL_ERROR if request repeats the current configuration */
        pll_config = RCC->PLLCFGR;
 80026da:	4b1c      	ldr	r3, [pc, #112]	; (800274c <HAL_RCC_OscConfig+0x4e8>)
 80026dc:	685b      	ldr	r3, [r3, #4]
 80026de:	60fb      	str	r3, [r7, #12]
            (READ_BIT(pll_config, RCC_PLLCFGR_PLLN) != (RCC_OscInitStruct->PLL.PLLN) << RCC_PLLCFGR_PLLN_Pos) ||
            (READ_BIT(pll_config, RCC_PLLCFGR_PLLP) != (((RCC_OscInitStruct->PLL.PLLP >> 1U) - 1U)) << RCC_PLLCFGR_PLLP_Pos) ||
            (READ_BIT(pll_config, RCC_PLLCFGR_PLLQ) != (RCC_OscInitStruct->PLL.PLLQ << RCC_PLLCFGR_PLLQ_Pos)) ||
            (READ_BIT(pll_config, RCC_PLLCFGR_PLLR) != (RCC_OscInitStruct->PLL.PLLR << RCC_PLLCFGR_PLLR_Pos)))
#else
        if (((RCC_OscInitStruct->PLL.PLLState) == RCC_PLL_OFF) ||
 80026e0:	687b      	ldr	r3, [r7, #4]
 80026e2:	699b      	ldr	r3, [r3, #24]
 80026e4:	2b01      	cmp	r3, #1
 80026e6:	d028      	beq.n	800273a <HAL_RCC_OscConfig+0x4d6>
            (READ_BIT(pll_config, RCC_PLLCFGR_PLLSRC) != RCC_OscInitStruct->PLL.PLLSource) ||
 80026e8:	68fb      	ldr	r3, [r7, #12]
 80026ea:	f403 0280 	and.w	r2, r3, #4194304	; 0x400000
 80026ee:	687b      	ldr	r3, [r7, #4]
 80026f0:	69db      	ldr	r3, [r3, #28]
        if (((RCC_OscInitStruct->PLL.PLLState) == RCC_PLL_OFF) ||
 80026f2:	429a      	cmp	r2, r3
 80026f4:	d121      	bne.n	800273a <HAL_RCC_OscConfig+0x4d6>
            (READ_BIT(pll_config, RCC_PLLCFGR_PLLM) != (RCC_OscInitStruct->PLL.PLLM) << RCC_PLLCFGR_PLLM_Pos) ||
 80026f6:	68fb      	ldr	r3, [r7, #12]
 80026f8:	f003 023f 	and.w	r2, r3, #63	; 0x3f
 80026fc:	687b      	ldr	r3, [r7, #4]
 80026fe:	6a1b      	ldr	r3, [r3, #32]
            (READ_BIT(pll_config, RCC_PLLCFGR_PLLSRC) != RCC_OscInitStruct->PLL.PLLSource) ||
 8002700:	429a      	cmp	r2, r3
 8002702:	d11a      	bne.n	800273a <HAL_RCC_OscConfig+0x4d6>
            (READ_BIT(pll_config, RCC_PLLCFGR_PLLN) != (RCC_OscInitStruct->PLL.PLLN) << RCC_PLLCFGR_PLLN_Pos) ||
 8002704:	68fa      	ldr	r2, [r7, #12]
 8002706:	f647 73c0 	movw	r3, #32704	; 0x7fc0
 800270a:	4013      	ands	r3, r2
 800270c:	687a      	ldr	r2, [r7, #4]
 800270e:	6a52      	ldr	r2, [r2, #36]	; 0x24
 8002710:	0192      	lsls	r2, r2, #6
            (READ_BIT(pll_config, RCC_PLLCFGR_PLLM) != (RCC_OscInitStruct->PLL.PLLM) << RCC_PLLCFGR_PLLM_Pos) ||
 8002712:	4293      	cmp	r3, r2
 8002714:	d111      	bne.n	800273a <HAL_RCC_OscConfig+0x4d6>
            (READ_BIT(pll_config, RCC_PLLCFGR_PLLP) != (((RCC_OscInitStruct->PLL.PLLP >> 1U) - 1U)) << RCC_PLLCFGR_PLLP_Pos) ||
 8002716:	68fb      	ldr	r3, [r7, #12]
 8002718:	f403 3240 	and.w	r2, r3, #196608	; 0x30000
 800271c:	687b      	ldr	r3, [r7, #4]
 800271e:	6a9b      	ldr	r3, [r3, #40]	; 0x28
 8002720:	085b      	lsrs	r3, r3, #1
 8002722:	3b01      	subs	r3, #1
 8002724:	041b      	lsls	r3, r3, #16
            (READ_BIT(pll_config, RCC_PLLCFGR_PLLN) != (RCC_OscInitStruct->PLL.PLLN) << RCC_PLLCFGR_PLLN_Pos) ||
 8002726:	429a      	cmp	r2, r3
 8002728:	d107      	bne.n	800273a <HAL_RCC_OscConfig+0x4d6>
            (READ_BIT(pll_config, RCC_PLLCFGR_PLLQ) != (RCC_OscInitStruct->PLL.PLLQ << RCC_PLLCFGR_PLLQ_Pos)))
 800272a:	68fb      	ldr	r3, [r7, #12]
 800272c:	f003 6270 	and.w	r2, r3, #251658240	; 0xf000000
 8002730:	687b      	ldr	r3, [r7, #4]
 8002732:	6adb      	ldr	r3, [r3, #44]	; 0x2c
 8002734:	061b      	lsls	r3, r3, #24
            (READ_BIT(pll_config, RCC_PLLCFGR_PLLP) != (((RCC_OscInitStruct->PLL.PLLP >> 1U) - 1U)) << RCC_PLLCFGR_PLLP_Pos) ||
 8002736:	429a      	cmp	r2, r3
 8002738:	d001      	beq.n	800273e <HAL_RCC_OscConfig+0x4da>
#endif
        {
          return HAL_ERROR;
 800273a:	2301      	movs	r3, #1
 800273c:	e000      	b.n	8002740 <HAL_RCC_OscConfig+0x4dc>
        }
      }
    }
  }
  return HAL_OK;
 800273e:	2300      	movs	r3, #0
}
 8002740:	4618      	mov	r0, r3
 8002742:	3718      	adds	r7, #24
 8002744:	46bd      	mov	sp, r7
 8002746:	bd80      	pop	{r7, pc}
 8002748:	40007000 	.word	0x40007000
 800274c:	40023800 	.word	0x40023800
 8002750:	42470060 	.word	0x42470060

08002754 <HAL_RCC_ClockConfig>:
  *         HPRE[3:0] bits to ensure that HCLK not exceed the maximum allowed frequency
  *         (for more details refer to section above "Initialization/de-initialization functions")
  * @retval None
  */
HAL_StatusTypeDef HAL_RCC_ClockConfig(RCC_ClkInitTypeDef  *RCC_ClkInitStruct, uint32_t FLatency)
{
 8002754:	b580      	push	{r7, lr}
 8002756:	b084      	sub	sp, #16
 8002758:	af00      	add	r7, sp, #0
 800275a:	6078      	str	r0, [r7, #4]
 800275c:	6039      	str	r1, [r7, #0]
  uint32_t tickstart;

  /* Check Null pointer */
  if(RCC_ClkInitStruct == NULL)
 800275e:	687b      	ldr	r3, [r7, #4]
 8002760:	2b00      	cmp	r3, #0
 8002762:	d101      	bne.n	8002768 <HAL_RCC_ClockConfig+0x14>
  {
    return HAL_ERROR;
 8002764:	2301      	movs	r3, #1
 8002766:	e0cc      	b.n	8002902 <HAL_RCC_ClockConfig+0x1ae>
  /* To correctly read data from FLASH memory, the number of wait states (LATENCY)
    must be correctly programmed according to the frequency of the CPU clock
    (HCLK) and the supply voltage of the device. */

  /* Increasing the number of wait states because of higher CPU frequency */
  if(FLatency > __HAL_FLASH_GET_LATENCY())
 8002768:	4b68      	ldr	r3, [pc, #416]	; (800290c <HAL_RCC_ClockConfig+0x1b8>)
 800276a:	681b      	ldr	r3, [r3, #0]
 800276c:	f003 0307 	and.w	r3, r3, #7
 8002770:	683a      	ldr	r2, [r7, #0]
 8002772:	429a      	cmp	r2, r3
 8002774:	d90c      	bls.n	8002790 <HAL_RCC_ClockConfig+0x3c>
  {
    /* Program the new number of wait states to the LATENCY bits in the FLASH_ACR register */
    __HAL_FLASH_SET_LATENCY(FLatency);
 8002776:	4b65      	ldr	r3, [pc, #404]	; (800290c <HAL_RCC_ClockConfig+0x1b8>)
 8002778:	683a      	ldr	r2, [r7, #0]
 800277a:	b2d2      	uxtb	r2, r2
 800277c:	701a      	strb	r2, [r3, #0]

    /* Check that the new number of wait states is taken into account to access the Flash
    memory by reading the FLASH_ACR register */
    if(__HAL_FLASH_GET_LATENCY() != FLatency)
 800277e:	4b63      	ldr	r3, [pc, #396]	; (800290c <HAL_RCC_ClockConfig+0x1b8>)
 8002780:	681b      	ldr	r3, [r3, #0]
 8002782:	f003 0307 	and.w	r3, r3, #7
 8002786:	683a      	ldr	r2, [r7, #0]
 8002788:	429a      	cmp	r2, r3
 800278a:	d001      	beq.n	8002790 <HAL_RCC_ClockConfig+0x3c>
    {
      return HAL_ERROR;
 800278c:	2301      	movs	r3, #1
 800278e:	e0b8      	b.n	8002902 <HAL_RCC_ClockConfig+0x1ae>
    }
  }

  /*-------------------------- HCLK Configuration --------------------------*/
  if(((RCC_ClkInitStruct->ClockType) & RCC_CLOCKTYPE_HCLK) == RCC_CLOCKTYPE_HCLK)
 8002790:	687b      	ldr	r3, [r7, #4]
 8002792:	681b      	ldr	r3, [r3, #0]
 8002794:	f003 0302 	and.w	r3, r3, #2
 8002798:	2b00      	cmp	r3, #0
 800279a:	d020      	beq.n	80027de <HAL_RCC_ClockConfig+0x8a>
  {
    /* Set the highest APBx dividers in order to ensure that we do not go through
       a non-spec phase whatever we decrease or increase HCLK. */
    if(((RCC_ClkInitStruct->ClockType) & RCC_CLOCKTYPE_PCLK1) == RCC_CLOCKTYPE_PCLK1)
 800279c:	687b      	ldr	r3, [r7, #4]
 800279e:	681b      	ldr	r3, [r3, #0]
 80027a0:	f003 0304 	and.w	r3, r3, #4
 80027a4:	2b00      	cmp	r3, #0
 80027a6:	d005      	beq.n	80027b4 <HAL_RCC_ClockConfig+0x60>
    {
      MODIFY_REG(RCC->CFGR, RCC_CFGR_PPRE1, RCC_HCLK_DIV16);
 80027a8:	4b59      	ldr	r3, [pc, #356]	; (8002910 <HAL_RCC_ClockConfig+0x1bc>)
 80027aa:	689b      	ldr	r3, [r3, #8]
 80027ac:	4a58      	ldr	r2, [pc, #352]	; (8002910 <HAL_RCC_ClockConfig+0x1bc>)
 80027ae:	f443 53e0 	orr.w	r3, r3, #7168	; 0x1c00
 80027b2:	6093      	str	r3, [r2, #8]
    }

    if(((RCC_ClkInitStruct->ClockType) & RCC_CLOCKTYPE_PCLK2) == RCC_CLOCKTYPE_PCLK2)
 80027b4:	687b      	ldr	r3, [r7, #4]
 80027b6:	681b      	ldr	r3, [r3, #0]
 80027b8:	f003 0308 	and.w	r3, r3, #8
 80027bc:	2b00      	cmp	r3, #0
 80027be:	d005      	beq.n	80027cc <HAL_RCC_ClockConfig+0x78>
    {
      MODIFY_REG(RCC->CFGR, RCC_CFGR_PPRE2, (RCC_HCLK_DIV16 << 3));
 80027c0:	4b53      	ldr	r3, [pc, #332]	; (8002910 <HAL_RCC_ClockConfig+0x1bc>)
 80027c2:	689b      	ldr	r3, [r3, #8]
 80027c4:	4a52      	ldr	r2, [pc, #328]	; (8002910 <HAL_RCC_ClockConfig+0x1bc>)
 80027c6:	f443 4360 	orr.w	r3, r3, #57344	; 0xe000
 80027ca:	6093      	str	r3, [r2, #8]
    }

    assert_param(IS_RCC_HCLK(RCC_ClkInitStruct->AHBCLKDivider));
    MODIFY_REG(RCC->CFGR, RCC_CFGR_HPRE, RCC_ClkInitStruct->AHBCLKDivider);
 80027cc:	4b50      	ldr	r3, [pc, #320]	; (8002910 <HAL_RCC_ClockConfig+0x1bc>)
 80027ce:	689b      	ldr	r3, [r3, #8]
 80027d0:	f023 02f0 	bic.w	r2, r3, #240	; 0xf0
 80027d4:	687b      	ldr	r3, [r7, #4]
 80027d6:	689b      	ldr	r3, [r3, #8]
 80027d8:	494d      	ldr	r1, [pc, #308]	; (8002910 <HAL_RCC_ClockConfig+0x1bc>)
 80027da:	4313      	orrs	r3, r2
 80027dc:	608b      	str	r3, [r1, #8]
  }

  /*------------------------- SYSCLK Configuration ---------------------------*/
  if(((RCC_ClkInitStruct->ClockType) & RCC_CLOCKTYPE_SYSCLK) == RCC_CLOCKTYPE_SYSCLK)
 80027de:	687b      	ldr	r3, [r7, #4]
 80027e0:	681b      	ldr	r3, [r3, #0]
 80027e2:	f003 0301 	and.w	r3, r3, #1
 80027e6:	2b00      	cmp	r3, #0
 80027e8:	d044      	beq.n	8002874 <HAL_RCC_ClockConfig+0x120>
  {
    assert_param(IS_RCC_SYSCLKSOURCE(RCC_ClkInitStruct->SYSCLKSource));

    /* HSE is selected as System Clock Source */
    if(RCC_ClkInitStruct->SYSCLKSource == RCC_SYSCLKSOURCE_HSE)
 80027ea:	687b      	ldr	r3, [r7, #4]
 80027ec:	685b      	ldr	r3, [r3, #4]
 80027ee:	2b01      	cmp	r3, #1
 80027f0:	d107      	bne.n	8002802 <HAL_RCC_ClockConfig+0xae>
    {
      /* Check the HSE ready flag */
      if(__HAL_RCC_GET_FLAG(RCC_FLAG_HSERDY) == RESET)
 80027f2:	4b47      	ldr	r3, [pc, #284]	; (8002910 <HAL_RCC_ClockConfig+0x1bc>)
 80027f4:	681b      	ldr	r3, [r3, #0]
 80027f6:	f403 3300 	and.w	r3, r3, #131072	; 0x20000
 80027fa:	2b00      	cmp	r3, #0
 80027fc:	d119      	bne.n	8002832 <HAL_RCC_ClockConfig+0xde>
      {
        return HAL_ERROR;
 80027fe:	2301      	movs	r3, #1
 8002800:	e07f      	b.n	8002902 <HAL_RCC_ClockConfig+0x1ae>
      }
    }
    /* PLL is selected as System Clock Source */
    else if((RCC_ClkInitStruct->SYSCLKSource == RCC_SYSCLKSOURCE_PLLCLK)   ||
 8002802:	687b      	ldr	r3, [r7, #4]
 8002804:	685b      	ldr	r3, [r3, #4]
 8002806:	2b02      	cmp	r3, #2
 8002808:	d003      	beq.n	8002812 <HAL_RCC_ClockConfig+0xbe>
            (RCC_ClkInitStruct->SYSCLKSource == RCC_SYSCLKSOURCE_PLLRCLK))
 800280a:	687b      	ldr	r3, [r7, #4]
 800280c:	685b      	ldr	r3, [r3, #4]
    else if((RCC_ClkInitStruct->SYSCLKSource == RCC_SYSCLKSOURCE_PLLCLK)   ||
 800280e:	2b03      	cmp	r3, #3
 8002810:	d107      	bne.n	8002822 <HAL_RCC_ClockConfig+0xce>
    {
      /* Check the PLL ready flag */
      if(__HAL_RCC_GET_FLAG(RCC_FLAG_PLLRDY) == RESET)
 8002812:	4b3f      	ldr	r3, [pc, #252]	; (8002910 <HAL_RCC_ClockConfig+0x1bc>)
 8002814:	681b      	ldr	r3, [r3, #0]
 8002816:	f003 7300 	and.w	r3, r3, #33554432	; 0x2000000
 800281a:	2b00      	cmp	r3, #0
 800281c:	d109      	bne.n	8002832 <HAL_RCC_ClockConfig+0xde>
      {
        return HAL_ERROR;
 800281e:	2301      	movs	r3, #1
 8002820:	e06f      	b.n	8002902 <HAL_RCC_ClockConfig+0x1ae>
    }
    /* HSI is selected as System Clock Source */
    else
    {
      /* Check the HSI ready flag */
      if(__HAL_RCC_GET_FLAG(RCC_FLAG_HSIRDY) == RESET)
 8002822:	4b3b      	ldr	r3, [pc, #236]	; (8002910 <HAL_RCC_ClockConfig+0x1bc>)
 8002824:	681b      	ldr	r3, [r3, #0]
 8002826:	f003 0302 	and.w	r3, r3, #2
 800282a:	2b00      	cmp	r3, #0
 800282c:	d101      	bne.n	8002832 <HAL_RCC_ClockConfig+0xde>
      {
        return HAL_ERROR;
 800282e:	2301      	movs	r3, #1
 8002830:	e067      	b.n	8002902 <HAL_RCC_ClockConfig+0x1ae>
      }
    }

    __HAL_RCC_SYSCLK_CONFIG(RCC_ClkInitStruct->SYSCLKSource);
 8002832:	4b37      	ldr	r3, [pc, #220]	; (8002910 <HAL_RCC_ClockConfig+0x1bc>)
 8002834:	689b      	ldr	r3, [r3, #8]
 8002836:	f023 0203 	bic.w	r2, r3, #3
 800283a:	687b      	ldr	r3, [r7, #4]
 800283c:	685b      	ldr	r3, [r3, #4]
 800283e:	4934      	ldr	r1, [pc, #208]	; (8002910 <HAL_RCC_ClockConfig+0x1bc>)
 8002840:	4313      	orrs	r3, r2
 8002842:	608b      	str	r3, [r1, #8]

    /* Get Start Tick */
    tickstart = HAL_GetTick();
 8002844:	f7fe fe38 	bl	80014b8 <HAL_GetTick>
 8002848:	60f8      	str	r0, [r7, #12]

    while (__HAL_RCC_GET_SYSCLK_SOURCE() != (RCC_ClkInitStruct->SYSCLKSource << RCC_CFGR_SWS_Pos))
 800284a:	e00a      	b.n	8002862 <HAL_RCC_ClockConfig+0x10e>
    {
      if ((HAL_GetTick() - tickstart) > CLOCKSWITCH_TIMEOUT_VALUE)
 800284c:	f7fe fe34 	bl	80014b8 <HAL_GetTick>
 8002850:	4602      	mov	r2, r0
 8002852:	68fb      	ldr	r3, [r7, #12]
 8002854:	1ad3      	subs	r3, r2, r3
 8002856:	f241 3288 	movw	r2, #5000	; 0x1388
 800285a:	4293      	cmp	r3, r2
 800285c:	d901      	bls.n	8002862 <HAL_RCC_ClockConfig+0x10e>
      {
        return HAL_TIMEOUT;
 800285e:	2303      	movs	r3, #3
 8002860:	e04f      	b.n	8002902 <HAL_RCC_ClockConfig+0x1ae>
    while (__HAL_RCC_GET_SYSCLK_SOURCE() != (RCC_ClkInitStruct->SYSCLKSource << RCC_CFGR_SWS_Pos))
 8002862:	4b2b      	ldr	r3, [pc, #172]	; (8002910 <HAL_RCC_ClockConfig+0x1bc>)
 8002864:	689b      	ldr	r3, [r3, #8]
 8002866:	f003 020c 	and.w	r2, r3, #12
 800286a:	687b      	ldr	r3, [r7, #4]
 800286c:	685b      	ldr	r3, [r3, #4]
 800286e:	009b      	lsls	r3, r3, #2
 8002870:	429a      	cmp	r2, r3
 8002872:	d1eb      	bne.n	800284c <HAL_RCC_ClockConfig+0xf8>
      }
    }
  }

  /* Decreasing the number of wait states because of lower CPU frequency */
  if(FLatency < __HAL_FLASH_GET_LATENCY())
 8002874:	4b25      	ldr	r3, [pc, #148]	; (800290c <HAL_RCC_ClockConfig+0x1b8>)
 8002876:	681b      	ldr	r3, [r3, #0]
 8002878:	f003 0307 	and.w	r3, r3, #7
 800287c:	683a      	ldr	r2, [r7, #0]
 800287e:	429a      	cmp	r2, r3
 8002880:	d20c      	bcs.n	800289c <HAL_RCC_ClockConfig+0x148>
  {
     /* Program the new number of wait states to the LATENCY bits in the FLASH_ACR register */
    __HAL_FLASH_SET_LATENCY(FLatency);
 8002882:	4b22      	ldr	r3, [pc, #136]	; (800290c <HAL_RCC_ClockConfig+0x1b8>)
 8002884:	683a      	ldr	r2, [r7, #0]
 8002886:	b2d2      	uxtb	r2, r2
 8002888:	701a      	strb	r2, [r3, #0]

    /* Check that the new number of wait states is taken into account to access the Flash
    memory by reading the FLASH_ACR register */
    if(__HAL_FLASH_GET_LATENCY() != FLatency)
 800288a:	4b20      	ldr	r3, [pc, #128]	; (800290c <HAL_RCC_ClockConfig+0x1b8>)
 800288c:	681b      	ldr	r3, [r3, #0]
 800288e:	f003 0307 	and.w	r3, r3, #7
 8002892:	683a      	ldr	r2, [r7, #0]
 8002894:	429a      	cmp	r2, r3
 8002896:	d001      	beq.n	800289c <HAL_RCC_ClockConfig+0x148>
    {
      return HAL_ERROR;
 8002898:	2301      	movs	r3, #1
 800289a:	e032      	b.n	8002902 <HAL_RCC_ClockConfig+0x1ae>
    }
  }

  /*-------------------------- PCLK1 Configuration ---------------------------*/
  if(((RCC_ClkInitStruct->ClockType) & RCC_CLOCKTYPE_PCLK1) == RCC_CLOCKTYPE_PCLK1)
 800289c:	687b      	ldr	r3, [r7, #4]
 800289e:	681b      	ldr	r3, [r3, #0]
 80028a0:	f003 0304 	and.w	r3, r3, #4
 80028a4:	2b00      	cmp	r3, #0
 80028a6:	d008      	beq.n	80028ba <HAL_RCC_ClockConfig+0x166>
  {
    assert_param(IS_RCC_PCLK(RCC_ClkInitStruct->APB1CLKDivider));
    MODIFY_REG(RCC->CFGR, RCC_CFGR_PPRE1, RCC_ClkInitStruct->APB1CLKDivider);
 80028a8:	4b19      	ldr	r3, [pc, #100]	; (8002910 <HAL_RCC_ClockConfig+0x1bc>)
 80028aa:	689b      	ldr	r3, [r3, #8]
 80028ac:	f423 52e0 	bic.w	r2, r3, #7168	; 0x1c00
 80028b0:	687b      	ldr	r3, [r7, #4]
 80028b2:	68db      	ldr	r3, [r3, #12]
 80028b4:	4916      	ldr	r1, [pc, #88]	; (8002910 <HAL_RCC_ClockConfig+0x1bc>)
 80028b6:	4313      	orrs	r3, r2
 80028b8:	608b      	str	r3, [r1, #8]
  }

  /*-------------------------- PCLK2 Configuration ---------------------------*/
  if(((RCC_ClkInitStruct->ClockType) & RCC_CLOCKTYPE_PCLK2) == RCC_CLOCKTYPE_PCLK2)
 80028ba:	687b      	ldr	r3, [r7, #4]
 80028bc:	681b      	ldr	r3, [r3, #0]
 80028be:	f003 0308 	and.w	r3, r3, #8
 80028c2:	2b00      	cmp	r3, #0
 80028c4:	d009      	beq.n	80028da <HAL_RCC_ClockConfig+0x186>
  {
    assert_param(IS_RCC_PCLK(RCC_ClkInitStruct->APB2CLKDivider));
    MODIFY_REG(RCC->CFGR, RCC_CFGR_PPRE2, ((RCC_ClkInitStruct->APB2CLKDivider) << 3U));
 80028c6:	4b12      	ldr	r3, [pc, #72]	; (8002910 <HAL_RCC_ClockConfig+0x1bc>)
 80028c8:	689b      	ldr	r3, [r3, #8]
 80028ca:	f423 4260 	bic.w	r2, r3, #57344	; 0xe000
 80028ce:	687b      	ldr	r3, [r7, #4]
 80028d0:	691b      	ldr	r3, [r3, #16]
 80028d2:	00db      	lsls	r3, r3, #3
 80028d4:	490e      	ldr	r1, [pc, #56]	; (8002910 <HAL_RCC_ClockConfig+0x1bc>)
 80028d6:	4313      	orrs	r3, r2
 80028d8:	608b      	str	r3, [r1, #8]
  }

  /* Update the SystemCoreClock global variable */
  SystemCoreClock = HAL_RCC_GetSysClockFreq() >> AHBPrescTable[(RCC->CFGR & RCC_CFGR_HPRE)>> RCC_CFGR_HPRE_Pos];
 80028da:	f000 f821 	bl	8002920 <HAL_RCC_GetSysClockFreq>
 80028de:	4602      	mov	r2, r0
 80028e0:	4b0b      	ldr	r3, [pc, #44]	; (8002910 <HAL_RCC_ClockConfig+0x1bc>)
 80028e2:	689b      	ldr	r3, [r3, #8]
 80028e4:	091b      	lsrs	r3, r3, #4
 80028e6:	f003 030f 	and.w	r3, r3, #15
 80028ea:	490a      	ldr	r1, [pc, #40]	; (8002914 <HAL_RCC_ClockConfig+0x1c0>)
 80028ec:	5ccb      	ldrb	r3, [r1, r3]
 80028ee:	fa22 f303 	lsr.w	r3, r2, r3
 80028f2:	4a09      	ldr	r2, [pc, #36]	; (8002918 <HAL_RCC_ClockConfig+0x1c4>)
 80028f4:	6013      	str	r3, [r2, #0]

  /* Configure the source of time base considering new system clocks settings */
  HAL_InitTick (uwTickPrio);
 80028f6:	4b09      	ldr	r3, [pc, #36]	; (800291c <HAL_RCC_ClockConfig+0x1c8>)
 80028f8:	681b      	ldr	r3, [r3, #0]
 80028fa:	4618      	mov	r0, r3
 80028fc:	f7fe fd98 	bl	8001430 <HAL_InitTick>

  return HAL_OK;
 8002900:	2300      	movs	r3, #0
}
 8002902:	4618      	mov	r0, r3
 8002904:	3710      	adds	r7, #16
 8002906:	46bd      	mov	sp, r7
 8002908:	bd80      	pop	{r7, pc}
 800290a:	bf00      	nop
 800290c:	40023c00 	.word	0x40023c00
 8002910:	40023800 	.word	0x40023800
 8002914:	08006250 	.word	0x08006250
 8002918:	20000020 	.word	0x20000020
 800291c:	20000024 	.word	0x20000024

08002920 <HAL_RCC_GetSysClockFreq>:
  *
  *
  * @retval SYSCLK frequency
  */
__weak uint32_t HAL_RCC_GetSysClockFreq(void)
{
 8002920:	e92d 43b0 	stmdb	sp!, {r4, r5, r7, r8, r9, lr}
 8002924:	b084      	sub	sp, #16
 8002926:	af00      	add	r7, sp, #0
  uint32_t pllm = 0U, pllvco = 0U, pllp = 0U;
 8002928:	2300      	movs	r3, #0
 800292a:	607b      	str	r3, [r7, #4]
 800292c:	2300      	movs	r3, #0
 800292e:	60fb      	str	r3, [r7, #12]
 8002930:	2300      	movs	r3, #0
 8002932:	603b      	str	r3, [r7, #0]
  uint32_t sysclockfreq = 0U;
 8002934:	2300      	movs	r3, #0
 8002936:	60bb      	str	r3, [r7, #8]

  /* Get SYSCLK source -------------------------------------------------------*/
  switch (RCC->CFGR & RCC_CFGR_SWS)
 8002938:	4b67      	ldr	r3, [pc, #412]	; (8002ad8 <HAL_RCC_GetSysClockFreq+0x1b8>)
 800293a:	689b      	ldr	r3, [r3, #8]
 800293c:	f003 030c 	and.w	r3, r3, #12
 8002940:	2b08      	cmp	r3, #8
 8002942:	d00d      	beq.n	8002960 <HAL_RCC_GetSysClockFreq+0x40>
 8002944:	2b08      	cmp	r3, #8
 8002946:	f200 80bd 	bhi.w	8002ac4 <HAL_RCC_GetSysClockFreq+0x1a4>
 800294a:	2b00      	cmp	r3, #0
 800294c:	d002      	beq.n	8002954 <HAL_RCC_GetSysClockFreq+0x34>
 800294e:	2b04      	cmp	r3, #4
 8002950:	d003      	beq.n	800295a <HAL_RCC_GetSysClockFreq+0x3a>
 8002952:	e0b7      	b.n	8002ac4 <HAL_RCC_GetSysClockFreq+0x1a4>
  {
    case RCC_CFGR_SWS_HSI:  /* HSI used as system clock source */
    {
      sysclockfreq = HSI_VALUE;
 8002954:	4b61      	ldr	r3, [pc, #388]	; (8002adc <HAL_RCC_GetSysClockFreq+0x1bc>)
 8002956:	60bb      	str	r3, [r7, #8]
       break;
 8002958:	e0b7      	b.n	8002aca <HAL_RCC_GetSysClockFreq+0x1aa>
    }
    case RCC_CFGR_SWS_HSE:  /* HSE used as system clock  source */
    {
      sysclockfreq = HSE_VALUE;
 800295a:	4b61      	ldr	r3, [pc, #388]	; (8002ae0 <HAL_RCC_GetSysClockFreq+0x1c0>)
 800295c:	60bb      	str	r3, [r7, #8]
      break;
 800295e:	e0b4      	b.n	8002aca <HAL_RCC_GetSysClockFreq+0x1aa>
    }
    case RCC_CFGR_SWS_PLL:  /* PLL used as system clock  source */
    {
      /* PLL_VCO = (HSE_VALUE or HSI_VALUE / PLLM) * PLLN
      SYSCLK = PLL_VCO / PLLP */
      pllm = RCC->PLLCFGR & RCC_PLLCFGR_PLLM;
 8002960:	4b5d      	ldr	r3, [pc, #372]	; (8002ad8 <HAL_RCC_GetSysClockFreq+0x1b8>)
 8002962:	685b      	ldr	r3, [r3, #4]
 8002964:	f003 033f 	and.w	r3, r3, #63	; 0x3f
 8002968:	607b      	str	r3, [r7, #4]
      if(__HAL_RCC_GET_PLL_OSCSOURCE() != RCC_PLLSOURCE_HSI)
 800296a:	4b5b      	ldr	r3, [pc, #364]	; (8002ad8 <HAL_RCC_GetSysClockFreq+0x1b8>)
 800296c:	685b      	ldr	r3, [r3, #4]
 800296e:	f403 0380 	and.w	r3, r3, #4194304	; 0x400000
 8002972:	2b00      	cmp	r3, #0
 8002974:	d04d      	beq.n	8002a12 <HAL_RCC_GetSysClockFreq+0xf2>
      {
        /* HSE used as PLL clock source */
        pllvco = (uint32_t) ((((uint64_t) HSE_VALUE * ((uint64_t) ((RCC->PLLCFGR & RCC_PLLCFGR_PLLN) >> RCC_PLLCFGR_PLLN_Pos)))) / (uint64_t)pllm);
 8002976:	4b58      	ldr	r3, [pc, #352]	; (8002ad8 <HAL_RCC_GetSysClockFreq+0x1b8>)
 8002978:	685b      	ldr	r3, [r3, #4]
 800297a:	099b      	lsrs	r3, r3, #6
 800297c:	461a      	mov	r2, r3
 800297e:	f04f 0300 	mov.w	r3, #0
 8002982:	f240 10ff 	movw	r0, #511	; 0x1ff
 8002986:	f04f 0100 	mov.w	r1, #0
 800298a:	ea02 0800 	and.w	r8, r2, r0
 800298e:	ea03 0901 	and.w	r9, r3, r1
 8002992:	4640      	mov	r0, r8
 8002994:	4649      	mov	r1, r9
 8002996:	f04f 0200 	mov.w	r2, #0
 800299a:	f04f 0300 	mov.w	r3, #0
 800299e:	014b      	lsls	r3, r1, #5
 80029a0:	ea43 63d0 	orr.w	r3, r3, r0, lsr #27
 80029a4:	0142      	lsls	r2, r0, #5
 80029a6:	4610      	mov	r0, r2
 80029a8:	4619      	mov	r1, r3
 80029aa:	ebb0 0008 	subs.w	r0, r0, r8
 80029ae:	eb61 0109 	sbc.w	r1, r1, r9
 80029b2:	f04f 0200 	mov.w	r2, #0
 80029b6:	f04f 0300 	mov.w	r3, #0
 80029ba:	018b      	lsls	r3, r1, #6
 80029bc:	ea43 6390 	orr.w	r3, r3, r0, lsr #26
 80029c0:	0182      	lsls	r2, r0, #6
 80029c2:	1a12      	subs	r2, r2, r0
 80029c4:	eb63 0301 	sbc.w	r3, r3, r1
 80029c8:	f04f 0000 	mov.w	r0, #0
 80029cc:	f04f 0100 	mov.w	r1, #0
 80029d0:	00d9      	lsls	r1, r3, #3
 80029d2:	ea41 7152 	orr.w	r1, r1, r2, lsr #29
 80029d6:	00d0      	lsls	r0, r2, #3
 80029d8:	4602      	mov	r2, r0
 80029da:	460b      	mov	r3, r1
 80029dc:	eb12 0208 	adds.w	r2, r2, r8
 80029e0:	eb43 0309 	adc.w	r3, r3, r9
 80029e4:	f04f 0000 	mov.w	r0, #0
 80029e8:	f04f 0100 	mov.w	r1, #0
 80029ec:	0259      	lsls	r1, r3, #9
 80029ee:	ea41 51d2 	orr.w	r1, r1, r2, lsr #23
 80029f2:	0250      	lsls	r0, r2, #9
 80029f4:	4602      	mov	r2, r0
 80029f6:	460b      	mov	r3, r1
 80029f8:	4610      	mov	r0, r2
 80029fa:	4619      	mov	r1, r3
 80029fc:	687b      	ldr	r3, [r7, #4]
 80029fe:	461a      	mov	r2, r3
 8002a00:	f04f 0300 	mov.w	r3, #0
 8002a04:	f7fd fc3c 	bl	8000280 <__aeabi_uldivmod>
 8002a08:	4602      	mov	r2, r0
 8002a0a:	460b      	mov	r3, r1
 8002a0c:	4613      	mov	r3, r2
 8002a0e:	60fb      	str	r3, [r7, #12]
 8002a10:	e04a      	b.n	8002aa8 <HAL_RCC_GetSysClockFreq+0x188>
      }
      else
      {
        /* HSI used as PLL clock source */
        pllvco = (uint32_t) ((((uint64_t) HSI_VALUE * ((uint64_t) ((RCC->PLLCFGR & RCC_PLLCFGR_PLLN) >> RCC_PLLCFGR_PLLN_Pos)))) / (uint64_t)pllm);
 8002a12:	4b31      	ldr	r3, [pc, #196]	; (8002ad8 <HAL_RCC_GetSysClockFreq+0x1b8>)
 8002a14:	685b      	ldr	r3, [r3, #4]
 8002a16:	099b      	lsrs	r3, r3, #6
 8002a18:	461a      	mov	r2, r3
 8002a1a:	f04f 0300 	mov.w	r3, #0
 8002a1e:	f240 10ff 	movw	r0, #511	; 0x1ff
 8002a22:	f04f 0100 	mov.w	r1, #0
 8002a26:	ea02 0400 	and.w	r4, r2, r0
 8002a2a:	ea03 0501 	and.w	r5, r3, r1
 8002a2e:	4620      	mov	r0, r4
 8002a30:	4629      	mov	r1, r5
 8002a32:	f04f 0200 	mov.w	r2, #0
 8002a36:	f04f 0300 	mov.w	r3, #0
 8002a3a:	014b      	lsls	r3, r1, #5
 8002a3c:	ea43 63d0 	orr.w	r3, r3, r0, lsr #27
 8002a40:	0142      	lsls	r2, r0, #5
 8002a42:	4610      	mov	r0, r2
 8002a44:	4619      	mov	r1, r3
 8002a46:	1b00      	subs	r0, r0, r4
 8002a48:	eb61 0105 	sbc.w	r1, r1, r5
 8002a4c:	f04f 0200 	mov.w	r2, #0
 8002a50:	f04f 0300 	mov.w	r3, #0
 8002a54:	018b      	lsls	r3, r1, #6
 8002a56:	ea43 6390 	orr.w	r3, r3, r0, lsr #26
 8002a5a:	0182      	lsls	r2, r0, #6
 8002a5c:	1a12      	subs	r2, r2, r0
 8002a5e:	eb63 0301 	sbc.w	r3, r3, r1
 8002a62:	f04f 0000 	mov.w	r0, #0
 8002a66:	f04f 0100 	mov.w	r1, #0
 8002a6a:	00d9      	lsls	r1, r3, #3
 8002a6c:	ea41 7152 	orr.w	r1, r1, r2, lsr #29
 8002a70:	00d0      	lsls	r0, r2, #3
 8002a72:	4602      	mov	r2, r0
 8002a74:	460b      	mov	r3, r1
 8002a76:	1912      	adds	r2, r2, r4
 8002a78:	eb45 0303 	adc.w	r3, r5, r3
 8002a7c:	f04f 0000 	mov.w	r0, #0
 8002a80:	f04f 0100 	mov.w	r1, #0
 8002a84:	0299      	lsls	r1, r3, #10
 8002a86:	ea41 5192 	orr.w	r1, r1, r2, lsr #22
 8002a8a:	0290      	lsls	r0, r2, #10
 8002a8c:	4602      	mov	r2, r0
 8002a8e:	460b      	mov	r3, r1
 8002a90:	4610      	mov	r0, r2
 8002a92:	4619      	mov	r1, r3
 8002a94:	687b      	ldr	r3, [r7, #4]
 8002a96:	461a      	mov	r2, r3
 8002a98:	f04f 0300 	mov.w	r3, #0
 8002a9c:	f7fd fbf0 	bl	8000280 <__aeabi_uldivmod>
 8002aa0:	4602      	mov	r2, r0
 8002aa2:	460b      	mov	r3, r1
 8002aa4:	4613      	mov	r3, r2
 8002aa6:	60fb      	str	r3, [r7, #12]
      }
      pllp = ((((RCC->PLLCFGR & RCC_PLLCFGR_PLLP) >> RCC_PLLCFGR_PLLP_Pos) + 1U) *2U);
 8002aa8:	4b0b      	ldr	r3, [pc, #44]	; (8002ad8 <HAL_RCC_GetSysClockFreq+0x1b8>)
 8002aaa:	685b      	ldr	r3, [r3, #4]
 8002aac:	0c1b      	lsrs	r3, r3, #16
 8002aae:	f003 0303 	and.w	r3, r3, #3
 8002ab2:	3301      	adds	r3, #1
 8002ab4:	005b      	lsls	r3, r3, #1
 8002ab6:	603b      	str	r3, [r7, #0]

      sysclockfreq = pllvco/pllp;
 8002ab8:	68fa      	ldr	r2, [r7, #12]
 8002aba:	683b      	ldr	r3, [r7, #0]
 8002abc:	fbb2 f3f3 	udiv	r3, r2, r3
 8002ac0:	60bb      	str	r3, [r7, #8]
      break;
 8002ac2:	e002      	b.n	8002aca <HAL_RCC_GetSysClockFreq+0x1aa>
    }
    default:
    {
      sysclockfreq = HSI_VALUE;
 8002ac4:	4b05      	ldr	r3, [pc, #20]	; (8002adc <HAL_RCC_GetSysClockFreq+0x1bc>)
 8002ac6:	60bb      	str	r3, [r7, #8]
      break;
 8002ac8:	bf00      	nop
    }
  }
  return sysclockfreq;
 8002aca:	68bb      	ldr	r3, [r7, #8]
}
 8002acc:	4618      	mov	r0, r3
 8002ace:	3710      	adds	r7, #16
 8002ad0:	46bd      	mov	sp, r7
 8002ad2:	e8bd 83b0 	ldmia.w	sp!, {r4, r5, r7, r8, r9, pc}
 8002ad6:	bf00      	nop
 8002ad8:	40023800 	.word	0x40023800
 8002adc:	00f42400 	.word	0x00f42400
 8002ae0:	007a1200 	.word	0x007a1200

08002ae4 <HAL_RCC_GetHCLKFreq>:
  * @note   The SystemCoreClock CMSIS variable is used to store System Clock Frequency
  *         and updated within this function
  * @retval HCLK frequency
  */
uint32_t HAL_RCC_GetHCLKFreq(void)
{
 8002ae4:	b480      	push	{r7}
 8002ae6:	af00      	add	r7, sp, #0
  return SystemCoreClock;
 8002ae8:	4b03      	ldr	r3, [pc, #12]	; (8002af8 <HAL_RCC_GetHCLKFreq+0x14>)
 8002aea:	681b      	ldr	r3, [r3, #0]
}
 8002aec:	4618      	mov	r0, r3
 8002aee:	46bd      	mov	sp, r7
 8002af0:	f85d 7b04 	ldr.w	r7, [sp], #4
 8002af4:	4770      	bx	lr
 8002af6:	bf00      	nop
 8002af8:	20000020 	.word	0x20000020

08002afc <HAL_RCC_GetPCLK1Freq>:
  * @note   Each time PCLK1 changes, this function must be called to update the
  *         right PCLK1 value. Otherwise, any configuration based on this function will be incorrect.
  * @retval PCLK1 frequency
  */
uint32_t HAL_RCC_GetPCLK1Freq(void)
{
 8002afc:	b580      	push	{r7, lr}
 8002afe:	af00      	add	r7, sp, #0
  /* Get HCLK source and Compute PCLK1 frequency ---------------------------*/
  return (HAL_RCC_GetHCLKFreq() >> APBPrescTable[(RCC->CFGR & RCC_CFGR_PPRE1)>> RCC_CFGR_PPRE1_Pos]);
 8002b00:	f7ff fff0 	bl	8002ae4 <HAL_RCC_GetHCLKFreq>
 8002b04:	4602      	mov	r2, r0
 8002b06:	4b05      	ldr	r3, [pc, #20]	; (8002b1c <HAL_RCC_GetPCLK1Freq+0x20>)
 8002b08:	689b      	ldr	r3, [r3, #8]
 8002b0a:	0a9b      	lsrs	r3, r3, #10
 8002b0c:	f003 0307 	and.w	r3, r3, #7
 8002b10:	4903      	ldr	r1, [pc, #12]	; (8002b20 <HAL_RCC_GetPCLK1Freq+0x24>)
 8002b12:	5ccb      	ldrb	r3, [r1, r3]
 8002b14:	fa22 f303 	lsr.w	r3, r2, r3
}
 8002b18:	4618      	mov	r0, r3
 8002b1a:	bd80      	pop	{r7, pc}
 8002b1c:	40023800 	.word	0x40023800
 8002b20:	08006260 	.word	0x08006260

08002b24 <HAL_RCC_GetPCLK2Freq>:
  * @note   Each time PCLK2 changes, this function must be called to update the
  *         right PCLK2 value. Otherwise, any configuration based on this function will be incorrect.
  * @retval PCLK2 frequency
  */
uint32_t HAL_RCC_GetPCLK2Freq(void)
{
 8002b24:	b580      	push	{r7, lr}
 8002b26:	af00      	add	r7, sp, #0
  /* Get HCLK source and Compute PCLK2 frequency ---------------------------*/
  return (HAL_RCC_GetHCLKFreq()>> APBPrescTable[(RCC->CFGR & RCC_CFGR_PPRE2)>> RCC_CFGR_PPRE2_Pos]);
 8002b28:	f7ff ffdc 	bl	8002ae4 <HAL_RCC_GetHCLKFreq>
 8002b2c:	4602      	mov	r2, r0
 8002b2e:	4b05      	ldr	r3, [pc, #20]	; (8002b44 <HAL_RCC_GetPCLK2Freq+0x20>)
 8002b30:	689b      	ldr	r3, [r3, #8]
 8002b32:	0b5b      	lsrs	r3, r3, #13
 8002b34:	f003 0307 	and.w	r3, r3, #7
 8002b38:	4903      	ldr	r1, [pc, #12]	; (8002b48 <HAL_RCC_GetPCLK2Freq+0x24>)
 8002b3a:	5ccb      	ldrb	r3, [r1, r3]
 8002b3c:	fa22 f303 	lsr.w	r3, r2, r3
}
 8002b40:	4618      	mov	r0, r3
 8002b42:	bd80      	pop	{r7, pc}
 8002b44:	40023800 	.word	0x40023800
 8002b48:	08006260 	.word	0x08006260

08002b4c <HAL_TIM_Base_Init>:
  *         Ex: call @ref HAL_TIM_Base_DeInit() before HAL_TIM_Base_Init()
  * @param  htim TIM Base handle
  * @retval HAL status
  */
HAL_StatusTypeDef HAL_TIM_Base_Init(TIM_HandleTypeDef *htim)
{
 8002b4c:	b580      	push	{r7, lr}
 8002b4e:	b082      	sub	sp, #8
 8002b50:	af00      	add	r7, sp, #0
 8002b52:	6078      	str	r0, [r7, #4]
  /* Check the TIM handle allocation */
  if (htim == NULL)
 8002b54:	687b      	ldr	r3, [r7, #4]
 8002b56:	2b00      	cmp	r3, #0
 8002b58:	d101      	bne.n	8002b5e <HAL_TIM_Base_Init+0x12>
  {
    return HAL_ERROR;
 8002b5a:	2301      	movs	r3, #1
 8002b5c:	e041      	b.n	8002be2 <HAL_TIM_Base_Init+0x96>
  assert_param(IS_TIM_INSTANCE(htim->Instance));
  assert_param(IS_TIM_COUNTER_MODE(htim->Init.CounterMode));
  assert_param(IS_TIM_CLOCKDIVISION_DIV(htim->Init.ClockDivision));
  assert_param(IS_TIM_AUTORELOAD_PRELOAD(htim->Init.AutoReloadPreload));

  if (htim->State == HAL_TIM_STATE_RESET)
 8002b5e:	687b      	ldr	r3, [r7, #4]
 8002b60:	f893 303d 	ldrb.w	r3, [r3, #61]	; 0x3d
 8002b64:	b2db      	uxtb	r3, r3
 8002b66:	2b00      	cmp	r3, #0
 8002b68:	d106      	bne.n	8002b78 <HAL_TIM_Base_Init+0x2c>
  {
    /* Allocate lock resource and initialize it */
    htim->Lock = HAL_UNLOCKED;
 8002b6a:	687b      	ldr	r3, [r7, #4]
 8002b6c:	2200      	movs	r2, #0
 8002b6e:	f883 203c 	strb.w	r2, [r3, #60]	; 0x3c
    }
    /* Init the low level hardware : GPIO, CLOCK, NVIC */
    htim->Base_MspInitCallback(htim);
#else
    /* Init the low level hardware : GPIO, CLOCK, NVIC */
    HAL_TIM_Base_MspInit(htim);
 8002b72:	6878      	ldr	r0, [r7, #4]
 8002b74:	f7fe f9c4 	bl	8000f00 <HAL_TIM_Base_MspInit>
#endif /* USE_HAL_TIM_REGISTER_CALLBACKS */
  }

  /* Set the TIM state */
  htim->State = HAL_TIM_STATE_BUSY;
 8002b78:	687b      	ldr	r3, [r7, #4]
 8002b7a:	2202      	movs	r2, #2
 8002b7c:	f883 203d 	strb.w	r2, [r3, #61]	; 0x3d

  /* Set the Time Base configuration */
  TIM_Base_SetConfig(htim->Instance, &htim->Init);
 8002b80:	687b      	ldr	r3, [r7, #4]
 8002b82:	681a      	ldr	r2, [r3, #0]
 8002b84:	687b      	ldr	r3, [r7, #4]
 8002b86:	3304      	adds	r3, #4
 8002b88:	4619      	mov	r1, r3
 8002b8a:	4610      	mov	r0, r2
 8002b8c:	f000 fd78 	bl	8003680 <TIM_Base_SetConfig>

  /* Initialize the DMA burst operation state */
  htim->DMABurstState = HAL_DMA_BURST_STATE_READY;
 8002b90:	687b      	ldr	r3, [r7, #4]
 8002b92:	2201      	movs	r2, #1
 8002b94:	f883 2046 	strb.w	r2, [r3, #70]	; 0x46

  /* Initialize the TIM channels state */
  TIM_CHANNEL_STATE_SET_ALL(htim, HAL_TIM_CHANNEL_STATE_READY);
 8002b98:	687b      	ldr	r3, [r7, #4]
 8002b9a:	2201      	movs	r2, #1
 8002b9c:	f883 203e 	strb.w	r2, [r3, #62]	; 0x3e
 8002ba0:	687b      	ldr	r3, [r7, #4]
 8002ba2:	2201      	movs	r2, #1
 8002ba4:	f883 203f 	strb.w	r2, [r3, #63]	; 0x3f
 8002ba8:	687b      	ldr	r3, [r7, #4]
 8002baa:	2201      	movs	r2, #1
 8002bac:	f883 2040 	strb.w	r2, [r3, #64]	; 0x40
 8002bb0:	687b      	ldr	r3, [r7, #4]
 8002bb2:	2201      	movs	r2, #1
 8002bb4:	f883 2041 	strb.w	r2, [r3, #65]	; 0x41
  TIM_CHANNEL_N_STATE_SET_ALL(htim, HAL_TIM_CHANNEL_STATE_READY);
 8002bb8:	687b      	ldr	r3, [r7, #4]
 8002bba:	2201      	movs	r2, #1
 8002bbc:	f883 2042 	strb.w	r2, [r3, #66]	; 0x42
 8002bc0:	687b      	ldr	r3, [r7, #4]
 8002bc2:	2201      	movs	r2, #1
 8002bc4:	f883 2043 	strb.w	r2, [r3, #67]	; 0x43
 8002bc8:	687b      	ldr	r3, [r7, #4]
 8002bca:	2201      	movs	r2, #1
 8002bcc:	f883 2044 	strb.w	r2, [r3, #68]	; 0x44
 8002bd0:	687b      	ldr	r3, [r7, #4]
 8002bd2:	2201      	movs	r2, #1
 8002bd4:	f883 2045 	strb.w	r2, [r3, #69]	; 0x45

  /* Initialize the TIM state*/
  htim->State = HAL_TIM_STATE_READY;
 8002bd8:	687b      	ldr	r3, [r7, #4]
 8002bda:	2201      	movs	r2, #1
 8002bdc:	f883 203d 	strb.w	r2, [r3, #61]	; 0x3d

  return HAL_OK;
 8002be0:	2300      	movs	r3, #0
}
 8002be2:	4618      	mov	r0, r3
 8002be4:	3708      	adds	r7, #8
 8002be6:	46bd      	mov	sp, r7
 8002be8:	bd80      	pop	{r7, pc}
	...

08002bec <HAL_TIM_Base_Start>:
  * @brief  Starts the TIM Base generation.
  * @param  htim TIM Base handle
  * @retval HAL status
  */
HAL_StatusTypeDef HAL_TIM_Base_Start(TIM_HandleTypeDef *htim)
{
 8002bec:	b480      	push	{r7}
 8002bee:	b085      	sub	sp, #20
 8002bf0:	af00      	add	r7, sp, #0
 8002bf2:	6078      	str	r0, [r7, #4]

  /* Check the parameters */
  assert_param(IS_TIM_INSTANCE(htim->Instance));

  /* Check the TIM state */
  if (htim->State != HAL_TIM_STATE_READY)
 8002bf4:	687b      	ldr	r3, [r7, #4]
 8002bf6:	f893 303d 	ldrb.w	r3, [r3, #61]	; 0x3d
 8002bfa:	b2db      	uxtb	r3, r3
 8002bfc:	2b01      	cmp	r3, #1
 8002bfe:	d001      	beq.n	8002c04 <HAL_TIM_Base_Start+0x18>
  {
    return HAL_ERROR;
 8002c00:	2301      	movs	r3, #1
 8002c02:	e046      	b.n	8002c92 <HAL_TIM_Base_Start+0xa6>
  }

  /* Set the TIM state */
  htim->State = HAL_TIM_STATE_BUSY;
 8002c04:	687b      	ldr	r3, [r7, #4]
 8002c06:	2202      	movs	r2, #2
 8002c08:	f883 203d 	strb.w	r2, [r3, #61]	; 0x3d

  /* Enable the Peripheral, except in trigger mode where enable is automatically done with trigger */
  if (IS_TIM_SLAVE_INSTANCE(htim->Instance))
 8002c0c:	687b      	ldr	r3, [r7, #4]
 8002c0e:	681b      	ldr	r3, [r3, #0]
 8002c10:	4a23      	ldr	r2, [pc, #140]	; (8002ca0 <HAL_TIM_Base_Start+0xb4>)
 8002c12:	4293      	cmp	r3, r2
 8002c14:	d022      	beq.n	8002c5c <HAL_TIM_Base_Start+0x70>
 8002c16:	687b      	ldr	r3, [r7, #4]
 8002c18:	681b      	ldr	r3, [r3, #0]
 8002c1a:	f1b3 4f80 	cmp.w	r3, #1073741824	; 0x40000000
 8002c1e:	d01d      	beq.n	8002c5c <HAL_TIM_Base_Start+0x70>
 8002c20:	687b      	ldr	r3, [r7, #4]
 8002c22:	681b      	ldr	r3, [r3, #0]
 8002c24:	4a1f      	ldr	r2, [pc, #124]	; (8002ca4 <HAL_TIM_Base_Start+0xb8>)
 8002c26:	4293      	cmp	r3, r2
 8002c28:	d018      	beq.n	8002c5c <HAL_TIM_Base_Start+0x70>
 8002c2a:	687b      	ldr	r3, [r7, #4]
 8002c2c:	681b      	ldr	r3, [r3, #0]
 8002c2e:	4a1e      	ldr	r2, [pc, #120]	; (8002ca8 <HAL_TIM_Base_Start+0xbc>)
 8002c30:	4293      	cmp	r3, r2
 8002c32:	d013      	beq.n	8002c5c <HAL_TIM_Base_Start+0x70>
 8002c34:	687b      	ldr	r3, [r7, #4]
 8002c36:	681b      	ldr	r3, [r3, #0]
 8002c38:	4a1c      	ldr	r2, [pc, #112]	; (8002cac <HAL_TIM_Base_Start+0xc0>)
 8002c3a:	4293      	cmp	r3, r2
 8002c3c:	d00e      	beq.n	8002c5c <HAL_TIM_Base_Start+0x70>
 8002c3e:	687b      	ldr	r3, [r7, #4]
 8002c40:	681b      	ldr	r3, [r3, #0]
 8002c42:	4a1b      	ldr	r2, [pc, #108]	; (8002cb0 <HAL_TIM_Base_Start+0xc4>)
 8002c44:	4293      	cmp	r3, r2
 8002c46:	d009      	beq.n	8002c5c <HAL_TIM_Base_Start+0x70>
 8002c48:	687b      	ldr	r3, [r7, #4]
 8002c4a:	681b      	ldr	r3, [r3, #0]
 8002c4c:	4a19      	ldr	r2, [pc, #100]	; (8002cb4 <HAL_TIM_Base_Start+0xc8>)
 8002c4e:	4293      	cmp	r3, r2
 8002c50:	d004      	beq.n	8002c5c <HAL_TIM_Base_Start+0x70>
 8002c52:	687b      	ldr	r3, [r7, #4]
 8002c54:	681b      	ldr	r3, [r3, #0]
 8002c56:	4a18      	ldr	r2, [pc, #96]	; (8002cb8 <HAL_TIM_Base_Start+0xcc>)
 8002c58:	4293      	cmp	r3, r2
 8002c5a:	d111      	bne.n	8002c80 <HAL_TIM_Base_Start+0x94>
  {
    tmpsmcr = htim->Instance->SMCR & TIM_SMCR_SMS;
 8002c5c:	687b      	ldr	r3, [r7, #4]
 8002c5e:	681b      	ldr	r3, [r3, #0]
 8002c60:	689b      	ldr	r3, [r3, #8]
 8002c62:	f003 0307 	and.w	r3, r3, #7
 8002c66:	60fb      	str	r3, [r7, #12]
    if (!IS_TIM_SLAVEMODE_TRIGGER_ENABLED(tmpsmcr))
 8002c68:	68fb      	ldr	r3, [r7, #12]
 8002c6a:	2b06      	cmp	r3, #6
 8002c6c:	d010      	beq.n	8002c90 <HAL_TIM_Base_Start+0xa4>
    {
      __HAL_TIM_ENABLE(htim);
 8002c6e:	687b      	ldr	r3, [r7, #4]
 8002c70:	681b      	ldr	r3, [r3, #0]
 8002c72:	681a      	ldr	r2, [r3, #0]
 8002c74:	687b      	ldr	r3, [r7, #4]
 8002c76:	681b      	ldr	r3, [r3, #0]
 8002c78:	f042 0201 	orr.w	r2, r2, #1
 8002c7c:	601a      	str	r2, [r3, #0]
    if (!IS_TIM_SLAVEMODE_TRIGGER_ENABLED(tmpsmcr))
 8002c7e:	e007      	b.n	8002c90 <HAL_TIM_Base_Start+0xa4>
    }
  }
  else
  {
    __HAL_TIM_ENABLE(htim);
 8002c80:	687b      	ldr	r3, [r7, #4]
 8002c82:	681b      	ldr	r3, [r3, #0]
 8002c84:	681a      	ldr	r2, [r3, #0]
 8002c86:	687b      	ldr	r3, [r7, #4]
 8002c88:	681b      	ldr	r3, [r3, #0]
 8002c8a:	f042 0201 	orr.w	r2, r2, #1
 8002c8e:	601a      	str	r2, [r3, #0]
  }

  /* Return function status */
  return HAL_OK;
 8002c90:	2300      	movs	r3, #0
}
 8002c92:	4618      	mov	r0, r3
 8002c94:	3714      	adds	r7, #20
 8002c96:	46bd      	mov	sp, r7
 8002c98:	f85d 7b04 	ldr.w	r7, [sp], #4
 8002c9c:	4770      	bx	lr
 8002c9e:	bf00      	nop
 8002ca0:	40010000 	.word	0x40010000
 8002ca4:	40000400 	.word	0x40000400
 8002ca8:	40000800 	.word	0x40000800
 8002cac:	40000c00 	.word	0x40000c00
 8002cb0:	40010400 	.word	0x40010400
 8002cb4:	40014000 	.word	0x40014000
 8002cb8:	40001800 	.word	0x40001800

08002cbc <HAL_TIM_PWM_Init>:
  *         Ex: call @ref HAL_TIM_PWM_DeInit() before HAL_TIM_PWM_Init()
  * @param  htim TIM PWM handle
  * @retval HAL status
  */
HAL_StatusTypeDef HAL_TIM_PWM_Init(TIM_HandleTypeDef *htim)
{
 8002cbc:	b580      	push	{r7, lr}
 8002cbe:	b082      	sub	sp, #8
 8002cc0:	af00      	add	r7, sp, #0
 8002cc2:	6078      	str	r0, [r7, #4]
  /* Check the TIM handle allocation */
  if (htim == NULL)
 8002cc4:	687b      	ldr	r3, [r7, #4]
 8002cc6:	2b00      	cmp	r3, #0
 8002cc8:	d101      	bne.n	8002cce <HAL_TIM_PWM_Init+0x12>
  {
    return HAL_ERROR;
 8002cca:	2301      	movs	r3, #1
 8002ccc:	e041      	b.n	8002d52 <HAL_TIM_PWM_Init+0x96>
  assert_param(IS_TIM_INSTANCE(htim->Instance));
  assert_param(IS_TIM_COUNTER_MODE(htim->Init.CounterMode));
  assert_param(IS_TIM_CLOCKDIVISION_DIV(htim->Init.ClockDivision));
  assert_param(IS_TIM_AUTORELOAD_PRELOAD(htim->Init.AutoReloadPreload));

  if (htim->State == HAL_TIM_STATE_RESET)
 8002cce:	687b      	ldr	r3, [r7, #4]
 8002cd0:	f893 303d 	ldrb.w	r3, [r3, #61]	; 0x3d
 8002cd4:	b2db      	uxtb	r3, r3
 8002cd6:	2b00      	cmp	r3, #0
 8002cd8:	d106      	bne.n	8002ce8 <HAL_TIM_PWM_Init+0x2c>
  {
    /* Allocate lock resource and initialize it */
    htim->Lock = HAL_UNLOCKED;
 8002cda:	687b      	ldr	r3, [r7, #4]
 8002cdc:	2200      	movs	r2, #0
 8002cde:	f883 203c 	strb.w	r2, [r3, #60]	; 0x3c
    }
    /* Init the low level hardware : GPIO, CLOCK, NVIC */
    htim->PWM_MspInitCallback(htim);
#else
    /* Init the low level hardware : GPIO, CLOCK, NVIC and DMA */
    HAL_TIM_PWM_MspInit(htim);
 8002ce2:	6878      	ldr	r0, [r7, #4]
 8002ce4:	f7fe f95e 	bl	8000fa4 <HAL_TIM_PWM_MspInit>
#endif /* USE_HAL_TIM_REGISTER_CALLBACKS */
  }

  /* Set the TIM state */
  htim->State = HAL_TIM_STATE_BUSY;
 8002ce8:	687b      	ldr	r3, [r7, #4]
 8002cea:	2202      	movs	r2, #2
 8002cec:	f883 203d 	strb.w	r2, [r3, #61]	; 0x3d

  /* Init the base time for the PWM */
  TIM_Base_SetConfig(htim->Instance, &htim->Init);
 8002cf0:	687b      	ldr	r3, [r7, #4]
 8002cf2:	681a      	ldr	r2, [r3, #0]
 8002cf4:	687b      	ldr	r3, [r7, #4]
 8002cf6:	3304      	adds	r3, #4
 8002cf8:	4619      	mov	r1, r3
 8002cfa:	4610      	mov	r0, r2
 8002cfc:	f000 fcc0 	bl	8003680 <TIM_Base_SetConfig>

  /* Initialize the DMA burst operation state */
  htim->DMABurstState = HAL_DMA_BURST_STATE_READY;
 8002d00:	687b      	ldr	r3, [r7, #4]
 8002d02:	2201      	movs	r2, #1
 8002d04:	f883 2046 	strb.w	r2, [r3, #70]	; 0x46

  /* Initialize the TIM channels state */
  TIM_CHANNEL_STATE_SET_ALL(htim, HAL_TIM_CHANNEL_STATE_READY);
 8002d08:	687b      	ldr	r3, [r7, #4]
 8002d0a:	2201      	movs	r2, #1
 8002d0c:	f883 203e 	strb.w	r2, [r3, #62]	; 0x3e
 8002d10:	687b      	ldr	r3, [r7, #4]
 8002d12:	2201      	movs	r2, #1
 8002d14:	f883 203f 	strb.w	r2, [r3, #63]	; 0x3f
 8002d18:	687b      	ldr	r3, [r7, #4]
 8002d1a:	2201      	movs	r2, #1
 8002d1c:	f883 2040 	strb.w	r2, [r3, #64]	; 0x40
 8002d20:	687b      	ldr	r3, [r7, #4]
 8002d22:	2201      	movs	r2, #1
 8002d24:	f883 2041 	strb.w	r2, [r3, #65]	; 0x41
  TIM_CHANNEL_N_STATE_SET_ALL(htim, HAL_TIM_CHANNEL_STATE_READY);
 8002d28:	687b      	ldr	r3, [r7, #4]
 8002d2a:	2201      	movs	r2, #1
 8002d2c:	f883 2042 	strb.w	r2, [r3, #66]	; 0x42
 8002d30:	687b      	ldr	r3, [r7, #4]
 8002d32:	2201      	movs	r2, #1
 8002d34:	f883 2043 	strb.w	r2, [r3, #67]	; 0x43
 8002d38:	687b      	ldr	r3, [r7, #4]
 8002d3a:	2201      	movs	r2, #1
 8002d3c:	f883 2044 	strb.w	r2, [r3, #68]	; 0x44
 8002d40:	687b      	ldr	r3, [r7, #4]
 8002d42:	2201      	movs	r2, #1
 8002d44:	f883 2045 	strb.w	r2, [r3, #69]	; 0x45

  /* Initialize the TIM state*/
  htim->State = HAL_TIM_STATE_READY;
 8002d48:	687b      	ldr	r3, [r7, #4]
 8002d4a:	2201      	movs	r2, #1
 8002d4c:	f883 203d 	strb.w	r2, [r3, #61]	; 0x3d

  return HAL_OK;
 8002d50:	2300      	movs	r3, #0
}
 8002d52:	4618      	mov	r0, r3
 8002d54:	3708      	adds	r7, #8
 8002d56:	46bd      	mov	sp, r7
 8002d58:	bd80      	pop	{r7, pc}
	...

08002d5c <HAL_TIM_PWM_Start>:
  *            @arg TIM_CHANNEL_3: TIM Channel 3 selected
  *            @arg TIM_CHANNEL_4: TIM Channel 4 selected
  * @retval HAL status
  */
HAL_StatusTypeDef HAL_TIM_PWM_Start(TIM_HandleTypeDef *htim, uint32_t Channel)
{
 8002d5c:	b580      	push	{r7, lr}
 8002d5e:	b084      	sub	sp, #16
 8002d60:	af00      	add	r7, sp, #0
 8002d62:	6078      	str	r0, [r7, #4]
 8002d64:	6039      	str	r1, [r7, #0]

  /* Check the parameters */
  assert_param(IS_TIM_CCX_INSTANCE(htim->Instance, Channel));

  /* Check the TIM channel state */
  if (TIM_CHANNEL_STATE_GET(htim, Channel) != HAL_TIM_CHANNEL_STATE_READY)
 8002d66:	683b      	ldr	r3, [r7, #0]
 8002d68:	2b00      	cmp	r3, #0
 8002d6a:	d109      	bne.n	8002d80 <HAL_TIM_PWM_Start+0x24>
 8002d6c:	687b      	ldr	r3, [r7, #4]
 8002d6e:	f893 303e 	ldrb.w	r3, [r3, #62]	; 0x3e
 8002d72:	b2db      	uxtb	r3, r3
 8002d74:	2b01      	cmp	r3, #1
 8002d76:	bf14      	ite	ne
 8002d78:	2301      	movne	r3, #1
 8002d7a:	2300      	moveq	r3, #0
 8002d7c:	b2db      	uxtb	r3, r3
 8002d7e:	e022      	b.n	8002dc6 <HAL_TIM_PWM_Start+0x6a>
 8002d80:	683b      	ldr	r3, [r7, #0]
 8002d82:	2b04      	cmp	r3, #4
 8002d84:	d109      	bne.n	8002d9a <HAL_TIM_PWM_Start+0x3e>
 8002d86:	687b      	ldr	r3, [r7, #4]
 8002d88:	f893 303f 	ldrb.w	r3, [r3, #63]	; 0x3f
 8002d8c:	b2db      	uxtb	r3, r3
 8002d8e:	2b01      	cmp	r3, #1
 8002d90:	bf14      	ite	ne
 8002d92:	2301      	movne	r3, #1
 8002d94:	2300      	moveq	r3, #0
 8002d96:	b2db      	uxtb	r3, r3
 8002d98:	e015      	b.n	8002dc6 <HAL_TIM_PWM_Start+0x6a>
 8002d9a:	683b      	ldr	r3, [r7, #0]
 8002d9c:	2b08      	cmp	r3, #8
 8002d9e:	d109      	bne.n	8002db4 <HAL_TIM_PWM_Start+0x58>
 8002da0:	687b      	ldr	r3, [r7, #4]
 8002da2:	f893 3040 	ldrb.w	r3, [r3, #64]	; 0x40
 8002da6:	b2db      	uxtb	r3, r3
 8002da8:	2b01      	cmp	r3, #1
 8002daa:	bf14      	ite	ne
 8002dac:	2301      	movne	r3, #1
 8002dae:	2300      	moveq	r3, #0
 8002db0:	b2db      	uxtb	r3, r3
 8002db2:	e008      	b.n	8002dc6 <HAL_TIM_PWM_Start+0x6a>
 8002db4:	687b      	ldr	r3, [r7, #4]
 8002db6:	f893 3041 	ldrb.w	r3, [r3, #65]	; 0x41
 8002dba:	b2db      	uxtb	r3, r3
 8002dbc:	2b01      	cmp	r3, #1
 8002dbe:	bf14      	ite	ne
 8002dc0:	2301      	movne	r3, #1
 8002dc2:	2300      	moveq	r3, #0
 8002dc4:	b2db      	uxtb	r3, r3
 8002dc6:	2b00      	cmp	r3, #0
 8002dc8:	d001      	beq.n	8002dce <HAL_TIM_PWM_Start+0x72>
  {
    return HAL_ERROR;
 8002dca:	2301      	movs	r3, #1
 8002dcc:	e07c      	b.n	8002ec8 <HAL_TIM_PWM_Start+0x16c>
  }

  /* Set the TIM channel state */
  TIM_CHANNEL_STATE_SET(htim, Channel, HAL_TIM_CHANNEL_STATE_BUSY);
 8002dce:	683b      	ldr	r3, [r7, #0]
 8002dd0:	2b00      	cmp	r3, #0
 8002dd2:	d104      	bne.n	8002dde <HAL_TIM_PWM_Start+0x82>
 8002dd4:	687b      	ldr	r3, [r7, #4]
 8002dd6:	2202      	movs	r2, #2
 8002dd8:	f883 203e 	strb.w	r2, [r3, #62]	; 0x3e
 8002ddc:	e013      	b.n	8002e06 <HAL_TIM_PWM_Start+0xaa>
 8002dde:	683b      	ldr	r3, [r7, #0]
 8002de0:	2b04      	cmp	r3, #4
 8002de2:	d104      	bne.n	8002dee <HAL_TIM_PWM_Start+0x92>
 8002de4:	687b      	ldr	r3, [r7, #4]
 8002de6:	2202      	movs	r2, #2
 8002de8:	f883 203f 	strb.w	r2, [r3, #63]	; 0x3f
 8002dec:	e00b      	b.n	8002e06 <HAL_TIM_PWM_Start+0xaa>
 8002dee:	683b      	ldr	r3, [r7, #0]
 8002df0:	2b08      	cmp	r3, #8
 8002df2:	d104      	bne.n	8002dfe <HAL_TIM_PWM_Start+0xa2>
 8002df4:	687b      	ldr	r3, [r7, #4]
 8002df6:	2202      	movs	r2, #2
 8002df8:	f883 2040 	strb.w	r2, [r3, #64]	; 0x40
 8002dfc:	e003      	b.n	8002e06 <HAL_TIM_PWM_Start+0xaa>
 8002dfe:	687b      	ldr	r3, [r7, #4]
 8002e00:	2202      	movs	r2, #2
 8002e02:	f883 2041 	strb.w	r2, [r3, #65]	; 0x41

  /* Enable the Capture compare channel */
  TIM_CCxChannelCmd(htim->Instance, Channel, TIM_CCx_ENABLE);
 8002e06:	687b      	ldr	r3, [r7, #4]
 8002e08:	681b      	ldr	r3, [r3, #0]
 8002e0a:	2201      	movs	r2, #1
 8002e0c:	6839      	ldr	r1, [r7, #0]
 8002e0e:	4618      	mov	r0, r3
 8002e10:	f000 ff20 	bl	8003c54 <TIM_CCxChannelCmd>

  if (IS_TIM_BREAK_INSTANCE(htim->Instance) != RESET)
 8002e14:	687b      	ldr	r3, [r7, #4]
 8002e16:	681b      	ldr	r3, [r3, #0]
 8002e18:	4a2d      	ldr	r2, [pc, #180]	; (8002ed0 <HAL_TIM_PWM_Start+0x174>)
 8002e1a:	4293      	cmp	r3, r2
 8002e1c:	d004      	beq.n	8002e28 <HAL_TIM_PWM_Start+0xcc>
 8002e1e:	687b      	ldr	r3, [r7, #4]
 8002e20:	681b      	ldr	r3, [r3, #0]
 8002e22:	4a2c      	ldr	r2, [pc, #176]	; (8002ed4 <HAL_TIM_PWM_Start+0x178>)
 8002e24:	4293      	cmp	r3, r2
 8002e26:	d101      	bne.n	8002e2c <HAL_TIM_PWM_Start+0xd0>
 8002e28:	2301      	movs	r3, #1
 8002e2a:	e000      	b.n	8002e2e <HAL_TIM_PWM_Start+0xd2>
 8002e2c:	2300      	movs	r3, #0
 8002e2e:	2b00      	cmp	r3, #0
 8002e30:	d007      	beq.n	8002e42 <HAL_TIM_PWM_Start+0xe6>
  {
    /* Enable the main output */
    __HAL_TIM_MOE_ENABLE(htim);
 8002e32:	687b      	ldr	r3, [r7, #4]
 8002e34:	681b      	ldr	r3, [r3, #0]
 8002e36:	6c5a      	ldr	r2, [r3, #68]	; 0x44
 8002e38:	687b      	ldr	r3, [r7, #4]
 8002e3a:	681b      	ldr	r3, [r3, #0]
 8002e3c:	f442 4200 	orr.w	r2, r2, #32768	; 0x8000
 8002e40:	645a      	str	r2, [r3, #68]	; 0x44
  }

  /* Enable the Peripheral, except in trigger mode where enable is automatically done with trigger */
  if (IS_TIM_SLAVE_INSTANCE(htim->Instance))
 8002e42:	687b      	ldr	r3, [r7, #4]
 8002e44:	681b      	ldr	r3, [r3, #0]
 8002e46:	4a22      	ldr	r2, [pc, #136]	; (8002ed0 <HAL_TIM_PWM_Start+0x174>)
 8002e48:	4293      	cmp	r3, r2
 8002e4a:	d022      	beq.n	8002e92 <HAL_TIM_PWM_Start+0x136>
 8002e4c:	687b      	ldr	r3, [r7, #4]
 8002e4e:	681b      	ldr	r3, [r3, #0]
 8002e50:	f1b3 4f80 	cmp.w	r3, #1073741824	; 0x40000000
 8002e54:	d01d      	beq.n	8002e92 <HAL_TIM_PWM_Start+0x136>
 8002e56:	687b      	ldr	r3, [r7, #4]
 8002e58:	681b      	ldr	r3, [r3, #0]
 8002e5a:	4a1f      	ldr	r2, [pc, #124]	; (8002ed8 <HAL_TIM_PWM_Start+0x17c>)
 8002e5c:	4293      	cmp	r3, r2
 8002e5e:	d018      	beq.n	8002e92 <HAL_TIM_PWM_Start+0x136>
 8002e60:	687b      	ldr	r3, [r7, #4]
 8002e62:	681b      	ldr	r3, [r3, #0]
 8002e64:	4a1d      	ldr	r2, [pc, #116]	; (8002edc <HAL_TIM_PWM_Start+0x180>)
 8002e66:	4293      	cmp	r3, r2
 8002e68:	d013      	beq.n	8002e92 <HAL_TIM_PWM_Start+0x136>
 8002e6a:	687b      	ldr	r3, [r7, #4]
 8002e6c:	681b      	ldr	r3, [r3, #0]
 8002e6e:	4a1c      	ldr	r2, [pc, #112]	; (8002ee0 <HAL_TIM_PWM_Start+0x184>)
 8002e70:	4293      	cmp	r3, r2
 8002e72:	d00e      	beq.n	8002e92 <HAL_TIM_PWM_Start+0x136>
 8002e74:	687b      	ldr	r3, [r7, #4]
 8002e76:	681b      	ldr	r3, [r3, #0]
 8002e78:	4a16      	ldr	r2, [pc, #88]	; (8002ed4 <HAL_TIM_PWM_Start+0x178>)
 8002e7a:	4293      	cmp	r3, r2
 8002e7c:	d009      	beq.n	8002e92 <HAL_TIM_PWM_Start+0x136>
 8002e7e:	687b      	ldr	r3, [r7, #4]
 8002e80:	681b      	ldr	r3, [r3, #0]
 8002e82:	4a18      	ldr	r2, [pc, #96]	; (8002ee4 <HAL_TIM_PWM_Start+0x188>)
 8002e84:	4293      	cmp	r3, r2
 8002e86:	d004      	beq.n	8002e92 <HAL_TIM_PWM_Start+0x136>
 8002e88:	687b      	ldr	r3, [r7, #4]
 8002e8a:	681b      	ldr	r3, [r3, #0]
 8002e8c:	4a16      	ldr	r2, [pc, #88]	; (8002ee8 <HAL_TIM_PWM_Start+0x18c>)
 8002e8e:	4293      	cmp	r3, r2
 8002e90:	d111      	bne.n	8002eb6 <HAL_TIM_PWM_Start+0x15a>
  {
    tmpsmcr = htim->Instance->SMCR & TIM_SMCR_SMS;
 8002e92:	687b      	ldr	r3, [r7, #4]
 8002e94:	681b      	ldr	r3, [r3, #0]
 8002e96:	689b      	ldr	r3, [r3, #8]
 8002e98:	f003 0307 	and.w	r3, r3, #7
 8002e9c:	60fb      	str	r3, [r7, #12]
    if (!IS_TIM_SLAVEMODE_TRIGGER_ENABLED(tmpsmcr))
 8002e9e:	68fb      	ldr	r3, [r7, #12]
 8002ea0:	2b06      	cmp	r3, #6
 8002ea2:	d010      	beq.n	8002ec6 <HAL_TIM_PWM_Start+0x16a>
    {
      __HAL_TIM_ENABLE(htim);
 8002ea4:	687b      	ldr	r3, [r7, #4]
 8002ea6:	681b      	ldr	r3, [r3, #0]
 8002ea8:	681a      	ldr	r2, [r3, #0]
 8002eaa:	687b      	ldr	r3, [r7, #4]
 8002eac:	681b      	ldr	r3, [r3, #0]
 8002eae:	f042 0201 	orr.w	r2, r2, #1
 8002eb2:	601a      	str	r2, [r3, #0]
    if (!IS_TIM_SLAVEMODE_TRIGGER_ENABLED(tmpsmcr))
 8002eb4:	e007      	b.n	8002ec6 <HAL_TIM_PWM_Start+0x16a>
    }
  }
  else
  {
    __HAL_TIM_ENABLE(htim);
 8002eb6:	687b      	ldr	r3, [r7, #4]
 8002eb8:	681b      	ldr	r3, [r3, #0]
 8002eba:	681a      	ldr	r2, [r3, #0]
 8002ebc:	687b      	ldr	r3, [r7, #4]
 8002ebe:	681b      	ldr	r3, [r3, #0]
 8002ec0:	f042 0201 	orr.w	r2, r2, #1
 8002ec4:	601a      	str	r2, [r3, #0]
  }

  /* Return function status */
  return HAL_OK;
 8002ec6:	2300      	movs	r3, #0
}
 8002ec8:	4618      	mov	r0, r3
 8002eca:	3710      	adds	r7, #16
 8002ecc:	46bd      	mov	sp, r7
 8002ece:	bd80      	pop	{r7, pc}
 8002ed0:	40010000 	.word	0x40010000
 8002ed4:	40010400 	.word	0x40010400
 8002ed8:	40000400 	.word	0x40000400
 8002edc:	40000800 	.word	0x40000800
 8002ee0:	40000c00 	.word	0x40000c00
 8002ee4:	40014000 	.word	0x40014000
 8002ee8:	40001800 	.word	0x40001800

08002eec <HAL_TIM_PWM_Start_IT>:
  *            @arg TIM_CHANNEL_3: TIM Channel 3 selected
  *            @arg TIM_CHANNEL_4: TIM Channel 4 selected
  * @retval HAL status
  */
HAL_StatusTypeDef HAL_TIM_PWM_Start_IT(TIM_HandleTypeDef *htim, uint32_t Channel)
{
 8002eec:	b580      	push	{r7, lr}
 8002eee:	b084      	sub	sp, #16
 8002ef0:	af00      	add	r7, sp, #0
 8002ef2:	6078      	str	r0, [r7, #4]
 8002ef4:	6039      	str	r1, [r7, #0]
  uint32_t tmpsmcr;
  /* Check the parameters */
  assert_param(IS_TIM_CCX_INSTANCE(htim->Instance, Channel));

  /* Check the TIM channel state */
  if (TIM_CHANNEL_STATE_GET(htim, Channel) != HAL_TIM_CHANNEL_STATE_READY)
 8002ef6:	683b      	ldr	r3, [r7, #0]
 8002ef8:	2b00      	cmp	r3, #0
 8002efa:	d109      	bne.n	8002f10 <HAL_TIM_PWM_Start_IT+0x24>
 8002efc:	687b      	ldr	r3, [r7, #4]
 8002efe:	f893 303e 	ldrb.w	r3, [r3, #62]	; 0x3e
 8002f02:	b2db      	uxtb	r3, r3
 8002f04:	2b01      	cmp	r3, #1
 8002f06:	bf14      	ite	ne
 8002f08:	2301      	movne	r3, #1
 8002f0a:	2300      	moveq	r3, #0
 8002f0c:	b2db      	uxtb	r3, r3
 8002f0e:	e022      	b.n	8002f56 <HAL_TIM_PWM_Start_IT+0x6a>
 8002f10:	683b      	ldr	r3, [r7, #0]
 8002f12:	2b04      	cmp	r3, #4
 8002f14:	d109      	bne.n	8002f2a <HAL_TIM_PWM_Start_IT+0x3e>
 8002f16:	687b      	ldr	r3, [r7, #4]
 8002f18:	f893 303f 	ldrb.w	r3, [r3, #63]	; 0x3f
 8002f1c:	b2db      	uxtb	r3, r3
 8002f1e:	2b01      	cmp	r3, #1
 8002f20:	bf14      	ite	ne
 8002f22:	2301      	movne	r3, #1
 8002f24:	2300      	moveq	r3, #0
 8002f26:	b2db      	uxtb	r3, r3
 8002f28:	e015      	b.n	8002f56 <HAL_TIM_PWM_Start_IT+0x6a>
 8002f2a:	683b      	ldr	r3, [r7, #0]
 8002f2c:	2b08      	cmp	r3, #8
 8002f2e:	d109      	bne.n	8002f44 <HAL_TIM_PWM_Start_IT+0x58>
 8002f30:	687b      	ldr	r3, [r7, #4]
 8002f32:	f893 3040 	ldrb.w	r3, [r3, #64]	; 0x40
 8002f36:	b2db      	uxtb	r3, r3
 8002f38:	2b01      	cmp	r3, #1
 8002f3a:	bf14      	ite	ne
 8002f3c:	2301      	movne	r3, #1
 8002f3e:	2300      	moveq	r3, #0
 8002f40:	b2db      	uxtb	r3, r3
 8002f42:	e008      	b.n	8002f56 <HAL_TIM_PWM_Start_IT+0x6a>
 8002f44:	687b      	ldr	r3, [r7, #4]
 8002f46:	f893 3041 	ldrb.w	r3, [r3, #65]	; 0x41
 8002f4a:	b2db      	uxtb	r3, r3
 8002f4c:	2b01      	cmp	r3, #1
 8002f4e:	bf14      	ite	ne
 8002f50:	2301      	movne	r3, #1
 8002f52:	2300      	moveq	r3, #0
 8002f54:	b2db      	uxtb	r3, r3
 8002f56:	2b00      	cmp	r3, #0
 8002f58:	d001      	beq.n	8002f5e <HAL_TIM_PWM_Start_IT+0x72>
  {
    return HAL_ERROR;
 8002f5a:	2301      	movs	r3, #1
 8002f5c:	e0c2      	b.n	80030e4 <HAL_TIM_PWM_Start_IT+0x1f8>
  }

  /* Set the TIM channel state */
  TIM_CHANNEL_STATE_SET(htim, Channel, HAL_TIM_CHANNEL_STATE_BUSY);
 8002f5e:	683b      	ldr	r3, [r7, #0]
 8002f60:	2b00      	cmp	r3, #0
 8002f62:	d104      	bne.n	8002f6e <HAL_TIM_PWM_Start_IT+0x82>
 8002f64:	687b      	ldr	r3, [r7, #4]
 8002f66:	2202      	movs	r2, #2
 8002f68:	f883 203e 	strb.w	r2, [r3, #62]	; 0x3e
 8002f6c:	e013      	b.n	8002f96 <HAL_TIM_PWM_Start_IT+0xaa>
 8002f6e:	683b      	ldr	r3, [r7, #0]
 8002f70:	2b04      	cmp	r3, #4
 8002f72:	d104      	bne.n	8002f7e <HAL_TIM_PWM_Start_IT+0x92>
 8002f74:	687b      	ldr	r3, [r7, #4]
 8002f76:	2202      	movs	r2, #2
 8002f78:	f883 203f 	strb.w	r2, [r3, #63]	; 0x3f
 8002f7c:	e00b      	b.n	8002f96 <HAL_TIM_PWM_Start_IT+0xaa>
 8002f7e:	683b      	ldr	r3, [r7, #0]
 8002f80:	2b08      	cmp	r3, #8
 8002f82:	d104      	bne.n	8002f8e <HAL_TIM_PWM_Start_IT+0xa2>
 8002f84:	687b      	ldr	r3, [r7, #4]
 8002f86:	2202      	movs	r2, #2
 8002f88:	f883 2040 	strb.w	r2, [r3, #64]	; 0x40
 8002f8c:	e003      	b.n	8002f96 <HAL_TIM_PWM_Start_IT+0xaa>
 8002f8e:	687b      	ldr	r3, [r7, #4]
 8002f90:	2202      	movs	r2, #2
 8002f92:	f883 2041 	strb.w	r2, [r3, #65]	; 0x41
 8002f96:	683b      	ldr	r3, [r7, #0]
 8002f98:	2b0c      	cmp	r3, #12
 8002f9a:	d841      	bhi.n	8003020 <HAL_TIM_PWM_Start_IT+0x134>
 8002f9c:	a201      	add	r2, pc, #4	; (adr r2, 8002fa4 <HAL_TIM_PWM_Start_IT+0xb8>)
 8002f9e:	f852 f023 	ldr.w	pc, [r2, r3, lsl #2]
 8002fa2:	bf00      	nop
 8002fa4:	08002fd9 	.word	0x08002fd9
 8002fa8:	08003021 	.word	0x08003021
 8002fac:	08003021 	.word	0x08003021
 8002fb0:	08003021 	.word	0x08003021
 8002fb4:	08002feb 	.word	0x08002feb
 8002fb8:	08003021 	.word	0x08003021
 8002fbc:	08003021 	.word	0x08003021
 8002fc0:	08003021 	.word	0x08003021
 8002fc4:	08002ffd 	.word	0x08002ffd
 8002fc8:	08003021 	.word	0x08003021
 8002fcc:	08003021 	.word	0x08003021
 8002fd0:	08003021 	.word	0x08003021
 8002fd4:	0800300f 	.word	0x0800300f
  switch (Channel)
  {
    case TIM_CHANNEL_1:
    {
      /* Enable the TIM Capture/Compare 1 interrupt */
      __HAL_TIM_ENABLE_IT(htim, TIM_IT_CC1);
 8002fd8:	687b      	ldr	r3, [r7, #4]
 8002fda:	681b      	ldr	r3, [r3, #0]
 8002fdc:	68da      	ldr	r2, [r3, #12]
 8002fde:	687b      	ldr	r3, [r7, #4]
 8002fe0:	681b      	ldr	r3, [r3, #0]
 8002fe2:	f042 0202 	orr.w	r2, r2, #2
 8002fe6:	60da      	str	r2, [r3, #12]
      break;
 8002fe8:	e01b      	b.n	8003022 <HAL_TIM_PWM_Start_IT+0x136>
    }

    case TIM_CHANNEL_2:
    {
      /* Enable the TIM Capture/Compare 2 interrupt */
      __HAL_TIM_ENABLE_IT(htim, TIM_IT_CC2);
 8002fea:	687b      	ldr	r3, [r7, #4]
 8002fec:	681b      	ldr	r3, [r3, #0]
 8002fee:	68da      	ldr	r2, [r3, #12]
 8002ff0:	687b      	ldr	r3, [r7, #4]
 8002ff2:	681b      	ldr	r3, [r3, #0]
 8002ff4:	f042 0204 	orr.w	r2, r2, #4
 8002ff8:	60da      	str	r2, [r3, #12]
      break;
 8002ffa:	e012      	b.n	8003022 <HAL_TIM_PWM_Start_IT+0x136>
    }

    case TIM_CHANNEL_3:
    {
      /* Enable the TIM Capture/Compare 3 interrupt */
      __HAL_TIM_ENABLE_IT(htim, TIM_IT_CC3);
 8002ffc:	687b      	ldr	r3, [r7, #4]
 8002ffe:	681b      	ldr	r3, [r3, #0]
 8003000:	68da      	ldr	r2, [r3, #12]
 8003002:	687b      	ldr	r3, [r7, #4]
 8003004:	681b      	ldr	r3, [r3, #0]
 8003006:	f042 0208 	orr.w	r2, r2, #8
 800300a:	60da      	str	r2, [r3, #12]
      break;
 800300c:	e009      	b.n	8003022 <HAL_TIM_PWM_Start_IT+0x136>
    }

    case TIM_CHANNEL_4:
    {
      /* Enable the TIM Capture/Compare 4 interrupt */
      __HAL_TIM_ENABLE_IT(htim, TIM_IT_CC4);
 800300e:	687b      	ldr	r3, [r7, #4]
 8003010:	681b      	ldr	r3, [r3, #0]
 8003012:	68da      	ldr	r2, [r3, #12]
 8003014:	687b      	ldr	r3, [r7, #4]
 8003016:	681b      	ldr	r3, [r3, #0]
 8003018:	f042 0210 	orr.w	r2, r2, #16
 800301c:	60da      	str	r2, [r3, #12]
      break;
 800301e:	e000      	b.n	8003022 <HAL_TIM_PWM_Start_IT+0x136>
    }

    default:
      break;
 8003020:	bf00      	nop
  }

  /* Enable the Capture compare channel */
  TIM_CCxChannelCmd(htim->Instance, Channel, TIM_CCx_ENABLE);
 8003022:	687b      	ldr	r3, [r7, #4]
 8003024:	681b      	ldr	r3, [r3, #0]
 8003026:	2201      	movs	r2, #1
 8003028:	6839      	ldr	r1, [r7, #0]
 800302a:	4618      	mov	r0, r3
 800302c:	f000 fe12 	bl	8003c54 <TIM_CCxChannelCmd>

  if (IS_TIM_BREAK_INSTANCE(htim->Instance) != RESET)
 8003030:	687b      	ldr	r3, [r7, #4]
 8003032:	681b      	ldr	r3, [r3, #0]
 8003034:	4a2d      	ldr	r2, [pc, #180]	; (80030ec <HAL_TIM_PWM_Start_IT+0x200>)
 8003036:	4293      	cmp	r3, r2
 8003038:	d004      	beq.n	8003044 <HAL_TIM_PWM_Start_IT+0x158>
 800303a:	687b      	ldr	r3, [r7, #4]
 800303c:	681b      	ldr	r3, [r3, #0]
 800303e:	4a2c      	ldr	r2, [pc, #176]	; (80030f0 <HAL_TIM_PWM_Start_IT+0x204>)
 8003040:	4293      	cmp	r3, r2
 8003042:	d101      	bne.n	8003048 <HAL_TIM_PWM_Start_IT+0x15c>
 8003044:	2301      	movs	r3, #1
 8003046:	e000      	b.n	800304a <HAL_TIM_PWM_Start_IT+0x15e>
 8003048:	2300      	movs	r3, #0
 800304a:	2b00      	cmp	r3, #0
 800304c:	d007      	beq.n	800305e <HAL_TIM_PWM_Start_IT+0x172>
  {
    /* Enable the main output */
    __HAL_TIM_MOE_ENABLE(htim);
 800304e:	687b      	ldr	r3, [r7, #4]
 8003050:	681b      	ldr	r3, [r3, #0]
 8003052:	6c5a      	ldr	r2, [r3, #68]	; 0x44
 8003054:	687b      	ldr	r3, [r7, #4]
 8003056:	681b      	ldr	r3, [r3, #0]
 8003058:	f442 4200 	orr.w	r2, r2, #32768	; 0x8000
 800305c:	645a      	str	r2, [r3, #68]	; 0x44
  }

  /* Enable the Peripheral, except in trigger mode where enable is automatically done with trigger */
  if (IS_TIM_SLAVE_INSTANCE(htim->Instance))
 800305e:	687b      	ldr	r3, [r7, #4]
 8003060:	681b      	ldr	r3, [r3, #0]
 8003062:	4a22      	ldr	r2, [pc, #136]	; (80030ec <HAL_TIM_PWM_Start_IT+0x200>)
 8003064:	4293      	cmp	r3, r2
 8003066:	d022      	beq.n	80030ae <HAL_TIM_PWM_Start_IT+0x1c2>
 8003068:	687b      	ldr	r3, [r7, #4]
 800306a:	681b      	ldr	r3, [r3, #0]
 800306c:	f1b3 4f80 	cmp.w	r3, #1073741824	; 0x40000000
 8003070:	d01d      	beq.n	80030ae <HAL_TIM_PWM_Start_IT+0x1c2>
 8003072:	687b      	ldr	r3, [r7, #4]
 8003074:	681b      	ldr	r3, [r3, #0]
 8003076:	4a1f      	ldr	r2, [pc, #124]	; (80030f4 <HAL_TIM_PWM_Start_IT+0x208>)
 8003078:	4293      	cmp	r3, r2
 800307a:	d018      	beq.n	80030ae <HAL_TIM_PWM_Start_IT+0x1c2>
 800307c:	687b      	ldr	r3, [r7, #4]
 800307e:	681b      	ldr	r3, [r3, #0]
 8003080:	4a1d      	ldr	r2, [pc, #116]	; (80030f8 <HAL_TIM_PWM_Start_IT+0x20c>)
 8003082:	4293      	cmp	r3, r2
 8003084:	d013      	beq.n	80030ae <HAL_TIM_PWM_Start_IT+0x1c2>
 8003086:	687b      	ldr	r3, [r7, #4]
 8003088:	681b      	ldr	r3, [r3, #0]
 800308a:	4a1c      	ldr	r2, [pc, #112]	; (80030fc <HAL_TIM_PWM_Start_IT+0x210>)
 800308c:	4293      	cmp	r3, r2
 800308e:	d00e      	beq.n	80030ae <HAL_TIM_PWM_Start_IT+0x1c2>
 8003090:	687b      	ldr	r3, [r7, #4]
 8003092:	681b      	ldr	r3, [r3, #0]
 8003094:	4a16      	ldr	r2, [pc, #88]	; (80030f0 <HAL_TIM_PWM_Start_IT+0x204>)
 8003096:	4293      	cmp	r3, r2
 8003098:	d009      	beq.n	80030ae <HAL_TIM_PWM_Start_IT+0x1c2>
 800309a:	687b      	ldr	r3, [r7, #4]
 800309c:	681b      	ldr	r3, [r3, #0]
 800309e:	4a18      	ldr	r2, [pc, #96]	; (8003100 <HAL_TIM_PWM_Start_IT+0x214>)
 80030a0:	4293      	cmp	r3, r2
 80030a2:	d004      	beq.n	80030ae <HAL_TIM_PWM_Start_IT+0x1c2>
 80030a4:	687b      	ldr	r3, [r7, #4]
 80030a6:	681b      	ldr	r3, [r3, #0]
 80030a8:	4a16      	ldr	r2, [pc, #88]	; (8003104 <HAL_TIM_PWM_Start_IT+0x218>)
 80030aa:	4293      	cmp	r3, r2
 80030ac:	d111      	bne.n	80030d2 <HAL_TIM_PWM_Start_IT+0x1e6>
  {
    tmpsmcr = htim->Instance->SMCR & TIM_SMCR_SMS;
 80030ae:	687b      	ldr	r3, [r7, #4]
 80030b0:	681b      	ldr	r3, [r3, #0]
 80030b2:	689b      	ldr	r3, [r3, #8]
 80030b4:	f003 0307 	and.w	r3, r3, #7
 80030b8:	60fb      	str	r3, [r7, #12]
    if (!IS_TIM_SLAVEMODE_TRIGGER_ENABLED(tmpsmcr))
 80030ba:	68fb      	ldr	r3, [r7, #12]
 80030bc:	2b06      	cmp	r3, #6
 80030be:	d010      	beq.n	80030e2 <HAL_TIM_PWM_Start_IT+0x1f6>
    {
      __HAL_TIM_ENABLE(htim);
 80030c0:	687b      	ldr	r3, [r7, #4]
 80030c2:	681b      	ldr	r3, [r3, #0]
 80030c4:	681a      	ldr	r2, [r3, #0]
 80030c6:	687b      	ldr	r3, [r7, #4]
 80030c8:	681b      	ldr	r3, [r3, #0]
 80030ca:	f042 0201 	orr.w	r2, r2, #1
 80030ce:	601a      	str	r2, [r3, #0]
    if (!IS_TIM_SLAVEMODE_TRIGGER_ENABLED(tmpsmcr))
 80030d0:	e007      	b.n	80030e2 <HAL_TIM_PWM_Start_IT+0x1f6>
    }
  }
  else
  {
    __HAL_TIM_ENABLE(htim);
 80030d2:	687b      	ldr	r3, [r7, #4]
 80030d4:	681b      	ldr	r3, [r3, #0]
 80030d6:	681a      	ldr	r2, [r3, #0]
 80030d8:	687b      	ldr	r3, [r7, #4]
 80030da:	681b      	ldr	r3, [r3, #0]
 80030dc:	f042 0201 	orr.w	r2, r2, #1
 80030e0:	601a      	str	r2, [r3, #0]
  }

  /* Return function status */
  return HAL_OK;
 80030e2:	2300      	movs	r3, #0
}
 80030e4:	4618      	mov	r0, r3
 80030e6:	3710      	adds	r7, #16
 80030e8:	46bd      	mov	sp, r7
 80030ea:	bd80      	pop	{r7, pc}
 80030ec:	40010000 	.word	0x40010000
 80030f0:	40010400 	.word	0x40010400
 80030f4:	40000400 	.word	0x40000400
 80030f8:	40000800 	.word	0x40000800
 80030fc:	40000c00 	.word	0x40000c00
 8003100:	40014000 	.word	0x40014000
 8003104:	40001800 	.word	0x40001800

08003108 <HAL_TIM_IRQHandler>:
  * @brief  This function handles TIM interrupts requests.
  * @param  htim TIM  handle
  * @retval None
  */
void HAL_TIM_IRQHandler(TIM_HandleTypeDef *htim)
{
 8003108:	b580      	push	{r7, lr}
 800310a:	b082      	sub	sp, #8
 800310c:	af00      	add	r7, sp, #0
 800310e:	6078      	str	r0, [r7, #4]
  /* Capture compare 1 event */
  if (__HAL_TIM_GET_FLAG(htim, TIM_FLAG_CC1) != RESET)
 8003110:	687b      	ldr	r3, [r7, #4]
 8003112:	681b      	ldr	r3, [r3, #0]
 8003114:	691b      	ldr	r3, [r3, #16]
 8003116:	f003 0302 	and.w	r3, r3, #2
 800311a:	2b02      	cmp	r3, #2
 800311c:	d122      	bne.n	8003164 <HAL_TIM_IRQHandler+0x5c>
  {
    if (__HAL_TIM_GET_IT_SOURCE(htim, TIM_IT_CC1) != RESET)
 800311e:	687b      	ldr	r3, [r7, #4]
 8003120:	681b      	ldr	r3, [r3, #0]
 8003122:	68db      	ldr	r3, [r3, #12]
 8003124:	f003 0302 	and.w	r3, r3, #2
 8003128:	2b02      	cmp	r3, #2
 800312a:	d11b      	bne.n	8003164 <HAL_TIM_IRQHandler+0x5c>
    {
      {
        __HAL_TIM_CLEAR_IT(htim, TIM_IT_CC1);
 800312c:	687b      	ldr	r3, [r7, #4]
 800312e:	681b      	ldr	r3, [r3, #0]
 8003130:	f06f 0202 	mvn.w	r2, #2
 8003134:	611a      	str	r2, [r3, #16]
        htim->Channel = HAL_TIM_ACTIVE_CHANNEL_1;
 8003136:	687b      	ldr	r3, [r7, #4]
 8003138:	2201      	movs	r2, #1
 800313a:	771a      	strb	r2, [r3, #28]

        /* Input capture event */
        if ((htim->Instance->CCMR1 & TIM_CCMR1_CC1S) != 0x00U)
 800313c:	687b      	ldr	r3, [r7, #4]
 800313e:	681b      	ldr	r3, [r3, #0]
 8003140:	699b      	ldr	r3, [r3, #24]
 8003142:	f003 0303 	and.w	r3, r3, #3
 8003146:	2b00      	cmp	r3, #0
 8003148:	d003      	beq.n	8003152 <HAL_TIM_IRQHandler+0x4a>
        {
#if (USE_HAL_TIM_REGISTER_CALLBACKS == 1)
          htim->IC_CaptureCallback(htim);
#else
          HAL_TIM_IC_CaptureCallback(htim);
 800314a:	6878      	ldr	r0, [r7, #4]
 800314c:	f000 fa7a 	bl	8003644 <HAL_TIM_IC_CaptureCallback>
 8003150:	e005      	b.n	800315e <HAL_TIM_IRQHandler+0x56>
        {
#if (USE_HAL_TIM_REGISTER_CALLBACKS == 1)
          htim->OC_DelayElapsedCallback(htim);
          htim->PWM_PulseFinishedCallback(htim);
#else
          HAL_TIM_OC_DelayElapsedCallback(htim);
 8003152:	6878      	ldr	r0, [r7, #4]
 8003154:	f000 fa6c 	bl	8003630 <HAL_TIM_OC_DelayElapsedCallback>
          HAL_TIM_PWM_PulseFinishedCallback(htim);
 8003158:	6878      	ldr	r0, [r7, #4]
 800315a:	f000 fa7d 	bl	8003658 <HAL_TIM_PWM_PulseFinishedCallback>
#endif /* USE_HAL_TIM_REGISTER_CALLBACKS */
        }
        htim->Channel = HAL_TIM_ACTIVE_CHANNEL_CLEARED;
 800315e:	687b      	ldr	r3, [r7, #4]
 8003160:	2200      	movs	r2, #0
 8003162:	771a      	strb	r2, [r3, #28]
      }
    }
  }
  /* Capture compare 2 event */
  if (__HAL_TIM_GET_FLAG(htim, TIM_FLAG_CC2) != RESET)
 8003164:	687b      	ldr	r3, [r7, #4]
 8003166:	681b      	ldr	r3, [r3, #0]
 8003168:	691b      	ldr	r3, [r3, #16]
 800316a:	f003 0304 	and.w	r3, r3, #4
 800316e:	2b04      	cmp	r3, #4
 8003170:	d122      	bne.n	80031b8 <HAL_TIM_IRQHandler+0xb0>
  {
    if (__HAL_TIM_GET_IT_SOURCE(htim, TIM_IT_CC2) != RESET)
 8003172:	687b      	ldr	r3, [r7, #4]
 8003174:	681b      	ldr	r3, [r3, #0]
 8003176:	68db      	ldr	r3, [r3, #12]
 8003178:	f003 0304 	and.w	r3, r3, #4
 800317c:	2b04      	cmp	r3, #4
 800317e:	d11b      	bne.n	80031b8 <HAL_TIM_IRQHandler+0xb0>
    {
      __HAL_TIM_CLEAR_IT(htim, TIM_IT_CC2);
 8003180:	687b      	ldr	r3, [r7, #4]
 8003182:	681b      	ldr	r3, [r3, #0]
 8003184:	f06f 0204 	mvn.w	r2, #4
 8003188:	611a      	str	r2, [r3, #16]
      htim->Channel = HAL_TIM_ACTIVE_CHANNEL_2;
 800318a:	687b      	ldr	r3, [r7, #4]
 800318c:	2202      	movs	r2, #2
 800318e:	771a      	strb	r2, [r3, #28]
      /* Input capture event */
      if ((htim->Instance->CCMR1 & TIM_CCMR1_CC2S) != 0x00U)
 8003190:	687b      	ldr	r3, [r7, #4]
 8003192:	681b      	ldr	r3, [r3, #0]
 8003194:	699b      	ldr	r3, [r3, #24]
 8003196:	f403 7340 	and.w	r3, r3, #768	; 0x300
 800319a:	2b00      	cmp	r3, #0
 800319c:	d003      	beq.n	80031a6 <HAL_TIM_IRQHandler+0x9e>
      {
#if (USE_HAL_TIM_REGISTER_CALLBACKS == 1)
        htim->IC_CaptureCallback(htim);
#else
        HAL_TIM_IC_CaptureCallback(htim);
 800319e:	6878      	ldr	r0, [r7, #4]
 80031a0:	f000 fa50 	bl	8003644 <HAL_TIM_IC_CaptureCallback>
 80031a4:	e005      	b.n	80031b2 <HAL_TIM_IRQHandler+0xaa>
      {
#if (USE_HAL_TIM_REGISTER_CALLBACKS == 1)
        htim->OC_DelayElapsedCallback(htim);
        htim->PWM_PulseFinishedCallback(htim);
#else
        HAL_TIM_OC_DelayElapsedCallback(htim);
 80031a6:	6878      	ldr	r0, [r7, #4]
 80031a8:	f000 fa42 	bl	8003630 <HAL_TIM_OC_DelayElapsedCallback>
        HAL_TIM_PWM_PulseFinishedCallback(htim);
 80031ac:	6878      	ldr	r0, [r7, #4]
 80031ae:	f000 fa53 	bl	8003658 <HAL_TIM_PWM_PulseFinishedCallback>
#endif /* USE_HAL_TIM_REGISTER_CALLBACKS */
      }
      htim->Channel = HAL_TIM_ACTIVE_CHANNEL_CLEARED;
 80031b2:	687b      	ldr	r3, [r7, #4]
 80031b4:	2200      	movs	r2, #0
 80031b6:	771a      	strb	r2, [r3, #28]
    }
  }
  /* Capture compare 3 event */
  if (__HAL_TIM_GET_FLAG(htim, TIM_FLAG_CC3) != RESET)
 80031b8:	687b      	ldr	r3, [r7, #4]
 80031ba:	681b      	ldr	r3, [r3, #0]
 80031bc:	691b      	ldr	r3, [r3, #16]
 80031be:	f003 0308 	and.w	r3, r3, #8
 80031c2:	2b08      	cmp	r3, #8
 80031c4:	d122      	bne.n	800320c <HAL_TIM_IRQHandler+0x104>
  {
    if (__HAL_TIM_GET_IT_SOURCE(htim, TIM_IT_CC3) != RESET)
 80031c6:	687b      	ldr	r3, [r7, #4]
 80031c8:	681b      	ldr	r3, [r3, #0]
 80031ca:	68db      	ldr	r3, [r3, #12]
 80031cc:	f003 0308 	and.w	r3, r3, #8
 80031d0:	2b08      	cmp	r3, #8
 80031d2:	d11b      	bne.n	800320c <HAL_TIM_IRQHandler+0x104>
    {
      __HAL_TIM_CLEAR_IT(htim, TIM_IT_CC3);
 80031d4:	687b      	ldr	r3, [r7, #4]
 80031d6:	681b      	ldr	r3, [r3, #0]
 80031d8:	f06f 0208 	mvn.w	r2, #8
 80031dc:	611a      	str	r2, [r3, #16]
      htim->Channel = HAL_TIM_ACTIVE_CHANNEL_3;
 80031de:	687b      	ldr	r3, [r7, #4]
 80031e0:	2204      	movs	r2, #4
 80031e2:	771a      	strb	r2, [r3, #28]
      /* Input capture event */
      if ((htim->Instance->CCMR2 & TIM_CCMR2_CC3S) != 0x00U)
 80031e4:	687b      	ldr	r3, [r7, #4]
 80031e6:	681b      	ldr	r3, [r3, #0]
 80031e8:	69db      	ldr	r3, [r3, #28]
 80031ea:	f003 0303 	and.w	r3, r3, #3
 80031ee:	2b00      	cmp	r3, #0
 80031f0:	d003      	beq.n	80031fa <HAL_TIM_IRQHandler+0xf2>
      {
#if (USE_HAL_TIM_REGISTER_CALLBACKS == 1)
        htim->IC_CaptureCallback(htim);
#else
        HAL_TIM_IC_CaptureCallback(htim);
 80031f2:	6878      	ldr	r0, [r7, #4]
 80031f4:	f000 fa26 	bl	8003644 <HAL_TIM_IC_CaptureCallback>
 80031f8:	e005      	b.n	8003206 <HAL_TIM_IRQHandler+0xfe>
      {
#if (USE_HAL_TIM_REGISTER_CALLBACKS == 1)
        htim->OC_DelayElapsedCallback(htim);
        htim->PWM_PulseFinishedCallback(htim);
#else
        HAL_TIM_OC_DelayElapsedCallback(htim);
 80031fa:	6878      	ldr	r0, [r7, #4]
 80031fc:	f000 fa18 	bl	8003630 <HAL_TIM_OC_DelayElapsedCallback>
        HAL_TIM_PWM_PulseFinishedCallback(htim);
 8003200:	6878      	ldr	r0, [r7, #4]
 8003202:	f000 fa29 	bl	8003658 <HAL_TIM_PWM_PulseFinishedCallback>
#endif /* USE_HAL_TIM_REGISTER_CALLBACKS */
      }
      htim->Channel = HAL_TIM_ACTIVE_CHANNEL_CLEARED;
 8003206:	687b      	ldr	r3, [r7, #4]
 8003208:	2200      	movs	r2, #0
 800320a:	771a      	strb	r2, [r3, #28]
    }
  }
  /* Capture compare 4 event */
  if (__HAL_TIM_GET_FLAG(htim, TIM_FLAG_CC4) != RESET)
 800320c:	687b      	ldr	r3, [r7, #4]
 800320e:	681b      	ldr	r3, [r3, #0]
 8003210:	691b      	ldr	r3, [r3, #16]
 8003212:	f003 0310 	and.w	r3, r3, #16
 8003216:	2b10      	cmp	r3, #16
 8003218:	d122      	bne.n	8003260 <HAL_TIM_IRQHandler+0x158>
  {
    if (__HAL_TIM_GET_IT_SOURCE(htim, TIM_IT_CC4) != RESET)
 800321a:	687b      	ldr	r3, [r7, #4]
 800321c:	681b      	ldr	r3, [r3, #0]
 800321e:	68db      	ldr	r3, [r3, #12]
 8003220:	f003 0310 	and.w	r3, r3, #16
 8003224:	2b10      	cmp	r3, #16
 8003226:	d11b      	bne.n	8003260 <HAL_TIM_IRQHandler+0x158>
    {
      __HAL_TIM_CLEAR_IT(htim, TIM_IT_CC4);
 8003228:	687b      	ldr	r3, [r7, #4]
 800322a:	681b      	ldr	r3, [r3, #0]
 800322c:	f06f 0210 	mvn.w	r2, #16
 8003230:	611a      	str	r2, [r3, #16]
      htim->Channel = HAL_TIM_ACTIVE_CHANNEL_4;
 8003232:	687b      	ldr	r3, [r7, #4]
 8003234:	2208      	movs	r2, #8
 8003236:	771a      	strb	r2, [r3, #28]
      /* Input capture event */
      if ((htim->Instance->CCMR2 & TIM_CCMR2_CC4S) != 0x00U)
 8003238:	687b      	ldr	r3, [r7, #4]
 800323a:	681b      	ldr	r3, [r3, #0]
 800323c:	69db      	ldr	r3, [r3, #28]
 800323e:	f403 7340 	and.w	r3, r3, #768	; 0x300
 8003242:	2b00      	cmp	r3, #0
 8003244:	d003      	beq.n	800324e <HAL_TIM_IRQHandler+0x146>
      {
#if (USE_HAL_TIM_REGISTER_CALLBACKS == 1)
        htim->IC_CaptureCallback(htim);
#else
        HAL_TIM_IC_CaptureCallback(htim);
 8003246:	6878      	ldr	r0, [r7, #4]
 8003248:	f000 f9fc 	bl	8003644 <HAL_TIM_IC_CaptureCallback>
 800324c:	e005      	b.n	800325a <HAL_TIM_IRQHandler+0x152>
      {
#if (USE_HAL_TIM_REGISTER_CALLBACKS == 1)
        htim->OC_DelayElapsedCallback(htim);
        htim->PWM_PulseFinishedCallback(htim);
#else
        HAL_TIM_OC_DelayElapsedCallback(htim);
 800324e:	6878      	ldr	r0, [r7, #4]
 8003250:	f000 f9ee 	bl	8003630 <HAL_TIM_OC_DelayElapsedCallback>
        HAL_TIM_PWM_PulseFinishedCallback(htim);
 8003254:	6878      	ldr	r0, [r7, #4]
 8003256:	f000 f9ff 	bl	8003658 <HAL_TIM_PWM_PulseFinishedCallback>
#endif /* USE_HAL_TIM_REGISTER_CALLBACKS */
      }
      htim->Channel = HAL_TIM_ACTIVE_CHANNEL_CLEARED;
 800325a:	687b      	ldr	r3, [r7, #4]
 800325c:	2200      	movs	r2, #0
 800325e:	771a      	strb	r2, [r3, #28]
    }
  }
  /* TIM Update event */
  if (__HAL_TIM_GET_FLAG(htim, TIM_FLAG_UPDATE) != RESET)
 8003260:	687b      	ldr	r3, [r7, #4]
 8003262:	681b      	ldr	r3, [r3, #0]
 8003264:	691b      	ldr	r3, [r3, #16]
 8003266:	f003 0301 	and.w	r3, r3, #1
 800326a:	2b01      	cmp	r3, #1
 800326c:	d10e      	bne.n	800328c <HAL_TIM_IRQHandler+0x184>
  {
    if (__HAL_TIM_GET_IT_SOURCE(htim, TIM_IT_UPDATE) != RESET)
 800326e:	687b      	ldr	r3, [r7, #4]
 8003270:	681b      	ldr	r3, [r3, #0]
 8003272:	68db      	ldr	r3, [r3, #12]
 8003274:	f003 0301 	and.w	r3, r3, #1
 8003278:	2b01      	cmp	r3, #1
 800327a:	d107      	bne.n	800328c <HAL_TIM_IRQHandler+0x184>
    {
      __HAL_TIM_CLEAR_IT(htim, TIM_IT_UPDATE);
 800327c:	687b      	ldr	r3, [r7, #4]
 800327e:	681b      	ldr	r3, [r3, #0]
 8003280:	f06f 0201 	mvn.w	r2, #1
 8003284:	611a      	str	r2, [r3, #16]
#if (USE_HAL_TIM_REGISTER_CALLBACKS == 1)
      htim->PeriodElapsedCallback(htim);
#else
      HAL_TIM_PeriodElapsedCallback(htim);
 8003286:	6878      	ldr	r0, [r7, #4]
 8003288:	f000 f9c8 	bl	800361c <HAL_TIM_PeriodElapsedCallback>
#endif /* USE_HAL_TIM_REGISTER_CALLBACKS */
    }
  }
  /* TIM Break input event */
  if (__HAL_TIM_GET_FLAG(htim, TIM_FLAG_BREAK) != RESET)
 800328c:	687b      	ldr	r3, [r7, #4]
 800328e:	681b      	ldr	r3, [r3, #0]
 8003290:	691b      	ldr	r3, [r3, #16]
 8003292:	f003 0380 	and.w	r3, r3, #128	; 0x80
 8003296:	2b80      	cmp	r3, #128	; 0x80
 8003298:	d10e      	bne.n	80032b8 <HAL_TIM_IRQHandler+0x1b0>
  {
    if (__HAL_TIM_GET_IT_SOURCE(htim, TIM_IT_BREAK) != RESET)
 800329a:	687b      	ldr	r3, [r7, #4]
 800329c:	681b      	ldr	r3, [r3, #0]
 800329e:	68db      	ldr	r3, [r3, #12]
 80032a0:	f003 0380 	and.w	r3, r3, #128	; 0x80
 80032a4:	2b80      	cmp	r3, #128	; 0x80
 80032a6:	d107      	bne.n	80032b8 <HAL_TIM_IRQHandler+0x1b0>
    {
      __HAL_TIM_CLEAR_IT(htim, TIM_IT_BREAK);
 80032a8:	687b      	ldr	r3, [r7, #4]
 80032aa:	681b      	ldr	r3, [r3, #0]
 80032ac:	f06f 0280 	mvn.w	r2, #128	; 0x80
 80032b0:	611a      	str	r2, [r3, #16]
#if (USE_HAL_TIM_REGISTER_CALLBACKS == 1)
      htim->BreakCallback(htim);
#else
      HAL_TIMEx_BreakCallback(htim);
 80032b2:	6878      	ldr	r0, [r7, #4]
 80032b4:	f000 fd7a 	bl	8003dac <HAL_TIMEx_BreakCallback>
#endif /* USE_HAL_TIM_REGISTER_CALLBACKS */
    }
  }
  /* TIM Trigger detection event */
  if (__HAL_TIM_GET_FLAG(htim, TIM_FLAG_TRIGGER) != RESET)
 80032b8:	687b      	ldr	r3, [r7, #4]
 80032ba:	681b      	ldr	r3, [r3, #0]
 80032bc:	691b      	ldr	r3, [r3, #16]
 80032be:	f003 0340 	and.w	r3, r3, #64	; 0x40
 80032c2:	2b40      	cmp	r3, #64	; 0x40
 80032c4:	d10e      	bne.n	80032e4 <HAL_TIM_IRQHandler+0x1dc>
  {
    if (__HAL_TIM_GET_IT_SOURCE(htim, TIM_IT_TRIGGER) != RESET)
 80032c6:	687b      	ldr	r3, [r7, #4]
 80032c8:	681b      	ldr	r3, [r3, #0]
 80032ca:	68db      	ldr	r3, [r3, #12]
 80032cc:	f003 0340 	and.w	r3, r3, #64	; 0x40
 80032d0:	2b40      	cmp	r3, #64	; 0x40
 80032d2:	d107      	bne.n	80032e4 <HAL_TIM_IRQHandler+0x1dc>
    {
      __HAL_TIM_CLEAR_IT(htim, TIM_IT_TRIGGER);
 80032d4:	687b      	ldr	r3, [r7, #4]
 80032d6:	681b      	ldr	r3, [r3, #0]
 80032d8:	f06f 0240 	mvn.w	r2, #64	; 0x40
 80032dc:	611a      	str	r2, [r3, #16]
#if (USE_HAL_TIM_REGISTER_CALLBACKS == 1)
      htim->TriggerCallback(htim);
#else
      HAL_TIM_TriggerCallback(htim);
 80032de:	6878      	ldr	r0, [r7, #4]
 80032e0:	f000 f9c4 	bl	800366c <HAL_TIM_TriggerCallback>
#endif /* USE_HAL_TIM_REGISTER_CALLBACKS */
    }
  }
  /* TIM commutation event */
  if (__HAL_TIM_GET_FLAG(htim, TIM_FLAG_COM) != RESET)
 80032e4:	687b      	ldr	r3, [r7, #4]
 80032e6:	681b      	ldr	r3, [r3, #0]
 80032e8:	691b      	ldr	r3, [r3, #16]
 80032ea:	f003 0320 	and.w	r3, r3, #32
 80032ee:	2b20      	cmp	r3, #32
 80032f0:	d10e      	bne.n	8003310 <HAL_TIM_IRQHandler+0x208>
  {
    if (__HAL_TIM_GET_IT_SOURCE(htim, TIM_IT_COM) != RESET)
 80032f2:	687b      	ldr	r3, [r7, #4]
 80032f4:	681b      	ldr	r3, [r3, #0]
 80032f6:	68db      	ldr	r3, [r3, #12]
 80032f8:	f003 0320 	and.w	r3, r3, #32
 80032fc:	2b20      	cmp	r3, #32
 80032fe:	d107      	bne.n	8003310 <HAL_TIM_IRQHandler+0x208>
    {
      __HAL_TIM_CLEAR_IT(htim, TIM_FLAG_COM);
 8003300:	687b      	ldr	r3, [r7, #4]
 8003302:	681b      	ldr	r3, [r3, #0]
 8003304:	f06f 0220 	mvn.w	r2, #32
 8003308:	611a      	str	r2, [r3, #16]
#if (USE_HAL_TIM_REGISTER_CALLBACKS == 1)
      htim->CommutationCallback(htim);
#else
      HAL_TIMEx_CommutCallback(htim);
 800330a:	6878      	ldr	r0, [r7, #4]
 800330c:	f000 fd44 	bl	8003d98 <HAL_TIMEx_CommutCallback>
#endif /* USE_HAL_TIM_REGISTER_CALLBACKS */
    }
  }
}
 8003310:	bf00      	nop
 8003312:	3708      	adds	r7, #8
 8003314:	46bd      	mov	sp, r7
 8003316:	bd80      	pop	{r7, pc}

08003318 <HAL_TIM_PWM_ConfigChannel>:
  * @retval HAL status
  */
HAL_StatusTypeDef HAL_TIM_PWM_ConfigChannel(TIM_HandleTypeDef *htim,
                                            TIM_OC_InitTypeDef *sConfig,
                                            uint32_t Channel)
{
 8003318:	b580      	push	{r7, lr}
 800331a:	b084      	sub	sp, #16
 800331c:	af00      	add	r7, sp, #0
 800331e:	60f8      	str	r0, [r7, #12]
 8003320:	60b9      	str	r1, [r7, #8]
 8003322:	607a      	str	r2, [r7, #4]
  assert_param(IS_TIM_PWM_MODE(sConfig->OCMode));
  assert_param(IS_TIM_OC_POLARITY(sConfig->OCPolarity));
  assert_param(IS_TIM_FAST_STATE(sConfig->OCFastMode));

  /* Process Locked */
  __HAL_LOCK(htim);
 8003324:	68fb      	ldr	r3, [r7, #12]
 8003326:	f893 303c 	ldrb.w	r3, [r3, #60]	; 0x3c
 800332a:	2b01      	cmp	r3, #1
 800332c:	d101      	bne.n	8003332 <HAL_TIM_PWM_ConfigChannel+0x1a>
 800332e:	2302      	movs	r3, #2
 8003330:	e0ac      	b.n	800348c <HAL_TIM_PWM_ConfigChannel+0x174>
 8003332:	68fb      	ldr	r3, [r7, #12]
 8003334:	2201      	movs	r2, #1
 8003336:	f883 203c 	strb.w	r2, [r3, #60]	; 0x3c
 800333a:	687b      	ldr	r3, [r7, #4]
 800333c:	2b0c      	cmp	r3, #12
 800333e:	f200 809f 	bhi.w	8003480 <HAL_TIM_PWM_ConfigChannel+0x168>
 8003342:	a201      	add	r2, pc, #4	; (adr r2, 8003348 <HAL_TIM_PWM_ConfigChannel+0x30>)
 8003344:	f852 f023 	ldr.w	pc, [r2, r3, lsl #2]
 8003348:	0800337d 	.word	0x0800337d
 800334c:	08003481 	.word	0x08003481
 8003350:	08003481 	.word	0x08003481
 8003354:	08003481 	.word	0x08003481
 8003358:	080033bd 	.word	0x080033bd
 800335c:	08003481 	.word	0x08003481
 8003360:	08003481 	.word	0x08003481
 8003364:	08003481 	.word	0x08003481
 8003368:	080033ff 	.word	0x080033ff
 800336c:	08003481 	.word	0x08003481
 8003370:	08003481 	.word	0x08003481
 8003374:	08003481 	.word	0x08003481
 8003378:	0800343f 	.word	0x0800343f
    {
      /* Check the parameters */
      assert_param(IS_TIM_CC1_INSTANCE(htim->Instance));

      /* Configure the Channel 1 in PWM mode */
      TIM_OC1_SetConfig(htim->Instance, sConfig);
 800337c:	68fb      	ldr	r3, [r7, #12]
 800337e:	681b      	ldr	r3, [r3, #0]
 8003380:	68b9      	ldr	r1, [r7, #8]
 8003382:	4618      	mov	r0, r3
 8003384:	f000 fa1c 	bl	80037c0 <TIM_OC1_SetConfig>

      /* Set the Preload enable bit for channel1 */
      htim->Instance->CCMR1 |= TIM_CCMR1_OC1PE;
 8003388:	68fb      	ldr	r3, [r7, #12]
 800338a:	681b      	ldr	r3, [r3, #0]
 800338c:	699a      	ldr	r2, [r3, #24]
 800338e:	68fb      	ldr	r3, [r7, #12]
 8003390:	681b      	ldr	r3, [r3, #0]
 8003392:	f042 0208 	orr.w	r2, r2, #8
 8003396:	619a      	str	r2, [r3, #24]

      /* Configure the Output Fast mode */
      htim->Instance->CCMR1 &= ~TIM_CCMR1_OC1FE;
 8003398:	68fb      	ldr	r3, [r7, #12]
 800339a:	681b      	ldr	r3, [r3, #0]
 800339c:	699a      	ldr	r2, [r3, #24]
 800339e:	68fb      	ldr	r3, [r7, #12]
 80033a0:	681b      	ldr	r3, [r3, #0]
 80033a2:	f022 0204 	bic.w	r2, r2, #4
 80033a6:	619a      	str	r2, [r3, #24]
      htim->Instance->CCMR1 |= sConfig->OCFastMode;
 80033a8:	68fb      	ldr	r3, [r7, #12]
 80033aa:	681b      	ldr	r3, [r3, #0]
 80033ac:	6999      	ldr	r1, [r3, #24]
 80033ae:	68bb      	ldr	r3, [r7, #8]
 80033b0:	691a      	ldr	r2, [r3, #16]
 80033b2:	68fb      	ldr	r3, [r7, #12]
 80033b4:	681b      	ldr	r3, [r3, #0]
 80033b6:	430a      	orrs	r2, r1
 80033b8:	619a      	str	r2, [r3, #24]
      break;
 80033ba:	e062      	b.n	8003482 <HAL_TIM_PWM_ConfigChannel+0x16a>
    {
      /* Check the parameters */
      assert_param(IS_TIM_CC2_INSTANCE(htim->Instance));

      /* Configure the Channel 2 in PWM mode */
      TIM_OC2_SetConfig(htim->Instance, sConfig);
 80033bc:	68fb      	ldr	r3, [r7, #12]
 80033be:	681b      	ldr	r3, [r3, #0]
 80033c0:	68b9      	ldr	r1, [r7, #8]
 80033c2:	4618      	mov	r0, r3
 80033c4:	f000 fa6c 	bl	80038a0 <TIM_OC2_SetConfig>

      /* Set the Preload enable bit for channel2 */
      htim->Instance->CCMR1 |= TIM_CCMR1_OC2PE;
 80033c8:	68fb      	ldr	r3, [r7, #12]
 80033ca:	681b      	ldr	r3, [r3, #0]
 80033cc:	699a      	ldr	r2, [r3, #24]
 80033ce:	68fb      	ldr	r3, [r7, #12]
 80033d0:	681b      	ldr	r3, [r3, #0]
 80033d2:	f442 6200 	orr.w	r2, r2, #2048	; 0x800
 80033d6:	619a      	str	r2, [r3, #24]

      /* Configure the Output Fast mode */
      htim->Instance->CCMR1 &= ~TIM_CCMR1_OC2FE;
 80033d8:	68fb      	ldr	r3, [r7, #12]
 80033da:	681b      	ldr	r3, [r3, #0]
 80033dc:	699a      	ldr	r2, [r3, #24]
 80033de:	68fb      	ldr	r3, [r7, #12]
 80033e0:	681b      	ldr	r3, [r3, #0]
 80033e2:	f422 6280 	bic.w	r2, r2, #1024	; 0x400
 80033e6:	619a      	str	r2, [r3, #24]
      htim->Instance->CCMR1 |= sConfig->OCFastMode << 8U;
 80033e8:	68fb      	ldr	r3, [r7, #12]
 80033ea:	681b      	ldr	r3, [r3, #0]
 80033ec:	6999      	ldr	r1, [r3, #24]
 80033ee:	68bb      	ldr	r3, [r7, #8]
 80033f0:	691b      	ldr	r3, [r3, #16]
 80033f2:	021a      	lsls	r2, r3, #8
 80033f4:	68fb      	ldr	r3, [r7, #12]
 80033f6:	681b      	ldr	r3, [r3, #0]
 80033f8:	430a      	orrs	r2, r1
 80033fa:	619a      	str	r2, [r3, #24]
      break;
 80033fc:	e041      	b.n	8003482 <HAL_TIM_PWM_ConfigChannel+0x16a>
    {
      /* Check the parameters */
      assert_param(IS_TIM_CC3_INSTANCE(htim->Instance));

      /* Configure the Channel 3 in PWM mode */
      TIM_OC3_SetConfig(htim->Instance, sConfig);
 80033fe:	68fb      	ldr	r3, [r7, #12]
 8003400:	681b      	ldr	r3, [r3, #0]
 8003402:	68b9      	ldr	r1, [r7, #8]
 8003404:	4618      	mov	r0, r3
 8003406:	f000 fac1 	bl	800398c <TIM_OC3_SetConfig>

      /* Set the Preload enable bit for channel3 */
      htim->Instance->CCMR2 |= TIM_CCMR2_OC3PE;
 800340a:	68fb      	ldr	r3, [r7, #12]
 800340c:	681b      	ldr	r3, [r3, #0]
 800340e:	69da      	ldr	r2, [r3, #28]
 8003410:	68fb      	ldr	r3, [r7, #12]
 8003412:	681b      	ldr	r3, [r3, #0]
 8003414:	f042 0208 	orr.w	r2, r2, #8
 8003418:	61da      	str	r2, [r3, #28]

      /* Configure the Output Fast mode */
      htim->Instance->CCMR2 &= ~TIM_CCMR2_OC3FE;
 800341a:	68fb      	ldr	r3, [r7, #12]
 800341c:	681b      	ldr	r3, [r3, #0]
 800341e:	69da      	ldr	r2, [r3, #28]
 8003420:	68fb      	ldr	r3, [r7, #12]
 8003422:	681b      	ldr	r3, [r3, #0]
 8003424:	f022 0204 	bic.w	r2, r2, #4
 8003428:	61da      	str	r2, [r3, #28]
      htim->Instance->CCMR2 |= sConfig->OCFastMode;
 800342a:	68fb      	ldr	r3, [r7, #12]
 800342c:	681b      	ldr	r3, [r3, #0]
 800342e:	69d9      	ldr	r1, [r3, #28]
 8003430:	68bb      	ldr	r3, [r7, #8]
 8003432:	691a      	ldr	r2, [r3, #16]
 8003434:	68fb      	ldr	r3, [r7, #12]
 8003436:	681b      	ldr	r3, [r3, #0]
 8003438:	430a      	orrs	r2, r1
 800343a:	61da      	str	r2, [r3, #28]
      break;
 800343c:	e021      	b.n	8003482 <HAL_TIM_PWM_ConfigChannel+0x16a>
    {
      /* Check the parameters */
      assert_param(IS_TIM_CC4_INSTANCE(htim->Instance));

      /* Configure the Channel 4 in PWM mode */
      TIM_OC4_SetConfig(htim->Instance, sConfig);
 800343e:	68fb      	ldr	r3, [r7, #12]
 8003440:	681b      	ldr	r3, [r3, #0]
 8003442:	68b9      	ldr	r1, [r7, #8]
 8003444:	4618      	mov	r0, r3
 8003446:	f000 fb15 	bl	8003a74 <TIM_OC4_SetConfig>

      /* Set the Preload enable bit for channel4 */
      htim->Instance->CCMR2 |= TIM_CCMR2_OC4PE;
 800344a:	68fb      	ldr	r3, [r7, #12]
 800344c:	681b      	ldr	r3, [r3, #0]
 800344e:	69da      	ldr	r2, [r3, #28]
 8003450:	68fb      	ldr	r3, [r7, #12]
 8003452:	681b      	ldr	r3, [r3, #0]
 8003454:	f442 6200 	orr.w	r2, r2, #2048	; 0x800
 8003458:	61da      	str	r2, [r3, #28]

      /* Configure the Output Fast mode */
      htim->Instance->CCMR2 &= ~TIM_CCMR2_OC4FE;
 800345a:	68fb      	ldr	r3, [r7, #12]
 800345c:	681b      	ldr	r3, [r3, #0]
 800345e:	69da      	ldr	r2, [r3, #28]
 8003460:	68fb      	ldr	r3, [r7, #12]
 8003462:	681b      	ldr	r3, [r3, #0]
 8003464:	f422 6280 	bic.w	r2, r2, #1024	; 0x400
 8003468:	61da      	str	r2, [r3, #28]
      htim->Instance->CCMR2 |= sConfig->OCFastMode << 8U;
 800346a:	68fb      	ldr	r3, [r7, #12]
 800346c:	681b      	ldr	r3, [r3, #0]
 800346e:	69d9      	ldr	r1, [r3, #28]
 8003470:	68bb      	ldr	r3, [r7, #8]
 8003472:	691b      	ldr	r3, [r3, #16]
 8003474:	021a      	lsls	r2, r3, #8
 8003476:	68fb      	ldr	r3, [r7, #12]
 8003478:	681b      	ldr	r3, [r3, #0]
 800347a:	430a      	orrs	r2, r1
 800347c:	61da      	str	r2, [r3, #28]
      break;
 800347e:	e000      	b.n	8003482 <HAL_TIM_PWM_ConfigChannel+0x16a>
    }

    default:
      break;
 8003480:	bf00      	nop
  }

  __HAL_UNLOCK(htim);
 8003482:	68fb      	ldr	r3, [r7, #12]
 8003484:	2200      	movs	r2, #0
 8003486:	f883 203c 	strb.w	r2, [r3, #60]	; 0x3c

  return HAL_OK;
 800348a:	2300      	movs	r3, #0
}
 800348c:	4618      	mov	r0, r3
 800348e:	3710      	adds	r7, #16
 8003490:	46bd      	mov	sp, r7
 8003492:	bd80      	pop	{r7, pc}

08003494 <HAL_TIM_ConfigClockSource>:
  * @param  sClockSourceConfig pointer to a TIM_ClockConfigTypeDef structure that
  *         contains the clock source information for the TIM peripheral.
  * @retval HAL status
  */
HAL_StatusTypeDef HAL_TIM_ConfigClockSource(TIM_HandleTypeDef *htim, TIM_ClockConfigTypeDef *sClockSourceConfig)
{
 8003494:	b580      	push	{r7, lr}
 8003496:	b084      	sub	sp, #16
 8003498:	af00      	add	r7, sp, #0
 800349a:	6078      	str	r0, [r7, #4]
 800349c:	6039      	str	r1, [r7, #0]
  uint32_t tmpsmcr;

  /* Process Locked */
  __HAL_LOCK(htim);
 800349e:	687b      	ldr	r3, [r7, #4]
 80034a0:	f893 303c 	ldrb.w	r3, [r3, #60]	; 0x3c
 80034a4:	2b01      	cmp	r3, #1
 80034a6:	d101      	bne.n	80034ac <HAL_TIM_ConfigClockSource+0x18>
 80034a8:	2302      	movs	r3, #2
 80034aa:	e0b3      	b.n	8003614 <HAL_TIM_ConfigClockSource+0x180>
 80034ac:	687b      	ldr	r3, [r7, #4]
 80034ae:	2201      	movs	r2, #1
 80034b0:	f883 203c 	strb.w	r2, [r3, #60]	; 0x3c

  htim->State = HAL_TIM_STATE_BUSY;
 80034b4:	687b      	ldr	r3, [r7, #4]
 80034b6:	2202      	movs	r2, #2
 80034b8:	f883 203d 	strb.w	r2, [r3, #61]	; 0x3d

  /* Check the parameters */
  assert_param(IS_TIM_CLOCKSOURCE(sClockSourceConfig->ClockSource));

  /* Reset the SMS, TS, ECE, ETPS and ETRF bits */
  tmpsmcr = htim->Instance->SMCR;
 80034bc:	687b      	ldr	r3, [r7, #4]
 80034be:	681b      	ldr	r3, [r3, #0]
 80034c0:	689b      	ldr	r3, [r3, #8]
 80034c2:	60fb      	str	r3, [r7, #12]
  tmpsmcr &= ~(TIM_SMCR_SMS | TIM_SMCR_TS);
 80034c4:	68fb      	ldr	r3, [r7, #12]
 80034c6:	f023 0377 	bic.w	r3, r3, #119	; 0x77
 80034ca:	60fb      	str	r3, [r7, #12]
  tmpsmcr &= ~(TIM_SMCR_ETF | TIM_SMCR_ETPS | TIM_SMCR_ECE | TIM_SMCR_ETP);
 80034cc:	68fb      	ldr	r3, [r7, #12]
 80034ce:	f423 437f 	bic.w	r3, r3, #65280	; 0xff00
 80034d2:	60fb      	str	r3, [r7, #12]
  htim->Instance->SMCR = tmpsmcr;
 80034d4:	687b      	ldr	r3, [r7, #4]
 80034d6:	681b      	ldr	r3, [r3, #0]
 80034d8:	68fa      	ldr	r2, [r7, #12]
 80034da:	609a      	str	r2, [r3, #8]

  switch (sClockSourceConfig->ClockSource)
 80034dc:	683b      	ldr	r3, [r7, #0]
 80034de:	681b      	ldr	r3, [r3, #0]
 80034e0:	f5b3 5f00 	cmp.w	r3, #8192	; 0x2000
 80034e4:	d03e      	beq.n	8003564 <HAL_TIM_ConfigClockSource+0xd0>
 80034e6:	f5b3 5f00 	cmp.w	r3, #8192	; 0x2000
 80034ea:	f200 8087 	bhi.w	80035fc <HAL_TIM_ConfigClockSource+0x168>
 80034ee:	f5b3 5f80 	cmp.w	r3, #4096	; 0x1000
 80034f2:	f000 8085 	beq.w	8003600 <HAL_TIM_ConfigClockSource+0x16c>
 80034f6:	f5b3 5f80 	cmp.w	r3, #4096	; 0x1000
 80034fa:	d87f      	bhi.n	80035fc <HAL_TIM_ConfigClockSource+0x168>
 80034fc:	2b70      	cmp	r3, #112	; 0x70
 80034fe:	d01a      	beq.n	8003536 <HAL_TIM_ConfigClockSource+0xa2>
 8003500:	2b70      	cmp	r3, #112	; 0x70
 8003502:	d87b      	bhi.n	80035fc <HAL_TIM_ConfigClockSource+0x168>
 8003504:	2b60      	cmp	r3, #96	; 0x60
 8003506:	d050      	beq.n	80035aa <HAL_TIM_ConfigClockSource+0x116>
 8003508:	2b60      	cmp	r3, #96	; 0x60
 800350a:	d877      	bhi.n	80035fc <HAL_TIM_ConfigClockSource+0x168>
 800350c:	2b50      	cmp	r3, #80	; 0x50
 800350e:	d03c      	beq.n	800358a <HAL_TIM_ConfigClockSource+0xf6>
 8003510:	2b50      	cmp	r3, #80	; 0x50
 8003512:	d873      	bhi.n	80035fc <HAL_TIM_ConfigClockSource+0x168>
 8003514:	2b40      	cmp	r3, #64	; 0x40
 8003516:	d058      	beq.n	80035ca <HAL_TIM_ConfigClockSource+0x136>
 8003518:	2b40      	cmp	r3, #64	; 0x40
 800351a:	d86f      	bhi.n	80035fc <HAL_TIM_ConfigClockSource+0x168>
 800351c:	2b30      	cmp	r3, #48	; 0x30
 800351e:	d064      	beq.n	80035ea <HAL_TIM_ConfigClockSource+0x156>
 8003520:	2b30      	cmp	r3, #48	; 0x30
 8003522:	d86b      	bhi.n	80035fc <HAL_TIM_ConfigClockSource+0x168>
 8003524:	2b20      	cmp	r3, #32
 8003526:	d060      	beq.n	80035ea <HAL_TIM_ConfigClockSource+0x156>
 8003528:	2b20      	cmp	r3, #32
 800352a:	d867      	bhi.n	80035fc <HAL_TIM_ConfigClockSource+0x168>
 800352c:	2b00      	cmp	r3, #0
 800352e:	d05c      	beq.n	80035ea <HAL_TIM_ConfigClockSource+0x156>
 8003530:	2b10      	cmp	r3, #16
 8003532:	d05a      	beq.n	80035ea <HAL_TIM_ConfigClockSource+0x156>
        TIM_ITRx_SetConfig(htim->Instance, sClockSourceConfig->ClockSource);
        break;
      }

    default:
      break;
 8003534:	e062      	b.n	80035fc <HAL_TIM_ConfigClockSource+0x168>
      TIM_ETR_SetConfig(htim->Instance,
 8003536:	687b      	ldr	r3, [r7, #4]
 8003538:	6818      	ldr	r0, [r3, #0]
 800353a:	683b      	ldr	r3, [r7, #0]
 800353c:	6899      	ldr	r1, [r3, #8]
 800353e:	683b      	ldr	r3, [r7, #0]
 8003540:	685a      	ldr	r2, [r3, #4]
 8003542:	683b      	ldr	r3, [r7, #0]
 8003544:	68db      	ldr	r3, [r3, #12]
 8003546:	f000 fb65 	bl	8003c14 <TIM_ETR_SetConfig>
      tmpsmcr = htim->Instance->SMCR;
 800354a:	687b      	ldr	r3, [r7, #4]
 800354c:	681b      	ldr	r3, [r3, #0]
 800354e:	689b      	ldr	r3, [r3, #8]
 8003550:	60fb      	str	r3, [r7, #12]
      tmpsmcr |= (TIM_SLAVEMODE_EXTERNAL1 | TIM_CLOCKSOURCE_ETRMODE1);
 8003552:	68fb      	ldr	r3, [r7, #12]
 8003554:	f043 0377 	orr.w	r3, r3, #119	; 0x77
 8003558:	60fb      	str	r3, [r7, #12]
      htim->Instance->SMCR = tmpsmcr;
 800355a:	687b      	ldr	r3, [r7, #4]
 800355c:	681b      	ldr	r3, [r3, #0]
 800355e:	68fa      	ldr	r2, [r7, #12]
 8003560:	609a      	str	r2, [r3, #8]
      break;
 8003562:	e04e      	b.n	8003602 <HAL_TIM_ConfigClockSource+0x16e>
      TIM_ETR_SetConfig(htim->Instance,
 8003564:	687b      	ldr	r3, [r7, #4]
 8003566:	6818      	ldr	r0, [r3, #0]
 8003568:	683b      	ldr	r3, [r7, #0]
 800356a:	6899      	ldr	r1, [r3, #8]
 800356c:	683b      	ldr	r3, [r7, #0]
 800356e:	685a      	ldr	r2, [r3, #4]
 8003570:	683b      	ldr	r3, [r7, #0]
 8003572:	68db      	ldr	r3, [r3, #12]
 8003574:	f000 fb4e 	bl	8003c14 <TIM_ETR_SetConfig>
      htim->Instance->SMCR |= TIM_SMCR_ECE;
 8003578:	687b      	ldr	r3, [r7, #4]
 800357a:	681b      	ldr	r3, [r3, #0]
 800357c:	689a      	ldr	r2, [r3, #8]
 800357e:	687b      	ldr	r3, [r7, #4]
 8003580:	681b      	ldr	r3, [r3, #0]
 8003582:	f442 4280 	orr.w	r2, r2, #16384	; 0x4000
 8003586:	609a      	str	r2, [r3, #8]
      break;
 8003588:	e03b      	b.n	8003602 <HAL_TIM_ConfigClockSource+0x16e>
      TIM_TI1_ConfigInputStage(htim->Instance,
 800358a:	687b      	ldr	r3, [r7, #4]
 800358c:	6818      	ldr	r0, [r3, #0]
 800358e:	683b      	ldr	r3, [r7, #0]
 8003590:	6859      	ldr	r1, [r3, #4]
 8003592:	683b      	ldr	r3, [r7, #0]
 8003594:	68db      	ldr	r3, [r3, #12]
 8003596:	461a      	mov	r2, r3
 8003598:	f000 fac2 	bl	8003b20 <TIM_TI1_ConfigInputStage>
      TIM_ITRx_SetConfig(htim->Instance, TIM_CLOCKSOURCE_TI1);
 800359c:	687b      	ldr	r3, [r7, #4]
 800359e:	681b      	ldr	r3, [r3, #0]
 80035a0:	2150      	movs	r1, #80	; 0x50
 80035a2:	4618      	mov	r0, r3
 80035a4:	f000 fb1b 	bl	8003bde <TIM_ITRx_SetConfig>
      break;
 80035a8:	e02b      	b.n	8003602 <HAL_TIM_ConfigClockSource+0x16e>
      TIM_TI2_ConfigInputStage(htim->Instance,
 80035aa:	687b      	ldr	r3, [r7, #4]
 80035ac:	6818      	ldr	r0, [r3, #0]
 80035ae:	683b      	ldr	r3, [r7, #0]
 80035b0:	6859      	ldr	r1, [r3, #4]
 80035b2:	683b      	ldr	r3, [r7, #0]
 80035b4:	68db      	ldr	r3, [r3, #12]
 80035b6:	461a      	mov	r2, r3
 80035b8:	f000 fae1 	bl	8003b7e <TIM_TI2_ConfigInputStage>
      TIM_ITRx_SetConfig(htim->Instance, TIM_CLOCKSOURCE_TI2);
 80035bc:	687b      	ldr	r3, [r7, #4]
 80035be:	681b      	ldr	r3, [r3, #0]
 80035c0:	2160      	movs	r1, #96	; 0x60
 80035c2:	4618      	mov	r0, r3
 80035c4:	f000 fb0b 	bl	8003bde <TIM_ITRx_SetConfig>
      break;
 80035c8:	e01b      	b.n	8003602 <HAL_TIM_ConfigClockSource+0x16e>
      TIM_TI1_ConfigInputStage(htim->Instance,
 80035ca:	687b      	ldr	r3, [r7, #4]
 80035cc:	6818      	ldr	r0, [r3, #0]
 80035ce:	683b      	ldr	r3, [r7, #0]
 80035d0:	6859      	ldr	r1, [r3, #4]
 80035d2:	683b      	ldr	r3, [r7, #0]
 80035d4:	68db      	ldr	r3, [r3, #12]
 80035d6:	461a      	mov	r2, r3
 80035d8:	f000 faa2 	bl	8003b20 <TIM_TI1_ConfigInputStage>
      TIM_ITRx_SetConfig(htim->Instance, TIM_CLOCKSOURCE_TI1ED);
 80035dc:	687b      	ldr	r3, [r7, #4]
 80035de:	681b      	ldr	r3, [r3, #0]
 80035e0:	2140      	movs	r1, #64	; 0x40
 80035e2:	4618      	mov	r0, r3
 80035e4:	f000 fafb 	bl	8003bde <TIM_ITRx_SetConfig>
      break;
 80035e8:	e00b      	b.n	8003602 <HAL_TIM_ConfigClockSource+0x16e>
        TIM_ITRx_SetConfig(htim->Instance, sClockSourceConfig->ClockSource);
 80035ea:	687b      	ldr	r3, [r7, #4]
 80035ec:	681a      	ldr	r2, [r3, #0]
 80035ee:	683b      	ldr	r3, [r7, #0]
 80035f0:	681b      	ldr	r3, [r3, #0]
 80035f2:	4619      	mov	r1, r3
 80035f4:	4610      	mov	r0, r2
 80035f6:	f000 faf2 	bl	8003bde <TIM_ITRx_SetConfig>
        break;
 80035fa:	e002      	b.n	8003602 <HAL_TIM_ConfigClockSource+0x16e>
      break;
 80035fc:	bf00      	nop
 80035fe:	e000      	b.n	8003602 <HAL_TIM_ConfigClockSource+0x16e>
      break;
 8003600:	bf00      	nop
  }
  htim->State = HAL_TIM_STATE_READY;
 8003602:	687b      	ldr	r3, [r7, #4]
 8003604:	2201      	movs	r2, #1
 8003606:	f883 203d 	strb.w	r2, [r3, #61]	; 0x3d

  __HAL_UNLOCK(htim);
 800360a:	687b      	ldr	r3, [r7, #4]
 800360c:	2200      	movs	r2, #0
 800360e:	f883 203c 	strb.w	r2, [r3, #60]	; 0x3c

  return HAL_OK;
 8003612:	2300      	movs	r3, #0
}
 8003614:	4618      	mov	r0, r3
 8003616:	3710      	adds	r7, #16
 8003618:	46bd      	mov	sp, r7
 800361a:	bd80      	pop	{r7, pc}

0800361c <HAL_TIM_PeriodElapsedCallback>:
  * @brief  Period elapsed callback in non-blocking mode
  * @param  htim TIM handle
  * @retval None
  */
__weak void HAL_TIM_PeriodElapsedCallback(TIM_HandleTypeDef *htim)
{
 800361c:	b480      	push	{r7}
 800361e:	b083      	sub	sp, #12
 8003620:	af00      	add	r7, sp, #0
 8003622:	6078      	str	r0, [r7, #4]
  UNUSED(htim);

  /* NOTE : This function should not be modified, when the callback is needed,
            the HAL_TIM_PeriodElapsedCallback could be implemented in the user file
   */
}
 8003624:	bf00      	nop
 8003626:	370c      	adds	r7, #12
 8003628:	46bd      	mov	sp, r7
 800362a:	f85d 7b04 	ldr.w	r7, [sp], #4
 800362e:	4770      	bx	lr

08003630 <HAL_TIM_OC_DelayElapsedCallback>:
  * @brief  Output Compare callback in non-blocking mode
  * @param  htim TIM OC handle
  * @retval None
  */
__weak void HAL_TIM_OC_DelayElapsedCallback(TIM_HandleTypeDef *htim)
{
 8003630:	b480      	push	{r7}
 8003632:	b083      	sub	sp, #12
 8003634:	af00      	add	r7, sp, #0
 8003636:	6078      	str	r0, [r7, #4]
  UNUSED(htim);

  /* NOTE : This function should not be modified, when the callback is needed,
            the HAL_TIM_OC_DelayElapsedCallback could be implemented in the user file
   */
}
 8003638:	bf00      	nop
 800363a:	370c      	adds	r7, #12
 800363c:	46bd      	mov	sp, r7
 800363e:	f85d 7b04 	ldr.w	r7, [sp], #4
 8003642:	4770      	bx	lr

08003644 <HAL_TIM_IC_CaptureCallback>:
  * @brief  Input Capture callback in non-blocking mode
  * @param  htim TIM IC handle
  * @retval None
  */
__weak void HAL_TIM_IC_CaptureCallback(TIM_HandleTypeDef *htim)
{
 8003644:	b480      	push	{r7}
 8003646:	b083      	sub	sp, #12
 8003648:	af00      	add	r7, sp, #0
 800364a:	6078      	str	r0, [r7, #4]
  UNUSED(htim);

  /* NOTE : This function should not be modified, when the callback is needed,
            the HAL_TIM_IC_CaptureCallback could be implemented in the user file
   */
}
 800364c:	bf00      	nop
 800364e:	370c      	adds	r7, #12
 8003650:	46bd      	mov	sp, r7
 8003652:	f85d 7b04 	ldr.w	r7, [sp], #4
 8003656:	4770      	bx	lr

08003658 <HAL_TIM_PWM_PulseFinishedCallback>:
  * @brief  PWM Pulse finished callback in non-blocking mode
  * @param  htim TIM handle
  * @retval None
  */
__weak void HAL_TIM_PWM_PulseFinishedCallback(TIM_HandleTypeDef *htim)
{
 8003658:	b480      	push	{r7}
 800365a:	b083      	sub	sp, #12
 800365c:	af00      	add	r7, sp, #0
 800365e:	6078      	str	r0, [r7, #4]
  UNUSED(htim);

  /* NOTE : This function should not be modified, when the callback is needed,
            the HAL_TIM_PWM_PulseFinishedCallback could be implemented in the user file
   */
}
 8003660:	bf00      	nop
 8003662:	370c      	adds	r7, #12
 8003664:	46bd      	mov	sp, r7
 8003666:	f85d 7b04 	ldr.w	r7, [sp], #4
 800366a:	4770      	bx	lr

0800366c <HAL_TIM_TriggerCallback>:
  * @brief  Hall Trigger detection callback in non-blocking mode
  * @param  htim TIM handle
  * @retval None
  */
__weak void HAL_TIM_TriggerCallback(TIM_HandleTypeDef *htim)
{
 800366c:	b480      	push	{r7}
 800366e:	b083      	sub	sp, #12
 8003670:	af00      	add	r7, sp, #0
 8003672:	6078      	str	r0, [r7, #4]
  UNUSED(htim);

  /* NOTE : This function should not be modified, when the callback is needed,
            the HAL_TIM_TriggerCallback could be implemented in the user file
   */
}
 8003674:	bf00      	nop
 8003676:	370c      	adds	r7, #12
 8003678:	46bd      	mov	sp, r7
 800367a:	f85d 7b04 	ldr.w	r7, [sp], #4
 800367e:	4770      	bx	lr

08003680 <TIM_Base_SetConfig>:
  * @param  TIMx TIM peripheral
  * @param  Structure TIM Base configuration structure
  * @retval None
  */
void TIM_Base_SetConfig(TIM_TypeDef *TIMx, TIM_Base_InitTypeDef *Structure)
{
 8003680:	b480      	push	{r7}
 8003682:	b085      	sub	sp, #20
 8003684:	af00      	add	r7, sp, #0
 8003686:	6078      	str	r0, [r7, #4]
 8003688:	6039      	str	r1, [r7, #0]
  uint32_t tmpcr1;
  tmpcr1 = TIMx->CR1;
 800368a:	687b      	ldr	r3, [r7, #4]
 800368c:	681b      	ldr	r3, [r3, #0]
 800368e:	60fb      	str	r3, [r7, #12]

  /* Set TIM Time Base Unit parameters ---------------------------------------*/
  if (IS_TIM_COUNTER_MODE_SELECT_INSTANCE(TIMx))
 8003690:	687b      	ldr	r3, [r7, #4]
 8003692:	4a40      	ldr	r2, [pc, #256]	; (8003794 <TIM_Base_SetConfig+0x114>)
 8003694:	4293      	cmp	r3, r2
 8003696:	d013      	beq.n	80036c0 <TIM_Base_SetConfig+0x40>
 8003698:	687b      	ldr	r3, [r7, #4]
 800369a:	f1b3 4f80 	cmp.w	r3, #1073741824	; 0x40000000
 800369e:	d00f      	beq.n	80036c0 <TIM_Base_SetConfig+0x40>
 80036a0:	687b      	ldr	r3, [r7, #4]
 80036a2:	4a3d      	ldr	r2, [pc, #244]	; (8003798 <TIM_Base_SetConfig+0x118>)
 80036a4:	4293      	cmp	r3, r2
 80036a6:	d00b      	beq.n	80036c0 <TIM_Base_SetConfig+0x40>
 80036a8:	687b      	ldr	r3, [r7, #4]
 80036aa:	4a3c      	ldr	r2, [pc, #240]	; (800379c <TIM_Base_SetConfig+0x11c>)
 80036ac:	4293      	cmp	r3, r2
 80036ae:	d007      	beq.n	80036c0 <TIM_Base_SetConfig+0x40>
 80036b0:	687b      	ldr	r3, [r7, #4]
 80036b2:	4a3b      	ldr	r2, [pc, #236]	; (80037a0 <TIM_Base_SetConfig+0x120>)
 80036b4:	4293      	cmp	r3, r2
 80036b6:	d003      	beq.n	80036c0 <TIM_Base_SetConfig+0x40>
 80036b8:	687b      	ldr	r3, [r7, #4]
 80036ba:	4a3a      	ldr	r2, [pc, #232]	; (80037a4 <TIM_Base_SetConfig+0x124>)
 80036bc:	4293      	cmp	r3, r2
 80036be:	d108      	bne.n	80036d2 <TIM_Base_SetConfig+0x52>
  {
    /* Select the Counter Mode */
    tmpcr1 &= ~(TIM_CR1_DIR | TIM_CR1_CMS);
 80036c0:	68fb      	ldr	r3, [r7, #12]
 80036c2:	f023 0370 	bic.w	r3, r3, #112	; 0x70
 80036c6:	60fb      	str	r3, [r7, #12]
    tmpcr1 |= Structure->CounterMode;
 80036c8:	683b      	ldr	r3, [r7, #0]
 80036ca:	685b      	ldr	r3, [r3, #4]
 80036cc:	68fa      	ldr	r2, [r7, #12]
 80036ce:	4313      	orrs	r3, r2
 80036d0:	60fb      	str	r3, [r7, #12]
  }

  if (IS_TIM_CLOCK_DIVISION_INSTANCE(TIMx))
 80036d2:	687b      	ldr	r3, [r7, #4]
 80036d4:	4a2f      	ldr	r2, [pc, #188]	; (8003794 <TIM_Base_SetConfig+0x114>)
 80036d6:	4293      	cmp	r3, r2
 80036d8:	d02b      	beq.n	8003732 <TIM_Base_SetConfig+0xb2>
 80036da:	687b      	ldr	r3, [r7, #4]
 80036dc:	f1b3 4f80 	cmp.w	r3, #1073741824	; 0x40000000
 80036e0:	d027      	beq.n	8003732 <TIM_Base_SetConfig+0xb2>
 80036e2:	687b      	ldr	r3, [r7, #4]
 80036e4:	4a2c      	ldr	r2, [pc, #176]	; (8003798 <TIM_Base_SetConfig+0x118>)
 80036e6:	4293      	cmp	r3, r2
 80036e8:	d023      	beq.n	8003732 <TIM_Base_SetConfig+0xb2>
 80036ea:	687b      	ldr	r3, [r7, #4]
 80036ec:	4a2b      	ldr	r2, [pc, #172]	; (800379c <TIM_Base_SetConfig+0x11c>)
 80036ee:	4293      	cmp	r3, r2
 80036f0:	d01f      	beq.n	8003732 <TIM_Base_SetConfig+0xb2>
 80036f2:	687b      	ldr	r3, [r7, #4]
 80036f4:	4a2a      	ldr	r2, [pc, #168]	; (80037a0 <TIM_Base_SetConfig+0x120>)
 80036f6:	4293      	cmp	r3, r2
 80036f8:	d01b      	beq.n	8003732 <TIM_Base_SetConfig+0xb2>
 80036fa:	687b      	ldr	r3, [r7, #4]
 80036fc:	4a29      	ldr	r2, [pc, #164]	; (80037a4 <TIM_Base_SetConfig+0x124>)
 80036fe:	4293      	cmp	r3, r2
 8003700:	d017      	beq.n	8003732 <TIM_Base_SetConfig+0xb2>
 8003702:	687b      	ldr	r3, [r7, #4]
 8003704:	4a28      	ldr	r2, [pc, #160]	; (80037a8 <TIM_Base_SetConfig+0x128>)
 8003706:	4293      	cmp	r3, r2
 8003708:	d013      	beq.n	8003732 <TIM_Base_SetConfig+0xb2>
 800370a:	687b      	ldr	r3, [r7, #4]
 800370c:	4a27      	ldr	r2, [pc, #156]	; (80037ac <TIM_Base_SetConfig+0x12c>)
 800370e:	4293      	cmp	r3, r2
 8003710:	d00f      	beq.n	8003732 <TIM_Base_SetConfig+0xb2>
 8003712:	687b      	ldr	r3, [r7, #4]
 8003714:	4a26      	ldr	r2, [pc, #152]	; (80037b0 <TIM_Base_SetConfig+0x130>)
 8003716:	4293      	cmp	r3, r2
 8003718:	d00b      	beq.n	8003732 <TIM_Base_SetConfig+0xb2>
 800371a:	687b      	ldr	r3, [r7, #4]
 800371c:	4a25      	ldr	r2, [pc, #148]	; (80037b4 <TIM_Base_SetConfig+0x134>)
 800371e:	4293      	cmp	r3, r2
 8003720:	d007      	beq.n	8003732 <TIM_Base_SetConfig+0xb2>
 8003722:	687b      	ldr	r3, [r7, #4]
 8003724:	4a24      	ldr	r2, [pc, #144]	; (80037b8 <TIM_Base_SetConfig+0x138>)
 8003726:	4293      	cmp	r3, r2
 8003728:	d003      	beq.n	8003732 <TIM_Base_SetConfig+0xb2>
 800372a:	687b      	ldr	r3, [r7, #4]
 800372c:	4a23      	ldr	r2, [pc, #140]	; (80037bc <TIM_Base_SetConfig+0x13c>)
 800372e:	4293      	cmp	r3, r2
 8003730:	d108      	bne.n	8003744 <TIM_Base_SetConfig+0xc4>
  {
    /* Set the clock division */
    tmpcr1 &= ~TIM_CR1_CKD;
 8003732:	68fb      	ldr	r3, [r7, #12]
 8003734:	f423 7340 	bic.w	r3, r3, #768	; 0x300
 8003738:	60fb      	str	r3, [r7, #12]
    tmpcr1 |= (uint32_t)Structure->ClockDivision;
 800373a:	683b      	ldr	r3, [r7, #0]
 800373c:	68db      	ldr	r3, [r3, #12]
 800373e:	68fa      	ldr	r2, [r7, #12]
 8003740:	4313      	orrs	r3, r2
 8003742:	60fb      	str	r3, [r7, #12]
  }

  /* Set the auto-reload preload */
  MODIFY_REG(tmpcr1, TIM_CR1_ARPE, Structure->AutoReloadPreload);
 8003744:	68fb      	ldr	r3, [r7, #12]
 8003746:	f023 0280 	bic.w	r2, r3, #128	; 0x80
 800374a:	683b      	ldr	r3, [r7, #0]
 800374c:	695b      	ldr	r3, [r3, #20]
 800374e:	4313      	orrs	r3, r2
 8003750:	60fb      	str	r3, [r7, #12]

  TIMx->CR1 = tmpcr1;
 8003752:	687b      	ldr	r3, [r7, #4]
 8003754:	68fa      	ldr	r2, [r7, #12]
 8003756:	601a      	str	r2, [r3, #0]

  /* Set the Autoreload value */
  TIMx->ARR = (uint32_t)Structure->Period ;
 8003758:	683b      	ldr	r3, [r7, #0]
 800375a:	689a      	ldr	r2, [r3, #8]
 800375c:	687b      	ldr	r3, [r7, #4]
 800375e:	62da      	str	r2, [r3, #44]	; 0x2c

  /* Set the Prescaler value */
  TIMx->PSC = Structure->Prescaler;
 8003760:	683b      	ldr	r3, [r7, #0]
 8003762:	681a      	ldr	r2, [r3, #0]
 8003764:	687b      	ldr	r3, [r7, #4]
 8003766:	629a      	str	r2, [r3, #40]	; 0x28

  if (IS_TIM_REPETITION_COUNTER_INSTANCE(TIMx))
 8003768:	687b      	ldr	r3, [r7, #4]
 800376a:	4a0a      	ldr	r2, [pc, #40]	; (8003794 <TIM_Base_SetConfig+0x114>)
 800376c:	4293      	cmp	r3, r2
 800376e:	d003      	beq.n	8003778 <TIM_Base_SetConfig+0xf8>
 8003770:	687b      	ldr	r3, [r7, #4]
 8003772:	4a0c      	ldr	r2, [pc, #48]	; (80037a4 <TIM_Base_SetConfig+0x124>)
 8003774:	4293      	cmp	r3, r2
 8003776:	d103      	bne.n	8003780 <TIM_Base_SetConfig+0x100>
  {
    /* Set the Repetition Counter value */
    TIMx->RCR = Structure->RepetitionCounter;
 8003778:	683b      	ldr	r3, [r7, #0]
 800377a:	691a      	ldr	r2, [r3, #16]
 800377c:	687b      	ldr	r3, [r7, #4]
 800377e:	631a      	str	r2, [r3, #48]	; 0x30
  }

  /* Generate an update event to reload the Prescaler
     and the repetition counter (only for advanced timer) value immediately */
  TIMx->EGR = TIM_EGR_UG;
 8003780:	687b      	ldr	r3, [r7, #4]
 8003782:	2201      	movs	r2, #1
 8003784:	615a      	str	r2, [r3, #20]
}
 8003786:	bf00      	nop
 8003788:	3714      	adds	r7, #20
 800378a:	46bd      	mov	sp, r7
 800378c:	f85d 7b04 	ldr.w	r7, [sp], #4
 8003790:	4770      	bx	lr
 8003792:	bf00      	nop
 8003794:	40010000 	.word	0x40010000
 8003798:	40000400 	.word	0x40000400
 800379c:	40000800 	.word	0x40000800
 80037a0:	40000c00 	.word	0x40000c00
 80037a4:	40010400 	.word	0x40010400
 80037a8:	40014000 	.word	0x40014000
 80037ac:	40014400 	.word	0x40014400
 80037b0:	40014800 	.word	0x40014800
 80037b4:	40001800 	.word	0x40001800
 80037b8:	40001c00 	.word	0x40001c00
 80037bc:	40002000 	.word	0x40002000

080037c0 <TIM_OC1_SetConfig>:
  * @param  TIMx to select the TIM peripheral
  * @param  OC_Config The output configuration structure
  * @retval None
  */
static void TIM_OC1_SetConfig(TIM_TypeDef *TIMx, TIM_OC_InitTypeDef *OC_Config)
{
 80037c0:	b480      	push	{r7}
 80037c2:	b087      	sub	sp, #28
 80037c4:	af00      	add	r7, sp, #0
 80037c6:	6078      	str	r0, [r7, #4]
 80037c8:	6039      	str	r1, [r7, #0]
  uint32_t tmpccmrx;
  uint32_t tmpccer;
  uint32_t tmpcr2;

  /* Disable the Channel 1: Reset the CC1E Bit */
  TIMx->CCER &= ~TIM_CCER_CC1E;
 80037ca:	687b      	ldr	r3, [r7, #4]
 80037cc:	6a1b      	ldr	r3, [r3, #32]
 80037ce:	f023 0201 	bic.w	r2, r3, #1
 80037d2:	687b      	ldr	r3, [r7, #4]
 80037d4:	621a      	str	r2, [r3, #32]

  /* Get the TIMx CCER register value */
  tmpccer = TIMx->CCER;
 80037d6:	687b      	ldr	r3, [r7, #4]
 80037d8:	6a1b      	ldr	r3, [r3, #32]
 80037da:	617b      	str	r3, [r7, #20]
  /* Get the TIMx CR2 register value */
  tmpcr2 =  TIMx->CR2;
 80037dc:	687b      	ldr	r3, [r7, #4]
 80037de:	685b      	ldr	r3, [r3, #4]
 80037e0:	613b      	str	r3, [r7, #16]

  /* Get the TIMx CCMR1 register value */
  tmpccmrx = TIMx->CCMR1;
 80037e2:	687b      	ldr	r3, [r7, #4]
 80037e4:	699b      	ldr	r3, [r3, #24]
 80037e6:	60fb      	str	r3, [r7, #12]

  /* Reset the Output Compare Mode Bits */
  tmpccmrx &= ~TIM_CCMR1_OC1M;
 80037e8:	68fb      	ldr	r3, [r7, #12]
 80037ea:	f023 0370 	bic.w	r3, r3, #112	; 0x70
 80037ee:	60fb      	str	r3, [r7, #12]
  tmpccmrx &= ~TIM_CCMR1_CC1S;
 80037f0:	68fb      	ldr	r3, [r7, #12]
 80037f2:	f023 0303 	bic.w	r3, r3, #3
 80037f6:	60fb      	str	r3, [r7, #12]
  /* Select the Output Compare Mode */
  tmpccmrx |= OC_Config->OCMode;
 80037f8:	683b      	ldr	r3, [r7, #0]
 80037fa:	681b      	ldr	r3, [r3, #0]
 80037fc:	68fa      	ldr	r2, [r7, #12]
 80037fe:	4313      	orrs	r3, r2
 8003800:	60fb      	str	r3, [r7, #12]

  /* Reset the Output Polarity level */
  tmpccer &= ~TIM_CCER_CC1P;
 8003802:	697b      	ldr	r3, [r7, #20]
 8003804:	f023 0302 	bic.w	r3, r3, #2
 8003808:	617b      	str	r3, [r7, #20]
  /* Set the Output Compare Polarity */
  tmpccer |= OC_Config->OCPolarity;
 800380a:	683b      	ldr	r3, [r7, #0]
 800380c:	689b      	ldr	r3, [r3, #8]
 800380e:	697a      	ldr	r2, [r7, #20]
 8003810:	4313      	orrs	r3, r2
 8003812:	617b      	str	r3, [r7, #20]

  if (IS_TIM_CCXN_INSTANCE(TIMx, TIM_CHANNEL_1))
 8003814:	687b      	ldr	r3, [r7, #4]
 8003816:	4a20      	ldr	r2, [pc, #128]	; (8003898 <TIM_OC1_SetConfig+0xd8>)
 8003818:	4293      	cmp	r3, r2
 800381a:	d003      	beq.n	8003824 <TIM_OC1_SetConfig+0x64>
 800381c:	687b      	ldr	r3, [r7, #4]
 800381e:	4a1f      	ldr	r2, [pc, #124]	; (800389c <TIM_OC1_SetConfig+0xdc>)
 8003820:	4293      	cmp	r3, r2
 8003822:	d10c      	bne.n	800383e <TIM_OC1_SetConfig+0x7e>
  {
    /* Check parameters */
    assert_param(IS_TIM_OCN_POLARITY(OC_Config->OCNPolarity));

    /* Reset the Output N Polarity level */
    tmpccer &= ~TIM_CCER_CC1NP;
 8003824:	697b      	ldr	r3, [r7, #20]
 8003826:	f023 0308 	bic.w	r3, r3, #8
 800382a:	617b      	str	r3, [r7, #20]
    /* Set the Output N Polarity */
    tmpccer |= OC_Config->OCNPolarity;
 800382c:	683b      	ldr	r3, [r7, #0]
 800382e:	68db      	ldr	r3, [r3, #12]
 8003830:	697a      	ldr	r2, [r7, #20]
 8003832:	4313      	orrs	r3, r2
 8003834:	617b      	str	r3, [r7, #20]
    /* Reset the Output N State */
    tmpccer &= ~TIM_CCER_CC1NE;
 8003836:	697b      	ldr	r3, [r7, #20]
 8003838:	f023 0304 	bic.w	r3, r3, #4
 800383c:	617b      	str	r3, [r7, #20]
  }

  if (IS_TIM_BREAK_INSTANCE(TIMx))
 800383e:	687b      	ldr	r3, [r7, #4]
 8003840:	4a15      	ldr	r2, [pc, #84]	; (8003898 <TIM_OC1_SetConfig+0xd8>)
 8003842:	4293      	cmp	r3, r2
 8003844:	d003      	beq.n	800384e <TIM_OC1_SetConfig+0x8e>
 8003846:	687b      	ldr	r3, [r7, #4]
 8003848:	4a14      	ldr	r2, [pc, #80]	; (800389c <TIM_OC1_SetConfig+0xdc>)
 800384a:	4293      	cmp	r3, r2
 800384c:	d111      	bne.n	8003872 <TIM_OC1_SetConfig+0xb2>
    /* Check parameters */
    assert_param(IS_TIM_OCNIDLE_STATE(OC_Config->OCNIdleState));
    assert_param(IS_TIM_OCIDLE_STATE(OC_Config->OCIdleState));

    /* Reset the Output Compare and Output Compare N IDLE State */
    tmpcr2 &= ~TIM_CR2_OIS1;
 800384e:	693b      	ldr	r3, [r7, #16]
 8003850:	f423 7380 	bic.w	r3, r3, #256	; 0x100
 8003854:	613b      	str	r3, [r7, #16]
    tmpcr2 &= ~TIM_CR2_OIS1N;
 8003856:	693b      	ldr	r3, [r7, #16]
 8003858:	f423 7300 	bic.w	r3, r3, #512	; 0x200
 800385c:	613b      	str	r3, [r7, #16]
    /* Set the Output Idle state */
    tmpcr2 |= OC_Config->OCIdleState;
 800385e:	683b      	ldr	r3, [r7, #0]
 8003860:	695b      	ldr	r3, [r3, #20]
 8003862:	693a      	ldr	r2, [r7, #16]
 8003864:	4313      	orrs	r3, r2
 8003866:	613b      	str	r3, [r7, #16]
    /* Set the Output N Idle state */
    tmpcr2 |= OC_Config->OCNIdleState;
 8003868:	683b      	ldr	r3, [r7, #0]
 800386a:	699b      	ldr	r3, [r3, #24]
 800386c:	693a      	ldr	r2, [r7, #16]
 800386e:	4313      	orrs	r3, r2
 8003870:	613b      	str	r3, [r7, #16]
  }

  /* Write to TIMx CR2 */
  TIMx->CR2 = tmpcr2;
 8003872:	687b      	ldr	r3, [r7, #4]
 8003874:	693a      	ldr	r2, [r7, #16]
 8003876:	605a      	str	r2, [r3, #4]

  /* Write to TIMx CCMR1 */
  TIMx->CCMR1 = tmpccmrx;
 8003878:	687b      	ldr	r3, [r7, #4]
 800387a:	68fa      	ldr	r2, [r7, #12]
 800387c:	619a      	str	r2, [r3, #24]

  /* Set the Capture Compare Register value */
  TIMx->CCR1 = OC_Config->Pulse;
 800387e:	683b      	ldr	r3, [r7, #0]
 8003880:	685a      	ldr	r2, [r3, #4]
 8003882:	687b      	ldr	r3, [r7, #4]
 8003884:	635a      	str	r2, [r3, #52]	; 0x34

  /* Write to TIMx CCER */
  TIMx->CCER = tmpccer;
 8003886:	687b      	ldr	r3, [r7, #4]
 8003888:	697a      	ldr	r2, [r7, #20]
 800388a:	621a      	str	r2, [r3, #32]
}
 800388c:	bf00      	nop
 800388e:	371c      	adds	r7, #28
 8003890:	46bd      	mov	sp, r7
 8003892:	f85d 7b04 	ldr.w	r7, [sp], #4
 8003896:	4770      	bx	lr
 8003898:	40010000 	.word	0x40010000
 800389c:	40010400 	.word	0x40010400

080038a0 <TIM_OC2_SetConfig>:
  * @param  TIMx to select the TIM peripheral
  * @param  OC_Config The output configuration structure
  * @retval None
  */
void TIM_OC2_SetConfig(TIM_TypeDef *TIMx, TIM_OC_InitTypeDef *OC_Config)
{
 80038a0:	b480      	push	{r7}
 80038a2:	b087      	sub	sp, #28
 80038a4:	af00      	add	r7, sp, #0
 80038a6:	6078      	str	r0, [r7, #4]
 80038a8:	6039      	str	r1, [r7, #0]
  uint32_t tmpccmrx;
  uint32_t tmpccer;
  uint32_t tmpcr2;

  /* Disable the Channel 2: Reset the CC2E Bit */
  TIMx->CCER &= ~TIM_CCER_CC2E;
 80038aa:	687b      	ldr	r3, [r7, #4]
 80038ac:	6a1b      	ldr	r3, [r3, #32]
 80038ae:	f023 0210 	bic.w	r2, r3, #16
 80038b2:	687b      	ldr	r3, [r7, #4]
 80038b4:	621a      	str	r2, [r3, #32]

  /* Get the TIMx CCER register value */
  tmpccer = TIMx->CCER;
 80038b6:	687b      	ldr	r3, [r7, #4]
 80038b8:	6a1b      	ldr	r3, [r3, #32]
 80038ba:	617b      	str	r3, [r7, #20]
  /* Get the TIMx CR2 register value */
  tmpcr2 =  TIMx->CR2;
 80038bc:	687b      	ldr	r3, [r7, #4]
 80038be:	685b      	ldr	r3, [r3, #4]
 80038c0:	613b      	str	r3, [r7, #16]

  /* Get the TIMx CCMR1 register value */
  tmpccmrx = TIMx->CCMR1;
 80038c2:	687b      	ldr	r3, [r7, #4]
 80038c4:	699b      	ldr	r3, [r3, #24]
 80038c6:	60fb      	str	r3, [r7, #12]

  /* Reset the Output Compare mode and Capture/Compare selection Bits */
  tmpccmrx &= ~TIM_CCMR1_OC2M;
 80038c8:	68fb      	ldr	r3, [r7, #12]
 80038ca:	f423 43e0 	bic.w	r3, r3, #28672	; 0x7000
 80038ce:	60fb      	str	r3, [r7, #12]
  tmpccmrx &= ~TIM_CCMR1_CC2S;
 80038d0:	68fb      	ldr	r3, [r7, #12]
 80038d2:	f423 7340 	bic.w	r3, r3, #768	; 0x300
 80038d6:	60fb      	str	r3, [r7, #12]

  /* Select the Output Compare Mode */
  tmpccmrx |= (OC_Config->OCMode << 8U);
 80038d8:	683b      	ldr	r3, [r7, #0]
 80038da:	681b      	ldr	r3, [r3, #0]
 80038dc:	021b      	lsls	r3, r3, #8
 80038de:	68fa      	ldr	r2, [r7, #12]
 80038e0:	4313      	orrs	r3, r2
 80038e2:	60fb      	str	r3, [r7, #12]

  /* Reset the Output Polarity level */
  tmpccer &= ~TIM_CCER_CC2P;
 80038e4:	697b      	ldr	r3, [r7, #20]
 80038e6:	f023 0320 	bic.w	r3, r3, #32
 80038ea:	617b      	str	r3, [r7, #20]
  /* Set the Output Compare Polarity */
  tmpccer |= (OC_Config->OCPolarity << 4U);
 80038ec:	683b      	ldr	r3, [r7, #0]
 80038ee:	689b      	ldr	r3, [r3, #8]
 80038f0:	011b      	lsls	r3, r3, #4
 80038f2:	697a      	ldr	r2, [r7, #20]
 80038f4:	4313      	orrs	r3, r2
 80038f6:	617b      	str	r3, [r7, #20]

  if (IS_TIM_CCXN_INSTANCE(TIMx, TIM_CHANNEL_2))
 80038f8:	687b      	ldr	r3, [r7, #4]
 80038fa:	4a22      	ldr	r2, [pc, #136]	; (8003984 <TIM_OC2_SetConfig+0xe4>)
 80038fc:	4293      	cmp	r3, r2
 80038fe:	d003      	beq.n	8003908 <TIM_OC2_SetConfig+0x68>
 8003900:	687b      	ldr	r3, [r7, #4]
 8003902:	4a21      	ldr	r2, [pc, #132]	; (8003988 <TIM_OC2_SetConfig+0xe8>)
 8003904:	4293      	cmp	r3, r2
 8003906:	d10d      	bne.n	8003924 <TIM_OC2_SetConfig+0x84>
  {
    assert_param(IS_TIM_OCN_POLARITY(OC_Config->OCNPolarity));

    /* Reset the Output N Polarity level */
    tmpccer &= ~TIM_CCER_CC2NP;
 8003908:	697b      	ldr	r3, [r7, #20]
 800390a:	f023 0380 	bic.w	r3, r3, #128	; 0x80
 800390e:	617b      	str	r3, [r7, #20]
    /* Set the Output N Polarity */
    tmpccer |= (OC_Config->OCNPolarity << 4U);
 8003910:	683b      	ldr	r3, [r7, #0]
 8003912:	68db      	ldr	r3, [r3, #12]
 8003914:	011b      	lsls	r3, r3, #4
 8003916:	697a      	ldr	r2, [r7, #20]
 8003918:	4313      	orrs	r3, r2
 800391a:	617b      	str	r3, [r7, #20]
    /* Reset the Output N State */
    tmpccer &= ~TIM_CCER_CC2NE;
 800391c:	697b      	ldr	r3, [r7, #20]
 800391e:	f023 0340 	bic.w	r3, r3, #64	; 0x40
 8003922:	617b      	str	r3, [r7, #20]

  }

  if (IS_TIM_BREAK_INSTANCE(TIMx))
 8003924:	687b      	ldr	r3, [r7, #4]
 8003926:	4a17      	ldr	r2, [pc, #92]	; (8003984 <TIM_OC2_SetConfig+0xe4>)
 8003928:	4293      	cmp	r3, r2
 800392a:	d003      	beq.n	8003934 <TIM_OC2_SetConfig+0x94>
 800392c:	687b      	ldr	r3, [r7, #4]
 800392e:	4a16      	ldr	r2, [pc, #88]	; (8003988 <TIM_OC2_SetConfig+0xe8>)
 8003930:	4293      	cmp	r3, r2
 8003932:	d113      	bne.n	800395c <TIM_OC2_SetConfig+0xbc>
    /* Check parameters */
    assert_param(IS_TIM_OCNIDLE_STATE(OC_Config->OCNIdleState));
    assert_param(IS_TIM_OCIDLE_STATE(OC_Config->OCIdleState));

    /* Reset the Output Compare and Output Compare N IDLE State */
    tmpcr2 &= ~TIM_CR2_OIS2;
 8003934:	693b      	ldr	r3, [r7, #16]
 8003936:	f423 6380 	bic.w	r3, r3, #1024	; 0x400
 800393a:	613b      	str	r3, [r7, #16]
    tmpcr2 &= ~TIM_CR2_OIS2N;
 800393c:	693b      	ldr	r3, [r7, #16]
 800393e:	f423 6300 	bic.w	r3, r3, #2048	; 0x800
 8003942:	613b      	str	r3, [r7, #16]
    /* Set the Output Idle state */
    tmpcr2 |= (OC_Config->OCIdleState << 2U);
 8003944:	683b      	ldr	r3, [r7, #0]
 8003946:	695b      	ldr	r3, [r3, #20]
 8003948:	009b      	lsls	r3, r3, #2
 800394a:	693a      	ldr	r2, [r7, #16]
 800394c:	4313      	orrs	r3, r2
 800394e:	613b      	str	r3, [r7, #16]
    /* Set the Output N Idle state */
    tmpcr2 |= (OC_Config->OCNIdleState << 2U);
 8003950:	683b      	ldr	r3, [r7, #0]
 8003952:	699b      	ldr	r3, [r3, #24]
 8003954:	009b      	lsls	r3, r3, #2
 8003956:	693a      	ldr	r2, [r7, #16]
 8003958:	4313      	orrs	r3, r2
 800395a:	613b      	str	r3, [r7, #16]
  }

  /* Write to TIMx CR2 */
  TIMx->CR2 = tmpcr2;
 800395c:	687b      	ldr	r3, [r7, #4]
 800395e:	693a      	ldr	r2, [r7, #16]
 8003960:	605a      	str	r2, [r3, #4]

  /* Write to TIMx CCMR1 */
  TIMx->CCMR1 = tmpccmrx;
 8003962:	687b      	ldr	r3, [r7, #4]
 8003964:	68fa      	ldr	r2, [r7, #12]
 8003966:	619a      	str	r2, [r3, #24]

  /* Set the Capture Compare Register value */
  TIMx->CCR2 = OC_Config->Pulse;
 8003968:	683b      	ldr	r3, [r7, #0]
 800396a:	685a      	ldr	r2, [r3, #4]
 800396c:	687b      	ldr	r3, [r7, #4]
 800396e:	639a      	str	r2, [r3, #56]	; 0x38

  /* Write to TIMx CCER */
  TIMx->CCER = tmpccer;
 8003970:	687b      	ldr	r3, [r7, #4]
 8003972:	697a      	ldr	r2, [r7, #20]
 8003974:	621a      	str	r2, [r3, #32]
}
 8003976:	bf00      	nop
 8003978:	371c      	adds	r7, #28
 800397a:	46bd      	mov	sp, r7
 800397c:	f85d 7b04 	ldr.w	r7, [sp], #4
 8003980:	4770      	bx	lr
 8003982:	bf00      	nop
 8003984:	40010000 	.word	0x40010000
 8003988:	40010400 	.word	0x40010400

0800398c <TIM_OC3_SetConfig>:
  * @param  TIMx to select the TIM peripheral
  * @param  OC_Config The output configuration structure
  * @retval None
  */
static void TIM_OC3_SetConfig(TIM_TypeDef *TIMx, TIM_OC_InitTypeDef *OC_Config)
{
 800398c:	b480      	push	{r7}
 800398e:	b087      	sub	sp, #28
 8003990:	af00      	add	r7, sp, #0
 8003992:	6078      	str	r0, [r7, #4]
 8003994:	6039      	str	r1, [r7, #0]
  uint32_t tmpccmrx;
  uint32_t tmpccer;
  uint32_t tmpcr2;

  /* Disable the Channel 3: Reset the CC2E Bit */
  TIMx->CCER &= ~TIM_CCER_CC3E;
 8003996:	687b      	ldr	r3, [r7, #4]
 8003998:	6a1b      	ldr	r3, [r3, #32]
 800399a:	f423 7280 	bic.w	r2, r3, #256	; 0x100
 800399e:	687b      	ldr	r3, [r7, #4]
 80039a0:	621a      	str	r2, [r3, #32]

  /* Get the TIMx CCER register value */
  tmpccer = TIMx->CCER;
 80039a2:	687b      	ldr	r3, [r7, #4]
 80039a4:	6a1b      	ldr	r3, [r3, #32]
 80039a6:	617b      	str	r3, [r7, #20]
  /* Get the TIMx CR2 register value */
  tmpcr2 =  TIMx->CR2;
 80039a8:	687b      	ldr	r3, [r7, #4]
 80039aa:	685b      	ldr	r3, [r3, #4]
 80039ac:	613b      	str	r3, [r7, #16]

  /* Get the TIMx CCMR2 register value */
  tmpccmrx = TIMx->CCMR2;
 80039ae:	687b      	ldr	r3, [r7, #4]
 80039b0:	69db      	ldr	r3, [r3, #28]
 80039b2:	60fb      	str	r3, [r7, #12]

  /* Reset the Output Compare mode and Capture/Compare selection Bits */
  tmpccmrx &= ~TIM_CCMR2_OC3M;
 80039b4:	68fb      	ldr	r3, [r7, #12]
 80039b6:	f023 0370 	bic.w	r3, r3, #112	; 0x70
 80039ba:	60fb      	str	r3, [r7, #12]
  tmpccmrx &= ~TIM_CCMR2_CC3S;
 80039bc:	68fb      	ldr	r3, [r7, #12]
 80039be:	f023 0303 	bic.w	r3, r3, #3
 80039c2:	60fb      	str	r3, [r7, #12]
  /* Select the Output Compare Mode */
  tmpccmrx |= OC_Config->OCMode;
 80039c4:	683b      	ldr	r3, [r7, #0]
 80039c6:	681b      	ldr	r3, [r3, #0]
 80039c8:	68fa      	ldr	r2, [r7, #12]
 80039ca:	4313      	orrs	r3, r2
 80039cc:	60fb      	str	r3, [r7, #12]

  /* Reset the Output Polarity level */
  tmpccer &= ~TIM_CCER_CC3P;
 80039ce:	697b      	ldr	r3, [r7, #20]
 80039d0:	f423 7300 	bic.w	r3, r3, #512	; 0x200
 80039d4:	617b      	str	r3, [r7, #20]
  /* Set the Output Compare Polarity */
  tmpccer |= (OC_Config->OCPolarity << 8U);
 80039d6:	683b      	ldr	r3, [r7, #0]
 80039d8:	689b      	ldr	r3, [r3, #8]
 80039da:	021b      	lsls	r3, r3, #8
 80039dc:	697a      	ldr	r2, [r7, #20]
 80039de:	4313      	orrs	r3, r2
 80039e0:	617b      	str	r3, [r7, #20]

  if (IS_TIM_CCXN_INSTANCE(TIMx, TIM_CHANNEL_3))
 80039e2:	687b      	ldr	r3, [r7, #4]
 80039e4:	4a21      	ldr	r2, [pc, #132]	; (8003a6c <TIM_OC3_SetConfig+0xe0>)
 80039e6:	4293      	cmp	r3, r2
 80039e8:	d003      	beq.n	80039f2 <TIM_OC3_SetConfig+0x66>
 80039ea:	687b      	ldr	r3, [r7, #4]
 80039ec:	4a20      	ldr	r2, [pc, #128]	; (8003a70 <TIM_OC3_SetConfig+0xe4>)
 80039ee:	4293      	cmp	r3, r2
 80039f0:	d10d      	bne.n	8003a0e <TIM_OC3_SetConfig+0x82>
  {
    assert_param(IS_TIM_OCN_POLARITY(OC_Config->OCNPolarity));

    /* Reset the Output N Polarity level */
    tmpccer &= ~TIM_CCER_CC3NP;
 80039f2:	697b      	ldr	r3, [r7, #20]
 80039f4:	f423 6300 	bic.w	r3, r3, #2048	; 0x800
 80039f8:	617b      	str	r3, [r7, #20]
    /* Set the Output N Polarity */
    tmpccer |= (OC_Config->OCNPolarity << 8U);
 80039fa:	683b      	ldr	r3, [r7, #0]
 80039fc:	68db      	ldr	r3, [r3, #12]
 80039fe:	021b      	lsls	r3, r3, #8
 8003a00:	697a      	ldr	r2, [r7, #20]
 8003a02:	4313      	orrs	r3, r2
 8003a04:	617b      	str	r3, [r7, #20]
    /* Reset the Output N State */
    tmpccer &= ~TIM_CCER_CC3NE;
 8003a06:	697b      	ldr	r3, [r7, #20]
 8003a08:	f423 6380 	bic.w	r3, r3, #1024	; 0x400
 8003a0c:	617b      	str	r3, [r7, #20]
  }

  if (IS_TIM_BREAK_INSTANCE(TIMx))
 8003a0e:	687b      	ldr	r3, [r7, #4]
 8003a10:	4a16      	ldr	r2, [pc, #88]	; (8003a6c <TIM_OC3_SetConfig+0xe0>)
 8003a12:	4293      	cmp	r3, r2
 8003a14:	d003      	beq.n	8003a1e <TIM_OC3_SetConfig+0x92>
 8003a16:	687b      	ldr	r3, [r7, #4]
 8003a18:	4a15      	ldr	r2, [pc, #84]	; (8003a70 <TIM_OC3_SetConfig+0xe4>)
 8003a1a:	4293      	cmp	r3, r2
 8003a1c:	d113      	bne.n	8003a46 <TIM_OC3_SetConfig+0xba>
    /* Check parameters */
    assert_param(IS_TIM_OCNIDLE_STATE(OC_Config->OCNIdleState));
    assert_param(IS_TIM_OCIDLE_STATE(OC_Config->OCIdleState));

    /* Reset the Output Compare and Output Compare N IDLE State */
    tmpcr2 &= ~TIM_CR2_OIS3;
 8003a1e:	693b      	ldr	r3, [r7, #16]
 8003a20:	f423 5380 	bic.w	r3, r3, #4096	; 0x1000
 8003a24:	613b      	str	r3, [r7, #16]
    tmpcr2 &= ~TIM_CR2_OIS3N;
 8003a26:	693b      	ldr	r3, [r7, #16]
 8003a28:	f423 5300 	bic.w	r3, r3, #8192	; 0x2000
 8003a2c:	613b      	str	r3, [r7, #16]
    /* Set the Output Idle state */
    tmpcr2 |= (OC_Config->OCIdleState << 4U);
 8003a2e:	683b      	ldr	r3, [r7, #0]
 8003a30:	695b      	ldr	r3, [r3, #20]
 8003a32:	011b      	lsls	r3, r3, #4
 8003a34:	693a      	ldr	r2, [r7, #16]
 8003a36:	4313      	orrs	r3, r2
 8003a38:	613b      	str	r3, [r7, #16]
    /* Set the Output N Idle state */
    tmpcr2 |= (OC_Config->OCNIdleState << 4U);
 8003a3a:	683b      	ldr	r3, [r7, #0]
 8003a3c:	699b      	ldr	r3, [r3, #24]
 8003a3e:	011b      	lsls	r3, r3, #4
 8003a40:	693a      	ldr	r2, [r7, #16]
 8003a42:	4313      	orrs	r3, r2
 8003a44:	613b      	str	r3, [r7, #16]
  }

  /* Write to TIMx CR2 */
  TIMx->CR2 = tmpcr2;
 8003a46:	687b      	ldr	r3, [r7, #4]
 8003a48:	693a      	ldr	r2, [r7, #16]
 8003a4a:	605a      	str	r2, [r3, #4]

  /* Write to TIMx CCMR2 */
  TIMx->CCMR2 = tmpccmrx;
 8003a4c:	687b      	ldr	r3, [r7, #4]
 8003a4e:	68fa      	ldr	r2, [r7, #12]
 8003a50:	61da      	str	r2, [r3, #28]

  /* Set the Capture Compare Register value */
  TIMx->CCR3 = OC_Config->Pulse;
 8003a52:	683b      	ldr	r3, [r7, #0]
 8003a54:	685a      	ldr	r2, [r3, #4]
 8003a56:	687b      	ldr	r3, [r7, #4]
 8003a58:	63da      	str	r2, [r3, #60]	; 0x3c

  /* Write to TIMx CCER */
  TIMx->CCER = tmpccer;
 8003a5a:	687b      	ldr	r3, [r7, #4]
 8003a5c:	697a      	ldr	r2, [r7, #20]
 8003a5e:	621a      	str	r2, [r3, #32]
}
 8003a60:	bf00      	nop
 8003a62:	371c      	adds	r7, #28
 8003a64:	46bd      	mov	sp, r7
 8003a66:	f85d 7b04 	ldr.w	r7, [sp], #4
 8003a6a:	4770      	bx	lr
 8003a6c:	40010000 	.word	0x40010000
 8003a70:	40010400 	.word	0x40010400

08003a74 <TIM_OC4_SetConfig>:
  * @param  TIMx to select the TIM peripheral
  * @param  OC_Config The output configuration structure
  * @retval None
  */
static void TIM_OC4_SetConfig(TIM_TypeDef *TIMx, TIM_OC_InitTypeDef *OC_Config)
{
 8003a74:	b480      	push	{r7}
 8003a76:	b087      	sub	sp, #28
 8003a78:	af00      	add	r7, sp, #0
 8003a7a:	6078      	str	r0, [r7, #4]
 8003a7c:	6039      	str	r1, [r7, #0]
  uint32_t tmpccmrx;
  uint32_t tmpccer;
  uint32_t tmpcr2;

  /* Disable the Channel 4: Reset the CC4E Bit */
  TIMx->CCER &= ~TIM_CCER_CC4E;
 8003a7e:	687b      	ldr	r3, [r7, #4]
 8003a80:	6a1b      	ldr	r3, [r3, #32]
 8003a82:	f423 5280 	bic.w	r2, r3, #4096	; 0x1000
 8003a86:	687b      	ldr	r3, [r7, #4]
 8003a88:	621a      	str	r2, [r3, #32]

  /* Get the TIMx CCER register value */
  tmpccer = TIMx->CCER;
 8003a8a:	687b      	ldr	r3, [r7, #4]
 8003a8c:	6a1b      	ldr	r3, [r3, #32]
 8003a8e:	613b      	str	r3, [r7, #16]
  /* Get the TIMx CR2 register value */
  tmpcr2 =  TIMx->CR2;
 8003a90:	687b      	ldr	r3, [r7, #4]
 8003a92:	685b      	ldr	r3, [r3, #4]
 8003a94:	617b      	str	r3, [r7, #20]

  /* Get the TIMx CCMR2 register value */
  tmpccmrx = TIMx->CCMR2;
 8003a96:	687b      	ldr	r3, [r7, #4]
 8003a98:	69db      	ldr	r3, [r3, #28]
 8003a9a:	60fb      	str	r3, [r7, #12]

  /* Reset the Output Compare mode and Capture/Compare selection Bits */
  tmpccmrx &= ~TIM_CCMR2_OC4M;
 8003a9c:	68fb      	ldr	r3, [r7, #12]
 8003a9e:	f423 43e0 	bic.w	r3, r3, #28672	; 0x7000
 8003aa2:	60fb      	str	r3, [r7, #12]
  tmpccmrx &= ~TIM_CCMR2_CC4S;
 8003aa4:	68fb      	ldr	r3, [r7, #12]
 8003aa6:	f423 7340 	bic.w	r3, r3, #768	; 0x300
 8003aaa:	60fb      	str	r3, [r7, #12]

  /* Select the Output Compare Mode */
  tmpccmrx |= (OC_Config->OCMode << 8U);
 8003aac:	683b      	ldr	r3, [r7, #0]
 8003aae:	681b      	ldr	r3, [r3, #0]
 8003ab0:	021b      	lsls	r3, r3, #8
 8003ab2:	68fa      	ldr	r2, [r7, #12]
 8003ab4:	4313      	orrs	r3, r2
 8003ab6:	60fb      	str	r3, [r7, #12]

  /* Reset the Output Polarity level */
  tmpccer &= ~TIM_CCER_CC4P;
 8003ab8:	693b      	ldr	r3, [r7, #16]
 8003aba:	f423 5300 	bic.w	r3, r3, #8192	; 0x2000
 8003abe:	613b      	str	r3, [r7, #16]
  /* Set the Output Compare Polarity */
  tmpccer |= (OC_Config->OCPolarity << 12U);
 8003ac0:	683b      	ldr	r3, [r7, #0]
 8003ac2:	689b      	ldr	r3, [r3, #8]
 8003ac4:	031b      	lsls	r3, r3, #12
 8003ac6:	693a      	ldr	r2, [r7, #16]
 8003ac8:	4313      	orrs	r3, r2
 8003aca:	613b      	str	r3, [r7, #16]

  if (IS_TIM_BREAK_INSTANCE(TIMx))
 8003acc:	687b      	ldr	r3, [r7, #4]
 8003ace:	4a12      	ldr	r2, [pc, #72]	; (8003b18 <TIM_OC4_SetConfig+0xa4>)
 8003ad0:	4293      	cmp	r3, r2
 8003ad2:	d003      	beq.n	8003adc <TIM_OC4_SetConfig+0x68>
 8003ad4:	687b      	ldr	r3, [r7, #4]
 8003ad6:	4a11      	ldr	r2, [pc, #68]	; (8003b1c <TIM_OC4_SetConfig+0xa8>)
 8003ad8:	4293      	cmp	r3, r2
 8003ada:	d109      	bne.n	8003af0 <TIM_OC4_SetConfig+0x7c>
  {
    /* Check parameters */
    assert_param(IS_TIM_OCIDLE_STATE(OC_Config->OCIdleState));

    /* Reset the Output Compare IDLE State */
    tmpcr2 &= ~TIM_CR2_OIS4;
 8003adc:	697b      	ldr	r3, [r7, #20]
 8003ade:	f423 4380 	bic.w	r3, r3, #16384	; 0x4000
 8003ae2:	617b      	str	r3, [r7, #20]

    /* Set the Output Idle state */
    tmpcr2 |= (OC_Config->OCIdleState << 6U);
 8003ae4:	683b      	ldr	r3, [r7, #0]
 8003ae6:	695b      	ldr	r3, [r3, #20]
 8003ae8:	019b      	lsls	r3, r3, #6
 8003aea:	697a      	ldr	r2, [r7, #20]
 8003aec:	4313      	orrs	r3, r2
 8003aee:	617b      	str	r3, [r7, #20]
  }

  /* Write to TIMx CR2 */
  TIMx->CR2 = tmpcr2;
 8003af0:	687b      	ldr	r3, [r7, #4]
 8003af2:	697a      	ldr	r2, [r7, #20]
 8003af4:	605a      	str	r2, [r3, #4]

  /* Write to TIMx CCMR2 */
  TIMx->CCMR2 = tmpccmrx;
 8003af6:	687b      	ldr	r3, [r7, #4]
 8003af8:	68fa      	ldr	r2, [r7, #12]
 8003afa:	61da      	str	r2, [r3, #28]

  /* Set the Capture Compare Register value */
  TIMx->CCR4 = OC_Config->Pulse;
 8003afc:	683b      	ldr	r3, [r7, #0]
 8003afe:	685a      	ldr	r2, [r3, #4]
 8003b00:	687b      	ldr	r3, [r7, #4]
 8003b02:	641a      	str	r2, [r3, #64]	; 0x40

  /* Write to TIMx CCER */
  TIMx->CCER = tmpccer;
 8003b04:	687b      	ldr	r3, [r7, #4]
 8003b06:	693a      	ldr	r2, [r7, #16]
 8003b08:	621a      	str	r2, [r3, #32]
}
 8003b0a:	bf00      	nop
 8003b0c:	371c      	adds	r7, #28
 8003b0e:	46bd      	mov	sp, r7
 8003b10:	f85d 7b04 	ldr.w	r7, [sp], #4
 8003b14:	4770      	bx	lr
 8003b16:	bf00      	nop
 8003b18:	40010000 	.word	0x40010000
 8003b1c:	40010400 	.word	0x40010400

08003b20 <TIM_TI1_ConfigInputStage>:
  * @param  TIM_ICFilter Specifies the Input Capture Filter.
  *          This parameter must be a value between 0x00 and 0x0F.
  * @retval None
  */
static void TIM_TI1_ConfigInputStage(TIM_TypeDef *TIMx, uint32_t TIM_ICPolarity, uint32_t TIM_ICFilter)
{
 8003b20:	b480      	push	{r7}
 8003b22:	b087      	sub	sp, #28
 8003b24:	af00      	add	r7, sp, #0
 8003b26:	60f8      	str	r0, [r7, #12]
 8003b28:	60b9      	str	r1, [r7, #8]
 8003b2a:	607a      	str	r2, [r7, #4]
  uint32_t tmpccmr1;
  uint32_t tmpccer;

  /* Disable the Channel 1: Reset the CC1E Bit */
  tmpccer = TIMx->CCER;
 8003b2c:	68fb      	ldr	r3, [r7, #12]
 8003b2e:	6a1b      	ldr	r3, [r3, #32]
 8003b30:	617b      	str	r3, [r7, #20]
  TIMx->CCER &= ~TIM_CCER_CC1E;
 8003b32:	68fb      	ldr	r3, [r7, #12]
 8003b34:	6a1b      	ldr	r3, [r3, #32]
 8003b36:	f023 0201 	bic.w	r2, r3, #1
 8003b3a:	68fb      	ldr	r3, [r7, #12]
 8003b3c:	621a      	str	r2, [r3, #32]
  tmpccmr1 = TIMx->CCMR1;
 8003b3e:	68fb      	ldr	r3, [r7, #12]
 8003b40:	699b      	ldr	r3, [r3, #24]
 8003b42:	613b      	str	r3, [r7, #16]

  /* Set the filter */
  tmpccmr1 &= ~TIM_CCMR1_IC1F;
 8003b44:	693b      	ldr	r3, [r7, #16]
 8003b46:	f023 03f0 	bic.w	r3, r3, #240	; 0xf0
 8003b4a:	613b      	str	r3, [r7, #16]
  tmpccmr1 |= (TIM_ICFilter << 4U);
 8003b4c:	687b      	ldr	r3, [r7, #4]
 8003b4e:	011b      	lsls	r3, r3, #4
 8003b50:	693a      	ldr	r2, [r7, #16]
 8003b52:	4313      	orrs	r3, r2
 8003b54:	613b      	str	r3, [r7, #16]

  /* Select the Polarity and set the CC1E Bit */
  tmpccer &= ~(TIM_CCER_CC1P | TIM_CCER_CC1NP);
 8003b56:	697b      	ldr	r3, [r7, #20]
 8003b58:	f023 030a 	bic.w	r3, r3, #10
 8003b5c:	617b      	str	r3, [r7, #20]
  tmpccer |= TIM_ICPolarity;
 8003b5e:	697a      	ldr	r2, [r7, #20]
 8003b60:	68bb      	ldr	r3, [r7, #8]
 8003b62:	4313      	orrs	r3, r2
 8003b64:	617b      	str	r3, [r7, #20]

  /* Write to TIMx CCMR1 and CCER registers */
  TIMx->CCMR1 = tmpccmr1;
 8003b66:	68fb      	ldr	r3, [r7, #12]
 8003b68:	693a      	ldr	r2, [r7, #16]
 8003b6a:	619a      	str	r2, [r3, #24]
  TIMx->CCER = tmpccer;
 8003b6c:	68fb      	ldr	r3, [r7, #12]
 8003b6e:	697a      	ldr	r2, [r7, #20]
 8003b70:	621a      	str	r2, [r3, #32]
}
 8003b72:	bf00      	nop
 8003b74:	371c      	adds	r7, #28
 8003b76:	46bd      	mov	sp, r7
 8003b78:	f85d 7b04 	ldr.w	r7, [sp], #4
 8003b7c:	4770      	bx	lr

08003b7e <TIM_TI2_ConfigInputStage>:
  * @param  TIM_ICFilter Specifies the Input Capture Filter.
  *          This parameter must be a value between 0x00 and 0x0F.
  * @retval None
  */
static void TIM_TI2_ConfigInputStage(TIM_TypeDef *TIMx, uint32_t TIM_ICPolarity, uint32_t TIM_ICFilter)
{
 8003b7e:	b480      	push	{r7}
 8003b80:	b087      	sub	sp, #28
 8003b82:	af00      	add	r7, sp, #0
 8003b84:	60f8      	str	r0, [r7, #12]
 8003b86:	60b9      	str	r1, [r7, #8]
 8003b88:	607a      	str	r2, [r7, #4]
  uint32_t tmpccmr1;
  uint32_t tmpccer;

  /* Disable the Channel 2: Reset the CC2E Bit */
  TIMx->CCER &= ~TIM_CCER_CC2E;
 8003b8a:	68fb      	ldr	r3, [r7, #12]
 8003b8c:	6a1b      	ldr	r3, [r3, #32]
 8003b8e:	f023 0210 	bic.w	r2, r3, #16
 8003b92:	68fb      	ldr	r3, [r7, #12]
 8003b94:	621a      	str	r2, [r3, #32]
  tmpccmr1 = TIMx->CCMR1;
 8003b96:	68fb      	ldr	r3, [r7, #12]
 8003b98:	699b      	ldr	r3, [r3, #24]
 8003b9a:	617b      	str	r3, [r7, #20]
  tmpccer = TIMx->CCER;
 8003b9c:	68fb      	ldr	r3, [r7, #12]
 8003b9e:	6a1b      	ldr	r3, [r3, #32]
 8003ba0:	613b      	str	r3, [r7, #16]

  /* Set the filter */
  tmpccmr1 &= ~TIM_CCMR1_IC2F;
 8003ba2:	697b      	ldr	r3, [r7, #20]
 8003ba4:	f423 4370 	bic.w	r3, r3, #61440	; 0xf000
 8003ba8:	617b      	str	r3, [r7, #20]
  tmpccmr1 |= (TIM_ICFilter << 12U);
 8003baa:	687b      	ldr	r3, [r7, #4]
 8003bac:	031b      	lsls	r3, r3, #12
 8003bae:	697a      	ldr	r2, [r7, #20]
 8003bb0:	4313      	orrs	r3, r2
 8003bb2:	617b      	str	r3, [r7, #20]

  /* Select the Polarity and set the CC2E Bit */
  tmpccer &= ~(TIM_CCER_CC2P | TIM_CCER_CC2NP);
 8003bb4:	693b      	ldr	r3, [r7, #16]
 8003bb6:	f023 03a0 	bic.w	r3, r3, #160	; 0xa0
 8003bba:	613b      	str	r3, [r7, #16]
  tmpccer |= (TIM_ICPolarity << 4U);
 8003bbc:	68bb      	ldr	r3, [r7, #8]
 8003bbe:	011b      	lsls	r3, r3, #4
 8003bc0:	693a      	ldr	r2, [r7, #16]
 8003bc2:	4313      	orrs	r3, r2
 8003bc4:	613b      	str	r3, [r7, #16]

  /* Write to TIMx CCMR1 and CCER registers */
  TIMx->CCMR1 = tmpccmr1 ;
 8003bc6:	68fb      	ldr	r3, [r7, #12]
 8003bc8:	697a      	ldr	r2, [r7, #20]
 8003bca:	619a      	str	r2, [r3, #24]
  TIMx->CCER = tmpccer;
 8003bcc:	68fb      	ldr	r3, [r7, #12]
 8003bce:	693a      	ldr	r2, [r7, #16]
 8003bd0:	621a      	str	r2, [r3, #32]
}
 8003bd2:	bf00      	nop
 8003bd4:	371c      	adds	r7, #28
 8003bd6:	46bd      	mov	sp, r7
 8003bd8:	f85d 7b04 	ldr.w	r7, [sp], #4
 8003bdc:	4770      	bx	lr

08003bde <TIM_ITRx_SetConfig>:
  *            @arg TIM_TS_TI2FP2: Filtered Timer Input 2
  *            @arg TIM_TS_ETRF: External Trigger input
  * @retval None
  */
static void TIM_ITRx_SetConfig(TIM_TypeDef *TIMx, uint32_t InputTriggerSource)
{
 8003bde:	b480      	push	{r7}
 8003be0:	b085      	sub	sp, #20
 8003be2:	af00      	add	r7, sp, #0
 8003be4:	6078      	str	r0, [r7, #4]
 8003be6:	6039      	str	r1, [r7, #0]
  uint32_t tmpsmcr;

  /* Get the TIMx SMCR register value */
  tmpsmcr = TIMx->SMCR;
 8003be8:	687b      	ldr	r3, [r7, #4]
 8003bea:	689b      	ldr	r3, [r3, #8]
 8003bec:	60fb      	str	r3, [r7, #12]
  /* Reset the TS Bits */
  tmpsmcr &= ~TIM_SMCR_TS;
 8003bee:	68fb      	ldr	r3, [r7, #12]
 8003bf0:	f023 0370 	bic.w	r3, r3, #112	; 0x70
 8003bf4:	60fb      	str	r3, [r7, #12]
  /* Set the Input Trigger source and the slave mode*/
  tmpsmcr |= (InputTriggerSource | TIM_SLAVEMODE_EXTERNAL1);
 8003bf6:	683a      	ldr	r2, [r7, #0]
 8003bf8:	68fb      	ldr	r3, [r7, #12]
 8003bfa:	4313      	orrs	r3, r2
 8003bfc:	f043 0307 	orr.w	r3, r3, #7
 8003c00:	60fb      	str	r3, [r7, #12]
  /* Write to TIMx SMCR */
  TIMx->SMCR = tmpsmcr;
 8003c02:	687b      	ldr	r3, [r7, #4]
 8003c04:	68fa      	ldr	r2, [r7, #12]
 8003c06:	609a      	str	r2, [r3, #8]
}
 8003c08:	bf00      	nop
 8003c0a:	3714      	adds	r7, #20
 8003c0c:	46bd      	mov	sp, r7
 8003c0e:	f85d 7b04 	ldr.w	r7, [sp], #4
 8003c12:	4770      	bx	lr

08003c14 <TIM_ETR_SetConfig>:
  *          This parameter must be a value between 0x00 and 0x0F
  * @retval None
  */
void TIM_ETR_SetConfig(TIM_TypeDef *TIMx, uint32_t TIM_ExtTRGPrescaler,
                       uint32_t TIM_ExtTRGPolarity, uint32_t ExtTRGFilter)
{
 8003c14:	b480      	push	{r7}
 8003c16:	b087      	sub	sp, #28
 8003c18:	af00      	add	r7, sp, #0
 8003c1a:	60f8      	str	r0, [r7, #12]
 8003c1c:	60b9      	str	r1, [r7, #8]
 8003c1e:	607a      	str	r2, [r7, #4]
 8003c20:	603b      	str	r3, [r7, #0]
  uint32_t tmpsmcr;

  tmpsmcr = TIMx->SMCR;
 8003c22:	68fb      	ldr	r3, [r7, #12]
 8003c24:	689b      	ldr	r3, [r3, #8]
 8003c26:	617b      	str	r3, [r7, #20]

  /* Reset the ETR Bits */
  tmpsmcr &= ~(TIM_SMCR_ETF | TIM_SMCR_ETPS | TIM_SMCR_ECE | TIM_SMCR_ETP);
 8003c28:	697b      	ldr	r3, [r7, #20]
 8003c2a:	f423 437f 	bic.w	r3, r3, #65280	; 0xff00
 8003c2e:	617b      	str	r3, [r7, #20]

  /* Set the Prescaler, the Filter value and the Polarity */
  tmpsmcr |= (uint32_t)(TIM_ExtTRGPrescaler | (TIM_ExtTRGPolarity | (ExtTRGFilter << 8U)));
 8003c30:	683b      	ldr	r3, [r7, #0]
 8003c32:	021a      	lsls	r2, r3, #8
 8003c34:	687b      	ldr	r3, [r7, #4]
 8003c36:	431a      	orrs	r2, r3
 8003c38:	68bb      	ldr	r3, [r7, #8]
 8003c3a:	4313      	orrs	r3, r2
 8003c3c:	697a      	ldr	r2, [r7, #20]
 8003c3e:	4313      	orrs	r3, r2
 8003c40:	617b      	str	r3, [r7, #20]

  /* Write to TIMx SMCR */
  TIMx->SMCR = tmpsmcr;
 8003c42:	68fb      	ldr	r3, [r7, #12]
 8003c44:	697a      	ldr	r2, [r7, #20]
 8003c46:	609a      	str	r2, [r3, #8]
}
 8003c48:	bf00      	nop
 8003c4a:	371c      	adds	r7, #28
 8003c4c:	46bd      	mov	sp, r7
 8003c4e:	f85d 7b04 	ldr.w	r7, [sp], #4
 8003c52:	4770      	bx	lr

08003c54 <TIM_CCxChannelCmd>:
  * @param  ChannelState specifies the TIM Channel CCxE bit new state.
  *          This parameter can be: TIM_CCx_ENABLE or TIM_CCx_DISABLE.
  * @retval None
  */
void TIM_CCxChannelCmd(TIM_TypeDef *TIMx, uint32_t Channel, uint32_t ChannelState)
{
 8003c54:	b480      	push	{r7}
 8003c56:	b087      	sub	sp, #28
 8003c58:	af00      	add	r7, sp, #0
 8003c5a:	60f8      	str	r0, [r7, #12]
 8003c5c:	60b9      	str	r1, [r7, #8]
 8003c5e:	607a      	str	r2, [r7, #4]

  /* Check the parameters */
  assert_param(IS_TIM_CC1_INSTANCE(TIMx));
  assert_param(IS_TIM_CHANNELS(Channel));

  tmp = TIM_CCER_CC1E << (Channel & 0x1FU); /* 0x1FU = 31 bits max shift */
 8003c60:	68bb      	ldr	r3, [r7, #8]
 8003c62:	f003 031f 	and.w	r3, r3, #31
 8003c66:	2201      	movs	r2, #1
 8003c68:	fa02 f303 	lsl.w	r3, r2, r3
 8003c6c:	617b      	str	r3, [r7, #20]

  /* Reset the CCxE Bit */
  TIMx->CCER &= ~tmp;
 8003c6e:	68fb      	ldr	r3, [r7, #12]
 8003c70:	6a1a      	ldr	r2, [r3, #32]
 8003c72:	697b      	ldr	r3, [r7, #20]
 8003c74:	43db      	mvns	r3, r3
 8003c76:	401a      	ands	r2, r3
 8003c78:	68fb      	ldr	r3, [r7, #12]
 8003c7a:	621a      	str	r2, [r3, #32]

  /* Set or reset the CCxE Bit */
  TIMx->CCER |= (uint32_t)(ChannelState << (Channel & 0x1FU)); /* 0x1FU = 31 bits max shift */
 8003c7c:	68fb      	ldr	r3, [r7, #12]
 8003c7e:	6a1a      	ldr	r2, [r3, #32]
 8003c80:	68bb      	ldr	r3, [r7, #8]
 8003c82:	f003 031f 	and.w	r3, r3, #31
 8003c86:	6879      	ldr	r1, [r7, #4]
 8003c88:	fa01 f303 	lsl.w	r3, r1, r3
 8003c8c:	431a      	orrs	r2, r3
 8003c8e:	68fb      	ldr	r3, [r7, #12]
 8003c90:	621a      	str	r2, [r3, #32]
}
 8003c92:	bf00      	nop
 8003c94:	371c      	adds	r7, #28
 8003c96:	46bd      	mov	sp, r7
 8003c98:	f85d 7b04 	ldr.w	r7, [sp], #4
 8003c9c:	4770      	bx	lr
	...

08003ca0 <HAL_TIMEx_MasterConfigSynchronization>:
  *         mode.
  * @retval HAL status
  */
HAL_StatusTypeDef HAL_TIMEx_MasterConfigSynchronization(TIM_HandleTypeDef *htim,
                                                        TIM_MasterConfigTypeDef *sMasterConfig)
{
 8003ca0:	b480      	push	{r7}
 8003ca2:	b085      	sub	sp, #20
 8003ca4:	af00      	add	r7, sp, #0
 8003ca6:	6078      	str	r0, [r7, #4]
 8003ca8:	6039      	str	r1, [r7, #0]
  assert_param(IS_TIM_MASTER_INSTANCE(htim->Instance));
  assert_param(IS_TIM_TRGO_SOURCE(sMasterConfig->MasterOutputTrigger));
  assert_param(IS_TIM_MSM_STATE(sMasterConfig->MasterSlaveMode));

  /* Check input state */
  __HAL_LOCK(htim);
 8003caa:	687b      	ldr	r3, [r7, #4]
 8003cac:	f893 303c 	ldrb.w	r3, [r3, #60]	; 0x3c
 8003cb0:	2b01      	cmp	r3, #1
 8003cb2:	d101      	bne.n	8003cb8 <HAL_TIMEx_MasterConfigSynchronization+0x18>
 8003cb4:	2302      	movs	r3, #2
 8003cb6:	e05a      	b.n	8003d6e <HAL_TIMEx_MasterConfigSynchronization+0xce>
 8003cb8:	687b      	ldr	r3, [r7, #4]
 8003cba:	2201      	movs	r2, #1
 8003cbc:	f883 203c 	strb.w	r2, [r3, #60]	; 0x3c

  /* Change the handler state */
  htim->State = HAL_TIM_STATE_BUSY;
 8003cc0:	687b      	ldr	r3, [r7, #4]
 8003cc2:	2202      	movs	r2, #2
 8003cc4:	f883 203d 	strb.w	r2, [r3, #61]	; 0x3d

  /* Get the TIMx CR2 register value */
  tmpcr2 = htim->Instance->CR2;
 8003cc8:	687b      	ldr	r3, [r7, #4]
 8003cca:	681b      	ldr	r3, [r3, #0]
 8003ccc:	685b      	ldr	r3, [r3, #4]
 8003cce:	60fb      	str	r3, [r7, #12]

  /* Get the TIMx SMCR register value */
  tmpsmcr = htim->Instance->SMCR;
 8003cd0:	687b      	ldr	r3, [r7, #4]
 8003cd2:	681b      	ldr	r3, [r3, #0]
 8003cd4:	689b      	ldr	r3, [r3, #8]
 8003cd6:	60bb      	str	r3, [r7, #8]

  /* Reset the MMS Bits */
  tmpcr2 &= ~TIM_CR2_MMS;
 8003cd8:	68fb      	ldr	r3, [r7, #12]
 8003cda:	f023 0370 	bic.w	r3, r3, #112	; 0x70
 8003cde:	60fb      	str	r3, [r7, #12]
  /* Select the TRGO source */
  tmpcr2 |=  sMasterConfig->MasterOutputTrigger;
 8003ce0:	683b      	ldr	r3, [r7, #0]
 8003ce2:	681b      	ldr	r3, [r3, #0]
 8003ce4:	68fa      	ldr	r2, [r7, #12]
 8003ce6:	4313      	orrs	r3, r2
 8003ce8:	60fb      	str	r3, [r7, #12]

  /* Update TIMx CR2 */
  htim->Instance->CR2 = tmpcr2;
 8003cea:	687b      	ldr	r3, [r7, #4]
 8003cec:	681b      	ldr	r3, [r3, #0]
 8003cee:	68fa      	ldr	r2, [r7, #12]
 8003cf0:	605a      	str	r2, [r3, #4]

  if (IS_TIM_SLAVE_INSTANCE(htim->Instance))
 8003cf2:	687b      	ldr	r3, [r7, #4]
 8003cf4:	681b      	ldr	r3, [r3, #0]
 8003cf6:	4a21      	ldr	r2, [pc, #132]	; (8003d7c <HAL_TIMEx_MasterConfigSynchronization+0xdc>)
 8003cf8:	4293      	cmp	r3, r2
 8003cfa:	d022      	beq.n	8003d42 <HAL_TIMEx_MasterConfigSynchronization+0xa2>
 8003cfc:	687b      	ldr	r3, [r7, #4]
 8003cfe:	681b      	ldr	r3, [r3, #0]
 8003d00:	f1b3 4f80 	cmp.w	r3, #1073741824	; 0x40000000
 8003d04:	d01d      	beq.n	8003d42 <HAL_TIMEx_MasterConfigSynchronization+0xa2>
 8003d06:	687b      	ldr	r3, [r7, #4]
 8003d08:	681b      	ldr	r3, [r3, #0]
 8003d0a:	4a1d      	ldr	r2, [pc, #116]	; (8003d80 <HAL_TIMEx_MasterConfigSynchronization+0xe0>)
 8003d0c:	4293      	cmp	r3, r2
 8003d0e:	d018      	beq.n	8003d42 <HAL_TIMEx_MasterConfigSynchronization+0xa2>
 8003d10:	687b      	ldr	r3, [r7, #4]
 8003d12:	681b      	ldr	r3, [r3, #0]
 8003d14:	4a1b      	ldr	r2, [pc, #108]	; (8003d84 <HAL_TIMEx_MasterConfigSynchronization+0xe4>)
 8003d16:	4293      	cmp	r3, r2
 8003d18:	d013      	beq.n	8003d42 <HAL_TIMEx_MasterConfigSynchronization+0xa2>
 8003d1a:	687b      	ldr	r3, [r7, #4]
 8003d1c:	681b      	ldr	r3, [r3, #0]
 8003d1e:	4a1a      	ldr	r2, [pc, #104]	; (8003d88 <HAL_TIMEx_MasterConfigSynchronization+0xe8>)
 8003d20:	4293      	cmp	r3, r2
 8003d22:	d00e      	beq.n	8003d42 <HAL_TIMEx_MasterConfigSynchronization+0xa2>
 8003d24:	687b      	ldr	r3, [r7, #4]
 8003d26:	681b      	ldr	r3, [r3, #0]
 8003d28:	4a18      	ldr	r2, [pc, #96]	; (8003d8c <HAL_TIMEx_MasterConfigSynchronization+0xec>)
 8003d2a:	4293      	cmp	r3, r2
 8003d2c:	d009      	beq.n	8003d42 <HAL_TIMEx_MasterConfigSynchronization+0xa2>
 8003d2e:	687b      	ldr	r3, [r7, #4]
 8003d30:	681b      	ldr	r3, [r3, #0]
 8003d32:	4a17      	ldr	r2, [pc, #92]	; (8003d90 <HAL_TIMEx_MasterConfigSynchronization+0xf0>)
 8003d34:	4293      	cmp	r3, r2
 8003d36:	d004      	beq.n	8003d42 <HAL_TIMEx_MasterConfigSynchronization+0xa2>
 8003d38:	687b      	ldr	r3, [r7, #4]
 8003d3a:	681b      	ldr	r3, [r3, #0]
 8003d3c:	4a15      	ldr	r2, [pc, #84]	; (8003d94 <HAL_TIMEx_MasterConfigSynchronization+0xf4>)
 8003d3e:	4293      	cmp	r3, r2
 8003d40:	d10c      	bne.n	8003d5c <HAL_TIMEx_MasterConfigSynchronization+0xbc>
  {
    /* Reset the MSM Bit */
    tmpsmcr &= ~TIM_SMCR_MSM;
 8003d42:	68bb      	ldr	r3, [r7, #8]
 8003d44:	f023 0380 	bic.w	r3, r3, #128	; 0x80
 8003d48:	60bb      	str	r3, [r7, #8]
    /* Set master mode */
    tmpsmcr |= sMasterConfig->MasterSlaveMode;
 8003d4a:	683b      	ldr	r3, [r7, #0]
 8003d4c:	685b      	ldr	r3, [r3, #4]
 8003d4e:	68ba      	ldr	r2, [r7, #8]
 8003d50:	4313      	orrs	r3, r2
 8003d52:	60bb      	str	r3, [r7, #8]

    /* Update TIMx SMCR */
    htim->Instance->SMCR = tmpsmcr;
 8003d54:	687b      	ldr	r3, [r7, #4]
 8003d56:	681b      	ldr	r3, [r3, #0]
 8003d58:	68ba      	ldr	r2, [r7, #8]
 8003d5a:	609a      	str	r2, [r3, #8]
  }

  /* Change the htim state */
  htim->State = HAL_TIM_STATE_READY;
 8003d5c:	687b      	ldr	r3, [r7, #4]
 8003d5e:	2201      	movs	r2, #1
 8003d60:	f883 203d 	strb.w	r2, [r3, #61]	; 0x3d

  __HAL_UNLOCK(htim);
 8003d64:	687b      	ldr	r3, [r7, #4]
 8003d66:	2200      	movs	r2, #0
 8003d68:	f883 203c 	strb.w	r2, [r3, #60]	; 0x3c

  return HAL_OK;
 8003d6c:	2300      	movs	r3, #0
}
 8003d6e:	4618      	mov	r0, r3
 8003d70:	3714      	adds	r7, #20
 8003d72:	46bd      	mov	sp, r7
 8003d74:	f85d 7b04 	ldr.w	r7, [sp], #4
 8003d78:	4770      	bx	lr
 8003d7a:	bf00      	nop
 8003d7c:	40010000 	.word	0x40010000
 8003d80:	40000400 	.word	0x40000400
 8003d84:	40000800 	.word	0x40000800
 8003d88:	40000c00 	.word	0x40000c00
 8003d8c:	40010400 	.word	0x40010400
 8003d90:	40014000 	.word	0x40014000
 8003d94:	40001800 	.word	0x40001800

08003d98 <HAL_TIMEx_CommutCallback>:
  * @brief  Hall commutation changed callback in non-blocking mode
  * @param  htim TIM handle
  * @retval None
  */
__weak void HAL_TIMEx_CommutCallback(TIM_HandleTypeDef *htim)
{
 8003d98:	b480      	push	{r7}
 8003d9a:	b083      	sub	sp, #12
 8003d9c:	af00      	add	r7, sp, #0
 8003d9e:	6078      	str	r0, [r7, #4]
  UNUSED(htim);

  /* NOTE : This function should not be modified, when the callback is needed,
            the HAL_TIMEx_CommutCallback could be implemented in the user file
   */
}
 8003da0:	bf00      	nop
 8003da2:	370c      	adds	r7, #12
 8003da4:	46bd      	mov	sp, r7
 8003da6:	f85d 7b04 	ldr.w	r7, [sp], #4
 8003daa:	4770      	bx	lr

08003dac <HAL_TIMEx_BreakCallback>:
  * @brief  Hall Break detection callback in non-blocking mode
  * @param  htim TIM handle
  * @retval None
  */
__weak void HAL_TIMEx_BreakCallback(TIM_HandleTypeDef *htim)
{
 8003dac:	b480      	push	{r7}
 8003dae:	b083      	sub	sp, #12
 8003db0:	af00      	add	r7, sp, #0
 8003db2:	6078      	str	r0, [r7, #4]
  UNUSED(htim);

  /* NOTE : This function should not be modified, when the callback is needed,
            the HAL_TIMEx_BreakCallback could be implemented in the user file
   */
}
 8003db4:	bf00      	nop
 8003db6:	370c      	adds	r7, #12
 8003db8:	46bd      	mov	sp, r7
 8003dba:	f85d 7b04 	ldr.w	r7, [sp], #4
 8003dbe:	4770      	bx	lr

08003dc0 <HAL_UART_Init>:
  * @param  huart  Pointer to a UART_HandleTypeDef structure that contains
  *                the configuration information for the specified UART module.
  * @retval HAL status
  */
HAL_StatusTypeDef HAL_UART_Init(UART_HandleTypeDef *huart)
{
 8003dc0:	b580      	push	{r7, lr}
 8003dc2:	b082      	sub	sp, #8
 8003dc4:	af00      	add	r7, sp, #0
 8003dc6:	6078      	str	r0, [r7, #4]
  /* Check the UART handle allocation */
  if (huart == NULL)
 8003dc8:	687b      	ldr	r3, [r7, #4]
 8003dca:	2b00      	cmp	r3, #0
 8003dcc:	d101      	bne.n	8003dd2 <HAL_UART_Init+0x12>
  {
    return HAL_ERROR;
 8003dce:	2301      	movs	r3, #1
 8003dd0:	e03f      	b.n	8003e52 <HAL_UART_Init+0x92>
    assert_param(IS_UART_INSTANCE(huart->Instance));
  }
  assert_param(IS_UART_WORD_LENGTH(huart->Init.WordLength));
  assert_param(IS_UART_OVERSAMPLING(huart->Init.OverSampling));

  if (huart->gState == HAL_UART_STATE_RESET)
 8003dd2:	687b      	ldr	r3, [r7, #4]
 8003dd4:	f893 303d 	ldrb.w	r3, [r3, #61]	; 0x3d
 8003dd8:	b2db      	uxtb	r3, r3
 8003dda:	2b00      	cmp	r3, #0
 8003ddc:	d106      	bne.n	8003dec <HAL_UART_Init+0x2c>
  {
    /* Allocate lock resource and initialize it */
    huart->Lock = HAL_UNLOCKED;
 8003dde:	687b      	ldr	r3, [r7, #4]
 8003de0:	2200      	movs	r2, #0
 8003de2:	f883 203c 	strb.w	r2, [r3, #60]	; 0x3c

    /* Init the low level hardware */
    huart->MspInitCallback(huart);
#else
    /* Init the low level hardware : GPIO, CLOCK */
    HAL_UART_MspInit(huart);
 8003de6:	6878      	ldr	r0, [r7, #4]
 8003de8:	f7fd f964 	bl	80010b4 <HAL_UART_MspInit>
#endif /* (USE_HAL_UART_REGISTER_CALLBACKS) */
  }

  huart->gState = HAL_UART_STATE_BUSY;
 8003dec:	687b      	ldr	r3, [r7, #4]
 8003dee:	2224      	movs	r2, #36	; 0x24
 8003df0:	f883 203d 	strb.w	r2, [r3, #61]	; 0x3d

  /* Disable the peripheral */
  __HAL_UART_DISABLE(huart);
 8003df4:	687b      	ldr	r3, [r7, #4]
 8003df6:	681b      	ldr	r3, [r3, #0]
 8003df8:	68da      	ldr	r2, [r3, #12]
 8003dfa:	687b      	ldr	r3, [r7, #4]
 8003dfc:	681b      	ldr	r3, [r3, #0]
 8003dfe:	f422 5200 	bic.w	r2, r2, #8192	; 0x2000
 8003e02:	60da      	str	r2, [r3, #12]

  /* Set the UART Communication parameters */
  UART_SetConfig(huart);
 8003e04:	6878      	ldr	r0, [r7, #4]
 8003e06:	f000 fe19 	bl	8004a3c <UART_SetConfig>

  /* In asynchronous mode, the following bits must be kept cleared:
     - LINEN and CLKEN bits in the USART_CR2 register,
     - SCEN, HDSEL and IREN  bits in the USART_CR3 register.*/
  CLEAR_BIT(huart->Instance->CR2, (USART_CR2_LINEN | USART_CR2_CLKEN));
 8003e0a:	687b      	ldr	r3, [r7, #4]
 8003e0c:	681b      	ldr	r3, [r3, #0]
 8003e0e:	691a      	ldr	r2, [r3, #16]
 8003e10:	687b      	ldr	r3, [r7, #4]
 8003e12:	681b      	ldr	r3, [r3, #0]
 8003e14:	f422 4290 	bic.w	r2, r2, #18432	; 0x4800
 8003e18:	611a      	str	r2, [r3, #16]
  CLEAR_BIT(huart->Instance->CR3, (USART_CR3_SCEN | USART_CR3_HDSEL | USART_CR3_IREN));
 8003e1a:	687b      	ldr	r3, [r7, #4]
 8003e1c:	681b      	ldr	r3, [r3, #0]
 8003e1e:	695a      	ldr	r2, [r3, #20]
 8003e20:	687b      	ldr	r3, [r7, #4]
 8003e22:	681b      	ldr	r3, [r3, #0]
 8003e24:	f022 022a 	bic.w	r2, r2, #42	; 0x2a
 8003e28:	615a      	str	r2, [r3, #20]

  /* Enable the peripheral */
  __HAL_UART_ENABLE(huart);
 8003e2a:	687b      	ldr	r3, [r7, #4]
 8003e2c:	681b      	ldr	r3, [r3, #0]
 8003e2e:	68da      	ldr	r2, [r3, #12]
 8003e30:	687b      	ldr	r3, [r7, #4]
 8003e32:	681b      	ldr	r3, [r3, #0]
 8003e34:	f442 5200 	orr.w	r2, r2, #8192	; 0x2000
 8003e38:	60da      	str	r2, [r3, #12]

  /* Initialize the UART state */
  huart->ErrorCode = HAL_UART_ERROR_NONE;
 8003e3a:	687b      	ldr	r3, [r7, #4]
 8003e3c:	2200      	movs	r2, #0
 8003e3e:	641a      	str	r2, [r3, #64]	; 0x40
  huart->gState = HAL_UART_STATE_READY;
 8003e40:	687b      	ldr	r3, [r7, #4]
 8003e42:	2220      	movs	r2, #32
 8003e44:	f883 203d 	strb.w	r2, [r3, #61]	; 0x3d
  huart->RxState = HAL_UART_STATE_READY;
 8003e48:	687b      	ldr	r3, [r7, #4]
 8003e4a:	2220      	movs	r2, #32
 8003e4c:	f883 203e 	strb.w	r2, [r3, #62]	; 0x3e

  return HAL_OK;
 8003e50:	2300      	movs	r3, #0
}
 8003e52:	4618      	mov	r0, r3
 8003e54:	3708      	adds	r7, #8
 8003e56:	46bd      	mov	sp, r7
 8003e58:	bd80      	pop	{r7, pc}

08003e5a <HAL_UART_Transmit>:
  * @param  Size  Amount of data elements (u8 or u16) to be sent
  * @param  Timeout Timeout duration
  * @retval HAL status
  */
HAL_StatusTypeDef HAL_UART_Transmit(UART_HandleTypeDef *huart, uint8_t *pData, uint16_t Size, uint32_t Timeout)
{
 8003e5a:	b580      	push	{r7, lr}
 8003e5c:	b08a      	sub	sp, #40	; 0x28
 8003e5e:	af02      	add	r7, sp, #8
 8003e60:	60f8      	str	r0, [r7, #12]
 8003e62:	60b9      	str	r1, [r7, #8]
 8003e64:	603b      	str	r3, [r7, #0]
 8003e66:	4613      	mov	r3, r2
 8003e68:	80fb      	strh	r3, [r7, #6]
  uint8_t  *pdata8bits;
  uint16_t *pdata16bits;
  uint32_t tickstart = 0U;
 8003e6a:	2300      	movs	r3, #0
 8003e6c:	617b      	str	r3, [r7, #20]

  /* Check that a Tx process is not already ongoing */
  if (huart->gState == HAL_UART_STATE_READY)
 8003e6e:	68fb      	ldr	r3, [r7, #12]
 8003e70:	f893 303d 	ldrb.w	r3, [r3, #61]	; 0x3d
 8003e74:	b2db      	uxtb	r3, r3
 8003e76:	2b20      	cmp	r3, #32
 8003e78:	d17c      	bne.n	8003f74 <HAL_UART_Transmit+0x11a>
  {
    if ((pData == NULL) || (Size == 0U))
 8003e7a:	68bb      	ldr	r3, [r7, #8]
 8003e7c:	2b00      	cmp	r3, #0
 8003e7e:	d002      	beq.n	8003e86 <HAL_UART_Transmit+0x2c>
 8003e80:	88fb      	ldrh	r3, [r7, #6]
 8003e82:	2b00      	cmp	r3, #0
 8003e84:	d101      	bne.n	8003e8a <HAL_UART_Transmit+0x30>
    {
      return  HAL_ERROR;
 8003e86:	2301      	movs	r3, #1
 8003e88:	e075      	b.n	8003f76 <HAL_UART_Transmit+0x11c>
    }

    /* Process Locked */
    __HAL_LOCK(huart);
 8003e8a:	68fb      	ldr	r3, [r7, #12]
 8003e8c:	f893 303c 	ldrb.w	r3, [r3, #60]	; 0x3c
 8003e90:	2b01      	cmp	r3, #1
 8003e92:	d101      	bne.n	8003e98 <HAL_UART_Transmit+0x3e>
 8003e94:	2302      	movs	r3, #2
 8003e96:	e06e      	b.n	8003f76 <HAL_UART_Transmit+0x11c>
 8003e98:	68fb      	ldr	r3, [r7, #12]
 8003e9a:	2201      	movs	r2, #1
 8003e9c:	f883 203c 	strb.w	r2, [r3, #60]	; 0x3c

    huart->ErrorCode = HAL_UART_ERROR_NONE;
 8003ea0:	68fb      	ldr	r3, [r7, #12]
 8003ea2:	2200      	movs	r2, #0
 8003ea4:	641a      	str	r2, [r3, #64]	; 0x40
    huart->gState = HAL_UART_STATE_BUSY_TX;
 8003ea6:	68fb      	ldr	r3, [r7, #12]
 8003ea8:	2221      	movs	r2, #33	; 0x21
 8003eaa:	f883 203d 	strb.w	r2, [r3, #61]	; 0x3d

    /* Init tickstart for timeout management */
    tickstart = HAL_GetTick();
 8003eae:	f7fd fb03 	bl	80014b8 <HAL_GetTick>
 8003eb2:	6178      	str	r0, [r7, #20]

    huart->TxXferSize = Size;
 8003eb4:	68fb      	ldr	r3, [r7, #12]
 8003eb6:	88fa      	ldrh	r2, [r7, #6]
 8003eb8:	849a      	strh	r2, [r3, #36]	; 0x24
    huart->TxXferCount = Size;
 8003eba:	68fb      	ldr	r3, [r7, #12]
 8003ebc:	88fa      	ldrh	r2, [r7, #6]
 8003ebe:	84da      	strh	r2, [r3, #38]	; 0x26

    /* In case of 9bits/No Parity transfer, pData needs to be handled as a uint16_t pointer */
    if ((huart->Init.WordLength == UART_WORDLENGTH_9B) && (huart->Init.Parity == UART_PARITY_NONE))
 8003ec0:	68fb      	ldr	r3, [r7, #12]
 8003ec2:	689b      	ldr	r3, [r3, #8]
 8003ec4:	f5b3 5f80 	cmp.w	r3, #4096	; 0x1000
 8003ec8:	d108      	bne.n	8003edc <HAL_UART_Transmit+0x82>
 8003eca:	68fb      	ldr	r3, [r7, #12]
 8003ecc:	691b      	ldr	r3, [r3, #16]
 8003ece:	2b00      	cmp	r3, #0
 8003ed0:	d104      	bne.n	8003edc <HAL_UART_Transmit+0x82>
    {
      pdata8bits  = NULL;
 8003ed2:	2300      	movs	r3, #0
 8003ed4:	61fb      	str	r3, [r7, #28]
      pdata16bits = (uint16_t *) pData;
 8003ed6:	68bb      	ldr	r3, [r7, #8]
 8003ed8:	61bb      	str	r3, [r7, #24]
 8003eda:	e003      	b.n	8003ee4 <HAL_UART_Transmit+0x8a>
    }
    else
    {
      pdata8bits  = pData;
 8003edc:	68bb      	ldr	r3, [r7, #8]
 8003ede:	61fb      	str	r3, [r7, #28]
      pdata16bits = NULL;
 8003ee0:	2300      	movs	r3, #0
 8003ee2:	61bb      	str	r3, [r7, #24]
    }

    /* Process Unlocked */
    __HAL_UNLOCK(huart);
 8003ee4:	68fb      	ldr	r3, [r7, #12]
 8003ee6:	2200      	movs	r2, #0
 8003ee8:	f883 203c 	strb.w	r2, [r3, #60]	; 0x3c

    while (huart->TxXferCount > 0U)
 8003eec:	e02a      	b.n	8003f44 <HAL_UART_Transmit+0xea>
    {
      if (UART_WaitOnFlagUntilTimeout(huart, UART_FLAG_TXE, RESET, tickstart, Timeout) != HAL_OK)
 8003eee:	683b      	ldr	r3, [r7, #0]
 8003ef0:	9300      	str	r3, [sp, #0]
 8003ef2:	697b      	ldr	r3, [r7, #20]
 8003ef4:	2200      	movs	r2, #0
 8003ef6:	2180      	movs	r1, #128	; 0x80
 8003ef8:	68f8      	ldr	r0, [r7, #12]
 8003efa:	f000 fb9a 	bl	8004632 <UART_WaitOnFlagUntilTimeout>
 8003efe:	4603      	mov	r3, r0
 8003f00:	2b00      	cmp	r3, #0
 8003f02:	d001      	beq.n	8003f08 <HAL_UART_Transmit+0xae>
      {
        return HAL_TIMEOUT;
 8003f04:	2303      	movs	r3, #3
 8003f06:	e036      	b.n	8003f76 <HAL_UART_Transmit+0x11c>
      }
      if (pdata8bits == NULL)
 8003f08:	69fb      	ldr	r3, [r7, #28]
 8003f0a:	2b00      	cmp	r3, #0
 8003f0c:	d10b      	bne.n	8003f26 <HAL_UART_Transmit+0xcc>
      {
        huart->Instance->DR = (uint16_t)(*pdata16bits & 0x01FFU);
 8003f0e:	69bb      	ldr	r3, [r7, #24]
 8003f10:	881b      	ldrh	r3, [r3, #0]
 8003f12:	461a      	mov	r2, r3
 8003f14:	68fb      	ldr	r3, [r7, #12]
 8003f16:	681b      	ldr	r3, [r3, #0]
 8003f18:	f3c2 0208 	ubfx	r2, r2, #0, #9
 8003f1c:	605a      	str	r2, [r3, #4]
        pdata16bits++;
 8003f1e:	69bb      	ldr	r3, [r7, #24]
 8003f20:	3302      	adds	r3, #2
 8003f22:	61bb      	str	r3, [r7, #24]
 8003f24:	e007      	b.n	8003f36 <HAL_UART_Transmit+0xdc>
      }
      else
      {
        huart->Instance->DR = (uint8_t)(*pdata8bits & 0xFFU);
 8003f26:	69fb      	ldr	r3, [r7, #28]
 8003f28:	781a      	ldrb	r2, [r3, #0]
 8003f2a:	68fb      	ldr	r3, [r7, #12]
 8003f2c:	681b      	ldr	r3, [r3, #0]
 8003f2e:	605a      	str	r2, [r3, #4]
        pdata8bits++;
 8003f30:	69fb      	ldr	r3, [r7, #28]
 8003f32:	3301      	adds	r3, #1
 8003f34:	61fb      	str	r3, [r7, #28]
      }
      huart->TxXferCount--;
 8003f36:	68fb      	ldr	r3, [r7, #12]
 8003f38:	8cdb      	ldrh	r3, [r3, #38]	; 0x26
 8003f3a:	b29b      	uxth	r3, r3
 8003f3c:	3b01      	subs	r3, #1
 8003f3e:	b29a      	uxth	r2, r3
 8003f40:	68fb      	ldr	r3, [r7, #12]
 8003f42:	84da      	strh	r2, [r3, #38]	; 0x26
    while (huart->TxXferCount > 0U)
 8003f44:	68fb      	ldr	r3, [r7, #12]
 8003f46:	8cdb      	ldrh	r3, [r3, #38]	; 0x26
 8003f48:	b29b      	uxth	r3, r3
 8003f4a:	2b00      	cmp	r3, #0
 8003f4c:	d1cf      	bne.n	8003eee <HAL_UART_Transmit+0x94>
    }

    if (UART_WaitOnFlagUntilTimeout(huart, UART_FLAG_TC, RESET, tickstart, Timeout) != HAL_OK)
 8003f4e:	683b      	ldr	r3, [r7, #0]
 8003f50:	9300      	str	r3, [sp, #0]
 8003f52:	697b      	ldr	r3, [r7, #20]
 8003f54:	2200      	movs	r2, #0
 8003f56:	2140      	movs	r1, #64	; 0x40
 8003f58:	68f8      	ldr	r0, [r7, #12]
 8003f5a:	f000 fb6a 	bl	8004632 <UART_WaitOnFlagUntilTimeout>
 8003f5e:	4603      	mov	r3, r0
 8003f60:	2b00      	cmp	r3, #0
 8003f62:	d001      	beq.n	8003f68 <HAL_UART_Transmit+0x10e>
    {
      return HAL_TIMEOUT;
 8003f64:	2303      	movs	r3, #3
 8003f66:	e006      	b.n	8003f76 <HAL_UART_Transmit+0x11c>
    }

    /* At end of Tx process, restore huart->gState to Ready */
    huart->gState = HAL_UART_STATE_READY;
 8003f68:	68fb      	ldr	r3, [r7, #12]
 8003f6a:	2220      	movs	r2, #32
 8003f6c:	f883 203d 	strb.w	r2, [r3, #61]	; 0x3d

    return HAL_OK;
 8003f70:	2300      	movs	r3, #0
 8003f72:	e000      	b.n	8003f76 <HAL_UART_Transmit+0x11c>
  }
  else
  {
    return HAL_BUSY;
 8003f74:	2302      	movs	r3, #2
  }
}
 8003f76:	4618      	mov	r0, r3
 8003f78:	3720      	adds	r7, #32
 8003f7a:	46bd      	mov	sp, r7
 8003f7c:	bd80      	pop	{r7, pc}
	...

08003f80 <HAL_UART_Transmit_DMA>:
  * @param  pData Pointer to data buffer (u8 or u16 data elements).
  * @param  Size  Amount of data elements (u8 or u16) to be sent
  * @retval HAL status
  */
HAL_StatusTypeDef HAL_UART_Transmit_DMA(UART_HandleTypeDef *huart, uint8_t *pData, uint16_t Size)
{
 8003f80:	b580      	push	{r7, lr}
 8003f82:	b086      	sub	sp, #24
 8003f84:	af00      	add	r7, sp, #0
 8003f86:	60f8      	str	r0, [r7, #12]
 8003f88:	60b9      	str	r1, [r7, #8]
 8003f8a:	4613      	mov	r3, r2
 8003f8c:	80fb      	strh	r3, [r7, #6]
  uint32_t *tmp;

  /* Check that a Tx process is not already ongoing */
  if (huart->gState == HAL_UART_STATE_READY)
 8003f8e:	68fb      	ldr	r3, [r7, #12]
 8003f90:	f893 303d 	ldrb.w	r3, [r3, #61]	; 0x3d
 8003f94:	b2db      	uxtb	r3, r3
 8003f96:	2b20      	cmp	r3, #32
 8003f98:	d153      	bne.n	8004042 <HAL_UART_Transmit_DMA+0xc2>
  {
    if ((pData == NULL) || (Size == 0U))
 8003f9a:	68bb      	ldr	r3, [r7, #8]
 8003f9c:	2b00      	cmp	r3, #0
 8003f9e:	d002      	beq.n	8003fa6 <HAL_UART_Transmit_DMA+0x26>
 8003fa0:	88fb      	ldrh	r3, [r7, #6]
 8003fa2:	2b00      	cmp	r3, #0
 8003fa4:	d101      	bne.n	8003faa <HAL_UART_Transmit_DMA+0x2a>
    {
      return HAL_ERROR;
 8003fa6:	2301      	movs	r3, #1
 8003fa8:	e04c      	b.n	8004044 <HAL_UART_Transmit_DMA+0xc4>
    }

    /* Process Locked */
    __HAL_LOCK(huart);
 8003faa:	68fb      	ldr	r3, [r7, #12]
 8003fac:	f893 303c 	ldrb.w	r3, [r3, #60]	; 0x3c
 8003fb0:	2b01      	cmp	r3, #1
 8003fb2:	d101      	bne.n	8003fb8 <HAL_UART_Transmit_DMA+0x38>
 8003fb4:	2302      	movs	r3, #2
 8003fb6:	e045      	b.n	8004044 <HAL_UART_Transmit_DMA+0xc4>
 8003fb8:	68fb      	ldr	r3, [r7, #12]
 8003fba:	2201      	movs	r2, #1
 8003fbc:	f883 203c 	strb.w	r2, [r3, #60]	; 0x3c

    huart->pTxBuffPtr = pData;
 8003fc0:	68ba      	ldr	r2, [r7, #8]
 8003fc2:	68fb      	ldr	r3, [r7, #12]
 8003fc4:	621a      	str	r2, [r3, #32]
    huart->TxXferSize = Size;
 8003fc6:	68fb      	ldr	r3, [r7, #12]
 8003fc8:	88fa      	ldrh	r2, [r7, #6]
 8003fca:	849a      	strh	r2, [r3, #36]	; 0x24
    huart->TxXferCount = Size;
 8003fcc:	68fb      	ldr	r3, [r7, #12]
 8003fce:	88fa      	ldrh	r2, [r7, #6]
 8003fd0:	84da      	strh	r2, [r3, #38]	; 0x26

    huart->ErrorCode = HAL_UART_ERROR_NONE;
 8003fd2:	68fb      	ldr	r3, [r7, #12]
 8003fd4:	2200      	movs	r2, #0
 8003fd6:	641a      	str	r2, [r3, #64]	; 0x40
    huart->gState = HAL_UART_STATE_BUSY_TX;
 8003fd8:	68fb      	ldr	r3, [r7, #12]
 8003fda:	2221      	movs	r2, #33	; 0x21
 8003fdc:	f883 203d 	strb.w	r2, [r3, #61]	; 0x3d

    /* Set the UART DMA transfer complete callback */
    huart->hdmatx->XferCpltCallback = UART_DMATransmitCplt;
 8003fe0:	68fb      	ldr	r3, [r7, #12]
 8003fe2:	6b5b      	ldr	r3, [r3, #52]	; 0x34
 8003fe4:	4a19      	ldr	r2, [pc, #100]	; (800404c <HAL_UART_Transmit_DMA+0xcc>)
 8003fe6:	63da      	str	r2, [r3, #60]	; 0x3c

    /* Set the UART DMA Half transfer complete callback */
    huart->hdmatx->XferHalfCpltCallback = UART_DMATxHalfCplt;
 8003fe8:	68fb      	ldr	r3, [r7, #12]
 8003fea:	6b5b      	ldr	r3, [r3, #52]	; 0x34
 8003fec:	4a18      	ldr	r2, [pc, #96]	; (8004050 <HAL_UART_Transmit_DMA+0xd0>)
 8003fee:	641a      	str	r2, [r3, #64]	; 0x40

    /* Set the DMA error callback */
    huart->hdmatx->XferErrorCallback = UART_DMAError;
 8003ff0:	68fb      	ldr	r3, [r7, #12]
 8003ff2:	6b5b      	ldr	r3, [r3, #52]	; 0x34
 8003ff4:	4a17      	ldr	r2, [pc, #92]	; (8004054 <HAL_UART_Transmit_DMA+0xd4>)
 8003ff6:	64da      	str	r2, [r3, #76]	; 0x4c

    /* Set the DMA abort callback */
    huart->hdmatx->XferAbortCallback = NULL;
 8003ff8:	68fb      	ldr	r3, [r7, #12]
 8003ffa:	6b5b      	ldr	r3, [r3, #52]	; 0x34
 8003ffc:	2200      	movs	r2, #0
 8003ffe:	651a      	str	r2, [r3, #80]	; 0x50

    /* Enable the UART transmit DMA stream */
    tmp = (uint32_t *)&pData;
 8004000:	f107 0308 	add.w	r3, r7, #8
 8004004:	617b      	str	r3, [r7, #20]
    HAL_DMA_Start_IT(huart->hdmatx, *(uint32_t *)tmp, (uint32_t)&huart->Instance->DR, Size);
 8004006:	68fb      	ldr	r3, [r7, #12]
 8004008:	6b58      	ldr	r0, [r3, #52]	; 0x34
 800400a:	697b      	ldr	r3, [r7, #20]
 800400c:	6819      	ldr	r1, [r3, #0]
 800400e:	68fb      	ldr	r3, [r7, #12]
 8004010:	681b      	ldr	r3, [r3, #0]
 8004012:	3304      	adds	r3, #4
 8004014:	461a      	mov	r2, r3
 8004016:	88fb      	ldrh	r3, [r7, #6]
 8004018:	f7fd fc1a 	bl	8001850 <HAL_DMA_Start_IT>

    /* Clear the TC flag in the SR register by writing 0 to it */
    __HAL_UART_CLEAR_FLAG(huart, UART_FLAG_TC);
 800401c:	68fb      	ldr	r3, [r7, #12]
 800401e:	681b      	ldr	r3, [r3, #0]
 8004020:	f06f 0240 	mvn.w	r2, #64	; 0x40
 8004024:	601a      	str	r2, [r3, #0]

    /* Process Unlocked */
    __HAL_UNLOCK(huart);
 8004026:	68fb      	ldr	r3, [r7, #12]
 8004028:	2200      	movs	r2, #0
 800402a:	f883 203c 	strb.w	r2, [r3, #60]	; 0x3c

    /* Enable the DMA transfer for transmit request by setting the DMAT bit
       in the UART CR3 register */
    SET_BIT(huart->Instance->CR3, USART_CR3_DMAT);
 800402e:	68fb      	ldr	r3, [r7, #12]
 8004030:	681b      	ldr	r3, [r3, #0]
 8004032:	695a      	ldr	r2, [r3, #20]
 8004034:	68fb      	ldr	r3, [r7, #12]
 8004036:	681b      	ldr	r3, [r3, #0]
 8004038:	f042 0280 	orr.w	r2, r2, #128	; 0x80
 800403c:	615a      	str	r2, [r3, #20]

    return HAL_OK;
 800403e:	2300      	movs	r3, #0
 8004040:	e000      	b.n	8004044 <HAL_UART_Transmit_DMA+0xc4>
  }
  else
  {
    return HAL_BUSY;
 8004042:	2302      	movs	r3, #2
  }
}
 8004044:	4618      	mov	r0, r3
 8004046:	3718      	adds	r7, #24
 8004048:	46bd      	mov	sp, r7
 800404a:	bd80      	pop	{r7, pc}
 800404c:	08004465 	.word	0x08004465
 8004050:	080044b7 	.word	0x080044b7
 8004054:	0800459f 	.word	0x0800459f

08004058 <HAL_UART_Receive_DMA>:
  * @param  Size  Amount of data elements (u8 or u16) to be received.
  * @note   When the UART parity is enabled (PCE = 1) the received data contains the parity bit.
  * @retval HAL status
  */
HAL_StatusTypeDef HAL_UART_Receive_DMA(UART_HandleTypeDef *huart, uint8_t *pData, uint16_t Size)
{
 8004058:	b580      	push	{r7, lr}
 800405a:	b084      	sub	sp, #16
 800405c:	af00      	add	r7, sp, #0
 800405e:	60f8      	str	r0, [r7, #12]
 8004060:	60b9      	str	r1, [r7, #8]
 8004062:	4613      	mov	r3, r2
 8004064:	80fb      	strh	r3, [r7, #6]
  /* Check that a Rx process is not already ongoing */
  if (huart->RxState == HAL_UART_STATE_READY)
 8004066:	68fb      	ldr	r3, [r7, #12]
 8004068:	f893 303e 	ldrb.w	r3, [r3, #62]	; 0x3e
 800406c:	b2db      	uxtb	r3, r3
 800406e:	2b20      	cmp	r3, #32
 8004070:	d11d      	bne.n	80040ae <HAL_UART_Receive_DMA+0x56>
  {
    if ((pData == NULL) || (Size == 0U))
 8004072:	68bb      	ldr	r3, [r7, #8]
 8004074:	2b00      	cmp	r3, #0
 8004076:	d002      	beq.n	800407e <HAL_UART_Receive_DMA+0x26>
 8004078:	88fb      	ldrh	r3, [r7, #6]
 800407a:	2b00      	cmp	r3, #0
 800407c:	d101      	bne.n	8004082 <HAL_UART_Receive_DMA+0x2a>
    {
      return HAL_ERROR;
 800407e:	2301      	movs	r3, #1
 8004080:	e016      	b.n	80040b0 <HAL_UART_Receive_DMA+0x58>
    }

    /* Process Locked */
    __HAL_LOCK(huart);
 8004082:	68fb      	ldr	r3, [r7, #12]
 8004084:	f893 303c 	ldrb.w	r3, [r3, #60]	; 0x3c
 8004088:	2b01      	cmp	r3, #1
 800408a:	d101      	bne.n	8004090 <HAL_UART_Receive_DMA+0x38>
 800408c:	2302      	movs	r3, #2
 800408e:	e00f      	b.n	80040b0 <HAL_UART_Receive_DMA+0x58>
 8004090:	68fb      	ldr	r3, [r7, #12]
 8004092:	2201      	movs	r2, #1
 8004094:	f883 203c 	strb.w	r2, [r3, #60]	; 0x3c

    /* Set Reception type to Standard reception */
    huart->ReceptionType = HAL_UART_RECEPTION_STANDARD;
 8004098:	68fb      	ldr	r3, [r7, #12]
 800409a:	2200      	movs	r2, #0
 800409c:	631a      	str	r2, [r3, #48]	; 0x30

    return(UART_Start_Receive_DMA(huart, pData, Size));
 800409e:	88fb      	ldrh	r3, [r7, #6]
 80040a0:	461a      	mov	r2, r3
 80040a2:	68b9      	ldr	r1, [r7, #8]
 80040a4:	68f8      	ldr	r0, [r7, #12]
 80040a6:	f000 fb0f 	bl	80046c8 <UART_Start_Receive_DMA>
 80040aa:	4603      	mov	r3, r0
 80040ac:	e000      	b.n	80040b0 <HAL_UART_Receive_DMA+0x58>
  }
  else
  {
    return HAL_BUSY;
 80040ae:	2302      	movs	r3, #2
  }
}
 80040b0:	4618      	mov	r0, r3
 80040b2:	3710      	adds	r7, #16
 80040b4:	46bd      	mov	sp, r7
 80040b6:	bd80      	pop	{r7, pc}

080040b8 <HAL_UART_IRQHandler>:
  * @param  huart  Pointer to a UART_HandleTypeDef structure that contains
  *                the configuration information for the specified UART module.
  * @retval None
  */
void HAL_UART_IRQHandler(UART_HandleTypeDef *huart)
{
 80040b8:	b580      	push	{r7, lr}
 80040ba:	b08a      	sub	sp, #40	; 0x28
 80040bc:	af00      	add	r7, sp, #0
 80040be:	6078      	str	r0, [r7, #4]
  uint32_t isrflags   = READ_REG(huart->Instance->SR);
 80040c0:	687b      	ldr	r3, [r7, #4]
 80040c2:	681b      	ldr	r3, [r3, #0]
 80040c4:	681b      	ldr	r3, [r3, #0]
 80040c6:	627b      	str	r3, [r7, #36]	; 0x24
  uint32_t cr1its     = READ_REG(huart->Instance->CR1);
 80040c8:	687b      	ldr	r3, [r7, #4]
 80040ca:	681b      	ldr	r3, [r3, #0]
 80040cc:	68db      	ldr	r3, [r3, #12]
 80040ce:	623b      	str	r3, [r7, #32]
  uint32_t cr3its     = READ_REG(huart->Instance->CR3);
 80040d0:	687b      	ldr	r3, [r7, #4]
 80040d2:	681b      	ldr	r3, [r3, #0]
 80040d4:	695b      	ldr	r3, [r3, #20]
 80040d6:	61fb      	str	r3, [r7, #28]
  uint32_t errorflags = 0x00U;
 80040d8:	2300      	movs	r3, #0
 80040da:	61bb      	str	r3, [r7, #24]
  uint32_t dmarequest = 0x00U;
 80040dc:	2300      	movs	r3, #0
 80040de:	617b      	str	r3, [r7, #20]

  /* If no error occurs */
  errorflags = (isrflags & (uint32_t)(USART_SR_PE | USART_SR_FE | USART_SR_ORE | USART_SR_NE));
 80040e0:	6a7b      	ldr	r3, [r7, #36]	; 0x24
 80040e2:	f003 030f 	and.w	r3, r3, #15
 80040e6:	61bb      	str	r3, [r7, #24]
  if (errorflags == RESET)
 80040e8:	69bb      	ldr	r3, [r7, #24]
 80040ea:	2b00      	cmp	r3, #0
 80040ec:	d10d      	bne.n	800410a <HAL_UART_IRQHandler+0x52>
  {
    /* UART in mode Receiver -------------------------------------------------*/
    if (((isrflags & USART_SR_RXNE) != RESET) && ((cr1its & USART_CR1_RXNEIE) != RESET))
 80040ee:	6a7b      	ldr	r3, [r7, #36]	; 0x24
 80040f0:	f003 0320 	and.w	r3, r3, #32
 80040f4:	2b00      	cmp	r3, #0
 80040f6:	d008      	beq.n	800410a <HAL_UART_IRQHandler+0x52>
 80040f8:	6a3b      	ldr	r3, [r7, #32]
 80040fa:	f003 0320 	and.w	r3, r3, #32
 80040fe:	2b00      	cmp	r3, #0
 8004100:	d003      	beq.n	800410a <HAL_UART_IRQHandler+0x52>
    {
      UART_Receive_IT(huart);
 8004102:	6878      	ldr	r0, [r7, #4]
 8004104:	f000 fc03 	bl	800490e <UART_Receive_IT>
      return;
 8004108:	e17c      	b.n	8004404 <HAL_UART_IRQHandler+0x34c>
    }
  }

  /* If some errors occur */
  if ((errorflags != RESET) && (((cr3its & USART_CR3_EIE) != RESET) || ((cr1its & (USART_CR1_RXNEIE | USART_CR1_PEIE)) != RESET)))
 800410a:	69bb      	ldr	r3, [r7, #24]
 800410c:	2b00      	cmp	r3, #0
 800410e:	f000 80b1 	beq.w	8004274 <HAL_UART_IRQHandler+0x1bc>
 8004112:	69fb      	ldr	r3, [r7, #28]
 8004114:	f003 0301 	and.w	r3, r3, #1
 8004118:	2b00      	cmp	r3, #0
 800411a:	d105      	bne.n	8004128 <HAL_UART_IRQHandler+0x70>
 800411c:	6a3b      	ldr	r3, [r7, #32]
 800411e:	f403 7390 	and.w	r3, r3, #288	; 0x120
 8004122:	2b00      	cmp	r3, #0
 8004124:	f000 80a6 	beq.w	8004274 <HAL_UART_IRQHandler+0x1bc>
  {
    /* UART parity error interrupt occurred ----------------------------------*/
    if (((isrflags & USART_SR_PE) != RESET) && ((cr1its & USART_CR1_PEIE) != RESET))
 8004128:	6a7b      	ldr	r3, [r7, #36]	; 0x24
 800412a:	f003 0301 	and.w	r3, r3, #1
 800412e:	2b00      	cmp	r3, #0
 8004130:	d00a      	beq.n	8004148 <HAL_UART_IRQHandler+0x90>
 8004132:	6a3b      	ldr	r3, [r7, #32]
 8004134:	f403 7380 	and.w	r3, r3, #256	; 0x100
 8004138:	2b00      	cmp	r3, #0
 800413a:	d005      	beq.n	8004148 <HAL_UART_IRQHandler+0x90>
    {
      huart->ErrorCode |= HAL_UART_ERROR_PE;
 800413c:	687b      	ldr	r3, [r7, #4]
 800413e:	6c1b      	ldr	r3, [r3, #64]	; 0x40
 8004140:	f043 0201 	orr.w	r2, r3, #1
 8004144:	687b      	ldr	r3, [r7, #4]
 8004146:	641a      	str	r2, [r3, #64]	; 0x40
    }

    /* UART noise error interrupt occurred -----------------------------------*/
    if (((isrflags & USART_SR_NE) != RESET) && ((cr3its & USART_CR3_EIE) != RESET))
 8004148:	6a7b      	ldr	r3, [r7, #36]	; 0x24
 800414a:	f003 0304 	and.w	r3, r3, #4
 800414e:	2b00      	cmp	r3, #0
 8004150:	d00a      	beq.n	8004168 <HAL_UART_IRQHandler+0xb0>
 8004152:	69fb      	ldr	r3, [r7, #28]
 8004154:	f003 0301 	and.w	r3, r3, #1
 8004158:	2b00      	cmp	r3, #0
 800415a:	d005      	beq.n	8004168 <HAL_UART_IRQHandler+0xb0>
    {
      huart->ErrorCode |= HAL_UART_ERROR_NE;
 800415c:	687b      	ldr	r3, [r7, #4]
 800415e:	6c1b      	ldr	r3, [r3, #64]	; 0x40
 8004160:	f043 0202 	orr.w	r2, r3, #2
 8004164:	687b      	ldr	r3, [r7, #4]
 8004166:	641a      	str	r2, [r3, #64]	; 0x40
    }

    /* UART frame error interrupt occurred -----------------------------------*/
    if (((isrflags & USART_SR_FE) != RESET) && ((cr3its & USART_CR3_EIE) != RESET))
 8004168:	6a7b      	ldr	r3, [r7, #36]	; 0x24
 800416a:	f003 0302 	and.w	r3, r3, #2
 800416e:	2b00      	cmp	r3, #0
 8004170:	d00a      	beq.n	8004188 <HAL_UART_IRQHandler+0xd0>
 8004172:	69fb      	ldr	r3, [r7, #28]
 8004174:	f003 0301 	and.w	r3, r3, #1
 8004178:	2b00      	cmp	r3, #0
 800417a:	d005      	beq.n	8004188 <HAL_UART_IRQHandler+0xd0>
    {
      huart->ErrorCode |= HAL_UART_ERROR_FE;
 800417c:	687b      	ldr	r3, [r7, #4]
 800417e:	6c1b      	ldr	r3, [r3, #64]	; 0x40
 8004180:	f043 0204 	orr.w	r2, r3, #4
 8004184:	687b      	ldr	r3, [r7, #4]
 8004186:	641a      	str	r2, [r3, #64]	; 0x40
    }

    /* UART Over-Run interrupt occurred --------------------------------------*/
    if (((isrflags & USART_SR_ORE) != RESET) && (((cr1its & USART_CR1_RXNEIE) != RESET) || ((cr3its & USART_CR3_EIE) != RESET)))
 8004188:	6a7b      	ldr	r3, [r7, #36]	; 0x24
 800418a:	f003 0308 	and.w	r3, r3, #8
 800418e:	2b00      	cmp	r3, #0
 8004190:	d00f      	beq.n	80041b2 <HAL_UART_IRQHandler+0xfa>
 8004192:	6a3b      	ldr	r3, [r7, #32]
 8004194:	f003 0320 	and.w	r3, r3, #32
 8004198:	2b00      	cmp	r3, #0
 800419a:	d104      	bne.n	80041a6 <HAL_UART_IRQHandler+0xee>
 800419c:	69fb      	ldr	r3, [r7, #28]
 800419e:	f003 0301 	and.w	r3, r3, #1
 80041a2:	2b00      	cmp	r3, #0
 80041a4:	d005      	beq.n	80041b2 <HAL_UART_IRQHandler+0xfa>
    {
      huart->ErrorCode |= HAL_UART_ERROR_ORE;
 80041a6:	687b      	ldr	r3, [r7, #4]
 80041a8:	6c1b      	ldr	r3, [r3, #64]	; 0x40
 80041aa:	f043 0208 	orr.w	r2, r3, #8
 80041ae:	687b      	ldr	r3, [r7, #4]
 80041b0:	641a      	str	r2, [r3, #64]	; 0x40
    }

    /* Call UART Error Call back function if need be --------------------------*/
    if (huart->ErrorCode != HAL_UART_ERROR_NONE)
 80041b2:	687b      	ldr	r3, [r7, #4]
 80041b4:	6c1b      	ldr	r3, [r3, #64]	; 0x40
 80041b6:	2b00      	cmp	r3, #0
 80041b8:	f000 811f 	beq.w	80043fa <HAL_UART_IRQHandler+0x342>
    {
      /* UART in mode Receiver -----------------------------------------------*/
      if (((isrflags & USART_SR_RXNE) != RESET) && ((cr1its & USART_CR1_RXNEIE) != RESET))
 80041bc:	6a7b      	ldr	r3, [r7, #36]	; 0x24
 80041be:	f003 0320 	and.w	r3, r3, #32
 80041c2:	2b00      	cmp	r3, #0
 80041c4:	d007      	beq.n	80041d6 <HAL_UART_IRQHandler+0x11e>
 80041c6:	6a3b      	ldr	r3, [r7, #32]
 80041c8:	f003 0320 	and.w	r3, r3, #32
 80041cc:	2b00      	cmp	r3, #0
 80041ce:	d002      	beq.n	80041d6 <HAL_UART_IRQHandler+0x11e>
      {
        UART_Receive_IT(huart);
 80041d0:	6878      	ldr	r0, [r7, #4]
 80041d2:	f000 fb9c 	bl	800490e <UART_Receive_IT>
      }

      /* If Overrun error occurs, or if any error occurs in DMA mode reception,
         consider error as blocking */
      dmarequest = HAL_IS_BIT_SET(huart->Instance->CR3, USART_CR3_DMAR);
 80041d6:	687b      	ldr	r3, [r7, #4]
 80041d8:	681b      	ldr	r3, [r3, #0]
 80041da:	695b      	ldr	r3, [r3, #20]
 80041dc:	f003 0340 	and.w	r3, r3, #64	; 0x40
 80041e0:	2b40      	cmp	r3, #64	; 0x40
 80041e2:	bf0c      	ite	eq
 80041e4:	2301      	moveq	r3, #1
 80041e6:	2300      	movne	r3, #0
 80041e8:	b2db      	uxtb	r3, r3
 80041ea:	617b      	str	r3, [r7, #20]
      if (((huart->ErrorCode & HAL_UART_ERROR_ORE) != RESET) || dmarequest)
 80041ec:	687b      	ldr	r3, [r7, #4]
 80041ee:	6c1b      	ldr	r3, [r3, #64]	; 0x40
 80041f0:	f003 0308 	and.w	r3, r3, #8
 80041f4:	2b00      	cmp	r3, #0
 80041f6:	d102      	bne.n	80041fe <HAL_UART_IRQHandler+0x146>
 80041f8:	697b      	ldr	r3, [r7, #20]
 80041fa:	2b00      	cmp	r3, #0
 80041fc:	d031      	beq.n	8004262 <HAL_UART_IRQHandler+0x1aa>
      {
        /* Blocking error : transfer is aborted
           Set the UART state ready to be able to start again the process,
           Disable Rx Interrupts, and disable Rx DMA request, if ongoing */
        UART_EndRxTransfer(huart);
 80041fe:	6878      	ldr	r0, [r7, #4]
 8004200:	f000 fadc 	bl	80047bc <UART_EndRxTransfer>

        /* Disable the UART DMA Rx request if enabled */
        if (HAL_IS_BIT_SET(huart->Instance->CR3, USART_CR3_DMAR))
 8004204:	687b      	ldr	r3, [r7, #4]
 8004206:	681b      	ldr	r3, [r3, #0]
 8004208:	695b      	ldr	r3, [r3, #20]
 800420a:	f003 0340 	and.w	r3, r3, #64	; 0x40
 800420e:	2b40      	cmp	r3, #64	; 0x40
 8004210:	d123      	bne.n	800425a <HAL_UART_IRQHandler+0x1a2>
        {
          CLEAR_BIT(huart->Instance->CR3, USART_CR3_DMAR);
 8004212:	687b      	ldr	r3, [r7, #4]
 8004214:	681b      	ldr	r3, [r3, #0]
 8004216:	695a      	ldr	r2, [r3, #20]
 8004218:	687b      	ldr	r3, [r7, #4]
 800421a:	681b      	ldr	r3, [r3, #0]
 800421c:	f022 0240 	bic.w	r2, r2, #64	; 0x40
 8004220:	615a      	str	r2, [r3, #20]

          /* Abort the UART DMA Rx stream */
          if (huart->hdmarx != NULL)
 8004222:	687b      	ldr	r3, [r7, #4]
 8004224:	6b9b      	ldr	r3, [r3, #56]	; 0x38
 8004226:	2b00      	cmp	r3, #0
 8004228:	d013      	beq.n	8004252 <HAL_UART_IRQHandler+0x19a>
          {
            /* Set the UART DMA Abort callback :
               will lead to call HAL_UART_ErrorCallback() at end of DMA abort procedure */
            huart->hdmarx->XferAbortCallback = UART_DMAAbortOnError;
 800422a:	687b      	ldr	r3, [r7, #4]
 800422c:	6b9b      	ldr	r3, [r3, #56]	; 0x38
 800422e:	4a77      	ldr	r2, [pc, #476]	; (800440c <HAL_UART_IRQHandler+0x354>)
 8004230:	651a      	str	r2, [r3, #80]	; 0x50
            if (HAL_DMA_Abort_IT(huart->hdmarx) != HAL_OK)
 8004232:	687b      	ldr	r3, [r7, #4]
 8004234:	6b9b      	ldr	r3, [r3, #56]	; 0x38
 8004236:	4618      	mov	r0, r3
 8004238:	f7fd fbd2 	bl	80019e0 <HAL_DMA_Abort_IT>
 800423c:	4603      	mov	r3, r0
 800423e:	2b00      	cmp	r3, #0
 8004240:	d016      	beq.n	8004270 <HAL_UART_IRQHandler+0x1b8>
            {
              /* Call Directly XferAbortCallback function in case of error */
              huart->hdmarx->XferAbortCallback(huart->hdmarx);
 8004242:	687b      	ldr	r3, [r7, #4]
 8004244:	6b9b      	ldr	r3, [r3, #56]	; 0x38
 8004246:	6d1b      	ldr	r3, [r3, #80]	; 0x50
 8004248:	687a      	ldr	r2, [r7, #4]
 800424a:	6b92      	ldr	r2, [r2, #56]	; 0x38
 800424c:	4610      	mov	r0, r2
 800424e:	4798      	blx	r3
        if (HAL_IS_BIT_SET(huart->Instance->CR3, USART_CR3_DMAR))
 8004250:	e00e      	b.n	8004270 <HAL_UART_IRQHandler+0x1b8>
#if (USE_HAL_UART_REGISTER_CALLBACKS == 1)
            /*Call registered error callback*/
            huart->ErrorCallback(huart);
#else
            /*Call legacy weak error callback*/
            HAL_UART_ErrorCallback(huart);
 8004252:	6878      	ldr	r0, [r7, #4]
 8004254:	f000 f8f0 	bl	8004438 <HAL_UART_ErrorCallback>
        if (HAL_IS_BIT_SET(huart->Instance->CR3, USART_CR3_DMAR))
 8004258:	e00a      	b.n	8004270 <HAL_UART_IRQHandler+0x1b8>
#if (USE_HAL_UART_REGISTER_CALLBACKS == 1)
          /*Call registered error callback*/
          huart->ErrorCallback(huart);
#else
          /*Call legacy weak error callback*/
          HAL_UART_ErrorCallback(huart);
 800425a:	6878      	ldr	r0, [r7, #4]
 800425c:	f000 f8ec 	bl	8004438 <HAL_UART_ErrorCallback>
        if (HAL_IS_BIT_SET(huart->Instance->CR3, USART_CR3_DMAR))
 8004260:	e006      	b.n	8004270 <HAL_UART_IRQHandler+0x1b8>
#if (USE_HAL_UART_REGISTER_CALLBACKS == 1)
        /*Call registered error callback*/
        huart->ErrorCallback(huart);
#else
        /*Call legacy weak error callback*/
        HAL_UART_ErrorCallback(huart);
 8004262:	6878      	ldr	r0, [r7, #4]
 8004264:	f000 f8e8 	bl	8004438 <HAL_UART_ErrorCallback>
#endif /* USE_HAL_UART_REGISTER_CALLBACKS */

        huart->ErrorCode = HAL_UART_ERROR_NONE;
 8004268:	687b      	ldr	r3, [r7, #4]
 800426a:	2200      	movs	r2, #0
 800426c:	641a      	str	r2, [r3, #64]	; 0x40
      }
    }
    return;
 800426e:	e0c4      	b.n	80043fa <HAL_UART_IRQHandler+0x342>
        if (HAL_IS_BIT_SET(huart->Instance->CR3, USART_CR3_DMAR))
 8004270:	bf00      	nop
    return;
 8004272:	e0c2      	b.n	80043fa <HAL_UART_IRQHandler+0x342>
  } /* End if some error occurs */

  /* Check current reception Mode :
     If Reception till IDLE event has been selected : */
  if (  (huart->ReceptionType == HAL_UART_RECEPTION_TOIDLE)
 8004274:	687b      	ldr	r3, [r7, #4]
 8004276:	6b1b      	ldr	r3, [r3, #48]	; 0x30
 8004278:	2b01      	cmp	r3, #1
 800427a:	f040 80a2 	bne.w	80043c2 <HAL_UART_IRQHandler+0x30a>
      &&((isrflags & USART_SR_IDLE) != 0U)
 800427e:	6a7b      	ldr	r3, [r7, #36]	; 0x24
 8004280:	f003 0310 	and.w	r3, r3, #16
 8004284:	2b00      	cmp	r3, #0
 8004286:	f000 809c 	beq.w	80043c2 <HAL_UART_IRQHandler+0x30a>
      &&((cr1its & USART_SR_IDLE) != 0U))
 800428a:	6a3b      	ldr	r3, [r7, #32]
 800428c:	f003 0310 	and.w	r3, r3, #16
 8004290:	2b00      	cmp	r3, #0
 8004292:	f000 8096 	beq.w	80043c2 <HAL_UART_IRQHandler+0x30a>
  {
    __HAL_UART_CLEAR_IDLEFLAG(huart);
 8004296:	2300      	movs	r3, #0
 8004298:	60fb      	str	r3, [r7, #12]
 800429a:	687b      	ldr	r3, [r7, #4]
 800429c:	681b      	ldr	r3, [r3, #0]
 800429e:	681b      	ldr	r3, [r3, #0]
 80042a0:	60fb      	str	r3, [r7, #12]
 80042a2:	687b      	ldr	r3, [r7, #4]
 80042a4:	681b      	ldr	r3, [r3, #0]
 80042a6:	685b      	ldr	r3, [r3, #4]
 80042a8:	60fb      	str	r3, [r7, #12]
 80042aa:	68fb      	ldr	r3, [r7, #12]

    /* Check if DMA mode is enabled in UART */
    if (HAL_IS_BIT_SET(huart->Instance->CR3, USART_CR3_DMAR))
 80042ac:	687b      	ldr	r3, [r7, #4]
 80042ae:	681b      	ldr	r3, [r3, #0]
 80042b0:	695b      	ldr	r3, [r3, #20]
 80042b2:	f003 0340 	and.w	r3, r3, #64	; 0x40
 80042b6:	2b40      	cmp	r3, #64	; 0x40
 80042b8:	d14f      	bne.n	800435a <HAL_UART_IRQHandler+0x2a2>
    {
      /* DMA mode enabled */
      /* Check received length : If all expected data are received, do nothing,
         (DMA cplt callback will be called).
         Otherwise, if at least one data has already been received, IDLE event is to be notified to user */
      uint16_t nb_remaining_rx_data = (uint16_t) __HAL_DMA_GET_COUNTER(huart->hdmarx);
 80042ba:	687b      	ldr	r3, [r7, #4]
 80042bc:	6b9b      	ldr	r3, [r3, #56]	; 0x38
 80042be:	681b      	ldr	r3, [r3, #0]
 80042c0:	685b      	ldr	r3, [r3, #4]
 80042c2:	823b      	strh	r3, [r7, #16]
      if (  (nb_remaining_rx_data > 0U)
 80042c4:	8a3b      	ldrh	r3, [r7, #16]
 80042c6:	2b00      	cmp	r3, #0
 80042c8:	f000 8099 	beq.w	80043fe <HAL_UART_IRQHandler+0x346>
          &&(nb_remaining_rx_data < huart->RxXferSize))
 80042cc:	687b      	ldr	r3, [r7, #4]
 80042ce:	8d9b      	ldrh	r3, [r3, #44]	; 0x2c
 80042d0:	8a3a      	ldrh	r2, [r7, #16]
 80042d2:	429a      	cmp	r2, r3
 80042d4:	f080 8093 	bcs.w	80043fe <HAL_UART_IRQHandler+0x346>
      {
        /* Reception is not complete */
        huart->RxXferCount = nb_remaining_rx_data;
 80042d8:	687b      	ldr	r3, [r7, #4]
 80042da:	8a3a      	ldrh	r2, [r7, #16]
 80042dc:	85da      	strh	r2, [r3, #46]	; 0x2e

        /* In Normal mode, end DMA xfer and HAL UART Rx process*/
        if (huart->hdmarx->Init.Mode != DMA_CIRCULAR)
 80042de:	687b      	ldr	r3, [r7, #4]
 80042e0:	6b9b      	ldr	r3, [r3, #56]	; 0x38
 80042e2:	69db      	ldr	r3, [r3, #28]
 80042e4:	f5b3 7f80 	cmp.w	r3, #256	; 0x100
 80042e8:	d02b      	beq.n	8004342 <HAL_UART_IRQHandler+0x28a>
        {
          /* Disable PE and ERR (Frame error, noise error, overrun error) interrupts */
          CLEAR_BIT(huart->Instance->CR1, USART_CR1_PEIE);
 80042ea:	687b      	ldr	r3, [r7, #4]
 80042ec:	681b      	ldr	r3, [r3, #0]
 80042ee:	68da      	ldr	r2, [r3, #12]
 80042f0:	687b      	ldr	r3, [r7, #4]
 80042f2:	681b      	ldr	r3, [r3, #0]
 80042f4:	f422 7280 	bic.w	r2, r2, #256	; 0x100
 80042f8:	60da      	str	r2, [r3, #12]
          CLEAR_BIT(huart->Instance->CR3, USART_CR3_EIE);
 80042fa:	687b      	ldr	r3, [r7, #4]
 80042fc:	681b      	ldr	r3, [r3, #0]
 80042fe:	695a      	ldr	r2, [r3, #20]
 8004300:	687b      	ldr	r3, [r7, #4]
 8004302:	681b      	ldr	r3, [r3, #0]
 8004304:	f022 0201 	bic.w	r2, r2, #1
 8004308:	615a      	str	r2, [r3, #20]

          /* Disable the DMA transfer for the receiver request by resetting the DMAR bit
             in the UART CR3 register */
          CLEAR_BIT(huart->Instance->CR3, USART_CR3_DMAR);
 800430a:	687b      	ldr	r3, [r7, #4]
 800430c:	681b      	ldr	r3, [r3, #0]
 800430e:	695a      	ldr	r2, [r3, #20]
 8004310:	687b      	ldr	r3, [r7, #4]
 8004312:	681b      	ldr	r3, [r3, #0]
 8004314:	f022 0240 	bic.w	r2, r2, #64	; 0x40
 8004318:	615a      	str	r2, [r3, #20]

          /* At end of Rx process, restore huart->RxState to Ready */
          huart->RxState = HAL_UART_STATE_READY;
 800431a:	687b      	ldr	r3, [r7, #4]
 800431c:	2220      	movs	r2, #32
 800431e:	f883 203e 	strb.w	r2, [r3, #62]	; 0x3e
          huart->ReceptionType = HAL_UART_RECEPTION_STANDARD;
 8004322:	687b      	ldr	r3, [r7, #4]
 8004324:	2200      	movs	r2, #0
 8004326:	631a      	str	r2, [r3, #48]	; 0x30

          CLEAR_BIT(huart->Instance->CR1, USART_CR1_IDLEIE);
 8004328:	687b      	ldr	r3, [r7, #4]
 800432a:	681b      	ldr	r3, [r3, #0]
 800432c:	68da      	ldr	r2, [r3, #12]
 800432e:	687b      	ldr	r3, [r7, #4]
 8004330:	681b      	ldr	r3, [r3, #0]
 8004332:	f022 0210 	bic.w	r2, r2, #16
 8004336:	60da      	str	r2, [r3, #12]

          /* Last bytes received, so no need as the abort is immediate */
          (void)HAL_DMA_Abort(huart->hdmarx);
 8004338:	687b      	ldr	r3, [r7, #4]
 800433a:	6b9b      	ldr	r3, [r3, #56]	; 0x38
 800433c:	4618      	mov	r0, r3
 800433e:	f7fd fadf 	bl	8001900 <HAL_DMA_Abort>
#if (USE_HAL_UART_REGISTER_CALLBACKS == 1)
        /*Call registered Rx Event callback*/
        huart->RxEventCallback(huart, (huart->RxXferSize - huart->RxXferCount));
#else
        /*Call legacy weak Rx Event callback*/
        HAL_UARTEx_RxEventCallback(huart, (huart->RxXferSize - huart->RxXferCount));
 8004342:	687b      	ldr	r3, [r7, #4]
 8004344:	8d9a      	ldrh	r2, [r3, #44]	; 0x2c
 8004346:	687b      	ldr	r3, [r7, #4]
 8004348:	8ddb      	ldrh	r3, [r3, #46]	; 0x2e
 800434a:	b29b      	uxth	r3, r3
 800434c:	1ad3      	subs	r3, r2, r3
 800434e:	b29b      	uxth	r3, r3
 8004350:	4619      	mov	r1, r3
 8004352:	6878      	ldr	r0, [r7, #4]
 8004354:	f000 f87a 	bl	800444c <HAL_UARTEx_RxEventCallback>
#endif
      }
      return;
 8004358:	e051      	b.n	80043fe <HAL_UART_IRQHandler+0x346>
    else
    {
      /* DMA mode not enabled */
      /* Check received length : If all expected data are received, do nothing.
         Otherwise, if at least one data has already been received, IDLE event is to be notified to user */
      uint16_t nb_rx_data = huart->RxXferSize - huart->RxXferCount;
 800435a:	687b      	ldr	r3, [r7, #4]
 800435c:	8d9a      	ldrh	r2, [r3, #44]	; 0x2c
 800435e:	687b      	ldr	r3, [r7, #4]
 8004360:	8ddb      	ldrh	r3, [r3, #46]	; 0x2e
 8004362:	b29b      	uxth	r3, r3
 8004364:	1ad3      	subs	r3, r2, r3
 8004366:	827b      	strh	r3, [r7, #18]
      if (  (huart->RxXferCount > 0U)
 8004368:	687b      	ldr	r3, [r7, #4]
 800436a:	8ddb      	ldrh	r3, [r3, #46]	; 0x2e
 800436c:	b29b      	uxth	r3, r3
 800436e:	2b00      	cmp	r3, #0
 8004370:	d047      	beq.n	8004402 <HAL_UART_IRQHandler+0x34a>
          &&(nb_rx_data > 0U) )
 8004372:	8a7b      	ldrh	r3, [r7, #18]
 8004374:	2b00      	cmp	r3, #0
 8004376:	d044      	beq.n	8004402 <HAL_UART_IRQHandler+0x34a>
      {
        /* Disable the UART Parity Error Interrupt and RXNE interrupts */
        CLEAR_BIT(huart->Instance->CR1, (USART_CR1_RXNEIE | USART_CR1_PEIE));
 8004378:	687b      	ldr	r3, [r7, #4]
 800437a:	681b      	ldr	r3, [r3, #0]
 800437c:	68da      	ldr	r2, [r3, #12]
 800437e:	687b      	ldr	r3, [r7, #4]
 8004380:	681b      	ldr	r3, [r3, #0]
 8004382:	f422 7290 	bic.w	r2, r2, #288	; 0x120
 8004386:	60da      	str	r2, [r3, #12]

        /* Disable the UART Error Interrupt: (Frame error, noise error, overrun error) */
        CLEAR_BIT(huart->Instance->CR3, USART_CR3_EIE);
 8004388:	687b      	ldr	r3, [r7, #4]
 800438a:	681b      	ldr	r3, [r3, #0]
 800438c:	695a      	ldr	r2, [r3, #20]
 800438e:	687b      	ldr	r3, [r7, #4]
 8004390:	681b      	ldr	r3, [r3, #0]
 8004392:	f022 0201 	bic.w	r2, r2, #1
 8004396:	615a      	str	r2, [r3, #20]

        /* Rx process is completed, restore huart->RxState to Ready */
        huart->RxState = HAL_UART_STATE_READY;
 8004398:	687b      	ldr	r3, [r7, #4]
 800439a:	2220      	movs	r2, #32
 800439c:	f883 203e 	strb.w	r2, [r3, #62]	; 0x3e
        huart->ReceptionType = HAL_UART_RECEPTION_STANDARD;
 80043a0:	687b      	ldr	r3, [r7, #4]
 80043a2:	2200      	movs	r2, #0
 80043a4:	631a      	str	r2, [r3, #48]	; 0x30

        CLEAR_BIT(huart->Instance->CR1, USART_CR1_IDLEIE);
 80043a6:	687b      	ldr	r3, [r7, #4]
 80043a8:	681b      	ldr	r3, [r3, #0]
 80043aa:	68da      	ldr	r2, [r3, #12]
 80043ac:	687b      	ldr	r3, [r7, #4]
 80043ae:	681b      	ldr	r3, [r3, #0]
 80043b0:	f022 0210 	bic.w	r2, r2, #16
 80043b4:	60da      	str	r2, [r3, #12]
#if (USE_HAL_UART_REGISTER_CALLBACKS == 1)
        /*Call registered Rx complete callback*/
        huart->RxEventCallback(huart, nb_rx_data);
#else
        /*Call legacy weak Rx Event callback*/
        HAL_UARTEx_RxEventCallback(huart, nb_rx_data);
 80043b6:	8a7b      	ldrh	r3, [r7, #18]
 80043b8:	4619      	mov	r1, r3
 80043ba:	6878      	ldr	r0, [r7, #4]
 80043bc:	f000 f846 	bl	800444c <HAL_UARTEx_RxEventCallback>
#endif
      }
      return;
 80043c0:	e01f      	b.n	8004402 <HAL_UART_IRQHandler+0x34a>
    }
  }

  /* UART in mode Transmitter ------------------------------------------------*/
  if (((isrflags & USART_SR_TXE) != RESET) && ((cr1its & USART_CR1_TXEIE) != RESET))
 80043c2:	6a7b      	ldr	r3, [r7, #36]	; 0x24
 80043c4:	f003 0380 	and.w	r3, r3, #128	; 0x80
 80043c8:	2b00      	cmp	r3, #0
 80043ca:	d008      	beq.n	80043de <HAL_UART_IRQHandler+0x326>
 80043cc:	6a3b      	ldr	r3, [r7, #32]
 80043ce:	f003 0380 	and.w	r3, r3, #128	; 0x80
 80043d2:	2b00      	cmp	r3, #0
 80043d4:	d003      	beq.n	80043de <HAL_UART_IRQHandler+0x326>
  {
    UART_Transmit_IT(huart);
 80043d6:	6878      	ldr	r0, [r7, #4]
 80043d8:	f000 fa31 	bl	800483e <UART_Transmit_IT>
    return;
 80043dc:	e012      	b.n	8004404 <HAL_UART_IRQHandler+0x34c>
  }

  /* UART in mode Transmitter end --------------------------------------------*/
  if (((isrflags & USART_SR_TC) != RESET) && ((cr1its & USART_CR1_TCIE) != RESET))
 80043de:	6a7b      	ldr	r3, [r7, #36]	; 0x24
 80043e0:	f003 0340 	and.w	r3, r3, #64	; 0x40
 80043e4:	2b00      	cmp	r3, #0
 80043e6:	d00d      	beq.n	8004404 <HAL_UART_IRQHandler+0x34c>
 80043e8:	6a3b      	ldr	r3, [r7, #32]
 80043ea:	f003 0340 	and.w	r3, r3, #64	; 0x40
 80043ee:	2b00      	cmp	r3, #0
 80043f0:	d008      	beq.n	8004404 <HAL_UART_IRQHandler+0x34c>
  {
    UART_EndTransmit_IT(huart);
 80043f2:	6878      	ldr	r0, [r7, #4]
 80043f4:	f000 fa73 	bl	80048de <UART_EndTransmit_IT>
    return;
 80043f8:	e004      	b.n	8004404 <HAL_UART_IRQHandler+0x34c>
    return;
 80043fa:	bf00      	nop
 80043fc:	e002      	b.n	8004404 <HAL_UART_IRQHandler+0x34c>
      return;
 80043fe:	bf00      	nop
 8004400:	e000      	b.n	8004404 <HAL_UART_IRQHandler+0x34c>
      return;
 8004402:	bf00      	nop
  }
}
 8004404:	3728      	adds	r7, #40	; 0x28
 8004406:	46bd      	mov	sp, r7
 8004408:	bd80      	pop	{r7, pc}
 800440a:	bf00      	nop
 800440c:	08004817 	.word	0x08004817

08004410 <HAL_UART_TxHalfCpltCallback>:
  * @param  huart  Pointer to a UART_HandleTypeDef structure that contains
  *                the configuration information for the specified UART module.
  * @retval None
  */
__weak void HAL_UART_TxHalfCpltCallback(UART_HandleTypeDef *huart)
{
 8004410:	b480      	push	{r7}
 8004412:	b083      	sub	sp, #12
 8004414:	af00      	add	r7, sp, #0
 8004416:	6078      	str	r0, [r7, #4]
  /* Prevent unused argument(s) compilation warning */
  UNUSED(huart);
  /* NOTE: This function should not be modified, when the callback is needed,
           the HAL_UART_TxHalfCpltCallback could be implemented in the user file
   */
}
 8004418:	bf00      	nop
 800441a:	370c      	adds	r7, #12
 800441c:	46bd      	mov	sp, r7
 800441e:	f85d 7b04 	ldr.w	r7, [sp], #4
 8004422:	4770      	bx	lr

08004424 <HAL_UART_RxHalfCpltCallback>:
  * @param  huart  Pointer to a UART_HandleTypeDef structure that contains
  *                the configuration information for the specified UART module.
  * @retval None
  */
__weak void HAL_UART_RxHalfCpltCallback(UART_HandleTypeDef *huart)
{
 8004424:	b480      	push	{r7}
 8004426:	b083      	sub	sp, #12
 8004428:	af00      	add	r7, sp, #0
 800442a:	6078      	str	r0, [r7, #4]
  /* Prevent unused argument(s) compilation warning */
  UNUSED(huart);
  /* NOTE: This function should not be modified, when the callback is needed,
           the HAL_UART_RxHalfCpltCallback could be implemented in the user file
   */
}
 800442c:	bf00      	nop
 800442e:	370c      	adds	r7, #12
 8004430:	46bd      	mov	sp, r7
 8004432:	f85d 7b04 	ldr.w	r7, [sp], #4
 8004436:	4770      	bx	lr

08004438 <HAL_UART_ErrorCallback>:
  * @param  huart  Pointer to a UART_HandleTypeDef structure that contains
  *                the configuration information for the specified UART module.
  * @retval None
  */
__weak void HAL_UART_ErrorCallback(UART_HandleTypeDef *huart)
{
 8004438:	b480      	push	{r7}
 800443a:	b083      	sub	sp, #12
 800443c:	af00      	add	r7, sp, #0
 800443e:	6078      	str	r0, [r7, #4]
  /* Prevent unused argument(s) compilation warning */
  UNUSED(huart);
  /* NOTE: This function should not be modified, when the callback is needed,
           the HAL_UART_ErrorCallback could be implemented in the user file
   */
}
 8004440:	bf00      	nop
 8004442:	370c      	adds	r7, #12
 8004444:	46bd      	mov	sp, r7
 8004446:	f85d 7b04 	ldr.w	r7, [sp], #4
 800444a:	4770      	bx	lr

0800444c <HAL_UARTEx_RxEventCallback>:
  * @param  Size  Number of data available in application reception buffer (indicates a position in
  *               reception buffer until which, data are available)
  * @retval None
  */
__weak void HAL_UARTEx_RxEventCallback(UART_HandleTypeDef *huart, uint16_t Size)
{
 800444c:	b480      	push	{r7}
 800444e:	b083      	sub	sp, #12
 8004450:	af00      	add	r7, sp, #0
 8004452:	6078      	str	r0, [r7, #4]
 8004454:	460b      	mov	r3, r1
 8004456:	807b      	strh	r3, [r7, #2]
  UNUSED(Size);

  /* NOTE : This function should not be modified, when the callback is needed,
            the HAL_UARTEx_RxEventCallback can be implemented in the user file.
   */
}
 8004458:	bf00      	nop
 800445a:	370c      	adds	r7, #12
 800445c:	46bd      	mov	sp, r7
 800445e:	f85d 7b04 	ldr.w	r7, [sp], #4
 8004462:	4770      	bx	lr

08004464 <UART_DMATransmitCplt>:
  * @param  hdma  Pointer to a DMA_HandleTypeDef structure that contains
  *               the configuration information for the specified DMA module.
  * @retval None
  */
static void UART_DMATransmitCplt(DMA_HandleTypeDef *hdma)
{
 8004464:	b580      	push	{r7, lr}
 8004466:	b084      	sub	sp, #16
 8004468:	af00      	add	r7, sp, #0
 800446a:	6078      	str	r0, [r7, #4]
  UART_HandleTypeDef *huart = (UART_HandleTypeDef *)((DMA_HandleTypeDef *)hdma)->Parent;
 800446c:	687b      	ldr	r3, [r7, #4]
 800446e:	6b9b      	ldr	r3, [r3, #56]	; 0x38
 8004470:	60fb      	str	r3, [r7, #12]
  /* DMA Normal mode*/
  if ((hdma->Instance->CR & DMA_SxCR_CIRC) == 0U)
 8004472:	687b      	ldr	r3, [r7, #4]
 8004474:	681b      	ldr	r3, [r3, #0]
 8004476:	681b      	ldr	r3, [r3, #0]
 8004478:	f403 7380 	and.w	r3, r3, #256	; 0x100
 800447c:	2b00      	cmp	r3, #0
 800447e:	d113      	bne.n	80044a8 <UART_DMATransmitCplt+0x44>
  {
    huart->TxXferCount = 0x00U;
 8004480:	68fb      	ldr	r3, [r7, #12]
 8004482:	2200      	movs	r2, #0
 8004484:	84da      	strh	r2, [r3, #38]	; 0x26

    /* Disable the DMA transfer for transmit request by setting the DMAT bit
       in the UART CR3 register */
    CLEAR_BIT(huart->Instance->CR3, USART_CR3_DMAT);
 8004486:	68fb      	ldr	r3, [r7, #12]
 8004488:	681b      	ldr	r3, [r3, #0]
 800448a:	695a      	ldr	r2, [r3, #20]
 800448c:	68fb      	ldr	r3, [r7, #12]
 800448e:	681b      	ldr	r3, [r3, #0]
 8004490:	f022 0280 	bic.w	r2, r2, #128	; 0x80
 8004494:	615a      	str	r2, [r3, #20]

    /* Enable the UART Transmit Complete Interrupt */
    SET_BIT(huart->Instance->CR1, USART_CR1_TCIE);
 8004496:	68fb      	ldr	r3, [r7, #12]
 8004498:	681b      	ldr	r3, [r3, #0]
 800449a:	68da      	ldr	r2, [r3, #12]
 800449c:	68fb      	ldr	r3, [r7, #12]
 800449e:	681b      	ldr	r3, [r3, #0]
 80044a0:	f042 0240 	orr.w	r2, r2, #64	; 0x40
 80044a4:	60da      	str	r2, [r3, #12]
#else
    /*Call legacy weak Tx complete callback*/
    HAL_UART_TxCpltCallback(huart);
#endif /* USE_HAL_UART_REGISTER_CALLBACKS */
  }
}
 80044a6:	e002      	b.n	80044ae <UART_DMATransmitCplt+0x4a>
    HAL_UART_TxCpltCallback(huart);
 80044a8:	68f8      	ldr	r0, [r7, #12]
 80044aa:	f7fc ff63 	bl	8001374 <HAL_UART_TxCpltCallback>
}
 80044ae:	bf00      	nop
 80044b0:	3710      	adds	r7, #16
 80044b2:	46bd      	mov	sp, r7
 80044b4:	bd80      	pop	{r7, pc}

080044b6 <UART_DMATxHalfCplt>:
  * @param  hdma  Pointer to a DMA_HandleTypeDef structure that contains
  *               the configuration information for the specified DMA module.
  * @retval None
  */
static void UART_DMATxHalfCplt(DMA_HandleTypeDef *hdma)
{
 80044b6:	b580      	push	{r7, lr}
 80044b8:	b084      	sub	sp, #16
 80044ba:	af00      	add	r7, sp, #0
 80044bc:	6078      	str	r0, [r7, #4]
  UART_HandleTypeDef *huart = (UART_HandleTypeDef *)((DMA_HandleTypeDef *)hdma)->Parent;
 80044be:	687b      	ldr	r3, [r7, #4]
 80044c0:	6b9b      	ldr	r3, [r3, #56]	; 0x38
 80044c2:	60fb      	str	r3, [r7, #12]
#if (USE_HAL_UART_REGISTER_CALLBACKS == 1)
  /*Call registered Tx complete callback*/
  huart->TxHalfCpltCallback(huart);
#else
  /*Call legacy weak Tx complete callback*/
  HAL_UART_TxHalfCpltCallback(huart);
 80044c4:	68f8      	ldr	r0, [r7, #12]
 80044c6:	f7ff ffa3 	bl	8004410 <HAL_UART_TxHalfCpltCallback>
#endif /* USE_HAL_UART_REGISTER_CALLBACKS */
}
 80044ca:	bf00      	nop
 80044cc:	3710      	adds	r7, #16
 80044ce:	46bd      	mov	sp, r7
 80044d0:	bd80      	pop	{r7, pc}

080044d2 <UART_DMAReceiveCplt>:
  * @param  hdma  Pointer to a DMA_HandleTypeDef structure that contains
  *               the configuration information for the specified DMA module.
  * @retval None
  */
static void UART_DMAReceiveCplt(DMA_HandleTypeDef *hdma)
{
 80044d2:	b580      	push	{r7, lr}
 80044d4:	b084      	sub	sp, #16
 80044d6:	af00      	add	r7, sp, #0
 80044d8:	6078      	str	r0, [r7, #4]
  UART_HandleTypeDef *huart = (UART_HandleTypeDef *)((DMA_HandleTypeDef *)hdma)->Parent;
 80044da:	687b      	ldr	r3, [r7, #4]
 80044dc:	6b9b      	ldr	r3, [r3, #56]	; 0x38
 80044de:	60fb      	str	r3, [r7, #12]
  /* DMA Normal mode*/
  if ((hdma->Instance->CR & DMA_SxCR_CIRC) == 0U)
 80044e0:	687b      	ldr	r3, [r7, #4]
 80044e2:	681b      	ldr	r3, [r3, #0]
 80044e4:	681b      	ldr	r3, [r3, #0]
 80044e6:	f403 7380 	and.w	r3, r3, #256	; 0x100
 80044ea:	2b00      	cmp	r3, #0
 80044ec:	d12a      	bne.n	8004544 <UART_DMAReceiveCplt+0x72>
  {
    huart->RxXferCount = 0U;
 80044ee:	68fb      	ldr	r3, [r7, #12]
 80044f0:	2200      	movs	r2, #0
 80044f2:	85da      	strh	r2, [r3, #46]	; 0x2e

    /* Disable RXNE, PE and ERR (Frame error, noise error, overrun error) interrupts */
    CLEAR_BIT(huart->Instance->CR1, USART_CR1_PEIE);
 80044f4:	68fb      	ldr	r3, [r7, #12]
 80044f6:	681b      	ldr	r3, [r3, #0]
 80044f8:	68da      	ldr	r2, [r3, #12]
 80044fa:	68fb      	ldr	r3, [r7, #12]
 80044fc:	681b      	ldr	r3, [r3, #0]
 80044fe:	f422 7280 	bic.w	r2, r2, #256	; 0x100
 8004502:	60da      	str	r2, [r3, #12]
    CLEAR_BIT(huart->Instance->CR3, USART_CR3_EIE);
 8004504:	68fb      	ldr	r3, [r7, #12]
 8004506:	681b      	ldr	r3, [r3, #0]
 8004508:	695a      	ldr	r2, [r3, #20]
 800450a:	68fb      	ldr	r3, [r7, #12]
 800450c:	681b      	ldr	r3, [r3, #0]
 800450e:	f022 0201 	bic.w	r2, r2, #1
 8004512:	615a      	str	r2, [r3, #20]

    /* Disable the DMA transfer for the receiver request by setting the DMAR bit
       in the UART CR3 register */
    CLEAR_BIT(huart->Instance->CR3, USART_CR3_DMAR);
 8004514:	68fb      	ldr	r3, [r7, #12]
 8004516:	681b      	ldr	r3, [r3, #0]
 8004518:	695a      	ldr	r2, [r3, #20]
 800451a:	68fb      	ldr	r3, [r7, #12]
 800451c:	681b      	ldr	r3, [r3, #0]
 800451e:	f022 0240 	bic.w	r2, r2, #64	; 0x40
 8004522:	615a      	str	r2, [r3, #20]

    /* At end of Rx process, restore huart->RxState to Ready */
    huart->RxState = HAL_UART_STATE_READY;
 8004524:	68fb      	ldr	r3, [r7, #12]
 8004526:	2220      	movs	r2, #32
 8004528:	f883 203e 	strb.w	r2, [r3, #62]	; 0x3e

    /* If Reception till IDLE event has been selected, Disable IDLE Interrupt */
    if (huart->ReceptionType == HAL_UART_RECEPTION_TOIDLE)
 800452c:	68fb      	ldr	r3, [r7, #12]
 800452e:	6b1b      	ldr	r3, [r3, #48]	; 0x30
 8004530:	2b01      	cmp	r3, #1
 8004532:	d107      	bne.n	8004544 <UART_DMAReceiveCplt+0x72>
    {
      CLEAR_BIT(huart->Instance->CR1, USART_CR1_IDLEIE);
 8004534:	68fb      	ldr	r3, [r7, #12]
 8004536:	681b      	ldr	r3, [r3, #0]
 8004538:	68da      	ldr	r2, [r3, #12]
 800453a:	68fb      	ldr	r3, [r7, #12]
 800453c:	681b      	ldr	r3, [r3, #0]
 800453e:	f022 0210 	bic.w	r2, r2, #16
 8004542:	60da      	str	r2, [r3, #12]
    }
  }

  /* Check current reception Mode :
     If Reception till IDLE event has been selected : use Rx Event callback */
  if (huart->ReceptionType == HAL_UART_RECEPTION_TOIDLE)
 8004544:	68fb      	ldr	r3, [r7, #12]
 8004546:	6b1b      	ldr	r3, [r3, #48]	; 0x30
 8004548:	2b01      	cmp	r3, #1
 800454a:	d106      	bne.n	800455a <UART_DMAReceiveCplt+0x88>
#if (USE_HAL_UART_REGISTER_CALLBACKS == 1)
    /*Call registered Rx Event callback*/
    huart->RxEventCallback(huart, huart->RxXferSize);
#else
    /*Call legacy weak Rx Event callback*/
    HAL_UARTEx_RxEventCallback(huart, huart->RxXferSize);
 800454c:	68fb      	ldr	r3, [r7, #12]
 800454e:	8d9b      	ldrh	r3, [r3, #44]	; 0x2c
 8004550:	4619      	mov	r1, r3
 8004552:	68f8      	ldr	r0, [r7, #12]
 8004554:	f7ff ff7a 	bl	800444c <HAL_UARTEx_RxEventCallback>
#else
    /*Call legacy weak Rx complete callback*/
    HAL_UART_RxCpltCallback(huart);
#endif /* USE_HAL_UART_REGISTER_CALLBACKS */
  }
}
 8004558:	e002      	b.n	8004560 <UART_DMAReceiveCplt+0x8e>
    HAL_UART_RxCpltCallback(huart);
 800455a:	68f8      	ldr	r0, [r7, #12]
 800455c:	f7fc fe60 	bl	8001220 <HAL_UART_RxCpltCallback>
}
 8004560:	bf00      	nop
 8004562:	3710      	adds	r7, #16
 8004564:	46bd      	mov	sp, r7
 8004566:	bd80      	pop	{r7, pc}

08004568 <UART_DMARxHalfCplt>:
  * @param  hdma  Pointer to a DMA_HandleTypeDef structure that contains
  *               the configuration information for the specified DMA module.
  * @retval None
  */
static void UART_DMARxHalfCplt(DMA_HandleTypeDef *hdma)
{
 8004568:	b580      	push	{r7, lr}
 800456a:	b084      	sub	sp, #16
 800456c:	af00      	add	r7, sp, #0
 800456e:	6078      	str	r0, [r7, #4]
  UART_HandleTypeDef *huart = (UART_HandleTypeDef *)((DMA_HandleTypeDef *)hdma)->Parent;
 8004570:	687b      	ldr	r3, [r7, #4]
 8004572:	6b9b      	ldr	r3, [r3, #56]	; 0x38
 8004574:	60fb      	str	r3, [r7, #12]

  /* Check current reception Mode :
     If Reception till IDLE event has been selected : use Rx Event callback */
  if (huart->ReceptionType == HAL_UART_RECEPTION_TOIDLE)
 8004576:	68fb      	ldr	r3, [r7, #12]
 8004578:	6b1b      	ldr	r3, [r3, #48]	; 0x30
 800457a:	2b01      	cmp	r3, #1
 800457c:	d108      	bne.n	8004590 <UART_DMARxHalfCplt+0x28>
#if (USE_HAL_UART_REGISTER_CALLBACKS == 1)
    /*Call registered Rx Event callback*/
    huart->RxEventCallback(huart, huart->RxXferSize/2U);
#else
    /*Call legacy weak Rx Event callback*/
    HAL_UARTEx_RxEventCallback(huart, huart->RxXferSize/2U);
 800457e:	68fb      	ldr	r3, [r7, #12]
 8004580:	8d9b      	ldrh	r3, [r3, #44]	; 0x2c
 8004582:	085b      	lsrs	r3, r3, #1
 8004584:	b29b      	uxth	r3, r3
 8004586:	4619      	mov	r1, r3
 8004588:	68f8      	ldr	r0, [r7, #12]
 800458a:	f7ff ff5f 	bl	800444c <HAL_UARTEx_RxEventCallback>
#else
    /*Call legacy weak Rx Half complete callback*/
    HAL_UART_RxHalfCpltCallback(huart);
#endif /* USE_HAL_UART_REGISTER_CALLBACKS */
  }
}
 800458e:	e002      	b.n	8004596 <UART_DMARxHalfCplt+0x2e>
    HAL_UART_RxHalfCpltCallback(huart);
 8004590:	68f8      	ldr	r0, [r7, #12]
 8004592:	f7ff ff47 	bl	8004424 <HAL_UART_RxHalfCpltCallback>
}
 8004596:	bf00      	nop
 8004598:	3710      	adds	r7, #16
 800459a:	46bd      	mov	sp, r7
 800459c:	bd80      	pop	{r7, pc}

0800459e <UART_DMAError>:
  * @param  hdma  Pointer to a DMA_HandleTypeDef structure that contains
  *               the configuration information for the specified DMA module.
  * @retval None
  */
static void UART_DMAError(DMA_HandleTypeDef *hdma)
{
 800459e:	b580      	push	{r7, lr}
 80045a0:	b084      	sub	sp, #16
 80045a2:	af00      	add	r7, sp, #0
 80045a4:	6078      	str	r0, [r7, #4]
  uint32_t dmarequest = 0x00U;
 80045a6:	2300      	movs	r3, #0
 80045a8:	60fb      	str	r3, [r7, #12]
  UART_HandleTypeDef *huart = (UART_HandleTypeDef *)((DMA_HandleTypeDef *)hdma)->Parent;
 80045aa:	687b      	ldr	r3, [r7, #4]
 80045ac:	6b9b      	ldr	r3, [r3, #56]	; 0x38
 80045ae:	60bb      	str	r3, [r7, #8]

  /* Stop UART DMA Tx request if ongoing */
  dmarequest = HAL_IS_BIT_SET(huart->Instance->CR3, USART_CR3_DMAT);
 80045b0:	68bb      	ldr	r3, [r7, #8]
 80045b2:	681b      	ldr	r3, [r3, #0]
 80045b4:	695b      	ldr	r3, [r3, #20]
 80045b6:	f003 0380 	and.w	r3, r3, #128	; 0x80
 80045ba:	2b80      	cmp	r3, #128	; 0x80
 80045bc:	bf0c      	ite	eq
 80045be:	2301      	moveq	r3, #1
 80045c0:	2300      	movne	r3, #0
 80045c2:	b2db      	uxtb	r3, r3
 80045c4:	60fb      	str	r3, [r7, #12]
  if ((huart->gState == HAL_UART_STATE_BUSY_TX) && dmarequest)
 80045c6:	68bb      	ldr	r3, [r7, #8]
 80045c8:	f893 303d 	ldrb.w	r3, [r3, #61]	; 0x3d
 80045cc:	b2db      	uxtb	r3, r3
 80045ce:	2b21      	cmp	r3, #33	; 0x21
 80045d0:	d108      	bne.n	80045e4 <UART_DMAError+0x46>
 80045d2:	68fb      	ldr	r3, [r7, #12]
 80045d4:	2b00      	cmp	r3, #0
 80045d6:	d005      	beq.n	80045e4 <UART_DMAError+0x46>
  {
    huart->TxXferCount = 0x00U;
 80045d8:	68bb      	ldr	r3, [r7, #8]
 80045da:	2200      	movs	r2, #0
 80045dc:	84da      	strh	r2, [r3, #38]	; 0x26
    UART_EndTxTransfer(huart);
 80045de:	68b8      	ldr	r0, [r7, #8]
 80045e0:	f000 f8d6 	bl	8004790 <UART_EndTxTransfer>
  }

  /* Stop UART DMA Rx request if ongoing */
  dmarequest = HAL_IS_BIT_SET(huart->Instance->CR3, USART_CR3_DMAR);
 80045e4:	68bb      	ldr	r3, [r7, #8]
 80045e6:	681b      	ldr	r3, [r3, #0]
 80045e8:	695b      	ldr	r3, [r3, #20]
 80045ea:	f003 0340 	and.w	r3, r3, #64	; 0x40
 80045ee:	2b40      	cmp	r3, #64	; 0x40
 80045f0:	bf0c      	ite	eq
 80045f2:	2301      	moveq	r3, #1
 80045f4:	2300      	movne	r3, #0
 80045f6:	b2db      	uxtb	r3, r3
 80045f8:	60fb      	str	r3, [r7, #12]
  if ((huart->RxState == HAL_UART_STATE_BUSY_RX) && dmarequest)
 80045fa:	68bb      	ldr	r3, [r7, #8]
 80045fc:	f893 303e 	ldrb.w	r3, [r3, #62]	; 0x3e
 8004600:	b2db      	uxtb	r3, r3
 8004602:	2b22      	cmp	r3, #34	; 0x22
 8004604:	d108      	bne.n	8004618 <UART_DMAError+0x7a>
 8004606:	68fb      	ldr	r3, [r7, #12]
 8004608:	2b00      	cmp	r3, #0
 800460a:	d005      	beq.n	8004618 <UART_DMAError+0x7a>
  {
    huart->RxXferCount = 0x00U;
 800460c:	68bb      	ldr	r3, [r7, #8]
 800460e:	2200      	movs	r2, #0
 8004610:	85da      	strh	r2, [r3, #46]	; 0x2e
    UART_EndRxTransfer(huart);
 8004612:	68b8      	ldr	r0, [r7, #8]
 8004614:	f000 f8d2 	bl	80047bc <UART_EndRxTransfer>
  }

  huart->ErrorCode |= HAL_UART_ERROR_DMA;
 8004618:	68bb      	ldr	r3, [r7, #8]
 800461a:	6c1b      	ldr	r3, [r3, #64]	; 0x40
 800461c:	f043 0210 	orr.w	r2, r3, #16
 8004620:	68bb      	ldr	r3, [r7, #8]
 8004622:	641a      	str	r2, [r3, #64]	; 0x40
#if (USE_HAL_UART_REGISTER_CALLBACKS == 1)
  /*Call registered error callback*/
  huart->ErrorCallback(huart);
#else
  /*Call legacy weak error callback*/
  HAL_UART_ErrorCallback(huart);
 8004624:	68b8      	ldr	r0, [r7, #8]
 8004626:	f7ff ff07 	bl	8004438 <HAL_UART_ErrorCallback>
#endif /* USE_HAL_UART_REGISTER_CALLBACKS */
}
 800462a:	bf00      	nop
 800462c:	3710      	adds	r7, #16
 800462e:	46bd      	mov	sp, r7
 8004630:	bd80      	pop	{r7, pc}

08004632 <UART_WaitOnFlagUntilTimeout>:
  * @param  Tickstart Tick start value
  * @param  Timeout Timeout duration
  * @retval HAL status
  */
static HAL_StatusTypeDef UART_WaitOnFlagUntilTimeout(UART_HandleTypeDef *huart, uint32_t Flag, FlagStatus Status, uint32_t Tickstart, uint32_t Timeout)
{
 8004632:	b580      	push	{r7, lr}
 8004634:	b084      	sub	sp, #16
 8004636:	af00      	add	r7, sp, #0
 8004638:	60f8      	str	r0, [r7, #12]
 800463a:	60b9      	str	r1, [r7, #8]
 800463c:	603b      	str	r3, [r7, #0]
 800463e:	4613      	mov	r3, r2
 8004640:	71fb      	strb	r3, [r7, #7]
  /* Wait until flag is set */
  while ((__HAL_UART_GET_FLAG(huart, Flag) ? SET : RESET) == Status)
 8004642:	e02c      	b.n	800469e <UART_WaitOnFlagUntilTimeout+0x6c>
  {
    /* Check for the Timeout */
    if (Timeout != HAL_MAX_DELAY)
 8004644:	69bb      	ldr	r3, [r7, #24]
 8004646:	f1b3 3fff 	cmp.w	r3, #4294967295
 800464a:	d028      	beq.n	800469e <UART_WaitOnFlagUntilTimeout+0x6c>
    {
      if ((Timeout == 0U) || ((HAL_GetTick() - Tickstart) > Timeout))
 800464c:	69bb      	ldr	r3, [r7, #24]
 800464e:	2b00      	cmp	r3, #0
 8004650:	d007      	beq.n	8004662 <UART_WaitOnFlagUntilTimeout+0x30>
 8004652:	f7fc ff31 	bl	80014b8 <HAL_GetTick>
 8004656:	4602      	mov	r2, r0
 8004658:	683b      	ldr	r3, [r7, #0]
 800465a:	1ad3      	subs	r3, r2, r3
 800465c:	69ba      	ldr	r2, [r7, #24]
 800465e:	429a      	cmp	r2, r3
 8004660:	d21d      	bcs.n	800469e <UART_WaitOnFlagUntilTimeout+0x6c>
      {
        /* Disable TXE, RXNE, PE and ERR (Frame error, noise error, overrun error) interrupts for the interrupt process */
        CLEAR_BIT(huart->Instance->CR1, (USART_CR1_RXNEIE | USART_CR1_PEIE | USART_CR1_TXEIE));
 8004662:	68fb      	ldr	r3, [r7, #12]
 8004664:	681b      	ldr	r3, [r3, #0]
 8004666:	68da      	ldr	r2, [r3, #12]
 8004668:	68fb      	ldr	r3, [r7, #12]
 800466a:	681b      	ldr	r3, [r3, #0]
 800466c:	f422 72d0 	bic.w	r2, r2, #416	; 0x1a0
 8004670:	60da      	str	r2, [r3, #12]
        CLEAR_BIT(huart->Instance->CR3, USART_CR3_EIE);
 8004672:	68fb      	ldr	r3, [r7, #12]
 8004674:	681b      	ldr	r3, [r3, #0]
 8004676:	695a      	ldr	r2, [r3, #20]
 8004678:	68fb      	ldr	r3, [r7, #12]
 800467a:	681b      	ldr	r3, [r3, #0]
 800467c:	f022 0201 	bic.w	r2, r2, #1
 8004680:	615a      	str	r2, [r3, #20]

        huart->gState  = HAL_UART_STATE_READY;
 8004682:	68fb      	ldr	r3, [r7, #12]
 8004684:	2220      	movs	r2, #32
 8004686:	f883 203d 	strb.w	r2, [r3, #61]	; 0x3d
        huart->RxState = HAL_UART_STATE_READY;
 800468a:	68fb      	ldr	r3, [r7, #12]
 800468c:	2220      	movs	r2, #32
 800468e:	f883 203e 	strb.w	r2, [r3, #62]	; 0x3e

        /* Process Unlocked */
        __HAL_UNLOCK(huart);
 8004692:	68fb      	ldr	r3, [r7, #12]
 8004694:	2200      	movs	r2, #0
 8004696:	f883 203c 	strb.w	r2, [r3, #60]	; 0x3c

        return HAL_TIMEOUT;
 800469a:	2303      	movs	r3, #3
 800469c:	e00f      	b.n	80046be <UART_WaitOnFlagUntilTimeout+0x8c>
  while ((__HAL_UART_GET_FLAG(huart, Flag) ? SET : RESET) == Status)
 800469e:	68fb      	ldr	r3, [r7, #12]
 80046a0:	681b      	ldr	r3, [r3, #0]
 80046a2:	681a      	ldr	r2, [r3, #0]
 80046a4:	68bb      	ldr	r3, [r7, #8]
 80046a6:	4013      	ands	r3, r2
 80046a8:	68ba      	ldr	r2, [r7, #8]
 80046aa:	429a      	cmp	r2, r3
 80046ac:	bf0c      	ite	eq
 80046ae:	2301      	moveq	r3, #1
 80046b0:	2300      	movne	r3, #0
 80046b2:	b2db      	uxtb	r3, r3
 80046b4:	461a      	mov	r2, r3
 80046b6:	79fb      	ldrb	r3, [r7, #7]
 80046b8:	429a      	cmp	r2, r3
 80046ba:	d0c3      	beq.n	8004644 <UART_WaitOnFlagUntilTimeout+0x12>
      }
    }
  }
  return HAL_OK;
 80046bc:	2300      	movs	r3, #0
}
 80046be:	4618      	mov	r0, r3
 80046c0:	3710      	adds	r7, #16
 80046c2:	46bd      	mov	sp, r7
 80046c4:	bd80      	pop	{r7, pc}
	...

080046c8 <UART_Start_Receive_DMA>:
  * @param  pData Pointer to data buffer (u8 or u16 data elements).
  * @param  Size  Amount of data elements (u8 or u16) to be received.
  * @retval HAL status
  */
HAL_StatusTypeDef UART_Start_Receive_DMA(UART_HandleTypeDef *huart, uint8_t *pData, uint16_t Size)
{
 80046c8:	b580      	push	{r7, lr}
 80046ca:	b086      	sub	sp, #24
 80046cc:	af00      	add	r7, sp, #0
 80046ce:	60f8      	str	r0, [r7, #12]
 80046d0:	60b9      	str	r1, [r7, #8]
 80046d2:	4613      	mov	r3, r2
 80046d4:	80fb      	strh	r3, [r7, #6]
  uint32_t *tmp;

  huart->pRxBuffPtr = pData;
 80046d6:	68ba      	ldr	r2, [r7, #8]
 80046d8:	68fb      	ldr	r3, [r7, #12]
 80046da:	629a      	str	r2, [r3, #40]	; 0x28
  huart->RxXferSize = Size;
 80046dc:	68fb      	ldr	r3, [r7, #12]
 80046de:	88fa      	ldrh	r2, [r7, #6]
 80046e0:	859a      	strh	r2, [r3, #44]	; 0x2c

  huart->ErrorCode = HAL_UART_ERROR_NONE;
 80046e2:	68fb      	ldr	r3, [r7, #12]
 80046e4:	2200      	movs	r2, #0
 80046e6:	641a      	str	r2, [r3, #64]	; 0x40
  huart->RxState = HAL_UART_STATE_BUSY_RX;
 80046e8:	68fb      	ldr	r3, [r7, #12]
 80046ea:	2222      	movs	r2, #34	; 0x22
 80046ec:	f883 203e 	strb.w	r2, [r3, #62]	; 0x3e

  /* Set the UART DMA transfer complete callback */
  huart->hdmarx->XferCpltCallback = UART_DMAReceiveCplt;
 80046f0:	68fb      	ldr	r3, [r7, #12]
 80046f2:	6b9b      	ldr	r3, [r3, #56]	; 0x38
 80046f4:	4a23      	ldr	r2, [pc, #140]	; (8004784 <UART_Start_Receive_DMA+0xbc>)
 80046f6:	63da      	str	r2, [r3, #60]	; 0x3c

  /* Set the UART DMA Half transfer complete callback */
  huart->hdmarx->XferHalfCpltCallback = UART_DMARxHalfCplt;
 80046f8:	68fb      	ldr	r3, [r7, #12]
 80046fa:	6b9b      	ldr	r3, [r3, #56]	; 0x38
 80046fc:	4a22      	ldr	r2, [pc, #136]	; (8004788 <UART_Start_Receive_DMA+0xc0>)
 80046fe:	641a      	str	r2, [r3, #64]	; 0x40

  /* Set the DMA error callback */
  huart->hdmarx->XferErrorCallback = UART_DMAError;
 8004700:	68fb      	ldr	r3, [r7, #12]
 8004702:	6b9b      	ldr	r3, [r3, #56]	; 0x38
 8004704:	4a21      	ldr	r2, [pc, #132]	; (800478c <UART_Start_Receive_DMA+0xc4>)
 8004706:	64da      	str	r2, [r3, #76]	; 0x4c

  /* Set the DMA abort callback */
  huart->hdmarx->XferAbortCallback = NULL;
 8004708:	68fb      	ldr	r3, [r7, #12]
 800470a:	6b9b      	ldr	r3, [r3, #56]	; 0x38
 800470c:	2200      	movs	r2, #0
 800470e:	651a      	str	r2, [r3, #80]	; 0x50

  /* Enable the DMA stream */
  tmp = (uint32_t *)&pData;
 8004710:	f107 0308 	add.w	r3, r7, #8
 8004714:	617b      	str	r3, [r7, #20]
  HAL_DMA_Start_IT(huart->hdmarx, (uint32_t)&huart->Instance->DR, *(uint32_t *)tmp, Size);
 8004716:	68fb      	ldr	r3, [r7, #12]
 8004718:	6b98      	ldr	r0, [r3, #56]	; 0x38
 800471a:	68fb      	ldr	r3, [r7, #12]
 800471c:	681b      	ldr	r3, [r3, #0]
 800471e:	3304      	adds	r3, #4
 8004720:	4619      	mov	r1, r3
 8004722:	697b      	ldr	r3, [r7, #20]
 8004724:	681a      	ldr	r2, [r3, #0]
 8004726:	88fb      	ldrh	r3, [r7, #6]
 8004728:	f7fd f892 	bl	8001850 <HAL_DMA_Start_IT>

  /* Clear the Overrun flag just before enabling the DMA Rx request: can be mandatory for the second transfer */
  __HAL_UART_CLEAR_OREFLAG(huart);
 800472c:	2300      	movs	r3, #0
 800472e:	613b      	str	r3, [r7, #16]
 8004730:	68fb      	ldr	r3, [r7, #12]
 8004732:	681b      	ldr	r3, [r3, #0]
 8004734:	681b      	ldr	r3, [r3, #0]
 8004736:	613b      	str	r3, [r7, #16]
 8004738:	68fb      	ldr	r3, [r7, #12]
 800473a:	681b      	ldr	r3, [r3, #0]
 800473c:	685b      	ldr	r3, [r3, #4]
 800473e:	613b      	str	r3, [r7, #16]
 8004740:	693b      	ldr	r3, [r7, #16]

  /* Process Unlocked */
  __HAL_UNLOCK(huart);
 8004742:	68fb      	ldr	r3, [r7, #12]
 8004744:	2200      	movs	r2, #0
 8004746:	f883 203c 	strb.w	r2, [r3, #60]	; 0x3c

  /* Enable the UART Parity Error Interrupt */
  SET_BIT(huart->Instance->CR1, USART_CR1_PEIE);
 800474a:	68fb      	ldr	r3, [r7, #12]
 800474c:	681b      	ldr	r3, [r3, #0]
 800474e:	68da      	ldr	r2, [r3, #12]
 8004750:	68fb      	ldr	r3, [r7, #12]
 8004752:	681b      	ldr	r3, [r3, #0]
 8004754:	f442 7280 	orr.w	r2, r2, #256	; 0x100
 8004758:	60da      	str	r2, [r3, #12]

  /* Enable the UART Error Interrupt: (Frame error, noise error, overrun error) */
  SET_BIT(huart->Instance->CR3, USART_CR3_EIE);
 800475a:	68fb      	ldr	r3, [r7, #12]
 800475c:	681b      	ldr	r3, [r3, #0]
 800475e:	695a      	ldr	r2, [r3, #20]
 8004760:	68fb      	ldr	r3, [r7, #12]
 8004762:	681b      	ldr	r3, [r3, #0]
 8004764:	f042 0201 	orr.w	r2, r2, #1
 8004768:	615a      	str	r2, [r3, #20]

  /* Enable the DMA transfer for the receiver request by setting the DMAR bit
  in the UART CR3 register */
  SET_BIT(huart->Instance->CR3, USART_CR3_DMAR);
 800476a:	68fb      	ldr	r3, [r7, #12]
 800476c:	681b      	ldr	r3, [r3, #0]
 800476e:	695a      	ldr	r2, [r3, #20]
 8004770:	68fb      	ldr	r3, [r7, #12]
 8004772:	681b      	ldr	r3, [r3, #0]
 8004774:	f042 0240 	orr.w	r2, r2, #64	; 0x40
 8004778:	615a      	str	r2, [r3, #20]

  return HAL_OK;
 800477a:	2300      	movs	r3, #0
}
 800477c:	4618      	mov	r0, r3
 800477e:	3718      	adds	r7, #24
 8004780:	46bd      	mov	sp, r7
 8004782:	bd80      	pop	{r7, pc}
 8004784:	080044d3 	.word	0x080044d3
 8004788:	08004569 	.word	0x08004569
 800478c:	0800459f 	.word	0x0800459f

08004790 <UART_EndTxTransfer>:
  * @brief  End ongoing Tx transfer on UART peripheral (following error detection or Transmit completion).
  * @param  huart UART handle.
  * @retval None
  */
static void UART_EndTxTransfer(UART_HandleTypeDef *huart)
{
 8004790:	b480      	push	{r7}
 8004792:	b083      	sub	sp, #12
 8004794:	af00      	add	r7, sp, #0
 8004796:	6078      	str	r0, [r7, #4]
  /* Disable TXEIE and TCIE interrupts */
  CLEAR_BIT(huart->Instance->CR1, (USART_CR1_TXEIE | USART_CR1_TCIE));
 8004798:	687b      	ldr	r3, [r7, #4]
 800479a:	681b      	ldr	r3, [r3, #0]
 800479c:	68da      	ldr	r2, [r3, #12]
 800479e:	687b      	ldr	r3, [r7, #4]
 80047a0:	681b      	ldr	r3, [r3, #0]
 80047a2:	f022 02c0 	bic.w	r2, r2, #192	; 0xc0
 80047a6:	60da      	str	r2, [r3, #12]

  /* At end of Tx process, restore huart->gState to Ready */
  huart->gState = HAL_UART_STATE_READY;
 80047a8:	687b      	ldr	r3, [r7, #4]
 80047aa:	2220      	movs	r2, #32
 80047ac:	f883 203d 	strb.w	r2, [r3, #61]	; 0x3d
}
 80047b0:	bf00      	nop
 80047b2:	370c      	adds	r7, #12
 80047b4:	46bd      	mov	sp, r7
 80047b6:	f85d 7b04 	ldr.w	r7, [sp], #4
 80047ba:	4770      	bx	lr

080047bc <UART_EndRxTransfer>:
  * @brief  End ongoing Rx transfer on UART peripheral (following error detection or Reception completion).
  * @param  huart UART handle.
  * @retval None
  */
static void UART_EndRxTransfer(UART_HandleTypeDef *huart)
{
 80047bc:	b480      	push	{r7}
 80047be:	b083      	sub	sp, #12
 80047c0:	af00      	add	r7, sp, #0
 80047c2:	6078      	str	r0, [r7, #4]
  /* Disable RXNE, PE and ERR (Frame error, noise error, overrun error) interrupts */
  CLEAR_BIT(huart->Instance->CR1, (USART_CR1_RXNEIE | USART_CR1_PEIE));
 80047c4:	687b      	ldr	r3, [r7, #4]
 80047c6:	681b      	ldr	r3, [r3, #0]
 80047c8:	68da      	ldr	r2, [r3, #12]
 80047ca:	687b      	ldr	r3, [r7, #4]
 80047cc:	681b      	ldr	r3, [r3, #0]
 80047ce:	f422 7290 	bic.w	r2, r2, #288	; 0x120
 80047d2:	60da      	str	r2, [r3, #12]
  CLEAR_BIT(huart->Instance->CR3, USART_CR3_EIE);
 80047d4:	687b      	ldr	r3, [r7, #4]
 80047d6:	681b      	ldr	r3, [r3, #0]
 80047d8:	695a      	ldr	r2, [r3, #20]
 80047da:	687b      	ldr	r3, [r7, #4]
 80047dc:	681b      	ldr	r3, [r3, #0]
 80047de:	f022 0201 	bic.w	r2, r2, #1
 80047e2:	615a      	str	r2, [r3, #20]

  /* In case of reception waiting for IDLE event, disable also the IDLE IE interrupt source */
  if (huart->ReceptionType == HAL_UART_RECEPTION_TOIDLE)
 80047e4:	687b      	ldr	r3, [r7, #4]
 80047e6:	6b1b      	ldr	r3, [r3, #48]	; 0x30
 80047e8:	2b01      	cmp	r3, #1
 80047ea:	d107      	bne.n	80047fc <UART_EndRxTransfer+0x40>
  {
    CLEAR_BIT(huart->Instance->CR1, USART_CR1_IDLEIE);
 80047ec:	687b      	ldr	r3, [r7, #4]
 80047ee:	681b      	ldr	r3, [r3, #0]
 80047f0:	68da      	ldr	r2, [r3, #12]
 80047f2:	687b      	ldr	r3, [r7, #4]
 80047f4:	681b      	ldr	r3, [r3, #0]
 80047f6:	f022 0210 	bic.w	r2, r2, #16
 80047fa:	60da      	str	r2, [r3, #12]
  }

  /* At end of Rx process, restore huart->RxState to Ready */
  huart->RxState = HAL_UART_STATE_READY;
 80047fc:	687b      	ldr	r3, [r7, #4]
 80047fe:	2220      	movs	r2, #32
 8004800:	f883 203e 	strb.w	r2, [r3, #62]	; 0x3e
  huart->ReceptionType = HAL_UART_RECEPTION_STANDARD;
 8004804:	687b      	ldr	r3, [r7, #4]
 8004806:	2200      	movs	r2, #0
 8004808:	631a      	str	r2, [r3, #48]	; 0x30
}
 800480a:	bf00      	nop
 800480c:	370c      	adds	r7, #12
 800480e:	46bd      	mov	sp, r7
 8004810:	f85d 7b04 	ldr.w	r7, [sp], #4
 8004814:	4770      	bx	lr

08004816 <UART_DMAAbortOnError>:
  * @param  hdma  Pointer to a DMA_HandleTypeDef structure that contains
  *               the configuration information for the specified DMA module.
  * @retval None
  */
static void UART_DMAAbortOnError(DMA_HandleTypeDef *hdma)
{
 8004816:	b580      	push	{r7, lr}
 8004818:	b084      	sub	sp, #16
 800481a:	af00      	add	r7, sp, #0
 800481c:	6078      	str	r0, [r7, #4]
  UART_HandleTypeDef *huart = (UART_HandleTypeDef *)((DMA_HandleTypeDef *)hdma)->Parent;
 800481e:	687b      	ldr	r3, [r7, #4]
 8004820:	6b9b      	ldr	r3, [r3, #56]	; 0x38
 8004822:	60fb      	str	r3, [r7, #12]
  huart->RxXferCount = 0x00U;
 8004824:	68fb      	ldr	r3, [r7, #12]
 8004826:	2200      	movs	r2, #0
 8004828:	85da      	strh	r2, [r3, #46]	; 0x2e
  huart->TxXferCount = 0x00U;
 800482a:	68fb      	ldr	r3, [r7, #12]
 800482c:	2200      	movs	r2, #0
 800482e:	84da      	strh	r2, [r3, #38]	; 0x26
#if (USE_HAL_UART_REGISTER_CALLBACKS == 1)
  /*Call registered error callback*/
  huart->ErrorCallback(huart);
#else
  /*Call legacy weak error callback*/
  HAL_UART_ErrorCallback(huart);
 8004830:	68f8      	ldr	r0, [r7, #12]
 8004832:	f7ff fe01 	bl	8004438 <HAL_UART_ErrorCallback>
#endif /* USE_HAL_UART_REGISTER_CALLBACKS */
}
 8004836:	bf00      	nop
 8004838:	3710      	adds	r7, #16
 800483a:	46bd      	mov	sp, r7
 800483c:	bd80      	pop	{r7, pc}

0800483e <UART_Transmit_IT>:
  * @param  huart  Pointer to a UART_HandleTypeDef structure that contains
  *                the configuration information for the specified UART module.
  * @retval HAL status
  */
static HAL_StatusTypeDef UART_Transmit_IT(UART_HandleTypeDef *huart)
{
 800483e:	b480      	push	{r7}
 8004840:	b085      	sub	sp, #20
 8004842:	af00      	add	r7, sp, #0
 8004844:	6078      	str	r0, [r7, #4]
  uint16_t *tmp;

  /* Check that a Tx process is ongoing */
  if (huart->gState == HAL_UART_STATE_BUSY_TX)
 8004846:	687b      	ldr	r3, [r7, #4]
 8004848:	f893 303d 	ldrb.w	r3, [r3, #61]	; 0x3d
 800484c:	b2db      	uxtb	r3, r3
 800484e:	2b21      	cmp	r3, #33	; 0x21
 8004850:	d13e      	bne.n	80048d0 <UART_Transmit_IT+0x92>
  {
    if ((huart->Init.WordLength == UART_WORDLENGTH_9B) && (huart->Init.Parity == UART_PARITY_NONE))
 8004852:	687b      	ldr	r3, [r7, #4]
 8004854:	689b      	ldr	r3, [r3, #8]
 8004856:	f5b3 5f80 	cmp.w	r3, #4096	; 0x1000
 800485a:	d114      	bne.n	8004886 <UART_Transmit_IT+0x48>
 800485c:	687b      	ldr	r3, [r7, #4]
 800485e:	691b      	ldr	r3, [r3, #16]
 8004860:	2b00      	cmp	r3, #0
 8004862:	d110      	bne.n	8004886 <UART_Transmit_IT+0x48>
    {
      tmp = (uint16_t *) huart->pTxBuffPtr;
 8004864:	687b      	ldr	r3, [r7, #4]
 8004866:	6a1b      	ldr	r3, [r3, #32]
 8004868:	60fb      	str	r3, [r7, #12]
      huart->Instance->DR = (uint16_t)(*tmp & (uint16_t)0x01FF);
 800486a:	68fb      	ldr	r3, [r7, #12]
 800486c:	881b      	ldrh	r3, [r3, #0]
 800486e:	461a      	mov	r2, r3
 8004870:	687b      	ldr	r3, [r7, #4]
 8004872:	681b      	ldr	r3, [r3, #0]
 8004874:	f3c2 0208 	ubfx	r2, r2, #0, #9
 8004878:	605a      	str	r2, [r3, #4]
      huart->pTxBuffPtr += 2U;
 800487a:	687b      	ldr	r3, [r7, #4]
 800487c:	6a1b      	ldr	r3, [r3, #32]
 800487e:	1c9a      	adds	r2, r3, #2
 8004880:	687b      	ldr	r3, [r7, #4]
 8004882:	621a      	str	r2, [r3, #32]
 8004884:	e008      	b.n	8004898 <UART_Transmit_IT+0x5a>
    }
    else
    {
      huart->Instance->DR = (uint8_t)(*huart->pTxBuffPtr++ & (uint8_t)0x00FF);
 8004886:	687b      	ldr	r3, [r7, #4]
 8004888:	6a1b      	ldr	r3, [r3, #32]
 800488a:	1c59      	adds	r1, r3, #1
 800488c:	687a      	ldr	r2, [r7, #4]
 800488e:	6211      	str	r1, [r2, #32]
 8004890:	781a      	ldrb	r2, [r3, #0]
 8004892:	687b      	ldr	r3, [r7, #4]
 8004894:	681b      	ldr	r3, [r3, #0]
 8004896:	605a      	str	r2, [r3, #4]
    }

    if (--huart->TxXferCount == 0U)
 8004898:	687b      	ldr	r3, [r7, #4]
 800489a:	8cdb      	ldrh	r3, [r3, #38]	; 0x26
 800489c:	b29b      	uxth	r3, r3
 800489e:	3b01      	subs	r3, #1
 80048a0:	b29b      	uxth	r3, r3
 80048a2:	687a      	ldr	r2, [r7, #4]
 80048a4:	4619      	mov	r1, r3
 80048a6:	84d1      	strh	r1, [r2, #38]	; 0x26
 80048a8:	2b00      	cmp	r3, #0
 80048aa:	d10f      	bne.n	80048cc <UART_Transmit_IT+0x8e>
    {
      /* Disable the UART Transmit Complete Interrupt */
      __HAL_UART_DISABLE_IT(huart, UART_IT_TXE);
 80048ac:	687b      	ldr	r3, [r7, #4]
 80048ae:	681b      	ldr	r3, [r3, #0]
 80048b0:	68da      	ldr	r2, [r3, #12]
 80048b2:	687b      	ldr	r3, [r7, #4]
 80048b4:	681b      	ldr	r3, [r3, #0]
 80048b6:	f022 0280 	bic.w	r2, r2, #128	; 0x80
 80048ba:	60da      	str	r2, [r3, #12]

      /* Enable the UART Transmit Complete Interrupt */
      __HAL_UART_ENABLE_IT(huart, UART_IT_TC);
 80048bc:	687b      	ldr	r3, [r7, #4]
 80048be:	681b      	ldr	r3, [r3, #0]
 80048c0:	68da      	ldr	r2, [r3, #12]
 80048c2:	687b      	ldr	r3, [r7, #4]
 80048c4:	681b      	ldr	r3, [r3, #0]
 80048c6:	f042 0240 	orr.w	r2, r2, #64	; 0x40
 80048ca:	60da      	str	r2, [r3, #12]
    }
    return HAL_OK;
 80048cc:	2300      	movs	r3, #0
 80048ce:	e000      	b.n	80048d2 <UART_Transmit_IT+0x94>
  }
  else
  {
    return HAL_BUSY;
 80048d0:	2302      	movs	r3, #2
  }
}
 80048d2:	4618      	mov	r0, r3
 80048d4:	3714      	adds	r7, #20
 80048d6:	46bd      	mov	sp, r7
 80048d8:	f85d 7b04 	ldr.w	r7, [sp], #4
 80048dc:	4770      	bx	lr

080048de <UART_EndTransmit_IT>:
  * @param  huart  Pointer to a UART_HandleTypeDef structure that contains
  *                the configuration information for the specified UART module.
  * @retval HAL status
  */
static HAL_StatusTypeDef UART_EndTransmit_IT(UART_HandleTypeDef *huart)
{
 80048de:	b580      	push	{r7, lr}
 80048e0:	b082      	sub	sp, #8
 80048e2:	af00      	add	r7, sp, #0
 80048e4:	6078      	str	r0, [r7, #4]
  /* Disable the UART Transmit Complete Interrupt */
  __HAL_UART_DISABLE_IT(huart, UART_IT_TC);
 80048e6:	687b      	ldr	r3, [r7, #4]
 80048e8:	681b      	ldr	r3, [r3, #0]
 80048ea:	68da      	ldr	r2, [r3, #12]
 80048ec:	687b      	ldr	r3, [r7, #4]
 80048ee:	681b      	ldr	r3, [r3, #0]
 80048f0:	f022 0240 	bic.w	r2, r2, #64	; 0x40
 80048f4:	60da      	str	r2, [r3, #12]

  /* Tx process is ended, restore huart->gState to Ready */
  huart->gState = HAL_UART_STATE_READY;
 80048f6:	687b      	ldr	r3, [r7, #4]
 80048f8:	2220      	movs	r2, #32
 80048fa:	f883 203d 	strb.w	r2, [r3, #61]	; 0x3d
#if (USE_HAL_UART_REGISTER_CALLBACKS == 1)
  /*Call registered Tx complete callback*/
  huart->TxCpltCallback(huart);
#else
  /*Call legacy weak Tx complete callback*/
  HAL_UART_TxCpltCallback(huart);
 80048fe:	6878      	ldr	r0, [r7, #4]
 8004900:	f7fc fd38 	bl	8001374 <HAL_UART_TxCpltCallback>
#endif /* USE_HAL_UART_REGISTER_CALLBACKS */

  return HAL_OK;
 8004904:	2300      	movs	r3, #0
}
 8004906:	4618      	mov	r0, r3
 8004908:	3708      	adds	r7, #8
 800490a:	46bd      	mov	sp, r7
 800490c:	bd80      	pop	{r7, pc}

0800490e <UART_Receive_IT>:
  * @param  huart  Pointer to a UART_HandleTypeDef structure that contains
  *                the configuration information for the specified UART module.
  * @retval HAL status
  */
static HAL_StatusTypeDef UART_Receive_IT(UART_HandleTypeDef *huart)
{
 800490e:	b580      	push	{r7, lr}
 8004910:	b084      	sub	sp, #16
 8004912:	af00      	add	r7, sp, #0
 8004914:	6078      	str	r0, [r7, #4]
  uint8_t  *pdata8bits;
  uint16_t *pdata16bits;

  /* Check that a Rx process is ongoing */
  if (huart->RxState == HAL_UART_STATE_BUSY_RX)
 8004916:	687b      	ldr	r3, [r7, #4]
 8004918:	f893 303e 	ldrb.w	r3, [r3, #62]	; 0x3e
 800491c:	b2db      	uxtb	r3, r3
 800491e:	2b22      	cmp	r3, #34	; 0x22
 8004920:	f040 8087 	bne.w	8004a32 <UART_Receive_IT+0x124>
  {
    if ((huart->Init.WordLength == UART_WORDLENGTH_9B) && (huart->Init.Parity == UART_PARITY_NONE))
 8004924:	687b      	ldr	r3, [r7, #4]
 8004926:	689b      	ldr	r3, [r3, #8]
 8004928:	f5b3 5f80 	cmp.w	r3, #4096	; 0x1000
 800492c:	d117      	bne.n	800495e <UART_Receive_IT+0x50>
 800492e:	687b      	ldr	r3, [r7, #4]
 8004930:	691b      	ldr	r3, [r3, #16]
 8004932:	2b00      	cmp	r3, #0
 8004934:	d113      	bne.n	800495e <UART_Receive_IT+0x50>
    {
      pdata8bits  = NULL;
 8004936:	2300      	movs	r3, #0
 8004938:	60fb      	str	r3, [r7, #12]
      pdata16bits = (uint16_t *) huart->pRxBuffPtr;
 800493a:	687b      	ldr	r3, [r7, #4]
 800493c:	6a9b      	ldr	r3, [r3, #40]	; 0x28
 800493e:	60bb      	str	r3, [r7, #8]
      *pdata16bits = (uint16_t)(huart->Instance->DR & (uint16_t)0x01FF);
 8004940:	687b      	ldr	r3, [r7, #4]
 8004942:	681b      	ldr	r3, [r3, #0]
 8004944:	685b      	ldr	r3, [r3, #4]
 8004946:	b29b      	uxth	r3, r3
 8004948:	f3c3 0308 	ubfx	r3, r3, #0, #9
 800494c:	b29a      	uxth	r2, r3
 800494e:	68bb      	ldr	r3, [r7, #8]
 8004950:	801a      	strh	r2, [r3, #0]
      huart->pRxBuffPtr += 2U;
 8004952:	687b      	ldr	r3, [r7, #4]
 8004954:	6a9b      	ldr	r3, [r3, #40]	; 0x28
 8004956:	1c9a      	adds	r2, r3, #2
 8004958:	687b      	ldr	r3, [r7, #4]
 800495a:	629a      	str	r2, [r3, #40]	; 0x28
 800495c:	e026      	b.n	80049ac <UART_Receive_IT+0x9e>
    }
    else
    {
      pdata8bits = (uint8_t *) huart->pRxBuffPtr;
 800495e:	687b      	ldr	r3, [r7, #4]
 8004960:	6a9b      	ldr	r3, [r3, #40]	; 0x28
 8004962:	60fb      	str	r3, [r7, #12]
      pdata16bits  = NULL;
 8004964:	2300      	movs	r3, #0
 8004966:	60bb      	str	r3, [r7, #8]

      if ((huart->Init.WordLength == UART_WORDLENGTH_9B) || ((huart->Init.WordLength == UART_WORDLENGTH_8B) && (huart->Init.Parity == UART_PARITY_NONE)))
 8004968:	687b      	ldr	r3, [r7, #4]
 800496a:	689b      	ldr	r3, [r3, #8]
 800496c:	f5b3 5f80 	cmp.w	r3, #4096	; 0x1000
 8004970:	d007      	beq.n	8004982 <UART_Receive_IT+0x74>
 8004972:	687b      	ldr	r3, [r7, #4]
 8004974:	689b      	ldr	r3, [r3, #8]
 8004976:	2b00      	cmp	r3, #0
 8004978:	d10a      	bne.n	8004990 <UART_Receive_IT+0x82>
 800497a:	687b      	ldr	r3, [r7, #4]
 800497c:	691b      	ldr	r3, [r3, #16]
 800497e:	2b00      	cmp	r3, #0
 8004980:	d106      	bne.n	8004990 <UART_Receive_IT+0x82>
      {
        *pdata8bits = (uint8_t)(huart->Instance->DR & (uint8_t)0x00FF);
 8004982:	687b      	ldr	r3, [r7, #4]
 8004984:	681b      	ldr	r3, [r3, #0]
 8004986:	685b      	ldr	r3, [r3, #4]
 8004988:	b2da      	uxtb	r2, r3
 800498a:	68fb      	ldr	r3, [r7, #12]
 800498c:	701a      	strb	r2, [r3, #0]
 800498e:	e008      	b.n	80049a2 <UART_Receive_IT+0x94>
      }
      else
      {
        *pdata8bits = (uint8_t)(huart->Instance->DR & (uint8_t)0x007F);
 8004990:	687b      	ldr	r3, [r7, #4]
 8004992:	681b      	ldr	r3, [r3, #0]
 8004994:	685b      	ldr	r3, [r3, #4]
 8004996:	b2db      	uxtb	r3, r3
 8004998:	f003 037f 	and.w	r3, r3, #127	; 0x7f
 800499c:	b2da      	uxtb	r2, r3
 800499e:	68fb      	ldr	r3, [r7, #12]
 80049a0:	701a      	strb	r2, [r3, #0]
      }
      huart->pRxBuffPtr += 1U;
 80049a2:	687b      	ldr	r3, [r7, #4]
 80049a4:	6a9b      	ldr	r3, [r3, #40]	; 0x28
 80049a6:	1c5a      	adds	r2, r3, #1
 80049a8:	687b      	ldr	r3, [r7, #4]
 80049aa:	629a      	str	r2, [r3, #40]	; 0x28
    }

    if (--huart->RxXferCount == 0U)
 80049ac:	687b      	ldr	r3, [r7, #4]
 80049ae:	8ddb      	ldrh	r3, [r3, #46]	; 0x2e
 80049b0:	b29b      	uxth	r3, r3
 80049b2:	3b01      	subs	r3, #1
 80049b4:	b29b      	uxth	r3, r3
 80049b6:	687a      	ldr	r2, [r7, #4]
 80049b8:	4619      	mov	r1, r3
 80049ba:	85d1      	strh	r1, [r2, #46]	; 0x2e
 80049bc:	2b00      	cmp	r3, #0
 80049be:	d136      	bne.n	8004a2e <UART_Receive_IT+0x120>
    {
      /* Disable the UART Data Register not empty Interrupt */
      __HAL_UART_DISABLE_IT(huart, UART_IT_RXNE);
 80049c0:	687b      	ldr	r3, [r7, #4]
 80049c2:	681b      	ldr	r3, [r3, #0]
 80049c4:	68da      	ldr	r2, [r3, #12]
 80049c6:	687b      	ldr	r3, [r7, #4]
 80049c8:	681b      	ldr	r3, [r3, #0]
 80049ca:	f022 0220 	bic.w	r2, r2, #32
 80049ce:	60da      	str	r2, [r3, #12]

      /* Disable the UART Parity Error Interrupt */
      __HAL_UART_DISABLE_IT(huart, UART_IT_PE);
 80049d0:	687b      	ldr	r3, [r7, #4]
 80049d2:	681b      	ldr	r3, [r3, #0]
 80049d4:	68da      	ldr	r2, [r3, #12]
 80049d6:	687b      	ldr	r3, [r7, #4]
 80049d8:	681b      	ldr	r3, [r3, #0]
 80049da:	f422 7280 	bic.w	r2, r2, #256	; 0x100
 80049de:	60da      	str	r2, [r3, #12]

      /* Disable the UART Error Interrupt: (Frame error, noise error, overrun error) */
      __HAL_UART_DISABLE_IT(huart, UART_IT_ERR);
 80049e0:	687b      	ldr	r3, [r7, #4]
 80049e2:	681b      	ldr	r3, [r3, #0]
 80049e4:	695a      	ldr	r2, [r3, #20]
 80049e6:	687b      	ldr	r3, [r7, #4]
 80049e8:	681b      	ldr	r3, [r3, #0]
 80049ea:	f022 0201 	bic.w	r2, r2, #1
 80049ee:	615a      	str	r2, [r3, #20]

      /* Rx process is completed, restore huart->RxState to Ready */
      huart->RxState = HAL_UART_STATE_READY;
 80049f0:	687b      	ldr	r3, [r7, #4]
 80049f2:	2220      	movs	r2, #32
 80049f4:	f883 203e 	strb.w	r2, [r3, #62]	; 0x3e

      /* Check current reception Mode :
         If Reception till IDLE event has been selected : */
      if (huart->ReceptionType == HAL_UART_RECEPTION_TOIDLE)
 80049f8:	687b      	ldr	r3, [r7, #4]
 80049fa:	6b1b      	ldr	r3, [r3, #48]	; 0x30
 80049fc:	2b01      	cmp	r3, #1
 80049fe:	d10e      	bne.n	8004a1e <UART_Receive_IT+0x110>
      {
        /* Disable IDLE interrupt */
        CLEAR_BIT(huart->Instance->CR1, USART_CR1_IDLEIE);
 8004a00:	687b      	ldr	r3, [r7, #4]
 8004a02:	681b      	ldr	r3, [r3, #0]
 8004a04:	68da      	ldr	r2, [r3, #12]
 8004a06:	687b      	ldr	r3, [r7, #4]
 8004a08:	681b      	ldr	r3, [r3, #0]
 8004a0a:	f022 0210 	bic.w	r2, r2, #16
 8004a0e:	60da      	str	r2, [r3, #12]
#if (USE_HAL_UART_REGISTER_CALLBACKS == 1)
        /*Call registered Rx Event callback*/
        huart->RxEventCallback(huart, huart->RxXferSize);
#else
        /*Call legacy weak Rx Event callback*/
        HAL_UARTEx_RxEventCallback(huart, huart->RxXferSize);
 8004a10:	687b      	ldr	r3, [r7, #4]
 8004a12:	8d9b      	ldrh	r3, [r3, #44]	; 0x2c
 8004a14:	4619      	mov	r1, r3
 8004a16:	6878      	ldr	r0, [r7, #4]
 8004a18:	f7ff fd18 	bl	800444c <HAL_UARTEx_RxEventCallback>
 8004a1c:	e002      	b.n	8004a24 <UART_Receive_IT+0x116>
#if (USE_HAL_UART_REGISTER_CALLBACKS == 1)		  
       /*Call registered Rx complete callback*/
       huart->RxCpltCallback(huart);
#else
       /*Call legacy weak Rx complete callback*/
       HAL_UART_RxCpltCallback(huart);
 8004a1e:	6878      	ldr	r0, [r7, #4]
 8004a20:	f7fc fbfe 	bl	8001220 <HAL_UART_RxCpltCallback>
#endif /* USE_HAL_UART_REGISTER_CALLBACKS */
      }
      huart->ReceptionType = HAL_UART_RECEPTION_STANDARD;
 8004a24:	687b      	ldr	r3, [r7, #4]
 8004a26:	2200      	movs	r2, #0
 8004a28:	631a      	str	r2, [r3, #48]	; 0x30
      return HAL_OK;
 8004a2a:	2300      	movs	r3, #0
 8004a2c:	e002      	b.n	8004a34 <UART_Receive_IT+0x126>
    }
    return HAL_OK;
 8004a2e:	2300      	movs	r3, #0
 8004a30:	e000      	b.n	8004a34 <UART_Receive_IT+0x126>
  }
  else
  {
    return HAL_BUSY;
 8004a32:	2302      	movs	r3, #2
  }
}
 8004a34:	4618      	mov	r0, r3
 8004a36:	3710      	adds	r7, #16
 8004a38:	46bd      	mov	sp, r7
 8004a3a:	bd80      	pop	{r7, pc}

08004a3c <UART_SetConfig>:
  * @param  huart  Pointer to a UART_HandleTypeDef structure that contains
  *                the configuration information for the specified UART module.
  * @retval None
  */
static void UART_SetConfig(UART_HandleTypeDef *huart)
{
 8004a3c:	e92d 4ff0 	stmdb	sp!, {r4, r5, r6, r7, r8, r9, sl, fp, lr}
 8004a40:	b09f      	sub	sp, #124	; 0x7c
 8004a42:	af00      	add	r7, sp, #0
 8004a44:	66f8      	str	r0, [r7, #108]	; 0x6c
  assert_param(IS_UART_MODE(huart->Init.Mode));

  /*-------------------------- USART CR2 Configuration -----------------------*/
  /* Configure the UART Stop Bits: Set STOP[13:12] bits
     according to huart->Init.StopBits value */
  MODIFY_REG(huart->Instance->CR2, USART_CR2_STOP, huart->Init.StopBits);
 8004a46:	6efb      	ldr	r3, [r7, #108]	; 0x6c
 8004a48:	681b      	ldr	r3, [r3, #0]
 8004a4a:	691b      	ldr	r3, [r3, #16]
 8004a4c:	f423 5040 	bic.w	r0, r3, #12288	; 0x3000
 8004a50:	6efb      	ldr	r3, [r7, #108]	; 0x6c
 8004a52:	68d9      	ldr	r1, [r3, #12]
 8004a54:	6efb      	ldr	r3, [r7, #108]	; 0x6c
 8004a56:	681a      	ldr	r2, [r3, #0]
 8004a58:	ea40 0301 	orr.w	r3, r0, r1
 8004a5c:	6113      	str	r3, [r2, #16]
     Set the M bits according to huart->Init.WordLength value
     Set PCE and PS bits according to huart->Init.Parity value
     Set TE and RE bits according to huart->Init.Mode value
     Set OVER8 bit according to huart->Init.OverSampling value */

  tmpreg = (uint32_t)huart->Init.WordLength | huart->Init.Parity | huart->Init.Mode | huart->Init.OverSampling;
 8004a5e:	6efb      	ldr	r3, [r7, #108]	; 0x6c
 8004a60:	689a      	ldr	r2, [r3, #8]
 8004a62:	6efb      	ldr	r3, [r7, #108]	; 0x6c
 8004a64:	691b      	ldr	r3, [r3, #16]
 8004a66:	431a      	orrs	r2, r3
 8004a68:	6efb      	ldr	r3, [r7, #108]	; 0x6c
 8004a6a:	695b      	ldr	r3, [r3, #20]
 8004a6c:	431a      	orrs	r2, r3
 8004a6e:	6efb      	ldr	r3, [r7, #108]	; 0x6c
 8004a70:	69db      	ldr	r3, [r3, #28]
 8004a72:	4313      	orrs	r3, r2
 8004a74:	673b      	str	r3, [r7, #112]	; 0x70
  MODIFY_REG(huart->Instance->CR1,
 8004a76:	6efb      	ldr	r3, [r7, #108]	; 0x6c
 8004a78:	681b      	ldr	r3, [r3, #0]
 8004a7a:	68db      	ldr	r3, [r3, #12]
 8004a7c:	f423 4116 	bic.w	r1, r3, #38400	; 0x9600
 8004a80:	f021 010c 	bic.w	r1, r1, #12
 8004a84:	6efb      	ldr	r3, [r7, #108]	; 0x6c
 8004a86:	681a      	ldr	r2, [r3, #0]
 8004a88:	6f3b      	ldr	r3, [r7, #112]	; 0x70
 8004a8a:	430b      	orrs	r3, r1
 8004a8c:	60d3      	str	r3, [r2, #12]
             (uint32_t)(USART_CR1_M | USART_CR1_PCE | USART_CR1_PS | USART_CR1_TE | USART_CR1_RE | USART_CR1_OVER8),
             tmpreg);

  /*-------------------------- USART CR3 Configuration -----------------------*/
  /* Configure the UART HFC: Set CTSE and RTSE bits according to huart->Init.HwFlowCtl value */
  MODIFY_REG(huart->Instance->CR3, (USART_CR3_RTSE | USART_CR3_CTSE), huart->Init.HwFlowCtl);
 8004a8e:	6efb      	ldr	r3, [r7, #108]	; 0x6c
 8004a90:	681b      	ldr	r3, [r3, #0]
 8004a92:	695b      	ldr	r3, [r3, #20]
 8004a94:	f423 7040 	bic.w	r0, r3, #768	; 0x300
 8004a98:	6efb      	ldr	r3, [r7, #108]	; 0x6c
 8004a9a:	6999      	ldr	r1, [r3, #24]
 8004a9c:	6efb      	ldr	r3, [r7, #108]	; 0x6c
 8004a9e:	681a      	ldr	r2, [r3, #0]
 8004aa0:	ea40 0301 	orr.w	r3, r0, r1
 8004aa4:	6153      	str	r3, [r2, #20]
    if ((huart->Instance == USART1) || (huart->Instance == USART6) || (huart->Instance == UART9) || (huart->Instance == UART10))
    {
      pclk = HAL_RCC_GetPCLK2Freq();
    }
#elif defined(USART6)
    if ((huart->Instance == USART1) || (huart->Instance == USART6))
 8004aa6:	6efb      	ldr	r3, [r7, #108]	; 0x6c
 8004aa8:	681a      	ldr	r2, [r3, #0]
 8004aaa:	4bc5      	ldr	r3, [pc, #788]	; (8004dc0 <UART_SetConfig+0x384>)
 8004aac:	429a      	cmp	r2, r3
 8004aae:	d004      	beq.n	8004aba <UART_SetConfig+0x7e>
 8004ab0:	6efb      	ldr	r3, [r7, #108]	; 0x6c
 8004ab2:	681a      	ldr	r2, [r3, #0]
 8004ab4:	4bc3      	ldr	r3, [pc, #780]	; (8004dc4 <UART_SetConfig+0x388>)
 8004ab6:	429a      	cmp	r2, r3
 8004ab8:	d103      	bne.n	8004ac2 <UART_SetConfig+0x86>
    {
      pclk = HAL_RCC_GetPCLK2Freq();
 8004aba:	f7fe f833 	bl	8002b24 <HAL_RCC_GetPCLK2Freq>
 8004abe:	6778      	str	r0, [r7, #116]	; 0x74
 8004ac0:	e002      	b.n	8004ac8 <UART_SetConfig+0x8c>
      pclk = HAL_RCC_GetPCLK2Freq();
    }
#endif /* USART6 */
    else
    {
      pclk = HAL_RCC_GetPCLK1Freq();
 8004ac2:	f7fe f81b 	bl	8002afc <HAL_RCC_GetPCLK1Freq>
 8004ac6:	6778      	str	r0, [r7, #116]	; 0x74
    }
  /*-------------------------- USART BRR Configuration ---------------------*/
  if (huart->Init.OverSampling == UART_OVERSAMPLING_8)
 8004ac8:	6efb      	ldr	r3, [r7, #108]	; 0x6c
 8004aca:	69db      	ldr	r3, [r3, #28]
 8004acc:	f5b3 4f00 	cmp.w	r3, #32768	; 0x8000
 8004ad0:	f040 80b6 	bne.w	8004c40 <UART_SetConfig+0x204>
  {
    huart->Instance->BRR = UART_BRR_SAMPLING8(pclk, huart->Init.BaudRate);
 8004ad4:	6f7b      	ldr	r3, [r7, #116]	; 0x74
 8004ad6:	461c      	mov	r4, r3
 8004ad8:	f04f 0500 	mov.w	r5, #0
 8004adc:	4622      	mov	r2, r4
 8004ade:	462b      	mov	r3, r5
 8004ae0:	1891      	adds	r1, r2, r2
 8004ae2:	6439      	str	r1, [r7, #64]	; 0x40
 8004ae4:	415b      	adcs	r3, r3
 8004ae6:	647b      	str	r3, [r7, #68]	; 0x44
 8004ae8:	e9d7 2310 	ldrd	r2, r3, [r7, #64]	; 0x40
 8004aec:	1912      	adds	r2, r2, r4
 8004aee:	eb45 0303 	adc.w	r3, r5, r3
 8004af2:	f04f 0000 	mov.w	r0, #0
 8004af6:	f04f 0100 	mov.w	r1, #0
 8004afa:	00d9      	lsls	r1, r3, #3
 8004afc:	ea41 7152 	orr.w	r1, r1, r2, lsr #29
 8004b00:	00d0      	lsls	r0, r2, #3
 8004b02:	4602      	mov	r2, r0
 8004b04:	460b      	mov	r3, r1
 8004b06:	1911      	adds	r1, r2, r4
 8004b08:	6639      	str	r1, [r7, #96]	; 0x60
 8004b0a:	416b      	adcs	r3, r5
 8004b0c:	667b      	str	r3, [r7, #100]	; 0x64
 8004b0e:	6efb      	ldr	r3, [r7, #108]	; 0x6c
 8004b10:	685b      	ldr	r3, [r3, #4]
 8004b12:	461a      	mov	r2, r3
 8004b14:	f04f 0300 	mov.w	r3, #0
 8004b18:	1891      	adds	r1, r2, r2
 8004b1a:	63b9      	str	r1, [r7, #56]	; 0x38
 8004b1c:	415b      	adcs	r3, r3
 8004b1e:	63fb      	str	r3, [r7, #60]	; 0x3c
 8004b20:	e9d7 230e 	ldrd	r2, r3, [r7, #56]	; 0x38
 8004b24:	e9d7 0118 	ldrd	r0, r1, [r7, #96]	; 0x60
 8004b28:	f7fb fbaa 	bl	8000280 <__aeabi_uldivmod>
 8004b2c:	4602      	mov	r2, r0
 8004b2e:	460b      	mov	r3, r1
 8004b30:	4ba5      	ldr	r3, [pc, #660]	; (8004dc8 <UART_SetConfig+0x38c>)
 8004b32:	fba3 2302 	umull	r2, r3, r3, r2
 8004b36:	095b      	lsrs	r3, r3, #5
 8004b38:	011e      	lsls	r6, r3, #4
 8004b3a:	6f7b      	ldr	r3, [r7, #116]	; 0x74
 8004b3c:	461c      	mov	r4, r3
 8004b3e:	f04f 0500 	mov.w	r5, #0
 8004b42:	4622      	mov	r2, r4
 8004b44:	462b      	mov	r3, r5
 8004b46:	1891      	adds	r1, r2, r2
 8004b48:	6339      	str	r1, [r7, #48]	; 0x30
 8004b4a:	415b      	adcs	r3, r3
 8004b4c:	637b      	str	r3, [r7, #52]	; 0x34
 8004b4e:	e9d7 230c 	ldrd	r2, r3, [r7, #48]	; 0x30
 8004b52:	1912      	adds	r2, r2, r4
 8004b54:	eb45 0303 	adc.w	r3, r5, r3
 8004b58:	f04f 0000 	mov.w	r0, #0
 8004b5c:	f04f 0100 	mov.w	r1, #0
 8004b60:	00d9      	lsls	r1, r3, #3
 8004b62:	ea41 7152 	orr.w	r1, r1, r2, lsr #29
 8004b66:	00d0      	lsls	r0, r2, #3
 8004b68:	4602      	mov	r2, r0
 8004b6a:	460b      	mov	r3, r1
 8004b6c:	1911      	adds	r1, r2, r4
 8004b6e:	65b9      	str	r1, [r7, #88]	; 0x58
 8004b70:	416b      	adcs	r3, r5
 8004b72:	65fb      	str	r3, [r7, #92]	; 0x5c
 8004b74:	6efb      	ldr	r3, [r7, #108]	; 0x6c
 8004b76:	685b      	ldr	r3, [r3, #4]
 8004b78:	461a      	mov	r2, r3
 8004b7a:	f04f 0300 	mov.w	r3, #0
 8004b7e:	1891      	adds	r1, r2, r2
 8004b80:	62b9      	str	r1, [r7, #40]	; 0x28
 8004b82:	415b      	adcs	r3, r3
 8004b84:	62fb      	str	r3, [r7, #44]	; 0x2c
 8004b86:	e9d7 230a 	ldrd	r2, r3, [r7, #40]	; 0x28
 8004b8a:	e9d7 0116 	ldrd	r0, r1, [r7, #88]	; 0x58
 8004b8e:	f7fb fb77 	bl	8000280 <__aeabi_uldivmod>
 8004b92:	4602      	mov	r2, r0
 8004b94:	460b      	mov	r3, r1
 8004b96:	4b8c      	ldr	r3, [pc, #560]	; (8004dc8 <UART_SetConfig+0x38c>)
 8004b98:	fba3 1302 	umull	r1, r3, r3, r2
 8004b9c:	095b      	lsrs	r3, r3, #5
 8004b9e:	2164      	movs	r1, #100	; 0x64
 8004ba0:	fb01 f303 	mul.w	r3, r1, r3
 8004ba4:	1ad3      	subs	r3, r2, r3
 8004ba6:	00db      	lsls	r3, r3, #3
 8004ba8:	3332      	adds	r3, #50	; 0x32
 8004baa:	4a87      	ldr	r2, [pc, #540]	; (8004dc8 <UART_SetConfig+0x38c>)
 8004bac:	fba2 2303 	umull	r2, r3, r2, r3
 8004bb0:	095b      	lsrs	r3, r3, #5
 8004bb2:	005b      	lsls	r3, r3, #1
 8004bb4:	f403 73f8 	and.w	r3, r3, #496	; 0x1f0
 8004bb8:	441e      	add	r6, r3
 8004bba:	6f7b      	ldr	r3, [r7, #116]	; 0x74
 8004bbc:	4618      	mov	r0, r3
 8004bbe:	f04f 0100 	mov.w	r1, #0
 8004bc2:	4602      	mov	r2, r0
 8004bc4:	460b      	mov	r3, r1
 8004bc6:	1894      	adds	r4, r2, r2
 8004bc8:	623c      	str	r4, [r7, #32]
 8004bca:	415b      	adcs	r3, r3
 8004bcc:	627b      	str	r3, [r7, #36]	; 0x24
 8004bce:	e9d7 2308 	ldrd	r2, r3, [r7, #32]
 8004bd2:	1812      	adds	r2, r2, r0
 8004bd4:	eb41 0303 	adc.w	r3, r1, r3
 8004bd8:	f04f 0400 	mov.w	r4, #0
 8004bdc:	f04f 0500 	mov.w	r5, #0
 8004be0:	00dd      	lsls	r5, r3, #3
 8004be2:	ea45 7552 	orr.w	r5, r5, r2, lsr #29
 8004be6:	00d4      	lsls	r4, r2, #3
 8004be8:	4622      	mov	r2, r4
 8004bea:	462b      	mov	r3, r5
 8004bec:	1814      	adds	r4, r2, r0
 8004bee:	653c      	str	r4, [r7, #80]	; 0x50
 8004bf0:	414b      	adcs	r3, r1
 8004bf2:	657b      	str	r3, [r7, #84]	; 0x54
 8004bf4:	6efb      	ldr	r3, [r7, #108]	; 0x6c
 8004bf6:	685b      	ldr	r3, [r3, #4]
 8004bf8:	461a      	mov	r2, r3
 8004bfa:	f04f 0300 	mov.w	r3, #0
 8004bfe:	1891      	adds	r1, r2, r2
 8004c00:	61b9      	str	r1, [r7, #24]
 8004c02:	415b      	adcs	r3, r3
 8004c04:	61fb      	str	r3, [r7, #28]
 8004c06:	e9d7 2306 	ldrd	r2, r3, [r7, #24]
 8004c0a:	e9d7 0114 	ldrd	r0, r1, [r7, #80]	; 0x50
 8004c0e:	f7fb fb37 	bl	8000280 <__aeabi_uldivmod>
 8004c12:	4602      	mov	r2, r0
 8004c14:	460b      	mov	r3, r1
 8004c16:	4b6c      	ldr	r3, [pc, #432]	; (8004dc8 <UART_SetConfig+0x38c>)
 8004c18:	fba3 1302 	umull	r1, r3, r3, r2
 8004c1c:	095b      	lsrs	r3, r3, #5
 8004c1e:	2164      	movs	r1, #100	; 0x64
 8004c20:	fb01 f303 	mul.w	r3, r1, r3
 8004c24:	1ad3      	subs	r3, r2, r3
 8004c26:	00db      	lsls	r3, r3, #3
 8004c28:	3332      	adds	r3, #50	; 0x32
 8004c2a:	4a67      	ldr	r2, [pc, #412]	; (8004dc8 <UART_SetConfig+0x38c>)
 8004c2c:	fba2 2303 	umull	r2, r3, r2, r3
 8004c30:	095b      	lsrs	r3, r3, #5
 8004c32:	f003 0207 	and.w	r2, r3, #7
 8004c36:	6efb      	ldr	r3, [r7, #108]	; 0x6c
 8004c38:	681b      	ldr	r3, [r3, #0]
 8004c3a:	4432      	add	r2, r6
 8004c3c:	609a      	str	r2, [r3, #8]
  }
  else
  {
    huart->Instance->BRR = UART_BRR_SAMPLING16(pclk, huart->Init.BaudRate);
  }
}
 8004c3e:	e0b9      	b.n	8004db4 <UART_SetConfig+0x378>
    huart->Instance->BRR = UART_BRR_SAMPLING16(pclk, huart->Init.BaudRate);
 8004c40:	6f7b      	ldr	r3, [r7, #116]	; 0x74
 8004c42:	461c      	mov	r4, r3
 8004c44:	f04f 0500 	mov.w	r5, #0
 8004c48:	4622      	mov	r2, r4
 8004c4a:	462b      	mov	r3, r5
 8004c4c:	1891      	adds	r1, r2, r2
 8004c4e:	6139      	str	r1, [r7, #16]
 8004c50:	415b      	adcs	r3, r3
 8004c52:	617b      	str	r3, [r7, #20]
 8004c54:	e9d7 2304 	ldrd	r2, r3, [r7, #16]
 8004c58:	1912      	adds	r2, r2, r4
 8004c5a:	eb45 0303 	adc.w	r3, r5, r3
 8004c5e:	f04f 0000 	mov.w	r0, #0
 8004c62:	f04f 0100 	mov.w	r1, #0
 8004c66:	00d9      	lsls	r1, r3, #3
 8004c68:	ea41 7152 	orr.w	r1, r1, r2, lsr #29
 8004c6c:	00d0      	lsls	r0, r2, #3
 8004c6e:	4602      	mov	r2, r0
 8004c70:	460b      	mov	r3, r1
 8004c72:	eb12 0804 	adds.w	r8, r2, r4
 8004c76:	eb43 0905 	adc.w	r9, r3, r5
 8004c7a:	6efb      	ldr	r3, [r7, #108]	; 0x6c
 8004c7c:	685b      	ldr	r3, [r3, #4]
 8004c7e:	4618      	mov	r0, r3
 8004c80:	f04f 0100 	mov.w	r1, #0
 8004c84:	f04f 0200 	mov.w	r2, #0
 8004c88:	f04f 0300 	mov.w	r3, #0
 8004c8c:	008b      	lsls	r3, r1, #2
 8004c8e:	ea43 7390 	orr.w	r3, r3, r0, lsr #30
 8004c92:	0082      	lsls	r2, r0, #2
 8004c94:	4640      	mov	r0, r8
 8004c96:	4649      	mov	r1, r9
 8004c98:	f7fb faf2 	bl	8000280 <__aeabi_uldivmod>
 8004c9c:	4602      	mov	r2, r0
 8004c9e:	460b      	mov	r3, r1
 8004ca0:	4b49      	ldr	r3, [pc, #292]	; (8004dc8 <UART_SetConfig+0x38c>)
 8004ca2:	fba3 2302 	umull	r2, r3, r3, r2
 8004ca6:	095b      	lsrs	r3, r3, #5
 8004ca8:	011e      	lsls	r6, r3, #4
 8004caa:	6f7b      	ldr	r3, [r7, #116]	; 0x74
 8004cac:	4618      	mov	r0, r3
 8004cae:	f04f 0100 	mov.w	r1, #0
 8004cb2:	4602      	mov	r2, r0
 8004cb4:	460b      	mov	r3, r1
 8004cb6:	1894      	adds	r4, r2, r2
 8004cb8:	60bc      	str	r4, [r7, #8]
 8004cba:	415b      	adcs	r3, r3
 8004cbc:	60fb      	str	r3, [r7, #12]
 8004cbe:	e9d7 2302 	ldrd	r2, r3, [r7, #8]
 8004cc2:	1812      	adds	r2, r2, r0
 8004cc4:	eb41 0303 	adc.w	r3, r1, r3
 8004cc8:	f04f 0400 	mov.w	r4, #0
 8004ccc:	f04f 0500 	mov.w	r5, #0
 8004cd0:	00dd      	lsls	r5, r3, #3
 8004cd2:	ea45 7552 	orr.w	r5, r5, r2, lsr #29
 8004cd6:	00d4      	lsls	r4, r2, #3
 8004cd8:	4622      	mov	r2, r4
 8004cda:	462b      	mov	r3, r5
 8004cdc:	1814      	adds	r4, r2, r0
 8004cde:	64bc      	str	r4, [r7, #72]	; 0x48
 8004ce0:	414b      	adcs	r3, r1
 8004ce2:	64fb      	str	r3, [r7, #76]	; 0x4c
 8004ce4:	6efb      	ldr	r3, [r7, #108]	; 0x6c
 8004ce6:	685b      	ldr	r3, [r3, #4]
 8004ce8:	4618      	mov	r0, r3
 8004cea:	f04f 0100 	mov.w	r1, #0
 8004cee:	f04f 0200 	mov.w	r2, #0
 8004cf2:	f04f 0300 	mov.w	r3, #0
 8004cf6:	008b      	lsls	r3, r1, #2
 8004cf8:	ea43 7390 	orr.w	r3, r3, r0, lsr #30
 8004cfc:	0082      	lsls	r2, r0, #2
 8004cfe:	e9d7 0112 	ldrd	r0, r1, [r7, #72]	; 0x48
 8004d02:	f7fb fabd 	bl	8000280 <__aeabi_uldivmod>
 8004d06:	4602      	mov	r2, r0
 8004d08:	460b      	mov	r3, r1
 8004d0a:	4b2f      	ldr	r3, [pc, #188]	; (8004dc8 <UART_SetConfig+0x38c>)
 8004d0c:	fba3 1302 	umull	r1, r3, r3, r2
 8004d10:	095b      	lsrs	r3, r3, #5
 8004d12:	2164      	movs	r1, #100	; 0x64
 8004d14:	fb01 f303 	mul.w	r3, r1, r3
 8004d18:	1ad3      	subs	r3, r2, r3
 8004d1a:	011b      	lsls	r3, r3, #4
 8004d1c:	3332      	adds	r3, #50	; 0x32
 8004d1e:	4a2a      	ldr	r2, [pc, #168]	; (8004dc8 <UART_SetConfig+0x38c>)
 8004d20:	fba2 2303 	umull	r2, r3, r2, r3
 8004d24:	095b      	lsrs	r3, r3, #5
 8004d26:	f003 03f0 	and.w	r3, r3, #240	; 0xf0
 8004d2a:	441e      	add	r6, r3
 8004d2c:	6f7b      	ldr	r3, [r7, #116]	; 0x74
 8004d2e:	4618      	mov	r0, r3
 8004d30:	f04f 0100 	mov.w	r1, #0
 8004d34:	4602      	mov	r2, r0
 8004d36:	460b      	mov	r3, r1
 8004d38:	1894      	adds	r4, r2, r2
 8004d3a:	603c      	str	r4, [r7, #0]
 8004d3c:	415b      	adcs	r3, r3
 8004d3e:	607b      	str	r3, [r7, #4]
 8004d40:	e9d7 2300 	ldrd	r2, r3, [r7]
 8004d44:	1812      	adds	r2, r2, r0
 8004d46:	eb41 0303 	adc.w	r3, r1, r3
 8004d4a:	f04f 0400 	mov.w	r4, #0
 8004d4e:	f04f 0500 	mov.w	r5, #0
 8004d52:	00dd      	lsls	r5, r3, #3
 8004d54:	ea45 7552 	orr.w	r5, r5, r2, lsr #29
 8004d58:	00d4      	lsls	r4, r2, #3
 8004d5a:	4622      	mov	r2, r4
 8004d5c:	462b      	mov	r3, r5
 8004d5e:	eb12 0a00 	adds.w	sl, r2, r0
 8004d62:	eb43 0b01 	adc.w	fp, r3, r1
 8004d66:	6efb      	ldr	r3, [r7, #108]	; 0x6c
 8004d68:	685b      	ldr	r3, [r3, #4]
 8004d6a:	4618      	mov	r0, r3
 8004d6c:	f04f 0100 	mov.w	r1, #0
 8004d70:	f04f 0200 	mov.w	r2, #0
 8004d74:	f04f 0300 	mov.w	r3, #0
 8004d78:	008b      	lsls	r3, r1, #2
 8004d7a:	ea43 7390 	orr.w	r3, r3, r0, lsr #30
 8004d7e:	0082      	lsls	r2, r0, #2
 8004d80:	4650      	mov	r0, sl
 8004d82:	4659      	mov	r1, fp
 8004d84:	f7fb fa7c 	bl	8000280 <__aeabi_uldivmod>
 8004d88:	4602      	mov	r2, r0
 8004d8a:	460b      	mov	r3, r1
 8004d8c:	4b0e      	ldr	r3, [pc, #56]	; (8004dc8 <UART_SetConfig+0x38c>)
 8004d8e:	fba3 1302 	umull	r1, r3, r3, r2
 8004d92:	095b      	lsrs	r3, r3, #5
 8004d94:	2164      	movs	r1, #100	; 0x64
 8004d96:	fb01 f303 	mul.w	r3, r1, r3
 8004d9a:	1ad3      	subs	r3, r2, r3
 8004d9c:	011b      	lsls	r3, r3, #4
 8004d9e:	3332      	adds	r3, #50	; 0x32
 8004da0:	4a09      	ldr	r2, [pc, #36]	; (8004dc8 <UART_SetConfig+0x38c>)
 8004da2:	fba2 2303 	umull	r2, r3, r2, r3
 8004da6:	095b      	lsrs	r3, r3, #5
 8004da8:	f003 020f 	and.w	r2, r3, #15
 8004dac:	6efb      	ldr	r3, [r7, #108]	; 0x6c
 8004dae:	681b      	ldr	r3, [r3, #0]
 8004db0:	4432      	add	r2, r6
 8004db2:	609a      	str	r2, [r3, #8]
}
 8004db4:	bf00      	nop
 8004db6:	377c      	adds	r7, #124	; 0x7c
 8004db8:	46bd      	mov	sp, r7
 8004dba:	e8bd 8ff0 	ldmia.w	sp!, {r4, r5, r6, r7, r8, r9, sl, fp, pc}
 8004dbe:	bf00      	nop
 8004dc0:	40011000 	.word	0x40011000
 8004dc4:	40011400 	.word	0x40011400
 8004dc8:	51eb851f 	.word	0x51eb851f

08004dcc <__errno>:
 8004dcc:	4b01      	ldr	r3, [pc, #4]	; (8004dd4 <__errno+0x8>)
 8004dce:	6818      	ldr	r0, [r3, #0]
 8004dd0:	4770      	bx	lr
 8004dd2:	bf00      	nop
 8004dd4:	2000002c 	.word	0x2000002c

08004dd8 <__libc_init_array>:
 8004dd8:	b570      	push	{r4, r5, r6, lr}
 8004dda:	4d0d      	ldr	r5, [pc, #52]	; (8004e10 <__libc_init_array+0x38>)
 8004ddc:	4c0d      	ldr	r4, [pc, #52]	; (8004e14 <__libc_init_array+0x3c>)
 8004dde:	1b64      	subs	r4, r4, r5
 8004de0:	10a4      	asrs	r4, r4, #2
 8004de2:	2600      	movs	r6, #0
 8004de4:	42a6      	cmp	r6, r4
 8004de6:	d109      	bne.n	8004dfc <__libc_init_array+0x24>
 8004de8:	4d0b      	ldr	r5, [pc, #44]	; (8004e18 <__libc_init_array+0x40>)
 8004dea:	4c0c      	ldr	r4, [pc, #48]	; (8004e1c <__libc_init_array+0x44>)
 8004dec:	f001 fa10 	bl	8006210 <_init>
 8004df0:	1b64      	subs	r4, r4, r5
 8004df2:	10a4      	asrs	r4, r4, #2
 8004df4:	2600      	movs	r6, #0
 8004df6:	42a6      	cmp	r6, r4
 8004df8:	d105      	bne.n	8004e06 <__libc_init_array+0x2e>
 8004dfa:	bd70      	pop	{r4, r5, r6, pc}
 8004dfc:	f855 3b04 	ldr.w	r3, [r5], #4
 8004e00:	4798      	blx	r3
 8004e02:	3601      	adds	r6, #1
 8004e04:	e7ee      	b.n	8004de4 <__libc_init_array+0xc>
 8004e06:	f855 3b04 	ldr.w	r3, [r5], #4
 8004e0a:	4798      	blx	r3
 8004e0c:	3601      	adds	r6, #1
 8004e0e:	e7f2      	b.n	8004df6 <__libc_init_array+0x1e>
 8004e10:	080063c4 	.word	0x080063c4
 8004e14:	080063c4 	.word	0x080063c4
 8004e18:	080063c4 	.word	0x080063c4
 8004e1c:	080063c8 	.word	0x080063c8

08004e20 <memset>:
 8004e20:	4402      	add	r2, r0
 8004e22:	4603      	mov	r3, r0
 8004e24:	4293      	cmp	r3, r2
 8004e26:	d100      	bne.n	8004e2a <memset+0xa>
 8004e28:	4770      	bx	lr
 8004e2a:	f803 1b01 	strb.w	r1, [r3], #1
 8004e2e:	e7f9      	b.n	8004e24 <memset+0x4>

08004e30 <siprintf>:
 8004e30:	b40e      	push	{r1, r2, r3}
 8004e32:	b500      	push	{lr}
 8004e34:	b09c      	sub	sp, #112	; 0x70
 8004e36:	ab1d      	add	r3, sp, #116	; 0x74
 8004e38:	9002      	str	r0, [sp, #8]
 8004e3a:	9006      	str	r0, [sp, #24]
 8004e3c:	f06f 4100 	mvn.w	r1, #2147483648	; 0x80000000
 8004e40:	4809      	ldr	r0, [pc, #36]	; (8004e68 <siprintf+0x38>)
 8004e42:	9107      	str	r1, [sp, #28]
 8004e44:	9104      	str	r1, [sp, #16]
 8004e46:	4909      	ldr	r1, [pc, #36]	; (8004e6c <siprintf+0x3c>)
 8004e48:	f853 2b04 	ldr.w	r2, [r3], #4
 8004e4c:	9105      	str	r1, [sp, #20]
 8004e4e:	6800      	ldr	r0, [r0, #0]
 8004e50:	9301      	str	r3, [sp, #4]
 8004e52:	a902      	add	r1, sp, #8
 8004e54:	f000 f9a6 	bl	80051a4 <_svfiprintf_r>
 8004e58:	9b02      	ldr	r3, [sp, #8]
 8004e5a:	2200      	movs	r2, #0
 8004e5c:	701a      	strb	r2, [r3, #0]
 8004e5e:	b01c      	add	sp, #112	; 0x70
 8004e60:	f85d eb04 	ldr.w	lr, [sp], #4
 8004e64:	b003      	add	sp, #12
 8004e66:	4770      	bx	lr
 8004e68:	2000002c 	.word	0x2000002c
 8004e6c:	ffff0208 	.word	0xffff0208

08004e70 <strtok>:
 8004e70:	4b16      	ldr	r3, [pc, #88]	; (8004ecc <strtok+0x5c>)
 8004e72:	b573      	push	{r0, r1, r4, r5, r6, lr}
 8004e74:	681e      	ldr	r6, [r3, #0]
 8004e76:	6db4      	ldr	r4, [r6, #88]	; 0x58
 8004e78:	4605      	mov	r5, r0
 8004e7a:	b9fc      	cbnz	r4, 8004ebc <strtok+0x4c>
 8004e7c:	2050      	movs	r0, #80	; 0x50
 8004e7e:	9101      	str	r1, [sp, #4]
 8004e80:	f000 f882 	bl	8004f88 <malloc>
 8004e84:	9901      	ldr	r1, [sp, #4]
 8004e86:	65b0      	str	r0, [r6, #88]	; 0x58
 8004e88:	4602      	mov	r2, r0
 8004e8a:	b920      	cbnz	r0, 8004e96 <strtok+0x26>
 8004e8c:	4b10      	ldr	r3, [pc, #64]	; (8004ed0 <strtok+0x60>)
 8004e8e:	4811      	ldr	r0, [pc, #68]	; (8004ed4 <strtok+0x64>)
 8004e90:	2157      	movs	r1, #87	; 0x57
 8004e92:	f000 f849 	bl	8004f28 <__assert_func>
 8004e96:	e9c0 4400 	strd	r4, r4, [r0]
 8004e9a:	e9c0 4402 	strd	r4, r4, [r0, #8]
 8004e9e:	e9c0 4404 	strd	r4, r4, [r0, #16]
 8004ea2:	e9c0 440a 	strd	r4, r4, [r0, #40]	; 0x28
 8004ea6:	e9c0 440c 	strd	r4, r4, [r0, #48]	; 0x30
 8004eaa:	e9c0 440e 	strd	r4, r4, [r0, #56]	; 0x38
 8004eae:	e9c0 4410 	strd	r4, r4, [r0, #64]	; 0x40
 8004eb2:	e9c0 4412 	strd	r4, r4, [r0, #72]	; 0x48
 8004eb6:	6184      	str	r4, [r0, #24]
 8004eb8:	7704      	strb	r4, [r0, #28]
 8004eba:	6244      	str	r4, [r0, #36]	; 0x24
 8004ebc:	6db2      	ldr	r2, [r6, #88]	; 0x58
 8004ebe:	2301      	movs	r3, #1
 8004ec0:	4628      	mov	r0, r5
 8004ec2:	b002      	add	sp, #8
 8004ec4:	e8bd 4070 	ldmia.w	sp!, {r4, r5, r6, lr}
 8004ec8:	f000 b806 	b.w	8004ed8 <__strtok_r>
 8004ecc:	2000002c 	.word	0x2000002c
 8004ed0:	08006274 	.word	0x08006274
 8004ed4:	0800628b 	.word	0x0800628b

08004ed8 <__strtok_r>:
 8004ed8:	b5f0      	push	{r4, r5, r6, r7, lr}
 8004eda:	b908      	cbnz	r0, 8004ee0 <__strtok_r+0x8>
 8004edc:	6810      	ldr	r0, [r2, #0]
 8004ede:	b188      	cbz	r0, 8004f04 <__strtok_r+0x2c>
 8004ee0:	4604      	mov	r4, r0
 8004ee2:	4620      	mov	r0, r4
 8004ee4:	f814 5b01 	ldrb.w	r5, [r4], #1
 8004ee8:	460f      	mov	r7, r1
 8004eea:	f817 6b01 	ldrb.w	r6, [r7], #1
 8004eee:	b91e      	cbnz	r6, 8004ef8 <__strtok_r+0x20>
 8004ef0:	b965      	cbnz	r5, 8004f0c <__strtok_r+0x34>
 8004ef2:	6015      	str	r5, [r2, #0]
 8004ef4:	4628      	mov	r0, r5
 8004ef6:	e005      	b.n	8004f04 <__strtok_r+0x2c>
 8004ef8:	42b5      	cmp	r5, r6
 8004efa:	d1f6      	bne.n	8004eea <__strtok_r+0x12>
 8004efc:	2b00      	cmp	r3, #0
 8004efe:	d1f0      	bne.n	8004ee2 <__strtok_r+0xa>
 8004f00:	6014      	str	r4, [r2, #0]
 8004f02:	7003      	strb	r3, [r0, #0]
 8004f04:	bdf0      	pop	{r4, r5, r6, r7, pc}
 8004f06:	461c      	mov	r4, r3
 8004f08:	e00c      	b.n	8004f24 <__strtok_r+0x4c>
 8004f0a:	b915      	cbnz	r5, 8004f12 <__strtok_r+0x3a>
 8004f0c:	f814 3b01 	ldrb.w	r3, [r4], #1
 8004f10:	460e      	mov	r6, r1
 8004f12:	f816 5b01 	ldrb.w	r5, [r6], #1
 8004f16:	42ab      	cmp	r3, r5
 8004f18:	d1f7      	bne.n	8004f0a <__strtok_r+0x32>
 8004f1a:	2b00      	cmp	r3, #0
 8004f1c:	d0f3      	beq.n	8004f06 <__strtok_r+0x2e>
 8004f1e:	2300      	movs	r3, #0
 8004f20:	f804 3c01 	strb.w	r3, [r4, #-1]
 8004f24:	6014      	str	r4, [r2, #0]
 8004f26:	e7ed      	b.n	8004f04 <__strtok_r+0x2c>

08004f28 <__assert_func>:
 8004f28:	b51f      	push	{r0, r1, r2, r3, r4, lr}
 8004f2a:	4614      	mov	r4, r2
 8004f2c:	461a      	mov	r2, r3
 8004f2e:	4b09      	ldr	r3, [pc, #36]	; (8004f54 <__assert_func+0x2c>)
 8004f30:	681b      	ldr	r3, [r3, #0]
 8004f32:	4605      	mov	r5, r0
 8004f34:	68d8      	ldr	r0, [r3, #12]
 8004f36:	b14c      	cbz	r4, 8004f4c <__assert_func+0x24>
 8004f38:	4b07      	ldr	r3, [pc, #28]	; (8004f58 <__assert_func+0x30>)
 8004f3a:	9100      	str	r1, [sp, #0]
 8004f3c:	e9cd 3401 	strd	r3, r4, [sp, #4]
 8004f40:	4906      	ldr	r1, [pc, #24]	; (8004f5c <__assert_func+0x34>)
 8004f42:	462b      	mov	r3, r5
 8004f44:	f000 f80e 	bl	8004f64 <fiprintf>
 8004f48:	f000 fdea 	bl	8005b20 <abort>
 8004f4c:	4b04      	ldr	r3, [pc, #16]	; (8004f60 <__assert_func+0x38>)
 8004f4e:	461c      	mov	r4, r3
 8004f50:	e7f3      	b.n	8004f3a <__assert_func+0x12>
 8004f52:	bf00      	nop
 8004f54:	2000002c 	.word	0x2000002c
 8004f58:	080062ec 	.word	0x080062ec
 8004f5c:	080062f9 	.word	0x080062f9
 8004f60:	08006327 	.word	0x08006327

08004f64 <fiprintf>:
 8004f64:	b40e      	push	{r1, r2, r3}
 8004f66:	b503      	push	{r0, r1, lr}
 8004f68:	4601      	mov	r1, r0
 8004f6a:	ab03      	add	r3, sp, #12
 8004f6c:	4805      	ldr	r0, [pc, #20]	; (8004f84 <fiprintf+0x20>)
 8004f6e:	f853 2b04 	ldr.w	r2, [r3], #4
 8004f72:	6800      	ldr	r0, [r0, #0]
 8004f74:	9301      	str	r3, [sp, #4]
 8004f76:	f000 fa3f 	bl	80053f8 <_vfiprintf_r>
 8004f7a:	b002      	add	sp, #8
 8004f7c:	f85d eb04 	ldr.w	lr, [sp], #4
 8004f80:	b003      	add	sp, #12
 8004f82:	4770      	bx	lr
 8004f84:	2000002c 	.word	0x2000002c

08004f88 <malloc>:
 8004f88:	4b02      	ldr	r3, [pc, #8]	; (8004f94 <malloc+0xc>)
 8004f8a:	4601      	mov	r1, r0
 8004f8c:	6818      	ldr	r0, [r3, #0]
 8004f8e:	f000 b853 	b.w	8005038 <_malloc_r>
 8004f92:	bf00      	nop
 8004f94:	2000002c 	.word	0x2000002c

08004f98 <_free_r>:
 8004f98:	b537      	push	{r0, r1, r2, r4, r5, lr}
 8004f9a:	2900      	cmp	r1, #0
 8004f9c:	d048      	beq.n	8005030 <_free_r+0x98>
 8004f9e:	f851 3c04 	ldr.w	r3, [r1, #-4]
 8004fa2:	9001      	str	r0, [sp, #4]
 8004fa4:	2b00      	cmp	r3, #0
 8004fa6:	f1a1 0404 	sub.w	r4, r1, #4
 8004faa:	bfb8      	it	lt
 8004fac:	18e4      	addlt	r4, r4, r3
 8004fae:	f001 f805 	bl	8005fbc <__malloc_lock>
 8004fb2:	4a20      	ldr	r2, [pc, #128]	; (8005034 <_free_r+0x9c>)
 8004fb4:	9801      	ldr	r0, [sp, #4]
 8004fb6:	6813      	ldr	r3, [r2, #0]
 8004fb8:	4615      	mov	r5, r2
 8004fba:	b933      	cbnz	r3, 8004fca <_free_r+0x32>
 8004fbc:	6063      	str	r3, [r4, #4]
 8004fbe:	6014      	str	r4, [r2, #0]
 8004fc0:	b003      	add	sp, #12
 8004fc2:	e8bd 4030 	ldmia.w	sp!, {r4, r5, lr}
 8004fc6:	f000 bfff 	b.w	8005fc8 <__malloc_unlock>
 8004fca:	42a3      	cmp	r3, r4
 8004fcc:	d90b      	bls.n	8004fe6 <_free_r+0x4e>
 8004fce:	6821      	ldr	r1, [r4, #0]
 8004fd0:	1862      	adds	r2, r4, r1
 8004fd2:	4293      	cmp	r3, r2
 8004fd4:	bf04      	itt	eq
 8004fd6:	681a      	ldreq	r2, [r3, #0]
 8004fd8:	685b      	ldreq	r3, [r3, #4]
 8004fda:	6063      	str	r3, [r4, #4]
 8004fdc:	bf04      	itt	eq
 8004fde:	1852      	addeq	r2, r2, r1
 8004fe0:	6022      	streq	r2, [r4, #0]
 8004fe2:	602c      	str	r4, [r5, #0]
 8004fe4:	e7ec      	b.n	8004fc0 <_free_r+0x28>
 8004fe6:	461a      	mov	r2, r3
 8004fe8:	685b      	ldr	r3, [r3, #4]
 8004fea:	b10b      	cbz	r3, 8004ff0 <_free_r+0x58>
 8004fec:	42a3      	cmp	r3, r4
 8004fee:	d9fa      	bls.n	8004fe6 <_free_r+0x4e>
 8004ff0:	6811      	ldr	r1, [r2, #0]
 8004ff2:	1855      	adds	r5, r2, r1
 8004ff4:	42a5      	cmp	r5, r4
 8004ff6:	d10b      	bne.n	8005010 <_free_r+0x78>
 8004ff8:	6824      	ldr	r4, [r4, #0]
 8004ffa:	4421      	add	r1, r4
 8004ffc:	1854      	adds	r4, r2, r1
 8004ffe:	42a3      	cmp	r3, r4
 8005000:	6011      	str	r1, [r2, #0]
 8005002:	d1dd      	bne.n	8004fc0 <_free_r+0x28>
 8005004:	681c      	ldr	r4, [r3, #0]
 8005006:	685b      	ldr	r3, [r3, #4]
 8005008:	6053      	str	r3, [r2, #4]
 800500a:	4421      	add	r1, r4
 800500c:	6011      	str	r1, [r2, #0]
 800500e:	e7d7      	b.n	8004fc0 <_free_r+0x28>
 8005010:	d902      	bls.n	8005018 <_free_r+0x80>
 8005012:	230c      	movs	r3, #12
 8005014:	6003      	str	r3, [r0, #0]
 8005016:	e7d3      	b.n	8004fc0 <_free_r+0x28>
 8005018:	6825      	ldr	r5, [r4, #0]
 800501a:	1961      	adds	r1, r4, r5
 800501c:	428b      	cmp	r3, r1
 800501e:	bf04      	itt	eq
 8005020:	6819      	ldreq	r1, [r3, #0]
 8005022:	685b      	ldreq	r3, [r3, #4]
 8005024:	6063      	str	r3, [r4, #4]
 8005026:	bf04      	itt	eq
 8005028:	1949      	addeq	r1, r1, r5
 800502a:	6021      	streq	r1, [r4, #0]
 800502c:	6054      	str	r4, [r2, #4]
 800502e:	e7c7      	b.n	8004fc0 <_free_r+0x28>
 8005030:	b003      	add	sp, #12
 8005032:	bd30      	pop	{r4, r5, pc}
 8005034:	200000b4 	.word	0x200000b4

08005038 <_malloc_r>:
 8005038:	b5f8      	push	{r3, r4, r5, r6, r7, lr}
 800503a:	1ccd      	adds	r5, r1, #3
 800503c:	f025 0503 	bic.w	r5, r5, #3
 8005040:	3508      	adds	r5, #8
 8005042:	2d0c      	cmp	r5, #12
 8005044:	bf38      	it	cc
 8005046:	250c      	movcc	r5, #12
 8005048:	2d00      	cmp	r5, #0
 800504a:	4606      	mov	r6, r0
 800504c:	db01      	blt.n	8005052 <_malloc_r+0x1a>
 800504e:	42a9      	cmp	r1, r5
 8005050:	d903      	bls.n	800505a <_malloc_r+0x22>
 8005052:	230c      	movs	r3, #12
 8005054:	6033      	str	r3, [r6, #0]
 8005056:	2000      	movs	r0, #0
 8005058:	bdf8      	pop	{r3, r4, r5, r6, r7, pc}
 800505a:	f000 ffaf 	bl	8005fbc <__malloc_lock>
 800505e:	4921      	ldr	r1, [pc, #132]	; (80050e4 <_malloc_r+0xac>)
 8005060:	680a      	ldr	r2, [r1, #0]
 8005062:	4614      	mov	r4, r2
 8005064:	b99c      	cbnz	r4, 800508e <_malloc_r+0x56>
 8005066:	4f20      	ldr	r7, [pc, #128]	; (80050e8 <_malloc_r+0xb0>)
 8005068:	683b      	ldr	r3, [r7, #0]
 800506a:	b923      	cbnz	r3, 8005076 <_malloc_r+0x3e>
 800506c:	4621      	mov	r1, r4
 800506e:	4630      	mov	r0, r6
 8005070:	f000 fc86 	bl	8005980 <_sbrk_r>
 8005074:	6038      	str	r0, [r7, #0]
 8005076:	4629      	mov	r1, r5
 8005078:	4630      	mov	r0, r6
 800507a:	f000 fc81 	bl	8005980 <_sbrk_r>
 800507e:	1c43      	adds	r3, r0, #1
 8005080:	d123      	bne.n	80050ca <_malloc_r+0x92>
 8005082:	230c      	movs	r3, #12
 8005084:	6033      	str	r3, [r6, #0]
 8005086:	4630      	mov	r0, r6
 8005088:	f000 ff9e 	bl	8005fc8 <__malloc_unlock>
 800508c:	e7e3      	b.n	8005056 <_malloc_r+0x1e>
 800508e:	6823      	ldr	r3, [r4, #0]
 8005090:	1b5b      	subs	r3, r3, r5
 8005092:	d417      	bmi.n	80050c4 <_malloc_r+0x8c>
 8005094:	2b0b      	cmp	r3, #11
 8005096:	d903      	bls.n	80050a0 <_malloc_r+0x68>
 8005098:	6023      	str	r3, [r4, #0]
 800509a:	441c      	add	r4, r3
 800509c:	6025      	str	r5, [r4, #0]
 800509e:	e004      	b.n	80050aa <_malloc_r+0x72>
 80050a0:	6863      	ldr	r3, [r4, #4]
 80050a2:	42a2      	cmp	r2, r4
 80050a4:	bf0c      	ite	eq
 80050a6:	600b      	streq	r3, [r1, #0]
 80050a8:	6053      	strne	r3, [r2, #4]
 80050aa:	4630      	mov	r0, r6
 80050ac:	f000 ff8c 	bl	8005fc8 <__malloc_unlock>
 80050b0:	f104 000b 	add.w	r0, r4, #11
 80050b4:	1d23      	adds	r3, r4, #4
 80050b6:	f020 0007 	bic.w	r0, r0, #7
 80050ba:	1ac2      	subs	r2, r0, r3
 80050bc:	d0cc      	beq.n	8005058 <_malloc_r+0x20>
 80050be:	1a1b      	subs	r3, r3, r0
 80050c0:	50a3      	str	r3, [r4, r2]
 80050c2:	e7c9      	b.n	8005058 <_malloc_r+0x20>
 80050c4:	4622      	mov	r2, r4
 80050c6:	6864      	ldr	r4, [r4, #4]
 80050c8:	e7cc      	b.n	8005064 <_malloc_r+0x2c>
 80050ca:	1cc4      	adds	r4, r0, #3
 80050cc:	f024 0403 	bic.w	r4, r4, #3
 80050d0:	42a0      	cmp	r0, r4
 80050d2:	d0e3      	beq.n	800509c <_malloc_r+0x64>
 80050d4:	1a21      	subs	r1, r4, r0
 80050d6:	4630      	mov	r0, r6
 80050d8:	f000 fc52 	bl	8005980 <_sbrk_r>
 80050dc:	3001      	adds	r0, #1
 80050de:	d1dd      	bne.n	800509c <_malloc_r+0x64>
 80050e0:	e7cf      	b.n	8005082 <_malloc_r+0x4a>
 80050e2:	bf00      	nop
 80050e4:	200000b4 	.word	0x200000b4
 80050e8:	200000b8 	.word	0x200000b8

080050ec <__ssputs_r>:
 80050ec:	e92d 47f0 	stmdb	sp!, {r4, r5, r6, r7, r8, r9, sl, lr}
 80050f0:	688e      	ldr	r6, [r1, #8]
 80050f2:	429e      	cmp	r6, r3
 80050f4:	4682      	mov	sl, r0
 80050f6:	460c      	mov	r4, r1
 80050f8:	4690      	mov	r8, r2
 80050fa:	461f      	mov	r7, r3
 80050fc:	d838      	bhi.n	8005170 <__ssputs_r+0x84>
 80050fe:	898a      	ldrh	r2, [r1, #12]
 8005100:	f412 6f90 	tst.w	r2, #1152	; 0x480
 8005104:	d032      	beq.n	800516c <__ssputs_r+0x80>
 8005106:	6825      	ldr	r5, [r4, #0]
 8005108:	6909      	ldr	r1, [r1, #16]
 800510a:	eba5 0901 	sub.w	r9, r5, r1
 800510e:	6965      	ldr	r5, [r4, #20]
 8005110:	eb05 0545 	add.w	r5, r5, r5, lsl #1
 8005114:	eb05 75d5 	add.w	r5, r5, r5, lsr #31
 8005118:	3301      	adds	r3, #1
 800511a:	444b      	add	r3, r9
 800511c:	106d      	asrs	r5, r5, #1
 800511e:	429d      	cmp	r5, r3
 8005120:	bf38      	it	cc
 8005122:	461d      	movcc	r5, r3
 8005124:	0553      	lsls	r3, r2, #21
 8005126:	d531      	bpl.n	800518c <__ssputs_r+0xa0>
 8005128:	4629      	mov	r1, r5
 800512a:	f7ff ff85 	bl	8005038 <_malloc_r>
 800512e:	4606      	mov	r6, r0
 8005130:	b950      	cbnz	r0, 8005148 <__ssputs_r+0x5c>
 8005132:	230c      	movs	r3, #12
 8005134:	f8ca 3000 	str.w	r3, [sl]
 8005138:	89a3      	ldrh	r3, [r4, #12]
 800513a:	f043 0340 	orr.w	r3, r3, #64	; 0x40
 800513e:	81a3      	strh	r3, [r4, #12]
 8005140:	f04f 30ff 	mov.w	r0, #4294967295
 8005144:	e8bd 87f0 	ldmia.w	sp!, {r4, r5, r6, r7, r8, r9, sl, pc}
 8005148:	6921      	ldr	r1, [r4, #16]
 800514a:	464a      	mov	r2, r9
 800514c:	f000 ff0e 	bl	8005f6c <memcpy>
 8005150:	89a3      	ldrh	r3, [r4, #12]
 8005152:	f423 6390 	bic.w	r3, r3, #1152	; 0x480
 8005156:	f043 0380 	orr.w	r3, r3, #128	; 0x80
 800515a:	81a3      	strh	r3, [r4, #12]
 800515c:	6126      	str	r6, [r4, #16]
 800515e:	6165      	str	r5, [r4, #20]
 8005160:	444e      	add	r6, r9
 8005162:	eba5 0509 	sub.w	r5, r5, r9
 8005166:	6026      	str	r6, [r4, #0]
 8005168:	60a5      	str	r5, [r4, #8]
 800516a:	463e      	mov	r6, r7
 800516c:	42be      	cmp	r6, r7
 800516e:	d900      	bls.n	8005172 <__ssputs_r+0x86>
 8005170:	463e      	mov	r6, r7
 8005172:	4632      	mov	r2, r6
 8005174:	6820      	ldr	r0, [r4, #0]
 8005176:	4641      	mov	r1, r8
 8005178:	f000 ff06 	bl	8005f88 <memmove>
 800517c:	68a3      	ldr	r3, [r4, #8]
 800517e:	6822      	ldr	r2, [r4, #0]
 8005180:	1b9b      	subs	r3, r3, r6
 8005182:	4432      	add	r2, r6
 8005184:	60a3      	str	r3, [r4, #8]
 8005186:	6022      	str	r2, [r4, #0]
 8005188:	2000      	movs	r0, #0
 800518a:	e7db      	b.n	8005144 <__ssputs_r+0x58>
 800518c:	462a      	mov	r2, r5
 800518e:	f000 ff21 	bl	8005fd4 <_realloc_r>
 8005192:	4606      	mov	r6, r0
 8005194:	2800      	cmp	r0, #0
 8005196:	d1e1      	bne.n	800515c <__ssputs_r+0x70>
 8005198:	6921      	ldr	r1, [r4, #16]
 800519a:	4650      	mov	r0, sl
 800519c:	f7ff fefc 	bl	8004f98 <_free_r>
 80051a0:	e7c7      	b.n	8005132 <__ssputs_r+0x46>
	...

080051a4 <_svfiprintf_r>:
 80051a4:	e92d 4ff0 	stmdb	sp!, {r4, r5, r6, r7, r8, r9, sl, fp, lr}
 80051a8:	4698      	mov	r8, r3
 80051aa:	898b      	ldrh	r3, [r1, #12]
 80051ac:	061b      	lsls	r3, r3, #24
 80051ae:	b09d      	sub	sp, #116	; 0x74
 80051b0:	4607      	mov	r7, r0
 80051b2:	460d      	mov	r5, r1
 80051b4:	4614      	mov	r4, r2
 80051b6:	d50e      	bpl.n	80051d6 <_svfiprintf_r+0x32>
 80051b8:	690b      	ldr	r3, [r1, #16]
 80051ba:	b963      	cbnz	r3, 80051d6 <_svfiprintf_r+0x32>
 80051bc:	2140      	movs	r1, #64	; 0x40
 80051be:	f7ff ff3b 	bl	8005038 <_malloc_r>
 80051c2:	6028      	str	r0, [r5, #0]
 80051c4:	6128      	str	r0, [r5, #16]
 80051c6:	b920      	cbnz	r0, 80051d2 <_svfiprintf_r+0x2e>
 80051c8:	230c      	movs	r3, #12
 80051ca:	603b      	str	r3, [r7, #0]
 80051cc:	f04f 30ff 	mov.w	r0, #4294967295
 80051d0:	e0d1      	b.n	8005376 <_svfiprintf_r+0x1d2>
 80051d2:	2340      	movs	r3, #64	; 0x40
 80051d4:	616b      	str	r3, [r5, #20]
 80051d6:	2300      	movs	r3, #0
 80051d8:	9309      	str	r3, [sp, #36]	; 0x24
 80051da:	2320      	movs	r3, #32
 80051dc:	f88d 3029 	strb.w	r3, [sp, #41]	; 0x29
 80051e0:	f8cd 800c 	str.w	r8, [sp, #12]
 80051e4:	2330      	movs	r3, #48	; 0x30
 80051e6:	f8df 81a8 	ldr.w	r8, [pc, #424]	; 8005390 <_svfiprintf_r+0x1ec>
 80051ea:	f88d 302a 	strb.w	r3, [sp, #42]	; 0x2a
 80051ee:	f04f 0901 	mov.w	r9, #1
 80051f2:	4623      	mov	r3, r4
 80051f4:	469a      	mov	sl, r3
 80051f6:	f813 2b01 	ldrb.w	r2, [r3], #1
 80051fa:	b10a      	cbz	r2, 8005200 <_svfiprintf_r+0x5c>
 80051fc:	2a25      	cmp	r2, #37	; 0x25
 80051fe:	d1f9      	bne.n	80051f4 <_svfiprintf_r+0x50>
 8005200:	ebba 0b04 	subs.w	fp, sl, r4
 8005204:	d00b      	beq.n	800521e <_svfiprintf_r+0x7a>
 8005206:	465b      	mov	r3, fp
 8005208:	4622      	mov	r2, r4
 800520a:	4629      	mov	r1, r5
 800520c:	4638      	mov	r0, r7
 800520e:	f7ff ff6d 	bl	80050ec <__ssputs_r>
 8005212:	3001      	adds	r0, #1
 8005214:	f000 80aa 	beq.w	800536c <_svfiprintf_r+0x1c8>
 8005218:	9a09      	ldr	r2, [sp, #36]	; 0x24
 800521a:	445a      	add	r2, fp
 800521c:	9209      	str	r2, [sp, #36]	; 0x24
 800521e:	f89a 3000 	ldrb.w	r3, [sl]
 8005222:	2b00      	cmp	r3, #0
 8005224:	f000 80a2 	beq.w	800536c <_svfiprintf_r+0x1c8>
 8005228:	2300      	movs	r3, #0
 800522a:	f04f 32ff 	mov.w	r2, #4294967295
 800522e:	e9cd 2305 	strd	r2, r3, [sp, #20]
 8005232:	f10a 0a01 	add.w	sl, sl, #1
 8005236:	9304      	str	r3, [sp, #16]
 8005238:	9307      	str	r3, [sp, #28]
 800523a:	f88d 3053 	strb.w	r3, [sp, #83]	; 0x53
 800523e:	931a      	str	r3, [sp, #104]	; 0x68
 8005240:	4654      	mov	r4, sl
 8005242:	2205      	movs	r2, #5
 8005244:	f814 1b01 	ldrb.w	r1, [r4], #1
 8005248:	4851      	ldr	r0, [pc, #324]	; (8005390 <_svfiprintf_r+0x1ec>)
 800524a:	f7fa ffc9 	bl	80001e0 <memchr>
 800524e:	9a04      	ldr	r2, [sp, #16]
 8005250:	b9d8      	cbnz	r0, 800528a <_svfiprintf_r+0xe6>
 8005252:	06d0      	lsls	r0, r2, #27
 8005254:	bf44      	itt	mi
 8005256:	2320      	movmi	r3, #32
 8005258:	f88d 3053 	strbmi.w	r3, [sp, #83]	; 0x53
 800525c:	0711      	lsls	r1, r2, #28
 800525e:	bf44      	itt	mi
 8005260:	232b      	movmi	r3, #43	; 0x2b
 8005262:	f88d 3053 	strbmi.w	r3, [sp, #83]	; 0x53
 8005266:	f89a 3000 	ldrb.w	r3, [sl]
 800526a:	2b2a      	cmp	r3, #42	; 0x2a
 800526c:	d015      	beq.n	800529a <_svfiprintf_r+0xf6>
 800526e:	9a07      	ldr	r2, [sp, #28]
 8005270:	4654      	mov	r4, sl
 8005272:	2000      	movs	r0, #0
 8005274:	f04f 0c0a 	mov.w	ip, #10
 8005278:	4621      	mov	r1, r4
 800527a:	f811 3b01 	ldrb.w	r3, [r1], #1
 800527e:	3b30      	subs	r3, #48	; 0x30
 8005280:	2b09      	cmp	r3, #9
 8005282:	d94e      	bls.n	8005322 <_svfiprintf_r+0x17e>
 8005284:	b1b0      	cbz	r0, 80052b4 <_svfiprintf_r+0x110>
 8005286:	9207      	str	r2, [sp, #28]
 8005288:	e014      	b.n	80052b4 <_svfiprintf_r+0x110>
 800528a:	eba0 0308 	sub.w	r3, r0, r8
 800528e:	fa09 f303 	lsl.w	r3, r9, r3
 8005292:	4313      	orrs	r3, r2
 8005294:	9304      	str	r3, [sp, #16]
 8005296:	46a2      	mov	sl, r4
 8005298:	e7d2      	b.n	8005240 <_svfiprintf_r+0x9c>
 800529a:	9b03      	ldr	r3, [sp, #12]
 800529c:	1d19      	adds	r1, r3, #4
 800529e:	681b      	ldr	r3, [r3, #0]
 80052a0:	9103      	str	r1, [sp, #12]
 80052a2:	2b00      	cmp	r3, #0
 80052a4:	bfbb      	ittet	lt
 80052a6:	425b      	neglt	r3, r3
 80052a8:	f042 0202 	orrlt.w	r2, r2, #2
 80052ac:	9307      	strge	r3, [sp, #28]
 80052ae:	9307      	strlt	r3, [sp, #28]
 80052b0:	bfb8      	it	lt
 80052b2:	9204      	strlt	r2, [sp, #16]
 80052b4:	7823      	ldrb	r3, [r4, #0]
 80052b6:	2b2e      	cmp	r3, #46	; 0x2e
 80052b8:	d10c      	bne.n	80052d4 <_svfiprintf_r+0x130>
 80052ba:	7863      	ldrb	r3, [r4, #1]
 80052bc:	2b2a      	cmp	r3, #42	; 0x2a
 80052be:	d135      	bne.n	800532c <_svfiprintf_r+0x188>
 80052c0:	9b03      	ldr	r3, [sp, #12]
 80052c2:	1d1a      	adds	r2, r3, #4
 80052c4:	681b      	ldr	r3, [r3, #0]
 80052c6:	9203      	str	r2, [sp, #12]
 80052c8:	2b00      	cmp	r3, #0
 80052ca:	bfb8      	it	lt
 80052cc:	f04f 33ff 	movlt.w	r3, #4294967295
 80052d0:	3402      	adds	r4, #2
 80052d2:	9305      	str	r3, [sp, #20]
 80052d4:	f8df a0c8 	ldr.w	sl, [pc, #200]	; 80053a0 <_svfiprintf_r+0x1fc>
 80052d8:	7821      	ldrb	r1, [r4, #0]
 80052da:	2203      	movs	r2, #3
 80052dc:	4650      	mov	r0, sl
 80052de:	f7fa ff7f 	bl	80001e0 <memchr>
 80052e2:	b140      	cbz	r0, 80052f6 <_svfiprintf_r+0x152>
 80052e4:	2340      	movs	r3, #64	; 0x40
 80052e6:	eba0 000a 	sub.w	r0, r0, sl
 80052ea:	fa03 f000 	lsl.w	r0, r3, r0
 80052ee:	9b04      	ldr	r3, [sp, #16]
 80052f0:	4303      	orrs	r3, r0
 80052f2:	3401      	adds	r4, #1
 80052f4:	9304      	str	r3, [sp, #16]
 80052f6:	f814 1b01 	ldrb.w	r1, [r4], #1
 80052fa:	4826      	ldr	r0, [pc, #152]	; (8005394 <_svfiprintf_r+0x1f0>)
 80052fc:	f88d 1028 	strb.w	r1, [sp, #40]	; 0x28
 8005300:	2206      	movs	r2, #6
 8005302:	f7fa ff6d 	bl	80001e0 <memchr>
 8005306:	2800      	cmp	r0, #0
 8005308:	d038      	beq.n	800537c <_svfiprintf_r+0x1d8>
 800530a:	4b23      	ldr	r3, [pc, #140]	; (8005398 <_svfiprintf_r+0x1f4>)
 800530c:	bb1b      	cbnz	r3, 8005356 <_svfiprintf_r+0x1b2>
 800530e:	9b03      	ldr	r3, [sp, #12]
 8005310:	3307      	adds	r3, #7
 8005312:	f023 0307 	bic.w	r3, r3, #7
 8005316:	3308      	adds	r3, #8
 8005318:	9303      	str	r3, [sp, #12]
 800531a:	9b09      	ldr	r3, [sp, #36]	; 0x24
 800531c:	4433      	add	r3, r6
 800531e:	9309      	str	r3, [sp, #36]	; 0x24
 8005320:	e767      	b.n	80051f2 <_svfiprintf_r+0x4e>
 8005322:	fb0c 3202 	mla	r2, ip, r2, r3
 8005326:	460c      	mov	r4, r1
 8005328:	2001      	movs	r0, #1
 800532a:	e7a5      	b.n	8005278 <_svfiprintf_r+0xd4>
 800532c:	2300      	movs	r3, #0
 800532e:	3401      	adds	r4, #1
 8005330:	9305      	str	r3, [sp, #20]
 8005332:	4619      	mov	r1, r3
 8005334:	f04f 0c0a 	mov.w	ip, #10
 8005338:	4620      	mov	r0, r4
 800533a:	f810 2b01 	ldrb.w	r2, [r0], #1
 800533e:	3a30      	subs	r2, #48	; 0x30
 8005340:	2a09      	cmp	r2, #9
 8005342:	d903      	bls.n	800534c <_svfiprintf_r+0x1a8>
 8005344:	2b00      	cmp	r3, #0
 8005346:	d0c5      	beq.n	80052d4 <_svfiprintf_r+0x130>
 8005348:	9105      	str	r1, [sp, #20]
 800534a:	e7c3      	b.n	80052d4 <_svfiprintf_r+0x130>
 800534c:	fb0c 2101 	mla	r1, ip, r1, r2
 8005350:	4604      	mov	r4, r0
 8005352:	2301      	movs	r3, #1
 8005354:	e7f0      	b.n	8005338 <_svfiprintf_r+0x194>
 8005356:	ab03      	add	r3, sp, #12
 8005358:	9300      	str	r3, [sp, #0]
 800535a:	462a      	mov	r2, r5
 800535c:	4b0f      	ldr	r3, [pc, #60]	; (800539c <_svfiprintf_r+0x1f8>)
 800535e:	a904      	add	r1, sp, #16
 8005360:	4638      	mov	r0, r7
 8005362:	f3af 8000 	nop.w
 8005366:	1c42      	adds	r2, r0, #1
 8005368:	4606      	mov	r6, r0
 800536a:	d1d6      	bne.n	800531a <_svfiprintf_r+0x176>
 800536c:	89ab      	ldrh	r3, [r5, #12]
 800536e:	065b      	lsls	r3, r3, #25
 8005370:	f53f af2c 	bmi.w	80051cc <_svfiprintf_r+0x28>
 8005374:	9809      	ldr	r0, [sp, #36]	; 0x24
 8005376:	b01d      	add	sp, #116	; 0x74
 8005378:	e8bd 8ff0 	ldmia.w	sp!, {r4, r5, r6, r7, r8, r9, sl, fp, pc}
 800537c:	ab03      	add	r3, sp, #12
 800537e:	9300      	str	r3, [sp, #0]
 8005380:	462a      	mov	r2, r5
 8005382:	4b06      	ldr	r3, [pc, #24]	; (800539c <_svfiprintf_r+0x1f8>)
 8005384:	a904      	add	r1, sp, #16
 8005386:	4638      	mov	r0, r7
 8005388:	f000 f9d4 	bl	8005734 <_printf_i>
 800538c:	e7eb      	b.n	8005366 <_svfiprintf_r+0x1c2>
 800538e:	bf00      	nop
 8005390:	08006328 	.word	0x08006328
 8005394:	08006332 	.word	0x08006332
 8005398:	00000000 	.word	0x00000000
 800539c:	080050ed 	.word	0x080050ed
 80053a0:	0800632e 	.word	0x0800632e

080053a4 <__sfputc_r>:
 80053a4:	6893      	ldr	r3, [r2, #8]
 80053a6:	3b01      	subs	r3, #1
 80053a8:	2b00      	cmp	r3, #0
 80053aa:	b410      	push	{r4}
 80053ac:	6093      	str	r3, [r2, #8]
 80053ae:	da08      	bge.n	80053c2 <__sfputc_r+0x1e>
 80053b0:	6994      	ldr	r4, [r2, #24]
 80053b2:	42a3      	cmp	r3, r4
 80053b4:	db01      	blt.n	80053ba <__sfputc_r+0x16>
 80053b6:	290a      	cmp	r1, #10
 80053b8:	d103      	bne.n	80053c2 <__sfputc_r+0x1e>
 80053ba:	f85d 4b04 	ldr.w	r4, [sp], #4
 80053be:	f000 baef 	b.w	80059a0 <__swbuf_r>
 80053c2:	6813      	ldr	r3, [r2, #0]
 80053c4:	1c58      	adds	r0, r3, #1
 80053c6:	6010      	str	r0, [r2, #0]
 80053c8:	7019      	strb	r1, [r3, #0]
 80053ca:	4608      	mov	r0, r1
 80053cc:	f85d 4b04 	ldr.w	r4, [sp], #4
 80053d0:	4770      	bx	lr

080053d2 <__sfputs_r>:
 80053d2:	b5f8      	push	{r3, r4, r5, r6, r7, lr}
 80053d4:	4606      	mov	r6, r0
 80053d6:	460f      	mov	r7, r1
 80053d8:	4614      	mov	r4, r2
 80053da:	18d5      	adds	r5, r2, r3
 80053dc:	42ac      	cmp	r4, r5
 80053de:	d101      	bne.n	80053e4 <__sfputs_r+0x12>
 80053e0:	2000      	movs	r0, #0
 80053e2:	e007      	b.n	80053f4 <__sfputs_r+0x22>
 80053e4:	f814 1b01 	ldrb.w	r1, [r4], #1
 80053e8:	463a      	mov	r2, r7
 80053ea:	4630      	mov	r0, r6
 80053ec:	f7ff ffda 	bl	80053a4 <__sfputc_r>
 80053f0:	1c43      	adds	r3, r0, #1
 80053f2:	d1f3      	bne.n	80053dc <__sfputs_r+0xa>
 80053f4:	bdf8      	pop	{r3, r4, r5, r6, r7, pc}
	...

080053f8 <_vfiprintf_r>:
 80053f8:	e92d 4ff0 	stmdb	sp!, {r4, r5, r6, r7, r8, r9, sl, fp, lr}
 80053fc:	460d      	mov	r5, r1
 80053fe:	b09d      	sub	sp, #116	; 0x74
 8005400:	4614      	mov	r4, r2
 8005402:	4698      	mov	r8, r3
 8005404:	4606      	mov	r6, r0
 8005406:	b118      	cbz	r0, 8005410 <_vfiprintf_r+0x18>
 8005408:	6983      	ldr	r3, [r0, #24]
 800540a:	b90b      	cbnz	r3, 8005410 <_vfiprintf_r+0x18>
 800540c:	f000 fcaa 	bl	8005d64 <__sinit>
 8005410:	4b89      	ldr	r3, [pc, #548]	; (8005638 <_vfiprintf_r+0x240>)
 8005412:	429d      	cmp	r5, r3
 8005414:	d11b      	bne.n	800544e <_vfiprintf_r+0x56>
 8005416:	6875      	ldr	r5, [r6, #4]
 8005418:	6e6b      	ldr	r3, [r5, #100]	; 0x64
 800541a:	07d9      	lsls	r1, r3, #31
 800541c:	d405      	bmi.n	800542a <_vfiprintf_r+0x32>
 800541e:	89ab      	ldrh	r3, [r5, #12]
 8005420:	059a      	lsls	r2, r3, #22
 8005422:	d402      	bmi.n	800542a <_vfiprintf_r+0x32>
 8005424:	6da8      	ldr	r0, [r5, #88]	; 0x58
 8005426:	f000 fd3b 	bl	8005ea0 <__retarget_lock_acquire_recursive>
 800542a:	89ab      	ldrh	r3, [r5, #12]
 800542c:	071b      	lsls	r3, r3, #28
 800542e:	d501      	bpl.n	8005434 <_vfiprintf_r+0x3c>
 8005430:	692b      	ldr	r3, [r5, #16]
 8005432:	b9eb      	cbnz	r3, 8005470 <_vfiprintf_r+0x78>
 8005434:	4629      	mov	r1, r5
 8005436:	4630      	mov	r0, r6
 8005438:	f000 fb04 	bl	8005a44 <__swsetup_r>
 800543c:	b1c0      	cbz	r0, 8005470 <_vfiprintf_r+0x78>
 800543e:	6e6b      	ldr	r3, [r5, #100]	; 0x64
 8005440:	07dc      	lsls	r4, r3, #31
 8005442:	d50e      	bpl.n	8005462 <_vfiprintf_r+0x6a>
 8005444:	f04f 30ff 	mov.w	r0, #4294967295
 8005448:	b01d      	add	sp, #116	; 0x74
 800544a:	e8bd 8ff0 	ldmia.w	sp!, {r4, r5, r6, r7, r8, r9, sl, fp, pc}
 800544e:	4b7b      	ldr	r3, [pc, #492]	; (800563c <_vfiprintf_r+0x244>)
 8005450:	429d      	cmp	r5, r3
 8005452:	d101      	bne.n	8005458 <_vfiprintf_r+0x60>
 8005454:	68b5      	ldr	r5, [r6, #8]
 8005456:	e7df      	b.n	8005418 <_vfiprintf_r+0x20>
 8005458:	4b79      	ldr	r3, [pc, #484]	; (8005640 <_vfiprintf_r+0x248>)
 800545a:	429d      	cmp	r5, r3
 800545c:	bf08      	it	eq
 800545e:	68f5      	ldreq	r5, [r6, #12]
 8005460:	e7da      	b.n	8005418 <_vfiprintf_r+0x20>
 8005462:	89ab      	ldrh	r3, [r5, #12]
 8005464:	0598      	lsls	r0, r3, #22
 8005466:	d4ed      	bmi.n	8005444 <_vfiprintf_r+0x4c>
 8005468:	6da8      	ldr	r0, [r5, #88]	; 0x58
 800546a:	f000 fd1a 	bl	8005ea2 <__retarget_lock_release_recursive>
 800546e:	e7e9      	b.n	8005444 <_vfiprintf_r+0x4c>
 8005470:	2300      	movs	r3, #0
 8005472:	9309      	str	r3, [sp, #36]	; 0x24
 8005474:	2320      	movs	r3, #32
 8005476:	f88d 3029 	strb.w	r3, [sp, #41]	; 0x29
 800547a:	f8cd 800c 	str.w	r8, [sp, #12]
 800547e:	2330      	movs	r3, #48	; 0x30
 8005480:	f8df 81c0 	ldr.w	r8, [pc, #448]	; 8005644 <_vfiprintf_r+0x24c>
 8005484:	f88d 302a 	strb.w	r3, [sp, #42]	; 0x2a
 8005488:	f04f 0901 	mov.w	r9, #1
 800548c:	4623      	mov	r3, r4
 800548e:	469a      	mov	sl, r3
 8005490:	f813 2b01 	ldrb.w	r2, [r3], #1
 8005494:	b10a      	cbz	r2, 800549a <_vfiprintf_r+0xa2>
 8005496:	2a25      	cmp	r2, #37	; 0x25
 8005498:	d1f9      	bne.n	800548e <_vfiprintf_r+0x96>
 800549a:	ebba 0b04 	subs.w	fp, sl, r4
 800549e:	d00b      	beq.n	80054b8 <_vfiprintf_r+0xc0>
 80054a0:	465b      	mov	r3, fp
 80054a2:	4622      	mov	r2, r4
 80054a4:	4629      	mov	r1, r5
 80054a6:	4630      	mov	r0, r6
 80054a8:	f7ff ff93 	bl	80053d2 <__sfputs_r>
 80054ac:	3001      	adds	r0, #1
 80054ae:	f000 80aa 	beq.w	8005606 <_vfiprintf_r+0x20e>
 80054b2:	9a09      	ldr	r2, [sp, #36]	; 0x24
 80054b4:	445a      	add	r2, fp
 80054b6:	9209      	str	r2, [sp, #36]	; 0x24
 80054b8:	f89a 3000 	ldrb.w	r3, [sl]
 80054bc:	2b00      	cmp	r3, #0
 80054be:	f000 80a2 	beq.w	8005606 <_vfiprintf_r+0x20e>
 80054c2:	2300      	movs	r3, #0
 80054c4:	f04f 32ff 	mov.w	r2, #4294967295
 80054c8:	e9cd 2305 	strd	r2, r3, [sp, #20]
 80054cc:	f10a 0a01 	add.w	sl, sl, #1
 80054d0:	9304      	str	r3, [sp, #16]
 80054d2:	9307      	str	r3, [sp, #28]
 80054d4:	f88d 3053 	strb.w	r3, [sp, #83]	; 0x53
 80054d8:	931a      	str	r3, [sp, #104]	; 0x68
 80054da:	4654      	mov	r4, sl
 80054dc:	2205      	movs	r2, #5
 80054de:	f814 1b01 	ldrb.w	r1, [r4], #1
 80054e2:	4858      	ldr	r0, [pc, #352]	; (8005644 <_vfiprintf_r+0x24c>)
 80054e4:	f7fa fe7c 	bl	80001e0 <memchr>
 80054e8:	9a04      	ldr	r2, [sp, #16]
 80054ea:	b9d8      	cbnz	r0, 8005524 <_vfiprintf_r+0x12c>
 80054ec:	06d1      	lsls	r1, r2, #27
 80054ee:	bf44      	itt	mi
 80054f0:	2320      	movmi	r3, #32
 80054f2:	f88d 3053 	strbmi.w	r3, [sp, #83]	; 0x53
 80054f6:	0713      	lsls	r3, r2, #28
 80054f8:	bf44      	itt	mi
 80054fa:	232b      	movmi	r3, #43	; 0x2b
 80054fc:	f88d 3053 	strbmi.w	r3, [sp, #83]	; 0x53
 8005500:	f89a 3000 	ldrb.w	r3, [sl]
 8005504:	2b2a      	cmp	r3, #42	; 0x2a
 8005506:	d015      	beq.n	8005534 <_vfiprintf_r+0x13c>
 8005508:	9a07      	ldr	r2, [sp, #28]
 800550a:	4654      	mov	r4, sl
 800550c:	2000      	movs	r0, #0
 800550e:	f04f 0c0a 	mov.w	ip, #10
 8005512:	4621      	mov	r1, r4
 8005514:	f811 3b01 	ldrb.w	r3, [r1], #1
 8005518:	3b30      	subs	r3, #48	; 0x30
 800551a:	2b09      	cmp	r3, #9
 800551c:	d94e      	bls.n	80055bc <_vfiprintf_r+0x1c4>
 800551e:	b1b0      	cbz	r0, 800554e <_vfiprintf_r+0x156>
 8005520:	9207      	str	r2, [sp, #28]
 8005522:	e014      	b.n	800554e <_vfiprintf_r+0x156>
 8005524:	eba0 0308 	sub.w	r3, r0, r8
 8005528:	fa09 f303 	lsl.w	r3, r9, r3
 800552c:	4313      	orrs	r3, r2
 800552e:	9304      	str	r3, [sp, #16]
 8005530:	46a2      	mov	sl, r4
 8005532:	e7d2      	b.n	80054da <_vfiprintf_r+0xe2>
 8005534:	9b03      	ldr	r3, [sp, #12]
 8005536:	1d19      	adds	r1, r3, #4
 8005538:	681b      	ldr	r3, [r3, #0]
 800553a:	9103      	str	r1, [sp, #12]
 800553c:	2b00      	cmp	r3, #0
 800553e:	bfbb      	ittet	lt
 8005540:	425b      	neglt	r3, r3
 8005542:	f042 0202 	orrlt.w	r2, r2, #2
 8005546:	9307      	strge	r3, [sp, #28]
 8005548:	9307      	strlt	r3, [sp, #28]
 800554a:	bfb8      	it	lt
 800554c:	9204      	strlt	r2, [sp, #16]
 800554e:	7823      	ldrb	r3, [r4, #0]
 8005550:	2b2e      	cmp	r3, #46	; 0x2e
 8005552:	d10c      	bne.n	800556e <_vfiprintf_r+0x176>
 8005554:	7863      	ldrb	r3, [r4, #1]
 8005556:	2b2a      	cmp	r3, #42	; 0x2a
 8005558:	d135      	bne.n	80055c6 <_vfiprintf_r+0x1ce>
 800555a:	9b03      	ldr	r3, [sp, #12]
 800555c:	1d1a      	adds	r2, r3, #4
 800555e:	681b      	ldr	r3, [r3, #0]
 8005560:	9203      	str	r2, [sp, #12]
 8005562:	2b00      	cmp	r3, #0
 8005564:	bfb8      	it	lt
 8005566:	f04f 33ff 	movlt.w	r3, #4294967295
 800556a:	3402      	adds	r4, #2
 800556c:	9305      	str	r3, [sp, #20]
 800556e:	f8df a0e4 	ldr.w	sl, [pc, #228]	; 8005654 <_vfiprintf_r+0x25c>
 8005572:	7821      	ldrb	r1, [r4, #0]
 8005574:	2203      	movs	r2, #3
 8005576:	4650      	mov	r0, sl
 8005578:	f7fa fe32 	bl	80001e0 <memchr>
 800557c:	b140      	cbz	r0, 8005590 <_vfiprintf_r+0x198>
 800557e:	2340      	movs	r3, #64	; 0x40
 8005580:	eba0 000a 	sub.w	r0, r0, sl
 8005584:	fa03 f000 	lsl.w	r0, r3, r0
 8005588:	9b04      	ldr	r3, [sp, #16]
 800558a:	4303      	orrs	r3, r0
 800558c:	3401      	adds	r4, #1
 800558e:	9304      	str	r3, [sp, #16]
 8005590:	f814 1b01 	ldrb.w	r1, [r4], #1
 8005594:	482c      	ldr	r0, [pc, #176]	; (8005648 <_vfiprintf_r+0x250>)
 8005596:	f88d 1028 	strb.w	r1, [sp, #40]	; 0x28
 800559a:	2206      	movs	r2, #6
 800559c:	f7fa fe20 	bl	80001e0 <memchr>
 80055a0:	2800      	cmp	r0, #0
 80055a2:	d03f      	beq.n	8005624 <_vfiprintf_r+0x22c>
 80055a4:	4b29      	ldr	r3, [pc, #164]	; (800564c <_vfiprintf_r+0x254>)
 80055a6:	bb1b      	cbnz	r3, 80055f0 <_vfiprintf_r+0x1f8>
 80055a8:	9b03      	ldr	r3, [sp, #12]
 80055aa:	3307      	adds	r3, #7
 80055ac:	f023 0307 	bic.w	r3, r3, #7
 80055b0:	3308      	adds	r3, #8
 80055b2:	9303      	str	r3, [sp, #12]
 80055b4:	9b09      	ldr	r3, [sp, #36]	; 0x24
 80055b6:	443b      	add	r3, r7
 80055b8:	9309      	str	r3, [sp, #36]	; 0x24
 80055ba:	e767      	b.n	800548c <_vfiprintf_r+0x94>
 80055bc:	fb0c 3202 	mla	r2, ip, r2, r3
 80055c0:	460c      	mov	r4, r1
 80055c2:	2001      	movs	r0, #1
 80055c4:	e7a5      	b.n	8005512 <_vfiprintf_r+0x11a>
 80055c6:	2300      	movs	r3, #0
 80055c8:	3401      	adds	r4, #1
 80055ca:	9305      	str	r3, [sp, #20]
 80055cc:	4619      	mov	r1, r3
 80055ce:	f04f 0c0a 	mov.w	ip, #10
 80055d2:	4620      	mov	r0, r4
 80055d4:	f810 2b01 	ldrb.w	r2, [r0], #1
 80055d8:	3a30      	subs	r2, #48	; 0x30
 80055da:	2a09      	cmp	r2, #9
 80055dc:	d903      	bls.n	80055e6 <_vfiprintf_r+0x1ee>
 80055de:	2b00      	cmp	r3, #0
 80055e0:	d0c5      	beq.n	800556e <_vfiprintf_r+0x176>
 80055e2:	9105      	str	r1, [sp, #20]
 80055e4:	e7c3      	b.n	800556e <_vfiprintf_r+0x176>
 80055e6:	fb0c 2101 	mla	r1, ip, r1, r2
 80055ea:	4604      	mov	r4, r0
 80055ec:	2301      	movs	r3, #1
 80055ee:	e7f0      	b.n	80055d2 <_vfiprintf_r+0x1da>
 80055f0:	ab03      	add	r3, sp, #12
 80055f2:	9300      	str	r3, [sp, #0]
 80055f4:	462a      	mov	r2, r5
 80055f6:	4b16      	ldr	r3, [pc, #88]	; (8005650 <_vfiprintf_r+0x258>)
 80055f8:	a904      	add	r1, sp, #16
 80055fa:	4630      	mov	r0, r6
 80055fc:	f3af 8000 	nop.w
 8005600:	4607      	mov	r7, r0
 8005602:	1c78      	adds	r0, r7, #1
 8005604:	d1d6      	bne.n	80055b4 <_vfiprintf_r+0x1bc>
 8005606:	6e6b      	ldr	r3, [r5, #100]	; 0x64
 8005608:	07d9      	lsls	r1, r3, #31
 800560a:	d405      	bmi.n	8005618 <_vfiprintf_r+0x220>
 800560c:	89ab      	ldrh	r3, [r5, #12]
 800560e:	059a      	lsls	r2, r3, #22
 8005610:	d402      	bmi.n	8005618 <_vfiprintf_r+0x220>
 8005612:	6da8      	ldr	r0, [r5, #88]	; 0x58
 8005614:	f000 fc45 	bl	8005ea2 <__retarget_lock_release_recursive>
 8005618:	89ab      	ldrh	r3, [r5, #12]
 800561a:	065b      	lsls	r3, r3, #25
 800561c:	f53f af12 	bmi.w	8005444 <_vfiprintf_r+0x4c>
 8005620:	9809      	ldr	r0, [sp, #36]	; 0x24
 8005622:	e711      	b.n	8005448 <_vfiprintf_r+0x50>
 8005624:	ab03      	add	r3, sp, #12
 8005626:	9300      	str	r3, [sp, #0]
 8005628:	462a      	mov	r2, r5
 800562a:	4b09      	ldr	r3, [pc, #36]	; (8005650 <_vfiprintf_r+0x258>)
 800562c:	a904      	add	r1, sp, #16
 800562e:	4630      	mov	r0, r6
 8005630:	f000 f880 	bl	8005734 <_printf_i>
 8005634:	e7e4      	b.n	8005600 <_vfiprintf_r+0x208>
 8005636:	bf00      	nop
 8005638:	0800637c 	.word	0x0800637c
 800563c:	0800639c 	.word	0x0800639c
 8005640:	0800635c 	.word	0x0800635c
 8005644:	08006328 	.word	0x08006328
 8005648:	08006332 	.word	0x08006332
 800564c:	00000000 	.word	0x00000000
 8005650:	080053d3 	.word	0x080053d3
 8005654:	0800632e 	.word	0x0800632e

08005658 <_printf_common>:
 8005658:	e92d 47f0 	stmdb	sp!, {r4, r5, r6, r7, r8, r9, sl, lr}
 800565c:	4616      	mov	r6, r2
 800565e:	4699      	mov	r9, r3
 8005660:	688a      	ldr	r2, [r1, #8]
 8005662:	690b      	ldr	r3, [r1, #16]
 8005664:	f8dd 8020 	ldr.w	r8, [sp, #32]
 8005668:	4293      	cmp	r3, r2
 800566a:	bfb8      	it	lt
 800566c:	4613      	movlt	r3, r2
 800566e:	6033      	str	r3, [r6, #0]
 8005670:	f891 2043 	ldrb.w	r2, [r1, #67]	; 0x43
 8005674:	4607      	mov	r7, r0
 8005676:	460c      	mov	r4, r1
 8005678:	b10a      	cbz	r2, 800567e <_printf_common+0x26>
 800567a:	3301      	adds	r3, #1
 800567c:	6033      	str	r3, [r6, #0]
 800567e:	6823      	ldr	r3, [r4, #0]
 8005680:	0699      	lsls	r1, r3, #26
 8005682:	bf42      	ittt	mi
 8005684:	6833      	ldrmi	r3, [r6, #0]
 8005686:	3302      	addmi	r3, #2
 8005688:	6033      	strmi	r3, [r6, #0]
 800568a:	6825      	ldr	r5, [r4, #0]
 800568c:	f015 0506 	ands.w	r5, r5, #6
 8005690:	d106      	bne.n	80056a0 <_printf_common+0x48>
 8005692:	f104 0a19 	add.w	sl, r4, #25
 8005696:	68e3      	ldr	r3, [r4, #12]
 8005698:	6832      	ldr	r2, [r6, #0]
 800569a:	1a9b      	subs	r3, r3, r2
 800569c:	42ab      	cmp	r3, r5
 800569e:	dc26      	bgt.n	80056ee <_printf_common+0x96>
 80056a0:	f894 2043 	ldrb.w	r2, [r4, #67]	; 0x43
 80056a4:	1e13      	subs	r3, r2, #0
 80056a6:	6822      	ldr	r2, [r4, #0]
 80056a8:	bf18      	it	ne
 80056aa:	2301      	movne	r3, #1
 80056ac:	0692      	lsls	r2, r2, #26
 80056ae:	d42b      	bmi.n	8005708 <_printf_common+0xb0>
 80056b0:	f104 0243 	add.w	r2, r4, #67	; 0x43
 80056b4:	4649      	mov	r1, r9
 80056b6:	4638      	mov	r0, r7
 80056b8:	47c0      	blx	r8
 80056ba:	3001      	adds	r0, #1
 80056bc:	d01e      	beq.n	80056fc <_printf_common+0xa4>
 80056be:	6823      	ldr	r3, [r4, #0]
 80056c0:	68e5      	ldr	r5, [r4, #12]
 80056c2:	6832      	ldr	r2, [r6, #0]
 80056c4:	f003 0306 	and.w	r3, r3, #6
 80056c8:	2b04      	cmp	r3, #4
 80056ca:	bf08      	it	eq
 80056cc:	1aad      	subeq	r5, r5, r2
 80056ce:	68a3      	ldr	r3, [r4, #8]
 80056d0:	6922      	ldr	r2, [r4, #16]
 80056d2:	bf0c      	ite	eq
 80056d4:	ea25 75e5 	biceq.w	r5, r5, r5, asr #31
 80056d8:	2500      	movne	r5, #0
 80056da:	4293      	cmp	r3, r2
 80056dc:	bfc4      	itt	gt
 80056de:	1a9b      	subgt	r3, r3, r2
 80056e0:	18ed      	addgt	r5, r5, r3
 80056e2:	2600      	movs	r6, #0
 80056e4:	341a      	adds	r4, #26
 80056e6:	42b5      	cmp	r5, r6
 80056e8:	d11a      	bne.n	8005720 <_printf_common+0xc8>
 80056ea:	2000      	movs	r0, #0
 80056ec:	e008      	b.n	8005700 <_printf_common+0xa8>
 80056ee:	2301      	movs	r3, #1
 80056f0:	4652      	mov	r2, sl
 80056f2:	4649      	mov	r1, r9
 80056f4:	4638      	mov	r0, r7
 80056f6:	47c0      	blx	r8
 80056f8:	3001      	adds	r0, #1
 80056fa:	d103      	bne.n	8005704 <_printf_common+0xac>
 80056fc:	f04f 30ff 	mov.w	r0, #4294967295
 8005700:	e8bd 87f0 	ldmia.w	sp!, {r4, r5, r6, r7, r8, r9, sl, pc}
 8005704:	3501      	adds	r5, #1
 8005706:	e7c6      	b.n	8005696 <_printf_common+0x3e>
 8005708:	18e1      	adds	r1, r4, r3
 800570a:	1c5a      	adds	r2, r3, #1
 800570c:	2030      	movs	r0, #48	; 0x30
 800570e:	f881 0043 	strb.w	r0, [r1, #67]	; 0x43
 8005712:	4422      	add	r2, r4
 8005714:	f894 1045 	ldrb.w	r1, [r4, #69]	; 0x45
 8005718:	f882 1043 	strb.w	r1, [r2, #67]	; 0x43
 800571c:	3302      	adds	r3, #2
 800571e:	e7c7      	b.n	80056b0 <_printf_common+0x58>
 8005720:	2301      	movs	r3, #1
 8005722:	4622      	mov	r2, r4
 8005724:	4649      	mov	r1, r9
 8005726:	4638      	mov	r0, r7
 8005728:	47c0      	blx	r8
 800572a:	3001      	adds	r0, #1
 800572c:	d0e6      	beq.n	80056fc <_printf_common+0xa4>
 800572e:	3601      	adds	r6, #1
 8005730:	e7d9      	b.n	80056e6 <_printf_common+0x8e>
	...

08005734 <_printf_i>:
 8005734:	e92d 47ff 	stmdb	sp!, {r0, r1, r2, r3, r4, r5, r6, r7, r8, r9, sl, lr}
 8005738:	460c      	mov	r4, r1
 800573a:	4691      	mov	r9, r2
 800573c:	7e27      	ldrb	r7, [r4, #24]
 800573e:	990c      	ldr	r1, [sp, #48]	; 0x30
 8005740:	2f78      	cmp	r7, #120	; 0x78
 8005742:	4680      	mov	r8, r0
 8005744:	469a      	mov	sl, r3
 8005746:	f104 0243 	add.w	r2, r4, #67	; 0x43
 800574a:	d807      	bhi.n	800575c <_printf_i+0x28>
 800574c:	2f62      	cmp	r7, #98	; 0x62
 800574e:	d80a      	bhi.n	8005766 <_printf_i+0x32>
 8005750:	2f00      	cmp	r7, #0
 8005752:	f000 80d8 	beq.w	8005906 <_printf_i+0x1d2>
 8005756:	2f58      	cmp	r7, #88	; 0x58
 8005758:	f000 80a3 	beq.w	80058a2 <_printf_i+0x16e>
 800575c:	f104 0642 	add.w	r6, r4, #66	; 0x42
 8005760:	f884 7042 	strb.w	r7, [r4, #66]	; 0x42
 8005764:	e03a      	b.n	80057dc <_printf_i+0xa8>
 8005766:	f1a7 0363 	sub.w	r3, r7, #99	; 0x63
 800576a:	2b15      	cmp	r3, #21
 800576c:	d8f6      	bhi.n	800575c <_printf_i+0x28>
 800576e:	a001      	add	r0, pc, #4	; (adr r0, 8005774 <_printf_i+0x40>)
 8005770:	f850 f023 	ldr.w	pc, [r0, r3, lsl #2]
 8005774:	080057cd 	.word	0x080057cd
 8005778:	080057e1 	.word	0x080057e1
 800577c:	0800575d 	.word	0x0800575d
 8005780:	0800575d 	.word	0x0800575d
 8005784:	0800575d 	.word	0x0800575d
 8005788:	0800575d 	.word	0x0800575d
 800578c:	080057e1 	.word	0x080057e1
 8005790:	0800575d 	.word	0x0800575d
 8005794:	0800575d 	.word	0x0800575d
 8005798:	0800575d 	.word	0x0800575d
 800579c:	0800575d 	.word	0x0800575d
 80057a0:	080058ed 	.word	0x080058ed
 80057a4:	08005811 	.word	0x08005811
 80057a8:	080058cf 	.word	0x080058cf
 80057ac:	0800575d 	.word	0x0800575d
 80057b0:	0800575d 	.word	0x0800575d
 80057b4:	0800590f 	.word	0x0800590f
 80057b8:	0800575d 	.word	0x0800575d
 80057bc:	08005811 	.word	0x08005811
 80057c0:	0800575d 	.word	0x0800575d
 80057c4:	0800575d 	.word	0x0800575d
 80057c8:	080058d7 	.word	0x080058d7
 80057cc:	680b      	ldr	r3, [r1, #0]
 80057ce:	1d1a      	adds	r2, r3, #4
 80057d0:	681b      	ldr	r3, [r3, #0]
 80057d2:	600a      	str	r2, [r1, #0]
 80057d4:	f104 0642 	add.w	r6, r4, #66	; 0x42
 80057d8:	f884 3042 	strb.w	r3, [r4, #66]	; 0x42
 80057dc:	2301      	movs	r3, #1
 80057de:	e0a3      	b.n	8005928 <_printf_i+0x1f4>
 80057e0:	6825      	ldr	r5, [r4, #0]
 80057e2:	6808      	ldr	r0, [r1, #0]
 80057e4:	062e      	lsls	r6, r5, #24
 80057e6:	f100 0304 	add.w	r3, r0, #4
 80057ea:	d50a      	bpl.n	8005802 <_printf_i+0xce>
 80057ec:	6805      	ldr	r5, [r0, #0]
 80057ee:	600b      	str	r3, [r1, #0]
 80057f0:	2d00      	cmp	r5, #0
 80057f2:	da03      	bge.n	80057fc <_printf_i+0xc8>
 80057f4:	232d      	movs	r3, #45	; 0x2d
 80057f6:	426d      	negs	r5, r5
 80057f8:	f884 3043 	strb.w	r3, [r4, #67]	; 0x43
 80057fc:	485e      	ldr	r0, [pc, #376]	; (8005978 <_printf_i+0x244>)
 80057fe:	230a      	movs	r3, #10
 8005800:	e019      	b.n	8005836 <_printf_i+0x102>
 8005802:	f015 0f40 	tst.w	r5, #64	; 0x40
 8005806:	6805      	ldr	r5, [r0, #0]
 8005808:	600b      	str	r3, [r1, #0]
 800580a:	bf18      	it	ne
 800580c:	b22d      	sxthne	r5, r5
 800580e:	e7ef      	b.n	80057f0 <_printf_i+0xbc>
 8005810:	680b      	ldr	r3, [r1, #0]
 8005812:	6825      	ldr	r5, [r4, #0]
 8005814:	1d18      	adds	r0, r3, #4
 8005816:	6008      	str	r0, [r1, #0]
 8005818:	0628      	lsls	r0, r5, #24
 800581a:	d501      	bpl.n	8005820 <_printf_i+0xec>
 800581c:	681d      	ldr	r5, [r3, #0]
 800581e:	e002      	b.n	8005826 <_printf_i+0xf2>
 8005820:	0669      	lsls	r1, r5, #25
 8005822:	d5fb      	bpl.n	800581c <_printf_i+0xe8>
 8005824:	881d      	ldrh	r5, [r3, #0]
 8005826:	4854      	ldr	r0, [pc, #336]	; (8005978 <_printf_i+0x244>)
 8005828:	2f6f      	cmp	r7, #111	; 0x6f
 800582a:	bf0c      	ite	eq
 800582c:	2308      	moveq	r3, #8
 800582e:	230a      	movne	r3, #10
 8005830:	2100      	movs	r1, #0
 8005832:	f884 1043 	strb.w	r1, [r4, #67]	; 0x43
 8005836:	6866      	ldr	r6, [r4, #4]
 8005838:	60a6      	str	r6, [r4, #8]
 800583a:	2e00      	cmp	r6, #0
 800583c:	bfa2      	ittt	ge
 800583e:	6821      	ldrge	r1, [r4, #0]
 8005840:	f021 0104 	bicge.w	r1, r1, #4
 8005844:	6021      	strge	r1, [r4, #0]
 8005846:	b90d      	cbnz	r5, 800584c <_printf_i+0x118>
 8005848:	2e00      	cmp	r6, #0
 800584a:	d04d      	beq.n	80058e8 <_printf_i+0x1b4>
 800584c:	4616      	mov	r6, r2
 800584e:	fbb5 f1f3 	udiv	r1, r5, r3
 8005852:	fb03 5711 	mls	r7, r3, r1, r5
 8005856:	5dc7      	ldrb	r7, [r0, r7]
 8005858:	f806 7d01 	strb.w	r7, [r6, #-1]!
 800585c:	462f      	mov	r7, r5
 800585e:	42bb      	cmp	r3, r7
 8005860:	460d      	mov	r5, r1
 8005862:	d9f4      	bls.n	800584e <_printf_i+0x11a>
 8005864:	2b08      	cmp	r3, #8
 8005866:	d10b      	bne.n	8005880 <_printf_i+0x14c>
 8005868:	6823      	ldr	r3, [r4, #0]
 800586a:	07df      	lsls	r7, r3, #31
 800586c:	d508      	bpl.n	8005880 <_printf_i+0x14c>
 800586e:	6923      	ldr	r3, [r4, #16]
 8005870:	6861      	ldr	r1, [r4, #4]
 8005872:	4299      	cmp	r1, r3
 8005874:	bfde      	ittt	le
 8005876:	2330      	movle	r3, #48	; 0x30
 8005878:	f806 3c01 	strble.w	r3, [r6, #-1]
 800587c:	f106 36ff 	addle.w	r6, r6, #4294967295
 8005880:	1b92      	subs	r2, r2, r6
 8005882:	6122      	str	r2, [r4, #16]
 8005884:	f8cd a000 	str.w	sl, [sp]
 8005888:	464b      	mov	r3, r9
 800588a:	aa03      	add	r2, sp, #12
 800588c:	4621      	mov	r1, r4
 800588e:	4640      	mov	r0, r8
 8005890:	f7ff fee2 	bl	8005658 <_printf_common>
 8005894:	3001      	adds	r0, #1
 8005896:	d14c      	bne.n	8005932 <_printf_i+0x1fe>
 8005898:	f04f 30ff 	mov.w	r0, #4294967295
 800589c:	b004      	add	sp, #16
 800589e:	e8bd 87f0 	ldmia.w	sp!, {r4, r5, r6, r7, r8, r9, sl, pc}
 80058a2:	4835      	ldr	r0, [pc, #212]	; (8005978 <_printf_i+0x244>)
 80058a4:	f884 7045 	strb.w	r7, [r4, #69]	; 0x45
 80058a8:	6823      	ldr	r3, [r4, #0]
 80058aa:	680e      	ldr	r6, [r1, #0]
 80058ac:	061f      	lsls	r7, r3, #24
 80058ae:	f856 5b04 	ldr.w	r5, [r6], #4
 80058b2:	600e      	str	r6, [r1, #0]
 80058b4:	d514      	bpl.n	80058e0 <_printf_i+0x1ac>
 80058b6:	07d9      	lsls	r1, r3, #31
 80058b8:	bf44      	itt	mi
 80058ba:	f043 0320 	orrmi.w	r3, r3, #32
 80058be:	6023      	strmi	r3, [r4, #0]
 80058c0:	b91d      	cbnz	r5, 80058ca <_printf_i+0x196>
 80058c2:	6823      	ldr	r3, [r4, #0]
 80058c4:	f023 0320 	bic.w	r3, r3, #32
 80058c8:	6023      	str	r3, [r4, #0]
 80058ca:	2310      	movs	r3, #16
 80058cc:	e7b0      	b.n	8005830 <_printf_i+0xfc>
 80058ce:	6823      	ldr	r3, [r4, #0]
 80058d0:	f043 0320 	orr.w	r3, r3, #32
 80058d4:	6023      	str	r3, [r4, #0]
 80058d6:	2378      	movs	r3, #120	; 0x78
 80058d8:	4828      	ldr	r0, [pc, #160]	; (800597c <_printf_i+0x248>)
 80058da:	f884 3045 	strb.w	r3, [r4, #69]	; 0x45
 80058de:	e7e3      	b.n	80058a8 <_printf_i+0x174>
 80058e0:	065e      	lsls	r6, r3, #25
 80058e2:	bf48      	it	mi
 80058e4:	b2ad      	uxthmi	r5, r5
 80058e6:	e7e6      	b.n	80058b6 <_printf_i+0x182>
 80058e8:	4616      	mov	r6, r2
 80058ea:	e7bb      	b.n	8005864 <_printf_i+0x130>
 80058ec:	680b      	ldr	r3, [r1, #0]
 80058ee:	6826      	ldr	r6, [r4, #0]
 80058f0:	6960      	ldr	r0, [r4, #20]
 80058f2:	1d1d      	adds	r5, r3, #4
 80058f4:	600d      	str	r5, [r1, #0]
 80058f6:	0635      	lsls	r5, r6, #24
 80058f8:	681b      	ldr	r3, [r3, #0]
 80058fa:	d501      	bpl.n	8005900 <_printf_i+0x1cc>
 80058fc:	6018      	str	r0, [r3, #0]
 80058fe:	e002      	b.n	8005906 <_printf_i+0x1d2>
 8005900:	0671      	lsls	r1, r6, #25
 8005902:	d5fb      	bpl.n	80058fc <_printf_i+0x1c8>
 8005904:	8018      	strh	r0, [r3, #0]
 8005906:	2300      	movs	r3, #0
 8005908:	6123      	str	r3, [r4, #16]
 800590a:	4616      	mov	r6, r2
 800590c:	e7ba      	b.n	8005884 <_printf_i+0x150>
 800590e:	680b      	ldr	r3, [r1, #0]
 8005910:	1d1a      	adds	r2, r3, #4
 8005912:	600a      	str	r2, [r1, #0]
 8005914:	681e      	ldr	r6, [r3, #0]
 8005916:	6862      	ldr	r2, [r4, #4]
 8005918:	2100      	movs	r1, #0
 800591a:	4630      	mov	r0, r6
 800591c:	f7fa fc60 	bl	80001e0 <memchr>
 8005920:	b108      	cbz	r0, 8005926 <_printf_i+0x1f2>
 8005922:	1b80      	subs	r0, r0, r6
 8005924:	6060      	str	r0, [r4, #4]
 8005926:	6863      	ldr	r3, [r4, #4]
 8005928:	6123      	str	r3, [r4, #16]
 800592a:	2300      	movs	r3, #0
 800592c:	f884 3043 	strb.w	r3, [r4, #67]	; 0x43
 8005930:	e7a8      	b.n	8005884 <_printf_i+0x150>
 8005932:	6923      	ldr	r3, [r4, #16]
 8005934:	4632      	mov	r2, r6
 8005936:	4649      	mov	r1, r9
 8005938:	4640      	mov	r0, r8
 800593a:	47d0      	blx	sl
 800593c:	3001      	adds	r0, #1
 800593e:	d0ab      	beq.n	8005898 <_printf_i+0x164>
 8005940:	6823      	ldr	r3, [r4, #0]
 8005942:	079b      	lsls	r3, r3, #30
 8005944:	d413      	bmi.n	800596e <_printf_i+0x23a>
 8005946:	68e0      	ldr	r0, [r4, #12]
 8005948:	9b03      	ldr	r3, [sp, #12]
 800594a:	4298      	cmp	r0, r3
 800594c:	bfb8      	it	lt
 800594e:	4618      	movlt	r0, r3
 8005950:	e7a4      	b.n	800589c <_printf_i+0x168>
 8005952:	2301      	movs	r3, #1
 8005954:	4632      	mov	r2, r6
 8005956:	4649      	mov	r1, r9
 8005958:	4640      	mov	r0, r8
 800595a:	47d0      	blx	sl
 800595c:	3001      	adds	r0, #1
 800595e:	d09b      	beq.n	8005898 <_printf_i+0x164>
 8005960:	3501      	adds	r5, #1
 8005962:	68e3      	ldr	r3, [r4, #12]
 8005964:	9903      	ldr	r1, [sp, #12]
 8005966:	1a5b      	subs	r3, r3, r1
 8005968:	42ab      	cmp	r3, r5
 800596a:	dcf2      	bgt.n	8005952 <_printf_i+0x21e>
 800596c:	e7eb      	b.n	8005946 <_printf_i+0x212>
 800596e:	2500      	movs	r5, #0
 8005970:	f104 0619 	add.w	r6, r4, #25
 8005974:	e7f5      	b.n	8005962 <_printf_i+0x22e>
 8005976:	bf00      	nop
 8005978:	08006339 	.word	0x08006339
 800597c:	0800634a 	.word	0x0800634a

08005980 <_sbrk_r>:
 8005980:	b538      	push	{r3, r4, r5, lr}
 8005982:	4d06      	ldr	r5, [pc, #24]	; (800599c <_sbrk_r+0x1c>)
 8005984:	2300      	movs	r3, #0
 8005986:	4604      	mov	r4, r0
 8005988:	4608      	mov	r0, r1
 800598a:	602b      	str	r3, [r5, #0]
 800598c:	f7fb f9be 	bl	8000d0c <_sbrk>
 8005990:	1c43      	adds	r3, r0, #1
 8005992:	d102      	bne.n	800599a <_sbrk_r+0x1a>
 8005994:	682b      	ldr	r3, [r5, #0]
 8005996:	b103      	cbz	r3, 800599a <_sbrk_r+0x1a>
 8005998:	6023      	str	r3, [r4, #0]
 800599a:	bd38      	pop	{r3, r4, r5, pc}
 800599c:	2001307c 	.word	0x2001307c

080059a0 <__swbuf_r>:
 80059a0:	b5f8      	push	{r3, r4, r5, r6, r7, lr}
 80059a2:	460e      	mov	r6, r1
 80059a4:	4614      	mov	r4, r2
 80059a6:	4605      	mov	r5, r0
 80059a8:	b118      	cbz	r0, 80059b2 <__swbuf_r+0x12>
 80059aa:	6983      	ldr	r3, [r0, #24]
 80059ac:	b90b      	cbnz	r3, 80059b2 <__swbuf_r+0x12>
 80059ae:	f000 f9d9 	bl	8005d64 <__sinit>
 80059b2:	4b21      	ldr	r3, [pc, #132]	; (8005a38 <__swbuf_r+0x98>)
 80059b4:	429c      	cmp	r4, r3
 80059b6:	d12b      	bne.n	8005a10 <__swbuf_r+0x70>
 80059b8:	686c      	ldr	r4, [r5, #4]
 80059ba:	69a3      	ldr	r3, [r4, #24]
 80059bc:	60a3      	str	r3, [r4, #8]
 80059be:	89a3      	ldrh	r3, [r4, #12]
 80059c0:	071a      	lsls	r2, r3, #28
 80059c2:	d52f      	bpl.n	8005a24 <__swbuf_r+0x84>
 80059c4:	6923      	ldr	r3, [r4, #16]
 80059c6:	b36b      	cbz	r3, 8005a24 <__swbuf_r+0x84>
 80059c8:	6923      	ldr	r3, [r4, #16]
 80059ca:	6820      	ldr	r0, [r4, #0]
 80059cc:	1ac0      	subs	r0, r0, r3
 80059ce:	6963      	ldr	r3, [r4, #20]
 80059d0:	b2f6      	uxtb	r6, r6
 80059d2:	4283      	cmp	r3, r0
 80059d4:	4637      	mov	r7, r6
 80059d6:	dc04      	bgt.n	80059e2 <__swbuf_r+0x42>
 80059d8:	4621      	mov	r1, r4
 80059da:	4628      	mov	r0, r5
 80059dc:	f000 f92e 	bl	8005c3c <_fflush_r>
 80059e0:	bb30      	cbnz	r0, 8005a30 <__swbuf_r+0x90>
 80059e2:	68a3      	ldr	r3, [r4, #8]
 80059e4:	3b01      	subs	r3, #1
 80059e6:	60a3      	str	r3, [r4, #8]
 80059e8:	6823      	ldr	r3, [r4, #0]
 80059ea:	1c5a      	adds	r2, r3, #1
 80059ec:	6022      	str	r2, [r4, #0]
 80059ee:	701e      	strb	r6, [r3, #0]
 80059f0:	6963      	ldr	r3, [r4, #20]
 80059f2:	3001      	adds	r0, #1
 80059f4:	4283      	cmp	r3, r0
 80059f6:	d004      	beq.n	8005a02 <__swbuf_r+0x62>
 80059f8:	89a3      	ldrh	r3, [r4, #12]
 80059fa:	07db      	lsls	r3, r3, #31
 80059fc:	d506      	bpl.n	8005a0c <__swbuf_r+0x6c>
 80059fe:	2e0a      	cmp	r6, #10
 8005a00:	d104      	bne.n	8005a0c <__swbuf_r+0x6c>
 8005a02:	4621      	mov	r1, r4
 8005a04:	4628      	mov	r0, r5
 8005a06:	f000 f919 	bl	8005c3c <_fflush_r>
 8005a0a:	b988      	cbnz	r0, 8005a30 <__swbuf_r+0x90>
 8005a0c:	4638      	mov	r0, r7
 8005a0e:	bdf8      	pop	{r3, r4, r5, r6, r7, pc}
 8005a10:	4b0a      	ldr	r3, [pc, #40]	; (8005a3c <__swbuf_r+0x9c>)
 8005a12:	429c      	cmp	r4, r3
 8005a14:	d101      	bne.n	8005a1a <__swbuf_r+0x7a>
 8005a16:	68ac      	ldr	r4, [r5, #8]
 8005a18:	e7cf      	b.n	80059ba <__swbuf_r+0x1a>
 8005a1a:	4b09      	ldr	r3, [pc, #36]	; (8005a40 <__swbuf_r+0xa0>)
 8005a1c:	429c      	cmp	r4, r3
 8005a1e:	bf08      	it	eq
 8005a20:	68ec      	ldreq	r4, [r5, #12]
 8005a22:	e7ca      	b.n	80059ba <__swbuf_r+0x1a>
 8005a24:	4621      	mov	r1, r4
 8005a26:	4628      	mov	r0, r5
 8005a28:	f000 f80c 	bl	8005a44 <__swsetup_r>
 8005a2c:	2800      	cmp	r0, #0
 8005a2e:	d0cb      	beq.n	80059c8 <__swbuf_r+0x28>
 8005a30:	f04f 37ff 	mov.w	r7, #4294967295
 8005a34:	e7ea      	b.n	8005a0c <__swbuf_r+0x6c>
 8005a36:	bf00      	nop
 8005a38:	0800637c 	.word	0x0800637c
 8005a3c:	0800639c 	.word	0x0800639c
 8005a40:	0800635c 	.word	0x0800635c

08005a44 <__swsetup_r>:
 8005a44:	4b32      	ldr	r3, [pc, #200]	; (8005b10 <__swsetup_r+0xcc>)
 8005a46:	b570      	push	{r4, r5, r6, lr}
 8005a48:	681d      	ldr	r5, [r3, #0]
 8005a4a:	4606      	mov	r6, r0
 8005a4c:	460c      	mov	r4, r1
 8005a4e:	b125      	cbz	r5, 8005a5a <__swsetup_r+0x16>
 8005a50:	69ab      	ldr	r3, [r5, #24]
 8005a52:	b913      	cbnz	r3, 8005a5a <__swsetup_r+0x16>
 8005a54:	4628      	mov	r0, r5
 8005a56:	f000 f985 	bl	8005d64 <__sinit>
 8005a5a:	4b2e      	ldr	r3, [pc, #184]	; (8005b14 <__swsetup_r+0xd0>)
 8005a5c:	429c      	cmp	r4, r3
 8005a5e:	d10f      	bne.n	8005a80 <__swsetup_r+0x3c>
 8005a60:	686c      	ldr	r4, [r5, #4]
 8005a62:	89a3      	ldrh	r3, [r4, #12]
 8005a64:	f9b4 200c 	ldrsh.w	r2, [r4, #12]
 8005a68:	0719      	lsls	r1, r3, #28
 8005a6a:	d42c      	bmi.n	8005ac6 <__swsetup_r+0x82>
 8005a6c:	06dd      	lsls	r5, r3, #27
 8005a6e:	d411      	bmi.n	8005a94 <__swsetup_r+0x50>
 8005a70:	2309      	movs	r3, #9
 8005a72:	6033      	str	r3, [r6, #0]
 8005a74:	f042 0340 	orr.w	r3, r2, #64	; 0x40
 8005a78:	81a3      	strh	r3, [r4, #12]
 8005a7a:	f04f 30ff 	mov.w	r0, #4294967295
 8005a7e:	e03e      	b.n	8005afe <__swsetup_r+0xba>
 8005a80:	4b25      	ldr	r3, [pc, #148]	; (8005b18 <__swsetup_r+0xd4>)
 8005a82:	429c      	cmp	r4, r3
 8005a84:	d101      	bne.n	8005a8a <__swsetup_r+0x46>
 8005a86:	68ac      	ldr	r4, [r5, #8]
 8005a88:	e7eb      	b.n	8005a62 <__swsetup_r+0x1e>
 8005a8a:	4b24      	ldr	r3, [pc, #144]	; (8005b1c <__swsetup_r+0xd8>)
 8005a8c:	429c      	cmp	r4, r3
 8005a8e:	bf08      	it	eq
 8005a90:	68ec      	ldreq	r4, [r5, #12]
 8005a92:	e7e6      	b.n	8005a62 <__swsetup_r+0x1e>
 8005a94:	0758      	lsls	r0, r3, #29
 8005a96:	d512      	bpl.n	8005abe <__swsetup_r+0x7a>
 8005a98:	6b61      	ldr	r1, [r4, #52]	; 0x34
 8005a9a:	b141      	cbz	r1, 8005aae <__swsetup_r+0x6a>
 8005a9c:	f104 0344 	add.w	r3, r4, #68	; 0x44
 8005aa0:	4299      	cmp	r1, r3
 8005aa2:	d002      	beq.n	8005aaa <__swsetup_r+0x66>
 8005aa4:	4630      	mov	r0, r6
 8005aa6:	f7ff fa77 	bl	8004f98 <_free_r>
 8005aaa:	2300      	movs	r3, #0
 8005aac:	6363      	str	r3, [r4, #52]	; 0x34
 8005aae:	89a3      	ldrh	r3, [r4, #12]
 8005ab0:	f023 0324 	bic.w	r3, r3, #36	; 0x24
 8005ab4:	81a3      	strh	r3, [r4, #12]
 8005ab6:	2300      	movs	r3, #0
 8005ab8:	6063      	str	r3, [r4, #4]
 8005aba:	6923      	ldr	r3, [r4, #16]
 8005abc:	6023      	str	r3, [r4, #0]
 8005abe:	89a3      	ldrh	r3, [r4, #12]
 8005ac0:	f043 0308 	orr.w	r3, r3, #8
 8005ac4:	81a3      	strh	r3, [r4, #12]
 8005ac6:	6923      	ldr	r3, [r4, #16]
 8005ac8:	b94b      	cbnz	r3, 8005ade <__swsetup_r+0x9a>
 8005aca:	89a3      	ldrh	r3, [r4, #12]
 8005acc:	f403 7320 	and.w	r3, r3, #640	; 0x280
 8005ad0:	f5b3 7f00 	cmp.w	r3, #512	; 0x200
 8005ad4:	d003      	beq.n	8005ade <__swsetup_r+0x9a>
 8005ad6:	4621      	mov	r1, r4
 8005ad8:	4630      	mov	r0, r6
 8005ada:	f000 fa07 	bl	8005eec <__smakebuf_r>
 8005ade:	89a0      	ldrh	r0, [r4, #12]
 8005ae0:	f9b4 200c 	ldrsh.w	r2, [r4, #12]
 8005ae4:	f010 0301 	ands.w	r3, r0, #1
 8005ae8:	d00a      	beq.n	8005b00 <__swsetup_r+0xbc>
 8005aea:	2300      	movs	r3, #0
 8005aec:	60a3      	str	r3, [r4, #8]
 8005aee:	6963      	ldr	r3, [r4, #20]
 8005af0:	425b      	negs	r3, r3
 8005af2:	61a3      	str	r3, [r4, #24]
 8005af4:	6923      	ldr	r3, [r4, #16]
 8005af6:	b943      	cbnz	r3, 8005b0a <__swsetup_r+0xc6>
 8005af8:	f010 0080 	ands.w	r0, r0, #128	; 0x80
 8005afc:	d1ba      	bne.n	8005a74 <__swsetup_r+0x30>
 8005afe:	bd70      	pop	{r4, r5, r6, pc}
 8005b00:	0781      	lsls	r1, r0, #30
 8005b02:	bf58      	it	pl
 8005b04:	6963      	ldrpl	r3, [r4, #20]
 8005b06:	60a3      	str	r3, [r4, #8]
 8005b08:	e7f4      	b.n	8005af4 <__swsetup_r+0xb0>
 8005b0a:	2000      	movs	r0, #0
 8005b0c:	e7f7      	b.n	8005afe <__swsetup_r+0xba>
 8005b0e:	bf00      	nop
 8005b10:	2000002c 	.word	0x2000002c
 8005b14:	0800637c 	.word	0x0800637c
 8005b18:	0800639c 	.word	0x0800639c
 8005b1c:	0800635c 	.word	0x0800635c

08005b20 <abort>:
 8005b20:	b508      	push	{r3, lr}
 8005b22:	2006      	movs	r0, #6
 8005b24:	f000 faa4 	bl	8006070 <raise>
 8005b28:	2001      	movs	r0, #1
 8005b2a:	f7fb f877 	bl	8000c1c <_exit>
	...

08005b30 <__sflush_r>:
 8005b30:	898a      	ldrh	r2, [r1, #12]
 8005b32:	e92d 41f0 	stmdb	sp!, {r4, r5, r6, r7, r8, lr}
 8005b36:	4605      	mov	r5, r0
 8005b38:	0710      	lsls	r0, r2, #28
 8005b3a:	460c      	mov	r4, r1
 8005b3c:	d458      	bmi.n	8005bf0 <__sflush_r+0xc0>
 8005b3e:	684b      	ldr	r3, [r1, #4]
 8005b40:	2b00      	cmp	r3, #0
 8005b42:	dc05      	bgt.n	8005b50 <__sflush_r+0x20>
 8005b44:	6c0b      	ldr	r3, [r1, #64]	; 0x40
 8005b46:	2b00      	cmp	r3, #0
 8005b48:	dc02      	bgt.n	8005b50 <__sflush_r+0x20>
 8005b4a:	2000      	movs	r0, #0
 8005b4c:	e8bd 81f0 	ldmia.w	sp!, {r4, r5, r6, r7, r8, pc}
 8005b50:	6ae6      	ldr	r6, [r4, #44]	; 0x2c
 8005b52:	2e00      	cmp	r6, #0
 8005b54:	d0f9      	beq.n	8005b4a <__sflush_r+0x1a>
 8005b56:	2300      	movs	r3, #0
 8005b58:	f412 5280 	ands.w	r2, r2, #4096	; 0x1000
 8005b5c:	682f      	ldr	r7, [r5, #0]
 8005b5e:	602b      	str	r3, [r5, #0]
 8005b60:	d032      	beq.n	8005bc8 <__sflush_r+0x98>
 8005b62:	6d60      	ldr	r0, [r4, #84]	; 0x54
 8005b64:	89a3      	ldrh	r3, [r4, #12]
 8005b66:	075a      	lsls	r2, r3, #29
 8005b68:	d505      	bpl.n	8005b76 <__sflush_r+0x46>
 8005b6a:	6863      	ldr	r3, [r4, #4]
 8005b6c:	1ac0      	subs	r0, r0, r3
 8005b6e:	6b63      	ldr	r3, [r4, #52]	; 0x34
 8005b70:	b10b      	cbz	r3, 8005b76 <__sflush_r+0x46>
 8005b72:	6c23      	ldr	r3, [r4, #64]	; 0x40
 8005b74:	1ac0      	subs	r0, r0, r3
 8005b76:	2300      	movs	r3, #0
 8005b78:	4602      	mov	r2, r0
 8005b7a:	6ae6      	ldr	r6, [r4, #44]	; 0x2c
 8005b7c:	6a21      	ldr	r1, [r4, #32]
 8005b7e:	4628      	mov	r0, r5
 8005b80:	47b0      	blx	r6
 8005b82:	1c43      	adds	r3, r0, #1
 8005b84:	89a3      	ldrh	r3, [r4, #12]
 8005b86:	d106      	bne.n	8005b96 <__sflush_r+0x66>
 8005b88:	6829      	ldr	r1, [r5, #0]
 8005b8a:	291d      	cmp	r1, #29
 8005b8c:	d82c      	bhi.n	8005be8 <__sflush_r+0xb8>
 8005b8e:	4a2a      	ldr	r2, [pc, #168]	; (8005c38 <__sflush_r+0x108>)
 8005b90:	40ca      	lsrs	r2, r1
 8005b92:	07d6      	lsls	r6, r2, #31
 8005b94:	d528      	bpl.n	8005be8 <__sflush_r+0xb8>
 8005b96:	2200      	movs	r2, #0
 8005b98:	6062      	str	r2, [r4, #4]
 8005b9a:	04d9      	lsls	r1, r3, #19
 8005b9c:	6922      	ldr	r2, [r4, #16]
 8005b9e:	6022      	str	r2, [r4, #0]
 8005ba0:	d504      	bpl.n	8005bac <__sflush_r+0x7c>
 8005ba2:	1c42      	adds	r2, r0, #1
 8005ba4:	d101      	bne.n	8005baa <__sflush_r+0x7a>
 8005ba6:	682b      	ldr	r3, [r5, #0]
 8005ba8:	b903      	cbnz	r3, 8005bac <__sflush_r+0x7c>
 8005baa:	6560      	str	r0, [r4, #84]	; 0x54
 8005bac:	6b61      	ldr	r1, [r4, #52]	; 0x34
 8005bae:	602f      	str	r7, [r5, #0]
 8005bb0:	2900      	cmp	r1, #0
 8005bb2:	d0ca      	beq.n	8005b4a <__sflush_r+0x1a>
 8005bb4:	f104 0344 	add.w	r3, r4, #68	; 0x44
 8005bb8:	4299      	cmp	r1, r3
 8005bba:	d002      	beq.n	8005bc2 <__sflush_r+0x92>
 8005bbc:	4628      	mov	r0, r5
 8005bbe:	f7ff f9eb 	bl	8004f98 <_free_r>
 8005bc2:	2000      	movs	r0, #0
 8005bc4:	6360      	str	r0, [r4, #52]	; 0x34
 8005bc6:	e7c1      	b.n	8005b4c <__sflush_r+0x1c>
 8005bc8:	6a21      	ldr	r1, [r4, #32]
 8005bca:	2301      	movs	r3, #1
 8005bcc:	4628      	mov	r0, r5
 8005bce:	47b0      	blx	r6
 8005bd0:	1c41      	adds	r1, r0, #1
 8005bd2:	d1c7      	bne.n	8005b64 <__sflush_r+0x34>
 8005bd4:	682b      	ldr	r3, [r5, #0]
 8005bd6:	2b00      	cmp	r3, #0
 8005bd8:	d0c4      	beq.n	8005b64 <__sflush_r+0x34>
 8005bda:	2b1d      	cmp	r3, #29
 8005bdc:	d001      	beq.n	8005be2 <__sflush_r+0xb2>
 8005bde:	2b16      	cmp	r3, #22
 8005be0:	d101      	bne.n	8005be6 <__sflush_r+0xb6>
 8005be2:	602f      	str	r7, [r5, #0]
 8005be4:	e7b1      	b.n	8005b4a <__sflush_r+0x1a>
 8005be6:	89a3      	ldrh	r3, [r4, #12]
 8005be8:	f043 0340 	orr.w	r3, r3, #64	; 0x40
 8005bec:	81a3      	strh	r3, [r4, #12]
 8005bee:	e7ad      	b.n	8005b4c <__sflush_r+0x1c>
 8005bf0:	690f      	ldr	r7, [r1, #16]
 8005bf2:	2f00      	cmp	r7, #0
 8005bf4:	d0a9      	beq.n	8005b4a <__sflush_r+0x1a>
 8005bf6:	0793      	lsls	r3, r2, #30
 8005bf8:	680e      	ldr	r6, [r1, #0]
 8005bfa:	bf08      	it	eq
 8005bfc:	694b      	ldreq	r3, [r1, #20]
 8005bfe:	600f      	str	r7, [r1, #0]
 8005c00:	bf18      	it	ne
 8005c02:	2300      	movne	r3, #0
 8005c04:	eba6 0807 	sub.w	r8, r6, r7
 8005c08:	608b      	str	r3, [r1, #8]
 8005c0a:	f1b8 0f00 	cmp.w	r8, #0
 8005c0e:	dd9c      	ble.n	8005b4a <__sflush_r+0x1a>
 8005c10:	6a21      	ldr	r1, [r4, #32]
 8005c12:	6aa6      	ldr	r6, [r4, #40]	; 0x28
 8005c14:	4643      	mov	r3, r8
 8005c16:	463a      	mov	r2, r7
 8005c18:	4628      	mov	r0, r5
 8005c1a:	47b0      	blx	r6
 8005c1c:	2800      	cmp	r0, #0
 8005c1e:	dc06      	bgt.n	8005c2e <__sflush_r+0xfe>
 8005c20:	89a3      	ldrh	r3, [r4, #12]
 8005c22:	f043 0340 	orr.w	r3, r3, #64	; 0x40
 8005c26:	81a3      	strh	r3, [r4, #12]
 8005c28:	f04f 30ff 	mov.w	r0, #4294967295
 8005c2c:	e78e      	b.n	8005b4c <__sflush_r+0x1c>
 8005c2e:	4407      	add	r7, r0
 8005c30:	eba8 0800 	sub.w	r8, r8, r0
 8005c34:	e7e9      	b.n	8005c0a <__sflush_r+0xda>
 8005c36:	bf00      	nop
 8005c38:	20400001 	.word	0x20400001

08005c3c <_fflush_r>:
 8005c3c:	b538      	push	{r3, r4, r5, lr}
 8005c3e:	690b      	ldr	r3, [r1, #16]
 8005c40:	4605      	mov	r5, r0
 8005c42:	460c      	mov	r4, r1
 8005c44:	b913      	cbnz	r3, 8005c4c <_fflush_r+0x10>
 8005c46:	2500      	movs	r5, #0
 8005c48:	4628      	mov	r0, r5
 8005c4a:	bd38      	pop	{r3, r4, r5, pc}
 8005c4c:	b118      	cbz	r0, 8005c56 <_fflush_r+0x1a>
 8005c4e:	6983      	ldr	r3, [r0, #24]
 8005c50:	b90b      	cbnz	r3, 8005c56 <_fflush_r+0x1a>
 8005c52:	f000 f887 	bl	8005d64 <__sinit>
 8005c56:	4b14      	ldr	r3, [pc, #80]	; (8005ca8 <_fflush_r+0x6c>)
 8005c58:	429c      	cmp	r4, r3
 8005c5a:	d11b      	bne.n	8005c94 <_fflush_r+0x58>
 8005c5c:	686c      	ldr	r4, [r5, #4]
 8005c5e:	f9b4 300c 	ldrsh.w	r3, [r4, #12]
 8005c62:	2b00      	cmp	r3, #0
 8005c64:	d0ef      	beq.n	8005c46 <_fflush_r+0xa>
 8005c66:	6e62      	ldr	r2, [r4, #100]	; 0x64
 8005c68:	07d0      	lsls	r0, r2, #31
 8005c6a:	d404      	bmi.n	8005c76 <_fflush_r+0x3a>
 8005c6c:	0599      	lsls	r1, r3, #22
 8005c6e:	d402      	bmi.n	8005c76 <_fflush_r+0x3a>
 8005c70:	6da0      	ldr	r0, [r4, #88]	; 0x58
 8005c72:	f000 f915 	bl	8005ea0 <__retarget_lock_acquire_recursive>
 8005c76:	4628      	mov	r0, r5
 8005c78:	4621      	mov	r1, r4
 8005c7a:	f7ff ff59 	bl	8005b30 <__sflush_r>
 8005c7e:	6e63      	ldr	r3, [r4, #100]	; 0x64
 8005c80:	07da      	lsls	r2, r3, #31
 8005c82:	4605      	mov	r5, r0
 8005c84:	d4e0      	bmi.n	8005c48 <_fflush_r+0xc>
 8005c86:	89a3      	ldrh	r3, [r4, #12]
 8005c88:	059b      	lsls	r3, r3, #22
 8005c8a:	d4dd      	bmi.n	8005c48 <_fflush_r+0xc>
 8005c8c:	6da0      	ldr	r0, [r4, #88]	; 0x58
 8005c8e:	f000 f908 	bl	8005ea2 <__retarget_lock_release_recursive>
 8005c92:	e7d9      	b.n	8005c48 <_fflush_r+0xc>
 8005c94:	4b05      	ldr	r3, [pc, #20]	; (8005cac <_fflush_r+0x70>)
 8005c96:	429c      	cmp	r4, r3
 8005c98:	d101      	bne.n	8005c9e <_fflush_r+0x62>
 8005c9a:	68ac      	ldr	r4, [r5, #8]
 8005c9c:	e7df      	b.n	8005c5e <_fflush_r+0x22>
 8005c9e:	4b04      	ldr	r3, [pc, #16]	; (8005cb0 <_fflush_r+0x74>)
 8005ca0:	429c      	cmp	r4, r3
 8005ca2:	bf08      	it	eq
 8005ca4:	68ec      	ldreq	r4, [r5, #12]
 8005ca6:	e7da      	b.n	8005c5e <_fflush_r+0x22>
 8005ca8:	0800637c 	.word	0x0800637c
 8005cac:	0800639c 	.word	0x0800639c
 8005cb0:	0800635c 	.word	0x0800635c

08005cb4 <std>:
 8005cb4:	2300      	movs	r3, #0
 8005cb6:	b510      	push	{r4, lr}
 8005cb8:	4604      	mov	r4, r0
 8005cba:	e9c0 3300 	strd	r3, r3, [r0]
 8005cbe:	e9c0 3304 	strd	r3, r3, [r0, #16]
 8005cc2:	6083      	str	r3, [r0, #8]
 8005cc4:	8181      	strh	r1, [r0, #12]
 8005cc6:	6643      	str	r3, [r0, #100]	; 0x64
 8005cc8:	81c2      	strh	r2, [r0, #14]
 8005cca:	6183      	str	r3, [r0, #24]
 8005ccc:	4619      	mov	r1, r3
 8005cce:	2208      	movs	r2, #8
 8005cd0:	305c      	adds	r0, #92	; 0x5c
 8005cd2:	f7ff f8a5 	bl	8004e20 <memset>
 8005cd6:	4b05      	ldr	r3, [pc, #20]	; (8005cec <std+0x38>)
 8005cd8:	6263      	str	r3, [r4, #36]	; 0x24
 8005cda:	4b05      	ldr	r3, [pc, #20]	; (8005cf0 <std+0x3c>)
 8005cdc:	62a3      	str	r3, [r4, #40]	; 0x28
 8005cde:	4b05      	ldr	r3, [pc, #20]	; (8005cf4 <std+0x40>)
 8005ce0:	62e3      	str	r3, [r4, #44]	; 0x2c
 8005ce2:	4b05      	ldr	r3, [pc, #20]	; (8005cf8 <std+0x44>)
 8005ce4:	6224      	str	r4, [r4, #32]
 8005ce6:	6323      	str	r3, [r4, #48]	; 0x30
 8005ce8:	bd10      	pop	{r4, pc}
 8005cea:	bf00      	nop
 8005cec:	080060a9 	.word	0x080060a9
 8005cf0:	080060cb 	.word	0x080060cb
 8005cf4:	08006103 	.word	0x08006103
 8005cf8:	08006127 	.word	0x08006127

08005cfc <_cleanup_r>:
 8005cfc:	4901      	ldr	r1, [pc, #4]	; (8005d04 <_cleanup_r+0x8>)
 8005cfe:	f000 b8af 	b.w	8005e60 <_fwalk_reent>
 8005d02:	bf00      	nop
 8005d04:	08005c3d 	.word	0x08005c3d

08005d08 <__sfmoreglue>:
 8005d08:	b570      	push	{r4, r5, r6, lr}
 8005d0a:	1e4a      	subs	r2, r1, #1
 8005d0c:	2568      	movs	r5, #104	; 0x68
 8005d0e:	4355      	muls	r5, r2
 8005d10:	460e      	mov	r6, r1
 8005d12:	f105 0174 	add.w	r1, r5, #116	; 0x74
 8005d16:	f7ff f98f 	bl	8005038 <_malloc_r>
 8005d1a:	4604      	mov	r4, r0
 8005d1c:	b140      	cbz	r0, 8005d30 <__sfmoreglue+0x28>
 8005d1e:	2100      	movs	r1, #0
 8005d20:	e9c0 1600 	strd	r1, r6, [r0]
 8005d24:	300c      	adds	r0, #12
 8005d26:	60a0      	str	r0, [r4, #8]
 8005d28:	f105 0268 	add.w	r2, r5, #104	; 0x68
 8005d2c:	f7ff f878 	bl	8004e20 <memset>
 8005d30:	4620      	mov	r0, r4
 8005d32:	bd70      	pop	{r4, r5, r6, pc}

08005d34 <__sfp_lock_acquire>:
 8005d34:	4801      	ldr	r0, [pc, #4]	; (8005d3c <__sfp_lock_acquire+0x8>)
 8005d36:	f000 b8b3 	b.w	8005ea0 <__retarget_lock_acquire_recursive>
 8005d3a:	bf00      	nop
 8005d3c:	20013078 	.word	0x20013078

08005d40 <__sfp_lock_release>:
 8005d40:	4801      	ldr	r0, [pc, #4]	; (8005d48 <__sfp_lock_release+0x8>)
 8005d42:	f000 b8ae 	b.w	8005ea2 <__retarget_lock_release_recursive>
 8005d46:	bf00      	nop
 8005d48:	20013078 	.word	0x20013078

08005d4c <__sinit_lock_acquire>:
 8005d4c:	4801      	ldr	r0, [pc, #4]	; (8005d54 <__sinit_lock_acquire+0x8>)
 8005d4e:	f000 b8a7 	b.w	8005ea0 <__retarget_lock_acquire_recursive>
 8005d52:	bf00      	nop
 8005d54:	20013073 	.word	0x20013073

08005d58 <__sinit_lock_release>:
 8005d58:	4801      	ldr	r0, [pc, #4]	; (8005d60 <__sinit_lock_release+0x8>)
 8005d5a:	f000 b8a2 	b.w	8005ea2 <__retarget_lock_release_recursive>
 8005d5e:	bf00      	nop
 8005d60:	20013073 	.word	0x20013073

08005d64 <__sinit>:
 8005d64:	b510      	push	{r4, lr}
 8005d66:	4604      	mov	r4, r0
 8005d68:	f7ff fff0 	bl	8005d4c <__sinit_lock_acquire>
 8005d6c:	69a3      	ldr	r3, [r4, #24]
 8005d6e:	b11b      	cbz	r3, 8005d78 <__sinit+0x14>
 8005d70:	e8bd 4010 	ldmia.w	sp!, {r4, lr}
 8005d74:	f7ff bff0 	b.w	8005d58 <__sinit_lock_release>
 8005d78:	e9c4 3312 	strd	r3, r3, [r4, #72]	; 0x48
 8005d7c:	6523      	str	r3, [r4, #80]	; 0x50
 8005d7e:	4b13      	ldr	r3, [pc, #76]	; (8005dcc <__sinit+0x68>)
 8005d80:	4a13      	ldr	r2, [pc, #76]	; (8005dd0 <__sinit+0x6c>)
 8005d82:	681b      	ldr	r3, [r3, #0]
 8005d84:	62a2      	str	r2, [r4, #40]	; 0x28
 8005d86:	42a3      	cmp	r3, r4
 8005d88:	bf04      	itt	eq
 8005d8a:	2301      	moveq	r3, #1
 8005d8c:	61a3      	streq	r3, [r4, #24]
 8005d8e:	4620      	mov	r0, r4
 8005d90:	f000 f820 	bl	8005dd4 <__sfp>
 8005d94:	6060      	str	r0, [r4, #4]
 8005d96:	4620      	mov	r0, r4
 8005d98:	f000 f81c 	bl	8005dd4 <__sfp>
 8005d9c:	60a0      	str	r0, [r4, #8]
 8005d9e:	4620      	mov	r0, r4
 8005da0:	f000 f818 	bl	8005dd4 <__sfp>
 8005da4:	2200      	movs	r2, #0
 8005da6:	60e0      	str	r0, [r4, #12]
 8005da8:	2104      	movs	r1, #4
 8005daa:	6860      	ldr	r0, [r4, #4]
 8005dac:	f7ff ff82 	bl	8005cb4 <std>
 8005db0:	68a0      	ldr	r0, [r4, #8]
 8005db2:	2201      	movs	r2, #1
 8005db4:	2109      	movs	r1, #9
 8005db6:	f7ff ff7d 	bl	8005cb4 <std>
 8005dba:	68e0      	ldr	r0, [r4, #12]
 8005dbc:	2202      	movs	r2, #2
 8005dbe:	2112      	movs	r1, #18
 8005dc0:	f7ff ff78 	bl	8005cb4 <std>
 8005dc4:	2301      	movs	r3, #1
 8005dc6:	61a3      	str	r3, [r4, #24]
 8005dc8:	e7d2      	b.n	8005d70 <__sinit+0xc>
 8005dca:	bf00      	nop
 8005dcc:	08006270 	.word	0x08006270
 8005dd0:	08005cfd 	.word	0x08005cfd

08005dd4 <__sfp>:
 8005dd4:	b5f8      	push	{r3, r4, r5, r6, r7, lr}
 8005dd6:	4607      	mov	r7, r0
 8005dd8:	f7ff ffac 	bl	8005d34 <__sfp_lock_acquire>
 8005ddc:	4b1e      	ldr	r3, [pc, #120]	; (8005e58 <__sfp+0x84>)
 8005dde:	681e      	ldr	r6, [r3, #0]
 8005de0:	69b3      	ldr	r3, [r6, #24]
 8005de2:	b913      	cbnz	r3, 8005dea <__sfp+0x16>
 8005de4:	4630      	mov	r0, r6
 8005de6:	f7ff ffbd 	bl	8005d64 <__sinit>
 8005dea:	3648      	adds	r6, #72	; 0x48
 8005dec:	e9d6 3401 	ldrd	r3, r4, [r6, #4]
 8005df0:	3b01      	subs	r3, #1
 8005df2:	d503      	bpl.n	8005dfc <__sfp+0x28>
 8005df4:	6833      	ldr	r3, [r6, #0]
 8005df6:	b30b      	cbz	r3, 8005e3c <__sfp+0x68>
 8005df8:	6836      	ldr	r6, [r6, #0]
 8005dfa:	e7f7      	b.n	8005dec <__sfp+0x18>
 8005dfc:	f9b4 500c 	ldrsh.w	r5, [r4, #12]
 8005e00:	b9d5      	cbnz	r5, 8005e38 <__sfp+0x64>
 8005e02:	4b16      	ldr	r3, [pc, #88]	; (8005e5c <__sfp+0x88>)
 8005e04:	60e3      	str	r3, [r4, #12]
 8005e06:	f104 0058 	add.w	r0, r4, #88	; 0x58
 8005e0a:	6665      	str	r5, [r4, #100]	; 0x64
 8005e0c:	f000 f847 	bl	8005e9e <__retarget_lock_init_recursive>
 8005e10:	f7ff ff96 	bl	8005d40 <__sfp_lock_release>
 8005e14:	e9c4 5501 	strd	r5, r5, [r4, #4]
 8005e18:	e9c4 5504 	strd	r5, r5, [r4, #16]
 8005e1c:	6025      	str	r5, [r4, #0]
 8005e1e:	61a5      	str	r5, [r4, #24]
 8005e20:	2208      	movs	r2, #8
 8005e22:	4629      	mov	r1, r5
 8005e24:	f104 005c 	add.w	r0, r4, #92	; 0x5c
 8005e28:	f7fe fffa 	bl	8004e20 <memset>
 8005e2c:	e9c4 550d 	strd	r5, r5, [r4, #52]	; 0x34
 8005e30:	e9c4 5512 	strd	r5, r5, [r4, #72]	; 0x48
 8005e34:	4620      	mov	r0, r4
 8005e36:	bdf8      	pop	{r3, r4, r5, r6, r7, pc}
 8005e38:	3468      	adds	r4, #104	; 0x68
 8005e3a:	e7d9      	b.n	8005df0 <__sfp+0x1c>
 8005e3c:	2104      	movs	r1, #4
 8005e3e:	4638      	mov	r0, r7
 8005e40:	f7ff ff62 	bl	8005d08 <__sfmoreglue>
 8005e44:	4604      	mov	r4, r0
 8005e46:	6030      	str	r0, [r6, #0]
 8005e48:	2800      	cmp	r0, #0
 8005e4a:	d1d5      	bne.n	8005df8 <__sfp+0x24>
 8005e4c:	f7ff ff78 	bl	8005d40 <__sfp_lock_release>
 8005e50:	230c      	movs	r3, #12
 8005e52:	603b      	str	r3, [r7, #0]
 8005e54:	e7ee      	b.n	8005e34 <__sfp+0x60>
 8005e56:	bf00      	nop
 8005e58:	08006270 	.word	0x08006270
 8005e5c:	ffff0001 	.word	0xffff0001

08005e60 <_fwalk_reent>:
 8005e60:	e92d 43f8 	stmdb	sp!, {r3, r4, r5, r6, r7, r8, r9, lr}
 8005e64:	4606      	mov	r6, r0
 8005e66:	4688      	mov	r8, r1
 8005e68:	f100 0448 	add.w	r4, r0, #72	; 0x48
 8005e6c:	2700      	movs	r7, #0
 8005e6e:	e9d4 9501 	ldrd	r9, r5, [r4, #4]
 8005e72:	f1b9 0901 	subs.w	r9, r9, #1
 8005e76:	d505      	bpl.n	8005e84 <_fwalk_reent+0x24>
 8005e78:	6824      	ldr	r4, [r4, #0]
 8005e7a:	2c00      	cmp	r4, #0
 8005e7c:	d1f7      	bne.n	8005e6e <_fwalk_reent+0xe>
 8005e7e:	4638      	mov	r0, r7
 8005e80:	e8bd 83f8 	ldmia.w	sp!, {r3, r4, r5, r6, r7, r8, r9, pc}
 8005e84:	89ab      	ldrh	r3, [r5, #12]
 8005e86:	2b01      	cmp	r3, #1
 8005e88:	d907      	bls.n	8005e9a <_fwalk_reent+0x3a>
 8005e8a:	f9b5 300e 	ldrsh.w	r3, [r5, #14]
 8005e8e:	3301      	adds	r3, #1
 8005e90:	d003      	beq.n	8005e9a <_fwalk_reent+0x3a>
 8005e92:	4629      	mov	r1, r5
 8005e94:	4630      	mov	r0, r6
 8005e96:	47c0      	blx	r8
 8005e98:	4307      	orrs	r7, r0
 8005e9a:	3568      	adds	r5, #104	; 0x68
 8005e9c:	e7e9      	b.n	8005e72 <_fwalk_reent+0x12>

08005e9e <__retarget_lock_init_recursive>:
 8005e9e:	4770      	bx	lr

08005ea0 <__retarget_lock_acquire_recursive>:
 8005ea0:	4770      	bx	lr

08005ea2 <__retarget_lock_release_recursive>:
 8005ea2:	4770      	bx	lr

08005ea4 <__swhatbuf_r>:
 8005ea4:	b570      	push	{r4, r5, r6, lr}
 8005ea6:	460e      	mov	r6, r1
 8005ea8:	f9b1 100e 	ldrsh.w	r1, [r1, #14]
 8005eac:	2900      	cmp	r1, #0
 8005eae:	b096      	sub	sp, #88	; 0x58
 8005eb0:	4614      	mov	r4, r2
 8005eb2:	461d      	mov	r5, r3
 8005eb4:	da07      	bge.n	8005ec6 <__swhatbuf_r+0x22>
 8005eb6:	2300      	movs	r3, #0
 8005eb8:	602b      	str	r3, [r5, #0]
 8005eba:	89b3      	ldrh	r3, [r6, #12]
 8005ebc:	061a      	lsls	r2, r3, #24
 8005ebe:	d410      	bmi.n	8005ee2 <__swhatbuf_r+0x3e>
 8005ec0:	f44f 6380 	mov.w	r3, #1024	; 0x400
 8005ec4:	e00e      	b.n	8005ee4 <__swhatbuf_r+0x40>
 8005ec6:	466a      	mov	r2, sp
 8005ec8:	f000 f954 	bl	8006174 <_fstat_r>
 8005ecc:	2800      	cmp	r0, #0
 8005ece:	dbf2      	blt.n	8005eb6 <__swhatbuf_r+0x12>
 8005ed0:	9a01      	ldr	r2, [sp, #4]
 8005ed2:	f402 4270 	and.w	r2, r2, #61440	; 0xf000
 8005ed6:	f5a2 5300 	sub.w	r3, r2, #8192	; 0x2000
 8005eda:	425a      	negs	r2, r3
 8005edc:	415a      	adcs	r2, r3
 8005ede:	602a      	str	r2, [r5, #0]
 8005ee0:	e7ee      	b.n	8005ec0 <__swhatbuf_r+0x1c>
 8005ee2:	2340      	movs	r3, #64	; 0x40
 8005ee4:	2000      	movs	r0, #0
 8005ee6:	6023      	str	r3, [r4, #0]
 8005ee8:	b016      	add	sp, #88	; 0x58
 8005eea:	bd70      	pop	{r4, r5, r6, pc}

08005eec <__smakebuf_r>:
 8005eec:	898b      	ldrh	r3, [r1, #12]
 8005eee:	b573      	push	{r0, r1, r4, r5, r6, lr}
 8005ef0:	079d      	lsls	r5, r3, #30
 8005ef2:	4606      	mov	r6, r0
 8005ef4:	460c      	mov	r4, r1
 8005ef6:	d507      	bpl.n	8005f08 <__smakebuf_r+0x1c>
 8005ef8:	f104 0347 	add.w	r3, r4, #71	; 0x47
 8005efc:	6023      	str	r3, [r4, #0]
 8005efe:	6123      	str	r3, [r4, #16]
 8005f00:	2301      	movs	r3, #1
 8005f02:	6163      	str	r3, [r4, #20]
 8005f04:	b002      	add	sp, #8
 8005f06:	bd70      	pop	{r4, r5, r6, pc}
 8005f08:	ab01      	add	r3, sp, #4
 8005f0a:	466a      	mov	r2, sp
 8005f0c:	f7ff ffca 	bl	8005ea4 <__swhatbuf_r>
 8005f10:	9900      	ldr	r1, [sp, #0]
 8005f12:	4605      	mov	r5, r0
 8005f14:	4630      	mov	r0, r6
 8005f16:	f7ff f88f 	bl	8005038 <_malloc_r>
 8005f1a:	b948      	cbnz	r0, 8005f30 <__smakebuf_r+0x44>
 8005f1c:	f9b4 300c 	ldrsh.w	r3, [r4, #12]
 8005f20:	059a      	lsls	r2, r3, #22
 8005f22:	d4ef      	bmi.n	8005f04 <__smakebuf_r+0x18>
 8005f24:	f023 0303 	bic.w	r3, r3, #3
 8005f28:	f043 0302 	orr.w	r3, r3, #2
 8005f2c:	81a3      	strh	r3, [r4, #12]
 8005f2e:	e7e3      	b.n	8005ef8 <__smakebuf_r+0xc>
 8005f30:	4b0d      	ldr	r3, [pc, #52]	; (8005f68 <__smakebuf_r+0x7c>)
 8005f32:	62b3      	str	r3, [r6, #40]	; 0x28
 8005f34:	89a3      	ldrh	r3, [r4, #12]
 8005f36:	6020      	str	r0, [r4, #0]
 8005f38:	f043 0380 	orr.w	r3, r3, #128	; 0x80
 8005f3c:	81a3      	strh	r3, [r4, #12]
 8005f3e:	9b00      	ldr	r3, [sp, #0]
 8005f40:	6163      	str	r3, [r4, #20]
 8005f42:	9b01      	ldr	r3, [sp, #4]
 8005f44:	6120      	str	r0, [r4, #16]
 8005f46:	b15b      	cbz	r3, 8005f60 <__smakebuf_r+0x74>
 8005f48:	f9b4 100e 	ldrsh.w	r1, [r4, #14]
 8005f4c:	4630      	mov	r0, r6
 8005f4e:	f000 f923 	bl	8006198 <_isatty_r>
 8005f52:	b128      	cbz	r0, 8005f60 <__smakebuf_r+0x74>
 8005f54:	89a3      	ldrh	r3, [r4, #12]
 8005f56:	f023 0303 	bic.w	r3, r3, #3
 8005f5a:	f043 0301 	orr.w	r3, r3, #1
 8005f5e:	81a3      	strh	r3, [r4, #12]
 8005f60:	89a0      	ldrh	r0, [r4, #12]
 8005f62:	4305      	orrs	r5, r0
 8005f64:	81a5      	strh	r5, [r4, #12]
 8005f66:	e7cd      	b.n	8005f04 <__smakebuf_r+0x18>
 8005f68:	08005cfd 	.word	0x08005cfd

08005f6c <memcpy>:
 8005f6c:	440a      	add	r2, r1
 8005f6e:	4291      	cmp	r1, r2
 8005f70:	f100 33ff 	add.w	r3, r0, #4294967295
 8005f74:	d100      	bne.n	8005f78 <memcpy+0xc>
 8005f76:	4770      	bx	lr
 8005f78:	b510      	push	{r4, lr}
 8005f7a:	f811 4b01 	ldrb.w	r4, [r1], #1
 8005f7e:	f803 4f01 	strb.w	r4, [r3, #1]!
 8005f82:	4291      	cmp	r1, r2
 8005f84:	d1f9      	bne.n	8005f7a <memcpy+0xe>
 8005f86:	bd10      	pop	{r4, pc}

08005f88 <memmove>:
 8005f88:	4288      	cmp	r0, r1
 8005f8a:	b510      	push	{r4, lr}
 8005f8c:	eb01 0402 	add.w	r4, r1, r2
 8005f90:	d902      	bls.n	8005f98 <memmove+0x10>
 8005f92:	4284      	cmp	r4, r0
 8005f94:	4623      	mov	r3, r4
 8005f96:	d807      	bhi.n	8005fa8 <memmove+0x20>
 8005f98:	1e43      	subs	r3, r0, #1
 8005f9a:	42a1      	cmp	r1, r4
 8005f9c:	d008      	beq.n	8005fb0 <memmove+0x28>
 8005f9e:	f811 2b01 	ldrb.w	r2, [r1], #1
 8005fa2:	f803 2f01 	strb.w	r2, [r3, #1]!
 8005fa6:	e7f8      	b.n	8005f9a <memmove+0x12>
 8005fa8:	4402      	add	r2, r0
 8005faa:	4601      	mov	r1, r0
 8005fac:	428a      	cmp	r2, r1
 8005fae:	d100      	bne.n	8005fb2 <memmove+0x2a>
 8005fb0:	bd10      	pop	{r4, pc}
 8005fb2:	f813 4d01 	ldrb.w	r4, [r3, #-1]!
 8005fb6:	f802 4d01 	strb.w	r4, [r2, #-1]!
 8005fba:	e7f7      	b.n	8005fac <memmove+0x24>

08005fbc <__malloc_lock>:
 8005fbc:	4801      	ldr	r0, [pc, #4]	; (8005fc4 <__malloc_lock+0x8>)
 8005fbe:	f7ff bf6f 	b.w	8005ea0 <__retarget_lock_acquire_recursive>
 8005fc2:	bf00      	nop
 8005fc4:	20013074 	.word	0x20013074

08005fc8 <__malloc_unlock>:
 8005fc8:	4801      	ldr	r0, [pc, #4]	; (8005fd0 <__malloc_unlock+0x8>)
 8005fca:	f7ff bf6a 	b.w	8005ea2 <__retarget_lock_release_recursive>
 8005fce:	bf00      	nop
 8005fd0:	20013074 	.word	0x20013074

08005fd4 <_realloc_r>:
 8005fd4:	b5f8      	push	{r3, r4, r5, r6, r7, lr}
 8005fd6:	4607      	mov	r7, r0
 8005fd8:	4614      	mov	r4, r2
 8005fda:	460e      	mov	r6, r1
 8005fdc:	b921      	cbnz	r1, 8005fe8 <_realloc_r+0x14>
 8005fde:	e8bd 40f8 	ldmia.w	sp!, {r3, r4, r5, r6, r7, lr}
 8005fe2:	4611      	mov	r1, r2
 8005fe4:	f7ff b828 	b.w	8005038 <_malloc_r>
 8005fe8:	b922      	cbnz	r2, 8005ff4 <_realloc_r+0x20>
 8005fea:	f7fe ffd5 	bl	8004f98 <_free_r>
 8005fee:	4625      	mov	r5, r4
 8005ff0:	4628      	mov	r0, r5
 8005ff2:	bdf8      	pop	{r3, r4, r5, r6, r7, pc}
 8005ff4:	f000 f8f2 	bl	80061dc <_malloc_usable_size_r>
 8005ff8:	42a0      	cmp	r0, r4
 8005ffa:	d20f      	bcs.n	800601c <_realloc_r+0x48>
 8005ffc:	4621      	mov	r1, r4
 8005ffe:	4638      	mov	r0, r7
 8006000:	f7ff f81a 	bl	8005038 <_malloc_r>
 8006004:	4605      	mov	r5, r0
 8006006:	2800      	cmp	r0, #0
 8006008:	d0f2      	beq.n	8005ff0 <_realloc_r+0x1c>
 800600a:	4631      	mov	r1, r6
 800600c:	4622      	mov	r2, r4
 800600e:	f7ff ffad 	bl	8005f6c <memcpy>
 8006012:	4631      	mov	r1, r6
 8006014:	4638      	mov	r0, r7
 8006016:	f7fe ffbf 	bl	8004f98 <_free_r>
 800601a:	e7e9      	b.n	8005ff0 <_realloc_r+0x1c>
 800601c:	4635      	mov	r5, r6
 800601e:	e7e7      	b.n	8005ff0 <_realloc_r+0x1c>

08006020 <_raise_r>:
 8006020:	291f      	cmp	r1, #31
 8006022:	b538      	push	{r3, r4, r5, lr}
 8006024:	4604      	mov	r4, r0
 8006026:	460d      	mov	r5, r1
 8006028:	d904      	bls.n	8006034 <_raise_r+0x14>
 800602a:	2316      	movs	r3, #22
 800602c:	6003      	str	r3, [r0, #0]
 800602e:	f04f 30ff 	mov.w	r0, #4294967295
 8006032:	bd38      	pop	{r3, r4, r5, pc}
 8006034:	6c42      	ldr	r2, [r0, #68]	; 0x44
 8006036:	b112      	cbz	r2, 800603e <_raise_r+0x1e>
 8006038:	f852 3021 	ldr.w	r3, [r2, r1, lsl #2]
 800603c:	b94b      	cbnz	r3, 8006052 <_raise_r+0x32>
 800603e:	4620      	mov	r0, r4
 8006040:	f000 f830 	bl	80060a4 <_getpid_r>
 8006044:	462a      	mov	r2, r5
 8006046:	4601      	mov	r1, r0
 8006048:	4620      	mov	r0, r4
 800604a:	e8bd 4038 	ldmia.w	sp!, {r3, r4, r5, lr}
 800604e:	f000 b817 	b.w	8006080 <_kill_r>
 8006052:	2b01      	cmp	r3, #1
 8006054:	d00a      	beq.n	800606c <_raise_r+0x4c>
 8006056:	1c59      	adds	r1, r3, #1
 8006058:	d103      	bne.n	8006062 <_raise_r+0x42>
 800605a:	2316      	movs	r3, #22
 800605c:	6003      	str	r3, [r0, #0]
 800605e:	2001      	movs	r0, #1
 8006060:	e7e7      	b.n	8006032 <_raise_r+0x12>
 8006062:	2400      	movs	r4, #0
 8006064:	f842 4025 	str.w	r4, [r2, r5, lsl #2]
 8006068:	4628      	mov	r0, r5
 800606a:	4798      	blx	r3
 800606c:	2000      	movs	r0, #0
 800606e:	e7e0      	b.n	8006032 <_raise_r+0x12>

08006070 <raise>:
 8006070:	4b02      	ldr	r3, [pc, #8]	; (800607c <raise+0xc>)
 8006072:	4601      	mov	r1, r0
 8006074:	6818      	ldr	r0, [r3, #0]
 8006076:	f7ff bfd3 	b.w	8006020 <_raise_r>
 800607a:	bf00      	nop
 800607c:	2000002c 	.word	0x2000002c

08006080 <_kill_r>:
 8006080:	b538      	push	{r3, r4, r5, lr}
 8006082:	4d07      	ldr	r5, [pc, #28]	; (80060a0 <_kill_r+0x20>)
 8006084:	2300      	movs	r3, #0
 8006086:	4604      	mov	r4, r0
 8006088:	4608      	mov	r0, r1
 800608a:	4611      	mov	r1, r2
 800608c:	602b      	str	r3, [r5, #0]
 800608e:	f7fa fdb5 	bl	8000bfc <_kill>
 8006092:	1c43      	adds	r3, r0, #1
 8006094:	d102      	bne.n	800609c <_kill_r+0x1c>
 8006096:	682b      	ldr	r3, [r5, #0]
 8006098:	b103      	cbz	r3, 800609c <_kill_r+0x1c>
 800609a:	6023      	str	r3, [r4, #0]
 800609c:	bd38      	pop	{r3, r4, r5, pc}
 800609e:	bf00      	nop
 80060a0:	2001307c 	.word	0x2001307c

080060a4 <_getpid_r>:
 80060a4:	f7fa bda2 	b.w	8000bec <_getpid>

080060a8 <__sread>:
 80060a8:	b510      	push	{r4, lr}
 80060aa:	460c      	mov	r4, r1
 80060ac:	f9b1 100e 	ldrsh.w	r1, [r1, #14]
 80060b0:	f000 f89c 	bl	80061ec <_read_r>
 80060b4:	2800      	cmp	r0, #0
 80060b6:	bfab      	itete	ge
 80060b8:	6d63      	ldrge	r3, [r4, #84]	; 0x54
 80060ba:	89a3      	ldrhlt	r3, [r4, #12]
 80060bc:	181b      	addge	r3, r3, r0
 80060be:	f423 5380 	biclt.w	r3, r3, #4096	; 0x1000
 80060c2:	bfac      	ite	ge
 80060c4:	6563      	strge	r3, [r4, #84]	; 0x54
 80060c6:	81a3      	strhlt	r3, [r4, #12]
 80060c8:	bd10      	pop	{r4, pc}

080060ca <__swrite>:
 80060ca:	e92d 41f0 	stmdb	sp!, {r4, r5, r6, r7, r8, lr}
 80060ce:	461f      	mov	r7, r3
 80060d0:	898b      	ldrh	r3, [r1, #12]
 80060d2:	05db      	lsls	r3, r3, #23
 80060d4:	4605      	mov	r5, r0
 80060d6:	460c      	mov	r4, r1
 80060d8:	4616      	mov	r6, r2
 80060da:	d505      	bpl.n	80060e8 <__swrite+0x1e>
 80060dc:	f9b1 100e 	ldrsh.w	r1, [r1, #14]
 80060e0:	2302      	movs	r3, #2
 80060e2:	2200      	movs	r2, #0
 80060e4:	f000 f868 	bl	80061b8 <_lseek_r>
 80060e8:	89a3      	ldrh	r3, [r4, #12]
 80060ea:	f9b4 100e 	ldrsh.w	r1, [r4, #14]
 80060ee:	f423 5380 	bic.w	r3, r3, #4096	; 0x1000
 80060f2:	81a3      	strh	r3, [r4, #12]
 80060f4:	4632      	mov	r2, r6
 80060f6:	463b      	mov	r3, r7
 80060f8:	4628      	mov	r0, r5
 80060fa:	e8bd 41f0 	ldmia.w	sp!, {r4, r5, r6, r7, r8, lr}
 80060fe:	f000 b817 	b.w	8006130 <_write_r>

08006102 <__sseek>:
 8006102:	b510      	push	{r4, lr}
 8006104:	460c      	mov	r4, r1
 8006106:	f9b1 100e 	ldrsh.w	r1, [r1, #14]
 800610a:	f000 f855 	bl	80061b8 <_lseek_r>
 800610e:	1c43      	adds	r3, r0, #1
 8006110:	89a3      	ldrh	r3, [r4, #12]
 8006112:	bf15      	itete	ne
 8006114:	6560      	strne	r0, [r4, #84]	; 0x54
 8006116:	f423 5380 	biceq.w	r3, r3, #4096	; 0x1000
 800611a:	f443 5380 	orrne.w	r3, r3, #4096	; 0x1000
 800611e:	81a3      	strheq	r3, [r4, #12]
 8006120:	bf18      	it	ne
 8006122:	81a3      	strhne	r3, [r4, #12]
 8006124:	bd10      	pop	{r4, pc}

08006126 <__sclose>:
 8006126:	f9b1 100e 	ldrsh.w	r1, [r1, #14]
 800612a:	f000 b813 	b.w	8006154 <_close_r>
	...

08006130 <_write_r>:
 8006130:	b538      	push	{r3, r4, r5, lr}
 8006132:	4d07      	ldr	r5, [pc, #28]	; (8006150 <_write_r+0x20>)
 8006134:	4604      	mov	r4, r0
 8006136:	4608      	mov	r0, r1
 8006138:	4611      	mov	r1, r2
 800613a:	2200      	movs	r2, #0
 800613c:	602a      	str	r2, [r5, #0]
 800613e:	461a      	mov	r2, r3
 8006140:	f7fa fd93 	bl	8000c6a <_write>
 8006144:	1c43      	adds	r3, r0, #1
 8006146:	d102      	bne.n	800614e <_write_r+0x1e>
 8006148:	682b      	ldr	r3, [r5, #0]
 800614a:	b103      	cbz	r3, 800614e <_write_r+0x1e>
 800614c:	6023      	str	r3, [r4, #0]
 800614e:	bd38      	pop	{r3, r4, r5, pc}
 8006150:	2001307c 	.word	0x2001307c

08006154 <_close_r>:
 8006154:	b538      	push	{r3, r4, r5, lr}
 8006156:	4d06      	ldr	r5, [pc, #24]	; (8006170 <_close_r+0x1c>)
 8006158:	2300      	movs	r3, #0
 800615a:	4604      	mov	r4, r0
 800615c:	4608      	mov	r0, r1
 800615e:	602b      	str	r3, [r5, #0]
 8006160:	f7fa fd9f 	bl	8000ca2 <_close>
 8006164:	1c43      	adds	r3, r0, #1
 8006166:	d102      	bne.n	800616e <_close_r+0x1a>
 8006168:	682b      	ldr	r3, [r5, #0]
 800616a:	b103      	cbz	r3, 800616e <_close_r+0x1a>
 800616c:	6023      	str	r3, [r4, #0]
 800616e:	bd38      	pop	{r3, r4, r5, pc}
 8006170:	2001307c 	.word	0x2001307c

08006174 <_fstat_r>:
 8006174:	b538      	push	{r3, r4, r5, lr}
 8006176:	4d07      	ldr	r5, [pc, #28]	; (8006194 <_fstat_r+0x20>)
 8006178:	2300      	movs	r3, #0
 800617a:	4604      	mov	r4, r0
 800617c:	4608      	mov	r0, r1
 800617e:	4611      	mov	r1, r2
 8006180:	602b      	str	r3, [r5, #0]
 8006182:	f7fa fd9a 	bl	8000cba <_fstat>
 8006186:	1c43      	adds	r3, r0, #1
 8006188:	d102      	bne.n	8006190 <_fstat_r+0x1c>
 800618a:	682b      	ldr	r3, [r5, #0]
 800618c:	b103      	cbz	r3, 8006190 <_fstat_r+0x1c>
 800618e:	6023      	str	r3, [r4, #0]
 8006190:	bd38      	pop	{r3, r4, r5, pc}
 8006192:	bf00      	nop
 8006194:	2001307c 	.word	0x2001307c

08006198 <_isatty_r>:
 8006198:	b538      	push	{r3, r4, r5, lr}
 800619a:	4d06      	ldr	r5, [pc, #24]	; (80061b4 <_isatty_r+0x1c>)
 800619c:	2300      	movs	r3, #0
 800619e:	4604      	mov	r4, r0
 80061a0:	4608      	mov	r0, r1
 80061a2:	602b      	str	r3, [r5, #0]
 80061a4:	f7fa fd99 	bl	8000cda <_isatty>
 80061a8:	1c43      	adds	r3, r0, #1
 80061aa:	d102      	bne.n	80061b2 <_isatty_r+0x1a>
 80061ac:	682b      	ldr	r3, [r5, #0]
 80061ae:	b103      	cbz	r3, 80061b2 <_isatty_r+0x1a>
 80061b0:	6023      	str	r3, [r4, #0]
 80061b2:	bd38      	pop	{r3, r4, r5, pc}
 80061b4:	2001307c 	.word	0x2001307c

080061b8 <_lseek_r>:
 80061b8:	b538      	push	{r3, r4, r5, lr}
 80061ba:	4d07      	ldr	r5, [pc, #28]	; (80061d8 <_lseek_r+0x20>)
 80061bc:	4604      	mov	r4, r0
 80061be:	4608      	mov	r0, r1
 80061c0:	4611      	mov	r1, r2
 80061c2:	2200      	movs	r2, #0
 80061c4:	602a      	str	r2, [r5, #0]
 80061c6:	461a      	mov	r2, r3
 80061c8:	f7fa fd92 	bl	8000cf0 <_lseek>
 80061cc:	1c43      	adds	r3, r0, #1
 80061ce:	d102      	bne.n	80061d6 <_lseek_r+0x1e>
 80061d0:	682b      	ldr	r3, [r5, #0]
 80061d2:	b103      	cbz	r3, 80061d6 <_lseek_r+0x1e>
 80061d4:	6023      	str	r3, [r4, #0]
 80061d6:	bd38      	pop	{r3, r4, r5, pc}
 80061d8:	2001307c 	.word	0x2001307c

080061dc <_malloc_usable_size_r>:
 80061dc:	f851 3c04 	ldr.w	r3, [r1, #-4]
 80061e0:	1f18      	subs	r0, r3, #4
 80061e2:	2b00      	cmp	r3, #0
 80061e4:	bfbc      	itt	lt
 80061e6:	580b      	ldrlt	r3, [r1, r0]
 80061e8:	18c0      	addlt	r0, r0, r3
 80061ea:	4770      	bx	lr

080061ec <_read_r>:
 80061ec:	b538      	push	{r3, r4, r5, lr}
 80061ee:	4d07      	ldr	r5, [pc, #28]	; (800620c <_read_r+0x20>)
 80061f0:	4604      	mov	r4, r0
 80061f2:	4608      	mov	r0, r1
 80061f4:	4611      	mov	r1, r2
 80061f6:	2200      	movs	r2, #0
 80061f8:	602a      	str	r2, [r5, #0]
 80061fa:	461a      	mov	r2, r3
 80061fc:	f7fa fd18 	bl	8000c30 <_read>
 8006200:	1c43      	adds	r3, r0, #1
 8006202:	d102      	bne.n	800620a <_read_r+0x1e>
 8006204:	682b      	ldr	r3, [r5, #0]
 8006206:	b103      	cbz	r3, 800620a <_read_r+0x1e>
 8006208:	6023      	str	r3, [r4, #0]
 800620a:	bd38      	pop	{r3, r4, r5, pc}
 800620c:	2001307c 	.word	0x2001307c

08006210 <_init>:
 8006210:	b5f8      	push	{r3, r4, r5, r6, r7, lr}
 8006212:	bf00      	nop
 8006214:	bcf8      	pop	{r3, r4, r5, r6, r7}
 8006216:	bc08      	pop	{r3}
 8006218:	469e      	mov	lr, r3
 800621a:	4770      	bx	lr

0800621c <_fini>:
 800621c:	b5f8      	push	{r3, r4, r5, r6, r7, lr}
 800621e:	bf00      	nop
 8006220:	bcf8      	pop	{r3, r4, r5, r6, r7}
 8006222:	bc08      	pop	{r3}
 8006224:	469e      	mov	lr, r3
 8006226:	4770      	bx	lr
