
VGAnuS_Software-Ontwikkeling.elf:     file format elf32-littlearm

Sections:
Idx Name          Size      VMA       LMA       File off  Algn
  0 .isr_vector   00000188  08000000  08000000  00010000  2**0
                  CONTENTS, ALLOC, LOAD, READONLY, DATA
  1 .text         00006104  08000190  08000190  00010190  2**4
                  CONTENTS, ALLOC, LOAD, READONLY, CODE
  2 .rodata       00000194  08006294  08006294  00016294  2**2
                  CONTENTS, ALLOC, LOAD, READONLY, DATA
  3 .ARM.extab    00000000  08006428  08006428  00020090  2**0
                  CONTENTS
  4 .ARM          00000008  08006428  08006428  00016428  2**2
                  CONTENTS, ALLOC, LOAD, READONLY, DATA
  5 .preinit_array 00000000  08006430  08006430  00020090  2**0
                  CONTENTS, ALLOC, LOAD, DATA
  6 .init_array   00000004  08006430  08006430  00016430  2**2
                  CONTENTS, ALLOC, LOAD, DATA
  7 .fini_array   00000004  08006434  08006434  00016434  2**2
                  CONTENTS, ALLOC, LOAD, DATA
  8 .data         00000090  20000000  08006438  00020000  2**2
                  CONTENTS, ALLOC, LOAD, DATA
  9 .bss          00012ff0  20000090  080064c8  00020090  2**2
                  ALLOC
 10 ._user_heap_stack 00000600  20013080  080064c8  00023080  2**0
                  ALLOC
 11 .ARM.attributes 00000030  00000000  00000000  00020090  2**0
                  CONTENTS, READONLY
 12 .debug_info   00016288  00000000  00000000  000200c0  2**0
                  CONTENTS, READONLY, DEBUGGING, OCTETS
 13 .debug_abbrev 00002d9c  00000000  00000000  00036348  2**0
                  CONTENTS, READONLY, DEBUGGING, OCTETS
 14 .debug_aranges 00000dc0  00000000  00000000  000390e8  2**3
                  CONTENTS, READONLY, DEBUGGING, OCTETS
 15 .debug_ranges 00000ca8  00000000  00000000  00039ea8  2**3
                  CONTENTS, READONLY, DEBUGGING, OCTETS
 16 .debug_macro  00023914  00000000  00000000  0003ab50  2**0
                  CONTENTS, READONLY, DEBUGGING, OCTETS
 17 .debug_line   0001134e  00000000  00000000  0005e464  2**0
                  CONTENTS, READONLY, DEBUGGING, OCTETS
 18 .debug_str    000cc703  00000000  00000000  0006f7b2  2**0
                  CONTENTS, READONLY, DEBUGGING, OCTETS
 19 .comment      00000053  00000000  00000000  0013beb5  2**0
                  CONTENTS, READONLY
 20 .debug_frame  00004328  00000000  00000000  0013bf08  2**2
                  CONTENTS, READONLY, DEBUGGING, OCTETS

Disassembly of section .text:

08000190 <__do_global_dtors_aux>:
 8000190:	b510      	push	{r4, lr}
 8000192:	4c05      	ldr	r4, [pc, #20]	; (80001a8 <__do_global_dtors_aux+0x18>)
 8000194:	7823      	ldrb	r3, [r4, #0]
 8000196:	b933      	cbnz	r3, 80001a6 <__do_global_dtors_aux+0x16>
 8000198:	4b04      	ldr	r3, [pc, #16]	; (80001ac <__do_global_dtors_aux+0x1c>)
 800019a:	b113      	cbz	r3, 80001a2 <__do_global_dtors_aux+0x12>
 800019c:	4804      	ldr	r0, [pc, #16]	; (80001b0 <__do_global_dtors_aux+0x20>)
 800019e:	f3af 8000 	nop.w
 80001a2:	2301      	movs	r3, #1
 80001a4:	7023      	strb	r3, [r4, #0]
 80001a6:	bd10      	pop	{r4, pc}
 80001a8:	20000090 	.word	0x20000090
 80001ac:	00000000 	.word	0x00000000
 80001b0:	0800627c 	.word	0x0800627c

080001b4 <frame_dummy>:
 80001b4:	b508      	push	{r3, lr}
 80001b6:	4b03      	ldr	r3, [pc, #12]	; (80001c4 <frame_dummy+0x10>)
 80001b8:	b11b      	cbz	r3, 80001c2 <frame_dummy+0xe>
 80001ba:	4903      	ldr	r1, [pc, #12]	; (80001c8 <frame_dummy+0x14>)
 80001bc:	4803      	ldr	r0, [pc, #12]	; (80001cc <frame_dummy+0x18>)
 80001be:	f3af 8000 	nop.w
 80001c2:	bd08      	pop	{r3, pc}
 80001c4:	00000000 	.word	0x00000000
 80001c8:	20000094 	.word	0x20000094
 80001cc:	0800627c 	.word	0x0800627c

080001d0 <strlen>:
 80001d0:	4603      	mov	r3, r0
 80001d2:	f813 2b01 	ldrb.w	r2, [r3], #1
 80001d6:	2a00      	cmp	r2, #0
 80001d8:	d1fb      	bne.n	80001d2 <strlen+0x2>
 80001da:	1a18      	subs	r0, r3, r0
 80001dc:	3801      	subs	r0, #1
 80001de:	4770      	bx	lr

080001e0 <memchr>:
 80001e0:	f001 01ff 	and.w	r1, r1, #255	; 0xff
 80001e4:	2a10      	cmp	r2, #16
 80001e6:	db2b      	blt.n	8000240 <memchr+0x60>
 80001e8:	f010 0f07 	tst.w	r0, #7
 80001ec:	d008      	beq.n	8000200 <memchr+0x20>
 80001ee:	f810 3b01 	ldrb.w	r3, [r0], #1
 80001f2:	3a01      	subs	r2, #1
 80001f4:	428b      	cmp	r3, r1
 80001f6:	d02d      	beq.n	8000254 <memchr+0x74>
 80001f8:	f010 0f07 	tst.w	r0, #7
 80001fc:	b342      	cbz	r2, 8000250 <memchr+0x70>
 80001fe:	d1f6      	bne.n	80001ee <memchr+0xe>
 8000200:	b4f0      	push	{r4, r5, r6, r7}
 8000202:	ea41 2101 	orr.w	r1, r1, r1, lsl #8
 8000206:	ea41 4101 	orr.w	r1, r1, r1, lsl #16
 800020a:	f022 0407 	bic.w	r4, r2, #7
 800020e:	f07f 0700 	mvns.w	r7, #0
 8000212:	2300      	movs	r3, #0
 8000214:	e8f0 5602 	ldrd	r5, r6, [r0], #8
 8000218:	3c08      	subs	r4, #8
 800021a:	ea85 0501 	eor.w	r5, r5, r1
 800021e:	ea86 0601 	eor.w	r6, r6, r1
 8000222:	fa85 f547 	uadd8	r5, r5, r7
 8000226:	faa3 f587 	sel	r5, r3, r7
 800022a:	fa86 f647 	uadd8	r6, r6, r7
 800022e:	faa5 f687 	sel	r6, r5, r7
 8000232:	b98e      	cbnz	r6, 8000258 <memchr+0x78>
 8000234:	d1ee      	bne.n	8000214 <memchr+0x34>
 8000236:	bcf0      	pop	{r4, r5, r6, r7}
 8000238:	f001 01ff 	and.w	r1, r1, #255	; 0xff
 800023c:	f002 0207 	and.w	r2, r2, #7
 8000240:	b132      	cbz	r2, 8000250 <memchr+0x70>
 8000242:	f810 3b01 	ldrb.w	r3, [r0], #1
 8000246:	3a01      	subs	r2, #1
 8000248:	ea83 0301 	eor.w	r3, r3, r1
 800024c:	b113      	cbz	r3, 8000254 <memchr+0x74>
 800024e:	d1f8      	bne.n	8000242 <memchr+0x62>
 8000250:	2000      	movs	r0, #0
 8000252:	4770      	bx	lr
 8000254:	3801      	subs	r0, #1
 8000256:	4770      	bx	lr
 8000258:	2d00      	cmp	r5, #0
 800025a:	bf06      	itte	eq
 800025c:	4635      	moveq	r5, r6
 800025e:	3803      	subeq	r0, #3
 8000260:	3807      	subne	r0, #7
 8000262:	f015 0f01 	tst.w	r5, #1
 8000266:	d107      	bne.n	8000278 <memchr+0x98>
 8000268:	3001      	adds	r0, #1
 800026a:	f415 7f80 	tst.w	r5, #256	; 0x100
 800026e:	bf02      	ittt	eq
 8000270:	3001      	addeq	r0, #1
 8000272:	f415 3fc0 	tsteq.w	r5, #98304	; 0x18000
 8000276:	3001      	addeq	r0, #1
 8000278:	bcf0      	pop	{r4, r5, r6, r7}
 800027a:	3801      	subs	r0, #1
 800027c:	4770      	bx	lr
 800027e:	bf00      	nop

08000280 <__aeabi_uldivmod>:
 8000280:	b953      	cbnz	r3, 8000298 <__aeabi_uldivmod+0x18>
 8000282:	b94a      	cbnz	r2, 8000298 <__aeabi_uldivmod+0x18>
 8000284:	2900      	cmp	r1, #0
 8000286:	bf08      	it	eq
 8000288:	2800      	cmpeq	r0, #0
 800028a:	bf1c      	itt	ne
 800028c:	f04f 31ff 	movne.w	r1, #4294967295
 8000290:	f04f 30ff 	movne.w	r0, #4294967295
 8000294:	f000 b96e 	b.w	8000574 <__aeabi_idiv0>
 8000298:	f1ad 0c08 	sub.w	ip, sp, #8
 800029c:	e96d ce04 	strd	ip, lr, [sp, #-16]!
 80002a0:	f000 f806 	bl	80002b0 <__udivmoddi4>
 80002a4:	f8dd e004 	ldr.w	lr, [sp, #4]
 80002a8:	e9dd 2302 	ldrd	r2, r3, [sp, #8]
 80002ac:	b004      	add	sp, #16
 80002ae:	4770      	bx	lr

080002b0 <__udivmoddi4>:
 80002b0:	e92d 47f0 	stmdb	sp!, {r4, r5, r6, r7, r8, r9, sl, lr}
 80002b4:	9d08      	ldr	r5, [sp, #32]
 80002b6:	4604      	mov	r4, r0
 80002b8:	468c      	mov	ip, r1
 80002ba:	2b00      	cmp	r3, #0
 80002bc:	f040 8083 	bne.w	80003c6 <__udivmoddi4+0x116>
 80002c0:	428a      	cmp	r2, r1
 80002c2:	4617      	mov	r7, r2
 80002c4:	d947      	bls.n	8000356 <__udivmoddi4+0xa6>
 80002c6:	fab2 f282 	clz	r2, r2
 80002ca:	b142      	cbz	r2, 80002de <__udivmoddi4+0x2e>
 80002cc:	f1c2 0020 	rsb	r0, r2, #32
 80002d0:	fa24 f000 	lsr.w	r0, r4, r0
 80002d4:	4091      	lsls	r1, r2
 80002d6:	4097      	lsls	r7, r2
 80002d8:	ea40 0c01 	orr.w	ip, r0, r1
 80002dc:	4094      	lsls	r4, r2
 80002de:	ea4f 4817 	mov.w	r8, r7, lsr #16
 80002e2:	0c23      	lsrs	r3, r4, #16
 80002e4:	fbbc f6f8 	udiv	r6, ip, r8
 80002e8:	fa1f fe87 	uxth.w	lr, r7
 80002ec:	fb08 c116 	mls	r1, r8, r6, ip
 80002f0:	ea43 4301 	orr.w	r3, r3, r1, lsl #16
 80002f4:	fb06 f10e 	mul.w	r1, r6, lr
 80002f8:	4299      	cmp	r1, r3
 80002fa:	d909      	bls.n	8000310 <__udivmoddi4+0x60>
 80002fc:	18fb      	adds	r3, r7, r3
 80002fe:	f106 30ff 	add.w	r0, r6, #4294967295
 8000302:	f080 8119 	bcs.w	8000538 <__udivmoddi4+0x288>
 8000306:	4299      	cmp	r1, r3
 8000308:	f240 8116 	bls.w	8000538 <__udivmoddi4+0x288>
 800030c:	3e02      	subs	r6, #2
 800030e:	443b      	add	r3, r7
 8000310:	1a5b      	subs	r3, r3, r1
 8000312:	b2a4      	uxth	r4, r4
 8000314:	fbb3 f0f8 	udiv	r0, r3, r8
 8000318:	fb08 3310 	mls	r3, r8, r0, r3
 800031c:	ea44 4403 	orr.w	r4, r4, r3, lsl #16
 8000320:	fb00 fe0e 	mul.w	lr, r0, lr
 8000324:	45a6      	cmp	lr, r4
 8000326:	d909      	bls.n	800033c <__udivmoddi4+0x8c>
 8000328:	193c      	adds	r4, r7, r4
 800032a:	f100 33ff 	add.w	r3, r0, #4294967295
 800032e:	f080 8105 	bcs.w	800053c <__udivmoddi4+0x28c>
 8000332:	45a6      	cmp	lr, r4
 8000334:	f240 8102 	bls.w	800053c <__udivmoddi4+0x28c>
 8000338:	3802      	subs	r0, #2
 800033a:	443c      	add	r4, r7
 800033c:	ea40 4006 	orr.w	r0, r0, r6, lsl #16
 8000340:	eba4 040e 	sub.w	r4, r4, lr
 8000344:	2600      	movs	r6, #0
 8000346:	b11d      	cbz	r5, 8000350 <__udivmoddi4+0xa0>
 8000348:	40d4      	lsrs	r4, r2
 800034a:	2300      	movs	r3, #0
 800034c:	e9c5 4300 	strd	r4, r3, [r5]
 8000350:	4631      	mov	r1, r6
 8000352:	e8bd 87f0 	ldmia.w	sp!, {r4, r5, r6, r7, r8, r9, sl, pc}
 8000356:	b902      	cbnz	r2, 800035a <__udivmoddi4+0xaa>
 8000358:	deff      	udf	#255	; 0xff
 800035a:	fab2 f282 	clz	r2, r2
 800035e:	2a00      	cmp	r2, #0
 8000360:	d150      	bne.n	8000404 <__udivmoddi4+0x154>
 8000362:	1bcb      	subs	r3, r1, r7
 8000364:	ea4f 4e17 	mov.w	lr, r7, lsr #16
 8000368:	fa1f f887 	uxth.w	r8, r7
 800036c:	2601      	movs	r6, #1
 800036e:	fbb3 fcfe 	udiv	ip, r3, lr
 8000372:	0c21      	lsrs	r1, r4, #16
 8000374:	fb0e 331c 	mls	r3, lr, ip, r3
 8000378:	ea41 4103 	orr.w	r1, r1, r3, lsl #16
 800037c:	fb08 f30c 	mul.w	r3, r8, ip
 8000380:	428b      	cmp	r3, r1
 8000382:	d907      	bls.n	8000394 <__udivmoddi4+0xe4>
 8000384:	1879      	adds	r1, r7, r1
 8000386:	f10c 30ff 	add.w	r0, ip, #4294967295
 800038a:	d202      	bcs.n	8000392 <__udivmoddi4+0xe2>
 800038c:	428b      	cmp	r3, r1
 800038e:	f200 80e9 	bhi.w	8000564 <__udivmoddi4+0x2b4>
 8000392:	4684      	mov	ip, r0
 8000394:	1ac9      	subs	r1, r1, r3
 8000396:	b2a3      	uxth	r3, r4
 8000398:	fbb1 f0fe 	udiv	r0, r1, lr
 800039c:	fb0e 1110 	mls	r1, lr, r0, r1
 80003a0:	ea43 4401 	orr.w	r4, r3, r1, lsl #16
 80003a4:	fb08 f800 	mul.w	r8, r8, r0
 80003a8:	45a0      	cmp	r8, r4
 80003aa:	d907      	bls.n	80003bc <__udivmoddi4+0x10c>
 80003ac:	193c      	adds	r4, r7, r4
 80003ae:	f100 33ff 	add.w	r3, r0, #4294967295
 80003b2:	d202      	bcs.n	80003ba <__udivmoddi4+0x10a>
 80003b4:	45a0      	cmp	r8, r4
 80003b6:	f200 80d9 	bhi.w	800056c <__udivmoddi4+0x2bc>
 80003ba:	4618      	mov	r0, r3
 80003bc:	eba4 0408 	sub.w	r4, r4, r8
 80003c0:	ea40 400c 	orr.w	r0, r0, ip, lsl #16
 80003c4:	e7bf      	b.n	8000346 <__udivmoddi4+0x96>
 80003c6:	428b      	cmp	r3, r1
 80003c8:	d909      	bls.n	80003de <__udivmoddi4+0x12e>
 80003ca:	2d00      	cmp	r5, #0
 80003cc:	f000 80b1 	beq.w	8000532 <__udivmoddi4+0x282>
 80003d0:	2600      	movs	r6, #0
 80003d2:	e9c5 0100 	strd	r0, r1, [r5]
 80003d6:	4630      	mov	r0, r6
 80003d8:	4631      	mov	r1, r6
 80003da:	e8bd 87f0 	ldmia.w	sp!, {r4, r5, r6, r7, r8, r9, sl, pc}
 80003de:	fab3 f683 	clz	r6, r3
 80003e2:	2e00      	cmp	r6, #0
 80003e4:	d14a      	bne.n	800047c <__udivmoddi4+0x1cc>
 80003e6:	428b      	cmp	r3, r1
 80003e8:	d302      	bcc.n	80003f0 <__udivmoddi4+0x140>
 80003ea:	4282      	cmp	r2, r0
 80003ec:	f200 80b8 	bhi.w	8000560 <__udivmoddi4+0x2b0>
 80003f0:	1a84      	subs	r4, r0, r2
 80003f2:	eb61 0103 	sbc.w	r1, r1, r3
 80003f6:	2001      	movs	r0, #1
 80003f8:	468c      	mov	ip, r1
 80003fa:	2d00      	cmp	r5, #0
 80003fc:	d0a8      	beq.n	8000350 <__udivmoddi4+0xa0>
 80003fe:	e9c5 4c00 	strd	r4, ip, [r5]
 8000402:	e7a5      	b.n	8000350 <__udivmoddi4+0xa0>
 8000404:	f1c2 0320 	rsb	r3, r2, #32
 8000408:	fa20 f603 	lsr.w	r6, r0, r3
 800040c:	4097      	lsls	r7, r2
 800040e:	fa01 f002 	lsl.w	r0, r1, r2
 8000412:	ea4f 4e17 	mov.w	lr, r7, lsr #16
 8000416:	40d9      	lsrs	r1, r3
 8000418:	4330      	orrs	r0, r6
 800041a:	0c03      	lsrs	r3, r0, #16
 800041c:	fbb1 f6fe 	udiv	r6, r1, lr
 8000420:	fa1f f887 	uxth.w	r8, r7
 8000424:	fb0e 1116 	mls	r1, lr, r6, r1
 8000428:	ea43 4301 	orr.w	r3, r3, r1, lsl #16
 800042c:	fb06 f108 	mul.w	r1, r6, r8
 8000430:	4299      	cmp	r1, r3
 8000432:	fa04 f402 	lsl.w	r4, r4, r2
 8000436:	d909      	bls.n	800044c <__udivmoddi4+0x19c>
 8000438:	18fb      	adds	r3, r7, r3
 800043a:	f106 3cff 	add.w	ip, r6, #4294967295
 800043e:	f080 808d 	bcs.w	800055c <__udivmoddi4+0x2ac>
 8000442:	4299      	cmp	r1, r3
 8000444:	f240 808a 	bls.w	800055c <__udivmoddi4+0x2ac>
 8000448:	3e02      	subs	r6, #2
 800044a:	443b      	add	r3, r7
 800044c:	1a5b      	subs	r3, r3, r1
 800044e:	b281      	uxth	r1, r0
 8000450:	fbb3 f0fe 	udiv	r0, r3, lr
 8000454:	fb0e 3310 	mls	r3, lr, r0, r3
 8000458:	ea41 4103 	orr.w	r1, r1, r3, lsl #16
 800045c:	fb00 f308 	mul.w	r3, r0, r8
 8000460:	428b      	cmp	r3, r1
 8000462:	d907      	bls.n	8000474 <__udivmoddi4+0x1c4>
 8000464:	1879      	adds	r1, r7, r1
 8000466:	f100 3cff 	add.w	ip, r0, #4294967295
 800046a:	d273      	bcs.n	8000554 <__udivmoddi4+0x2a4>
 800046c:	428b      	cmp	r3, r1
 800046e:	d971      	bls.n	8000554 <__udivmoddi4+0x2a4>
 8000470:	3802      	subs	r0, #2
 8000472:	4439      	add	r1, r7
 8000474:	1acb      	subs	r3, r1, r3
 8000476:	ea40 4606 	orr.w	r6, r0, r6, lsl #16
 800047a:	e778      	b.n	800036e <__udivmoddi4+0xbe>
 800047c:	f1c6 0c20 	rsb	ip, r6, #32
 8000480:	fa03 f406 	lsl.w	r4, r3, r6
 8000484:	fa22 f30c 	lsr.w	r3, r2, ip
 8000488:	431c      	orrs	r4, r3
 800048a:	fa20 f70c 	lsr.w	r7, r0, ip
 800048e:	fa01 f306 	lsl.w	r3, r1, r6
 8000492:	ea4f 4e14 	mov.w	lr, r4, lsr #16
 8000496:	fa21 f10c 	lsr.w	r1, r1, ip
 800049a:	431f      	orrs	r7, r3
 800049c:	0c3b      	lsrs	r3, r7, #16
 800049e:	fbb1 f9fe 	udiv	r9, r1, lr
 80004a2:	fa1f f884 	uxth.w	r8, r4
 80004a6:	fb0e 1119 	mls	r1, lr, r9, r1
 80004aa:	ea43 4101 	orr.w	r1, r3, r1, lsl #16
 80004ae:	fb09 fa08 	mul.w	sl, r9, r8
 80004b2:	458a      	cmp	sl, r1
 80004b4:	fa02 f206 	lsl.w	r2, r2, r6
 80004b8:	fa00 f306 	lsl.w	r3, r0, r6
 80004bc:	d908      	bls.n	80004d0 <__udivmoddi4+0x220>
 80004be:	1861      	adds	r1, r4, r1
 80004c0:	f109 30ff 	add.w	r0, r9, #4294967295
 80004c4:	d248      	bcs.n	8000558 <__udivmoddi4+0x2a8>
 80004c6:	458a      	cmp	sl, r1
 80004c8:	d946      	bls.n	8000558 <__udivmoddi4+0x2a8>
 80004ca:	f1a9 0902 	sub.w	r9, r9, #2
 80004ce:	4421      	add	r1, r4
 80004d0:	eba1 010a 	sub.w	r1, r1, sl
 80004d4:	b2bf      	uxth	r7, r7
 80004d6:	fbb1 f0fe 	udiv	r0, r1, lr
 80004da:	fb0e 1110 	mls	r1, lr, r0, r1
 80004de:	ea47 4701 	orr.w	r7, r7, r1, lsl #16
 80004e2:	fb00 f808 	mul.w	r8, r0, r8
 80004e6:	45b8      	cmp	r8, r7
 80004e8:	d907      	bls.n	80004fa <__udivmoddi4+0x24a>
 80004ea:	19e7      	adds	r7, r4, r7
 80004ec:	f100 31ff 	add.w	r1, r0, #4294967295
 80004f0:	d22e      	bcs.n	8000550 <__udivmoddi4+0x2a0>
 80004f2:	45b8      	cmp	r8, r7
 80004f4:	d92c      	bls.n	8000550 <__udivmoddi4+0x2a0>
 80004f6:	3802      	subs	r0, #2
 80004f8:	4427      	add	r7, r4
 80004fa:	ea40 4009 	orr.w	r0, r0, r9, lsl #16
 80004fe:	eba7 0708 	sub.w	r7, r7, r8
 8000502:	fba0 8902 	umull	r8, r9, r0, r2
 8000506:	454f      	cmp	r7, r9
 8000508:	46c6      	mov	lr, r8
 800050a:	4649      	mov	r1, r9
 800050c:	d31a      	bcc.n	8000544 <__udivmoddi4+0x294>
 800050e:	d017      	beq.n	8000540 <__udivmoddi4+0x290>
 8000510:	b15d      	cbz	r5, 800052a <__udivmoddi4+0x27a>
 8000512:	ebb3 020e 	subs.w	r2, r3, lr
 8000516:	eb67 0701 	sbc.w	r7, r7, r1
 800051a:	fa07 fc0c 	lsl.w	ip, r7, ip
 800051e:	40f2      	lsrs	r2, r6
 8000520:	ea4c 0202 	orr.w	r2, ip, r2
 8000524:	40f7      	lsrs	r7, r6
 8000526:	e9c5 2700 	strd	r2, r7, [r5]
 800052a:	2600      	movs	r6, #0
 800052c:	4631      	mov	r1, r6
 800052e:	e8bd 87f0 	ldmia.w	sp!, {r4, r5, r6, r7, r8, r9, sl, pc}
 8000532:	462e      	mov	r6, r5
 8000534:	4628      	mov	r0, r5
 8000536:	e70b      	b.n	8000350 <__udivmoddi4+0xa0>
 8000538:	4606      	mov	r6, r0
 800053a:	e6e9      	b.n	8000310 <__udivmoddi4+0x60>
 800053c:	4618      	mov	r0, r3
 800053e:	e6fd      	b.n	800033c <__udivmoddi4+0x8c>
 8000540:	4543      	cmp	r3, r8
 8000542:	d2e5      	bcs.n	8000510 <__udivmoddi4+0x260>
 8000544:	ebb8 0e02 	subs.w	lr, r8, r2
 8000548:	eb69 0104 	sbc.w	r1, r9, r4
 800054c:	3801      	subs	r0, #1
 800054e:	e7df      	b.n	8000510 <__udivmoddi4+0x260>
 8000550:	4608      	mov	r0, r1
 8000552:	e7d2      	b.n	80004fa <__udivmoddi4+0x24a>
 8000554:	4660      	mov	r0, ip
 8000556:	e78d      	b.n	8000474 <__udivmoddi4+0x1c4>
 8000558:	4681      	mov	r9, r0
 800055a:	e7b9      	b.n	80004d0 <__udivmoddi4+0x220>
 800055c:	4666      	mov	r6, ip
 800055e:	e775      	b.n	800044c <__udivmoddi4+0x19c>
 8000560:	4630      	mov	r0, r6
 8000562:	e74a      	b.n	80003fa <__udivmoddi4+0x14a>
 8000564:	f1ac 0c02 	sub.w	ip, ip, #2
 8000568:	4439      	add	r1, r7
 800056a:	e713      	b.n	8000394 <__udivmoddi4+0xe4>
 800056c:	3802      	subs	r0, #2
 800056e:	443c      	add	r4, r7
 8000570:	e724      	b.n	80003bc <__udivmoddi4+0x10c>
 8000572:	bf00      	nop

08000574 <__aeabi_idiv0>:
 8000574:	4770      	bx	lr
 8000576:	bf00      	nop

08000578 <FL_Parse>:
 */

#include "main.h"

void FL_Parse(char *buf)
{
 8000578:	b590      	push	{r4, r7, lr}
 800057a:	b09f      	sub	sp, #124	; 0x7c
 800057c:	af00      	add	r7, sp, #0
 800057e:	6078      	str	r0, [r7, #4]
	//char splitUp[100] = buf;  //Array in which the sentence is placed
	char *woord;
	char woorden[10][10];
	int i = 0;
 8000580:	2300      	movs	r3, #0
 8000582:	673b      	str	r3, [r7, #112]	; 0x70

	woord = strtok(buf, ",");	 //Find the first word in the sentence which is seperated via the delimiter ","
 8000584:	4928      	ldr	r1, [pc, #160]	; (8000628 <FL_Parse+0xb0>)
 8000586:	6878      	ldr	r0, [r7, #4]
 8000588:	f004 fca8 	bl	8004edc <strtok>
 800058c:	6778      	str	r0, [r7, #116]	; 0x74
	sprintf(woorden[i], woord);
 800058e:	f107 010c 	add.w	r1, r7, #12
 8000592:	6f3a      	ldr	r2, [r7, #112]	; 0x70
 8000594:	4613      	mov	r3, r2
 8000596:	009b      	lsls	r3, r3, #2
 8000598:	4413      	add	r3, r2
 800059a:	005b      	lsls	r3, r3, #1
 800059c:	440b      	add	r3, r1
 800059e:	6f79      	ldr	r1, [r7, #116]	; 0x74
 80005a0:	4618      	mov	r0, r3
 80005a2:	f004 fc7b 	bl	8004e9c <siprintf>

	while(woord != NULL){					 //Find all the other words with the delimiter "," between them
 80005a6:	e013      	b.n	80005d0 <FL_Parse+0x58>
		sprintf(woorden[i], woord);
 80005a8:	f107 010c 	add.w	r1, r7, #12
 80005ac:	6f3a      	ldr	r2, [r7, #112]	; 0x70
 80005ae:	4613      	mov	r3, r2
 80005b0:	009b      	lsls	r3, r3, #2
 80005b2:	4413      	add	r3, r2
 80005b4:	005b      	lsls	r3, r3, #1
 80005b6:	440b      	add	r3, r1
 80005b8:	6f79      	ldr	r1, [r7, #116]	; 0x74
 80005ba:	4618      	mov	r0, r3
 80005bc:	f004 fc6e 	bl	8004e9c <siprintf>
		i++;
 80005c0:	6f3b      	ldr	r3, [r7, #112]	; 0x70
 80005c2:	3301      	adds	r3, #1
 80005c4:	673b      	str	r3, [r7, #112]	; 0x70
		woord = strtok(NULL, ",");
 80005c6:	4918      	ldr	r1, [pc, #96]	; (8000628 <FL_Parse+0xb0>)
 80005c8:	2000      	movs	r0, #0
 80005ca:	f004 fc87 	bl	8004edc <strtok>
 80005ce:	6778      	str	r0, [r7, #116]	; 0x74
	while(woord != NULL){					 //Find all the other words with the delimiter "," between them
 80005d0:	6f7b      	ldr	r3, [r7, #116]	; 0x74
 80005d2:	2b00      	cmp	r3, #0
 80005d4:	d1e8      	bne.n	80005a8 <FL_Parse+0x30>
		//printf("%s\n", woord);			 //print each word
	}

	for (i = 0; i < 10; i++)
 80005d6:	2300      	movs	r3, #0
 80005d8:	673b      	str	r3, [r7, #112]	; 0x70
 80005da:	e01c      	b.n	8000616 <FL_Parse+0x9e>
	{
		HAL_UART_Transmit_DMA(&huart2, (uint8_t*)woorden[i], strlen(woorden[i]));						// send a response
 80005dc:	f107 010c 	add.w	r1, r7, #12
 80005e0:	6f3a      	ldr	r2, [r7, #112]	; 0x70
 80005e2:	4613      	mov	r3, r2
 80005e4:	009b      	lsls	r3, r3, #2
 80005e6:	4413      	add	r3, r2
 80005e8:	005b      	lsls	r3, r3, #1
 80005ea:	18cc      	adds	r4, r1, r3
 80005ec:	f107 010c 	add.w	r1, r7, #12
 80005f0:	6f3a      	ldr	r2, [r7, #112]	; 0x70
 80005f2:	4613      	mov	r3, r2
 80005f4:	009b      	lsls	r3, r3, #2
 80005f6:	4413      	add	r3, r2
 80005f8:	005b      	lsls	r3, r3, #1
 80005fa:	440b      	add	r3, r1
 80005fc:	4618      	mov	r0, r3
 80005fe:	f7ff fde7 	bl	80001d0 <strlen>
 8000602:	4603      	mov	r3, r0
 8000604:	b29b      	uxth	r3, r3
 8000606:	461a      	mov	r2, r3
 8000608:	4621      	mov	r1, r4
 800060a:	4808      	ldr	r0, [pc, #32]	; (800062c <FL_Parse+0xb4>)
 800060c:	f003 fcee 	bl	8003fec <HAL_UART_Transmit_DMA>
	for (i = 0; i < 10; i++)
 8000610:	6f3b      	ldr	r3, [r7, #112]	; 0x70
 8000612:	3301      	adds	r3, #1
 8000614:	673b      	str	r3, [r7, #112]	; 0x70
 8000616:	6f3b      	ldr	r3, [r7, #112]	; 0x70
 8000618:	2b09      	cmp	r3, #9
 800061a:	dddf      	ble.n	80005dc <FL_Parse+0x64>
	}

}
 800061c:	bf00      	nop
 800061e:	bf00      	nop
 8000620:	377c      	adds	r7, #124	; 0x7c
 8000622:	46bd      	mov	sp, r7
 8000624:	bd90      	pop	{r4, r7, pc}
 8000626:	bf00      	nop
 8000628:	08006294 	.word	0x08006294
 800062c:	20013028 	.word	0x20013028

08000630 <MX_DMA_Init>:

/**
  * Enable DMA controller clock
  */
void MX_DMA_Init(void)
{
 8000630:	b580      	push	{r7, lr}
 8000632:	b082      	sub	sp, #8
 8000634:	af00      	add	r7, sp, #0

  /* DMA controller clock enable */
  __HAL_RCC_DMA2_CLK_ENABLE();
 8000636:	2300      	movs	r3, #0
 8000638:	607b      	str	r3, [r7, #4]
 800063a:	4b1b      	ldr	r3, [pc, #108]	; (80006a8 <MX_DMA_Init+0x78>)
 800063c:	6b1b      	ldr	r3, [r3, #48]	; 0x30
 800063e:	4a1a      	ldr	r2, [pc, #104]	; (80006a8 <MX_DMA_Init+0x78>)
 8000640:	f443 0380 	orr.w	r3, r3, #4194304	; 0x400000
 8000644:	6313      	str	r3, [r2, #48]	; 0x30
 8000646:	4b18      	ldr	r3, [pc, #96]	; (80006a8 <MX_DMA_Init+0x78>)
 8000648:	6b1b      	ldr	r3, [r3, #48]	; 0x30
 800064a:	f403 0380 	and.w	r3, r3, #4194304	; 0x400000
 800064e:	607b      	str	r3, [r7, #4]
 8000650:	687b      	ldr	r3, [r7, #4]
  __HAL_RCC_DMA1_CLK_ENABLE();
 8000652:	2300      	movs	r3, #0
 8000654:	603b      	str	r3, [r7, #0]
 8000656:	4b14      	ldr	r3, [pc, #80]	; (80006a8 <MX_DMA_Init+0x78>)
 8000658:	6b1b      	ldr	r3, [r3, #48]	; 0x30
 800065a:	4a13      	ldr	r2, [pc, #76]	; (80006a8 <MX_DMA_Init+0x78>)
 800065c:	f443 1300 	orr.w	r3, r3, #2097152	; 0x200000
 8000660:	6313      	str	r3, [r2, #48]	; 0x30
 8000662:	4b11      	ldr	r3, [pc, #68]	; (80006a8 <MX_DMA_Init+0x78>)
 8000664:	6b1b      	ldr	r3, [r3, #48]	; 0x30
 8000666:	f403 1300 	and.w	r3, r3, #2097152	; 0x200000
 800066a:	603b      	str	r3, [r7, #0]
 800066c:	683b      	ldr	r3, [r7, #0]

  /* DMA interrupt init */
  /* DMA1_Stream5_IRQn interrupt configuration */
  HAL_NVIC_SetPriority(DMA1_Stream5_IRQn, 0, 0);
 800066e:	2200      	movs	r2, #0
 8000670:	2100      	movs	r1, #0
 8000672:	2010      	movs	r0, #16
 8000674:	f001 f83d 	bl	80016f2 <HAL_NVIC_SetPriority>
  HAL_NVIC_EnableIRQ(DMA1_Stream5_IRQn);
 8000678:	2010      	movs	r0, #16
 800067a:	f001 f856 	bl	800172a <HAL_NVIC_EnableIRQ>
  /* DMA1_Stream6_IRQn interrupt configuration */
  HAL_NVIC_SetPriority(DMA1_Stream6_IRQn, 0, 0);
 800067e:	2200      	movs	r2, #0
 8000680:	2100      	movs	r1, #0
 8000682:	2011      	movs	r0, #17
 8000684:	f001 f835 	bl	80016f2 <HAL_NVIC_SetPriority>
  HAL_NVIC_EnableIRQ(DMA1_Stream6_IRQn);
 8000688:	2011      	movs	r0, #17
 800068a:	f001 f84e 	bl	800172a <HAL_NVIC_EnableIRQ>
  /* DMA2_Stream5_IRQn interrupt configuration */
  HAL_NVIC_SetPriority(DMA2_Stream5_IRQn, 0, 0);
 800068e:	2200      	movs	r2, #0
 8000690:	2100      	movs	r1, #0
 8000692:	2044      	movs	r0, #68	; 0x44
 8000694:	f001 f82d 	bl	80016f2 <HAL_NVIC_SetPriority>
  HAL_NVIC_EnableIRQ(DMA2_Stream5_IRQn);
 8000698:	2044      	movs	r0, #68	; 0x44
 800069a:	f001 f846 	bl	800172a <HAL_NVIC_EnableIRQ>

}
 800069e:	bf00      	nop
 80006a0:	3708      	adds	r7, #8
 80006a2:	46bd      	mov	sp, r7
 80006a4:	bd80      	pop	{r7, pc}
 80006a6:	bf00      	nop
 80006a8:	40023800 	.word	0x40023800

080006ac <MX_GPIO_Init>:
        * Output
        * EVENT_OUT
        * EXTI
*/
void MX_GPIO_Init(void)
{
 80006ac:	b580      	push	{r7, lr}
 80006ae:	b08a      	sub	sp, #40	; 0x28
 80006b0:	af00      	add	r7, sp, #0

  GPIO_InitTypeDef GPIO_InitStruct = {0};
 80006b2:	f107 0314 	add.w	r3, r7, #20
 80006b6:	2200      	movs	r2, #0
 80006b8:	601a      	str	r2, [r3, #0]
 80006ba:	605a      	str	r2, [r3, #4]
 80006bc:	609a      	str	r2, [r3, #8]
 80006be:	60da      	str	r2, [r3, #12]
 80006c0:	611a      	str	r2, [r3, #16]

  /* GPIO Ports Clock Enable */
  __HAL_RCC_GPIOH_CLK_ENABLE();
 80006c2:	2300      	movs	r3, #0
 80006c4:	613b      	str	r3, [r7, #16]
 80006c6:	4b32      	ldr	r3, [pc, #200]	; (8000790 <MX_GPIO_Init+0xe4>)
 80006c8:	6b1b      	ldr	r3, [r3, #48]	; 0x30
 80006ca:	4a31      	ldr	r2, [pc, #196]	; (8000790 <MX_GPIO_Init+0xe4>)
 80006cc:	f043 0380 	orr.w	r3, r3, #128	; 0x80
 80006d0:	6313      	str	r3, [r2, #48]	; 0x30
 80006d2:	4b2f      	ldr	r3, [pc, #188]	; (8000790 <MX_GPIO_Init+0xe4>)
 80006d4:	6b1b      	ldr	r3, [r3, #48]	; 0x30
 80006d6:	f003 0380 	and.w	r3, r3, #128	; 0x80
 80006da:	613b      	str	r3, [r7, #16]
 80006dc:	693b      	ldr	r3, [r7, #16]
  __HAL_RCC_GPIOA_CLK_ENABLE();
 80006de:	2300      	movs	r3, #0
 80006e0:	60fb      	str	r3, [r7, #12]
 80006e2:	4b2b      	ldr	r3, [pc, #172]	; (8000790 <MX_GPIO_Init+0xe4>)
 80006e4:	6b1b      	ldr	r3, [r3, #48]	; 0x30
 80006e6:	4a2a      	ldr	r2, [pc, #168]	; (8000790 <MX_GPIO_Init+0xe4>)
 80006e8:	f043 0301 	orr.w	r3, r3, #1
 80006ec:	6313      	str	r3, [r2, #48]	; 0x30
 80006ee:	4b28      	ldr	r3, [pc, #160]	; (8000790 <MX_GPIO_Init+0xe4>)
 80006f0:	6b1b      	ldr	r3, [r3, #48]	; 0x30
 80006f2:	f003 0301 	and.w	r3, r3, #1
 80006f6:	60fb      	str	r3, [r7, #12]
 80006f8:	68fb      	ldr	r3, [r7, #12]
  __HAL_RCC_GPIOE_CLK_ENABLE();
 80006fa:	2300      	movs	r3, #0
 80006fc:	60bb      	str	r3, [r7, #8]
 80006fe:	4b24      	ldr	r3, [pc, #144]	; (8000790 <MX_GPIO_Init+0xe4>)
 8000700:	6b1b      	ldr	r3, [r3, #48]	; 0x30
 8000702:	4a23      	ldr	r2, [pc, #140]	; (8000790 <MX_GPIO_Init+0xe4>)
 8000704:	f043 0310 	orr.w	r3, r3, #16
 8000708:	6313      	str	r3, [r2, #48]	; 0x30
 800070a:	4b21      	ldr	r3, [pc, #132]	; (8000790 <MX_GPIO_Init+0xe4>)
 800070c:	6b1b      	ldr	r3, [r3, #48]	; 0x30
 800070e:	f003 0310 	and.w	r3, r3, #16
 8000712:	60bb      	str	r3, [r7, #8]
 8000714:	68bb      	ldr	r3, [r7, #8]
  __HAL_RCC_GPIOB_CLK_ENABLE();
 8000716:	2300      	movs	r3, #0
 8000718:	607b      	str	r3, [r7, #4]
 800071a:	4b1d      	ldr	r3, [pc, #116]	; (8000790 <MX_GPIO_Init+0xe4>)
 800071c:	6b1b      	ldr	r3, [r3, #48]	; 0x30
 800071e:	4a1c      	ldr	r2, [pc, #112]	; (8000790 <MX_GPIO_Init+0xe4>)
 8000720:	f043 0302 	orr.w	r3, r3, #2
 8000724:	6313      	str	r3, [r2, #48]	; 0x30
 8000726:	4b1a      	ldr	r3, [pc, #104]	; (8000790 <MX_GPIO_Init+0xe4>)
 8000728:	6b1b      	ldr	r3, [r3, #48]	; 0x30
 800072a:	f003 0302 	and.w	r3, r3, #2
 800072e:	607b      	str	r3, [r7, #4]
 8000730:	687b      	ldr	r3, [r7, #4]

  /*Configure GPIO pin Output Level */
  HAL_GPIO_WritePin(GPIOE, VGA_BLUE0_Pin|VGA_BLUE1_Pin|VGA_GREEN0_Pin|VGA_GREEN1_Pin
 8000732:	2200      	movs	r2, #0
 8000734:	f44f 417f 	mov.w	r1, #65280	; 0xff00
 8000738:	4816      	ldr	r0, [pc, #88]	; (8000794 <MX_GPIO_Init+0xe8>)
 800073a:	f001 fdaf 	bl	800229c <HAL_GPIO_WritePin>
                          |VGA_GREEN2_Pin|VGA_RED0_Pin|VGA_RED1_Pin|VGA_RED2_Pin, GPIO_PIN_RESET);

  /*Configure GPIO pin Output Level */
  HAL_GPIO_WritePin(VGA_VSYNC_GPIO_Port, VGA_VSYNC_Pin, GPIO_PIN_RESET);
 800073e:	2200      	movs	r2, #0
 8000740:	f44f 5180 	mov.w	r1, #4096	; 0x1000
 8000744:	4814      	ldr	r0, [pc, #80]	; (8000798 <MX_GPIO_Init+0xec>)
 8000746:	f001 fda9 	bl	800229c <HAL_GPIO_WritePin>

  /*Configure GPIO pins : PEPin PEPin PEPin PEPin
                           PEPin PEPin PEPin PEPin */
  GPIO_InitStruct.Pin = VGA_BLUE0_Pin|VGA_BLUE1_Pin|VGA_GREEN0_Pin|VGA_GREEN1_Pin
 800074a:	f44f 437f 	mov.w	r3, #65280	; 0xff00
 800074e:	617b      	str	r3, [r7, #20]
                          |VGA_GREEN2_Pin|VGA_RED0_Pin|VGA_RED1_Pin|VGA_RED2_Pin;
  GPIO_InitStruct.Mode = GPIO_MODE_OUTPUT_PP;
 8000750:	2301      	movs	r3, #1
 8000752:	61bb      	str	r3, [r7, #24]
  GPIO_InitStruct.Pull = GPIO_NOPULL;
 8000754:	2300      	movs	r3, #0
 8000756:	61fb      	str	r3, [r7, #28]
  GPIO_InitStruct.Speed = GPIO_SPEED_FREQ_VERY_HIGH;
 8000758:	2303      	movs	r3, #3
 800075a:	623b      	str	r3, [r7, #32]
  HAL_GPIO_Init(GPIOE, &GPIO_InitStruct);
 800075c:	f107 0314 	add.w	r3, r7, #20
 8000760:	4619      	mov	r1, r3
 8000762:	480c      	ldr	r0, [pc, #48]	; (8000794 <MX_GPIO_Init+0xe8>)
 8000764:	f001 fbfe 	bl	8001f64 <HAL_GPIO_Init>

  /*Configure GPIO pin : PtPin */
  GPIO_InitStruct.Pin = VGA_VSYNC_Pin;
 8000768:	f44f 5380 	mov.w	r3, #4096	; 0x1000
 800076c:	617b      	str	r3, [r7, #20]
  GPIO_InitStruct.Mode = GPIO_MODE_OUTPUT_PP;
 800076e:	2301      	movs	r3, #1
 8000770:	61bb      	str	r3, [r7, #24]
  GPIO_InitStruct.Pull = GPIO_NOPULL;
 8000772:	2300      	movs	r3, #0
 8000774:	61fb      	str	r3, [r7, #28]
  GPIO_InitStruct.Speed = GPIO_SPEED_FREQ_VERY_HIGH;
 8000776:	2303      	movs	r3, #3
 8000778:	623b      	str	r3, [r7, #32]
  HAL_GPIO_Init(VGA_VSYNC_GPIO_Port, &GPIO_InitStruct);
 800077a:	f107 0314 	add.w	r3, r7, #20
 800077e:	4619      	mov	r1, r3
 8000780:	4805      	ldr	r0, [pc, #20]	; (8000798 <MX_GPIO_Init+0xec>)
 8000782:	f001 fbef 	bl	8001f64 <HAL_GPIO_Init>

}
 8000786:	bf00      	nop
 8000788:	3728      	adds	r7, #40	; 0x28
 800078a:	46bd      	mov	sp, r7
 800078c:	bd80      	pop	{r7, pc}
 800078e:	bf00      	nop
 8000790:	40023800 	.word	0x40023800
 8000794:	40021000 	.word	0x40021000
 8000798:	40020400 	.word	0x40020400

0800079c <main>:
/**
  * @brief  The application entry point.
  * @retval int
  */
int main(void)
{
 800079c:	b580      	push	{r7, lr}
 800079e:	af00      	add	r7, sp, #0
  /* USER CODE END 1 */

  /* MCU Configuration--------------------------------------------------------*/

  /* Reset of all peripherals, Initializes the Flash interface and the Systick. */
  HAL_Init();
 80007a0:	f000 fe5a 	bl	8001458 <HAL_Init>
  /* USER CODE BEGIN Init */

  /* USER CODE END Init */

  /* Configure the system clock */
  SystemClock_Config();
 80007a4:	f000 f83e 	bl	8000824 <SystemClock_Config>
  /* USER CODE BEGIN SysInit */

  /* USER CODE END SysInit */

  /* Initialize all configured peripherals */
  MX_GPIO_Init();
 80007a8:	f7ff ff80 	bl	80006ac <MX_GPIO_Init>
  MX_DMA_Init();
 80007ac:	f7ff ff40 	bl	8000630 <MX_DMA_Init>
  MX_TIM1_Init();
 80007b0:	f000 fb24 	bl	8000dfc <MX_TIM1_Init>
  MX_TIM2_Init();
 80007b4:	f000 fb72 	bl	8000e9c <MX_TIM2_Init>
  MX_USART2_UART_Init();
 80007b8:	f000 fc88 	bl	80010cc <MX_USART2_UART_Init>
  /* USER CODE BEGIN 2 */

  UB_VGA_Screen_Init(); // Init VGA-Screen
 80007bc:	f000 f8a4 	bl	8000908 <UB_VGA_Screen_Init>

  UB_VGA_FillScreen(VGA_COL_WHITE);
 80007c0:	20ff      	movs	r0, #255	; 0xff
 80007c2:	f000 f8f3 	bl	80009ac <UB_VGA_FillScreen>
  UB_VGA_SetPixel(10,10,10);
 80007c6:	220a      	movs	r2, #10
 80007c8:	210a      	movs	r1, #10
 80007ca:	200a      	movs	r0, #10
 80007cc:	f000 f912 	bl	80009f4 <UB_VGA_SetPixel>
  UB_VGA_SetPixel(0,0,10);
 80007d0:	220a      	movs	r2, #10
 80007d2:	2100      	movs	r1, #0
 80007d4:	2000      	movs	r0, #0
 80007d6:	f000 f90d 	bl	80009f4 <UB_VGA_SetPixel>
  UB_VGA_SetPixel(319,0,10);
 80007da:	220a      	movs	r2, #10
 80007dc:	2100      	movs	r1, #0
 80007de:	f240 103f 	movw	r0, #319	; 0x13f
 80007e2:	f000 f907 	bl	80009f4 <UB_VGA_SetPixel>

  __HAL_UART_ENABLE_IT(&huart2, UART_IT_IDLE);
 80007e6:	4b0c      	ldr	r3, [pc, #48]	; (8000818 <main+0x7c>)
 80007e8:	681b      	ldr	r3, [r3, #0]
 80007ea:	68da      	ldr	r2, [r3, #12]
 80007ec:	4b0a      	ldr	r3, [pc, #40]	; (8000818 <main+0x7c>)
 80007ee:	681b      	ldr	r3, [r3, #0]
 80007f0:	f042 0210 	orr.w	r2, r2, #16
 80007f4:	60da      	str	r2, [r3, #12]
  HAL_UART_Receive_DMA(&huart2, UART2_rxBuffer, RX_BUFSIZE);
 80007f6:	2280      	movs	r2, #128	; 0x80
 80007f8:	4908      	ldr	r1, [pc, #32]	; (800081c <main+0x80>)
 80007fa:	4807      	ldr	r0, [pc, #28]	; (8000818 <main+0x7c>)
 80007fc:	f003 fc62 	bl	80040c4 <HAL_UART_Receive_DMA>
  HAL_UART_Transmit(&huart2, US_mess, (uint8_t)strlen((char*)US_mess), 100);
 8000800:	4807      	ldr	r0, [pc, #28]	; (8000820 <main+0x84>)
 8000802:	f7ff fce5 	bl	80001d0 <strlen>
 8000806:	4603      	mov	r3, r0
 8000808:	b2db      	uxtb	r3, r3
 800080a:	b29a      	uxth	r2, r3
 800080c:	2364      	movs	r3, #100	; 0x64
 800080e:	4904      	ldr	r1, [pc, #16]	; (8000820 <main+0x84>)
 8000810:	4801      	ldr	r0, [pc, #4]	; (8000818 <main+0x7c>)
 8000812:	f003 fb58 	bl	8003ec6 <HAL_UART_Transmit>

  /* USER CODE END 2 */

  /* Infinite loop */
  /* USER CODE BEGIN WHILE */
  while (1)
 8000816:	e7fe      	b.n	8000816 <main+0x7a>
 8000818:	20013028 	.word	0x20013028
 800081c:	20012ea8 	.word	0x20012ea8
 8000820:	20000000 	.word	0x20000000

08000824 <SystemClock_Config>:
/**
  * @brief System Clock Configuration
  * @retval None
  */
void SystemClock_Config(void)
{
 8000824:	b580      	push	{r7, lr}
 8000826:	b094      	sub	sp, #80	; 0x50
 8000828:	af00      	add	r7, sp, #0
  RCC_OscInitTypeDef RCC_OscInitStruct = {0};
 800082a:	f107 0320 	add.w	r3, r7, #32
 800082e:	2230      	movs	r2, #48	; 0x30
 8000830:	2100      	movs	r1, #0
 8000832:	4618      	mov	r0, r3
 8000834:	f004 fb2a 	bl	8004e8c <memset>
  RCC_ClkInitTypeDef RCC_ClkInitStruct = {0};
 8000838:	f107 030c 	add.w	r3, r7, #12
 800083c:	2200      	movs	r2, #0
 800083e:	601a      	str	r2, [r3, #0]
 8000840:	605a      	str	r2, [r3, #4]
 8000842:	609a      	str	r2, [r3, #8]
 8000844:	60da      	str	r2, [r3, #12]
 8000846:	611a      	str	r2, [r3, #16]

  /** Configure the main internal regulator output voltage
  */
  __HAL_RCC_PWR_CLK_ENABLE();
 8000848:	2300      	movs	r3, #0
 800084a:	60bb      	str	r3, [r7, #8]
 800084c:	4b28      	ldr	r3, [pc, #160]	; (80008f0 <SystemClock_Config+0xcc>)
 800084e:	6c1b      	ldr	r3, [r3, #64]	; 0x40
 8000850:	4a27      	ldr	r2, [pc, #156]	; (80008f0 <SystemClock_Config+0xcc>)
 8000852:	f043 5380 	orr.w	r3, r3, #268435456	; 0x10000000
 8000856:	6413      	str	r3, [r2, #64]	; 0x40
 8000858:	4b25      	ldr	r3, [pc, #148]	; (80008f0 <SystemClock_Config+0xcc>)
 800085a:	6c1b      	ldr	r3, [r3, #64]	; 0x40
 800085c:	f003 5380 	and.w	r3, r3, #268435456	; 0x10000000
 8000860:	60bb      	str	r3, [r7, #8]
 8000862:	68bb      	ldr	r3, [r7, #8]
  __HAL_PWR_VOLTAGESCALING_CONFIG(PWR_REGULATOR_VOLTAGE_SCALE1);
 8000864:	2300      	movs	r3, #0
 8000866:	607b      	str	r3, [r7, #4]
 8000868:	4b22      	ldr	r3, [pc, #136]	; (80008f4 <SystemClock_Config+0xd0>)
 800086a:	681b      	ldr	r3, [r3, #0]
 800086c:	4a21      	ldr	r2, [pc, #132]	; (80008f4 <SystemClock_Config+0xd0>)
 800086e:	f443 4380 	orr.w	r3, r3, #16384	; 0x4000
 8000872:	6013      	str	r3, [r2, #0]
 8000874:	4b1f      	ldr	r3, [pc, #124]	; (80008f4 <SystemClock_Config+0xd0>)
 8000876:	681b      	ldr	r3, [r3, #0]
 8000878:	f403 4380 	and.w	r3, r3, #16384	; 0x4000
 800087c:	607b      	str	r3, [r7, #4]
 800087e:	687b      	ldr	r3, [r7, #4]
  /** Initializes the RCC Oscillators according to the specified parameters
  * in the RCC_OscInitTypeDef structure.
  */
  RCC_OscInitStruct.OscillatorType = RCC_OSCILLATORTYPE_HSE;
 8000880:	2301      	movs	r3, #1
 8000882:	623b      	str	r3, [r7, #32]
  RCC_OscInitStruct.HSEState = RCC_HSE_ON;
 8000884:	f44f 3380 	mov.w	r3, #65536	; 0x10000
 8000888:	627b      	str	r3, [r7, #36]	; 0x24
  RCC_OscInitStruct.PLL.PLLState = RCC_PLL_ON;
 800088a:	2302      	movs	r3, #2
 800088c:	63bb      	str	r3, [r7, #56]	; 0x38
  RCC_OscInitStruct.PLL.PLLSource = RCC_PLLSOURCE_HSE;
 800088e:	f44f 0380 	mov.w	r3, #4194304	; 0x400000
 8000892:	63fb      	str	r3, [r7, #60]	; 0x3c
  RCC_OscInitStruct.PLL.PLLM = 4;
 8000894:	2304      	movs	r3, #4
 8000896:	643b      	str	r3, [r7, #64]	; 0x40
  RCC_OscInitStruct.PLL.PLLN = 168;
 8000898:	23a8      	movs	r3, #168	; 0xa8
 800089a:	647b      	str	r3, [r7, #68]	; 0x44
  RCC_OscInitStruct.PLL.PLLP = RCC_PLLP_DIV2;
 800089c:	2302      	movs	r3, #2
 800089e:	64bb      	str	r3, [r7, #72]	; 0x48
  RCC_OscInitStruct.PLL.PLLQ = 4;
 80008a0:	2304      	movs	r3, #4
 80008a2:	64fb      	str	r3, [r7, #76]	; 0x4c
  if (HAL_RCC_OscConfig(&RCC_OscInitStruct) != HAL_OK)
 80008a4:	f107 0320 	add.w	r3, r7, #32
 80008a8:	4618      	mov	r0, r3
 80008aa:	f001 fd11 	bl	80022d0 <HAL_RCC_OscConfig>
 80008ae:	4603      	mov	r3, r0
 80008b0:	2b00      	cmp	r3, #0
 80008b2:	d001      	beq.n	80008b8 <SystemClock_Config+0x94>
  {
    Error_Handler();
 80008b4:	f000 f820 	bl	80008f8 <Error_Handler>
  }
  /** Initializes the CPU, AHB and APB buses clocks
  */
  RCC_ClkInitStruct.ClockType = RCC_CLOCKTYPE_HCLK|RCC_CLOCKTYPE_SYSCLK
 80008b8:	230f      	movs	r3, #15
 80008ba:	60fb      	str	r3, [r7, #12]
                              |RCC_CLOCKTYPE_PCLK1|RCC_CLOCKTYPE_PCLK2;
  RCC_ClkInitStruct.SYSCLKSource = RCC_SYSCLKSOURCE_PLLCLK;
 80008bc:	2302      	movs	r3, #2
 80008be:	613b      	str	r3, [r7, #16]
  RCC_ClkInitStruct.AHBCLKDivider = RCC_SYSCLK_DIV1;
 80008c0:	2300      	movs	r3, #0
 80008c2:	617b      	str	r3, [r7, #20]
  RCC_ClkInitStruct.APB1CLKDivider = RCC_HCLK_DIV4;
 80008c4:	f44f 53a0 	mov.w	r3, #5120	; 0x1400
 80008c8:	61bb      	str	r3, [r7, #24]
  RCC_ClkInitStruct.APB2CLKDivider = RCC_HCLK_DIV2;
 80008ca:	f44f 5380 	mov.w	r3, #4096	; 0x1000
 80008ce:	61fb      	str	r3, [r7, #28]

  if (HAL_RCC_ClockConfig(&RCC_ClkInitStruct, FLASH_LATENCY_5) != HAL_OK)
 80008d0:	f107 030c 	add.w	r3, r7, #12
 80008d4:	2105      	movs	r1, #5
 80008d6:	4618      	mov	r0, r3
 80008d8:	f001 ff72 	bl	80027c0 <HAL_RCC_ClockConfig>
 80008dc:	4603      	mov	r3, r0
 80008de:	2b00      	cmp	r3, #0
 80008e0:	d001      	beq.n	80008e6 <SystemClock_Config+0xc2>
  {
    Error_Handler();
 80008e2:	f000 f809 	bl	80008f8 <Error_Handler>
  }
}
 80008e6:	bf00      	nop
 80008e8:	3750      	adds	r7, #80	; 0x50
 80008ea:	46bd      	mov	sp, r7
 80008ec:	bd80      	pop	{r7, pc}
 80008ee:	bf00      	nop
 80008f0:	40023800 	.word	0x40023800
 80008f4:	40007000 	.word	0x40007000

080008f8 <Error_Handler>:
/**
  * @brief  This function is executed in case of error occurrence.
  * @retval None
  */
void Error_Handler(void)
{
 80008f8:	b480      	push	{r7}
 80008fa:	af00      	add	r7, sp, #0
  /* USER CODE BEGIN Error_Handler_Debug */
  /* User can add his own implementation to report the HAL error return state */

  /* USER CODE END Error_Handler_Debug */
}
 80008fc:	bf00      	nop
 80008fe:	46bd      	mov	sp, r7
 8000900:	f85d 7b04 	ldr.w	r7, [sp], #4
 8000904:	4770      	bx	lr
	...

08000908 <UB_VGA_Screen_Init>:

//--------------------------------------------------------------
// Init VGA-Module
//--------------------------------------------------------------
void UB_VGA_Screen_Init(void)
{
 8000908:	b580      	push	{r7, lr}
 800090a:	af00      	add	r7, sp, #0
  VGA.hsync_cnt = 0;
 800090c:	4b1f      	ldr	r3, [pc, #124]	; (800098c <UB_VGA_Screen_Init+0x84>)
 800090e:	2200      	movs	r2, #0
 8000910:	801a      	strh	r2, [r3, #0]
  VGA.start_adr = 0;
 8000912:	4b1e      	ldr	r3, [pc, #120]	; (800098c <UB_VGA_Screen_Init+0x84>)
 8000914:	2200      	movs	r2, #0
 8000916:	605a      	str	r2, [r3, #4]
  VGA.dma2_cr_reg = 0;
 8000918:	4b1c      	ldr	r3, [pc, #112]	; (800098c <UB_VGA_Screen_Init+0x84>)
 800091a:	2200      	movs	r2, #0
 800091c:	609a      	str	r2, [r3, #8]

  GPIOB->BSRR = VGA_VSYNC_Pin;
 800091e:	4b1c      	ldr	r3, [pc, #112]	; (8000990 <UB_VGA_Screen_Init+0x88>)
 8000920:	f44f 5280 	mov.w	r2, #4096	; 0x1000
 8000924:	619a      	str	r2, [r3, #24]

  // TIM2
  HAL_TIM_Base_Start(&htim2);
 8000926:	481b      	ldr	r0, [pc, #108]	; (8000994 <UB_VGA_Screen_Init+0x8c>)
 8000928:	f002 f996 	bl	8002c58 <HAL_TIM_Base_Start>
  HAL_TIM_PWM_Start(&htim2, TIM_CHANNEL_4);
 800092c:	210c      	movs	r1, #12
 800092e:	4819      	ldr	r0, [pc, #100]	; (8000994 <UB_VGA_Screen_Init+0x8c>)
 8000930:	f002 fa4a 	bl	8002dc8 <HAL_TIM_PWM_Start>
  HAL_TIM_PWM_Start_IT(&htim2, TIM_CHANNEL_3);
 8000934:	2108      	movs	r1, #8
 8000936:	4817      	ldr	r0, [pc, #92]	; (8000994 <UB_VGA_Screen_Init+0x8c>)
 8000938:	f002 fb0e 	bl	8002f58 <HAL_TIM_PWM_Start_IT>

  // TIM1
  __HAL_TIM_ENABLE_DMA(&htim1, TIM_DMA_UPDATE);
 800093c:	4b16      	ldr	r3, [pc, #88]	; (8000998 <UB_VGA_Screen_Init+0x90>)
 800093e:	681b      	ldr	r3, [r3, #0]
 8000940:	68da      	ldr	r2, [r3, #12]
 8000942:	4b15      	ldr	r3, [pc, #84]	; (8000998 <UB_VGA_Screen_Init+0x90>)
 8000944:	681b      	ldr	r3, [r3, #0]
 8000946:	f442 7280 	orr.w	r2, r2, #256	; 0x100
 800094a:	60da      	str	r2, [r3, #12]
  __HAL_TIM_ENABLE(&htim1);
 800094c:	4b12      	ldr	r3, [pc, #72]	; (8000998 <UB_VGA_Screen_Init+0x90>)
 800094e:	681b      	ldr	r3, [r3, #0]
 8000950:	681a      	ldr	r2, [r3, #0]
 8000952:	4b11      	ldr	r3, [pc, #68]	; (8000998 <UB_VGA_Screen_Init+0x90>)
 8000954:	681b      	ldr	r3, [r3, #0]
 8000956:	f042 0201 	orr.w	r2, r2, #1
 800095a:	601a      	str	r2, [r3, #0]
  HAL_DMA_Start_IT(&hdma_tim1_up, (uint32_t)&VGA_RAM1[0], VGA_GPIOE_ODR_ADDRESS, VGA_DISPLAY_X + 1);
 800095c:	490f      	ldr	r1, [pc, #60]	; (800099c <UB_VGA_Screen_Init+0x94>)
 800095e:	f240 1341 	movw	r3, #321	; 0x141
 8000962:	4a0f      	ldr	r2, [pc, #60]	; (80009a0 <UB_VGA_Screen_Init+0x98>)
 8000964:	480f      	ldr	r0, [pc, #60]	; (80009a4 <UB_VGA_Screen_Init+0x9c>)
 8000966:	f000 ffa9 	bl	80018bc <HAL_DMA_Start_IT>

  HAL_DMA_Init(&hdma_tim1_up);
 800096a:	480e      	ldr	r0, [pc, #56]	; (80009a4 <UB_VGA_Screen_Init+0x9c>)
 800096c:	f000 fef8 	bl	8001760 <HAL_DMA_Init>
  __HAL_DMA_ENABLE_IT(&hdma_tim1_up, DMA_IT_TC);
 8000970:	4b0c      	ldr	r3, [pc, #48]	; (80009a4 <UB_VGA_Screen_Init+0x9c>)
 8000972:	681b      	ldr	r3, [r3, #0]
 8000974:	681a      	ldr	r2, [r3, #0]
 8000976:	4b0b      	ldr	r3, [pc, #44]	; (80009a4 <UB_VGA_Screen_Init+0x9c>)
 8000978:	681b      	ldr	r3, [r3, #0]
 800097a:	f042 0210 	orr.w	r2, r2, #16
 800097e:	601a      	str	r2, [r3, #0]

  //-----------------------
  // Register swap and safe
  //-----------------------
  // content of CR-Register read and save
  VGA.dma2_cr_reg = DMA2_Stream5->CR;
 8000980:	4b09      	ldr	r3, [pc, #36]	; (80009a8 <UB_VGA_Screen_Init+0xa0>)
 8000982:	681b      	ldr	r3, [r3, #0]
 8000984:	4a01      	ldr	r2, [pc, #4]	; (800098c <UB_VGA_Screen_Init+0x84>)
 8000986:	6093      	str	r3, [r2, #8]
}
 8000988:	bf00      	nop
 800098a:	bd80      	pop	{r7, pc}
 800098c:	200000bc 	.word	0x200000bc
 8000990:	40020400 	.word	0x40020400
 8000994:	20012e60 	.word	0x20012e60
 8000998:	20012db8 	.word	0x20012db8
 800099c:	200000c8 	.word	0x200000c8
 80009a0:	40021015 	.word	0x40021015
 80009a4:	20012e00 	.word	0x20012e00
 80009a8:	40026488 	.word	0x40026488

080009ac <UB_VGA_FillScreen>:

//--------------------------------------------------------------
// fill the DMA RAM buffer with one color
//--------------------------------------------------------------
void UB_VGA_FillScreen(uint8_t color)
{
 80009ac:	b580      	push	{r7, lr}
 80009ae:	b084      	sub	sp, #16
 80009b0:	af00      	add	r7, sp, #0
 80009b2:	4603      	mov	r3, r0
 80009b4:	71fb      	strb	r3, [r7, #7]
  uint16_t xp,yp;

  for(yp = 0; yp < VGA_DISPLAY_Y; yp++) {
 80009b6:	2300      	movs	r3, #0
 80009b8:	81bb      	strh	r3, [r7, #12]
 80009ba:	e012      	b.n	80009e2 <UB_VGA_FillScreen+0x36>
    for(xp = 0; xp < VGA_DISPLAY_X; xp++) {
 80009bc:	2300      	movs	r3, #0
 80009be:	81fb      	strh	r3, [r7, #14]
 80009c0:	e008      	b.n	80009d4 <UB_VGA_FillScreen+0x28>
      UB_VGA_SetPixel(xp, yp, color);
 80009c2:	79fa      	ldrb	r2, [r7, #7]
 80009c4:	89b9      	ldrh	r1, [r7, #12]
 80009c6:	89fb      	ldrh	r3, [r7, #14]
 80009c8:	4618      	mov	r0, r3
 80009ca:	f000 f813 	bl	80009f4 <UB_VGA_SetPixel>
    for(xp = 0; xp < VGA_DISPLAY_X; xp++) {
 80009ce:	89fb      	ldrh	r3, [r7, #14]
 80009d0:	3301      	adds	r3, #1
 80009d2:	81fb      	strh	r3, [r7, #14]
 80009d4:	89fb      	ldrh	r3, [r7, #14]
 80009d6:	f5b3 7fa0 	cmp.w	r3, #320	; 0x140
 80009da:	d3f2      	bcc.n	80009c2 <UB_VGA_FillScreen+0x16>
  for(yp = 0; yp < VGA_DISPLAY_Y; yp++) {
 80009dc:	89bb      	ldrh	r3, [r7, #12]
 80009de:	3301      	adds	r3, #1
 80009e0:	81bb      	strh	r3, [r7, #12]
 80009e2:	89bb      	ldrh	r3, [r7, #12]
 80009e4:	2bef      	cmp	r3, #239	; 0xef
 80009e6:	d9e9      	bls.n	80009bc <UB_VGA_FillScreen+0x10>
    }
  }
}
 80009e8:	bf00      	nop
 80009ea:	bf00      	nop
 80009ec:	3710      	adds	r7, #16
 80009ee:	46bd      	mov	sp, r7
 80009f0:	bd80      	pop	{r7, pc}
	...

080009f4 <UB_VGA_SetPixel>:
//--------------------------------------------------------------
// put one Pixel on the screen with one color
// Important : the last Pixel+1 from every line must be black (don't know why??)
//--------------------------------------------------------------
void UB_VGA_SetPixel(uint16_t xp, uint16_t yp, uint8_t color)
{
 80009f4:	b480      	push	{r7}
 80009f6:	b083      	sub	sp, #12
 80009f8:	af00      	add	r7, sp, #0
 80009fa:	4603      	mov	r3, r0
 80009fc:	80fb      	strh	r3, [r7, #6]
 80009fe:	460b      	mov	r3, r1
 8000a00:	80bb      	strh	r3, [r7, #4]
 8000a02:	4613      	mov	r3, r2
 8000a04:	70fb      	strb	r3, [r7, #3]
  if(xp >= VGA_DISPLAY_X)
 8000a06:	88fb      	ldrh	r3, [r7, #6]
 8000a08:	f5b3 7fa0 	cmp.w	r3, #320	; 0x140
 8000a0c:	d301      	bcc.n	8000a12 <UB_VGA_SetPixel+0x1e>
    xp = 0;
 8000a0e:	2300      	movs	r3, #0
 8000a10:	80fb      	strh	r3, [r7, #6]
  if(yp >= VGA_DISPLAY_Y)
 8000a12:	88bb      	ldrh	r3, [r7, #4]
 8000a14:	2bef      	cmp	r3, #239	; 0xef
 8000a16:	d901      	bls.n	8000a1c <UB_VGA_SetPixel+0x28>
    yp = 0;
 8000a18:	2300      	movs	r3, #0
 8000a1a:	80bb      	strh	r3, [r7, #4]

  // Write pixel to ram
  VGA_RAM1[(yp * (VGA_DISPLAY_X + 1)) + xp] = color;
 8000a1c:	88ba      	ldrh	r2, [r7, #4]
 8000a1e:	4613      	mov	r3, r2
 8000a20:	009b      	lsls	r3, r3, #2
 8000a22:	4413      	add	r3, r2
 8000a24:	019b      	lsls	r3, r3, #6
 8000a26:	441a      	add	r2, r3
 8000a28:	88fb      	ldrh	r3, [r7, #6]
 8000a2a:	4413      	add	r3, r2
 8000a2c:	4904      	ldr	r1, [pc, #16]	; (8000a40 <UB_VGA_SetPixel+0x4c>)
 8000a2e:	78fa      	ldrb	r2, [r7, #3]
 8000a30:	54ca      	strb	r2, [r1, r3]
}
 8000a32:	bf00      	nop
 8000a34:	370c      	adds	r7, #12
 8000a36:	46bd      	mov	sp, r7
 8000a38:	f85d 7b04 	ldr.w	r7, [sp], #4
 8000a3c:	4770      	bx	lr
 8000a3e:	bf00      	nop
 8000a40:	200000c8 	.word	0x200000c8

08000a44 <HAL_MspInit>:
/* USER CODE END 0 */
/**
  * Initializes the Global MSP.
  */
void HAL_MspInit(void)
{
 8000a44:	b480      	push	{r7}
 8000a46:	b083      	sub	sp, #12
 8000a48:	af00      	add	r7, sp, #0
  /* USER CODE BEGIN MspInit 0 */

  /* USER CODE END MspInit 0 */

  __HAL_RCC_SYSCFG_CLK_ENABLE();
 8000a4a:	2300      	movs	r3, #0
 8000a4c:	607b      	str	r3, [r7, #4]
 8000a4e:	4b10      	ldr	r3, [pc, #64]	; (8000a90 <HAL_MspInit+0x4c>)
 8000a50:	6c5b      	ldr	r3, [r3, #68]	; 0x44
 8000a52:	4a0f      	ldr	r2, [pc, #60]	; (8000a90 <HAL_MspInit+0x4c>)
 8000a54:	f443 4380 	orr.w	r3, r3, #16384	; 0x4000
 8000a58:	6453      	str	r3, [r2, #68]	; 0x44
 8000a5a:	4b0d      	ldr	r3, [pc, #52]	; (8000a90 <HAL_MspInit+0x4c>)
 8000a5c:	6c5b      	ldr	r3, [r3, #68]	; 0x44
 8000a5e:	f403 4380 	and.w	r3, r3, #16384	; 0x4000
 8000a62:	607b      	str	r3, [r7, #4]
 8000a64:	687b      	ldr	r3, [r7, #4]
  __HAL_RCC_PWR_CLK_ENABLE();
 8000a66:	2300      	movs	r3, #0
 8000a68:	603b      	str	r3, [r7, #0]
 8000a6a:	4b09      	ldr	r3, [pc, #36]	; (8000a90 <HAL_MspInit+0x4c>)
 8000a6c:	6c1b      	ldr	r3, [r3, #64]	; 0x40
 8000a6e:	4a08      	ldr	r2, [pc, #32]	; (8000a90 <HAL_MspInit+0x4c>)
 8000a70:	f043 5380 	orr.w	r3, r3, #268435456	; 0x10000000
 8000a74:	6413      	str	r3, [r2, #64]	; 0x40
 8000a76:	4b06      	ldr	r3, [pc, #24]	; (8000a90 <HAL_MspInit+0x4c>)
 8000a78:	6c1b      	ldr	r3, [r3, #64]	; 0x40
 8000a7a:	f003 5380 	and.w	r3, r3, #268435456	; 0x10000000
 8000a7e:	603b      	str	r3, [r7, #0]
 8000a80:	683b      	ldr	r3, [r7, #0]
  /* System interrupt init*/

  /* USER CODE BEGIN MspInit 1 */

  /* USER CODE END MspInit 1 */
}
 8000a82:	bf00      	nop
 8000a84:	370c      	adds	r7, #12
 8000a86:	46bd      	mov	sp, r7
 8000a88:	f85d 7b04 	ldr.w	r7, [sp], #4
 8000a8c:	4770      	bx	lr
 8000a8e:	bf00      	nop
 8000a90:	40023800 	.word	0x40023800

08000a94 <NMI_Handler>:
/******************************************************************************/
/**
  * @brief This function handles Non maskable interrupt.
  */
void NMI_Handler(void)
{
 8000a94:	b480      	push	{r7}
 8000a96:	af00      	add	r7, sp, #0

  /* USER CODE END NonMaskableInt_IRQn 0 */
  /* USER CODE BEGIN NonMaskableInt_IRQn 1 */

  /* USER CODE END NonMaskableInt_IRQn 1 */
}
 8000a98:	bf00      	nop
 8000a9a:	46bd      	mov	sp, r7
 8000a9c:	f85d 7b04 	ldr.w	r7, [sp], #4
 8000aa0:	4770      	bx	lr

08000aa2 <HardFault_Handler>:

/**
  * @brief This function handles Hard fault interrupt.
  */
void HardFault_Handler(void)
{
 8000aa2:	b480      	push	{r7}
 8000aa4:	af00      	add	r7, sp, #0
  /* USER CODE BEGIN HardFault_IRQn 0 */

  /* USER CODE END HardFault_IRQn 0 */
  while (1)
 8000aa6:	e7fe      	b.n	8000aa6 <HardFault_Handler+0x4>

08000aa8 <MemManage_Handler>:

/**
  * @brief This function handles Memory management fault.
  */
void MemManage_Handler(void)
{
 8000aa8:	b480      	push	{r7}
 8000aaa:	af00      	add	r7, sp, #0
  /* USER CODE BEGIN MemoryManagement_IRQn 0 */

  /* USER CODE END MemoryManagement_IRQn 0 */
  while (1)
 8000aac:	e7fe      	b.n	8000aac <MemManage_Handler+0x4>

08000aae <BusFault_Handler>:

/**
  * @brief This function handles Pre-fetch fault, memory access fault.
  */
void BusFault_Handler(void)
{
 8000aae:	b480      	push	{r7}
 8000ab0:	af00      	add	r7, sp, #0
  /* USER CODE BEGIN BusFault_IRQn 0 */

  /* USER CODE END BusFault_IRQn 0 */
  while (1)
 8000ab2:	e7fe      	b.n	8000ab2 <BusFault_Handler+0x4>

08000ab4 <UsageFault_Handler>:

/**
  * @brief This function handles Undefined instruction or illegal state.
  */
void UsageFault_Handler(void)
{
 8000ab4:	b480      	push	{r7}
 8000ab6:	af00      	add	r7, sp, #0
  /* USER CODE BEGIN UsageFault_IRQn 0 */

  /* USER CODE END UsageFault_IRQn 0 */
  while (1)
 8000ab8:	e7fe      	b.n	8000ab8 <UsageFault_Handler+0x4>

08000aba <SVC_Handler>:

/**
  * @brief This function handles System service call via SWI instruction.
  */
void SVC_Handler(void)
{
 8000aba:	b480      	push	{r7}
 8000abc:	af00      	add	r7, sp, #0

  /* USER CODE END SVCall_IRQn 0 */
  /* USER CODE BEGIN SVCall_IRQn 1 */

  /* USER CODE END SVCall_IRQn 1 */
}
 8000abe:	bf00      	nop
 8000ac0:	46bd      	mov	sp, r7
 8000ac2:	f85d 7b04 	ldr.w	r7, [sp], #4
 8000ac6:	4770      	bx	lr

08000ac8 <DebugMon_Handler>:

/**
  * @brief This function handles Debug monitor.
  */
void DebugMon_Handler(void)
{
 8000ac8:	b480      	push	{r7}
 8000aca:	af00      	add	r7, sp, #0

  /* USER CODE END DebugMonitor_IRQn 0 */
  /* USER CODE BEGIN DebugMonitor_IRQn 1 */

  /* USER CODE END DebugMonitor_IRQn 1 */
}
 8000acc:	bf00      	nop
 8000ace:	46bd      	mov	sp, r7
 8000ad0:	f85d 7b04 	ldr.w	r7, [sp], #4
 8000ad4:	4770      	bx	lr

08000ad6 <PendSV_Handler>:

/**
  * @brief This function handles Pendable request for system service.
  */
void PendSV_Handler(void)
{
 8000ad6:	b480      	push	{r7}
 8000ad8:	af00      	add	r7, sp, #0

  /* USER CODE END PendSV_IRQn 0 */
  /* USER CODE BEGIN PendSV_IRQn 1 */

  /* USER CODE END PendSV_IRQn 1 */
}
 8000ada:	bf00      	nop
 8000adc:	46bd      	mov	sp, r7
 8000ade:	f85d 7b04 	ldr.w	r7, [sp], #4
 8000ae2:	4770      	bx	lr

08000ae4 <SysTick_Handler>:

/**
  * @brief This function handles System tick timer.
  */
void SysTick_Handler(void)
{
 8000ae4:	b580      	push	{r7, lr}
 8000ae6:	af00      	add	r7, sp, #0
  /* USER CODE BEGIN SysTick_IRQn 0 */

  /* USER CODE END SysTick_IRQn 0 */
  HAL_IncTick();
 8000ae8:	f000 fd08 	bl	80014fc <HAL_IncTick>
  /* USER CODE BEGIN SysTick_IRQn 1 */

  /* USER CODE END SysTick_IRQn 1 */
}
 8000aec:	bf00      	nop
 8000aee:	bd80      	pop	{r7, pc}

08000af0 <DMA1_Stream5_IRQHandler>:

/**
  * @brief This function handles DMA1 stream5 global interrupt.
  */
void DMA1_Stream5_IRQHandler(void)
{
 8000af0:	b580      	push	{r7, lr}
 8000af2:	af00      	add	r7, sp, #0
  /* USER CODE BEGIN DMA1_Stream5_IRQn 0 */

  /* USER CODE END DMA1_Stream5_IRQn 0 */
  HAL_DMA_IRQHandler(&hdma_usart2_rx);
 8000af4:	4802      	ldr	r0, [pc, #8]	; (8000b00 <DMA1_Stream5_IRQHandler+0x10>)
 8000af6:	f000 ffcb 	bl	8001a90 <HAL_DMA_IRQHandler>
  /* USER CODE BEGIN DMA1_Stream5_IRQn 1 */

  /* USER CODE END DMA1_Stream5_IRQn 1 */
}
 8000afa:	bf00      	nop
 8000afc:	bd80      	pop	{r7, pc}
 8000afe:	bf00      	nop
 8000b00:	20012f28 	.word	0x20012f28

08000b04 <DMA1_Stream6_IRQHandler>:

/**
  * @brief This function handles DMA1 stream6 global interrupt.
  */
void DMA1_Stream6_IRQHandler(void)
{
 8000b04:	b580      	push	{r7, lr}
 8000b06:	af00      	add	r7, sp, #0
  /* USER CODE BEGIN DMA1_Stream6_IRQn 0 */

  /* USER CODE END DMA1_Stream6_IRQn 0 */
  HAL_DMA_IRQHandler(&hdma_usart2_tx);
 8000b08:	4802      	ldr	r0, [pc, #8]	; (8000b14 <DMA1_Stream6_IRQHandler+0x10>)
 8000b0a:	f000 ffc1 	bl	8001a90 <HAL_DMA_IRQHandler>
  /* USER CODE BEGIN DMA1_Stream6_IRQn 1 */

  /* USER CODE END DMA1_Stream6_IRQn 1 */
}
 8000b0e:	bf00      	nop
 8000b10:	bd80      	pop	{r7, pc}
 8000b12:	bf00      	nop
 8000b14:	20012f88 	.word	0x20012f88

08000b18 <TIM2_IRQHandler>:

/**
  * @brief This function handles TIM2 global interrupt.
  */
void TIM2_IRQHandler(void)
{
 8000b18:	b580      	push	{r7, lr}
 8000b1a:	af00      	add	r7, sp, #0
  /* USER CODE BEGIN TIM2_IRQn 0 */

  /* USER CODE END TIM2_IRQn 0 */
  HAL_TIM_IRQHandler(&htim2);
 8000b1c:	4828      	ldr	r0, [pc, #160]	; (8000bc0 <TIM2_IRQHandler+0xa8>)
 8000b1e:	f002 fb29 	bl	8003174 <HAL_TIM_IRQHandler>
  /* USER CODE BEGIN TIM2_IRQn 1 */
  __HAL_TIM_CLEAR_IT(&htim2, TIM_IT_CC3); // uncomment HAL_TIM_IRQHandler(&htim2); ^^
 8000b22:	4b27      	ldr	r3, [pc, #156]	; (8000bc0 <TIM2_IRQHandler+0xa8>)
 8000b24:	681b      	ldr	r3, [r3, #0]
 8000b26:	f06f 0208 	mvn.w	r2, #8
 8000b2a:	611a      	str	r2, [r3, #16]

  VGA.hsync_cnt++;
 8000b2c:	4b25      	ldr	r3, [pc, #148]	; (8000bc4 <TIM2_IRQHandler+0xac>)
 8000b2e:	881b      	ldrh	r3, [r3, #0]
 8000b30:	3301      	adds	r3, #1
 8000b32:	b29a      	uxth	r2, r3
 8000b34:	4b23      	ldr	r3, [pc, #140]	; (8000bc4 <TIM2_IRQHandler+0xac>)
 8000b36:	801a      	strh	r2, [r3, #0]
  if (VGA.hsync_cnt >= VGA_VSYNC_PERIODE)
 8000b38:	4b22      	ldr	r3, [pc, #136]	; (8000bc4 <TIM2_IRQHandler+0xac>)
 8000b3a:	881b      	ldrh	r3, [r3, #0]
 8000b3c:	f5b3 7f03 	cmp.w	r3, #524	; 0x20c
 8000b40:	d905      	bls.n	8000b4e <TIM2_IRQHandler+0x36>
  {
    // -----------
    VGA.hsync_cnt = 0;
 8000b42:	4b20      	ldr	r3, [pc, #128]	; (8000bc4 <TIM2_IRQHandler+0xac>)
 8000b44:	2200      	movs	r2, #0
 8000b46:	801a      	strh	r2, [r3, #0]
    // Adresspointer first dot
    VGA.start_adr = (uint32_t)(&VGA_RAM1[0]);
 8000b48:	4a1f      	ldr	r2, [pc, #124]	; (8000bc8 <TIM2_IRQHandler+0xb0>)
 8000b4a:	4b1e      	ldr	r3, [pc, #120]	; (8000bc4 <TIM2_IRQHandler+0xac>)
 8000b4c:	605a      	str	r2, [r3, #4]
  }

  // HSync-Pixel
  GPIOB->BSRR = (VGA.hsync_cnt < VGA_VSYNC_IMP) ? VGA_VSYNC_Pin << 16u: VGA_VSYNC_Pin;
 8000b4e:	4b1d      	ldr	r3, [pc, #116]	; (8000bc4 <TIM2_IRQHandler+0xac>)
 8000b50:	881b      	ldrh	r3, [r3, #0]
 8000b52:	2b01      	cmp	r3, #1
 8000b54:	d802      	bhi.n	8000b5c <TIM2_IRQHandler+0x44>
 8000b56:	f04f 5380 	mov.w	r3, #268435456	; 0x10000000
 8000b5a:	e001      	b.n	8000b60 <TIM2_IRQHandler+0x48>
 8000b5c:	f44f 5380 	mov.w	r3, #4096	; 0x1000
 8000b60:	4a1a      	ldr	r2, [pc, #104]	; (8000bcc <TIM2_IRQHandler+0xb4>)
 8000b62:	6193      	str	r3, [r2, #24]

  // Test for DMA start
  if((VGA.hsync_cnt >= VGA_VSYNC_BILD_START) && (VGA.hsync_cnt <= VGA_VSYNC_BILD_STOP))
 8000b64:	4b17      	ldr	r3, [pc, #92]	; (8000bc4 <TIM2_IRQHandler+0xac>)
 8000b66:	881b      	ldrh	r3, [r3, #0]
 8000b68:	2b23      	cmp	r3, #35	; 0x23
 8000b6a:	d927      	bls.n	8000bbc <TIM2_IRQHandler+0xa4>
 8000b6c:	4b15      	ldr	r3, [pc, #84]	; (8000bc4 <TIM2_IRQHandler+0xac>)
 8000b6e:	881b      	ldrh	r3, [r3, #0]
 8000b70:	f240 2202 	movw	r2, #514	; 0x202
 8000b74:	4293      	cmp	r3, r2
 8000b76:	d821      	bhi.n	8000bbc <TIM2_IRQHandler+0xa4>
  {
    // after FP start => DMA Transfer

    // DMA2 init
	  DMA2_Stream5->CR = VGA.dma2_cr_reg;
 8000b78:	4a15      	ldr	r2, [pc, #84]	; (8000bd0 <TIM2_IRQHandler+0xb8>)
 8000b7a:	4b12      	ldr	r3, [pc, #72]	; (8000bc4 <TIM2_IRQHandler+0xac>)
 8000b7c:	689b      	ldr	r3, [r3, #8]
 8000b7e:	6013      	str	r3, [r2, #0]
    // set adress
    DMA2_Stream5->M0AR = VGA.start_adr;
 8000b80:	4a13      	ldr	r2, [pc, #76]	; (8000bd0 <TIM2_IRQHandler+0xb8>)
 8000b82:	4b10      	ldr	r3, [pc, #64]	; (8000bc4 <TIM2_IRQHandler+0xac>)
 8000b84:	685b      	ldr	r3, [r3, #4]
 8000b86:	60d3      	str	r3, [r2, #12]
    // Timer1 start
    TIM1->CR1 |= TIM_CR1_CEN; // __HAL_TIM_ENABLE(&htim1); // too slow?
 8000b88:	4b12      	ldr	r3, [pc, #72]	; (8000bd4 <TIM2_IRQHandler+0xbc>)
 8000b8a:	681b      	ldr	r3, [r3, #0]
 8000b8c:	4a11      	ldr	r2, [pc, #68]	; (8000bd4 <TIM2_IRQHandler+0xbc>)
 8000b8e:	f043 0301 	orr.w	r3, r3, #1
 8000b92:	6013      	str	r3, [r2, #0]
    // DMA2 enable
    __HAL_DMA_ENABLE(&hdma_tim1_up);
 8000b94:	4b10      	ldr	r3, [pc, #64]	; (8000bd8 <TIM2_IRQHandler+0xc0>)
 8000b96:	681b      	ldr	r3, [r3, #0]
 8000b98:	681a      	ldr	r2, [r3, #0]
 8000b9a:	4b0f      	ldr	r3, [pc, #60]	; (8000bd8 <TIM2_IRQHandler+0xc0>)
 8000b9c:	681b      	ldr	r3, [r3, #0]
 8000b9e:	f042 0201 	orr.w	r2, r2, #1
 8000ba2:	601a      	str	r2, [r3, #0]
    // Test Adrespointer for high
    if(VGA.hsync_cnt & 0x01)
 8000ba4:	4b07      	ldr	r3, [pc, #28]	; (8000bc4 <TIM2_IRQHandler+0xac>)
 8000ba6:	881b      	ldrh	r3, [r3, #0]
 8000ba8:	f003 0301 	and.w	r3, r3, #1
 8000bac:	2b00      	cmp	r3, #0
 8000bae:	d005      	beq.n	8000bbc <TIM2_IRQHandler+0xa4>
      VGA.start_adr += (VGA_DISPLAY_X + 1); // inc after Hsync
 8000bb0:	4b04      	ldr	r3, [pc, #16]	; (8000bc4 <TIM2_IRQHandler+0xac>)
 8000bb2:	685b      	ldr	r3, [r3, #4]
 8000bb4:	f203 1341 	addw	r3, r3, #321	; 0x141
 8000bb8:	4a02      	ldr	r2, [pc, #8]	; (8000bc4 <TIM2_IRQHandler+0xac>)
 8000bba:	6053      	str	r3, [r2, #4]
  }
  /* USER CODE END TIM2_IRQn 1 */
}
 8000bbc:	bf00      	nop
 8000bbe:	bd80      	pop	{r7, pc}
 8000bc0:	20012e60 	.word	0x20012e60
 8000bc4:	200000bc 	.word	0x200000bc
 8000bc8:	200000c8 	.word	0x200000c8
 8000bcc:	40020400 	.word	0x40020400
 8000bd0:	40026488 	.word	0x40026488
 8000bd4:	40010000 	.word	0x40010000
 8000bd8:	20012e00 	.word	0x20012e00

08000bdc <USART2_IRQHandler>:

/**
  * @brief This function handles USART2 global interrupt.
  */
void USART2_IRQHandler(void)
{
 8000bdc:	b580      	push	{r7, lr}
 8000bde:	af00      	add	r7, sp, #0
  /* USER CODE BEGIN USART2_IRQn 0 */

  /* USER CODE END USART2_IRQn 0 */
  HAL_UART_IRQHandler(&huart2);
 8000be0:	4807      	ldr	r0, [pc, #28]	; (8000c00 <USART2_IRQHandler+0x24>)
 8000be2:	f003 fa9f 	bl	8004124 <HAL_UART_IRQHandler>
  /* USER CODE BEGIN USART2_IRQn 1 */

  if(__HAL_UART_GET_FLAG(&huart2, UART_FLAG_IDLE))
 8000be6:	4b06      	ldr	r3, [pc, #24]	; (8000c00 <USART2_IRQHandler+0x24>)
 8000be8:	681b      	ldr	r3, [r3, #0]
 8000bea:	681b      	ldr	r3, [r3, #0]
 8000bec:	f003 0310 	and.w	r3, r3, #16
 8000bf0:	2b10      	cmp	r3, #16
 8000bf2:	d102      	bne.n	8000bfa <USART2_IRQHandler+0x1e>
  {
	  HAL_UART_RxCpltCallback(&huart2);
 8000bf4:	4802      	ldr	r0, [pc, #8]	; (8000c00 <USART2_IRQHandler+0x24>)
 8000bf6:	f000 fb49 	bl	800128c <HAL_UART_RxCpltCallback>
  }

  /* USER CODE END USART2_IRQn 1 */
}
 8000bfa:	bf00      	nop
 8000bfc:	bd80      	pop	{r7, pc}
 8000bfe:	bf00      	nop
 8000c00:	20013028 	.word	0x20013028

08000c04 <DMA2_Stream5_IRQHandler>:

/**
  * @brief This function handles DMA2 stream5 global interrupt.
  */
void DMA2_Stream5_IRQHandler(void)
{
 8000c04:	b580      	push	{r7, lr}
 8000c06:	af00      	add	r7, sp, #0
  /* USER CODE BEGIN DMA2_Stream5_IRQn 0 */

  // if (__HAL_DMA_GET_IT_SOURCE(&hdma_tim1_up, DMA_IT_TC)) // not needed?
  // {
    // Timer1 stop
    __HAL_TIM_DISABLE(&htim1);
 8000c08:	4b10      	ldr	r3, [pc, #64]	; (8000c4c <DMA2_Stream5_IRQHandler+0x48>)
 8000c0a:	681b      	ldr	r3, [r3, #0]
 8000c0c:	6a1a      	ldr	r2, [r3, #32]
 8000c0e:	f241 1311 	movw	r3, #4369	; 0x1111
 8000c12:	4013      	ands	r3, r2
 8000c14:	2b00      	cmp	r3, #0
 8000c16:	d10f      	bne.n	8000c38 <DMA2_Stream5_IRQHandler+0x34>
 8000c18:	4b0c      	ldr	r3, [pc, #48]	; (8000c4c <DMA2_Stream5_IRQHandler+0x48>)
 8000c1a:	681b      	ldr	r3, [r3, #0]
 8000c1c:	6a1a      	ldr	r2, [r3, #32]
 8000c1e:	f240 4344 	movw	r3, #1092	; 0x444
 8000c22:	4013      	ands	r3, r2
 8000c24:	2b00      	cmp	r3, #0
 8000c26:	d107      	bne.n	8000c38 <DMA2_Stream5_IRQHandler+0x34>
 8000c28:	4b08      	ldr	r3, [pc, #32]	; (8000c4c <DMA2_Stream5_IRQHandler+0x48>)
 8000c2a:	681b      	ldr	r3, [r3, #0]
 8000c2c:	681a      	ldr	r2, [r3, #0]
 8000c2e:	4b07      	ldr	r3, [pc, #28]	; (8000c4c <DMA2_Stream5_IRQHandler+0x48>)
 8000c30:	681b      	ldr	r3, [r3, #0]
 8000c32:	f022 0201 	bic.w	r2, r2, #1
 8000c36:	601a      	str	r2, [r3, #0]
    // DMA2 disable
    // __HAL_DMA_DISABLE(&hdma_tim1_up); // not needed?
    // switch on black
    GPIOE->BSRR = VGA_GPIO_HINIBBLE << 16u;
 8000c38:	4b05      	ldr	r3, [pc, #20]	; (8000c50 <DMA2_Stream5_IRQHandler+0x4c>)
 8000c3a:	f04f 427f 	mov.w	r2, #4278190080	; 0xff000000
 8000c3e:	619a      	str	r2, [r3, #24]
  // }

  /* USER CODE END DMA2_Stream5_IRQn 0 */
  HAL_DMA_IRQHandler(&hdma_tim1_up);
 8000c40:	4804      	ldr	r0, [pc, #16]	; (8000c54 <DMA2_Stream5_IRQHandler+0x50>)
 8000c42:	f000 ff25 	bl	8001a90 <HAL_DMA_IRQHandler>
  /* USER CODE BEGIN DMA2_Stream5_IRQn 1 */

  /* USER CODE END DMA2_Stream5_IRQn 1 */
}
 8000c46:	bf00      	nop
 8000c48:	bd80      	pop	{r7, pc}
 8000c4a:	bf00      	nop
 8000c4c:	20012db8 	.word	0x20012db8
 8000c50:	40021000 	.word	0x40021000
 8000c54:	20012e00 	.word	0x20012e00

08000c58 <_getpid>:
void initialise_monitor_handles()
{
}

int _getpid(void)
{
 8000c58:	b480      	push	{r7}
 8000c5a:	af00      	add	r7, sp, #0
	return 1;
 8000c5c:	2301      	movs	r3, #1
}
 8000c5e:	4618      	mov	r0, r3
 8000c60:	46bd      	mov	sp, r7
 8000c62:	f85d 7b04 	ldr.w	r7, [sp], #4
 8000c66:	4770      	bx	lr

08000c68 <_kill>:

int _kill(int pid, int sig)
{
 8000c68:	b580      	push	{r7, lr}
 8000c6a:	b082      	sub	sp, #8
 8000c6c:	af00      	add	r7, sp, #0
 8000c6e:	6078      	str	r0, [r7, #4]
 8000c70:	6039      	str	r1, [r7, #0]
	errno = EINVAL;
 8000c72:	f004 f8e1 	bl	8004e38 <__errno>
 8000c76:	4603      	mov	r3, r0
 8000c78:	2216      	movs	r2, #22
 8000c7a:	601a      	str	r2, [r3, #0]
	return -1;
 8000c7c:	f04f 33ff 	mov.w	r3, #4294967295
}
 8000c80:	4618      	mov	r0, r3
 8000c82:	3708      	adds	r7, #8
 8000c84:	46bd      	mov	sp, r7
 8000c86:	bd80      	pop	{r7, pc}

08000c88 <_exit>:

void _exit (int status)
{
 8000c88:	b580      	push	{r7, lr}
 8000c8a:	b082      	sub	sp, #8
 8000c8c:	af00      	add	r7, sp, #0
 8000c8e:	6078      	str	r0, [r7, #4]
	_kill(status, -1);
 8000c90:	f04f 31ff 	mov.w	r1, #4294967295
 8000c94:	6878      	ldr	r0, [r7, #4]
 8000c96:	f7ff ffe7 	bl	8000c68 <_kill>
	while (1) {}		/* Make sure we hang here */
 8000c9a:	e7fe      	b.n	8000c9a <_exit+0x12>

08000c9c <_read>:
}

__attribute__((weak)) int _read(int file, char *ptr, int len)
{
 8000c9c:	b580      	push	{r7, lr}
 8000c9e:	b086      	sub	sp, #24
 8000ca0:	af00      	add	r7, sp, #0
 8000ca2:	60f8      	str	r0, [r7, #12]
 8000ca4:	60b9      	str	r1, [r7, #8]
 8000ca6:	607a      	str	r2, [r7, #4]
	int DataIdx;

	for (DataIdx = 0; DataIdx < len; DataIdx++)
 8000ca8:	2300      	movs	r3, #0
 8000caa:	617b      	str	r3, [r7, #20]
 8000cac:	e00a      	b.n	8000cc4 <_read+0x28>
	{
		*ptr++ = __io_getchar();
 8000cae:	f3af 8000 	nop.w
 8000cb2:	4601      	mov	r1, r0
 8000cb4:	68bb      	ldr	r3, [r7, #8]
 8000cb6:	1c5a      	adds	r2, r3, #1
 8000cb8:	60ba      	str	r2, [r7, #8]
 8000cba:	b2ca      	uxtb	r2, r1
 8000cbc:	701a      	strb	r2, [r3, #0]
	for (DataIdx = 0; DataIdx < len; DataIdx++)
 8000cbe:	697b      	ldr	r3, [r7, #20]
 8000cc0:	3301      	adds	r3, #1
 8000cc2:	617b      	str	r3, [r7, #20]
 8000cc4:	697a      	ldr	r2, [r7, #20]
 8000cc6:	687b      	ldr	r3, [r7, #4]
 8000cc8:	429a      	cmp	r2, r3
 8000cca:	dbf0      	blt.n	8000cae <_read+0x12>
	}

return len;
 8000ccc:	687b      	ldr	r3, [r7, #4]
}
 8000cce:	4618      	mov	r0, r3
 8000cd0:	3718      	adds	r7, #24
 8000cd2:	46bd      	mov	sp, r7
 8000cd4:	bd80      	pop	{r7, pc}

08000cd6 <_write>:

__attribute__((weak)) int _write(int file, char *ptr, int len)
{
 8000cd6:	b580      	push	{r7, lr}
 8000cd8:	b086      	sub	sp, #24
 8000cda:	af00      	add	r7, sp, #0
 8000cdc:	60f8      	str	r0, [r7, #12]
 8000cde:	60b9      	str	r1, [r7, #8]
 8000ce0:	607a      	str	r2, [r7, #4]
	int DataIdx;

	for (DataIdx = 0; DataIdx < len; DataIdx++)
 8000ce2:	2300      	movs	r3, #0
 8000ce4:	617b      	str	r3, [r7, #20]
 8000ce6:	e009      	b.n	8000cfc <_write+0x26>
	{
		__io_putchar(*ptr++);
 8000ce8:	68bb      	ldr	r3, [r7, #8]
 8000cea:	1c5a      	adds	r2, r3, #1
 8000cec:	60ba      	str	r2, [r7, #8]
 8000cee:	781b      	ldrb	r3, [r3, #0]
 8000cf0:	4618      	mov	r0, r3
 8000cf2:	f3af 8000 	nop.w
	for (DataIdx = 0; DataIdx < len; DataIdx++)
 8000cf6:	697b      	ldr	r3, [r7, #20]
 8000cf8:	3301      	adds	r3, #1
 8000cfa:	617b      	str	r3, [r7, #20]
 8000cfc:	697a      	ldr	r2, [r7, #20]
 8000cfe:	687b      	ldr	r3, [r7, #4]
 8000d00:	429a      	cmp	r2, r3
 8000d02:	dbf1      	blt.n	8000ce8 <_write+0x12>
	}
	return len;
 8000d04:	687b      	ldr	r3, [r7, #4]
}
 8000d06:	4618      	mov	r0, r3
 8000d08:	3718      	adds	r7, #24
 8000d0a:	46bd      	mov	sp, r7
 8000d0c:	bd80      	pop	{r7, pc}

08000d0e <_close>:

int _close(int file)
{
 8000d0e:	b480      	push	{r7}
 8000d10:	b083      	sub	sp, #12
 8000d12:	af00      	add	r7, sp, #0
 8000d14:	6078      	str	r0, [r7, #4]
	return -1;
 8000d16:	f04f 33ff 	mov.w	r3, #4294967295
}
 8000d1a:	4618      	mov	r0, r3
 8000d1c:	370c      	adds	r7, #12
 8000d1e:	46bd      	mov	sp, r7
 8000d20:	f85d 7b04 	ldr.w	r7, [sp], #4
 8000d24:	4770      	bx	lr

08000d26 <_fstat>:


int _fstat(int file, struct stat *st)
{
 8000d26:	b480      	push	{r7}
 8000d28:	b083      	sub	sp, #12
 8000d2a:	af00      	add	r7, sp, #0
 8000d2c:	6078      	str	r0, [r7, #4]
 8000d2e:	6039      	str	r1, [r7, #0]
	st->st_mode = S_IFCHR;
 8000d30:	683b      	ldr	r3, [r7, #0]
 8000d32:	f44f 5200 	mov.w	r2, #8192	; 0x2000
 8000d36:	605a      	str	r2, [r3, #4]
	return 0;
 8000d38:	2300      	movs	r3, #0
}
 8000d3a:	4618      	mov	r0, r3
 8000d3c:	370c      	adds	r7, #12
 8000d3e:	46bd      	mov	sp, r7
 8000d40:	f85d 7b04 	ldr.w	r7, [sp], #4
 8000d44:	4770      	bx	lr

08000d46 <_isatty>:

int _isatty(int file)
{
 8000d46:	b480      	push	{r7}
 8000d48:	b083      	sub	sp, #12
 8000d4a:	af00      	add	r7, sp, #0
 8000d4c:	6078      	str	r0, [r7, #4]
	return 1;
 8000d4e:	2301      	movs	r3, #1
}
 8000d50:	4618      	mov	r0, r3
 8000d52:	370c      	adds	r7, #12
 8000d54:	46bd      	mov	sp, r7
 8000d56:	f85d 7b04 	ldr.w	r7, [sp], #4
 8000d5a:	4770      	bx	lr

08000d5c <_lseek>:

int _lseek(int file, int ptr, int dir)
{
 8000d5c:	b480      	push	{r7}
 8000d5e:	b085      	sub	sp, #20
 8000d60:	af00      	add	r7, sp, #0
 8000d62:	60f8      	str	r0, [r7, #12]
 8000d64:	60b9      	str	r1, [r7, #8]
 8000d66:	607a      	str	r2, [r7, #4]
	return 0;
 8000d68:	2300      	movs	r3, #0
}
 8000d6a:	4618      	mov	r0, r3
 8000d6c:	3714      	adds	r7, #20
 8000d6e:	46bd      	mov	sp, r7
 8000d70:	f85d 7b04 	ldr.w	r7, [sp], #4
 8000d74:	4770      	bx	lr
	...

08000d78 <_sbrk>:
/**
 _sbrk
 Increase program data space. Malloc and related functions depend on this
**/
caddr_t _sbrk(int incr)
{
 8000d78:	b580      	push	{r7, lr}
 8000d7a:	b084      	sub	sp, #16
 8000d7c:	af00      	add	r7, sp, #0
 8000d7e:	6078      	str	r0, [r7, #4]
	extern char end asm("end");
	static char *heap_end;
	char *prev_heap_end;

	if (heap_end == 0)
 8000d80:	4b11      	ldr	r3, [pc, #68]	; (8000dc8 <_sbrk+0x50>)
 8000d82:	681b      	ldr	r3, [r3, #0]
 8000d84:	2b00      	cmp	r3, #0
 8000d86:	d102      	bne.n	8000d8e <_sbrk+0x16>
		heap_end = &end;
 8000d88:	4b0f      	ldr	r3, [pc, #60]	; (8000dc8 <_sbrk+0x50>)
 8000d8a:	4a10      	ldr	r2, [pc, #64]	; (8000dcc <_sbrk+0x54>)
 8000d8c:	601a      	str	r2, [r3, #0]

	prev_heap_end = heap_end;
 8000d8e:	4b0e      	ldr	r3, [pc, #56]	; (8000dc8 <_sbrk+0x50>)
 8000d90:	681b      	ldr	r3, [r3, #0]
 8000d92:	60fb      	str	r3, [r7, #12]
	if (heap_end + incr > stack_ptr)
 8000d94:	4b0c      	ldr	r3, [pc, #48]	; (8000dc8 <_sbrk+0x50>)
 8000d96:	681a      	ldr	r2, [r3, #0]
 8000d98:	687b      	ldr	r3, [r7, #4]
 8000d9a:	4413      	add	r3, r2
 8000d9c:	466a      	mov	r2, sp
 8000d9e:	4293      	cmp	r3, r2
 8000da0:	d907      	bls.n	8000db2 <_sbrk+0x3a>
	{
		errno = ENOMEM;
 8000da2:	f004 f849 	bl	8004e38 <__errno>
 8000da6:	4603      	mov	r3, r0
 8000da8:	220c      	movs	r2, #12
 8000daa:	601a      	str	r2, [r3, #0]
		return (caddr_t) -1;
 8000dac:	f04f 33ff 	mov.w	r3, #4294967295
 8000db0:	e006      	b.n	8000dc0 <_sbrk+0x48>
	}

	heap_end += incr;
 8000db2:	4b05      	ldr	r3, [pc, #20]	; (8000dc8 <_sbrk+0x50>)
 8000db4:	681a      	ldr	r2, [r3, #0]
 8000db6:	687b      	ldr	r3, [r7, #4]
 8000db8:	4413      	add	r3, r2
 8000dba:	4a03      	ldr	r2, [pc, #12]	; (8000dc8 <_sbrk+0x50>)
 8000dbc:	6013      	str	r3, [r2, #0]

	return (caddr_t) prev_heap_end;
 8000dbe:	68fb      	ldr	r3, [r7, #12]
}
 8000dc0:	4618      	mov	r0, r3
 8000dc2:	3710      	adds	r7, #16
 8000dc4:	46bd      	mov	sp, r7
 8000dc6:	bd80      	pop	{r7, pc}
 8000dc8:	200000ac 	.word	0x200000ac
 8000dcc:	20013080 	.word	0x20013080

08000dd0 <SystemInit>:
  *         configuration.
  * @param  None
  * @retval None
  */
void SystemInit(void)
{
 8000dd0:	b480      	push	{r7}
 8000dd2:	af00      	add	r7, sp, #0
  /* FPU settings ------------------------------------------------------------*/
  #if (__FPU_PRESENT == 1) && (__FPU_USED == 1)
    SCB->CPACR |= ((3UL << 10*2)|(3UL << 11*2));  /* set CP10 and CP11 Full Access */
 8000dd4:	4b08      	ldr	r3, [pc, #32]	; (8000df8 <SystemInit+0x28>)
 8000dd6:	f8d3 3088 	ldr.w	r3, [r3, #136]	; 0x88
 8000dda:	4a07      	ldr	r2, [pc, #28]	; (8000df8 <SystemInit+0x28>)
 8000ddc:	f443 0370 	orr.w	r3, r3, #15728640	; 0xf00000
 8000de0:	f8c2 3088 	str.w	r3, [r2, #136]	; 0x88

  /* Configure the Vector Table location add offset address ------------------*/
#ifdef VECT_TAB_SRAM
  SCB->VTOR = SRAM_BASE | VECT_TAB_OFFSET; /* Vector Table Relocation in Internal SRAM */
#else
  SCB->VTOR = FLASH_BASE | VECT_TAB_OFFSET; /* Vector Table Relocation in Internal FLASH */
 8000de4:	4b04      	ldr	r3, [pc, #16]	; (8000df8 <SystemInit+0x28>)
 8000de6:	f04f 6200 	mov.w	r2, #134217728	; 0x8000000
 8000dea:	609a      	str	r2, [r3, #8]
#endif
}
 8000dec:	bf00      	nop
 8000dee:	46bd      	mov	sp, r7
 8000df0:	f85d 7b04 	ldr.w	r7, [sp], #4
 8000df4:	4770      	bx	lr
 8000df6:	bf00      	nop
 8000df8:	e000ed00 	.word	0xe000ed00

08000dfc <MX_TIM1_Init>:
TIM_HandleTypeDef htim2;
DMA_HandleTypeDef hdma_tim1_up;

/* TIM1 init function */
void MX_TIM1_Init(void)
{
 8000dfc:	b580      	push	{r7, lr}
 8000dfe:	b086      	sub	sp, #24
 8000e00:	af00      	add	r7, sp, #0

  /* USER CODE BEGIN TIM1_Init 0 */

  /* USER CODE END TIM1_Init 0 */

  TIM_ClockConfigTypeDef sClockSourceConfig = {0};
 8000e02:	f107 0308 	add.w	r3, r7, #8
 8000e06:	2200      	movs	r2, #0
 8000e08:	601a      	str	r2, [r3, #0]
 8000e0a:	605a      	str	r2, [r3, #4]
 8000e0c:	609a      	str	r2, [r3, #8]
 8000e0e:	60da      	str	r2, [r3, #12]
  TIM_MasterConfigTypeDef sMasterConfig = {0};
 8000e10:	463b      	mov	r3, r7
 8000e12:	2200      	movs	r2, #0
 8000e14:	601a      	str	r2, [r3, #0]
 8000e16:	605a      	str	r2, [r3, #4]

  /* USER CODE BEGIN TIM1_Init 1 */

  /* USER CODE END TIM1_Init 1 */
  htim1.Instance = TIM1;
 8000e18:	4b1e      	ldr	r3, [pc, #120]	; (8000e94 <MX_TIM1_Init+0x98>)
 8000e1a:	4a1f      	ldr	r2, [pc, #124]	; (8000e98 <MX_TIM1_Init+0x9c>)
 8000e1c:	601a      	str	r2, [r3, #0]
  htim1.Init.Prescaler = VGA_TIM1_PRESCALE;
 8000e1e:	4b1d      	ldr	r3, [pc, #116]	; (8000e94 <MX_TIM1_Init+0x98>)
 8000e20:	2200      	movs	r2, #0
 8000e22:	605a      	str	r2, [r3, #4]
  htim1.Init.CounterMode = TIM_COUNTERMODE_UP;
 8000e24:	4b1b      	ldr	r3, [pc, #108]	; (8000e94 <MX_TIM1_Init+0x98>)
 8000e26:	2200      	movs	r2, #0
 8000e28:	609a      	str	r2, [r3, #8]
  htim1.Init.Period = VGA_TIM1_PERIODE;
 8000e2a:	4b1a      	ldr	r3, [pc, #104]	; (8000e94 <MX_TIM1_Init+0x98>)
 8000e2c:	220b      	movs	r2, #11
 8000e2e:	60da      	str	r2, [r3, #12]
  htim1.Init.ClockDivision = TIM_CLOCKDIVISION_DIV1;
 8000e30:	4b18      	ldr	r3, [pc, #96]	; (8000e94 <MX_TIM1_Init+0x98>)
 8000e32:	2200      	movs	r2, #0
 8000e34:	611a      	str	r2, [r3, #16]
  htim1.Init.RepetitionCounter = 0;
 8000e36:	4b17      	ldr	r3, [pc, #92]	; (8000e94 <MX_TIM1_Init+0x98>)
 8000e38:	2200      	movs	r2, #0
 8000e3a:	615a      	str	r2, [r3, #20]
  htim1.Init.AutoReloadPreload = TIM_AUTORELOAD_PRELOAD_DISABLE;
 8000e3c:	4b15      	ldr	r3, [pc, #84]	; (8000e94 <MX_TIM1_Init+0x98>)
 8000e3e:	2200      	movs	r2, #0
 8000e40:	619a      	str	r2, [r3, #24]
  if (HAL_TIM_Base_Init(&htim1) != HAL_OK)
 8000e42:	4814      	ldr	r0, [pc, #80]	; (8000e94 <MX_TIM1_Init+0x98>)
 8000e44:	f001 feb8 	bl	8002bb8 <HAL_TIM_Base_Init>
 8000e48:	4603      	mov	r3, r0
 8000e4a:	2b00      	cmp	r3, #0
 8000e4c:	d001      	beq.n	8000e52 <MX_TIM1_Init+0x56>
  {
    Error_Handler();
 8000e4e:	f7ff fd53 	bl	80008f8 <Error_Handler>
  }
  sClockSourceConfig.ClockSource = TIM_CLOCKSOURCE_INTERNAL;
 8000e52:	f44f 5380 	mov.w	r3, #4096	; 0x1000
 8000e56:	60bb      	str	r3, [r7, #8]
  if (HAL_TIM_ConfigClockSource(&htim1, &sClockSourceConfig) != HAL_OK)
 8000e58:	f107 0308 	add.w	r3, r7, #8
 8000e5c:	4619      	mov	r1, r3
 8000e5e:	480d      	ldr	r0, [pc, #52]	; (8000e94 <MX_TIM1_Init+0x98>)
 8000e60:	f002 fb4e 	bl	8003500 <HAL_TIM_ConfigClockSource>
 8000e64:	4603      	mov	r3, r0
 8000e66:	2b00      	cmp	r3, #0
 8000e68:	d001      	beq.n	8000e6e <MX_TIM1_Init+0x72>
  {
    Error_Handler();
 8000e6a:	f7ff fd45 	bl	80008f8 <Error_Handler>
  }
  sMasterConfig.MasterOutputTrigger = TIM_TRGO_RESET;
 8000e6e:	2300      	movs	r3, #0
 8000e70:	603b      	str	r3, [r7, #0]
  sMasterConfig.MasterSlaveMode = TIM_MASTERSLAVEMODE_DISABLE;
 8000e72:	2300      	movs	r3, #0
 8000e74:	607b      	str	r3, [r7, #4]
  if (HAL_TIMEx_MasterConfigSynchronization(&htim1, &sMasterConfig) != HAL_OK)
 8000e76:	463b      	mov	r3, r7
 8000e78:	4619      	mov	r1, r3
 8000e7a:	4806      	ldr	r0, [pc, #24]	; (8000e94 <MX_TIM1_Init+0x98>)
 8000e7c:	f002 ff46 	bl	8003d0c <HAL_TIMEx_MasterConfigSynchronization>
 8000e80:	4603      	mov	r3, r0
 8000e82:	2b00      	cmp	r3, #0
 8000e84:	d001      	beq.n	8000e8a <MX_TIM1_Init+0x8e>
  {
    Error_Handler();
 8000e86:	f7ff fd37 	bl	80008f8 <Error_Handler>
  }
  /* USER CODE BEGIN TIM1_Init 2 */

  /* USER CODE END TIM1_Init 2 */

}
 8000e8a:	bf00      	nop
 8000e8c:	3718      	adds	r7, #24
 8000e8e:	46bd      	mov	sp, r7
 8000e90:	bd80      	pop	{r7, pc}
 8000e92:	bf00      	nop
 8000e94:	20012db8 	.word	0x20012db8
 8000e98:	40010000 	.word	0x40010000

08000e9c <MX_TIM2_Init>:
/* TIM2 init function */
void MX_TIM2_Init(void)
{
 8000e9c:	b580      	push	{r7, lr}
 8000e9e:	b08a      	sub	sp, #40	; 0x28
 8000ea0:	af00      	add	r7, sp, #0

  /* USER CODE BEGIN TIM2_Init 0 */

  /* USER CODE END TIM2_Init 0 */

  TIM_MasterConfigTypeDef sMasterConfig = {0};
 8000ea2:	f107 0320 	add.w	r3, r7, #32
 8000ea6:	2200      	movs	r2, #0
 8000ea8:	601a      	str	r2, [r3, #0]
 8000eaa:	605a      	str	r2, [r3, #4]
  TIM_OC_InitTypeDef sConfigOC = {0};
 8000eac:	1d3b      	adds	r3, r7, #4
 8000eae:	2200      	movs	r2, #0
 8000eb0:	601a      	str	r2, [r3, #0]
 8000eb2:	605a      	str	r2, [r3, #4]
 8000eb4:	609a      	str	r2, [r3, #8]
 8000eb6:	60da      	str	r2, [r3, #12]
 8000eb8:	611a      	str	r2, [r3, #16]
 8000eba:	615a      	str	r2, [r3, #20]
 8000ebc:	619a      	str	r2, [r3, #24]

  /* USER CODE BEGIN TIM2_Init 1 */

  /* USER CODE END TIM2_Init 1 */
  htim2.Instance = TIM2;
 8000ebe:	4b2a      	ldr	r3, [pc, #168]	; (8000f68 <MX_TIM2_Init+0xcc>)
 8000ec0:	f04f 4280 	mov.w	r2, #1073741824	; 0x40000000
 8000ec4:	601a      	str	r2, [r3, #0]
  htim2.Init.Prescaler = VGA_TIM2_HSYNC_PRESCALE;
 8000ec6:	4b28      	ldr	r3, [pc, #160]	; (8000f68 <MX_TIM2_Init+0xcc>)
 8000ec8:	2200      	movs	r2, #0
 8000eca:	605a      	str	r2, [r3, #4]
  htim2.Init.CounterMode = TIM_COUNTERMODE_UP;
 8000ecc:	4b26      	ldr	r3, [pc, #152]	; (8000f68 <MX_TIM2_Init+0xcc>)
 8000ece:	2200      	movs	r2, #0
 8000ed0:	609a      	str	r2, [r3, #8]
  htim2.Init.Period = VGA_TIM2_HSYNC_PERIODE;
 8000ed2:	4b25      	ldr	r3, [pc, #148]	; (8000f68 <MX_TIM2_Init+0xcc>)
 8000ed4:	f640 226b 	movw	r2, #2667	; 0xa6b
 8000ed8:	60da      	str	r2, [r3, #12]
  htim2.Init.ClockDivision = TIM_CLOCKDIVISION_DIV1;
 8000eda:	4b23      	ldr	r3, [pc, #140]	; (8000f68 <MX_TIM2_Init+0xcc>)
 8000edc:	2200      	movs	r2, #0
 8000ede:	611a      	str	r2, [r3, #16]
  htim2.Init.AutoReloadPreload = TIM_AUTORELOAD_PRELOAD_DISABLE;
 8000ee0:	4b21      	ldr	r3, [pc, #132]	; (8000f68 <MX_TIM2_Init+0xcc>)
 8000ee2:	2200      	movs	r2, #0
 8000ee4:	619a      	str	r2, [r3, #24]
  if (HAL_TIM_PWM_Init(&htim2) != HAL_OK)
 8000ee6:	4820      	ldr	r0, [pc, #128]	; (8000f68 <MX_TIM2_Init+0xcc>)
 8000ee8:	f001 ff1e 	bl	8002d28 <HAL_TIM_PWM_Init>
 8000eec:	4603      	mov	r3, r0
 8000eee:	2b00      	cmp	r3, #0
 8000ef0:	d001      	beq.n	8000ef6 <MX_TIM2_Init+0x5a>
  {
    Error_Handler();
 8000ef2:	f7ff fd01 	bl	80008f8 <Error_Handler>
  }
  sMasterConfig.MasterOutputTrigger = TIM_TRGO_RESET;
 8000ef6:	2300      	movs	r3, #0
 8000ef8:	623b      	str	r3, [r7, #32]
  sMasterConfig.MasterSlaveMode = TIM_MASTERSLAVEMODE_DISABLE;
 8000efa:	2300      	movs	r3, #0
 8000efc:	627b      	str	r3, [r7, #36]	; 0x24
  if (HAL_TIMEx_MasterConfigSynchronization(&htim2, &sMasterConfig) != HAL_OK)
 8000efe:	f107 0320 	add.w	r3, r7, #32
 8000f02:	4619      	mov	r1, r3
 8000f04:	4818      	ldr	r0, [pc, #96]	; (8000f68 <MX_TIM2_Init+0xcc>)
 8000f06:	f002 ff01 	bl	8003d0c <HAL_TIMEx_MasterConfigSynchronization>
 8000f0a:	4603      	mov	r3, r0
 8000f0c:	2b00      	cmp	r3, #0
 8000f0e:	d001      	beq.n	8000f14 <MX_TIM2_Init+0x78>
  {
    Error_Handler();
 8000f10:	f7ff fcf2 	bl	80008f8 <Error_Handler>
  }
  sConfigOC.OCMode = TIM_OCMODE_PWM1;
 8000f14:	2360      	movs	r3, #96	; 0x60
 8000f16:	607b      	str	r3, [r7, #4]
  sConfigOC.Pulse = VGA_TIM2_HTRIGGER_START - VGA_TIM2_DMA_DELAY;
 8000f18:	f240 13bb 	movw	r3, #443	; 0x1bb
 8000f1c:	60bb      	str	r3, [r7, #8]
  sConfigOC.OCPolarity = TIM_OCPOLARITY_LOW;
 8000f1e:	2302      	movs	r3, #2
 8000f20:	60fb      	str	r3, [r7, #12]
  sConfigOC.OCFastMode = TIM_OCFAST_DISABLE;
 8000f22:	2300      	movs	r3, #0
 8000f24:	617b      	str	r3, [r7, #20]
  if (HAL_TIM_PWM_ConfigChannel(&htim2, &sConfigOC, TIM_CHANNEL_3) != HAL_OK)
 8000f26:	1d3b      	adds	r3, r7, #4
 8000f28:	2208      	movs	r2, #8
 8000f2a:	4619      	mov	r1, r3
 8000f2c:	480e      	ldr	r0, [pc, #56]	; (8000f68 <MX_TIM2_Init+0xcc>)
 8000f2e:	f002 fa29 	bl	8003384 <HAL_TIM_PWM_ConfigChannel>
 8000f32:	4603      	mov	r3, r0
 8000f34:	2b00      	cmp	r3, #0
 8000f36:	d001      	beq.n	8000f3c <MX_TIM2_Init+0xa0>
  {
    Error_Handler();
 8000f38:	f7ff fcde 	bl	80008f8 <Error_Handler>
  }
  sConfigOC.Pulse = VGA_TIM2_HSYNC_IMP;
 8000f3c:	f44f 73a0 	mov.w	r3, #320	; 0x140
 8000f40:	60bb      	str	r3, [r7, #8]
  if (HAL_TIM_PWM_ConfigChannel(&htim2, &sConfigOC, TIM_CHANNEL_4) != HAL_OK)
 8000f42:	1d3b      	adds	r3, r7, #4
 8000f44:	220c      	movs	r2, #12
 8000f46:	4619      	mov	r1, r3
 8000f48:	4807      	ldr	r0, [pc, #28]	; (8000f68 <MX_TIM2_Init+0xcc>)
 8000f4a:	f002 fa1b 	bl	8003384 <HAL_TIM_PWM_ConfigChannel>
 8000f4e:	4603      	mov	r3, r0
 8000f50:	2b00      	cmp	r3, #0
 8000f52:	d001      	beq.n	8000f58 <MX_TIM2_Init+0xbc>
  {
    Error_Handler();
 8000f54:	f7ff fcd0 	bl	80008f8 <Error_Handler>
  }
  /* USER CODE BEGIN TIM2_Init 2 */

  /* USER CODE END TIM2_Init 2 */
  HAL_TIM_MspPostInit(&htim2);
 8000f58:	4803      	ldr	r0, [pc, #12]	; (8000f68 <MX_TIM2_Init+0xcc>)
 8000f5a:	f000 f87f 	bl	800105c <HAL_TIM_MspPostInit>

}
 8000f5e:	bf00      	nop
 8000f60:	3728      	adds	r7, #40	; 0x28
 8000f62:	46bd      	mov	sp, r7
 8000f64:	bd80      	pop	{r7, pc}
 8000f66:	bf00      	nop
 8000f68:	20012e60 	.word	0x20012e60

08000f6c <HAL_TIM_Base_MspInit>:

void HAL_TIM_Base_MspInit(TIM_HandleTypeDef* tim_baseHandle)
{
 8000f6c:	b580      	push	{r7, lr}
 8000f6e:	b084      	sub	sp, #16
 8000f70:	af00      	add	r7, sp, #0
 8000f72:	6078      	str	r0, [r7, #4]

  if(tim_baseHandle->Instance==TIM1)
 8000f74:	687b      	ldr	r3, [r7, #4]
 8000f76:	681b      	ldr	r3, [r3, #0]
 8000f78:	4a21      	ldr	r2, [pc, #132]	; (8001000 <HAL_TIM_Base_MspInit+0x94>)
 8000f7a:	4293      	cmp	r3, r2
 8000f7c:	d13c      	bne.n	8000ff8 <HAL_TIM_Base_MspInit+0x8c>
  {
  /* USER CODE BEGIN TIM1_MspInit 0 */

  /* USER CODE END TIM1_MspInit 0 */
    /* TIM1 clock enable */
    __HAL_RCC_TIM1_CLK_ENABLE();
 8000f7e:	2300      	movs	r3, #0
 8000f80:	60fb      	str	r3, [r7, #12]
 8000f82:	4b20      	ldr	r3, [pc, #128]	; (8001004 <HAL_TIM_Base_MspInit+0x98>)
 8000f84:	6c5b      	ldr	r3, [r3, #68]	; 0x44
 8000f86:	4a1f      	ldr	r2, [pc, #124]	; (8001004 <HAL_TIM_Base_MspInit+0x98>)
 8000f88:	f043 0301 	orr.w	r3, r3, #1
 8000f8c:	6453      	str	r3, [r2, #68]	; 0x44
 8000f8e:	4b1d      	ldr	r3, [pc, #116]	; (8001004 <HAL_TIM_Base_MspInit+0x98>)
 8000f90:	6c5b      	ldr	r3, [r3, #68]	; 0x44
 8000f92:	f003 0301 	and.w	r3, r3, #1
 8000f96:	60fb      	str	r3, [r7, #12]
 8000f98:	68fb      	ldr	r3, [r7, #12]

    /* TIM1 DMA Init */
    /* TIM1_UP Init */
    hdma_tim1_up.Instance = DMA2_Stream5;
 8000f9a:	4b1b      	ldr	r3, [pc, #108]	; (8001008 <HAL_TIM_Base_MspInit+0x9c>)
 8000f9c:	4a1b      	ldr	r2, [pc, #108]	; (800100c <HAL_TIM_Base_MspInit+0xa0>)
 8000f9e:	601a      	str	r2, [r3, #0]
    hdma_tim1_up.Init.Channel = DMA_CHANNEL_6;
 8000fa0:	4b19      	ldr	r3, [pc, #100]	; (8001008 <HAL_TIM_Base_MspInit+0x9c>)
 8000fa2:	f04f 6240 	mov.w	r2, #201326592	; 0xc000000
 8000fa6:	605a      	str	r2, [r3, #4]
    hdma_tim1_up.Init.Direction = DMA_MEMORY_TO_PERIPH;
 8000fa8:	4b17      	ldr	r3, [pc, #92]	; (8001008 <HAL_TIM_Base_MspInit+0x9c>)
 8000faa:	2240      	movs	r2, #64	; 0x40
 8000fac:	609a      	str	r2, [r3, #8]
    hdma_tim1_up.Init.PeriphInc = DMA_PINC_DISABLE;
 8000fae:	4b16      	ldr	r3, [pc, #88]	; (8001008 <HAL_TIM_Base_MspInit+0x9c>)
 8000fb0:	2200      	movs	r2, #0
 8000fb2:	60da      	str	r2, [r3, #12]
    hdma_tim1_up.Init.MemInc = DMA_MINC_ENABLE;
 8000fb4:	4b14      	ldr	r3, [pc, #80]	; (8001008 <HAL_TIM_Base_MspInit+0x9c>)
 8000fb6:	f44f 6280 	mov.w	r2, #1024	; 0x400
 8000fba:	611a      	str	r2, [r3, #16]
    hdma_tim1_up.Init.PeriphDataAlignment = DMA_PDATAALIGN_BYTE;
 8000fbc:	4b12      	ldr	r3, [pc, #72]	; (8001008 <HAL_TIM_Base_MspInit+0x9c>)
 8000fbe:	2200      	movs	r2, #0
 8000fc0:	615a      	str	r2, [r3, #20]
    hdma_tim1_up.Init.MemDataAlignment = DMA_MDATAALIGN_BYTE;
 8000fc2:	4b11      	ldr	r3, [pc, #68]	; (8001008 <HAL_TIM_Base_MspInit+0x9c>)
 8000fc4:	2200      	movs	r2, #0
 8000fc6:	619a      	str	r2, [r3, #24]
    hdma_tim1_up.Init.Mode = DMA_NORMAL;
 8000fc8:	4b0f      	ldr	r3, [pc, #60]	; (8001008 <HAL_TIM_Base_MspInit+0x9c>)
 8000fca:	2200      	movs	r2, #0
 8000fcc:	61da      	str	r2, [r3, #28]
    hdma_tim1_up.Init.Priority = DMA_PRIORITY_VERY_HIGH;
 8000fce:	4b0e      	ldr	r3, [pc, #56]	; (8001008 <HAL_TIM_Base_MspInit+0x9c>)
 8000fd0:	f44f 3240 	mov.w	r2, #196608	; 0x30000
 8000fd4:	621a      	str	r2, [r3, #32]
    hdma_tim1_up.Init.FIFOMode = DMA_FIFOMODE_DISABLE;
 8000fd6:	4b0c      	ldr	r3, [pc, #48]	; (8001008 <HAL_TIM_Base_MspInit+0x9c>)
 8000fd8:	2200      	movs	r2, #0
 8000fda:	625a      	str	r2, [r3, #36]	; 0x24
    if (HAL_DMA_Init(&hdma_tim1_up) != HAL_OK)
 8000fdc:	480a      	ldr	r0, [pc, #40]	; (8001008 <HAL_TIM_Base_MspInit+0x9c>)
 8000fde:	f000 fbbf 	bl	8001760 <HAL_DMA_Init>
 8000fe2:	4603      	mov	r3, r0
 8000fe4:	2b00      	cmp	r3, #0
 8000fe6:	d001      	beq.n	8000fec <HAL_TIM_Base_MspInit+0x80>
    {
      Error_Handler();
 8000fe8:	f7ff fc86 	bl	80008f8 <Error_Handler>
    }

    __HAL_LINKDMA(tim_baseHandle,hdma[TIM_DMA_ID_UPDATE],hdma_tim1_up);
 8000fec:	687b      	ldr	r3, [r7, #4]
 8000fee:	4a06      	ldr	r2, [pc, #24]	; (8001008 <HAL_TIM_Base_MspInit+0x9c>)
 8000ff0:	621a      	str	r2, [r3, #32]
 8000ff2:	4a05      	ldr	r2, [pc, #20]	; (8001008 <HAL_TIM_Base_MspInit+0x9c>)
 8000ff4:	687b      	ldr	r3, [r7, #4]
 8000ff6:	6393      	str	r3, [r2, #56]	; 0x38

  /* USER CODE BEGIN TIM1_MspInit 1 */

  /* USER CODE END TIM1_MspInit 1 */
  }
}
 8000ff8:	bf00      	nop
 8000ffa:	3710      	adds	r7, #16
 8000ffc:	46bd      	mov	sp, r7
 8000ffe:	bd80      	pop	{r7, pc}
 8001000:	40010000 	.word	0x40010000
 8001004:	40023800 	.word	0x40023800
 8001008:	20012e00 	.word	0x20012e00
 800100c:	40026488 	.word	0x40026488

08001010 <HAL_TIM_PWM_MspInit>:

void HAL_TIM_PWM_MspInit(TIM_HandleTypeDef* tim_pwmHandle)
{
 8001010:	b580      	push	{r7, lr}
 8001012:	b084      	sub	sp, #16
 8001014:	af00      	add	r7, sp, #0
 8001016:	6078      	str	r0, [r7, #4]

  if(tim_pwmHandle->Instance==TIM2)
 8001018:	687b      	ldr	r3, [r7, #4]
 800101a:	681b      	ldr	r3, [r3, #0]
 800101c:	f1b3 4f80 	cmp.w	r3, #1073741824	; 0x40000000
 8001020:	d115      	bne.n	800104e <HAL_TIM_PWM_MspInit+0x3e>
  {
  /* USER CODE BEGIN TIM2_MspInit 0 */

  /* USER CODE END TIM2_MspInit 0 */
    /* TIM2 clock enable */
    __HAL_RCC_TIM2_CLK_ENABLE();
 8001022:	2300      	movs	r3, #0
 8001024:	60fb      	str	r3, [r7, #12]
 8001026:	4b0c      	ldr	r3, [pc, #48]	; (8001058 <HAL_TIM_PWM_MspInit+0x48>)
 8001028:	6c1b      	ldr	r3, [r3, #64]	; 0x40
 800102a:	4a0b      	ldr	r2, [pc, #44]	; (8001058 <HAL_TIM_PWM_MspInit+0x48>)
 800102c:	f043 0301 	orr.w	r3, r3, #1
 8001030:	6413      	str	r3, [r2, #64]	; 0x40
 8001032:	4b09      	ldr	r3, [pc, #36]	; (8001058 <HAL_TIM_PWM_MspInit+0x48>)
 8001034:	6c1b      	ldr	r3, [r3, #64]	; 0x40
 8001036:	f003 0301 	and.w	r3, r3, #1
 800103a:	60fb      	str	r3, [r7, #12]
 800103c:	68fb      	ldr	r3, [r7, #12]

    /* TIM2 interrupt Init */
    HAL_NVIC_SetPriority(TIM2_IRQn, 0, 0);
 800103e:	2200      	movs	r2, #0
 8001040:	2100      	movs	r1, #0
 8001042:	201c      	movs	r0, #28
 8001044:	f000 fb55 	bl	80016f2 <HAL_NVIC_SetPriority>
    HAL_NVIC_EnableIRQ(TIM2_IRQn);
 8001048:	201c      	movs	r0, #28
 800104a:	f000 fb6e 	bl	800172a <HAL_NVIC_EnableIRQ>
  /* USER CODE BEGIN TIM2_MspInit 1 */

  /* USER CODE END TIM2_MspInit 1 */
  }
}
 800104e:	bf00      	nop
 8001050:	3710      	adds	r7, #16
 8001052:	46bd      	mov	sp, r7
 8001054:	bd80      	pop	{r7, pc}
 8001056:	bf00      	nop
 8001058:	40023800 	.word	0x40023800

0800105c <HAL_TIM_MspPostInit>:
void HAL_TIM_MspPostInit(TIM_HandleTypeDef* timHandle)
{
 800105c:	b580      	push	{r7, lr}
 800105e:	b088      	sub	sp, #32
 8001060:	af00      	add	r7, sp, #0
 8001062:	6078      	str	r0, [r7, #4]

  GPIO_InitTypeDef GPIO_InitStruct = {0};
 8001064:	f107 030c 	add.w	r3, r7, #12
 8001068:	2200      	movs	r2, #0
 800106a:	601a      	str	r2, [r3, #0]
 800106c:	605a      	str	r2, [r3, #4]
 800106e:	609a      	str	r2, [r3, #8]
 8001070:	60da      	str	r2, [r3, #12]
 8001072:	611a      	str	r2, [r3, #16]
  if(timHandle->Instance==TIM2)
 8001074:	687b      	ldr	r3, [r7, #4]
 8001076:	681b      	ldr	r3, [r3, #0]
 8001078:	f1b3 4f80 	cmp.w	r3, #1073741824	; 0x40000000
 800107c:	d11e      	bne.n	80010bc <HAL_TIM_MspPostInit+0x60>
  {
  /* USER CODE BEGIN TIM2_MspPostInit 0 */

  /* USER CODE END TIM2_MspPostInit 0 */

    __HAL_RCC_GPIOB_CLK_ENABLE();
 800107e:	2300      	movs	r3, #0
 8001080:	60bb      	str	r3, [r7, #8]
 8001082:	4b10      	ldr	r3, [pc, #64]	; (80010c4 <HAL_TIM_MspPostInit+0x68>)
 8001084:	6b1b      	ldr	r3, [r3, #48]	; 0x30
 8001086:	4a0f      	ldr	r2, [pc, #60]	; (80010c4 <HAL_TIM_MspPostInit+0x68>)
 8001088:	f043 0302 	orr.w	r3, r3, #2
 800108c:	6313      	str	r3, [r2, #48]	; 0x30
 800108e:	4b0d      	ldr	r3, [pc, #52]	; (80010c4 <HAL_TIM_MspPostInit+0x68>)
 8001090:	6b1b      	ldr	r3, [r3, #48]	; 0x30
 8001092:	f003 0302 	and.w	r3, r3, #2
 8001096:	60bb      	str	r3, [r7, #8]
 8001098:	68bb      	ldr	r3, [r7, #8]
    /**TIM2 GPIO Configuration
    PB11     ------> TIM2_CH4
    */
    GPIO_InitStruct.Pin = VGA_HSYNC_Pin;
 800109a:	f44f 6300 	mov.w	r3, #2048	; 0x800
 800109e:	60fb      	str	r3, [r7, #12]
    GPIO_InitStruct.Mode = GPIO_MODE_AF_PP;
 80010a0:	2302      	movs	r3, #2
 80010a2:	613b      	str	r3, [r7, #16]
    GPIO_InitStruct.Pull = GPIO_NOPULL;
 80010a4:	2300      	movs	r3, #0
 80010a6:	617b      	str	r3, [r7, #20]
    GPIO_InitStruct.Speed = GPIO_SPEED_FREQ_VERY_HIGH;
 80010a8:	2303      	movs	r3, #3
 80010aa:	61bb      	str	r3, [r7, #24]
    GPIO_InitStruct.Alternate = GPIO_AF1_TIM2;
 80010ac:	2301      	movs	r3, #1
 80010ae:	61fb      	str	r3, [r7, #28]
    HAL_GPIO_Init(VGA_HSYNC_GPIO_Port, &GPIO_InitStruct);
 80010b0:	f107 030c 	add.w	r3, r7, #12
 80010b4:	4619      	mov	r1, r3
 80010b6:	4804      	ldr	r0, [pc, #16]	; (80010c8 <HAL_TIM_MspPostInit+0x6c>)
 80010b8:	f000 ff54 	bl	8001f64 <HAL_GPIO_Init>
  /* USER CODE BEGIN TIM2_MspPostInit 1 */

  /* USER CODE END TIM2_MspPostInit 1 */
  }

}
 80010bc:	bf00      	nop
 80010be:	3720      	adds	r7, #32
 80010c0:	46bd      	mov	sp, r7
 80010c2:	bd80      	pop	{r7, pc}
 80010c4:	40023800 	.word	0x40023800
 80010c8:	40020400 	.word	0x40020400

080010cc <MX_USART2_UART_Init>:
DMA_HandleTypeDef hdma_usart2_tx;

/* USART2 init function */

void MX_USART2_UART_Init(void)
{
 80010cc:	b580      	push	{r7, lr}
 80010ce:	af00      	add	r7, sp, #0
  /* USER CODE END USART2_Init 0 */

  /* USER CODE BEGIN USART2_Init 1 */

  /* USER CODE END USART2_Init 1 */
  huart2.Instance = USART2;
 80010d0:	4b11      	ldr	r3, [pc, #68]	; (8001118 <MX_USART2_UART_Init+0x4c>)
 80010d2:	4a12      	ldr	r2, [pc, #72]	; (800111c <MX_USART2_UART_Init+0x50>)
 80010d4:	601a      	str	r2, [r3, #0]
  huart2.Init.BaudRate = 115200;
 80010d6:	4b10      	ldr	r3, [pc, #64]	; (8001118 <MX_USART2_UART_Init+0x4c>)
 80010d8:	f44f 32e1 	mov.w	r2, #115200	; 0x1c200
 80010dc:	605a      	str	r2, [r3, #4]
  huart2.Init.WordLength = UART_WORDLENGTH_8B;
 80010de:	4b0e      	ldr	r3, [pc, #56]	; (8001118 <MX_USART2_UART_Init+0x4c>)
 80010e0:	2200      	movs	r2, #0
 80010e2:	609a      	str	r2, [r3, #8]
  huart2.Init.StopBits = UART_STOPBITS_1;
 80010e4:	4b0c      	ldr	r3, [pc, #48]	; (8001118 <MX_USART2_UART_Init+0x4c>)
 80010e6:	2200      	movs	r2, #0
 80010e8:	60da      	str	r2, [r3, #12]
  huart2.Init.Parity = UART_PARITY_NONE;
 80010ea:	4b0b      	ldr	r3, [pc, #44]	; (8001118 <MX_USART2_UART_Init+0x4c>)
 80010ec:	2200      	movs	r2, #0
 80010ee:	611a      	str	r2, [r3, #16]
  huart2.Init.Mode = UART_MODE_TX_RX;
 80010f0:	4b09      	ldr	r3, [pc, #36]	; (8001118 <MX_USART2_UART_Init+0x4c>)
 80010f2:	220c      	movs	r2, #12
 80010f4:	615a      	str	r2, [r3, #20]
  huart2.Init.HwFlowCtl = UART_HWCONTROL_NONE;
 80010f6:	4b08      	ldr	r3, [pc, #32]	; (8001118 <MX_USART2_UART_Init+0x4c>)
 80010f8:	2200      	movs	r2, #0
 80010fa:	619a      	str	r2, [r3, #24]
  huart2.Init.OverSampling = UART_OVERSAMPLING_16;
 80010fc:	4b06      	ldr	r3, [pc, #24]	; (8001118 <MX_USART2_UART_Init+0x4c>)
 80010fe:	2200      	movs	r2, #0
 8001100:	61da      	str	r2, [r3, #28]
  if (HAL_UART_Init(&huart2) != HAL_OK)
 8001102:	4805      	ldr	r0, [pc, #20]	; (8001118 <MX_USART2_UART_Init+0x4c>)
 8001104:	f002 fe92 	bl	8003e2c <HAL_UART_Init>
 8001108:	4603      	mov	r3, r0
 800110a:	2b00      	cmp	r3, #0
 800110c:	d001      	beq.n	8001112 <MX_USART2_UART_Init+0x46>
  {
    Error_Handler();
 800110e:	f7ff fbf3 	bl	80008f8 <Error_Handler>
  }
  /* USER CODE BEGIN USART2_Init 2 */

  /* USER CODE END USART2_Init 2 */

}
 8001112:	bf00      	nop
 8001114:	bd80      	pop	{r7, pc}
 8001116:	bf00      	nop
 8001118:	20013028 	.word	0x20013028
 800111c:	40004400 	.word	0x40004400

08001120 <HAL_UART_MspInit>:

void HAL_UART_MspInit(UART_HandleTypeDef* uartHandle)
{
 8001120:	b580      	push	{r7, lr}
 8001122:	b08a      	sub	sp, #40	; 0x28
 8001124:	af00      	add	r7, sp, #0
 8001126:	6078      	str	r0, [r7, #4]

  GPIO_InitTypeDef GPIO_InitStruct = {0};
 8001128:	f107 0314 	add.w	r3, r7, #20
 800112c:	2200      	movs	r2, #0
 800112e:	601a      	str	r2, [r3, #0]
 8001130:	605a      	str	r2, [r3, #4]
 8001132:	609a      	str	r2, [r3, #8]
 8001134:	60da      	str	r2, [r3, #12]
 8001136:	611a      	str	r2, [r3, #16]
  if(uartHandle->Instance==USART2)
 8001138:	687b      	ldr	r3, [r7, #4]
 800113a:	681b      	ldr	r3, [r3, #0]
 800113c:	4a4c      	ldr	r2, [pc, #304]	; (8001270 <HAL_UART_MspInit+0x150>)
 800113e:	4293      	cmp	r3, r2
 8001140:	f040 8091 	bne.w	8001266 <HAL_UART_MspInit+0x146>
  {
  /* USER CODE BEGIN USART2_MspInit 0 */

  /* USER CODE END USART2_MspInit 0 */
    /* USART2 clock enable */
    __HAL_RCC_USART2_CLK_ENABLE();
 8001144:	2300      	movs	r3, #0
 8001146:	613b      	str	r3, [r7, #16]
 8001148:	4b4a      	ldr	r3, [pc, #296]	; (8001274 <HAL_UART_MspInit+0x154>)
 800114a:	6c1b      	ldr	r3, [r3, #64]	; 0x40
 800114c:	4a49      	ldr	r2, [pc, #292]	; (8001274 <HAL_UART_MspInit+0x154>)
 800114e:	f443 3300 	orr.w	r3, r3, #131072	; 0x20000
 8001152:	6413      	str	r3, [r2, #64]	; 0x40
 8001154:	4b47      	ldr	r3, [pc, #284]	; (8001274 <HAL_UART_MspInit+0x154>)
 8001156:	6c1b      	ldr	r3, [r3, #64]	; 0x40
 8001158:	f403 3300 	and.w	r3, r3, #131072	; 0x20000
 800115c:	613b      	str	r3, [r7, #16]
 800115e:	693b      	ldr	r3, [r7, #16]

    __HAL_RCC_GPIOA_CLK_ENABLE();
 8001160:	2300      	movs	r3, #0
 8001162:	60fb      	str	r3, [r7, #12]
 8001164:	4b43      	ldr	r3, [pc, #268]	; (8001274 <HAL_UART_MspInit+0x154>)
 8001166:	6b1b      	ldr	r3, [r3, #48]	; 0x30
 8001168:	4a42      	ldr	r2, [pc, #264]	; (8001274 <HAL_UART_MspInit+0x154>)
 800116a:	f043 0301 	orr.w	r3, r3, #1
 800116e:	6313      	str	r3, [r2, #48]	; 0x30
 8001170:	4b40      	ldr	r3, [pc, #256]	; (8001274 <HAL_UART_MspInit+0x154>)
 8001172:	6b1b      	ldr	r3, [r3, #48]	; 0x30
 8001174:	f003 0301 	and.w	r3, r3, #1
 8001178:	60fb      	str	r3, [r7, #12]
 800117a:	68fb      	ldr	r3, [r7, #12]
    /**USART2 GPIO Configuration
    PA2     ------> USART2_TX
    PA3     ------> USART2_RX
    */
    GPIO_InitStruct.Pin = GPIO_PIN_2|GPIO_PIN_3;
 800117c:	230c      	movs	r3, #12
 800117e:	617b      	str	r3, [r7, #20]
    GPIO_InitStruct.Mode = GPIO_MODE_AF_PP;
 8001180:	2302      	movs	r3, #2
 8001182:	61bb      	str	r3, [r7, #24]
    GPIO_InitStruct.Pull = GPIO_NOPULL;
 8001184:	2300      	movs	r3, #0
 8001186:	61fb      	str	r3, [r7, #28]
    GPIO_InitStruct.Speed = GPIO_SPEED_FREQ_VERY_HIGH;
 8001188:	2303      	movs	r3, #3
 800118a:	623b      	str	r3, [r7, #32]
    GPIO_InitStruct.Alternate = GPIO_AF7_USART2;
 800118c:	2307      	movs	r3, #7
 800118e:	627b      	str	r3, [r7, #36]	; 0x24
    HAL_GPIO_Init(GPIOA, &GPIO_InitStruct);
 8001190:	f107 0314 	add.w	r3, r7, #20
 8001194:	4619      	mov	r1, r3
 8001196:	4838      	ldr	r0, [pc, #224]	; (8001278 <HAL_UART_MspInit+0x158>)
 8001198:	f000 fee4 	bl	8001f64 <HAL_GPIO_Init>

    /* USART2 DMA Init */
    /* USART2_RX Init */
    hdma_usart2_rx.Instance = DMA1_Stream5;
 800119c:	4b37      	ldr	r3, [pc, #220]	; (800127c <HAL_UART_MspInit+0x15c>)
 800119e:	4a38      	ldr	r2, [pc, #224]	; (8001280 <HAL_UART_MspInit+0x160>)
 80011a0:	601a      	str	r2, [r3, #0]
    hdma_usart2_rx.Init.Channel = DMA_CHANNEL_4;
 80011a2:	4b36      	ldr	r3, [pc, #216]	; (800127c <HAL_UART_MspInit+0x15c>)
 80011a4:	f04f 6200 	mov.w	r2, #134217728	; 0x8000000
 80011a8:	605a      	str	r2, [r3, #4]
    hdma_usart2_rx.Init.Direction = DMA_PERIPH_TO_MEMORY;
 80011aa:	4b34      	ldr	r3, [pc, #208]	; (800127c <HAL_UART_MspInit+0x15c>)
 80011ac:	2200      	movs	r2, #0
 80011ae:	609a      	str	r2, [r3, #8]
    hdma_usart2_rx.Init.PeriphInc = DMA_PINC_DISABLE;
 80011b0:	4b32      	ldr	r3, [pc, #200]	; (800127c <HAL_UART_MspInit+0x15c>)
 80011b2:	2200      	movs	r2, #0
 80011b4:	60da      	str	r2, [r3, #12]
    hdma_usart2_rx.Init.MemInc = DMA_MINC_ENABLE;
 80011b6:	4b31      	ldr	r3, [pc, #196]	; (800127c <HAL_UART_MspInit+0x15c>)
 80011b8:	f44f 6280 	mov.w	r2, #1024	; 0x400
 80011bc:	611a      	str	r2, [r3, #16]
    hdma_usart2_rx.Init.PeriphDataAlignment = DMA_PDATAALIGN_BYTE;
 80011be:	4b2f      	ldr	r3, [pc, #188]	; (800127c <HAL_UART_MspInit+0x15c>)
 80011c0:	2200      	movs	r2, #0
 80011c2:	615a      	str	r2, [r3, #20]
    hdma_usart2_rx.Init.MemDataAlignment = DMA_MDATAALIGN_BYTE;
 80011c4:	4b2d      	ldr	r3, [pc, #180]	; (800127c <HAL_UART_MspInit+0x15c>)
 80011c6:	2200      	movs	r2, #0
 80011c8:	619a      	str	r2, [r3, #24]
    hdma_usart2_rx.Init.Mode = DMA_CIRCULAR;
 80011ca:	4b2c      	ldr	r3, [pc, #176]	; (800127c <HAL_UART_MspInit+0x15c>)
 80011cc:	f44f 7280 	mov.w	r2, #256	; 0x100
 80011d0:	61da      	str	r2, [r3, #28]
    hdma_usart2_rx.Init.Priority = DMA_PRIORITY_LOW;
 80011d2:	4b2a      	ldr	r3, [pc, #168]	; (800127c <HAL_UART_MspInit+0x15c>)
 80011d4:	2200      	movs	r2, #0
 80011d6:	621a      	str	r2, [r3, #32]
    hdma_usart2_rx.Init.FIFOMode = DMA_FIFOMODE_DISABLE;
 80011d8:	4b28      	ldr	r3, [pc, #160]	; (800127c <HAL_UART_MspInit+0x15c>)
 80011da:	2200      	movs	r2, #0
 80011dc:	625a      	str	r2, [r3, #36]	; 0x24
    if (HAL_DMA_Init(&hdma_usart2_rx) != HAL_OK)
 80011de:	4827      	ldr	r0, [pc, #156]	; (800127c <HAL_UART_MspInit+0x15c>)
 80011e0:	f000 fabe 	bl	8001760 <HAL_DMA_Init>
 80011e4:	4603      	mov	r3, r0
 80011e6:	2b00      	cmp	r3, #0
 80011e8:	d001      	beq.n	80011ee <HAL_UART_MspInit+0xce>
    {
      Error_Handler();
 80011ea:	f7ff fb85 	bl	80008f8 <Error_Handler>
    }

    __HAL_LINKDMA(uartHandle,hdmarx,hdma_usart2_rx);
 80011ee:	687b      	ldr	r3, [r7, #4]
 80011f0:	4a22      	ldr	r2, [pc, #136]	; (800127c <HAL_UART_MspInit+0x15c>)
 80011f2:	639a      	str	r2, [r3, #56]	; 0x38
 80011f4:	4a21      	ldr	r2, [pc, #132]	; (800127c <HAL_UART_MspInit+0x15c>)
 80011f6:	687b      	ldr	r3, [r7, #4]
 80011f8:	6393      	str	r3, [r2, #56]	; 0x38

    /* USART2_TX Init */
    hdma_usart2_tx.Instance = DMA1_Stream6;
 80011fa:	4b22      	ldr	r3, [pc, #136]	; (8001284 <HAL_UART_MspInit+0x164>)
 80011fc:	4a22      	ldr	r2, [pc, #136]	; (8001288 <HAL_UART_MspInit+0x168>)
 80011fe:	601a      	str	r2, [r3, #0]
    hdma_usart2_tx.Init.Channel = DMA_CHANNEL_4;
 8001200:	4b20      	ldr	r3, [pc, #128]	; (8001284 <HAL_UART_MspInit+0x164>)
 8001202:	f04f 6200 	mov.w	r2, #134217728	; 0x8000000
 8001206:	605a      	str	r2, [r3, #4]
    hdma_usart2_tx.Init.Direction = DMA_MEMORY_TO_PERIPH;
 8001208:	4b1e      	ldr	r3, [pc, #120]	; (8001284 <HAL_UART_MspInit+0x164>)
 800120a:	2240      	movs	r2, #64	; 0x40
 800120c:	609a      	str	r2, [r3, #8]
    hdma_usart2_tx.Init.PeriphInc = DMA_PINC_DISABLE;
 800120e:	4b1d      	ldr	r3, [pc, #116]	; (8001284 <HAL_UART_MspInit+0x164>)
 8001210:	2200      	movs	r2, #0
 8001212:	60da      	str	r2, [r3, #12]
    hdma_usart2_tx.Init.MemInc = DMA_MINC_ENABLE;
 8001214:	4b1b      	ldr	r3, [pc, #108]	; (8001284 <HAL_UART_MspInit+0x164>)
 8001216:	f44f 6280 	mov.w	r2, #1024	; 0x400
 800121a:	611a      	str	r2, [r3, #16]
    hdma_usart2_tx.Init.PeriphDataAlignment = DMA_PDATAALIGN_BYTE;
 800121c:	4b19      	ldr	r3, [pc, #100]	; (8001284 <HAL_UART_MspInit+0x164>)
 800121e:	2200      	movs	r2, #0
 8001220:	615a      	str	r2, [r3, #20]
    hdma_usart2_tx.Init.MemDataAlignment = DMA_MDATAALIGN_BYTE;
 8001222:	4b18      	ldr	r3, [pc, #96]	; (8001284 <HAL_UART_MspInit+0x164>)
 8001224:	2200      	movs	r2, #0
 8001226:	619a      	str	r2, [r3, #24]
    hdma_usart2_tx.Init.Mode = DMA_NORMAL;
 8001228:	4b16      	ldr	r3, [pc, #88]	; (8001284 <HAL_UART_MspInit+0x164>)
 800122a:	2200      	movs	r2, #0
 800122c:	61da      	str	r2, [r3, #28]
    hdma_usart2_tx.Init.Priority = DMA_PRIORITY_LOW;
 800122e:	4b15      	ldr	r3, [pc, #84]	; (8001284 <HAL_UART_MspInit+0x164>)
 8001230:	2200      	movs	r2, #0
 8001232:	621a      	str	r2, [r3, #32]
    hdma_usart2_tx.Init.FIFOMode = DMA_FIFOMODE_DISABLE;
 8001234:	4b13      	ldr	r3, [pc, #76]	; (8001284 <HAL_UART_MspInit+0x164>)
 8001236:	2200      	movs	r2, #0
 8001238:	625a      	str	r2, [r3, #36]	; 0x24
    if (HAL_DMA_Init(&hdma_usart2_tx) != HAL_OK)
 800123a:	4812      	ldr	r0, [pc, #72]	; (8001284 <HAL_UART_MspInit+0x164>)
 800123c:	f000 fa90 	bl	8001760 <HAL_DMA_Init>
 8001240:	4603      	mov	r3, r0
 8001242:	2b00      	cmp	r3, #0
 8001244:	d001      	beq.n	800124a <HAL_UART_MspInit+0x12a>
    {
      Error_Handler();
 8001246:	f7ff fb57 	bl	80008f8 <Error_Handler>
    }

    __HAL_LINKDMA(uartHandle,hdmatx,hdma_usart2_tx);
 800124a:	687b      	ldr	r3, [r7, #4]
 800124c:	4a0d      	ldr	r2, [pc, #52]	; (8001284 <HAL_UART_MspInit+0x164>)
 800124e:	635a      	str	r2, [r3, #52]	; 0x34
 8001250:	4a0c      	ldr	r2, [pc, #48]	; (8001284 <HAL_UART_MspInit+0x164>)
 8001252:	687b      	ldr	r3, [r7, #4]
 8001254:	6393      	str	r3, [r2, #56]	; 0x38

    /* USART2 interrupt Init */
    HAL_NVIC_SetPriority(USART2_IRQn, 0, 0);
 8001256:	2200      	movs	r2, #0
 8001258:	2100      	movs	r1, #0
 800125a:	2026      	movs	r0, #38	; 0x26
 800125c:	f000 fa49 	bl	80016f2 <HAL_NVIC_SetPriority>
    HAL_NVIC_EnableIRQ(USART2_IRQn);
 8001260:	2026      	movs	r0, #38	; 0x26
 8001262:	f000 fa62 	bl	800172a <HAL_NVIC_EnableIRQ>
  /* USER CODE BEGIN USART2_MspInit 1 */

  /* USER CODE END USART2_MspInit 1 */
  }
}
 8001266:	bf00      	nop
 8001268:	3728      	adds	r7, #40	; 0x28
 800126a:	46bd      	mov	sp, r7
 800126c:	bd80      	pop	{r7, pc}
 800126e:	bf00      	nop
 8001270:	40004400 	.word	0x40004400
 8001274:	40023800 	.word	0x40023800
 8001278:	40020000 	.word	0x40020000
 800127c:	20012f28 	.word	0x20012f28
 8001280:	40026088 	.word	0x40026088
 8001284:	20012f88 	.word	0x20012f88
 8001288:	400260a0 	.word	0x400260a0

0800128c <HAL_UART_RxCpltCallback>:
  }
}

/* USER CODE BEGIN 1 */

void HAL_UART_RxCpltCallback(UART_HandleTypeDef *huart) {
 800128c:	b580      	push	{r7, lr}
 800128e:	b086      	sub	sp, #24
 8001290:	af00      	add	r7, sp, #0
 8001292:	6078      	str	r0, [r7, #4]
	// idle detection needs at least one UART clock to detect the bus is idle. So
	// in the case, that the transmission length is one full buffer length
	// and the start buffer pointer is at 0, it will be also 0 at the end of the
	// transmission. In this case the DMA rollover will increment the RxRollover
	// variable first and len will not be zero.
	if(__HAL_UART_GET_FLAG(huart, UART_FLAG_IDLE)) {									// Check if it is an "Idle Interrupt"
 8001294:	687b      	ldr	r3, [r7, #4]
 8001296:	681b      	ldr	r3, [r3, #0]
 8001298:	681b      	ldr	r3, [r3, #0]
 800129a:	f003 0310 	and.w	r3, r3, #16
 800129e:	2b10      	cmp	r3, #16
 80012a0:	f040 8085 	bne.w	80013ae <HAL_UART_RxCpltCallback+0x122>
		__HAL_UART_CLEAR_IDLEFLAG(&huart2);												// clear the interrupt
 80012a4:	2300      	movs	r3, #0
 80012a6:	60fb      	str	r3, [r7, #12]
 80012a8:	4b46      	ldr	r3, [pc, #280]	; (80013c4 <HAL_UART_RxCpltCallback+0x138>)
 80012aa:	681b      	ldr	r3, [r3, #0]
 80012ac:	681b      	ldr	r3, [r3, #0]
 80012ae:	60fb      	str	r3, [r7, #12]
 80012b0:	4b44      	ldr	r3, [pc, #272]	; (80013c4 <HAL_UART_RxCpltCallback+0x138>)
 80012b2:	681b      	ldr	r3, [r3, #0]
 80012b4:	685b      	ldr	r3, [r3, #4]
 80012b6:	60fb      	str	r3, [r7, #12]
 80012b8:	68fb      	ldr	r3, [r7, #12]
		RxCounter++;																	// increment the Rx Counter
 80012ba:	4b43      	ldr	r3, [pc, #268]	; (80013c8 <HAL_UART_RxCpltCallback+0x13c>)
 80012bc:	781b      	ldrb	r3, [r3, #0]
 80012be:	3301      	adds	r3, #1
 80012c0:	b2da      	uxtb	r2, r3
 80012c2:	4b41      	ldr	r3, [pc, #260]	; (80013c8 <HAL_UART_RxCpltCallback+0x13c>)
 80012c4:	701a      	strb	r2, [r3, #0]

		uint8_t TxSize = 0;
 80012c6:	2300      	movs	r3, #0
 80012c8:	753b      	strb	r3, [r7, #20]
		uint16_t start = RxBfrPos;														// Rx bytes start position (=last buffer position)
 80012ca:	4b40      	ldr	r3, [pc, #256]	; (80013cc <HAL_UART_RxCpltCallback+0x140>)
 80012cc:	781b      	ldrb	r3, [r3, #0]
 80012ce:	827b      	strh	r3, [r7, #18]
		RxBfrPos = RX_BUFSIZE - (uint16_t)huart->hdmarx->Instance->NDTR;				// determine actual buffer position
 80012d0:	687b      	ldr	r3, [r7, #4]
 80012d2:	6b9b      	ldr	r3, [r3, #56]	; 0x38
 80012d4:	681b      	ldr	r3, [r3, #0]
 80012d6:	685b      	ldr	r3, [r3, #4]
 80012d8:	b2da      	uxtb	r2, r3
 80012da:	f06f 037f 	mvn.w	r3, #127	; 0x7f
 80012de:	1a9b      	subs	r3, r3, r2
 80012e0:	b2da      	uxtb	r2, r3
 80012e2:	4b3a      	ldr	r3, [pc, #232]	; (80013cc <HAL_UART_RxCpltCallback+0x140>)
 80012e4:	701a      	strb	r2, [r3, #0]
		uint16_t len = RX_BUFSIZE;														// init len with max. size
 80012e6:	2380      	movs	r3, #128	; 0x80
 80012e8:	82fb      	strh	r3, [r7, #22]
		UART2_txBuffer[0] = '\0';
 80012ea:	4b39      	ldr	r3, [pc, #228]	; (80013d0 <HAL_UART_RxCpltCallback+0x144>)
 80012ec:	2200      	movs	r2, #0
 80012ee:	701a      	strb	r2, [r3, #0]

		if(RxRollover < 2)  {
 80012f0:	4b38      	ldr	r3, [pc, #224]	; (80013d4 <HAL_UART_RxCpltCallback+0x148>)
 80012f2:	781b      	ldrb	r3, [r3, #0]
 80012f4:	2b01      	cmp	r3, #1
 80012f6:	d81c      	bhi.n	8001332 <HAL_UART_RxCpltCallback+0xa6>
			if(RxRollover) {															// rolled over once
 80012f8:	4b36      	ldr	r3, [pc, #216]	; (80013d4 <HAL_UART_RxCpltCallback+0x148>)
 80012fa:	781b      	ldrb	r3, [r3, #0]
 80012fc:	2b00      	cmp	r3, #0
 80012fe:	d011      	beq.n	8001324 <HAL_UART_RxCpltCallback+0x98>
				if(RxBfrPos <= start) len = RxBfrPos + RX_BUFSIZE - start;				// no bytes overwritten
 8001300:	4b32      	ldr	r3, [pc, #200]	; (80013cc <HAL_UART_RxCpltCallback+0x140>)
 8001302:	781b      	ldrb	r3, [r3, #0]
 8001304:	b29b      	uxth	r3, r3
 8001306:	8a7a      	ldrh	r2, [r7, #18]
 8001308:	429a      	cmp	r2, r3
 800130a:	d308      	bcc.n	800131e <HAL_UART_RxCpltCallback+0x92>
 800130c:	4b2f      	ldr	r3, [pc, #188]	; (80013cc <HAL_UART_RxCpltCallback+0x140>)
 800130e:	781b      	ldrb	r3, [r3, #0]
 8001310:	b29a      	uxth	r2, r3
 8001312:	8a7b      	ldrh	r3, [r7, #18]
 8001314:	1ad3      	subs	r3, r2, r3
 8001316:	b29b      	uxth	r3, r3
 8001318:	3380      	adds	r3, #128	; 0x80
 800131a:	82fb      	strh	r3, [r7, #22]
 800131c:	e00b      	b.n	8001336 <HAL_UART_RxCpltCallback+0xaa>
				else len = RX_BUFSIZE + 1;												// bytes overwritten error
 800131e:	2381      	movs	r3, #129	; 0x81
 8001320:	82fb      	strh	r3, [r7, #22]
 8001322:	e008      	b.n	8001336 <HAL_UART_RxCpltCallback+0xaa>
			} else {
				len = RxBfrPos - start;													// no bytes overwritten
 8001324:	4b29      	ldr	r3, [pc, #164]	; (80013cc <HAL_UART_RxCpltCallback+0x140>)
 8001326:	781b      	ldrb	r3, [r3, #0]
 8001328:	b29a      	uxth	r2, r3
 800132a:	8a7b      	ldrh	r3, [r7, #18]
 800132c:	1ad3      	subs	r3, r2, r3
 800132e:	82fb      	strh	r3, [r7, #22]
 8001330:	e001      	b.n	8001336 <HAL_UART_RxCpltCallback+0xaa>
			}
		} else {
			len = RX_BUFSIZE + 2;														// dual rollover error
 8001332:	2382      	movs	r3, #130	; 0x82
 8001334:	82fb      	strh	r3, [r7, #22]
		}

		if(len && (len <= RX_BUFSIZE)) {
 8001336:	8afb      	ldrh	r3, [r7, #22]
 8001338:	2b00      	cmp	r3, #0
 800133a:	d025      	beq.n	8001388 <HAL_UART_RxCpltCallback+0xfc>
 800133c:	8afb      	ldrh	r3, [r7, #22]
 800133e:	2b80      	cmp	r3, #128	; 0x80
 8001340:	d822      	bhi.n	8001388 <HAL_UART_RxCpltCallback+0xfc>
				sprintf(UART2_txBuffer, "ACK RxC:%d S:%d L:%d RO:%d RXp:%d >>", RxCounter, start, len, RxRollover, RxBfrPos);

			#else
				//sprintf(UART2_txBuffer, "U heeft ingevoerd:");
			#endif
			TxSize = strlen(UART2_txBuffer);
 8001342:	4823      	ldr	r0, [pc, #140]	; (80013d0 <HAL_UART_RxCpltCallback+0x144>)
 8001344:	f7fe ff44 	bl	80001d0 <strlen>
 8001348:	4603      	mov	r3, r0
 800134a:	753b      	strb	r3, [r7, #20]

			// add received bytes to UART2_txBuffer
			uint8_t i;
			for(i = 0; i < len; i++) *(UART2_txBuffer + TxSize + i) = *(UART2_rxBuffer + ((start + i) % RX_BUFSIZE));
 800134c:	2300      	movs	r3, #0
 800134e:	757b      	strb	r3, [r7, #21]
 8001350:	e010      	b.n	8001374 <HAL_UART_RxCpltCallback+0xe8>
 8001352:	8a7a      	ldrh	r2, [r7, #18]
 8001354:	7d7b      	ldrb	r3, [r7, #21]
 8001356:	4413      	add	r3, r2
 8001358:	f003 037f 	and.w	r3, r3, #127	; 0x7f
 800135c:	4a1e      	ldr	r2, [pc, #120]	; (80013d8 <HAL_UART_RxCpltCallback+0x14c>)
 800135e:	441a      	add	r2, r3
 8001360:	7d39      	ldrb	r1, [r7, #20]
 8001362:	7d7b      	ldrb	r3, [r7, #21]
 8001364:	440b      	add	r3, r1
 8001366:	491a      	ldr	r1, [pc, #104]	; (80013d0 <HAL_UART_RxCpltCallback+0x144>)
 8001368:	440b      	add	r3, r1
 800136a:	7812      	ldrb	r2, [r2, #0]
 800136c:	701a      	strb	r2, [r3, #0]
 800136e:	7d7b      	ldrb	r3, [r7, #21]
 8001370:	3301      	adds	r3, #1
 8001372:	757b      	strb	r3, [r7, #21]
 8001374:	7d7b      	ldrb	r3, [r7, #21]
 8001376:	b29b      	uxth	r3, r3
 8001378:	8afa      	ldrh	r2, [r7, #22]
 800137a:	429a      	cmp	r2, r3
 800137c:	d8e9      	bhi.n	8001352 <HAL_UART_RxCpltCallback+0xc6>
			TxSize += i;
 800137e:	7d3a      	ldrb	r2, [r7, #20]
 8001380:	7d7b      	ldrb	r3, [r7, #21]
 8001382:	4413      	add	r3, r2
 8001384:	753b      	strb	r3, [r7, #20]
		if(len && (len <= RX_BUFSIZE)) {
 8001386:	e00b      	b.n	80013a0 <HAL_UART_RxCpltCallback+0x114>
		} else {
			// buffer overflow error:
			sprintf(UART2_txBuffer, "NAK RX BUFFER OVERFLOW ERROR %d\r\n", (len - RX_BUFSIZE));	// Change error message
 8001388:	8afb      	ldrh	r3, [r7, #22]
 800138a:	3b80      	subs	r3, #128	; 0x80
 800138c:	461a      	mov	r2, r3
 800138e:	4913      	ldr	r1, [pc, #76]	; (80013dc <HAL_UART_RxCpltCallback+0x150>)
 8001390:	480f      	ldr	r0, [pc, #60]	; (80013d0 <HAL_UART_RxCpltCallback+0x144>)
 8001392:	f003 fd83 	bl	8004e9c <siprintf>
			TxSize = strlen(UART2_txBuffer);
 8001396:	480e      	ldr	r0, [pc, #56]	; (80013d0 <HAL_UART_RxCpltCallback+0x144>)
 8001398:	f7fe ff1a 	bl	80001d0 <strlen>
 800139c:	4603      	mov	r3, r0
 800139e:	753b      	strb	r3, [r7, #20]
		}

		FL_Parse(UART2_txBuffer);
 80013a0:	480b      	ldr	r0, [pc, #44]	; (80013d0 <HAL_UART_RxCpltCallback+0x144>)
 80013a2:	f7ff f8e9 	bl	8000578 <FL_Parse>

		//HAL_UART_Transmit_DMA(&huart2, (uint8_t*)UART2_txBuffer, TxSize);						// send a response

		RxRollover = 0;																	// reset the Rollover variable
 80013a6:	4b0b      	ldr	r3, [pc, #44]	; (80013d4 <HAL_UART_RxCpltCallback+0x148>)
 80013a8:	2200      	movs	r2, #0
 80013aa:	701a      	strb	r2, [r3, #0]
	} else {
		// no idle flag? --> DMA rollover occurred
		RxRollover++;		// increment Rollover Counter
	}
}
 80013ac:	e005      	b.n	80013ba <HAL_UART_RxCpltCallback+0x12e>
		RxRollover++;		// increment Rollover Counter
 80013ae:	4b09      	ldr	r3, [pc, #36]	; (80013d4 <HAL_UART_RxCpltCallback+0x148>)
 80013b0:	781b      	ldrb	r3, [r3, #0]
 80013b2:	3301      	adds	r3, #1
 80013b4:	b2da      	uxtb	r2, r3
 80013b6:	4b07      	ldr	r3, [pc, #28]	; (80013d4 <HAL_UART_RxCpltCallback+0x148>)
 80013b8:	701a      	strb	r2, [r3, #0]
}
 80013ba:	bf00      	nop
 80013bc:	3718      	adds	r7, #24
 80013be:	46bd      	mov	sp, r7
 80013c0:	bd80      	pop	{r7, pc}
 80013c2:	bf00      	nop
 80013c4:	20013028 	.word	0x20013028
 80013c8:	200000b1 	.word	0x200000b1
 80013cc:	200000b2 	.word	0x200000b2
 80013d0:	20012fe8 	.word	0x20012fe8
 80013d4:	200000b0 	.word	0x200000b0
 80013d8:	20012ea8 	.word	0x20012ea8
 80013dc:	08006298 	.word	0x08006298

080013e0 <HAL_UART_TxCpltCallback>:

void HAL_UART_TxCpltCallback(UART_HandleTypeDef *huart) {
 80013e0:	b480      	push	{r7}
 80013e2:	b083      	sub	sp, #12
 80013e4:	af00      	add	r7, sp, #0
 80013e6:	6078      	str	r0, [r7, #4]
	// UART Tx Complete Callback;
	TxCounter++;
 80013e8:	4b05      	ldr	r3, [pc, #20]	; (8001400 <HAL_UART_TxCpltCallback+0x20>)
 80013ea:	781b      	ldrb	r3, [r3, #0]
 80013ec:	3301      	adds	r3, #1
 80013ee:	b2da      	uxtb	r2, r3
 80013f0:	4b03      	ldr	r3, [pc, #12]	; (8001400 <HAL_UART_TxCpltCallback+0x20>)
 80013f2:	701a      	strb	r2, [r3, #0]
}
 80013f4:	bf00      	nop
 80013f6:	370c      	adds	r7, #12
 80013f8:	46bd      	mov	sp, r7
 80013fa:	f85d 7b04 	ldr.w	r7, [sp], #4
 80013fe:	4770      	bx	lr
 8001400:	200000b3 	.word	0x200000b3

08001404 <Reset_Handler>:

    .section  .text.Reset_Handler
  .weak  Reset_Handler
  .type  Reset_Handler, %function
Reset_Handler:  
  ldr   sp, =_estack     /* set stack pointer */
 8001404:	f8df d034 	ldr.w	sp, [pc, #52]	; 800143c <LoopFillZerobss+0x14>

/* Copy the data segment initializers from flash to SRAM */  
  movs  r1, #0
 8001408:	2100      	movs	r1, #0
  b  LoopCopyDataInit
 800140a:	e003      	b.n	8001414 <LoopCopyDataInit>

0800140c <CopyDataInit>:

CopyDataInit:
  ldr  r3, =_sidata
 800140c:	4b0c      	ldr	r3, [pc, #48]	; (8001440 <LoopFillZerobss+0x18>)
  ldr  r3, [r3, r1]
 800140e:	585b      	ldr	r3, [r3, r1]
  str  r3, [r0, r1]
 8001410:	5043      	str	r3, [r0, r1]
  adds  r1, r1, #4
 8001412:	3104      	adds	r1, #4

08001414 <LoopCopyDataInit>:
    
LoopCopyDataInit:
  ldr  r0, =_sdata
 8001414:	480b      	ldr	r0, [pc, #44]	; (8001444 <LoopFillZerobss+0x1c>)
  ldr  r3, =_edata
 8001416:	4b0c      	ldr	r3, [pc, #48]	; (8001448 <LoopFillZerobss+0x20>)
  adds  r2, r0, r1
 8001418:	1842      	adds	r2, r0, r1
  cmp  r2, r3
 800141a:	429a      	cmp	r2, r3
  bcc  CopyDataInit
 800141c:	d3f6      	bcc.n	800140c <CopyDataInit>
  ldr  r2, =_sbss
 800141e:	4a0b      	ldr	r2, [pc, #44]	; (800144c <LoopFillZerobss+0x24>)
  b  LoopFillZerobss
 8001420:	e002      	b.n	8001428 <LoopFillZerobss>

08001422 <FillZerobss>:
/* Zero fill the bss segment. */  
FillZerobss:
  movs  r3, #0
 8001422:	2300      	movs	r3, #0
  str  r3, [r2], #4
 8001424:	f842 3b04 	str.w	r3, [r2], #4

08001428 <LoopFillZerobss>:
    
LoopFillZerobss:
  ldr  r3, = _ebss
 8001428:	4b09      	ldr	r3, [pc, #36]	; (8001450 <LoopFillZerobss+0x28>)
  cmp  r2, r3
 800142a:	429a      	cmp	r2, r3
  bcc  FillZerobss
 800142c:	d3f9      	bcc.n	8001422 <FillZerobss>

/* Call the clock system intitialization function.*/
  bl  SystemInit   
 800142e:	f7ff fccf 	bl	8000dd0 <SystemInit>
/* Call static constructors */
    bl __libc_init_array
 8001432:	f003 fd07 	bl	8004e44 <__libc_init_array>
/* Call the application's entry point.*/
  bl  main
 8001436:	f7ff f9b1 	bl	800079c <main>
  bx  lr    
 800143a:	4770      	bx	lr
  ldr   sp, =_estack     /* set stack pointer */
 800143c:	20020000 	.word	0x20020000
  ldr  r3, =_sidata
 8001440:	08006438 	.word	0x08006438
  ldr  r0, =_sdata
 8001444:	20000000 	.word	0x20000000
  ldr  r3, =_edata
 8001448:	20000090 	.word	0x20000090
  ldr  r2, =_sbss
 800144c:	20000090 	.word	0x20000090
  ldr  r3, = _ebss
 8001450:	20013080 	.word	0x20013080

08001454 <ADC_IRQHandler>:
 * @retval None       
*/
    .section  .text.Default_Handler,"ax",%progbits
Default_Handler:
Infinite_Loop:
  b  Infinite_Loop
 8001454:	e7fe      	b.n	8001454 <ADC_IRQHandler>
	...

08001458 <HAL_Init>:
  *         need to ensure that the SysTick time base is always set to 1 millisecond
  *         to have correct HAL operation.
  * @retval HAL status
  */
HAL_StatusTypeDef HAL_Init(void)
{
 8001458:	b580      	push	{r7, lr}
 800145a:	af00      	add	r7, sp, #0
  /* Configure Flash prefetch, Instruction cache, Data cache */ 
#if (INSTRUCTION_CACHE_ENABLE != 0U)
  __HAL_FLASH_INSTRUCTION_CACHE_ENABLE();
 800145c:	4b0e      	ldr	r3, [pc, #56]	; (8001498 <HAL_Init+0x40>)
 800145e:	681b      	ldr	r3, [r3, #0]
 8001460:	4a0d      	ldr	r2, [pc, #52]	; (8001498 <HAL_Init+0x40>)
 8001462:	f443 7300 	orr.w	r3, r3, #512	; 0x200
 8001466:	6013      	str	r3, [r2, #0]
#endif /* INSTRUCTION_CACHE_ENABLE */

#if (DATA_CACHE_ENABLE != 0U)
  __HAL_FLASH_DATA_CACHE_ENABLE();
 8001468:	4b0b      	ldr	r3, [pc, #44]	; (8001498 <HAL_Init+0x40>)
 800146a:	681b      	ldr	r3, [r3, #0]
 800146c:	4a0a      	ldr	r2, [pc, #40]	; (8001498 <HAL_Init+0x40>)
 800146e:	f443 6380 	orr.w	r3, r3, #1024	; 0x400
 8001472:	6013      	str	r3, [r2, #0]
#endif /* DATA_CACHE_ENABLE */

#if (PREFETCH_ENABLE != 0U)
  __HAL_FLASH_PREFETCH_BUFFER_ENABLE();
 8001474:	4b08      	ldr	r3, [pc, #32]	; (8001498 <HAL_Init+0x40>)
 8001476:	681b      	ldr	r3, [r3, #0]
 8001478:	4a07      	ldr	r2, [pc, #28]	; (8001498 <HAL_Init+0x40>)
 800147a:	f443 7380 	orr.w	r3, r3, #256	; 0x100
 800147e:	6013      	str	r3, [r2, #0]
#endif /* PREFETCH_ENABLE */

  /* Set Interrupt Group Priority */
  HAL_NVIC_SetPriorityGrouping(NVIC_PRIORITYGROUP_4);
 8001480:	2003      	movs	r0, #3
 8001482:	f000 f92b 	bl	80016dc <HAL_NVIC_SetPriorityGrouping>

  /* Use systick as time base source and configure 1ms tick (default clock after Reset is HSI) */
  HAL_InitTick(TICK_INT_PRIORITY);
 8001486:	2000      	movs	r0, #0
 8001488:	f000 f808 	bl	800149c <HAL_InitTick>

  /* Init the low level hardware */
  HAL_MspInit();
 800148c:	f7ff fada 	bl	8000a44 <HAL_MspInit>

  /* Return function status */
  return HAL_OK;
 8001490:	2300      	movs	r3, #0
}
 8001492:	4618      	mov	r0, r3
 8001494:	bd80      	pop	{r7, pc}
 8001496:	bf00      	nop
 8001498:	40023c00 	.word	0x40023c00

0800149c <HAL_InitTick>:
  *       implementation  in user file.
  * @param TickPriority Tick interrupt priority.
  * @retval HAL status
  */
__weak HAL_StatusTypeDef HAL_InitTick(uint32_t TickPriority)
{
 800149c:	b580      	push	{r7, lr}
 800149e:	b082      	sub	sp, #8
 80014a0:	af00      	add	r7, sp, #0
 80014a2:	6078      	str	r0, [r7, #4]
  /* Configure the SysTick to have interrupt in 1ms time basis*/
  if (HAL_SYSTICK_Config(SystemCoreClock / (1000U / uwTickFreq)) > 0U)
 80014a4:	4b12      	ldr	r3, [pc, #72]	; (80014f0 <HAL_InitTick+0x54>)
 80014a6:	681a      	ldr	r2, [r3, #0]
 80014a8:	4b12      	ldr	r3, [pc, #72]	; (80014f4 <HAL_InitTick+0x58>)
 80014aa:	781b      	ldrb	r3, [r3, #0]
 80014ac:	4619      	mov	r1, r3
 80014ae:	f44f 737a 	mov.w	r3, #1000	; 0x3e8
 80014b2:	fbb3 f3f1 	udiv	r3, r3, r1
 80014b6:	fbb2 f3f3 	udiv	r3, r2, r3
 80014ba:	4618      	mov	r0, r3
 80014bc:	f000 f943 	bl	8001746 <HAL_SYSTICK_Config>
 80014c0:	4603      	mov	r3, r0
 80014c2:	2b00      	cmp	r3, #0
 80014c4:	d001      	beq.n	80014ca <HAL_InitTick+0x2e>
  {
    return HAL_ERROR;
 80014c6:	2301      	movs	r3, #1
 80014c8:	e00e      	b.n	80014e8 <HAL_InitTick+0x4c>
  }

  /* Configure the SysTick IRQ priority */
  if (TickPriority < (1UL << __NVIC_PRIO_BITS))
 80014ca:	687b      	ldr	r3, [r7, #4]
 80014cc:	2b0f      	cmp	r3, #15
 80014ce:	d80a      	bhi.n	80014e6 <HAL_InitTick+0x4a>
  {
    HAL_NVIC_SetPriority(SysTick_IRQn, TickPriority, 0U);
 80014d0:	2200      	movs	r2, #0
 80014d2:	6879      	ldr	r1, [r7, #4]
 80014d4:	f04f 30ff 	mov.w	r0, #4294967295
 80014d8:	f000 f90b 	bl	80016f2 <HAL_NVIC_SetPriority>
    uwTickPrio = TickPriority;
 80014dc:	4a06      	ldr	r2, [pc, #24]	; (80014f8 <HAL_InitTick+0x5c>)
 80014de:	687b      	ldr	r3, [r7, #4]
 80014e0:	6013      	str	r3, [r2, #0]
  {
    return HAL_ERROR;
  }

  /* Return function status */
  return HAL_OK;
 80014e2:	2300      	movs	r3, #0
 80014e4:	e000      	b.n	80014e8 <HAL_InitTick+0x4c>
    return HAL_ERROR;
 80014e6:	2301      	movs	r3, #1
}
 80014e8:	4618      	mov	r0, r3
 80014ea:	3708      	adds	r7, #8
 80014ec:	46bd      	mov	sp, r7
 80014ee:	bd80      	pop	{r7, pc}
 80014f0:	20000020 	.word	0x20000020
 80014f4:	20000028 	.word	0x20000028
 80014f8:	20000024 	.word	0x20000024

080014fc <HAL_IncTick>:
 * @note This function is declared as __weak to be overwritten in case of other 
  *      implementations in user file.
  * @retval None
  */
__weak void HAL_IncTick(void)
{
 80014fc:	b480      	push	{r7}
 80014fe:	af00      	add	r7, sp, #0
  uwTick += uwTickFreq;
 8001500:	4b06      	ldr	r3, [pc, #24]	; (800151c <HAL_IncTick+0x20>)
 8001502:	781b      	ldrb	r3, [r3, #0]
 8001504:	461a      	mov	r2, r3
 8001506:	4b06      	ldr	r3, [pc, #24]	; (8001520 <HAL_IncTick+0x24>)
 8001508:	681b      	ldr	r3, [r3, #0]
 800150a:	4413      	add	r3, r2
 800150c:	4a04      	ldr	r2, [pc, #16]	; (8001520 <HAL_IncTick+0x24>)
 800150e:	6013      	str	r3, [r2, #0]
}
 8001510:	bf00      	nop
 8001512:	46bd      	mov	sp, r7
 8001514:	f85d 7b04 	ldr.w	r7, [sp], #4
 8001518:	4770      	bx	lr
 800151a:	bf00      	nop
 800151c:	20000028 	.word	0x20000028
 8001520:	2001306c 	.word	0x2001306c

08001524 <HAL_GetTick>:
  * @note This function is declared as __weak to be overwritten in case of other 
  *       implementations in user file.
  * @retval tick value
  */
__weak uint32_t HAL_GetTick(void)
{
 8001524:	b480      	push	{r7}
 8001526:	af00      	add	r7, sp, #0
  return uwTick;
 8001528:	4b03      	ldr	r3, [pc, #12]	; (8001538 <HAL_GetTick+0x14>)
 800152a:	681b      	ldr	r3, [r3, #0]
}
 800152c:	4618      	mov	r0, r3
 800152e:	46bd      	mov	sp, r7
 8001530:	f85d 7b04 	ldr.w	r7, [sp], #4
 8001534:	4770      	bx	lr
 8001536:	bf00      	nop
 8001538:	2001306c 	.word	0x2001306c

0800153c <__NVIC_SetPriorityGrouping>:
           In case of a conflict between priority grouping and available
           priority bits (__NVIC_PRIO_BITS), the smallest possible priority group is set.
  \param [in]      PriorityGroup  Priority grouping field.
 */
__STATIC_INLINE void __NVIC_SetPriorityGrouping(uint32_t PriorityGroup)
{
 800153c:	b480      	push	{r7}
 800153e:	b085      	sub	sp, #20
 8001540:	af00      	add	r7, sp, #0
 8001542:	6078      	str	r0, [r7, #4]
  uint32_t reg_value;
  uint32_t PriorityGroupTmp = (PriorityGroup & (uint32_t)0x07UL);             /* only values 0..7 are used          */
 8001544:	687b      	ldr	r3, [r7, #4]
 8001546:	f003 0307 	and.w	r3, r3, #7
 800154a:	60fb      	str	r3, [r7, #12]

  reg_value  =  SCB->AIRCR;                                                   /* read old register configuration    */
 800154c:	4b0c      	ldr	r3, [pc, #48]	; (8001580 <__NVIC_SetPriorityGrouping+0x44>)
 800154e:	68db      	ldr	r3, [r3, #12]
 8001550:	60bb      	str	r3, [r7, #8]
  reg_value &= ~((uint32_t)(SCB_AIRCR_VECTKEY_Msk | SCB_AIRCR_PRIGROUP_Msk)); /* clear bits to change               */
 8001552:	68ba      	ldr	r2, [r7, #8]
 8001554:	f64f 03ff 	movw	r3, #63743	; 0xf8ff
 8001558:	4013      	ands	r3, r2
 800155a:	60bb      	str	r3, [r7, #8]
  reg_value  =  (reg_value                                   |
                ((uint32_t)0x5FAUL << SCB_AIRCR_VECTKEY_Pos) |
                (PriorityGroupTmp << SCB_AIRCR_PRIGROUP_Pos)  );              /* Insert write key and priority group */
 800155c:	68fb      	ldr	r3, [r7, #12]
 800155e:	021a      	lsls	r2, r3, #8
                ((uint32_t)0x5FAUL << SCB_AIRCR_VECTKEY_Pos) |
 8001560:	68bb      	ldr	r3, [r7, #8]
 8001562:	4313      	orrs	r3, r2
  reg_value  =  (reg_value                                   |
 8001564:	f043 63bf 	orr.w	r3, r3, #100139008	; 0x5f80000
 8001568:	f443 3300 	orr.w	r3, r3, #131072	; 0x20000
 800156c:	60bb      	str	r3, [r7, #8]
  SCB->AIRCR =  reg_value;
 800156e:	4a04      	ldr	r2, [pc, #16]	; (8001580 <__NVIC_SetPriorityGrouping+0x44>)
 8001570:	68bb      	ldr	r3, [r7, #8]
 8001572:	60d3      	str	r3, [r2, #12]
}
 8001574:	bf00      	nop
 8001576:	3714      	adds	r7, #20
 8001578:	46bd      	mov	sp, r7
 800157a:	f85d 7b04 	ldr.w	r7, [sp], #4
 800157e:	4770      	bx	lr
 8001580:	e000ed00 	.word	0xe000ed00

08001584 <__NVIC_GetPriorityGrouping>:
  \brief   Get Priority Grouping
  \details Reads the priority grouping field from the NVIC Interrupt Controller.
  \return                Priority grouping field (SCB->AIRCR [10:8] PRIGROUP field).
 */
__STATIC_INLINE uint32_t __NVIC_GetPriorityGrouping(void)
{
 8001584:	b480      	push	{r7}
 8001586:	af00      	add	r7, sp, #0
  return ((uint32_t)((SCB->AIRCR & SCB_AIRCR_PRIGROUP_Msk) >> SCB_AIRCR_PRIGROUP_Pos));
 8001588:	4b04      	ldr	r3, [pc, #16]	; (800159c <__NVIC_GetPriorityGrouping+0x18>)
 800158a:	68db      	ldr	r3, [r3, #12]
 800158c:	0a1b      	lsrs	r3, r3, #8
 800158e:	f003 0307 	and.w	r3, r3, #7
}
 8001592:	4618      	mov	r0, r3
 8001594:	46bd      	mov	sp, r7
 8001596:	f85d 7b04 	ldr.w	r7, [sp], #4
 800159a:	4770      	bx	lr
 800159c:	e000ed00 	.word	0xe000ed00

080015a0 <__NVIC_EnableIRQ>:
  \details Enables a device specific interrupt in the NVIC interrupt controller.
  \param [in]      IRQn  Device specific interrupt number.
  \note    IRQn must not be negative.
 */
__STATIC_INLINE void __NVIC_EnableIRQ(IRQn_Type IRQn)
{
 80015a0:	b480      	push	{r7}
 80015a2:	b083      	sub	sp, #12
 80015a4:	af00      	add	r7, sp, #0
 80015a6:	4603      	mov	r3, r0
 80015a8:	71fb      	strb	r3, [r7, #7]
  if ((int32_t)(IRQn) >= 0)
 80015aa:	f997 3007 	ldrsb.w	r3, [r7, #7]
 80015ae:	2b00      	cmp	r3, #0
 80015b0:	db0b      	blt.n	80015ca <__NVIC_EnableIRQ+0x2a>
  {
    NVIC->ISER[(((uint32_t)IRQn) >> 5UL)] = (uint32_t)(1UL << (((uint32_t)IRQn) & 0x1FUL));
 80015b2:	79fb      	ldrb	r3, [r7, #7]
 80015b4:	f003 021f 	and.w	r2, r3, #31
 80015b8:	4907      	ldr	r1, [pc, #28]	; (80015d8 <__NVIC_EnableIRQ+0x38>)
 80015ba:	f997 3007 	ldrsb.w	r3, [r7, #7]
 80015be:	095b      	lsrs	r3, r3, #5
 80015c0:	2001      	movs	r0, #1
 80015c2:	fa00 f202 	lsl.w	r2, r0, r2
 80015c6:	f841 2023 	str.w	r2, [r1, r3, lsl #2]
  }
}
 80015ca:	bf00      	nop
 80015cc:	370c      	adds	r7, #12
 80015ce:	46bd      	mov	sp, r7
 80015d0:	f85d 7b04 	ldr.w	r7, [sp], #4
 80015d4:	4770      	bx	lr
 80015d6:	bf00      	nop
 80015d8:	e000e100 	.word	0xe000e100

080015dc <__NVIC_SetPriority>:
  \param [in]      IRQn  Interrupt number.
  \param [in]  priority  Priority to set.
  \note    The priority cannot be set for every processor exception.
 */
__STATIC_INLINE void __NVIC_SetPriority(IRQn_Type IRQn, uint32_t priority)
{
 80015dc:	b480      	push	{r7}
 80015de:	b083      	sub	sp, #12
 80015e0:	af00      	add	r7, sp, #0
 80015e2:	4603      	mov	r3, r0
 80015e4:	6039      	str	r1, [r7, #0]
 80015e6:	71fb      	strb	r3, [r7, #7]
  if ((int32_t)(IRQn) >= 0)
 80015e8:	f997 3007 	ldrsb.w	r3, [r7, #7]
 80015ec:	2b00      	cmp	r3, #0
 80015ee:	db0a      	blt.n	8001606 <__NVIC_SetPriority+0x2a>
  {
    NVIC->IP[((uint32_t)IRQn)]               = (uint8_t)((priority << (8U - __NVIC_PRIO_BITS)) & (uint32_t)0xFFUL);
 80015f0:	683b      	ldr	r3, [r7, #0]
 80015f2:	b2da      	uxtb	r2, r3
 80015f4:	490c      	ldr	r1, [pc, #48]	; (8001628 <__NVIC_SetPriority+0x4c>)
 80015f6:	f997 3007 	ldrsb.w	r3, [r7, #7]
 80015fa:	0112      	lsls	r2, r2, #4
 80015fc:	b2d2      	uxtb	r2, r2
 80015fe:	440b      	add	r3, r1
 8001600:	f883 2300 	strb.w	r2, [r3, #768]	; 0x300
  }
  else
  {
    SCB->SHP[(((uint32_t)IRQn) & 0xFUL)-4UL] = (uint8_t)((priority << (8U - __NVIC_PRIO_BITS)) & (uint32_t)0xFFUL);
  }
}
 8001604:	e00a      	b.n	800161c <__NVIC_SetPriority+0x40>
    SCB->SHP[(((uint32_t)IRQn) & 0xFUL)-4UL] = (uint8_t)((priority << (8U - __NVIC_PRIO_BITS)) & (uint32_t)0xFFUL);
 8001606:	683b      	ldr	r3, [r7, #0]
 8001608:	b2da      	uxtb	r2, r3
 800160a:	4908      	ldr	r1, [pc, #32]	; (800162c <__NVIC_SetPriority+0x50>)
 800160c:	79fb      	ldrb	r3, [r7, #7]
 800160e:	f003 030f 	and.w	r3, r3, #15
 8001612:	3b04      	subs	r3, #4
 8001614:	0112      	lsls	r2, r2, #4
 8001616:	b2d2      	uxtb	r2, r2
 8001618:	440b      	add	r3, r1
 800161a:	761a      	strb	r2, [r3, #24]
}
 800161c:	bf00      	nop
 800161e:	370c      	adds	r7, #12
 8001620:	46bd      	mov	sp, r7
 8001622:	f85d 7b04 	ldr.w	r7, [sp], #4
 8001626:	4770      	bx	lr
 8001628:	e000e100 	.word	0xe000e100
 800162c:	e000ed00 	.word	0xe000ed00

08001630 <NVIC_EncodePriority>:
  \param [in]   PreemptPriority  Preemptive priority value (starting from 0).
  \param [in]       SubPriority  Subpriority value (starting from 0).
  \return                        Encoded priority. Value can be used in the function \ref NVIC_SetPriority().
 */
__STATIC_INLINE uint32_t NVIC_EncodePriority (uint32_t PriorityGroup, uint32_t PreemptPriority, uint32_t SubPriority)
{
 8001630:	b480      	push	{r7}
 8001632:	b089      	sub	sp, #36	; 0x24
 8001634:	af00      	add	r7, sp, #0
 8001636:	60f8      	str	r0, [r7, #12]
 8001638:	60b9      	str	r1, [r7, #8]
 800163a:	607a      	str	r2, [r7, #4]
  uint32_t PriorityGroupTmp = (PriorityGroup & (uint32_t)0x07UL);   /* only values 0..7 are used          */
 800163c:	68fb      	ldr	r3, [r7, #12]
 800163e:	f003 0307 	and.w	r3, r3, #7
 8001642:	61fb      	str	r3, [r7, #28]
  uint32_t PreemptPriorityBits;
  uint32_t SubPriorityBits;

  PreemptPriorityBits = ((7UL - PriorityGroupTmp) > (uint32_t)(__NVIC_PRIO_BITS)) ? (uint32_t)(__NVIC_PRIO_BITS) : (uint32_t)(7UL - PriorityGroupTmp);
 8001644:	69fb      	ldr	r3, [r7, #28]
 8001646:	f1c3 0307 	rsb	r3, r3, #7
 800164a:	2b04      	cmp	r3, #4
 800164c:	bf28      	it	cs
 800164e:	2304      	movcs	r3, #4
 8001650:	61bb      	str	r3, [r7, #24]
  SubPriorityBits     = ((PriorityGroupTmp + (uint32_t)(__NVIC_PRIO_BITS)) < (uint32_t)7UL) ? (uint32_t)0UL : (uint32_t)((PriorityGroupTmp - 7UL) + (uint32_t)(__NVIC_PRIO_BITS));
 8001652:	69fb      	ldr	r3, [r7, #28]
 8001654:	3304      	adds	r3, #4
 8001656:	2b06      	cmp	r3, #6
 8001658:	d902      	bls.n	8001660 <NVIC_EncodePriority+0x30>
 800165a:	69fb      	ldr	r3, [r7, #28]
 800165c:	3b03      	subs	r3, #3
 800165e:	e000      	b.n	8001662 <NVIC_EncodePriority+0x32>
 8001660:	2300      	movs	r3, #0
 8001662:	617b      	str	r3, [r7, #20]

  return (
           ((PreemptPriority & (uint32_t)((1UL << (PreemptPriorityBits)) - 1UL)) << SubPriorityBits) |
 8001664:	f04f 32ff 	mov.w	r2, #4294967295
 8001668:	69bb      	ldr	r3, [r7, #24]
 800166a:	fa02 f303 	lsl.w	r3, r2, r3
 800166e:	43da      	mvns	r2, r3
 8001670:	68bb      	ldr	r3, [r7, #8]
 8001672:	401a      	ands	r2, r3
 8001674:	697b      	ldr	r3, [r7, #20]
 8001676:	409a      	lsls	r2, r3
           ((SubPriority     & (uint32_t)((1UL << (SubPriorityBits    )) - 1UL)))
 8001678:	f04f 31ff 	mov.w	r1, #4294967295
 800167c:	697b      	ldr	r3, [r7, #20]
 800167e:	fa01 f303 	lsl.w	r3, r1, r3
 8001682:	43d9      	mvns	r1, r3
 8001684:	687b      	ldr	r3, [r7, #4]
 8001686:	400b      	ands	r3, r1
           ((PreemptPriority & (uint32_t)((1UL << (PreemptPriorityBits)) - 1UL)) << SubPriorityBits) |
 8001688:	4313      	orrs	r3, r2
         );
}
 800168a:	4618      	mov	r0, r3
 800168c:	3724      	adds	r7, #36	; 0x24
 800168e:	46bd      	mov	sp, r7
 8001690:	f85d 7b04 	ldr.w	r7, [sp], #4
 8001694:	4770      	bx	lr
	...

08001698 <SysTick_Config>:
  \note    When the variable <b>__Vendor_SysTickConfig</b> is set to 1, then the
           function <b>SysTick_Config</b> is not included. In this case, the file <b><i>device</i>.h</b>
           must contain a vendor-specific implementation of this function.
 */
__STATIC_INLINE uint32_t SysTick_Config(uint32_t ticks)
{
 8001698:	b580      	push	{r7, lr}
 800169a:	b082      	sub	sp, #8
 800169c:	af00      	add	r7, sp, #0
 800169e:	6078      	str	r0, [r7, #4]
  if ((ticks - 1UL) > SysTick_LOAD_RELOAD_Msk)
 80016a0:	687b      	ldr	r3, [r7, #4]
 80016a2:	3b01      	subs	r3, #1
 80016a4:	f1b3 7f80 	cmp.w	r3, #16777216	; 0x1000000
 80016a8:	d301      	bcc.n	80016ae <SysTick_Config+0x16>
  {
    return (1UL);                                                   /* Reload value impossible */
 80016aa:	2301      	movs	r3, #1
 80016ac:	e00f      	b.n	80016ce <SysTick_Config+0x36>
  }

  SysTick->LOAD  = (uint32_t)(ticks - 1UL);                         /* set reload register */
 80016ae:	4a0a      	ldr	r2, [pc, #40]	; (80016d8 <SysTick_Config+0x40>)
 80016b0:	687b      	ldr	r3, [r7, #4]
 80016b2:	3b01      	subs	r3, #1
 80016b4:	6053      	str	r3, [r2, #4]
  NVIC_SetPriority (SysTick_IRQn, (1UL << __NVIC_PRIO_BITS) - 1UL); /* set Priority for Systick Interrupt */
 80016b6:	210f      	movs	r1, #15
 80016b8:	f04f 30ff 	mov.w	r0, #4294967295
 80016bc:	f7ff ff8e 	bl	80015dc <__NVIC_SetPriority>
  SysTick->VAL   = 0UL;                                             /* Load the SysTick Counter Value */
 80016c0:	4b05      	ldr	r3, [pc, #20]	; (80016d8 <SysTick_Config+0x40>)
 80016c2:	2200      	movs	r2, #0
 80016c4:	609a      	str	r2, [r3, #8]
  SysTick->CTRL  = SysTick_CTRL_CLKSOURCE_Msk |
 80016c6:	4b04      	ldr	r3, [pc, #16]	; (80016d8 <SysTick_Config+0x40>)
 80016c8:	2207      	movs	r2, #7
 80016ca:	601a      	str	r2, [r3, #0]
                   SysTick_CTRL_TICKINT_Msk   |
                   SysTick_CTRL_ENABLE_Msk;                         /* Enable SysTick IRQ and SysTick Timer */
  return (0UL);                                                     /* Function successful */
 80016cc:	2300      	movs	r3, #0
}
 80016ce:	4618      	mov	r0, r3
 80016d0:	3708      	adds	r7, #8
 80016d2:	46bd      	mov	sp, r7
 80016d4:	bd80      	pop	{r7, pc}
 80016d6:	bf00      	nop
 80016d8:	e000e010 	.word	0xe000e010

080016dc <HAL_NVIC_SetPriorityGrouping>:
  * @note   When the NVIC_PriorityGroup_0 is selected, IRQ preemption is no more possible. 
  *         The pending IRQ priority will be managed only by the subpriority. 
  * @retval None
  */
void HAL_NVIC_SetPriorityGrouping(uint32_t PriorityGroup)
{
 80016dc:	b580      	push	{r7, lr}
 80016de:	b082      	sub	sp, #8
 80016e0:	af00      	add	r7, sp, #0
 80016e2:	6078      	str	r0, [r7, #4]
  /* Check the parameters */
  assert_param(IS_NVIC_PRIORITY_GROUP(PriorityGroup));
  
  /* Set the PRIGROUP[10:8] bits according to the PriorityGroup parameter value */
  NVIC_SetPriorityGrouping(PriorityGroup);
 80016e4:	6878      	ldr	r0, [r7, #4]
 80016e6:	f7ff ff29 	bl	800153c <__NVIC_SetPriorityGrouping>
}
 80016ea:	bf00      	nop
 80016ec:	3708      	adds	r7, #8
 80016ee:	46bd      	mov	sp, r7
 80016f0:	bd80      	pop	{r7, pc}

080016f2 <HAL_NVIC_SetPriority>:
  *         This parameter can be a value between 0 and 15
  *         A lower priority value indicates a higher priority.          
  * @retval None
  */
void HAL_NVIC_SetPriority(IRQn_Type IRQn, uint32_t PreemptPriority, uint32_t SubPriority)
{ 
 80016f2:	b580      	push	{r7, lr}
 80016f4:	b086      	sub	sp, #24
 80016f6:	af00      	add	r7, sp, #0
 80016f8:	4603      	mov	r3, r0
 80016fa:	60b9      	str	r1, [r7, #8]
 80016fc:	607a      	str	r2, [r7, #4]
 80016fe:	73fb      	strb	r3, [r7, #15]
  uint32_t prioritygroup = 0x00U;
 8001700:	2300      	movs	r3, #0
 8001702:	617b      	str	r3, [r7, #20]
  
  /* Check the parameters */
  assert_param(IS_NVIC_SUB_PRIORITY(SubPriority));
  assert_param(IS_NVIC_PREEMPTION_PRIORITY(PreemptPriority));
  
  prioritygroup = NVIC_GetPriorityGrouping();
 8001704:	f7ff ff3e 	bl	8001584 <__NVIC_GetPriorityGrouping>
 8001708:	6178      	str	r0, [r7, #20]
  
  NVIC_SetPriority(IRQn, NVIC_EncodePriority(prioritygroup, PreemptPriority, SubPriority));
 800170a:	687a      	ldr	r2, [r7, #4]
 800170c:	68b9      	ldr	r1, [r7, #8]
 800170e:	6978      	ldr	r0, [r7, #20]
 8001710:	f7ff ff8e 	bl	8001630 <NVIC_EncodePriority>
 8001714:	4602      	mov	r2, r0
 8001716:	f997 300f 	ldrsb.w	r3, [r7, #15]
 800171a:	4611      	mov	r1, r2
 800171c:	4618      	mov	r0, r3
 800171e:	f7ff ff5d 	bl	80015dc <__NVIC_SetPriority>
}
 8001722:	bf00      	nop
 8001724:	3718      	adds	r7, #24
 8001726:	46bd      	mov	sp, r7
 8001728:	bd80      	pop	{r7, pc}

0800172a <HAL_NVIC_EnableIRQ>:
  *         This parameter can be an enumerator of IRQn_Type enumeration
  *         (For the complete STM32 Devices IRQ Channels list, please refer to the appropriate CMSIS device file (stm32f4xxxx.h))
  * @retval None
  */
void HAL_NVIC_EnableIRQ(IRQn_Type IRQn)
{
 800172a:	b580      	push	{r7, lr}
 800172c:	b082      	sub	sp, #8
 800172e:	af00      	add	r7, sp, #0
 8001730:	4603      	mov	r3, r0
 8001732:	71fb      	strb	r3, [r7, #7]
  /* Check the parameters */
  assert_param(IS_NVIC_DEVICE_IRQ(IRQn));
  
  /* Enable interrupt */
  NVIC_EnableIRQ(IRQn);
 8001734:	f997 3007 	ldrsb.w	r3, [r7, #7]
 8001738:	4618      	mov	r0, r3
 800173a:	f7ff ff31 	bl	80015a0 <__NVIC_EnableIRQ>
}
 800173e:	bf00      	nop
 8001740:	3708      	adds	r7, #8
 8001742:	46bd      	mov	sp, r7
 8001744:	bd80      	pop	{r7, pc}

08001746 <HAL_SYSTICK_Config>:
  * @param  TicksNumb Specifies the ticks Number of ticks between two interrupts.
  * @retval status:  - 0  Function succeeded.
  *                  - 1  Function failed.
  */
uint32_t HAL_SYSTICK_Config(uint32_t TicksNumb)
{
 8001746:	b580      	push	{r7, lr}
 8001748:	b082      	sub	sp, #8
 800174a:	af00      	add	r7, sp, #0
 800174c:	6078      	str	r0, [r7, #4]
   return SysTick_Config(TicksNumb);
 800174e:	6878      	ldr	r0, [r7, #4]
 8001750:	f7ff ffa2 	bl	8001698 <SysTick_Config>
 8001754:	4603      	mov	r3, r0
}
 8001756:	4618      	mov	r0, r3
 8001758:	3708      	adds	r7, #8
 800175a:	46bd      	mov	sp, r7
 800175c:	bd80      	pop	{r7, pc}
	...

08001760 <HAL_DMA_Init>:
  * @param  hdma Pointer to a DMA_HandleTypeDef structure that contains
  *               the configuration information for the specified DMA Stream.  
  * @retval HAL status
  */
HAL_StatusTypeDef HAL_DMA_Init(DMA_HandleTypeDef *hdma)
{
 8001760:	b580      	push	{r7, lr}
 8001762:	b086      	sub	sp, #24
 8001764:	af00      	add	r7, sp, #0
 8001766:	6078      	str	r0, [r7, #4]
  uint32_t tmp = 0U;
 8001768:	2300      	movs	r3, #0
 800176a:	617b      	str	r3, [r7, #20]
  uint32_t tickstart = HAL_GetTick();
 800176c:	f7ff feda 	bl	8001524 <HAL_GetTick>
 8001770:	6138      	str	r0, [r7, #16]
  DMA_Base_Registers *regs;

  /* Check the DMA peripheral state */
  if(hdma == NULL)
 8001772:	687b      	ldr	r3, [r7, #4]
 8001774:	2b00      	cmp	r3, #0
 8001776:	d101      	bne.n	800177c <HAL_DMA_Init+0x1c>
  {
    return HAL_ERROR;
 8001778:	2301      	movs	r3, #1
 800177a:	e099      	b.n	80018b0 <HAL_DMA_Init+0x150>
    assert_param(IS_DMA_MEMORY_BURST(hdma->Init.MemBurst));
    assert_param(IS_DMA_PERIPHERAL_BURST(hdma->Init.PeriphBurst));
  }
  
  /* Allocate lock resource */
  __HAL_UNLOCK(hdma);
 800177c:	687b      	ldr	r3, [r7, #4]
 800177e:	2200      	movs	r2, #0
 8001780:	f883 2034 	strb.w	r2, [r3, #52]	; 0x34

  /* Change DMA peripheral state */
  hdma->State = HAL_DMA_STATE_BUSY;
 8001784:	687b      	ldr	r3, [r7, #4]
 8001786:	2202      	movs	r2, #2
 8001788:	f883 2035 	strb.w	r2, [r3, #53]	; 0x35
  
  /* Disable the peripheral */
  __HAL_DMA_DISABLE(hdma);
 800178c:	687b      	ldr	r3, [r7, #4]
 800178e:	681b      	ldr	r3, [r3, #0]
 8001790:	681a      	ldr	r2, [r3, #0]
 8001792:	687b      	ldr	r3, [r7, #4]
 8001794:	681b      	ldr	r3, [r3, #0]
 8001796:	f022 0201 	bic.w	r2, r2, #1
 800179a:	601a      	str	r2, [r3, #0]
  
  /* Check if the DMA Stream is effectively disabled */
  while((hdma->Instance->CR & DMA_SxCR_EN) != RESET)
 800179c:	e00f      	b.n	80017be <HAL_DMA_Init+0x5e>
  {
    /* Check for the Timeout */
    if((HAL_GetTick() - tickstart ) > HAL_TIMEOUT_DMA_ABORT)
 800179e:	f7ff fec1 	bl	8001524 <HAL_GetTick>
 80017a2:	4602      	mov	r2, r0
 80017a4:	693b      	ldr	r3, [r7, #16]
 80017a6:	1ad3      	subs	r3, r2, r3
 80017a8:	2b05      	cmp	r3, #5
 80017aa:	d908      	bls.n	80017be <HAL_DMA_Init+0x5e>
    {
      /* Update error code */
      hdma->ErrorCode = HAL_DMA_ERROR_TIMEOUT;
 80017ac:	687b      	ldr	r3, [r7, #4]
 80017ae:	2220      	movs	r2, #32
 80017b0:	655a      	str	r2, [r3, #84]	; 0x54
      
      /* Change the DMA state */
      hdma->State = HAL_DMA_STATE_TIMEOUT;
 80017b2:	687b      	ldr	r3, [r7, #4]
 80017b4:	2203      	movs	r2, #3
 80017b6:	f883 2035 	strb.w	r2, [r3, #53]	; 0x35
      
      return HAL_TIMEOUT;
 80017ba:	2303      	movs	r3, #3
 80017bc:	e078      	b.n	80018b0 <HAL_DMA_Init+0x150>
  while((hdma->Instance->CR & DMA_SxCR_EN) != RESET)
 80017be:	687b      	ldr	r3, [r7, #4]
 80017c0:	681b      	ldr	r3, [r3, #0]
 80017c2:	681b      	ldr	r3, [r3, #0]
 80017c4:	f003 0301 	and.w	r3, r3, #1
 80017c8:	2b00      	cmp	r3, #0
 80017ca:	d1e8      	bne.n	800179e <HAL_DMA_Init+0x3e>
    }
  }
  
  /* Get the CR register value */
  tmp = hdma->Instance->CR;
 80017cc:	687b      	ldr	r3, [r7, #4]
 80017ce:	681b      	ldr	r3, [r3, #0]
 80017d0:	681b      	ldr	r3, [r3, #0]
 80017d2:	617b      	str	r3, [r7, #20]

  /* Clear CHSEL, MBURST, PBURST, PL, MSIZE, PSIZE, MINC, PINC, CIRC, DIR, CT and DBM bits */
  tmp &= ((uint32_t)~(DMA_SxCR_CHSEL | DMA_SxCR_MBURST | DMA_SxCR_PBURST | \
 80017d4:	697a      	ldr	r2, [r7, #20]
 80017d6:	4b38      	ldr	r3, [pc, #224]	; (80018b8 <HAL_DMA_Init+0x158>)
 80017d8:	4013      	ands	r3, r2
 80017da:	617b      	str	r3, [r7, #20]
                      DMA_SxCR_PL    | DMA_SxCR_MSIZE  | DMA_SxCR_PSIZE  | \
                      DMA_SxCR_MINC  | DMA_SxCR_PINC   | DMA_SxCR_CIRC   | \
                      DMA_SxCR_DIR   | DMA_SxCR_CT     | DMA_SxCR_DBM));

  /* Prepare the DMA Stream configuration */
  tmp |=  hdma->Init.Channel             | hdma->Init.Direction        |
 80017dc:	687b      	ldr	r3, [r7, #4]
 80017de:	685a      	ldr	r2, [r3, #4]
 80017e0:	687b      	ldr	r3, [r7, #4]
 80017e2:	689b      	ldr	r3, [r3, #8]
 80017e4:	431a      	orrs	r2, r3
          hdma->Init.PeriphInc           | hdma->Init.MemInc           |
 80017e6:	687b      	ldr	r3, [r7, #4]
 80017e8:	68db      	ldr	r3, [r3, #12]
  tmp |=  hdma->Init.Channel             | hdma->Init.Direction        |
 80017ea:	431a      	orrs	r2, r3
          hdma->Init.PeriphInc           | hdma->Init.MemInc           |
 80017ec:	687b      	ldr	r3, [r7, #4]
 80017ee:	691b      	ldr	r3, [r3, #16]
 80017f0:	431a      	orrs	r2, r3
          hdma->Init.PeriphDataAlignment | hdma->Init.MemDataAlignment |
 80017f2:	687b      	ldr	r3, [r7, #4]
 80017f4:	695b      	ldr	r3, [r3, #20]
          hdma->Init.PeriphInc           | hdma->Init.MemInc           |
 80017f6:	431a      	orrs	r2, r3
          hdma->Init.PeriphDataAlignment | hdma->Init.MemDataAlignment |
 80017f8:	687b      	ldr	r3, [r7, #4]
 80017fa:	699b      	ldr	r3, [r3, #24]
 80017fc:	431a      	orrs	r2, r3
          hdma->Init.Mode                | hdma->Init.Priority;
 80017fe:	687b      	ldr	r3, [r7, #4]
 8001800:	69db      	ldr	r3, [r3, #28]
          hdma->Init.PeriphDataAlignment | hdma->Init.MemDataAlignment |
 8001802:	431a      	orrs	r2, r3
          hdma->Init.Mode                | hdma->Init.Priority;
 8001804:	687b      	ldr	r3, [r7, #4]
 8001806:	6a1b      	ldr	r3, [r3, #32]
 8001808:	4313      	orrs	r3, r2
  tmp |=  hdma->Init.Channel             | hdma->Init.Direction        |
 800180a:	697a      	ldr	r2, [r7, #20]
 800180c:	4313      	orrs	r3, r2
 800180e:	617b      	str	r3, [r7, #20]

  /* the Memory burst and peripheral burst are not used when the FIFO is disabled */
  if(hdma->Init.FIFOMode == DMA_FIFOMODE_ENABLE)
 8001810:	687b      	ldr	r3, [r7, #4]
 8001812:	6a5b      	ldr	r3, [r3, #36]	; 0x24
 8001814:	2b04      	cmp	r3, #4
 8001816:	d107      	bne.n	8001828 <HAL_DMA_Init+0xc8>
  {
    /* Get memory burst and peripheral burst */
    tmp |=  hdma->Init.MemBurst | hdma->Init.PeriphBurst;
 8001818:	687b      	ldr	r3, [r7, #4]
 800181a:	6ada      	ldr	r2, [r3, #44]	; 0x2c
 800181c:	687b      	ldr	r3, [r7, #4]
 800181e:	6b1b      	ldr	r3, [r3, #48]	; 0x30
 8001820:	4313      	orrs	r3, r2
 8001822:	697a      	ldr	r2, [r7, #20]
 8001824:	4313      	orrs	r3, r2
 8001826:	617b      	str	r3, [r7, #20]
  }
  
  /* Write to DMA Stream CR register */
  hdma->Instance->CR = tmp;  
 8001828:	687b      	ldr	r3, [r7, #4]
 800182a:	681b      	ldr	r3, [r3, #0]
 800182c:	697a      	ldr	r2, [r7, #20]
 800182e:	601a      	str	r2, [r3, #0]

  /* Get the FCR register value */
  tmp = hdma->Instance->FCR;
 8001830:	687b      	ldr	r3, [r7, #4]
 8001832:	681b      	ldr	r3, [r3, #0]
 8001834:	695b      	ldr	r3, [r3, #20]
 8001836:	617b      	str	r3, [r7, #20]

  /* Clear Direct mode and FIFO threshold bits */
  tmp &= (uint32_t)~(DMA_SxFCR_DMDIS | DMA_SxFCR_FTH);
 8001838:	697b      	ldr	r3, [r7, #20]
 800183a:	f023 0307 	bic.w	r3, r3, #7
 800183e:	617b      	str	r3, [r7, #20]

  /* Prepare the DMA Stream FIFO configuration */
  tmp |= hdma->Init.FIFOMode;
 8001840:	687b      	ldr	r3, [r7, #4]
 8001842:	6a5b      	ldr	r3, [r3, #36]	; 0x24
 8001844:	697a      	ldr	r2, [r7, #20]
 8001846:	4313      	orrs	r3, r2
 8001848:	617b      	str	r3, [r7, #20]

  /* The FIFO threshold is not used when the FIFO mode is disabled */
  if(hdma->Init.FIFOMode == DMA_FIFOMODE_ENABLE)
 800184a:	687b      	ldr	r3, [r7, #4]
 800184c:	6a5b      	ldr	r3, [r3, #36]	; 0x24
 800184e:	2b04      	cmp	r3, #4
 8001850:	d117      	bne.n	8001882 <HAL_DMA_Init+0x122>
  {
    /* Get the FIFO threshold */
    tmp |= hdma->Init.FIFOThreshold;
 8001852:	687b      	ldr	r3, [r7, #4]
 8001854:	6a9b      	ldr	r3, [r3, #40]	; 0x28
 8001856:	697a      	ldr	r2, [r7, #20]
 8001858:	4313      	orrs	r3, r2
 800185a:	617b      	str	r3, [r7, #20]
    
    /* Check compatibility between FIFO threshold level and size of the memory burst */
    /* for INCR4, INCR8, INCR16 bursts */
    if (hdma->Init.MemBurst != DMA_MBURST_SINGLE)
 800185c:	687b      	ldr	r3, [r7, #4]
 800185e:	6adb      	ldr	r3, [r3, #44]	; 0x2c
 8001860:	2b00      	cmp	r3, #0
 8001862:	d00e      	beq.n	8001882 <HAL_DMA_Init+0x122>
    {
      if (DMA_CheckFifoParam(hdma) != HAL_OK)
 8001864:	6878      	ldr	r0, [r7, #4]
 8001866:	f000 fb01 	bl	8001e6c <DMA_CheckFifoParam>
 800186a:	4603      	mov	r3, r0
 800186c:	2b00      	cmp	r3, #0
 800186e:	d008      	beq.n	8001882 <HAL_DMA_Init+0x122>
      {
        /* Update error code */
        hdma->ErrorCode = HAL_DMA_ERROR_PARAM;
 8001870:	687b      	ldr	r3, [r7, #4]
 8001872:	2240      	movs	r2, #64	; 0x40
 8001874:	655a      	str	r2, [r3, #84]	; 0x54
        
        /* Change the DMA state */
        hdma->State = HAL_DMA_STATE_READY;
 8001876:	687b      	ldr	r3, [r7, #4]
 8001878:	2201      	movs	r2, #1
 800187a:	f883 2035 	strb.w	r2, [r3, #53]	; 0x35
        
        return HAL_ERROR; 
 800187e:	2301      	movs	r3, #1
 8001880:	e016      	b.n	80018b0 <HAL_DMA_Init+0x150>
      }
    }
  }
  
  /* Write to DMA Stream FCR */
  hdma->Instance->FCR = tmp;
 8001882:	687b      	ldr	r3, [r7, #4]
 8001884:	681b      	ldr	r3, [r3, #0]
 8001886:	697a      	ldr	r2, [r7, #20]
 8001888:	615a      	str	r2, [r3, #20]

  /* Initialize StreamBaseAddress and StreamIndex parameters to be used to calculate
     DMA steam Base Address needed by HAL_DMA_IRQHandler() and HAL_DMA_PollForTransfer() */
  regs = (DMA_Base_Registers *)DMA_CalcBaseAndBitshift(hdma);
 800188a:	6878      	ldr	r0, [r7, #4]
 800188c:	f000 fab8 	bl	8001e00 <DMA_CalcBaseAndBitshift>
 8001890:	4603      	mov	r3, r0
 8001892:	60fb      	str	r3, [r7, #12]
  
  /* Clear all interrupt flags */
  regs->IFCR = 0x3FU << hdma->StreamIndex;
 8001894:	687b      	ldr	r3, [r7, #4]
 8001896:	6ddb      	ldr	r3, [r3, #92]	; 0x5c
 8001898:	223f      	movs	r2, #63	; 0x3f
 800189a:	409a      	lsls	r2, r3
 800189c:	68fb      	ldr	r3, [r7, #12]
 800189e:	609a      	str	r2, [r3, #8]

  /* Initialize the error code */
  hdma->ErrorCode = HAL_DMA_ERROR_NONE;
 80018a0:	687b      	ldr	r3, [r7, #4]
 80018a2:	2200      	movs	r2, #0
 80018a4:	655a      	str	r2, [r3, #84]	; 0x54
                                                                                     
  /* Initialize the DMA state */
  hdma->State = HAL_DMA_STATE_READY;
 80018a6:	687b      	ldr	r3, [r7, #4]
 80018a8:	2201      	movs	r2, #1
 80018aa:	f883 2035 	strb.w	r2, [r3, #53]	; 0x35

  return HAL_OK;
 80018ae:	2300      	movs	r3, #0
}
 80018b0:	4618      	mov	r0, r3
 80018b2:	3718      	adds	r7, #24
 80018b4:	46bd      	mov	sp, r7
 80018b6:	bd80      	pop	{r7, pc}
 80018b8:	f010803f 	.word	0xf010803f

080018bc <HAL_DMA_Start_IT>:
  * @param  DstAddress The destination memory Buffer address
  * @param  DataLength The length of data to be transferred from source to destination
  * @retval HAL status
  */
HAL_StatusTypeDef HAL_DMA_Start_IT(DMA_HandleTypeDef *hdma, uint32_t SrcAddress, uint32_t DstAddress, uint32_t DataLength)
{
 80018bc:	b580      	push	{r7, lr}
 80018be:	b086      	sub	sp, #24
 80018c0:	af00      	add	r7, sp, #0
 80018c2:	60f8      	str	r0, [r7, #12]
 80018c4:	60b9      	str	r1, [r7, #8]
 80018c6:	607a      	str	r2, [r7, #4]
 80018c8:	603b      	str	r3, [r7, #0]
  HAL_StatusTypeDef status = HAL_OK;
 80018ca:	2300      	movs	r3, #0
 80018cc:	75fb      	strb	r3, [r7, #23]

  /* calculate DMA base and stream number */
  DMA_Base_Registers *regs = (DMA_Base_Registers *)hdma->StreamBaseAddress;
 80018ce:	68fb      	ldr	r3, [r7, #12]
 80018d0:	6d9b      	ldr	r3, [r3, #88]	; 0x58
 80018d2:	613b      	str	r3, [r7, #16]
  
  /* Check the parameters */
  assert_param(IS_DMA_BUFFER_SIZE(DataLength));
 
  /* Process locked */
  __HAL_LOCK(hdma);
 80018d4:	68fb      	ldr	r3, [r7, #12]
 80018d6:	f893 3034 	ldrb.w	r3, [r3, #52]	; 0x34
 80018da:	2b01      	cmp	r3, #1
 80018dc:	d101      	bne.n	80018e2 <HAL_DMA_Start_IT+0x26>
 80018de:	2302      	movs	r3, #2
 80018e0:	e040      	b.n	8001964 <HAL_DMA_Start_IT+0xa8>
 80018e2:	68fb      	ldr	r3, [r7, #12]
 80018e4:	2201      	movs	r2, #1
 80018e6:	f883 2034 	strb.w	r2, [r3, #52]	; 0x34
  
  if(HAL_DMA_STATE_READY == hdma->State)
 80018ea:	68fb      	ldr	r3, [r7, #12]
 80018ec:	f893 3035 	ldrb.w	r3, [r3, #53]	; 0x35
 80018f0:	b2db      	uxtb	r3, r3
 80018f2:	2b01      	cmp	r3, #1
 80018f4:	d12f      	bne.n	8001956 <HAL_DMA_Start_IT+0x9a>
  {
    /* Change DMA peripheral state */
    hdma->State = HAL_DMA_STATE_BUSY;
 80018f6:	68fb      	ldr	r3, [r7, #12]
 80018f8:	2202      	movs	r2, #2
 80018fa:	f883 2035 	strb.w	r2, [r3, #53]	; 0x35
    
    /* Initialize the error code */
    hdma->ErrorCode = HAL_DMA_ERROR_NONE;
 80018fe:	68fb      	ldr	r3, [r7, #12]
 8001900:	2200      	movs	r2, #0
 8001902:	655a      	str	r2, [r3, #84]	; 0x54
    
    /* Configure the source, destination address and the data length */
    DMA_SetConfig(hdma, SrcAddress, DstAddress, DataLength);
 8001904:	683b      	ldr	r3, [r7, #0]
 8001906:	687a      	ldr	r2, [r7, #4]
 8001908:	68b9      	ldr	r1, [r7, #8]
 800190a:	68f8      	ldr	r0, [r7, #12]
 800190c:	f000 fa4a 	bl	8001da4 <DMA_SetConfig>
    
    /* Clear all interrupt flags at correct offset within the register */
    regs->IFCR = 0x3FU << hdma->StreamIndex;
 8001910:	68fb      	ldr	r3, [r7, #12]
 8001912:	6ddb      	ldr	r3, [r3, #92]	; 0x5c
 8001914:	223f      	movs	r2, #63	; 0x3f
 8001916:	409a      	lsls	r2, r3
 8001918:	693b      	ldr	r3, [r7, #16]
 800191a:	609a      	str	r2, [r3, #8]
    
    /* Enable Common interrupts*/
    hdma->Instance->CR  |= DMA_IT_TC | DMA_IT_TE | DMA_IT_DME;
 800191c:	68fb      	ldr	r3, [r7, #12]
 800191e:	681b      	ldr	r3, [r3, #0]
 8001920:	681a      	ldr	r2, [r3, #0]
 8001922:	68fb      	ldr	r3, [r7, #12]
 8001924:	681b      	ldr	r3, [r3, #0]
 8001926:	f042 0216 	orr.w	r2, r2, #22
 800192a:	601a      	str	r2, [r3, #0]
    
    if(hdma->XferHalfCpltCallback != NULL)
 800192c:	68fb      	ldr	r3, [r7, #12]
 800192e:	6c1b      	ldr	r3, [r3, #64]	; 0x40
 8001930:	2b00      	cmp	r3, #0
 8001932:	d007      	beq.n	8001944 <HAL_DMA_Start_IT+0x88>
    {
      hdma->Instance->CR  |= DMA_IT_HT;
 8001934:	68fb      	ldr	r3, [r7, #12]
 8001936:	681b      	ldr	r3, [r3, #0]
 8001938:	681a      	ldr	r2, [r3, #0]
 800193a:	68fb      	ldr	r3, [r7, #12]
 800193c:	681b      	ldr	r3, [r3, #0]
 800193e:	f042 0208 	orr.w	r2, r2, #8
 8001942:	601a      	str	r2, [r3, #0]
    }
    
    /* Enable the Peripheral */
    __HAL_DMA_ENABLE(hdma);
 8001944:	68fb      	ldr	r3, [r7, #12]
 8001946:	681b      	ldr	r3, [r3, #0]
 8001948:	681a      	ldr	r2, [r3, #0]
 800194a:	68fb      	ldr	r3, [r7, #12]
 800194c:	681b      	ldr	r3, [r3, #0]
 800194e:	f042 0201 	orr.w	r2, r2, #1
 8001952:	601a      	str	r2, [r3, #0]
 8001954:	e005      	b.n	8001962 <HAL_DMA_Start_IT+0xa6>
  }
  else
  {
    /* Process unlocked */
    __HAL_UNLOCK(hdma);	  
 8001956:	68fb      	ldr	r3, [r7, #12]
 8001958:	2200      	movs	r2, #0
 800195a:	f883 2034 	strb.w	r2, [r3, #52]	; 0x34
    
    /* Return error status */
    status = HAL_BUSY;
 800195e:	2302      	movs	r3, #2
 8001960:	75fb      	strb	r3, [r7, #23]
  }
  
  return status;
 8001962:	7dfb      	ldrb	r3, [r7, #23]
}
 8001964:	4618      	mov	r0, r3
 8001966:	3718      	adds	r7, #24
 8001968:	46bd      	mov	sp, r7
 800196a:	bd80      	pop	{r7, pc}

0800196c <HAL_DMA_Abort>:
  *        and the Stream will be effectively disabled only after the transfer of
  *        this single data is finished.  
  * @retval HAL status
  */
HAL_StatusTypeDef HAL_DMA_Abort(DMA_HandleTypeDef *hdma)
{
 800196c:	b580      	push	{r7, lr}
 800196e:	b084      	sub	sp, #16
 8001970:	af00      	add	r7, sp, #0
 8001972:	6078      	str	r0, [r7, #4]
  /* calculate DMA base and stream number */
  DMA_Base_Registers *regs = (DMA_Base_Registers *)hdma->StreamBaseAddress;
 8001974:	687b      	ldr	r3, [r7, #4]
 8001976:	6d9b      	ldr	r3, [r3, #88]	; 0x58
 8001978:	60fb      	str	r3, [r7, #12]
  
  uint32_t tickstart = HAL_GetTick();
 800197a:	f7ff fdd3 	bl	8001524 <HAL_GetTick>
 800197e:	60b8      	str	r0, [r7, #8]
  
  if(hdma->State != HAL_DMA_STATE_BUSY)
 8001980:	687b      	ldr	r3, [r7, #4]
 8001982:	f893 3035 	ldrb.w	r3, [r3, #53]	; 0x35
 8001986:	b2db      	uxtb	r3, r3
 8001988:	2b02      	cmp	r3, #2
 800198a:	d008      	beq.n	800199e <HAL_DMA_Abort+0x32>
  {
    hdma->ErrorCode = HAL_DMA_ERROR_NO_XFER;
 800198c:	687b      	ldr	r3, [r7, #4]
 800198e:	2280      	movs	r2, #128	; 0x80
 8001990:	655a      	str	r2, [r3, #84]	; 0x54
    
    /* Process Unlocked */
    __HAL_UNLOCK(hdma);
 8001992:	687b      	ldr	r3, [r7, #4]
 8001994:	2200      	movs	r2, #0
 8001996:	f883 2034 	strb.w	r2, [r3, #52]	; 0x34
    
    return HAL_ERROR;
 800199a:	2301      	movs	r3, #1
 800199c:	e052      	b.n	8001a44 <HAL_DMA_Abort+0xd8>
  }
  else
  {
    /* Disable all the transfer interrupts */
    hdma->Instance->CR  &= ~(DMA_IT_TC | DMA_IT_TE | DMA_IT_DME);
 800199e:	687b      	ldr	r3, [r7, #4]
 80019a0:	681b      	ldr	r3, [r3, #0]
 80019a2:	681a      	ldr	r2, [r3, #0]
 80019a4:	687b      	ldr	r3, [r7, #4]
 80019a6:	681b      	ldr	r3, [r3, #0]
 80019a8:	f022 0216 	bic.w	r2, r2, #22
 80019ac:	601a      	str	r2, [r3, #0]
    hdma->Instance->FCR &= ~(DMA_IT_FE);
 80019ae:	687b      	ldr	r3, [r7, #4]
 80019b0:	681b      	ldr	r3, [r3, #0]
 80019b2:	695a      	ldr	r2, [r3, #20]
 80019b4:	687b      	ldr	r3, [r7, #4]
 80019b6:	681b      	ldr	r3, [r3, #0]
 80019b8:	f022 0280 	bic.w	r2, r2, #128	; 0x80
 80019bc:	615a      	str	r2, [r3, #20]
    
    if((hdma->XferHalfCpltCallback != NULL) || (hdma->XferM1HalfCpltCallback != NULL))
 80019be:	687b      	ldr	r3, [r7, #4]
 80019c0:	6c1b      	ldr	r3, [r3, #64]	; 0x40
 80019c2:	2b00      	cmp	r3, #0
 80019c4:	d103      	bne.n	80019ce <HAL_DMA_Abort+0x62>
 80019c6:	687b      	ldr	r3, [r7, #4]
 80019c8:	6c9b      	ldr	r3, [r3, #72]	; 0x48
 80019ca:	2b00      	cmp	r3, #0
 80019cc:	d007      	beq.n	80019de <HAL_DMA_Abort+0x72>
    {
      hdma->Instance->CR  &= ~(DMA_IT_HT);
 80019ce:	687b      	ldr	r3, [r7, #4]
 80019d0:	681b      	ldr	r3, [r3, #0]
 80019d2:	681a      	ldr	r2, [r3, #0]
 80019d4:	687b      	ldr	r3, [r7, #4]
 80019d6:	681b      	ldr	r3, [r3, #0]
 80019d8:	f022 0208 	bic.w	r2, r2, #8
 80019dc:	601a      	str	r2, [r3, #0]
    }
    
    /* Disable the stream */
    __HAL_DMA_DISABLE(hdma);
 80019de:	687b      	ldr	r3, [r7, #4]
 80019e0:	681b      	ldr	r3, [r3, #0]
 80019e2:	681a      	ldr	r2, [r3, #0]
 80019e4:	687b      	ldr	r3, [r7, #4]
 80019e6:	681b      	ldr	r3, [r3, #0]
 80019e8:	f022 0201 	bic.w	r2, r2, #1
 80019ec:	601a      	str	r2, [r3, #0]
    
    /* Check if the DMA Stream is effectively disabled */
    while((hdma->Instance->CR & DMA_SxCR_EN) != RESET)
 80019ee:	e013      	b.n	8001a18 <HAL_DMA_Abort+0xac>
    {
      /* Check for the Timeout */
      if((HAL_GetTick() - tickstart ) > HAL_TIMEOUT_DMA_ABORT)
 80019f0:	f7ff fd98 	bl	8001524 <HAL_GetTick>
 80019f4:	4602      	mov	r2, r0
 80019f6:	68bb      	ldr	r3, [r7, #8]
 80019f8:	1ad3      	subs	r3, r2, r3
 80019fa:	2b05      	cmp	r3, #5
 80019fc:	d90c      	bls.n	8001a18 <HAL_DMA_Abort+0xac>
      {
        /* Update error code */
        hdma->ErrorCode = HAL_DMA_ERROR_TIMEOUT;
 80019fe:	687b      	ldr	r3, [r7, #4]
 8001a00:	2220      	movs	r2, #32
 8001a02:	655a      	str	r2, [r3, #84]	; 0x54
        
        /* Process Unlocked */
        __HAL_UNLOCK(hdma);
 8001a04:	687b      	ldr	r3, [r7, #4]
 8001a06:	2200      	movs	r2, #0
 8001a08:	f883 2034 	strb.w	r2, [r3, #52]	; 0x34
        
        /* Change the DMA state */
        hdma->State = HAL_DMA_STATE_TIMEOUT;
 8001a0c:	687b      	ldr	r3, [r7, #4]
 8001a0e:	2203      	movs	r2, #3
 8001a10:	f883 2035 	strb.w	r2, [r3, #53]	; 0x35
        
        return HAL_TIMEOUT;
 8001a14:	2303      	movs	r3, #3
 8001a16:	e015      	b.n	8001a44 <HAL_DMA_Abort+0xd8>
    while((hdma->Instance->CR & DMA_SxCR_EN) != RESET)
 8001a18:	687b      	ldr	r3, [r7, #4]
 8001a1a:	681b      	ldr	r3, [r3, #0]
 8001a1c:	681b      	ldr	r3, [r3, #0]
 8001a1e:	f003 0301 	and.w	r3, r3, #1
 8001a22:	2b00      	cmp	r3, #0
 8001a24:	d1e4      	bne.n	80019f0 <HAL_DMA_Abort+0x84>
      }
    }
    
    /* Clear all interrupt flags at correct offset within the register */
    regs->IFCR = 0x3FU << hdma->StreamIndex;
 8001a26:	687b      	ldr	r3, [r7, #4]
 8001a28:	6ddb      	ldr	r3, [r3, #92]	; 0x5c
 8001a2a:	223f      	movs	r2, #63	; 0x3f
 8001a2c:	409a      	lsls	r2, r3
 8001a2e:	68fb      	ldr	r3, [r7, #12]
 8001a30:	609a      	str	r2, [r3, #8]
    
    /* Process Unlocked */
    __HAL_UNLOCK(hdma);
 8001a32:	687b      	ldr	r3, [r7, #4]
 8001a34:	2200      	movs	r2, #0
 8001a36:	f883 2034 	strb.w	r2, [r3, #52]	; 0x34
    
    /* Change the DMA state*/
    hdma->State = HAL_DMA_STATE_READY;
 8001a3a:	687b      	ldr	r3, [r7, #4]
 8001a3c:	2201      	movs	r2, #1
 8001a3e:	f883 2035 	strb.w	r2, [r3, #53]	; 0x35
  }
  return HAL_OK;
 8001a42:	2300      	movs	r3, #0
}
 8001a44:	4618      	mov	r0, r3
 8001a46:	3710      	adds	r7, #16
 8001a48:	46bd      	mov	sp, r7
 8001a4a:	bd80      	pop	{r7, pc}

08001a4c <HAL_DMA_Abort_IT>:
  * @param  hdma   pointer to a DMA_HandleTypeDef structure that contains
  *                 the configuration information for the specified DMA Stream.
  * @retval HAL status
  */
HAL_StatusTypeDef HAL_DMA_Abort_IT(DMA_HandleTypeDef *hdma)
{
 8001a4c:	b480      	push	{r7}
 8001a4e:	b083      	sub	sp, #12
 8001a50:	af00      	add	r7, sp, #0
 8001a52:	6078      	str	r0, [r7, #4]
  if(hdma->State != HAL_DMA_STATE_BUSY)
 8001a54:	687b      	ldr	r3, [r7, #4]
 8001a56:	f893 3035 	ldrb.w	r3, [r3, #53]	; 0x35
 8001a5a:	b2db      	uxtb	r3, r3
 8001a5c:	2b02      	cmp	r3, #2
 8001a5e:	d004      	beq.n	8001a6a <HAL_DMA_Abort_IT+0x1e>
  {
    hdma->ErrorCode = HAL_DMA_ERROR_NO_XFER;
 8001a60:	687b      	ldr	r3, [r7, #4]
 8001a62:	2280      	movs	r2, #128	; 0x80
 8001a64:	655a      	str	r2, [r3, #84]	; 0x54
    return HAL_ERROR;
 8001a66:	2301      	movs	r3, #1
 8001a68:	e00c      	b.n	8001a84 <HAL_DMA_Abort_IT+0x38>
  }
  else
  {
    /* Set Abort State  */
    hdma->State = HAL_DMA_STATE_ABORT;
 8001a6a:	687b      	ldr	r3, [r7, #4]
 8001a6c:	2205      	movs	r2, #5
 8001a6e:	f883 2035 	strb.w	r2, [r3, #53]	; 0x35
    
    /* Disable the stream */
    __HAL_DMA_DISABLE(hdma);
 8001a72:	687b      	ldr	r3, [r7, #4]
 8001a74:	681b      	ldr	r3, [r3, #0]
 8001a76:	681a      	ldr	r2, [r3, #0]
 8001a78:	687b      	ldr	r3, [r7, #4]
 8001a7a:	681b      	ldr	r3, [r3, #0]
 8001a7c:	f022 0201 	bic.w	r2, r2, #1
 8001a80:	601a      	str	r2, [r3, #0]
  }

  return HAL_OK;
 8001a82:	2300      	movs	r3, #0
}
 8001a84:	4618      	mov	r0, r3
 8001a86:	370c      	adds	r7, #12
 8001a88:	46bd      	mov	sp, r7
 8001a8a:	f85d 7b04 	ldr.w	r7, [sp], #4
 8001a8e:	4770      	bx	lr

08001a90 <HAL_DMA_IRQHandler>:
  * @param  hdma pointer to a DMA_HandleTypeDef structure that contains
  *               the configuration information for the specified DMA Stream.  
  * @retval None
  */
void HAL_DMA_IRQHandler(DMA_HandleTypeDef *hdma)
{
 8001a90:	b580      	push	{r7, lr}
 8001a92:	b086      	sub	sp, #24
 8001a94:	af00      	add	r7, sp, #0
 8001a96:	6078      	str	r0, [r7, #4]
  uint32_t tmpisr;
  __IO uint32_t count = 0U;
 8001a98:	2300      	movs	r3, #0
 8001a9a:	60bb      	str	r3, [r7, #8]
  uint32_t timeout = SystemCoreClock / 9600U;
 8001a9c:	4b92      	ldr	r3, [pc, #584]	; (8001ce8 <HAL_DMA_IRQHandler+0x258>)
 8001a9e:	681b      	ldr	r3, [r3, #0]
 8001aa0:	4a92      	ldr	r2, [pc, #584]	; (8001cec <HAL_DMA_IRQHandler+0x25c>)
 8001aa2:	fba2 2303 	umull	r2, r3, r2, r3
 8001aa6:	0a9b      	lsrs	r3, r3, #10
 8001aa8:	617b      	str	r3, [r7, #20]

  /* calculate DMA base and stream number */
  DMA_Base_Registers *regs = (DMA_Base_Registers *)hdma->StreamBaseAddress;
 8001aaa:	687b      	ldr	r3, [r7, #4]
 8001aac:	6d9b      	ldr	r3, [r3, #88]	; 0x58
 8001aae:	613b      	str	r3, [r7, #16]

  tmpisr = regs->ISR;
 8001ab0:	693b      	ldr	r3, [r7, #16]
 8001ab2:	681b      	ldr	r3, [r3, #0]
 8001ab4:	60fb      	str	r3, [r7, #12]

  /* Transfer Error Interrupt management ***************************************/
  if ((tmpisr & (DMA_FLAG_TEIF0_4 << hdma->StreamIndex)) != RESET)
 8001ab6:	687b      	ldr	r3, [r7, #4]
 8001ab8:	6ddb      	ldr	r3, [r3, #92]	; 0x5c
 8001aba:	2208      	movs	r2, #8
 8001abc:	409a      	lsls	r2, r3
 8001abe:	68fb      	ldr	r3, [r7, #12]
 8001ac0:	4013      	ands	r3, r2
 8001ac2:	2b00      	cmp	r3, #0
 8001ac4:	d01a      	beq.n	8001afc <HAL_DMA_IRQHandler+0x6c>
  {
    if(__HAL_DMA_GET_IT_SOURCE(hdma, DMA_IT_TE) != RESET)
 8001ac6:	687b      	ldr	r3, [r7, #4]
 8001ac8:	681b      	ldr	r3, [r3, #0]
 8001aca:	681b      	ldr	r3, [r3, #0]
 8001acc:	f003 0304 	and.w	r3, r3, #4
 8001ad0:	2b00      	cmp	r3, #0
 8001ad2:	d013      	beq.n	8001afc <HAL_DMA_IRQHandler+0x6c>
    {
      /* Disable the transfer error interrupt */
      hdma->Instance->CR  &= ~(DMA_IT_TE);
 8001ad4:	687b      	ldr	r3, [r7, #4]
 8001ad6:	681b      	ldr	r3, [r3, #0]
 8001ad8:	681a      	ldr	r2, [r3, #0]
 8001ada:	687b      	ldr	r3, [r7, #4]
 8001adc:	681b      	ldr	r3, [r3, #0]
 8001ade:	f022 0204 	bic.w	r2, r2, #4
 8001ae2:	601a      	str	r2, [r3, #0]
      
      /* Clear the transfer error flag */
      regs->IFCR = DMA_FLAG_TEIF0_4 << hdma->StreamIndex;
 8001ae4:	687b      	ldr	r3, [r7, #4]
 8001ae6:	6ddb      	ldr	r3, [r3, #92]	; 0x5c
 8001ae8:	2208      	movs	r2, #8
 8001aea:	409a      	lsls	r2, r3
 8001aec:	693b      	ldr	r3, [r7, #16]
 8001aee:	609a      	str	r2, [r3, #8]
      
      /* Update error code */
      hdma->ErrorCode |= HAL_DMA_ERROR_TE;
 8001af0:	687b      	ldr	r3, [r7, #4]
 8001af2:	6d5b      	ldr	r3, [r3, #84]	; 0x54
 8001af4:	f043 0201 	orr.w	r2, r3, #1
 8001af8:	687b      	ldr	r3, [r7, #4]
 8001afa:	655a      	str	r2, [r3, #84]	; 0x54
    }
  }
  /* FIFO Error Interrupt management ******************************************/
  if ((tmpisr & (DMA_FLAG_FEIF0_4 << hdma->StreamIndex)) != RESET)
 8001afc:	687b      	ldr	r3, [r7, #4]
 8001afe:	6ddb      	ldr	r3, [r3, #92]	; 0x5c
 8001b00:	2201      	movs	r2, #1
 8001b02:	409a      	lsls	r2, r3
 8001b04:	68fb      	ldr	r3, [r7, #12]
 8001b06:	4013      	ands	r3, r2
 8001b08:	2b00      	cmp	r3, #0
 8001b0a:	d012      	beq.n	8001b32 <HAL_DMA_IRQHandler+0xa2>
  {
    if(__HAL_DMA_GET_IT_SOURCE(hdma, DMA_IT_FE) != RESET)
 8001b0c:	687b      	ldr	r3, [r7, #4]
 8001b0e:	681b      	ldr	r3, [r3, #0]
 8001b10:	695b      	ldr	r3, [r3, #20]
 8001b12:	f003 0380 	and.w	r3, r3, #128	; 0x80
 8001b16:	2b00      	cmp	r3, #0
 8001b18:	d00b      	beq.n	8001b32 <HAL_DMA_IRQHandler+0xa2>
    {
      /* Clear the FIFO error flag */
      regs->IFCR = DMA_FLAG_FEIF0_4 << hdma->StreamIndex;
 8001b1a:	687b      	ldr	r3, [r7, #4]
 8001b1c:	6ddb      	ldr	r3, [r3, #92]	; 0x5c
 8001b1e:	2201      	movs	r2, #1
 8001b20:	409a      	lsls	r2, r3
 8001b22:	693b      	ldr	r3, [r7, #16]
 8001b24:	609a      	str	r2, [r3, #8]

      /* Update error code */
      hdma->ErrorCode |= HAL_DMA_ERROR_FE;
 8001b26:	687b      	ldr	r3, [r7, #4]
 8001b28:	6d5b      	ldr	r3, [r3, #84]	; 0x54
 8001b2a:	f043 0202 	orr.w	r2, r3, #2
 8001b2e:	687b      	ldr	r3, [r7, #4]
 8001b30:	655a      	str	r2, [r3, #84]	; 0x54
    }
  }
  /* Direct Mode Error Interrupt management ***********************************/
  if ((tmpisr & (DMA_FLAG_DMEIF0_4 << hdma->StreamIndex)) != RESET)
 8001b32:	687b      	ldr	r3, [r7, #4]
 8001b34:	6ddb      	ldr	r3, [r3, #92]	; 0x5c
 8001b36:	2204      	movs	r2, #4
 8001b38:	409a      	lsls	r2, r3
 8001b3a:	68fb      	ldr	r3, [r7, #12]
 8001b3c:	4013      	ands	r3, r2
 8001b3e:	2b00      	cmp	r3, #0
 8001b40:	d012      	beq.n	8001b68 <HAL_DMA_IRQHandler+0xd8>
  {
    if(__HAL_DMA_GET_IT_SOURCE(hdma, DMA_IT_DME) != RESET)
 8001b42:	687b      	ldr	r3, [r7, #4]
 8001b44:	681b      	ldr	r3, [r3, #0]
 8001b46:	681b      	ldr	r3, [r3, #0]
 8001b48:	f003 0302 	and.w	r3, r3, #2
 8001b4c:	2b00      	cmp	r3, #0
 8001b4e:	d00b      	beq.n	8001b68 <HAL_DMA_IRQHandler+0xd8>
    {
      /* Clear the direct mode error flag */
      regs->IFCR = DMA_FLAG_DMEIF0_4 << hdma->StreamIndex;
 8001b50:	687b      	ldr	r3, [r7, #4]
 8001b52:	6ddb      	ldr	r3, [r3, #92]	; 0x5c
 8001b54:	2204      	movs	r2, #4
 8001b56:	409a      	lsls	r2, r3
 8001b58:	693b      	ldr	r3, [r7, #16]
 8001b5a:	609a      	str	r2, [r3, #8]

      /* Update error code */
      hdma->ErrorCode |= HAL_DMA_ERROR_DME;
 8001b5c:	687b      	ldr	r3, [r7, #4]
 8001b5e:	6d5b      	ldr	r3, [r3, #84]	; 0x54
 8001b60:	f043 0204 	orr.w	r2, r3, #4
 8001b64:	687b      	ldr	r3, [r7, #4]
 8001b66:	655a      	str	r2, [r3, #84]	; 0x54
    }
  }
  /* Half Transfer Complete Interrupt management ******************************/
  if ((tmpisr & (DMA_FLAG_HTIF0_4 << hdma->StreamIndex)) != RESET)
 8001b68:	687b      	ldr	r3, [r7, #4]
 8001b6a:	6ddb      	ldr	r3, [r3, #92]	; 0x5c
 8001b6c:	2210      	movs	r2, #16
 8001b6e:	409a      	lsls	r2, r3
 8001b70:	68fb      	ldr	r3, [r7, #12]
 8001b72:	4013      	ands	r3, r2
 8001b74:	2b00      	cmp	r3, #0
 8001b76:	d043      	beq.n	8001c00 <HAL_DMA_IRQHandler+0x170>
  {
    if(__HAL_DMA_GET_IT_SOURCE(hdma, DMA_IT_HT) != RESET)
 8001b78:	687b      	ldr	r3, [r7, #4]
 8001b7a:	681b      	ldr	r3, [r3, #0]
 8001b7c:	681b      	ldr	r3, [r3, #0]
 8001b7e:	f003 0308 	and.w	r3, r3, #8
 8001b82:	2b00      	cmp	r3, #0
 8001b84:	d03c      	beq.n	8001c00 <HAL_DMA_IRQHandler+0x170>
    {
      /* Clear the half transfer complete flag */
      regs->IFCR = DMA_FLAG_HTIF0_4 << hdma->StreamIndex;
 8001b86:	687b      	ldr	r3, [r7, #4]
 8001b88:	6ddb      	ldr	r3, [r3, #92]	; 0x5c
 8001b8a:	2210      	movs	r2, #16
 8001b8c:	409a      	lsls	r2, r3
 8001b8e:	693b      	ldr	r3, [r7, #16]
 8001b90:	609a      	str	r2, [r3, #8]
      
      /* Multi_Buffering mode enabled */
      if(((hdma->Instance->CR) & (uint32_t)(DMA_SxCR_DBM)) != RESET)
 8001b92:	687b      	ldr	r3, [r7, #4]
 8001b94:	681b      	ldr	r3, [r3, #0]
 8001b96:	681b      	ldr	r3, [r3, #0]
 8001b98:	f403 2380 	and.w	r3, r3, #262144	; 0x40000
 8001b9c:	2b00      	cmp	r3, #0
 8001b9e:	d018      	beq.n	8001bd2 <HAL_DMA_IRQHandler+0x142>
      {
        /* Current memory buffer used is Memory 0 */
        if((hdma->Instance->CR & DMA_SxCR_CT) == RESET)
 8001ba0:	687b      	ldr	r3, [r7, #4]
 8001ba2:	681b      	ldr	r3, [r3, #0]
 8001ba4:	681b      	ldr	r3, [r3, #0]
 8001ba6:	f403 2300 	and.w	r3, r3, #524288	; 0x80000
 8001baa:	2b00      	cmp	r3, #0
 8001bac:	d108      	bne.n	8001bc0 <HAL_DMA_IRQHandler+0x130>
        {
          if(hdma->XferHalfCpltCallback != NULL)
 8001bae:	687b      	ldr	r3, [r7, #4]
 8001bb0:	6c1b      	ldr	r3, [r3, #64]	; 0x40
 8001bb2:	2b00      	cmp	r3, #0
 8001bb4:	d024      	beq.n	8001c00 <HAL_DMA_IRQHandler+0x170>
          {
            /* Half transfer callback */
            hdma->XferHalfCpltCallback(hdma);
 8001bb6:	687b      	ldr	r3, [r7, #4]
 8001bb8:	6c1b      	ldr	r3, [r3, #64]	; 0x40
 8001bba:	6878      	ldr	r0, [r7, #4]
 8001bbc:	4798      	blx	r3
 8001bbe:	e01f      	b.n	8001c00 <HAL_DMA_IRQHandler+0x170>
          }
        }
        /* Current memory buffer used is Memory 1 */
        else
        {
          if(hdma->XferM1HalfCpltCallback != NULL)
 8001bc0:	687b      	ldr	r3, [r7, #4]
 8001bc2:	6c9b      	ldr	r3, [r3, #72]	; 0x48
 8001bc4:	2b00      	cmp	r3, #0
 8001bc6:	d01b      	beq.n	8001c00 <HAL_DMA_IRQHandler+0x170>
          {
            /* Half transfer callback */
            hdma->XferM1HalfCpltCallback(hdma);
 8001bc8:	687b      	ldr	r3, [r7, #4]
 8001bca:	6c9b      	ldr	r3, [r3, #72]	; 0x48
 8001bcc:	6878      	ldr	r0, [r7, #4]
 8001bce:	4798      	blx	r3
 8001bd0:	e016      	b.n	8001c00 <HAL_DMA_IRQHandler+0x170>
        }
      }
      else
      {
        /* Disable the half transfer interrupt if the DMA mode is not CIRCULAR */
        if((hdma->Instance->CR & DMA_SxCR_CIRC) == RESET)
 8001bd2:	687b      	ldr	r3, [r7, #4]
 8001bd4:	681b      	ldr	r3, [r3, #0]
 8001bd6:	681b      	ldr	r3, [r3, #0]
 8001bd8:	f403 7380 	and.w	r3, r3, #256	; 0x100
 8001bdc:	2b00      	cmp	r3, #0
 8001bde:	d107      	bne.n	8001bf0 <HAL_DMA_IRQHandler+0x160>
        {
          /* Disable the half transfer interrupt */
          hdma->Instance->CR  &= ~(DMA_IT_HT);
 8001be0:	687b      	ldr	r3, [r7, #4]
 8001be2:	681b      	ldr	r3, [r3, #0]
 8001be4:	681a      	ldr	r2, [r3, #0]
 8001be6:	687b      	ldr	r3, [r7, #4]
 8001be8:	681b      	ldr	r3, [r3, #0]
 8001bea:	f022 0208 	bic.w	r2, r2, #8
 8001bee:	601a      	str	r2, [r3, #0]
        }
        
        if(hdma->XferHalfCpltCallback != NULL)
 8001bf0:	687b      	ldr	r3, [r7, #4]
 8001bf2:	6c1b      	ldr	r3, [r3, #64]	; 0x40
 8001bf4:	2b00      	cmp	r3, #0
 8001bf6:	d003      	beq.n	8001c00 <HAL_DMA_IRQHandler+0x170>
        {
          /* Half transfer callback */
          hdma->XferHalfCpltCallback(hdma);
 8001bf8:	687b      	ldr	r3, [r7, #4]
 8001bfa:	6c1b      	ldr	r3, [r3, #64]	; 0x40
 8001bfc:	6878      	ldr	r0, [r7, #4]
 8001bfe:	4798      	blx	r3
        }
      }
    }
  }
  /* Transfer Complete Interrupt management ***********************************/
  if ((tmpisr & (DMA_FLAG_TCIF0_4 << hdma->StreamIndex)) != RESET)
 8001c00:	687b      	ldr	r3, [r7, #4]
 8001c02:	6ddb      	ldr	r3, [r3, #92]	; 0x5c
 8001c04:	2220      	movs	r2, #32
 8001c06:	409a      	lsls	r2, r3
 8001c08:	68fb      	ldr	r3, [r7, #12]
 8001c0a:	4013      	ands	r3, r2
 8001c0c:	2b00      	cmp	r3, #0
 8001c0e:	f000 808e 	beq.w	8001d2e <HAL_DMA_IRQHandler+0x29e>
  {
    if(__HAL_DMA_GET_IT_SOURCE(hdma, DMA_IT_TC) != RESET)
 8001c12:	687b      	ldr	r3, [r7, #4]
 8001c14:	681b      	ldr	r3, [r3, #0]
 8001c16:	681b      	ldr	r3, [r3, #0]
 8001c18:	f003 0310 	and.w	r3, r3, #16
 8001c1c:	2b00      	cmp	r3, #0
 8001c1e:	f000 8086 	beq.w	8001d2e <HAL_DMA_IRQHandler+0x29e>
    {
      /* Clear the transfer complete flag */
      regs->IFCR = DMA_FLAG_TCIF0_4 << hdma->StreamIndex;
 8001c22:	687b      	ldr	r3, [r7, #4]
 8001c24:	6ddb      	ldr	r3, [r3, #92]	; 0x5c
 8001c26:	2220      	movs	r2, #32
 8001c28:	409a      	lsls	r2, r3
 8001c2a:	693b      	ldr	r3, [r7, #16]
 8001c2c:	609a      	str	r2, [r3, #8]
      
      if(HAL_DMA_STATE_ABORT == hdma->State)
 8001c2e:	687b      	ldr	r3, [r7, #4]
 8001c30:	f893 3035 	ldrb.w	r3, [r3, #53]	; 0x35
 8001c34:	b2db      	uxtb	r3, r3
 8001c36:	2b05      	cmp	r3, #5
 8001c38:	d136      	bne.n	8001ca8 <HAL_DMA_IRQHandler+0x218>
      {
        /* Disable all the transfer interrupts */
        hdma->Instance->CR  &= ~(DMA_IT_TC | DMA_IT_TE | DMA_IT_DME);
 8001c3a:	687b      	ldr	r3, [r7, #4]
 8001c3c:	681b      	ldr	r3, [r3, #0]
 8001c3e:	681a      	ldr	r2, [r3, #0]
 8001c40:	687b      	ldr	r3, [r7, #4]
 8001c42:	681b      	ldr	r3, [r3, #0]
 8001c44:	f022 0216 	bic.w	r2, r2, #22
 8001c48:	601a      	str	r2, [r3, #0]
        hdma->Instance->FCR &= ~(DMA_IT_FE);
 8001c4a:	687b      	ldr	r3, [r7, #4]
 8001c4c:	681b      	ldr	r3, [r3, #0]
 8001c4e:	695a      	ldr	r2, [r3, #20]
 8001c50:	687b      	ldr	r3, [r7, #4]
 8001c52:	681b      	ldr	r3, [r3, #0]
 8001c54:	f022 0280 	bic.w	r2, r2, #128	; 0x80
 8001c58:	615a      	str	r2, [r3, #20]
        
        if((hdma->XferHalfCpltCallback != NULL) || (hdma->XferM1HalfCpltCallback != NULL))
 8001c5a:	687b      	ldr	r3, [r7, #4]
 8001c5c:	6c1b      	ldr	r3, [r3, #64]	; 0x40
 8001c5e:	2b00      	cmp	r3, #0
 8001c60:	d103      	bne.n	8001c6a <HAL_DMA_IRQHandler+0x1da>
 8001c62:	687b      	ldr	r3, [r7, #4]
 8001c64:	6c9b      	ldr	r3, [r3, #72]	; 0x48
 8001c66:	2b00      	cmp	r3, #0
 8001c68:	d007      	beq.n	8001c7a <HAL_DMA_IRQHandler+0x1ea>
        {
          hdma->Instance->CR  &= ~(DMA_IT_HT);
 8001c6a:	687b      	ldr	r3, [r7, #4]
 8001c6c:	681b      	ldr	r3, [r3, #0]
 8001c6e:	681a      	ldr	r2, [r3, #0]
 8001c70:	687b      	ldr	r3, [r7, #4]
 8001c72:	681b      	ldr	r3, [r3, #0]
 8001c74:	f022 0208 	bic.w	r2, r2, #8
 8001c78:	601a      	str	r2, [r3, #0]
        }

        /* Clear all interrupt flags at correct offset within the register */
        regs->IFCR = 0x3FU << hdma->StreamIndex;
 8001c7a:	687b      	ldr	r3, [r7, #4]
 8001c7c:	6ddb      	ldr	r3, [r3, #92]	; 0x5c
 8001c7e:	223f      	movs	r2, #63	; 0x3f
 8001c80:	409a      	lsls	r2, r3
 8001c82:	693b      	ldr	r3, [r7, #16]
 8001c84:	609a      	str	r2, [r3, #8]

        /* Process Unlocked */
        __HAL_UNLOCK(hdma);
 8001c86:	687b      	ldr	r3, [r7, #4]
 8001c88:	2200      	movs	r2, #0
 8001c8a:	f883 2034 	strb.w	r2, [r3, #52]	; 0x34

        /* Change the DMA state */
        hdma->State = HAL_DMA_STATE_READY;
 8001c8e:	687b      	ldr	r3, [r7, #4]
 8001c90:	2201      	movs	r2, #1
 8001c92:	f883 2035 	strb.w	r2, [r3, #53]	; 0x35

        if(hdma->XferAbortCallback != NULL)
 8001c96:	687b      	ldr	r3, [r7, #4]
 8001c98:	6d1b      	ldr	r3, [r3, #80]	; 0x50
 8001c9a:	2b00      	cmp	r3, #0
 8001c9c:	d07d      	beq.n	8001d9a <HAL_DMA_IRQHandler+0x30a>
        {
          hdma->XferAbortCallback(hdma);
 8001c9e:	687b      	ldr	r3, [r7, #4]
 8001ca0:	6d1b      	ldr	r3, [r3, #80]	; 0x50
 8001ca2:	6878      	ldr	r0, [r7, #4]
 8001ca4:	4798      	blx	r3
        }
        return;
 8001ca6:	e078      	b.n	8001d9a <HAL_DMA_IRQHandler+0x30a>
      }

      if(((hdma->Instance->CR) & (uint32_t)(DMA_SxCR_DBM)) != RESET)
 8001ca8:	687b      	ldr	r3, [r7, #4]
 8001caa:	681b      	ldr	r3, [r3, #0]
 8001cac:	681b      	ldr	r3, [r3, #0]
 8001cae:	f403 2380 	and.w	r3, r3, #262144	; 0x40000
 8001cb2:	2b00      	cmp	r3, #0
 8001cb4:	d01c      	beq.n	8001cf0 <HAL_DMA_IRQHandler+0x260>
      {
        /* Current memory buffer used is Memory 0 */
        if((hdma->Instance->CR & DMA_SxCR_CT) == RESET)
 8001cb6:	687b      	ldr	r3, [r7, #4]
 8001cb8:	681b      	ldr	r3, [r3, #0]
 8001cba:	681b      	ldr	r3, [r3, #0]
 8001cbc:	f403 2300 	and.w	r3, r3, #524288	; 0x80000
 8001cc0:	2b00      	cmp	r3, #0
 8001cc2:	d108      	bne.n	8001cd6 <HAL_DMA_IRQHandler+0x246>
        {
          if(hdma->XferM1CpltCallback != NULL)
 8001cc4:	687b      	ldr	r3, [r7, #4]
 8001cc6:	6c5b      	ldr	r3, [r3, #68]	; 0x44
 8001cc8:	2b00      	cmp	r3, #0
 8001cca:	d030      	beq.n	8001d2e <HAL_DMA_IRQHandler+0x29e>
          {
            /* Transfer complete Callback for memory1 */
            hdma->XferM1CpltCallback(hdma);
 8001ccc:	687b      	ldr	r3, [r7, #4]
 8001cce:	6c5b      	ldr	r3, [r3, #68]	; 0x44
 8001cd0:	6878      	ldr	r0, [r7, #4]
 8001cd2:	4798      	blx	r3
 8001cd4:	e02b      	b.n	8001d2e <HAL_DMA_IRQHandler+0x29e>
          }
        }
        /* Current memory buffer used is Memory 1 */
        else
        {
          if(hdma->XferCpltCallback != NULL)
 8001cd6:	687b      	ldr	r3, [r7, #4]
 8001cd8:	6bdb      	ldr	r3, [r3, #60]	; 0x3c
 8001cda:	2b00      	cmp	r3, #0
 8001cdc:	d027      	beq.n	8001d2e <HAL_DMA_IRQHandler+0x29e>
          {
            /* Transfer complete Callback for memory0 */
            hdma->XferCpltCallback(hdma);
 8001cde:	687b      	ldr	r3, [r7, #4]
 8001ce0:	6bdb      	ldr	r3, [r3, #60]	; 0x3c
 8001ce2:	6878      	ldr	r0, [r7, #4]
 8001ce4:	4798      	blx	r3
 8001ce6:	e022      	b.n	8001d2e <HAL_DMA_IRQHandler+0x29e>
 8001ce8:	20000020 	.word	0x20000020
 8001cec:	1b4e81b5 	.word	0x1b4e81b5
        }
      }
      /* Disable the transfer complete interrupt if the DMA mode is not CIRCULAR */
      else
      {
        if((hdma->Instance->CR & DMA_SxCR_CIRC) == RESET)
 8001cf0:	687b      	ldr	r3, [r7, #4]
 8001cf2:	681b      	ldr	r3, [r3, #0]
 8001cf4:	681b      	ldr	r3, [r3, #0]
 8001cf6:	f403 7380 	and.w	r3, r3, #256	; 0x100
 8001cfa:	2b00      	cmp	r3, #0
 8001cfc:	d10f      	bne.n	8001d1e <HAL_DMA_IRQHandler+0x28e>
        {
          /* Disable the transfer complete interrupt */
          hdma->Instance->CR  &= ~(DMA_IT_TC);
 8001cfe:	687b      	ldr	r3, [r7, #4]
 8001d00:	681b      	ldr	r3, [r3, #0]
 8001d02:	681a      	ldr	r2, [r3, #0]
 8001d04:	687b      	ldr	r3, [r7, #4]
 8001d06:	681b      	ldr	r3, [r3, #0]
 8001d08:	f022 0210 	bic.w	r2, r2, #16
 8001d0c:	601a      	str	r2, [r3, #0]

          /* Process Unlocked */
          __HAL_UNLOCK(hdma);
 8001d0e:	687b      	ldr	r3, [r7, #4]
 8001d10:	2200      	movs	r2, #0
 8001d12:	f883 2034 	strb.w	r2, [r3, #52]	; 0x34

          /* Change the DMA state */
          hdma->State = HAL_DMA_STATE_READY;
 8001d16:	687b      	ldr	r3, [r7, #4]
 8001d18:	2201      	movs	r2, #1
 8001d1a:	f883 2035 	strb.w	r2, [r3, #53]	; 0x35
        }

        if(hdma->XferCpltCallback != NULL)
 8001d1e:	687b      	ldr	r3, [r7, #4]
 8001d20:	6bdb      	ldr	r3, [r3, #60]	; 0x3c
 8001d22:	2b00      	cmp	r3, #0
 8001d24:	d003      	beq.n	8001d2e <HAL_DMA_IRQHandler+0x29e>
        {
          /* Transfer complete callback */
          hdma->XferCpltCallback(hdma);
 8001d26:	687b      	ldr	r3, [r7, #4]
 8001d28:	6bdb      	ldr	r3, [r3, #60]	; 0x3c
 8001d2a:	6878      	ldr	r0, [r7, #4]
 8001d2c:	4798      	blx	r3
      }
    }
  }
  
  /* manage error case */
  if(hdma->ErrorCode != HAL_DMA_ERROR_NONE)
 8001d2e:	687b      	ldr	r3, [r7, #4]
 8001d30:	6d5b      	ldr	r3, [r3, #84]	; 0x54
 8001d32:	2b00      	cmp	r3, #0
 8001d34:	d032      	beq.n	8001d9c <HAL_DMA_IRQHandler+0x30c>
  {
    if((hdma->ErrorCode & HAL_DMA_ERROR_TE) != RESET)
 8001d36:	687b      	ldr	r3, [r7, #4]
 8001d38:	6d5b      	ldr	r3, [r3, #84]	; 0x54
 8001d3a:	f003 0301 	and.w	r3, r3, #1
 8001d3e:	2b00      	cmp	r3, #0
 8001d40:	d022      	beq.n	8001d88 <HAL_DMA_IRQHandler+0x2f8>
    {
      hdma->State = HAL_DMA_STATE_ABORT;
 8001d42:	687b      	ldr	r3, [r7, #4]
 8001d44:	2205      	movs	r2, #5
 8001d46:	f883 2035 	strb.w	r2, [r3, #53]	; 0x35

      /* Disable the stream */
      __HAL_DMA_DISABLE(hdma);
 8001d4a:	687b      	ldr	r3, [r7, #4]
 8001d4c:	681b      	ldr	r3, [r3, #0]
 8001d4e:	681a      	ldr	r2, [r3, #0]
 8001d50:	687b      	ldr	r3, [r7, #4]
 8001d52:	681b      	ldr	r3, [r3, #0]
 8001d54:	f022 0201 	bic.w	r2, r2, #1
 8001d58:	601a      	str	r2, [r3, #0]

      do
      {
        if (++count > timeout)
 8001d5a:	68bb      	ldr	r3, [r7, #8]
 8001d5c:	3301      	adds	r3, #1
 8001d5e:	60bb      	str	r3, [r7, #8]
 8001d60:	697a      	ldr	r2, [r7, #20]
 8001d62:	429a      	cmp	r2, r3
 8001d64:	d307      	bcc.n	8001d76 <HAL_DMA_IRQHandler+0x2e6>
        {
          break;
        }
      }
      while((hdma->Instance->CR & DMA_SxCR_EN) != RESET);
 8001d66:	687b      	ldr	r3, [r7, #4]
 8001d68:	681b      	ldr	r3, [r3, #0]
 8001d6a:	681b      	ldr	r3, [r3, #0]
 8001d6c:	f003 0301 	and.w	r3, r3, #1
 8001d70:	2b00      	cmp	r3, #0
 8001d72:	d1f2      	bne.n	8001d5a <HAL_DMA_IRQHandler+0x2ca>
 8001d74:	e000      	b.n	8001d78 <HAL_DMA_IRQHandler+0x2e8>
          break;
 8001d76:	bf00      	nop

      /* Process Unlocked */
      __HAL_UNLOCK(hdma);
 8001d78:	687b      	ldr	r3, [r7, #4]
 8001d7a:	2200      	movs	r2, #0
 8001d7c:	f883 2034 	strb.w	r2, [r3, #52]	; 0x34

      /* Change the DMA state */
      hdma->State = HAL_DMA_STATE_READY;
 8001d80:	687b      	ldr	r3, [r7, #4]
 8001d82:	2201      	movs	r2, #1
 8001d84:	f883 2035 	strb.w	r2, [r3, #53]	; 0x35
    }

    if(hdma->XferErrorCallback != NULL)
 8001d88:	687b      	ldr	r3, [r7, #4]
 8001d8a:	6cdb      	ldr	r3, [r3, #76]	; 0x4c
 8001d8c:	2b00      	cmp	r3, #0
 8001d8e:	d005      	beq.n	8001d9c <HAL_DMA_IRQHandler+0x30c>
    {
      /* Transfer error callback */
      hdma->XferErrorCallback(hdma);
 8001d90:	687b      	ldr	r3, [r7, #4]
 8001d92:	6cdb      	ldr	r3, [r3, #76]	; 0x4c
 8001d94:	6878      	ldr	r0, [r7, #4]
 8001d96:	4798      	blx	r3
 8001d98:	e000      	b.n	8001d9c <HAL_DMA_IRQHandler+0x30c>
        return;
 8001d9a:	bf00      	nop
    }
  }
}
 8001d9c:	3718      	adds	r7, #24
 8001d9e:	46bd      	mov	sp, r7
 8001da0:	bd80      	pop	{r7, pc}
 8001da2:	bf00      	nop

08001da4 <DMA_SetConfig>:
  * @param  DstAddress The destination memory Buffer address
  * @param  DataLength The length of data to be transferred from source to destination
  * @retval HAL status
  */
static void DMA_SetConfig(DMA_HandleTypeDef *hdma, uint32_t SrcAddress, uint32_t DstAddress, uint32_t DataLength)
{
 8001da4:	b480      	push	{r7}
 8001da6:	b085      	sub	sp, #20
 8001da8:	af00      	add	r7, sp, #0
 8001daa:	60f8      	str	r0, [r7, #12]
 8001dac:	60b9      	str	r1, [r7, #8]
 8001dae:	607a      	str	r2, [r7, #4]
 8001db0:	603b      	str	r3, [r7, #0]
  /* Clear DBM bit */
  hdma->Instance->CR &= (uint32_t)(~DMA_SxCR_DBM);
 8001db2:	68fb      	ldr	r3, [r7, #12]
 8001db4:	681b      	ldr	r3, [r3, #0]
 8001db6:	681a      	ldr	r2, [r3, #0]
 8001db8:	68fb      	ldr	r3, [r7, #12]
 8001dba:	681b      	ldr	r3, [r3, #0]
 8001dbc:	f422 2280 	bic.w	r2, r2, #262144	; 0x40000
 8001dc0:	601a      	str	r2, [r3, #0]

  /* Configure DMA Stream data length */
  hdma->Instance->NDTR = DataLength;
 8001dc2:	68fb      	ldr	r3, [r7, #12]
 8001dc4:	681b      	ldr	r3, [r3, #0]
 8001dc6:	683a      	ldr	r2, [r7, #0]
 8001dc8:	605a      	str	r2, [r3, #4]

  /* Memory to Peripheral */
  if((hdma->Init.Direction) == DMA_MEMORY_TO_PERIPH)
 8001dca:	68fb      	ldr	r3, [r7, #12]
 8001dcc:	689b      	ldr	r3, [r3, #8]
 8001dce:	2b40      	cmp	r3, #64	; 0x40
 8001dd0:	d108      	bne.n	8001de4 <DMA_SetConfig+0x40>
  {
    /* Configure DMA Stream destination address */
    hdma->Instance->PAR = DstAddress;
 8001dd2:	68fb      	ldr	r3, [r7, #12]
 8001dd4:	681b      	ldr	r3, [r3, #0]
 8001dd6:	687a      	ldr	r2, [r7, #4]
 8001dd8:	609a      	str	r2, [r3, #8]

    /* Configure DMA Stream source address */
    hdma->Instance->M0AR = SrcAddress;
 8001dda:	68fb      	ldr	r3, [r7, #12]
 8001ddc:	681b      	ldr	r3, [r3, #0]
 8001dde:	68ba      	ldr	r2, [r7, #8]
 8001de0:	60da      	str	r2, [r3, #12]
    hdma->Instance->PAR = SrcAddress;

    /* Configure DMA Stream destination address */
    hdma->Instance->M0AR = DstAddress;
  }
}
 8001de2:	e007      	b.n	8001df4 <DMA_SetConfig+0x50>
    hdma->Instance->PAR = SrcAddress;
 8001de4:	68fb      	ldr	r3, [r7, #12]
 8001de6:	681b      	ldr	r3, [r3, #0]
 8001de8:	68ba      	ldr	r2, [r7, #8]
 8001dea:	609a      	str	r2, [r3, #8]
    hdma->Instance->M0AR = DstAddress;
 8001dec:	68fb      	ldr	r3, [r7, #12]
 8001dee:	681b      	ldr	r3, [r3, #0]
 8001df0:	687a      	ldr	r2, [r7, #4]
 8001df2:	60da      	str	r2, [r3, #12]
}
 8001df4:	bf00      	nop
 8001df6:	3714      	adds	r7, #20
 8001df8:	46bd      	mov	sp, r7
 8001dfa:	f85d 7b04 	ldr.w	r7, [sp], #4
 8001dfe:	4770      	bx	lr

08001e00 <DMA_CalcBaseAndBitshift>:
  * @param  hdma       pointer to a DMA_HandleTypeDef structure that contains
  *                     the configuration information for the specified DMA Stream. 
  * @retval Stream base address
  */
static uint32_t DMA_CalcBaseAndBitshift(DMA_HandleTypeDef *hdma)
{
 8001e00:	b480      	push	{r7}
 8001e02:	b085      	sub	sp, #20
 8001e04:	af00      	add	r7, sp, #0
 8001e06:	6078      	str	r0, [r7, #4]
  uint32_t stream_number = (((uint32_t)hdma->Instance & 0xFFU) - 16U) / 24U;
 8001e08:	687b      	ldr	r3, [r7, #4]
 8001e0a:	681b      	ldr	r3, [r3, #0]
 8001e0c:	b2db      	uxtb	r3, r3
 8001e0e:	3b10      	subs	r3, #16
 8001e10:	4a14      	ldr	r2, [pc, #80]	; (8001e64 <DMA_CalcBaseAndBitshift+0x64>)
 8001e12:	fba2 2303 	umull	r2, r3, r2, r3
 8001e16:	091b      	lsrs	r3, r3, #4
 8001e18:	60fb      	str	r3, [r7, #12]
  
  /* lookup table for necessary bitshift of flags within status registers */
  static const uint8_t flagBitshiftOffset[8U] = {0U, 6U, 16U, 22U, 0U, 6U, 16U, 22U};
  hdma->StreamIndex = flagBitshiftOffset[stream_number];
 8001e1a:	4a13      	ldr	r2, [pc, #76]	; (8001e68 <DMA_CalcBaseAndBitshift+0x68>)
 8001e1c:	68fb      	ldr	r3, [r7, #12]
 8001e1e:	4413      	add	r3, r2
 8001e20:	781b      	ldrb	r3, [r3, #0]
 8001e22:	461a      	mov	r2, r3
 8001e24:	687b      	ldr	r3, [r7, #4]
 8001e26:	65da      	str	r2, [r3, #92]	; 0x5c
  
  if (stream_number > 3U)
 8001e28:	68fb      	ldr	r3, [r7, #12]
 8001e2a:	2b03      	cmp	r3, #3
 8001e2c:	d909      	bls.n	8001e42 <DMA_CalcBaseAndBitshift+0x42>
  {
    /* return pointer to HISR and HIFCR */
    hdma->StreamBaseAddress = (((uint32_t)hdma->Instance & (uint32_t)(~0x3FFU)) + 4U);
 8001e2e:	687b      	ldr	r3, [r7, #4]
 8001e30:	681b      	ldr	r3, [r3, #0]
 8001e32:	f423 737f 	bic.w	r3, r3, #1020	; 0x3fc
 8001e36:	f023 0303 	bic.w	r3, r3, #3
 8001e3a:	1d1a      	adds	r2, r3, #4
 8001e3c:	687b      	ldr	r3, [r7, #4]
 8001e3e:	659a      	str	r2, [r3, #88]	; 0x58
 8001e40:	e007      	b.n	8001e52 <DMA_CalcBaseAndBitshift+0x52>
  }
  else
  {
    /* return pointer to LISR and LIFCR */
    hdma->StreamBaseAddress = ((uint32_t)hdma->Instance & (uint32_t)(~0x3FFU));
 8001e42:	687b      	ldr	r3, [r7, #4]
 8001e44:	681b      	ldr	r3, [r3, #0]
 8001e46:	f423 737f 	bic.w	r3, r3, #1020	; 0x3fc
 8001e4a:	f023 0303 	bic.w	r3, r3, #3
 8001e4e:	687a      	ldr	r2, [r7, #4]
 8001e50:	6593      	str	r3, [r2, #88]	; 0x58
  }
  
  return hdma->StreamBaseAddress;
 8001e52:	687b      	ldr	r3, [r7, #4]
 8001e54:	6d9b      	ldr	r3, [r3, #88]	; 0x58
}
 8001e56:	4618      	mov	r0, r3
 8001e58:	3714      	adds	r7, #20
 8001e5a:	46bd      	mov	sp, r7
 8001e5c:	f85d 7b04 	ldr.w	r7, [sp], #4
 8001e60:	4770      	bx	lr
 8001e62:	bf00      	nop
 8001e64:	aaaaaaab 	.word	0xaaaaaaab
 8001e68:	080062d4 	.word	0x080062d4

08001e6c <DMA_CheckFifoParam>:
  * @param  hdma       pointer to a DMA_HandleTypeDef structure that contains
  *                     the configuration information for the specified DMA Stream. 
  * @retval HAL status
  */
static HAL_StatusTypeDef DMA_CheckFifoParam(DMA_HandleTypeDef *hdma)
{
 8001e6c:	b480      	push	{r7}
 8001e6e:	b085      	sub	sp, #20
 8001e70:	af00      	add	r7, sp, #0
 8001e72:	6078      	str	r0, [r7, #4]
  HAL_StatusTypeDef status = HAL_OK;
 8001e74:	2300      	movs	r3, #0
 8001e76:	73fb      	strb	r3, [r7, #15]
  uint32_t tmp = hdma->Init.FIFOThreshold;
 8001e78:	687b      	ldr	r3, [r7, #4]
 8001e7a:	6a9b      	ldr	r3, [r3, #40]	; 0x28
 8001e7c:	60bb      	str	r3, [r7, #8]
  
  /* Memory Data size equal to Byte */
  if(hdma->Init.MemDataAlignment == DMA_MDATAALIGN_BYTE)
 8001e7e:	687b      	ldr	r3, [r7, #4]
 8001e80:	699b      	ldr	r3, [r3, #24]
 8001e82:	2b00      	cmp	r3, #0
 8001e84:	d11f      	bne.n	8001ec6 <DMA_CheckFifoParam+0x5a>
 8001e86:	68bb      	ldr	r3, [r7, #8]
 8001e88:	2b03      	cmp	r3, #3
 8001e8a:	d856      	bhi.n	8001f3a <DMA_CheckFifoParam+0xce>
 8001e8c:	a201      	add	r2, pc, #4	; (adr r2, 8001e94 <DMA_CheckFifoParam+0x28>)
 8001e8e:	f852 f023 	ldr.w	pc, [r2, r3, lsl #2]
 8001e92:	bf00      	nop
 8001e94:	08001ea5 	.word	0x08001ea5
 8001e98:	08001eb7 	.word	0x08001eb7
 8001e9c:	08001ea5 	.word	0x08001ea5
 8001ea0:	08001f3b 	.word	0x08001f3b
  {
    switch (tmp)
    {
    case DMA_FIFO_THRESHOLD_1QUARTERFULL:
    case DMA_FIFO_THRESHOLD_3QUARTERSFULL:
      if ((hdma->Init.MemBurst & DMA_SxCR_MBURST_1) == DMA_SxCR_MBURST_1)
 8001ea4:	687b      	ldr	r3, [r7, #4]
 8001ea6:	6adb      	ldr	r3, [r3, #44]	; 0x2c
 8001ea8:	f003 7380 	and.w	r3, r3, #16777216	; 0x1000000
 8001eac:	2b00      	cmp	r3, #0
 8001eae:	d046      	beq.n	8001f3e <DMA_CheckFifoParam+0xd2>
      {
        status = HAL_ERROR;
 8001eb0:	2301      	movs	r3, #1
 8001eb2:	73fb      	strb	r3, [r7, #15]
      }
      break;
 8001eb4:	e043      	b.n	8001f3e <DMA_CheckFifoParam+0xd2>
    case DMA_FIFO_THRESHOLD_HALFFULL:
      if (hdma->Init.MemBurst == DMA_MBURST_INC16)
 8001eb6:	687b      	ldr	r3, [r7, #4]
 8001eb8:	6adb      	ldr	r3, [r3, #44]	; 0x2c
 8001eba:	f1b3 7fc0 	cmp.w	r3, #25165824	; 0x1800000
 8001ebe:	d140      	bne.n	8001f42 <DMA_CheckFifoParam+0xd6>
      {
        status = HAL_ERROR;
 8001ec0:	2301      	movs	r3, #1
 8001ec2:	73fb      	strb	r3, [r7, #15]
      }
      break;
 8001ec4:	e03d      	b.n	8001f42 <DMA_CheckFifoParam+0xd6>
      break;
    }
  }
  
  /* Memory Data size equal to Half-Word */
  else if (hdma->Init.MemDataAlignment == DMA_MDATAALIGN_HALFWORD)
 8001ec6:	687b      	ldr	r3, [r7, #4]
 8001ec8:	699b      	ldr	r3, [r3, #24]
 8001eca:	f5b3 5f00 	cmp.w	r3, #8192	; 0x2000
 8001ece:	d121      	bne.n	8001f14 <DMA_CheckFifoParam+0xa8>
 8001ed0:	68bb      	ldr	r3, [r7, #8]
 8001ed2:	2b03      	cmp	r3, #3
 8001ed4:	d837      	bhi.n	8001f46 <DMA_CheckFifoParam+0xda>
 8001ed6:	a201      	add	r2, pc, #4	; (adr r2, 8001edc <DMA_CheckFifoParam+0x70>)
 8001ed8:	f852 f023 	ldr.w	pc, [r2, r3, lsl #2]
 8001edc:	08001eed 	.word	0x08001eed
 8001ee0:	08001ef3 	.word	0x08001ef3
 8001ee4:	08001eed 	.word	0x08001eed
 8001ee8:	08001f05 	.word	0x08001f05
  {
    switch (tmp)
    {
    case DMA_FIFO_THRESHOLD_1QUARTERFULL:
    case DMA_FIFO_THRESHOLD_3QUARTERSFULL:
      status = HAL_ERROR;
 8001eec:	2301      	movs	r3, #1
 8001eee:	73fb      	strb	r3, [r7, #15]
      break;
 8001ef0:	e030      	b.n	8001f54 <DMA_CheckFifoParam+0xe8>
    case DMA_FIFO_THRESHOLD_HALFFULL:
      if ((hdma->Init.MemBurst & DMA_SxCR_MBURST_1) == DMA_SxCR_MBURST_1)
 8001ef2:	687b      	ldr	r3, [r7, #4]
 8001ef4:	6adb      	ldr	r3, [r3, #44]	; 0x2c
 8001ef6:	f003 7380 	and.w	r3, r3, #16777216	; 0x1000000
 8001efa:	2b00      	cmp	r3, #0
 8001efc:	d025      	beq.n	8001f4a <DMA_CheckFifoParam+0xde>
      {
        status = HAL_ERROR;
 8001efe:	2301      	movs	r3, #1
 8001f00:	73fb      	strb	r3, [r7, #15]
      }
      break;
 8001f02:	e022      	b.n	8001f4a <DMA_CheckFifoParam+0xde>
    case DMA_FIFO_THRESHOLD_FULL:
      if (hdma->Init.MemBurst == DMA_MBURST_INC16)
 8001f04:	687b      	ldr	r3, [r7, #4]
 8001f06:	6adb      	ldr	r3, [r3, #44]	; 0x2c
 8001f08:	f1b3 7fc0 	cmp.w	r3, #25165824	; 0x1800000
 8001f0c:	d11f      	bne.n	8001f4e <DMA_CheckFifoParam+0xe2>
      {
        status = HAL_ERROR;
 8001f0e:	2301      	movs	r3, #1
 8001f10:	73fb      	strb	r3, [r7, #15]
      }
      break;   
 8001f12:	e01c      	b.n	8001f4e <DMA_CheckFifoParam+0xe2>
  }
  
  /* Memory Data size equal to Word */
  else
  {
    switch (tmp)
 8001f14:	68bb      	ldr	r3, [r7, #8]
 8001f16:	2b02      	cmp	r3, #2
 8001f18:	d903      	bls.n	8001f22 <DMA_CheckFifoParam+0xb6>
 8001f1a:	68bb      	ldr	r3, [r7, #8]
 8001f1c:	2b03      	cmp	r3, #3
 8001f1e:	d003      	beq.n	8001f28 <DMA_CheckFifoParam+0xbc>
      {
        status = HAL_ERROR;
      }
      break;
    default:
      break;
 8001f20:	e018      	b.n	8001f54 <DMA_CheckFifoParam+0xe8>
      status = HAL_ERROR;
 8001f22:	2301      	movs	r3, #1
 8001f24:	73fb      	strb	r3, [r7, #15]
      break;
 8001f26:	e015      	b.n	8001f54 <DMA_CheckFifoParam+0xe8>
      if ((hdma->Init.MemBurst & DMA_SxCR_MBURST_1) == DMA_SxCR_MBURST_1)
 8001f28:	687b      	ldr	r3, [r7, #4]
 8001f2a:	6adb      	ldr	r3, [r3, #44]	; 0x2c
 8001f2c:	f003 7380 	and.w	r3, r3, #16777216	; 0x1000000
 8001f30:	2b00      	cmp	r3, #0
 8001f32:	d00e      	beq.n	8001f52 <DMA_CheckFifoParam+0xe6>
        status = HAL_ERROR;
 8001f34:	2301      	movs	r3, #1
 8001f36:	73fb      	strb	r3, [r7, #15]
      break;
 8001f38:	e00b      	b.n	8001f52 <DMA_CheckFifoParam+0xe6>
      break;
 8001f3a:	bf00      	nop
 8001f3c:	e00a      	b.n	8001f54 <DMA_CheckFifoParam+0xe8>
      break;
 8001f3e:	bf00      	nop
 8001f40:	e008      	b.n	8001f54 <DMA_CheckFifoParam+0xe8>
      break;
 8001f42:	bf00      	nop
 8001f44:	e006      	b.n	8001f54 <DMA_CheckFifoParam+0xe8>
      break;
 8001f46:	bf00      	nop
 8001f48:	e004      	b.n	8001f54 <DMA_CheckFifoParam+0xe8>
      break;
 8001f4a:	bf00      	nop
 8001f4c:	e002      	b.n	8001f54 <DMA_CheckFifoParam+0xe8>
      break;   
 8001f4e:	bf00      	nop
 8001f50:	e000      	b.n	8001f54 <DMA_CheckFifoParam+0xe8>
      break;
 8001f52:	bf00      	nop
    }
  } 
  
  return status; 
 8001f54:	7bfb      	ldrb	r3, [r7, #15]
}
 8001f56:	4618      	mov	r0, r3
 8001f58:	3714      	adds	r7, #20
 8001f5a:	46bd      	mov	sp, r7
 8001f5c:	f85d 7b04 	ldr.w	r7, [sp], #4
 8001f60:	4770      	bx	lr
 8001f62:	bf00      	nop

08001f64 <HAL_GPIO_Init>:
  * @param  GPIO_Init pointer to a GPIO_InitTypeDef structure that contains
  *         the configuration information for the specified GPIO peripheral.
  * @retval None
  */
void HAL_GPIO_Init(GPIO_TypeDef  *GPIOx, GPIO_InitTypeDef *GPIO_Init)
{
 8001f64:	b480      	push	{r7}
 8001f66:	b089      	sub	sp, #36	; 0x24
 8001f68:	af00      	add	r7, sp, #0
 8001f6a:	6078      	str	r0, [r7, #4]
 8001f6c:	6039      	str	r1, [r7, #0]
  uint32_t position;
  uint32_t ioposition = 0x00U;
 8001f6e:	2300      	movs	r3, #0
 8001f70:	617b      	str	r3, [r7, #20]
  uint32_t iocurrent = 0x00U;
 8001f72:	2300      	movs	r3, #0
 8001f74:	613b      	str	r3, [r7, #16]
  uint32_t temp = 0x00U;
 8001f76:	2300      	movs	r3, #0
 8001f78:	61bb      	str	r3, [r7, #24]
  assert_param(IS_GPIO_PIN(GPIO_Init->Pin));
  assert_param(IS_GPIO_MODE(GPIO_Init->Mode));
  assert_param(IS_GPIO_PULL(GPIO_Init->Pull));

  /* Configure the port pins */
  for(position = 0U; position < GPIO_NUMBER; position++)
 8001f7a:	2300      	movs	r3, #0
 8001f7c:	61fb      	str	r3, [r7, #28]
 8001f7e:	e16b      	b.n	8002258 <HAL_GPIO_Init+0x2f4>
  {
    /* Get the IO position */
    ioposition = 0x01U << position;
 8001f80:	2201      	movs	r2, #1
 8001f82:	69fb      	ldr	r3, [r7, #28]
 8001f84:	fa02 f303 	lsl.w	r3, r2, r3
 8001f88:	617b      	str	r3, [r7, #20]
    /* Get the current IO position */
    iocurrent = (uint32_t)(GPIO_Init->Pin) & ioposition;
 8001f8a:	683b      	ldr	r3, [r7, #0]
 8001f8c:	681b      	ldr	r3, [r3, #0]
 8001f8e:	697a      	ldr	r2, [r7, #20]
 8001f90:	4013      	ands	r3, r2
 8001f92:	613b      	str	r3, [r7, #16]

    if(iocurrent == ioposition)
 8001f94:	693a      	ldr	r2, [r7, #16]
 8001f96:	697b      	ldr	r3, [r7, #20]
 8001f98:	429a      	cmp	r2, r3
 8001f9a:	f040 815a 	bne.w	8002252 <HAL_GPIO_Init+0x2ee>
    {
      /*--------------------- GPIO Mode Configuration ------------------------*/
      /* In case of Output or Alternate function mode selection */
      if(((GPIO_Init->Mode & GPIO_MODE) == MODE_OUTPUT) || \
 8001f9e:	683b      	ldr	r3, [r7, #0]
 8001fa0:	685b      	ldr	r3, [r3, #4]
 8001fa2:	f003 0303 	and.w	r3, r3, #3
 8001fa6:	2b01      	cmp	r3, #1
 8001fa8:	d005      	beq.n	8001fb6 <HAL_GPIO_Init+0x52>
          (GPIO_Init->Mode & GPIO_MODE) == MODE_AF)
 8001faa:	683b      	ldr	r3, [r7, #0]
 8001fac:	685b      	ldr	r3, [r3, #4]
 8001fae:	f003 0303 	and.w	r3, r3, #3
      if(((GPIO_Init->Mode & GPIO_MODE) == MODE_OUTPUT) || \
 8001fb2:	2b02      	cmp	r3, #2
 8001fb4:	d130      	bne.n	8002018 <HAL_GPIO_Init+0xb4>
      {
        /* Check the Speed parameter */
        assert_param(IS_GPIO_SPEED(GPIO_Init->Speed));
        /* Configure the IO Speed */
        temp = GPIOx->OSPEEDR; 
 8001fb6:	687b      	ldr	r3, [r7, #4]
 8001fb8:	689b      	ldr	r3, [r3, #8]
 8001fba:	61bb      	str	r3, [r7, #24]
        temp &= ~(GPIO_OSPEEDER_OSPEEDR0 << (position * 2U));
 8001fbc:	69fb      	ldr	r3, [r7, #28]
 8001fbe:	005b      	lsls	r3, r3, #1
 8001fc0:	2203      	movs	r2, #3
 8001fc2:	fa02 f303 	lsl.w	r3, r2, r3
 8001fc6:	43db      	mvns	r3, r3
 8001fc8:	69ba      	ldr	r2, [r7, #24]
 8001fca:	4013      	ands	r3, r2
 8001fcc:	61bb      	str	r3, [r7, #24]
        temp |= (GPIO_Init->Speed << (position * 2U));
 8001fce:	683b      	ldr	r3, [r7, #0]
 8001fd0:	68da      	ldr	r2, [r3, #12]
 8001fd2:	69fb      	ldr	r3, [r7, #28]
 8001fd4:	005b      	lsls	r3, r3, #1
 8001fd6:	fa02 f303 	lsl.w	r3, r2, r3
 8001fda:	69ba      	ldr	r2, [r7, #24]
 8001fdc:	4313      	orrs	r3, r2
 8001fde:	61bb      	str	r3, [r7, #24]
        GPIOx->OSPEEDR = temp;
 8001fe0:	687b      	ldr	r3, [r7, #4]
 8001fe2:	69ba      	ldr	r2, [r7, #24]
 8001fe4:	609a      	str	r2, [r3, #8]

        /* Configure the IO Output Type */
        temp = GPIOx->OTYPER;
 8001fe6:	687b      	ldr	r3, [r7, #4]
 8001fe8:	685b      	ldr	r3, [r3, #4]
 8001fea:	61bb      	str	r3, [r7, #24]
        temp &= ~(GPIO_OTYPER_OT_0 << position) ;
 8001fec:	2201      	movs	r2, #1
 8001fee:	69fb      	ldr	r3, [r7, #28]
 8001ff0:	fa02 f303 	lsl.w	r3, r2, r3
 8001ff4:	43db      	mvns	r3, r3
 8001ff6:	69ba      	ldr	r2, [r7, #24]
 8001ff8:	4013      	ands	r3, r2
 8001ffa:	61bb      	str	r3, [r7, #24]
        temp |= (((GPIO_Init->Mode & GPIO_OUTPUT_TYPE) >> 4U) << position);
 8001ffc:	683b      	ldr	r3, [r7, #0]
 8001ffe:	685b      	ldr	r3, [r3, #4]
 8002000:	091b      	lsrs	r3, r3, #4
 8002002:	f003 0201 	and.w	r2, r3, #1
 8002006:	69fb      	ldr	r3, [r7, #28]
 8002008:	fa02 f303 	lsl.w	r3, r2, r3
 800200c:	69ba      	ldr	r2, [r7, #24]
 800200e:	4313      	orrs	r3, r2
 8002010:	61bb      	str	r3, [r7, #24]
        GPIOx->OTYPER = temp;
 8002012:	687b      	ldr	r3, [r7, #4]
 8002014:	69ba      	ldr	r2, [r7, #24]
 8002016:	605a      	str	r2, [r3, #4]
       }

      if((GPIO_Init->Mode & GPIO_MODE) != MODE_ANALOG)
 8002018:	683b      	ldr	r3, [r7, #0]
 800201a:	685b      	ldr	r3, [r3, #4]
 800201c:	f003 0303 	and.w	r3, r3, #3
 8002020:	2b03      	cmp	r3, #3
 8002022:	d017      	beq.n	8002054 <HAL_GPIO_Init+0xf0>
      {
        /* Activate the Pull-up or Pull down resistor for the current IO */
        temp = GPIOx->PUPDR;
 8002024:	687b      	ldr	r3, [r7, #4]
 8002026:	68db      	ldr	r3, [r3, #12]
 8002028:	61bb      	str	r3, [r7, #24]
        temp &= ~(GPIO_PUPDR_PUPDR0 << (position * 2U));
 800202a:	69fb      	ldr	r3, [r7, #28]
 800202c:	005b      	lsls	r3, r3, #1
 800202e:	2203      	movs	r2, #3
 8002030:	fa02 f303 	lsl.w	r3, r2, r3
 8002034:	43db      	mvns	r3, r3
 8002036:	69ba      	ldr	r2, [r7, #24]
 8002038:	4013      	ands	r3, r2
 800203a:	61bb      	str	r3, [r7, #24]
        temp |= ((GPIO_Init->Pull) << (position * 2U));
 800203c:	683b      	ldr	r3, [r7, #0]
 800203e:	689a      	ldr	r2, [r3, #8]
 8002040:	69fb      	ldr	r3, [r7, #28]
 8002042:	005b      	lsls	r3, r3, #1
 8002044:	fa02 f303 	lsl.w	r3, r2, r3
 8002048:	69ba      	ldr	r2, [r7, #24]
 800204a:	4313      	orrs	r3, r2
 800204c:	61bb      	str	r3, [r7, #24]
        GPIOx->PUPDR = temp;
 800204e:	687b      	ldr	r3, [r7, #4]
 8002050:	69ba      	ldr	r2, [r7, #24]
 8002052:	60da      	str	r2, [r3, #12]
      }

      /* In case of Alternate function mode selection */
      if((GPIO_Init->Mode & GPIO_MODE) == MODE_AF)
 8002054:	683b      	ldr	r3, [r7, #0]
 8002056:	685b      	ldr	r3, [r3, #4]
 8002058:	f003 0303 	and.w	r3, r3, #3
 800205c:	2b02      	cmp	r3, #2
 800205e:	d123      	bne.n	80020a8 <HAL_GPIO_Init+0x144>
      {
        /* Check the Alternate function parameter */
        assert_param(IS_GPIO_AF(GPIO_Init->Alternate));
        /* Configure Alternate function mapped with the current IO */
        temp = GPIOx->AFR[position >> 3U];
 8002060:	69fb      	ldr	r3, [r7, #28]
 8002062:	08da      	lsrs	r2, r3, #3
 8002064:	687b      	ldr	r3, [r7, #4]
 8002066:	3208      	adds	r2, #8
 8002068:	f853 3022 	ldr.w	r3, [r3, r2, lsl #2]
 800206c:	61bb      	str	r3, [r7, #24]
        temp &= ~(0xFU << ((uint32_t)(position & 0x07U) * 4U)) ;
 800206e:	69fb      	ldr	r3, [r7, #28]
 8002070:	f003 0307 	and.w	r3, r3, #7
 8002074:	009b      	lsls	r3, r3, #2
 8002076:	220f      	movs	r2, #15
 8002078:	fa02 f303 	lsl.w	r3, r2, r3
 800207c:	43db      	mvns	r3, r3
 800207e:	69ba      	ldr	r2, [r7, #24]
 8002080:	4013      	ands	r3, r2
 8002082:	61bb      	str	r3, [r7, #24]
        temp |= ((uint32_t)(GPIO_Init->Alternate) << (((uint32_t)position & 0x07U) * 4U));
 8002084:	683b      	ldr	r3, [r7, #0]
 8002086:	691a      	ldr	r2, [r3, #16]
 8002088:	69fb      	ldr	r3, [r7, #28]
 800208a:	f003 0307 	and.w	r3, r3, #7
 800208e:	009b      	lsls	r3, r3, #2
 8002090:	fa02 f303 	lsl.w	r3, r2, r3
 8002094:	69ba      	ldr	r2, [r7, #24]
 8002096:	4313      	orrs	r3, r2
 8002098:	61bb      	str	r3, [r7, #24]
        GPIOx->AFR[position >> 3U] = temp;
 800209a:	69fb      	ldr	r3, [r7, #28]
 800209c:	08da      	lsrs	r2, r3, #3
 800209e:	687b      	ldr	r3, [r7, #4]
 80020a0:	3208      	adds	r2, #8
 80020a2:	69b9      	ldr	r1, [r7, #24]
 80020a4:	f843 1022 	str.w	r1, [r3, r2, lsl #2]
      }

      /* Configure IO Direction mode (Input, Output, Alternate or Analog) */
      temp = GPIOx->MODER;
 80020a8:	687b      	ldr	r3, [r7, #4]
 80020aa:	681b      	ldr	r3, [r3, #0]
 80020ac:	61bb      	str	r3, [r7, #24]
      temp &= ~(GPIO_MODER_MODER0 << (position * 2U));
 80020ae:	69fb      	ldr	r3, [r7, #28]
 80020b0:	005b      	lsls	r3, r3, #1
 80020b2:	2203      	movs	r2, #3
 80020b4:	fa02 f303 	lsl.w	r3, r2, r3
 80020b8:	43db      	mvns	r3, r3
 80020ba:	69ba      	ldr	r2, [r7, #24]
 80020bc:	4013      	ands	r3, r2
 80020be:	61bb      	str	r3, [r7, #24]
      temp |= ((GPIO_Init->Mode & GPIO_MODE) << (position * 2U));
 80020c0:	683b      	ldr	r3, [r7, #0]
 80020c2:	685b      	ldr	r3, [r3, #4]
 80020c4:	f003 0203 	and.w	r2, r3, #3
 80020c8:	69fb      	ldr	r3, [r7, #28]
 80020ca:	005b      	lsls	r3, r3, #1
 80020cc:	fa02 f303 	lsl.w	r3, r2, r3
 80020d0:	69ba      	ldr	r2, [r7, #24]
 80020d2:	4313      	orrs	r3, r2
 80020d4:	61bb      	str	r3, [r7, #24]
      GPIOx->MODER = temp;
 80020d6:	687b      	ldr	r3, [r7, #4]
 80020d8:	69ba      	ldr	r2, [r7, #24]
 80020da:	601a      	str	r2, [r3, #0]

      /*--------------------- EXTI Mode Configuration ------------------------*/
      /* Configure the External Interrupt or event for the current IO */
      if((GPIO_Init->Mode & EXTI_MODE) == EXTI_MODE)
 80020dc:	683b      	ldr	r3, [r7, #0]
 80020de:	685b      	ldr	r3, [r3, #4]
 80020e0:	f003 5380 	and.w	r3, r3, #268435456	; 0x10000000
 80020e4:	2b00      	cmp	r3, #0
 80020e6:	f000 80b4 	beq.w	8002252 <HAL_GPIO_Init+0x2ee>
      {
        /* Enable SYSCFG Clock */
        __HAL_RCC_SYSCFG_CLK_ENABLE();
 80020ea:	2300      	movs	r3, #0
 80020ec:	60fb      	str	r3, [r7, #12]
 80020ee:	4b60      	ldr	r3, [pc, #384]	; (8002270 <HAL_GPIO_Init+0x30c>)
 80020f0:	6c5b      	ldr	r3, [r3, #68]	; 0x44
 80020f2:	4a5f      	ldr	r2, [pc, #380]	; (8002270 <HAL_GPIO_Init+0x30c>)
 80020f4:	f443 4380 	orr.w	r3, r3, #16384	; 0x4000
 80020f8:	6453      	str	r3, [r2, #68]	; 0x44
 80020fa:	4b5d      	ldr	r3, [pc, #372]	; (8002270 <HAL_GPIO_Init+0x30c>)
 80020fc:	6c5b      	ldr	r3, [r3, #68]	; 0x44
 80020fe:	f403 4380 	and.w	r3, r3, #16384	; 0x4000
 8002102:	60fb      	str	r3, [r7, #12]
 8002104:	68fb      	ldr	r3, [r7, #12]

        temp = SYSCFG->EXTICR[position >> 2U];
 8002106:	4a5b      	ldr	r2, [pc, #364]	; (8002274 <HAL_GPIO_Init+0x310>)
 8002108:	69fb      	ldr	r3, [r7, #28]
 800210a:	089b      	lsrs	r3, r3, #2
 800210c:	3302      	adds	r3, #2
 800210e:	f852 3023 	ldr.w	r3, [r2, r3, lsl #2]
 8002112:	61bb      	str	r3, [r7, #24]
        temp &= ~(0x0FU << (4U * (position & 0x03U)));
 8002114:	69fb      	ldr	r3, [r7, #28]
 8002116:	f003 0303 	and.w	r3, r3, #3
 800211a:	009b      	lsls	r3, r3, #2
 800211c:	220f      	movs	r2, #15
 800211e:	fa02 f303 	lsl.w	r3, r2, r3
 8002122:	43db      	mvns	r3, r3
 8002124:	69ba      	ldr	r2, [r7, #24]
 8002126:	4013      	ands	r3, r2
 8002128:	61bb      	str	r3, [r7, #24]
        temp |= ((uint32_t)(GPIO_GET_INDEX(GPIOx)) << (4U * (position & 0x03U)));
 800212a:	687b      	ldr	r3, [r7, #4]
 800212c:	4a52      	ldr	r2, [pc, #328]	; (8002278 <HAL_GPIO_Init+0x314>)
 800212e:	4293      	cmp	r3, r2
 8002130:	d02b      	beq.n	800218a <HAL_GPIO_Init+0x226>
 8002132:	687b      	ldr	r3, [r7, #4]
 8002134:	4a51      	ldr	r2, [pc, #324]	; (800227c <HAL_GPIO_Init+0x318>)
 8002136:	4293      	cmp	r3, r2
 8002138:	d025      	beq.n	8002186 <HAL_GPIO_Init+0x222>
 800213a:	687b      	ldr	r3, [r7, #4]
 800213c:	4a50      	ldr	r2, [pc, #320]	; (8002280 <HAL_GPIO_Init+0x31c>)
 800213e:	4293      	cmp	r3, r2
 8002140:	d01f      	beq.n	8002182 <HAL_GPIO_Init+0x21e>
 8002142:	687b      	ldr	r3, [r7, #4]
 8002144:	4a4f      	ldr	r2, [pc, #316]	; (8002284 <HAL_GPIO_Init+0x320>)
 8002146:	4293      	cmp	r3, r2
 8002148:	d019      	beq.n	800217e <HAL_GPIO_Init+0x21a>
 800214a:	687b      	ldr	r3, [r7, #4]
 800214c:	4a4e      	ldr	r2, [pc, #312]	; (8002288 <HAL_GPIO_Init+0x324>)
 800214e:	4293      	cmp	r3, r2
 8002150:	d013      	beq.n	800217a <HAL_GPIO_Init+0x216>
 8002152:	687b      	ldr	r3, [r7, #4]
 8002154:	4a4d      	ldr	r2, [pc, #308]	; (800228c <HAL_GPIO_Init+0x328>)
 8002156:	4293      	cmp	r3, r2
 8002158:	d00d      	beq.n	8002176 <HAL_GPIO_Init+0x212>
 800215a:	687b      	ldr	r3, [r7, #4]
 800215c:	4a4c      	ldr	r2, [pc, #304]	; (8002290 <HAL_GPIO_Init+0x32c>)
 800215e:	4293      	cmp	r3, r2
 8002160:	d007      	beq.n	8002172 <HAL_GPIO_Init+0x20e>
 8002162:	687b      	ldr	r3, [r7, #4]
 8002164:	4a4b      	ldr	r2, [pc, #300]	; (8002294 <HAL_GPIO_Init+0x330>)
 8002166:	4293      	cmp	r3, r2
 8002168:	d101      	bne.n	800216e <HAL_GPIO_Init+0x20a>
 800216a:	2307      	movs	r3, #7
 800216c:	e00e      	b.n	800218c <HAL_GPIO_Init+0x228>
 800216e:	2308      	movs	r3, #8
 8002170:	e00c      	b.n	800218c <HAL_GPIO_Init+0x228>
 8002172:	2306      	movs	r3, #6
 8002174:	e00a      	b.n	800218c <HAL_GPIO_Init+0x228>
 8002176:	2305      	movs	r3, #5
 8002178:	e008      	b.n	800218c <HAL_GPIO_Init+0x228>
 800217a:	2304      	movs	r3, #4
 800217c:	e006      	b.n	800218c <HAL_GPIO_Init+0x228>
 800217e:	2303      	movs	r3, #3
 8002180:	e004      	b.n	800218c <HAL_GPIO_Init+0x228>
 8002182:	2302      	movs	r3, #2
 8002184:	e002      	b.n	800218c <HAL_GPIO_Init+0x228>
 8002186:	2301      	movs	r3, #1
 8002188:	e000      	b.n	800218c <HAL_GPIO_Init+0x228>
 800218a:	2300      	movs	r3, #0
 800218c:	69fa      	ldr	r2, [r7, #28]
 800218e:	f002 0203 	and.w	r2, r2, #3
 8002192:	0092      	lsls	r2, r2, #2
 8002194:	4093      	lsls	r3, r2
 8002196:	69ba      	ldr	r2, [r7, #24]
 8002198:	4313      	orrs	r3, r2
 800219a:	61bb      	str	r3, [r7, #24]
        SYSCFG->EXTICR[position >> 2U] = temp;
 800219c:	4935      	ldr	r1, [pc, #212]	; (8002274 <HAL_GPIO_Init+0x310>)
 800219e:	69fb      	ldr	r3, [r7, #28]
 80021a0:	089b      	lsrs	r3, r3, #2
 80021a2:	3302      	adds	r3, #2
 80021a4:	69ba      	ldr	r2, [r7, #24]
 80021a6:	f841 2023 	str.w	r2, [r1, r3, lsl #2]

        /* Clear EXTI line configuration */
        temp = EXTI->IMR;
 80021aa:	4b3b      	ldr	r3, [pc, #236]	; (8002298 <HAL_GPIO_Init+0x334>)
 80021ac:	681b      	ldr	r3, [r3, #0]
 80021ae:	61bb      	str	r3, [r7, #24]
        temp &= ~((uint32_t)iocurrent);
 80021b0:	693b      	ldr	r3, [r7, #16]
 80021b2:	43db      	mvns	r3, r3
 80021b4:	69ba      	ldr	r2, [r7, #24]
 80021b6:	4013      	ands	r3, r2
 80021b8:	61bb      	str	r3, [r7, #24]
        if((GPIO_Init->Mode & GPIO_MODE_IT) == GPIO_MODE_IT)
 80021ba:	683b      	ldr	r3, [r7, #0]
 80021bc:	685b      	ldr	r3, [r3, #4]
 80021be:	f403 3380 	and.w	r3, r3, #65536	; 0x10000
 80021c2:	2b00      	cmp	r3, #0
 80021c4:	d003      	beq.n	80021ce <HAL_GPIO_Init+0x26a>
        {
          temp |= iocurrent;
 80021c6:	69ba      	ldr	r2, [r7, #24]
 80021c8:	693b      	ldr	r3, [r7, #16]
 80021ca:	4313      	orrs	r3, r2
 80021cc:	61bb      	str	r3, [r7, #24]
        }
        EXTI->IMR = temp;
 80021ce:	4a32      	ldr	r2, [pc, #200]	; (8002298 <HAL_GPIO_Init+0x334>)
 80021d0:	69bb      	ldr	r3, [r7, #24]
 80021d2:	6013      	str	r3, [r2, #0]

        temp = EXTI->EMR;
 80021d4:	4b30      	ldr	r3, [pc, #192]	; (8002298 <HAL_GPIO_Init+0x334>)
 80021d6:	685b      	ldr	r3, [r3, #4]
 80021d8:	61bb      	str	r3, [r7, #24]
        temp &= ~((uint32_t)iocurrent);
 80021da:	693b      	ldr	r3, [r7, #16]
 80021dc:	43db      	mvns	r3, r3
 80021de:	69ba      	ldr	r2, [r7, #24]
 80021e0:	4013      	ands	r3, r2
 80021e2:	61bb      	str	r3, [r7, #24]
        if((GPIO_Init->Mode & GPIO_MODE_EVT) == GPIO_MODE_EVT)
 80021e4:	683b      	ldr	r3, [r7, #0]
 80021e6:	685b      	ldr	r3, [r3, #4]
 80021e8:	f403 3300 	and.w	r3, r3, #131072	; 0x20000
 80021ec:	2b00      	cmp	r3, #0
 80021ee:	d003      	beq.n	80021f8 <HAL_GPIO_Init+0x294>
        {
          temp |= iocurrent;
 80021f0:	69ba      	ldr	r2, [r7, #24]
 80021f2:	693b      	ldr	r3, [r7, #16]
 80021f4:	4313      	orrs	r3, r2
 80021f6:	61bb      	str	r3, [r7, #24]
        }
        EXTI->EMR = temp;
 80021f8:	4a27      	ldr	r2, [pc, #156]	; (8002298 <HAL_GPIO_Init+0x334>)
 80021fa:	69bb      	ldr	r3, [r7, #24]
 80021fc:	6053      	str	r3, [r2, #4]

        /* Clear Rising Falling edge configuration */
        temp = EXTI->RTSR;
 80021fe:	4b26      	ldr	r3, [pc, #152]	; (8002298 <HAL_GPIO_Init+0x334>)
 8002200:	689b      	ldr	r3, [r3, #8]
 8002202:	61bb      	str	r3, [r7, #24]
        temp &= ~((uint32_t)iocurrent);
 8002204:	693b      	ldr	r3, [r7, #16]
 8002206:	43db      	mvns	r3, r3
 8002208:	69ba      	ldr	r2, [r7, #24]
 800220a:	4013      	ands	r3, r2
 800220c:	61bb      	str	r3, [r7, #24]
        if((GPIO_Init->Mode & RISING_EDGE) == RISING_EDGE)
 800220e:	683b      	ldr	r3, [r7, #0]
 8002210:	685b      	ldr	r3, [r3, #4]
 8002212:	f403 1380 	and.w	r3, r3, #1048576	; 0x100000
 8002216:	2b00      	cmp	r3, #0
 8002218:	d003      	beq.n	8002222 <HAL_GPIO_Init+0x2be>
        {
          temp |= iocurrent;
 800221a:	69ba      	ldr	r2, [r7, #24]
 800221c:	693b      	ldr	r3, [r7, #16]
 800221e:	4313      	orrs	r3, r2
 8002220:	61bb      	str	r3, [r7, #24]
        }
        EXTI->RTSR = temp;
 8002222:	4a1d      	ldr	r2, [pc, #116]	; (8002298 <HAL_GPIO_Init+0x334>)
 8002224:	69bb      	ldr	r3, [r7, #24]
 8002226:	6093      	str	r3, [r2, #8]

        temp = EXTI->FTSR;
 8002228:	4b1b      	ldr	r3, [pc, #108]	; (8002298 <HAL_GPIO_Init+0x334>)
 800222a:	68db      	ldr	r3, [r3, #12]
 800222c:	61bb      	str	r3, [r7, #24]
        temp &= ~((uint32_t)iocurrent);
 800222e:	693b      	ldr	r3, [r7, #16]
 8002230:	43db      	mvns	r3, r3
 8002232:	69ba      	ldr	r2, [r7, #24]
 8002234:	4013      	ands	r3, r2
 8002236:	61bb      	str	r3, [r7, #24]
        if((GPIO_Init->Mode & FALLING_EDGE) == FALLING_EDGE)
 8002238:	683b      	ldr	r3, [r7, #0]
 800223a:	685b      	ldr	r3, [r3, #4]
 800223c:	f403 1300 	and.w	r3, r3, #2097152	; 0x200000
 8002240:	2b00      	cmp	r3, #0
 8002242:	d003      	beq.n	800224c <HAL_GPIO_Init+0x2e8>
        {
          temp |= iocurrent;
 8002244:	69ba      	ldr	r2, [r7, #24]
 8002246:	693b      	ldr	r3, [r7, #16]
 8002248:	4313      	orrs	r3, r2
 800224a:	61bb      	str	r3, [r7, #24]
        }
        EXTI->FTSR = temp;
 800224c:	4a12      	ldr	r2, [pc, #72]	; (8002298 <HAL_GPIO_Init+0x334>)
 800224e:	69bb      	ldr	r3, [r7, #24]
 8002250:	60d3      	str	r3, [r2, #12]
  for(position = 0U; position < GPIO_NUMBER; position++)
 8002252:	69fb      	ldr	r3, [r7, #28]
 8002254:	3301      	adds	r3, #1
 8002256:	61fb      	str	r3, [r7, #28]
 8002258:	69fb      	ldr	r3, [r7, #28]
 800225a:	2b0f      	cmp	r3, #15
 800225c:	f67f ae90 	bls.w	8001f80 <HAL_GPIO_Init+0x1c>
      }
    }
  }
}
 8002260:	bf00      	nop
 8002262:	bf00      	nop
 8002264:	3724      	adds	r7, #36	; 0x24
 8002266:	46bd      	mov	sp, r7
 8002268:	f85d 7b04 	ldr.w	r7, [sp], #4
 800226c:	4770      	bx	lr
 800226e:	bf00      	nop
 8002270:	40023800 	.word	0x40023800
 8002274:	40013800 	.word	0x40013800
 8002278:	40020000 	.word	0x40020000
 800227c:	40020400 	.word	0x40020400
 8002280:	40020800 	.word	0x40020800
 8002284:	40020c00 	.word	0x40020c00
 8002288:	40021000 	.word	0x40021000
 800228c:	40021400 	.word	0x40021400
 8002290:	40021800 	.word	0x40021800
 8002294:	40021c00 	.word	0x40021c00
 8002298:	40013c00 	.word	0x40013c00

0800229c <HAL_GPIO_WritePin>:
  *            @arg GPIO_PIN_RESET: to clear the port pin
  *            @arg GPIO_PIN_SET: to set the port pin
  * @retval None
  */
void HAL_GPIO_WritePin(GPIO_TypeDef* GPIOx, uint16_t GPIO_Pin, GPIO_PinState PinState)
{
 800229c:	b480      	push	{r7}
 800229e:	b083      	sub	sp, #12
 80022a0:	af00      	add	r7, sp, #0
 80022a2:	6078      	str	r0, [r7, #4]
 80022a4:	460b      	mov	r3, r1
 80022a6:	807b      	strh	r3, [r7, #2]
 80022a8:	4613      	mov	r3, r2
 80022aa:	707b      	strb	r3, [r7, #1]
  /* Check the parameters */
  assert_param(IS_GPIO_PIN(GPIO_Pin));
  assert_param(IS_GPIO_PIN_ACTION(PinState));

  if(PinState != GPIO_PIN_RESET)
 80022ac:	787b      	ldrb	r3, [r7, #1]
 80022ae:	2b00      	cmp	r3, #0
 80022b0:	d003      	beq.n	80022ba <HAL_GPIO_WritePin+0x1e>
  {
    GPIOx->BSRR = GPIO_Pin;
 80022b2:	887a      	ldrh	r2, [r7, #2]
 80022b4:	687b      	ldr	r3, [r7, #4]
 80022b6:	619a      	str	r2, [r3, #24]
  }
  else
  {
    GPIOx->BSRR = (uint32_t)GPIO_Pin << 16U;
  }
}
 80022b8:	e003      	b.n	80022c2 <HAL_GPIO_WritePin+0x26>
    GPIOx->BSRR = (uint32_t)GPIO_Pin << 16U;
 80022ba:	887b      	ldrh	r3, [r7, #2]
 80022bc:	041a      	lsls	r2, r3, #16
 80022be:	687b      	ldr	r3, [r7, #4]
 80022c0:	619a      	str	r2, [r3, #24]
}
 80022c2:	bf00      	nop
 80022c4:	370c      	adds	r7, #12
 80022c6:	46bd      	mov	sp, r7
 80022c8:	f85d 7b04 	ldr.w	r7, [sp], #4
 80022cc:	4770      	bx	lr
	...

080022d0 <HAL_RCC_OscConfig>:
  *         supported by this API. User should request a transition to HSE Off
  *         first and then HSE On or HSE Bypass.
  * @retval HAL status
  */
__weak HAL_StatusTypeDef HAL_RCC_OscConfig(RCC_OscInitTypeDef  *RCC_OscInitStruct)
{
 80022d0:	b580      	push	{r7, lr}
 80022d2:	b086      	sub	sp, #24
 80022d4:	af00      	add	r7, sp, #0
 80022d6:	6078      	str	r0, [r7, #4]
  uint32_t tickstart, pll_config;

  /* Check Null pointer */
  if(RCC_OscInitStruct == NULL)
 80022d8:	687b      	ldr	r3, [r7, #4]
 80022da:	2b00      	cmp	r3, #0
 80022dc:	d101      	bne.n	80022e2 <HAL_RCC_OscConfig+0x12>
  {
    return HAL_ERROR;
 80022de:	2301      	movs	r3, #1
 80022e0:	e264      	b.n	80027ac <HAL_RCC_OscConfig+0x4dc>
  }

  /* Check the parameters */
  assert_param(IS_RCC_OSCILLATORTYPE(RCC_OscInitStruct->OscillatorType));
  /*------------------------------- HSE Configuration ------------------------*/
  if(((RCC_OscInitStruct->OscillatorType) & RCC_OSCILLATORTYPE_HSE) == RCC_OSCILLATORTYPE_HSE)
 80022e2:	687b      	ldr	r3, [r7, #4]
 80022e4:	681b      	ldr	r3, [r3, #0]
 80022e6:	f003 0301 	and.w	r3, r3, #1
 80022ea:	2b00      	cmp	r3, #0
 80022ec:	d075      	beq.n	80023da <HAL_RCC_OscConfig+0x10a>
  {
    /* Check the parameters */
    assert_param(IS_RCC_HSE(RCC_OscInitStruct->HSEState));
    /* When the HSE is used as system clock or clock source for PLL in these cases HSE will not disabled */
    if((__HAL_RCC_GET_SYSCLK_SOURCE() == RCC_CFGR_SWS_HSE) ||\
 80022ee:	4ba3      	ldr	r3, [pc, #652]	; (800257c <HAL_RCC_OscConfig+0x2ac>)
 80022f0:	689b      	ldr	r3, [r3, #8]
 80022f2:	f003 030c 	and.w	r3, r3, #12
 80022f6:	2b04      	cmp	r3, #4
 80022f8:	d00c      	beq.n	8002314 <HAL_RCC_OscConfig+0x44>
      ((__HAL_RCC_GET_SYSCLK_SOURCE() == RCC_CFGR_SWS_PLL) && ((RCC->PLLCFGR & RCC_PLLCFGR_PLLSRC) == RCC_PLLCFGR_PLLSRC_HSE)))
 80022fa:	4ba0      	ldr	r3, [pc, #640]	; (800257c <HAL_RCC_OscConfig+0x2ac>)
 80022fc:	689b      	ldr	r3, [r3, #8]
 80022fe:	f003 030c 	and.w	r3, r3, #12
    if((__HAL_RCC_GET_SYSCLK_SOURCE() == RCC_CFGR_SWS_HSE) ||\
 8002302:	2b08      	cmp	r3, #8
 8002304:	d112      	bne.n	800232c <HAL_RCC_OscConfig+0x5c>
      ((__HAL_RCC_GET_SYSCLK_SOURCE() == RCC_CFGR_SWS_PLL) && ((RCC->PLLCFGR & RCC_PLLCFGR_PLLSRC) == RCC_PLLCFGR_PLLSRC_HSE)))
 8002306:	4b9d      	ldr	r3, [pc, #628]	; (800257c <HAL_RCC_OscConfig+0x2ac>)
 8002308:	685b      	ldr	r3, [r3, #4]
 800230a:	f403 0380 	and.w	r3, r3, #4194304	; 0x400000
 800230e:	f5b3 0f80 	cmp.w	r3, #4194304	; 0x400000
 8002312:	d10b      	bne.n	800232c <HAL_RCC_OscConfig+0x5c>
    {
      if((__HAL_RCC_GET_FLAG(RCC_FLAG_HSERDY) != RESET) && (RCC_OscInitStruct->HSEState == RCC_HSE_OFF))
 8002314:	4b99      	ldr	r3, [pc, #612]	; (800257c <HAL_RCC_OscConfig+0x2ac>)
 8002316:	681b      	ldr	r3, [r3, #0]
 8002318:	f403 3300 	and.w	r3, r3, #131072	; 0x20000
 800231c:	2b00      	cmp	r3, #0
 800231e:	d05b      	beq.n	80023d8 <HAL_RCC_OscConfig+0x108>
 8002320:	687b      	ldr	r3, [r7, #4]
 8002322:	685b      	ldr	r3, [r3, #4]
 8002324:	2b00      	cmp	r3, #0
 8002326:	d157      	bne.n	80023d8 <HAL_RCC_OscConfig+0x108>
      {
        return HAL_ERROR;
 8002328:	2301      	movs	r3, #1
 800232a:	e23f      	b.n	80027ac <HAL_RCC_OscConfig+0x4dc>
      }
    }
    else
    {
      /* Set the new HSE configuration ---------------------------------------*/
      __HAL_RCC_HSE_CONFIG(RCC_OscInitStruct->HSEState);
 800232c:	687b      	ldr	r3, [r7, #4]
 800232e:	685b      	ldr	r3, [r3, #4]
 8002330:	f5b3 3f80 	cmp.w	r3, #65536	; 0x10000
 8002334:	d106      	bne.n	8002344 <HAL_RCC_OscConfig+0x74>
 8002336:	4b91      	ldr	r3, [pc, #580]	; (800257c <HAL_RCC_OscConfig+0x2ac>)
 8002338:	681b      	ldr	r3, [r3, #0]
 800233a:	4a90      	ldr	r2, [pc, #576]	; (800257c <HAL_RCC_OscConfig+0x2ac>)
 800233c:	f443 3380 	orr.w	r3, r3, #65536	; 0x10000
 8002340:	6013      	str	r3, [r2, #0]
 8002342:	e01d      	b.n	8002380 <HAL_RCC_OscConfig+0xb0>
 8002344:	687b      	ldr	r3, [r7, #4]
 8002346:	685b      	ldr	r3, [r3, #4]
 8002348:	f5b3 2fa0 	cmp.w	r3, #327680	; 0x50000
 800234c:	d10c      	bne.n	8002368 <HAL_RCC_OscConfig+0x98>
 800234e:	4b8b      	ldr	r3, [pc, #556]	; (800257c <HAL_RCC_OscConfig+0x2ac>)
 8002350:	681b      	ldr	r3, [r3, #0]
 8002352:	4a8a      	ldr	r2, [pc, #552]	; (800257c <HAL_RCC_OscConfig+0x2ac>)
 8002354:	f443 2380 	orr.w	r3, r3, #262144	; 0x40000
 8002358:	6013      	str	r3, [r2, #0]
 800235a:	4b88      	ldr	r3, [pc, #544]	; (800257c <HAL_RCC_OscConfig+0x2ac>)
 800235c:	681b      	ldr	r3, [r3, #0]
 800235e:	4a87      	ldr	r2, [pc, #540]	; (800257c <HAL_RCC_OscConfig+0x2ac>)
 8002360:	f443 3380 	orr.w	r3, r3, #65536	; 0x10000
 8002364:	6013      	str	r3, [r2, #0]
 8002366:	e00b      	b.n	8002380 <HAL_RCC_OscConfig+0xb0>
 8002368:	4b84      	ldr	r3, [pc, #528]	; (800257c <HAL_RCC_OscConfig+0x2ac>)
 800236a:	681b      	ldr	r3, [r3, #0]
 800236c:	4a83      	ldr	r2, [pc, #524]	; (800257c <HAL_RCC_OscConfig+0x2ac>)
 800236e:	f423 3380 	bic.w	r3, r3, #65536	; 0x10000
 8002372:	6013      	str	r3, [r2, #0]
 8002374:	4b81      	ldr	r3, [pc, #516]	; (800257c <HAL_RCC_OscConfig+0x2ac>)
 8002376:	681b      	ldr	r3, [r3, #0]
 8002378:	4a80      	ldr	r2, [pc, #512]	; (800257c <HAL_RCC_OscConfig+0x2ac>)
 800237a:	f423 2380 	bic.w	r3, r3, #262144	; 0x40000
 800237e:	6013      	str	r3, [r2, #0]

      /* Check the HSE State */
      if((RCC_OscInitStruct->HSEState) != RCC_HSE_OFF)
 8002380:	687b      	ldr	r3, [r7, #4]
 8002382:	685b      	ldr	r3, [r3, #4]
 8002384:	2b00      	cmp	r3, #0
 8002386:	d013      	beq.n	80023b0 <HAL_RCC_OscConfig+0xe0>
      {
        /* Get Start Tick */
        tickstart = HAL_GetTick();
 8002388:	f7ff f8cc 	bl	8001524 <HAL_GetTick>
 800238c:	6138      	str	r0, [r7, #16]

        /* Wait till HSE is ready */
        while(__HAL_RCC_GET_FLAG(RCC_FLAG_HSERDY) == RESET)
 800238e:	e008      	b.n	80023a2 <HAL_RCC_OscConfig+0xd2>
        {
          if((HAL_GetTick() - tickstart ) > HSE_TIMEOUT_VALUE)
 8002390:	f7ff f8c8 	bl	8001524 <HAL_GetTick>
 8002394:	4602      	mov	r2, r0
 8002396:	693b      	ldr	r3, [r7, #16]
 8002398:	1ad3      	subs	r3, r2, r3
 800239a:	2b64      	cmp	r3, #100	; 0x64
 800239c:	d901      	bls.n	80023a2 <HAL_RCC_OscConfig+0xd2>
          {
            return HAL_TIMEOUT;
 800239e:	2303      	movs	r3, #3
 80023a0:	e204      	b.n	80027ac <HAL_RCC_OscConfig+0x4dc>
        while(__HAL_RCC_GET_FLAG(RCC_FLAG_HSERDY) == RESET)
 80023a2:	4b76      	ldr	r3, [pc, #472]	; (800257c <HAL_RCC_OscConfig+0x2ac>)
 80023a4:	681b      	ldr	r3, [r3, #0]
 80023a6:	f403 3300 	and.w	r3, r3, #131072	; 0x20000
 80023aa:	2b00      	cmp	r3, #0
 80023ac:	d0f0      	beq.n	8002390 <HAL_RCC_OscConfig+0xc0>
 80023ae:	e014      	b.n	80023da <HAL_RCC_OscConfig+0x10a>
        }
      }
      else
      {
        /* Get Start Tick */
        tickstart = HAL_GetTick();
 80023b0:	f7ff f8b8 	bl	8001524 <HAL_GetTick>
 80023b4:	6138      	str	r0, [r7, #16]

        /* Wait till HSE is bypassed or disabled */
        while(__HAL_RCC_GET_FLAG(RCC_FLAG_HSERDY) != RESET)
 80023b6:	e008      	b.n	80023ca <HAL_RCC_OscConfig+0xfa>
        {
          if((HAL_GetTick() - tickstart ) > HSE_TIMEOUT_VALUE)
 80023b8:	f7ff f8b4 	bl	8001524 <HAL_GetTick>
 80023bc:	4602      	mov	r2, r0
 80023be:	693b      	ldr	r3, [r7, #16]
 80023c0:	1ad3      	subs	r3, r2, r3
 80023c2:	2b64      	cmp	r3, #100	; 0x64
 80023c4:	d901      	bls.n	80023ca <HAL_RCC_OscConfig+0xfa>
          {
            return HAL_TIMEOUT;
 80023c6:	2303      	movs	r3, #3
 80023c8:	e1f0      	b.n	80027ac <HAL_RCC_OscConfig+0x4dc>
        while(__HAL_RCC_GET_FLAG(RCC_FLAG_HSERDY) != RESET)
 80023ca:	4b6c      	ldr	r3, [pc, #432]	; (800257c <HAL_RCC_OscConfig+0x2ac>)
 80023cc:	681b      	ldr	r3, [r3, #0]
 80023ce:	f403 3300 	and.w	r3, r3, #131072	; 0x20000
 80023d2:	2b00      	cmp	r3, #0
 80023d4:	d1f0      	bne.n	80023b8 <HAL_RCC_OscConfig+0xe8>
 80023d6:	e000      	b.n	80023da <HAL_RCC_OscConfig+0x10a>
      if((__HAL_RCC_GET_FLAG(RCC_FLAG_HSERDY) != RESET) && (RCC_OscInitStruct->HSEState == RCC_HSE_OFF))
 80023d8:	bf00      	nop
        }
      }
    }
  }
  /*----------------------------- HSI Configuration --------------------------*/
  if(((RCC_OscInitStruct->OscillatorType) & RCC_OSCILLATORTYPE_HSI) == RCC_OSCILLATORTYPE_HSI)
 80023da:	687b      	ldr	r3, [r7, #4]
 80023dc:	681b      	ldr	r3, [r3, #0]
 80023de:	f003 0302 	and.w	r3, r3, #2
 80023e2:	2b00      	cmp	r3, #0
 80023e4:	d063      	beq.n	80024ae <HAL_RCC_OscConfig+0x1de>
    /* Check the parameters */
    assert_param(IS_RCC_HSI(RCC_OscInitStruct->HSIState));
    assert_param(IS_RCC_CALIBRATION_VALUE(RCC_OscInitStruct->HSICalibrationValue));

    /* Check if HSI is used as system clock or as PLL source when PLL is selected as system clock */
    if((__HAL_RCC_GET_SYSCLK_SOURCE() == RCC_CFGR_SWS_HSI) ||\
 80023e6:	4b65      	ldr	r3, [pc, #404]	; (800257c <HAL_RCC_OscConfig+0x2ac>)
 80023e8:	689b      	ldr	r3, [r3, #8]
 80023ea:	f003 030c 	and.w	r3, r3, #12
 80023ee:	2b00      	cmp	r3, #0
 80023f0:	d00b      	beq.n	800240a <HAL_RCC_OscConfig+0x13a>
      ((__HAL_RCC_GET_SYSCLK_SOURCE() == RCC_CFGR_SWS_PLL) && ((RCC->PLLCFGR & RCC_PLLCFGR_PLLSRC) == RCC_PLLCFGR_PLLSRC_HSI)))
 80023f2:	4b62      	ldr	r3, [pc, #392]	; (800257c <HAL_RCC_OscConfig+0x2ac>)
 80023f4:	689b      	ldr	r3, [r3, #8]
 80023f6:	f003 030c 	and.w	r3, r3, #12
    if((__HAL_RCC_GET_SYSCLK_SOURCE() == RCC_CFGR_SWS_HSI) ||\
 80023fa:	2b08      	cmp	r3, #8
 80023fc:	d11c      	bne.n	8002438 <HAL_RCC_OscConfig+0x168>
      ((__HAL_RCC_GET_SYSCLK_SOURCE() == RCC_CFGR_SWS_PLL) && ((RCC->PLLCFGR & RCC_PLLCFGR_PLLSRC) == RCC_PLLCFGR_PLLSRC_HSI)))
 80023fe:	4b5f      	ldr	r3, [pc, #380]	; (800257c <HAL_RCC_OscConfig+0x2ac>)
 8002400:	685b      	ldr	r3, [r3, #4]
 8002402:	f403 0380 	and.w	r3, r3, #4194304	; 0x400000
 8002406:	2b00      	cmp	r3, #0
 8002408:	d116      	bne.n	8002438 <HAL_RCC_OscConfig+0x168>
    {
      /* When HSI is used as system clock it will not disabled */
      if((__HAL_RCC_GET_FLAG(RCC_FLAG_HSIRDY) != RESET) && (RCC_OscInitStruct->HSIState != RCC_HSI_ON))
 800240a:	4b5c      	ldr	r3, [pc, #368]	; (800257c <HAL_RCC_OscConfig+0x2ac>)
 800240c:	681b      	ldr	r3, [r3, #0]
 800240e:	f003 0302 	and.w	r3, r3, #2
 8002412:	2b00      	cmp	r3, #0
 8002414:	d005      	beq.n	8002422 <HAL_RCC_OscConfig+0x152>
 8002416:	687b      	ldr	r3, [r7, #4]
 8002418:	68db      	ldr	r3, [r3, #12]
 800241a:	2b01      	cmp	r3, #1
 800241c:	d001      	beq.n	8002422 <HAL_RCC_OscConfig+0x152>
      {
        return HAL_ERROR;
 800241e:	2301      	movs	r3, #1
 8002420:	e1c4      	b.n	80027ac <HAL_RCC_OscConfig+0x4dc>
      }
      /* Otherwise, just the calibration is allowed */
      else
      {
        /* Adjusts the Internal High Speed oscillator (HSI) calibration value.*/
        __HAL_RCC_HSI_CALIBRATIONVALUE_ADJUST(RCC_OscInitStruct->HSICalibrationValue);
 8002422:	4b56      	ldr	r3, [pc, #344]	; (800257c <HAL_RCC_OscConfig+0x2ac>)
 8002424:	681b      	ldr	r3, [r3, #0]
 8002426:	f023 02f8 	bic.w	r2, r3, #248	; 0xf8
 800242a:	687b      	ldr	r3, [r7, #4]
 800242c:	691b      	ldr	r3, [r3, #16]
 800242e:	00db      	lsls	r3, r3, #3
 8002430:	4952      	ldr	r1, [pc, #328]	; (800257c <HAL_RCC_OscConfig+0x2ac>)
 8002432:	4313      	orrs	r3, r2
 8002434:	600b      	str	r3, [r1, #0]
      if((__HAL_RCC_GET_FLAG(RCC_FLAG_HSIRDY) != RESET) && (RCC_OscInitStruct->HSIState != RCC_HSI_ON))
 8002436:	e03a      	b.n	80024ae <HAL_RCC_OscConfig+0x1de>
      }
    }
    else
    {
      /* Check the HSI State */
      if((RCC_OscInitStruct->HSIState)!= RCC_HSI_OFF)
 8002438:	687b      	ldr	r3, [r7, #4]
 800243a:	68db      	ldr	r3, [r3, #12]
 800243c:	2b00      	cmp	r3, #0
 800243e:	d020      	beq.n	8002482 <HAL_RCC_OscConfig+0x1b2>
      {
        /* Enable the Internal High Speed oscillator (HSI). */
        __HAL_RCC_HSI_ENABLE();
 8002440:	4b4f      	ldr	r3, [pc, #316]	; (8002580 <HAL_RCC_OscConfig+0x2b0>)
 8002442:	2201      	movs	r2, #1
 8002444:	601a      	str	r2, [r3, #0]

        /* Get Start Tick*/
        tickstart = HAL_GetTick();
 8002446:	f7ff f86d 	bl	8001524 <HAL_GetTick>
 800244a:	6138      	str	r0, [r7, #16]

        /* Wait till HSI is ready */
        while(__HAL_RCC_GET_FLAG(RCC_FLAG_HSIRDY) == RESET)
 800244c:	e008      	b.n	8002460 <HAL_RCC_OscConfig+0x190>
        {
          if((HAL_GetTick() - tickstart ) > HSI_TIMEOUT_VALUE)
 800244e:	f7ff f869 	bl	8001524 <HAL_GetTick>
 8002452:	4602      	mov	r2, r0
 8002454:	693b      	ldr	r3, [r7, #16]
 8002456:	1ad3      	subs	r3, r2, r3
 8002458:	2b02      	cmp	r3, #2
 800245a:	d901      	bls.n	8002460 <HAL_RCC_OscConfig+0x190>
          {
            return HAL_TIMEOUT;
 800245c:	2303      	movs	r3, #3
 800245e:	e1a5      	b.n	80027ac <HAL_RCC_OscConfig+0x4dc>
        while(__HAL_RCC_GET_FLAG(RCC_FLAG_HSIRDY) == RESET)
 8002460:	4b46      	ldr	r3, [pc, #280]	; (800257c <HAL_RCC_OscConfig+0x2ac>)
 8002462:	681b      	ldr	r3, [r3, #0]
 8002464:	f003 0302 	and.w	r3, r3, #2
 8002468:	2b00      	cmp	r3, #0
 800246a:	d0f0      	beq.n	800244e <HAL_RCC_OscConfig+0x17e>
          }
        }

        /* Adjusts the Internal High Speed oscillator (HSI) calibration value. */
        __HAL_RCC_HSI_CALIBRATIONVALUE_ADJUST(RCC_OscInitStruct->HSICalibrationValue);
 800246c:	4b43      	ldr	r3, [pc, #268]	; (800257c <HAL_RCC_OscConfig+0x2ac>)
 800246e:	681b      	ldr	r3, [r3, #0]
 8002470:	f023 02f8 	bic.w	r2, r3, #248	; 0xf8
 8002474:	687b      	ldr	r3, [r7, #4]
 8002476:	691b      	ldr	r3, [r3, #16]
 8002478:	00db      	lsls	r3, r3, #3
 800247a:	4940      	ldr	r1, [pc, #256]	; (800257c <HAL_RCC_OscConfig+0x2ac>)
 800247c:	4313      	orrs	r3, r2
 800247e:	600b      	str	r3, [r1, #0]
 8002480:	e015      	b.n	80024ae <HAL_RCC_OscConfig+0x1de>
      }
      else
      {
        /* Disable the Internal High Speed oscillator (HSI). */
        __HAL_RCC_HSI_DISABLE();
 8002482:	4b3f      	ldr	r3, [pc, #252]	; (8002580 <HAL_RCC_OscConfig+0x2b0>)
 8002484:	2200      	movs	r2, #0
 8002486:	601a      	str	r2, [r3, #0]

        /* Get Start Tick*/
        tickstart = HAL_GetTick();
 8002488:	f7ff f84c 	bl	8001524 <HAL_GetTick>
 800248c:	6138      	str	r0, [r7, #16]

        /* Wait till HSI is ready */
        while(__HAL_RCC_GET_FLAG(RCC_FLAG_HSIRDY) != RESET)
 800248e:	e008      	b.n	80024a2 <HAL_RCC_OscConfig+0x1d2>
        {
          if((HAL_GetTick() - tickstart ) > HSI_TIMEOUT_VALUE)
 8002490:	f7ff f848 	bl	8001524 <HAL_GetTick>
 8002494:	4602      	mov	r2, r0
 8002496:	693b      	ldr	r3, [r7, #16]
 8002498:	1ad3      	subs	r3, r2, r3
 800249a:	2b02      	cmp	r3, #2
 800249c:	d901      	bls.n	80024a2 <HAL_RCC_OscConfig+0x1d2>
          {
            return HAL_TIMEOUT;
 800249e:	2303      	movs	r3, #3
 80024a0:	e184      	b.n	80027ac <HAL_RCC_OscConfig+0x4dc>
        while(__HAL_RCC_GET_FLAG(RCC_FLAG_HSIRDY) != RESET)
 80024a2:	4b36      	ldr	r3, [pc, #216]	; (800257c <HAL_RCC_OscConfig+0x2ac>)
 80024a4:	681b      	ldr	r3, [r3, #0]
 80024a6:	f003 0302 	and.w	r3, r3, #2
 80024aa:	2b00      	cmp	r3, #0
 80024ac:	d1f0      	bne.n	8002490 <HAL_RCC_OscConfig+0x1c0>
        }
      }
    }
  }
  /*------------------------------ LSI Configuration -------------------------*/
  if(((RCC_OscInitStruct->OscillatorType) & RCC_OSCILLATORTYPE_LSI) == RCC_OSCILLATORTYPE_LSI)
 80024ae:	687b      	ldr	r3, [r7, #4]
 80024b0:	681b      	ldr	r3, [r3, #0]
 80024b2:	f003 0308 	and.w	r3, r3, #8
 80024b6:	2b00      	cmp	r3, #0
 80024b8:	d030      	beq.n	800251c <HAL_RCC_OscConfig+0x24c>
  {
    /* Check the parameters */
    assert_param(IS_RCC_LSI(RCC_OscInitStruct->LSIState));

    /* Check the LSI State */
    if((RCC_OscInitStruct->LSIState)!= RCC_LSI_OFF)
 80024ba:	687b      	ldr	r3, [r7, #4]
 80024bc:	695b      	ldr	r3, [r3, #20]
 80024be:	2b00      	cmp	r3, #0
 80024c0:	d016      	beq.n	80024f0 <HAL_RCC_OscConfig+0x220>
    {
      /* Enable the Internal Low Speed oscillator (LSI). */
      __HAL_RCC_LSI_ENABLE();
 80024c2:	4b30      	ldr	r3, [pc, #192]	; (8002584 <HAL_RCC_OscConfig+0x2b4>)
 80024c4:	2201      	movs	r2, #1
 80024c6:	601a      	str	r2, [r3, #0]

      /* Get Start Tick*/
      tickstart = HAL_GetTick();
 80024c8:	f7ff f82c 	bl	8001524 <HAL_GetTick>
 80024cc:	6138      	str	r0, [r7, #16]

      /* Wait till LSI is ready */
      while(__HAL_RCC_GET_FLAG(RCC_FLAG_LSIRDY) == RESET)
 80024ce:	e008      	b.n	80024e2 <HAL_RCC_OscConfig+0x212>
      {
        if((HAL_GetTick() - tickstart ) > LSI_TIMEOUT_VALUE)
 80024d0:	f7ff f828 	bl	8001524 <HAL_GetTick>
 80024d4:	4602      	mov	r2, r0
 80024d6:	693b      	ldr	r3, [r7, #16]
 80024d8:	1ad3      	subs	r3, r2, r3
 80024da:	2b02      	cmp	r3, #2
 80024dc:	d901      	bls.n	80024e2 <HAL_RCC_OscConfig+0x212>
        {
          return HAL_TIMEOUT;
 80024de:	2303      	movs	r3, #3
 80024e0:	e164      	b.n	80027ac <HAL_RCC_OscConfig+0x4dc>
      while(__HAL_RCC_GET_FLAG(RCC_FLAG_LSIRDY) == RESET)
 80024e2:	4b26      	ldr	r3, [pc, #152]	; (800257c <HAL_RCC_OscConfig+0x2ac>)
 80024e4:	6f5b      	ldr	r3, [r3, #116]	; 0x74
 80024e6:	f003 0302 	and.w	r3, r3, #2
 80024ea:	2b00      	cmp	r3, #0
 80024ec:	d0f0      	beq.n	80024d0 <HAL_RCC_OscConfig+0x200>
 80024ee:	e015      	b.n	800251c <HAL_RCC_OscConfig+0x24c>
      }
    }
    else
    {
      /* Disable the Internal Low Speed oscillator (LSI). */
      __HAL_RCC_LSI_DISABLE();
 80024f0:	4b24      	ldr	r3, [pc, #144]	; (8002584 <HAL_RCC_OscConfig+0x2b4>)
 80024f2:	2200      	movs	r2, #0
 80024f4:	601a      	str	r2, [r3, #0]

      /* Get Start Tick */
      tickstart = HAL_GetTick();
 80024f6:	f7ff f815 	bl	8001524 <HAL_GetTick>
 80024fa:	6138      	str	r0, [r7, #16]

      /* Wait till LSI is ready */
      while(__HAL_RCC_GET_FLAG(RCC_FLAG_LSIRDY) != RESET)
 80024fc:	e008      	b.n	8002510 <HAL_RCC_OscConfig+0x240>
      {
        if((HAL_GetTick() - tickstart ) > LSI_TIMEOUT_VALUE)
 80024fe:	f7ff f811 	bl	8001524 <HAL_GetTick>
 8002502:	4602      	mov	r2, r0
 8002504:	693b      	ldr	r3, [r7, #16]
 8002506:	1ad3      	subs	r3, r2, r3
 8002508:	2b02      	cmp	r3, #2
 800250a:	d901      	bls.n	8002510 <HAL_RCC_OscConfig+0x240>
        {
          return HAL_TIMEOUT;
 800250c:	2303      	movs	r3, #3
 800250e:	e14d      	b.n	80027ac <HAL_RCC_OscConfig+0x4dc>
      while(__HAL_RCC_GET_FLAG(RCC_FLAG_LSIRDY) != RESET)
 8002510:	4b1a      	ldr	r3, [pc, #104]	; (800257c <HAL_RCC_OscConfig+0x2ac>)
 8002512:	6f5b      	ldr	r3, [r3, #116]	; 0x74
 8002514:	f003 0302 	and.w	r3, r3, #2
 8002518:	2b00      	cmp	r3, #0
 800251a:	d1f0      	bne.n	80024fe <HAL_RCC_OscConfig+0x22e>
        }
      }
    }
  }
  /*------------------------------ LSE Configuration -------------------------*/
  if(((RCC_OscInitStruct->OscillatorType) & RCC_OSCILLATORTYPE_LSE) == RCC_OSCILLATORTYPE_LSE)
 800251c:	687b      	ldr	r3, [r7, #4]
 800251e:	681b      	ldr	r3, [r3, #0]
 8002520:	f003 0304 	and.w	r3, r3, #4
 8002524:	2b00      	cmp	r3, #0
 8002526:	f000 80a0 	beq.w	800266a <HAL_RCC_OscConfig+0x39a>
  {
    FlagStatus       pwrclkchanged = RESET;
 800252a:	2300      	movs	r3, #0
 800252c:	75fb      	strb	r3, [r7, #23]
    /* Check the parameters */
    assert_param(IS_RCC_LSE(RCC_OscInitStruct->LSEState));

    /* Update LSE configuration in Backup Domain control register    */
    /* Requires to enable write access to Backup Domain of necessary */
    if(__HAL_RCC_PWR_IS_CLK_DISABLED())
 800252e:	4b13      	ldr	r3, [pc, #76]	; (800257c <HAL_RCC_OscConfig+0x2ac>)
 8002530:	6c1b      	ldr	r3, [r3, #64]	; 0x40
 8002532:	f003 5380 	and.w	r3, r3, #268435456	; 0x10000000
 8002536:	2b00      	cmp	r3, #0
 8002538:	d10f      	bne.n	800255a <HAL_RCC_OscConfig+0x28a>
    {
      __HAL_RCC_PWR_CLK_ENABLE();
 800253a:	2300      	movs	r3, #0
 800253c:	60bb      	str	r3, [r7, #8]
 800253e:	4b0f      	ldr	r3, [pc, #60]	; (800257c <HAL_RCC_OscConfig+0x2ac>)
 8002540:	6c1b      	ldr	r3, [r3, #64]	; 0x40
 8002542:	4a0e      	ldr	r2, [pc, #56]	; (800257c <HAL_RCC_OscConfig+0x2ac>)
 8002544:	f043 5380 	orr.w	r3, r3, #268435456	; 0x10000000
 8002548:	6413      	str	r3, [r2, #64]	; 0x40
 800254a:	4b0c      	ldr	r3, [pc, #48]	; (800257c <HAL_RCC_OscConfig+0x2ac>)
 800254c:	6c1b      	ldr	r3, [r3, #64]	; 0x40
 800254e:	f003 5380 	and.w	r3, r3, #268435456	; 0x10000000
 8002552:	60bb      	str	r3, [r7, #8]
 8002554:	68bb      	ldr	r3, [r7, #8]
      pwrclkchanged = SET;
 8002556:	2301      	movs	r3, #1
 8002558:	75fb      	strb	r3, [r7, #23]
    }

    if(HAL_IS_BIT_CLR(PWR->CR, PWR_CR_DBP))
 800255a:	4b0b      	ldr	r3, [pc, #44]	; (8002588 <HAL_RCC_OscConfig+0x2b8>)
 800255c:	681b      	ldr	r3, [r3, #0]
 800255e:	f403 7380 	and.w	r3, r3, #256	; 0x100
 8002562:	2b00      	cmp	r3, #0
 8002564:	d121      	bne.n	80025aa <HAL_RCC_OscConfig+0x2da>
    {
      /* Enable write access to Backup domain */
      SET_BIT(PWR->CR, PWR_CR_DBP);
 8002566:	4b08      	ldr	r3, [pc, #32]	; (8002588 <HAL_RCC_OscConfig+0x2b8>)
 8002568:	681b      	ldr	r3, [r3, #0]
 800256a:	4a07      	ldr	r2, [pc, #28]	; (8002588 <HAL_RCC_OscConfig+0x2b8>)
 800256c:	f443 7380 	orr.w	r3, r3, #256	; 0x100
 8002570:	6013      	str	r3, [r2, #0]

      /* Wait for Backup domain Write protection disable */
      tickstart = HAL_GetTick();
 8002572:	f7fe ffd7 	bl	8001524 <HAL_GetTick>
 8002576:	6138      	str	r0, [r7, #16]

      while(HAL_IS_BIT_CLR(PWR->CR, PWR_CR_DBP))
 8002578:	e011      	b.n	800259e <HAL_RCC_OscConfig+0x2ce>
 800257a:	bf00      	nop
 800257c:	40023800 	.word	0x40023800
 8002580:	42470000 	.word	0x42470000
 8002584:	42470e80 	.word	0x42470e80
 8002588:	40007000 	.word	0x40007000
      {
        if((HAL_GetTick() - tickstart) > RCC_DBP_TIMEOUT_VALUE)
 800258c:	f7fe ffca 	bl	8001524 <HAL_GetTick>
 8002590:	4602      	mov	r2, r0
 8002592:	693b      	ldr	r3, [r7, #16]
 8002594:	1ad3      	subs	r3, r2, r3
 8002596:	2b02      	cmp	r3, #2
 8002598:	d901      	bls.n	800259e <HAL_RCC_OscConfig+0x2ce>
        {
          return HAL_TIMEOUT;
 800259a:	2303      	movs	r3, #3
 800259c:	e106      	b.n	80027ac <HAL_RCC_OscConfig+0x4dc>
      while(HAL_IS_BIT_CLR(PWR->CR, PWR_CR_DBP))
 800259e:	4b85      	ldr	r3, [pc, #532]	; (80027b4 <HAL_RCC_OscConfig+0x4e4>)
 80025a0:	681b      	ldr	r3, [r3, #0]
 80025a2:	f403 7380 	and.w	r3, r3, #256	; 0x100
 80025a6:	2b00      	cmp	r3, #0
 80025a8:	d0f0      	beq.n	800258c <HAL_RCC_OscConfig+0x2bc>
        }
      }
    }

    /* Set the new LSE configuration -----------------------------------------*/
    __HAL_RCC_LSE_CONFIG(RCC_OscInitStruct->LSEState);
 80025aa:	687b      	ldr	r3, [r7, #4]
 80025ac:	689b      	ldr	r3, [r3, #8]
 80025ae:	2b01      	cmp	r3, #1
 80025b0:	d106      	bne.n	80025c0 <HAL_RCC_OscConfig+0x2f0>
 80025b2:	4b81      	ldr	r3, [pc, #516]	; (80027b8 <HAL_RCC_OscConfig+0x4e8>)
 80025b4:	6f1b      	ldr	r3, [r3, #112]	; 0x70
 80025b6:	4a80      	ldr	r2, [pc, #512]	; (80027b8 <HAL_RCC_OscConfig+0x4e8>)
 80025b8:	f043 0301 	orr.w	r3, r3, #1
 80025bc:	6713      	str	r3, [r2, #112]	; 0x70
 80025be:	e01c      	b.n	80025fa <HAL_RCC_OscConfig+0x32a>
 80025c0:	687b      	ldr	r3, [r7, #4]
 80025c2:	689b      	ldr	r3, [r3, #8]
 80025c4:	2b05      	cmp	r3, #5
 80025c6:	d10c      	bne.n	80025e2 <HAL_RCC_OscConfig+0x312>
 80025c8:	4b7b      	ldr	r3, [pc, #492]	; (80027b8 <HAL_RCC_OscConfig+0x4e8>)
 80025ca:	6f1b      	ldr	r3, [r3, #112]	; 0x70
 80025cc:	4a7a      	ldr	r2, [pc, #488]	; (80027b8 <HAL_RCC_OscConfig+0x4e8>)
 80025ce:	f043 0304 	orr.w	r3, r3, #4
 80025d2:	6713      	str	r3, [r2, #112]	; 0x70
 80025d4:	4b78      	ldr	r3, [pc, #480]	; (80027b8 <HAL_RCC_OscConfig+0x4e8>)
 80025d6:	6f1b      	ldr	r3, [r3, #112]	; 0x70
 80025d8:	4a77      	ldr	r2, [pc, #476]	; (80027b8 <HAL_RCC_OscConfig+0x4e8>)
 80025da:	f043 0301 	orr.w	r3, r3, #1
 80025de:	6713      	str	r3, [r2, #112]	; 0x70
 80025e0:	e00b      	b.n	80025fa <HAL_RCC_OscConfig+0x32a>
 80025e2:	4b75      	ldr	r3, [pc, #468]	; (80027b8 <HAL_RCC_OscConfig+0x4e8>)
 80025e4:	6f1b      	ldr	r3, [r3, #112]	; 0x70
 80025e6:	4a74      	ldr	r2, [pc, #464]	; (80027b8 <HAL_RCC_OscConfig+0x4e8>)
 80025e8:	f023 0301 	bic.w	r3, r3, #1
 80025ec:	6713      	str	r3, [r2, #112]	; 0x70
 80025ee:	4b72      	ldr	r3, [pc, #456]	; (80027b8 <HAL_RCC_OscConfig+0x4e8>)
 80025f0:	6f1b      	ldr	r3, [r3, #112]	; 0x70
 80025f2:	4a71      	ldr	r2, [pc, #452]	; (80027b8 <HAL_RCC_OscConfig+0x4e8>)
 80025f4:	f023 0304 	bic.w	r3, r3, #4
 80025f8:	6713      	str	r3, [r2, #112]	; 0x70
    /* Check the LSE State */
    if((RCC_OscInitStruct->LSEState) != RCC_LSE_OFF)
 80025fa:	687b      	ldr	r3, [r7, #4]
 80025fc:	689b      	ldr	r3, [r3, #8]
 80025fe:	2b00      	cmp	r3, #0
 8002600:	d015      	beq.n	800262e <HAL_RCC_OscConfig+0x35e>
    {
      /* Get Start Tick*/
      tickstart = HAL_GetTick();
 8002602:	f7fe ff8f 	bl	8001524 <HAL_GetTick>
 8002606:	6138      	str	r0, [r7, #16]

      /* Wait till LSE is ready */
      while(__HAL_RCC_GET_FLAG(RCC_FLAG_LSERDY) == RESET)
 8002608:	e00a      	b.n	8002620 <HAL_RCC_OscConfig+0x350>
      {
        if((HAL_GetTick() - tickstart ) > RCC_LSE_TIMEOUT_VALUE)
 800260a:	f7fe ff8b 	bl	8001524 <HAL_GetTick>
 800260e:	4602      	mov	r2, r0
 8002610:	693b      	ldr	r3, [r7, #16]
 8002612:	1ad3      	subs	r3, r2, r3
 8002614:	f241 3288 	movw	r2, #5000	; 0x1388
 8002618:	4293      	cmp	r3, r2
 800261a:	d901      	bls.n	8002620 <HAL_RCC_OscConfig+0x350>
        {
          return HAL_TIMEOUT;
 800261c:	2303      	movs	r3, #3
 800261e:	e0c5      	b.n	80027ac <HAL_RCC_OscConfig+0x4dc>
      while(__HAL_RCC_GET_FLAG(RCC_FLAG_LSERDY) == RESET)
 8002620:	4b65      	ldr	r3, [pc, #404]	; (80027b8 <HAL_RCC_OscConfig+0x4e8>)
 8002622:	6f1b      	ldr	r3, [r3, #112]	; 0x70
 8002624:	f003 0302 	and.w	r3, r3, #2
 8002628:	2b00      	cmp	r3, #0
 800262a:	d0ee      	beq.n	800260a <HAL_RCC_OscConfig+0x33a>
 800262c:	e014      	b.n	8002658 <HAL_RCC_OscConfig+0x388>
      }
    }
    else
    {
      /* Get Start Tick */
      tickstart = HAL_GetTick();
 800262e:	f7fe ff79 	bl	8001524 <HAL_GetTick>
 8002632:	6138      	str	r0, [r7, #16]

      /* Wait till LSE is ready */
      while(__HAL_RCC_GET_FLAG(RCC_FLAG_LSERDY) != RESET)
 8002634:	e00a      	b.n	800264c <HAL_RCC_OscConfig+0x37c>
      {
        if((HAL_GetTick() - tickstart ) > RCC_LSE_TIMEOUT_VALUE)
 8002636:	f7fe ff75 	bl	8001524 <HAL_GetTick>
 800263a:	4602      	mov	r2, r0
 800263c:	693b      	ldr	r3, [r7, #16]
 800263e:	1ad3      	subs	r3, r2, r3
 8002640:	f241 3288 	movw	r2, #5000	; 0x1388
 8002644:	4293      	cmp	r3, r2
 8002646:	d901      	bls.n	800264c <HAL_RCC_OscConfig+0x37c>
        {
          return HAL_TIMEOUT;
 8002648:	2303      	movs	r3, #3
 800264a:	e0af      	b.n	80027ac <HAL_RCC_OscConfig+0x4dc>
      while(__HAL_RCC_GET_FLAG(RCC_FLAG_LSERDY) != RESET)
 800264c:	4b5a      	ldr	r3, [pc, #360]	; (80027b8 <HAL_RCC_OscConfig+0x4e8>)
 800264e:	6f1b      	ldr	r3, [r3, #112]	; 0x70
 8002650:	f003 0302 	and.w	r3, r3, #2
 8002654:	2b00      	cmp	r3, #0
 8002656:	d1ee      	bne.n	8002636 <HAL_RCC_OscConfig+0x366>
        }
      }
    }

    /* Restore clock configuration if changed */
    if(pwrclkchanged == SET)
 8002658:	7dfb      	ldrb	r3, [r7, #23]
 800265a:	2b01      	cmp	r3, #1
 800265c:	d105      	bne.n	800266a <HAL_RCC_OscConfig+0x39a>
    {
      __HAL_RCC_PWR_CLK_DISABLE();
 800265e:	4b56      	ldr	r3, [pc, #344]	; (80027b8 <HAL_RCC_OscConfig+0x4e8>)
 8002660:	6c1b      	ldr	r3, [r3, #64]	; 0x40
 8002662:	4a55      	ldr	r2, [pc, #340]	; (80027b8 <HAL_RCC_OscConfig+0x4e8>)
 8002664:	f023 5380 	bic.w	r3, r3, #268435456	; 0x10000000
 8002668:	6413      	str	r3, [r2, #64]	; 0x40
    }
  }
  /*-------------------------------- PLL Configuration -----------------------*/
  /* Check the parameters */
  assert_param(IS_RCC_PLL(RCC_OscInitStruct->PLL.PLLState));
  if ((RCC_OscInitStruct->PLL.PLLState) != RCC_PLL_NONE)
 800266a:	687b      	ldr	r3, [r7, #4]
 800266c:	699b      	ldr	r3, [r3, #24]
 800266e:	2b00      	cmp	r3, #0
 8002670:	f000 809b 	beq.w	80027aa <HAL_RCC_OscConfig+0x4da>
  {
    /* Check if the PLL is used as system clock or not */
    if(__HAL_RCC_GET_SYSCLK_SOURCE() != RCC_CFGR_SWS_PLL)
 8002674:	4b50      	ldr	r3, [pc, #320]	; (80027b8 <HAL_RCC_OscConfig+0x4e8>)
 8002676:	689b      	ldr	r3, [r3, #8]
 8002678:	f003 030c 	and.w	r3, r3, #12
 800267c:	2b08      	cmp	r3, #8
 800267e:	d05c      	beq.n	800273a <HAL_RCC_OscConfig+0x46a>
    {
      if((RCC_OscInitStruct->PLL.PLLState) == RCC_PLL_ON)
 8002680:	687b      	ldr	r3, [r7, #4]
 8002682:	699b      	ldr	r3, [r3, #24]
 8002684:	2b02      	cmp	r3, #2
 8002686:	d141      	bne.n	800270c <HAL_RCC_OscConfig+0x43c>
        assert_param(IS_RCC_PLLN_VALUE(RCC_OscInitStruct->PLL.PLLN));
        assert_param(IS_RCC_PLLP_VALUE(RCC_OscInitStruct->PLL.PLLP));
        assert_param(IS_RCC_PLLQ_VALUE(RCC_OscInitStruct->PLL.PLLQ));

        /* Disable the main PLL. */
        __HAL_RCC_PLL_DISABLE();
 8002688:	4b4c      	ldr	r3, [pc, #304]	; (80027bc <HAL_RCC_OscConfig+0x4ec>)
 800268a:	2200      	movs	r2, #0
 800268c:	601a      	str	r2, [r3, #0]

        /* Get Start Tick */
        tickstart = HAL_GetTick();
 800268e:	f7fe ff49 	bl	8001524 <HAL_GetTick>
 8002692:	6138      	str	r0, [r7, #16]

        /* Wait till PLL is ready */
        while(__HAL_RCC_GET_FLAG(RCC_FLAG_PLLRDY) != RESET)
 8002694:	e008      	b.n	80026a8 <HAL_RCC_OscConfig+0x3d8>
        {
          if((HAL_GetTick() - tickstart ) > PLL_TIMEOUT_VALUE)
 8002696:	f7fe ff45 	bl	8001524 <HAL_GetTick>
 800269a:	4602      	mov	r2, r0
 800269c:	693b      	ldr	r3, [r7, #16]
 800269e:	1ad3      	subs	r3, r2, r3
 80026a0:	2b02      	cmp	r3, #2
 80026a2:	d901      	bls.n	80026a8 <HAL_RCC_OscConfig+0x3d8>
          {
            return HAL_TIMEOUT;
 80026a4:	2303      	movs	r3, #3
 80026a6:	e081      	b.n	80027ac <HAL_RCC_OscConfig+0x4dc>
        while(__HAL_RCC_GET_FLAG(RCC_FLAG_PLLRDY) != RESET)
 80026a8:	4b43      	ldr	r3, [pc, #268]	; (80027b8 <HAL_RCC_OscConfig+0x4e8>)
 80026aa:	681b      	ldr	r3, [r3, #0]
 80026ac:	f003 7300 	and.w	r3, r3, #33554432	; 0x2000000
 80026b0:	2b00      	cmp	r3, #0
 80026b2:	d1f0      	bne.n	8002696 <HAL_RCC_OscConfig+0x3c6>
          }
        }

        /* Configure the main PLL clock source, multiplication and division factors. */
        WRITE_REG(RCC->PLLCFGR, (RCC_OscInitStruct->PLL.PLLSource                                            | \
 80026b4:	687b      	ldr	r3, [r7, #4]
 80026b6:	69da      	ldr	r2, [r3, #28]
 80026b8:	687b      	ldr	r3, [r7, #4]
 80026ba:	6a1b      	ldr	r3, [r3, #32]
 80026bc:	431a      	orrs	r2, r3
 80026be:	687b      	ldr	r3, [r7, #4]
 80026c0:	6a5b      	ldr	r3, [r3, #36]	; 0x24
 80026c2:	019b      	lsls	r3, r3, #6
 80026c4:	431a      	orrs	r2, r3
 80026c6:	687b      	ldr	r3, [r7, #4]
 80026c8:	6a9b      	ldr	r3, [r3, #40]	; 0x28
 80026ca:	085b      	lsrs	r3, r3, #1
 80026cc:	3b01      	subs	r3, #1
 80026ce:	041b      	lsls	r3, r3, #16
 80026d0:	431a      	orrs	r2, r3
 80026d2:	687b      	ldr	r3, [r7, #4]
 80026d4:	6adb      	ldr	r3, [r3, #44]	; 0x2c
 80026d6:	061b      	lsls	r3, r3, #24
 80026d8:	4937      	ldr	r1, [pc, #220]	; (80027b8 <HAL_RCC_OscConfig+0x4e8>)
 80026da:	4313      	orrs	r3, r2
 80026dc:	604b      	str	r3, [r1, #4]
                                 RCC_OscInitStruct->PLL.PLLM                                                 | \
                                 (RCC_OscInitStruct->PLL.PLLN << RCC_PLLCFGR_PLLN_Pos)             | \
                                 (((RCC_OscInitStruct->PLL.PLLP >> 1U) - 1U) << RCC_PLLCFGR_PLLP_Pos) | \
                                 (RCC_OscInitStruct->PLL.PLLQ << RCC_PLLCFGR_PLLQ_Pos)));
        /* Enable the main PLL. */
        __HAL_RCC_PLL_ENABLE();
 80026de:	4b37      	ldr	r3, [pc, #220]	; (80027bc <HAL_RCC_OscConfig+0x4ec>)
 80026e0:	2201      	movs	r2, #1
 80026e2:	601a      	str	r2, [r3, #0]

        /* Get Start Tick */
        tickstart = HAL_GetTick();
 80026e4:	f7fe ff1e 	bl	8001524 <HAL_GetTick>
 80026e8:	6138      	str	r0, [r7, #16]

        /* Wait till PLL is ready */
        while(__HAL_RCC_GET_FLAG(RCC_FLAG_PLLRDY) == RESET)
 80026ea:	e008      	b.n	80026fe <HAL_RCC_OscConfig+0x42e>
        {
          if((HAL_GetTick() - tickstart ) > PLL_TIMEOUT_VALUE)
 80026ec:	f7fe ff1a 	bl	8001524 <HAL_GetTick>
 80026f0:	4602      	mov	r2, r0
 80026f2:	693b      	ldr	r3, [r7, #16]
 80026f4:	1ad3      	subs	r3, r2, r3
 80026f6:	2b02      	cmp	r3, #2
 80026f8:	d901      	bls.n	80026fe <HAL_RCC_OscConfig+0x42e>
          {
            return HAL_TIMEOUT;
 80026fa:	2303      	movs	r3, #3
 80026fc:	e056      	b.n	80027ac <HAL_RCC_OscConfig+0x4dc>
        while(__HAL_RCC_GET_FLAG(RCC_FLAG_PLLRDY) == RESET)
 80026fe:	4b2e      	ldr	r3, [pc, #184]	; (80027b8 <HAL_RCC_OscConfig+0x4e8>)
 8002700:	681b      	ldr	r3, [r3, #0]
 8002702:	f003 7300 	and.w	r3, r3, #33554432	; 0x2000000
 8002706:	2b00      	cmp	r3, #0
 8002708:	d0f0      	beq.n	80026ec <HAL_RCC_OscConfig+0x41c>
 800270a:	e04e      	b.n	80027aa <HAL_RCC_OscConfig+0x4da>
        }
      }
      else
      {
        /* Disable the main PLL. */
        __HAL_RCC_PLL_DISABLE();
 800270c:	4b2b      	ldr	r3, [pc, #172]	; (80027bc <HAL_RCC_OscConfig+0x4ec>)
 800270e:	2200      	movs	r2, #0
 8002710:	601a      	str	r2, [r3, #0]

        /* Get Start Tick */
        tickstart = HAL_GetTick();
 8002712:	f7fe ff07 	bl	8001524 <HAL_GetTick>
 8002716:	6138      	str	r0, [r7, #16]

        /* Wait till PLL is ready */
        while(__HAL_RCC_GET_FLAG(RCC_FLAG_PLLRDY) != RESET)
 8002718:	e008      	b.n	800272c <HAL_RCC_OscConfig+0x45c>
        {
          if((HAL_GetTick() - tickstart ) > PLL_TIMEOUT_VALUE)
 800271a:	f7fe ff03 	bl	8001524 <HAL_GetTick>
 800271e:	4602      	mov	r2, r0
 8002720:	693b      	ldr	r3, [r7, #16]
 8002722:	1ad3      	subs	r3, r2, r3
 8002724:	2b02      	cmp	r3, #2
 8002726:	d901      	bls.n	800272c <HAL_RCC_OscConfig+0x45c>
          {
            return HAL_TIMEOUT;
 8002728:	2303      	movs	r3, #3
 800272a:	e03f      	b.n	80027ac <HAL_RCC_OscConfig+0x4dc>
        while(__HAL_RCC_GET_FLAG(RCC_FLAG_PLLRDY) != RESET)
 800272c:	4b22      	ldr	r3, [pc, #136]	; (80027b8 <HAL_RCC_OscConfig+0x4e8>)
 800272e:	681b      	ldr	r3, [r3, #0]
 8002730:	f003 7300 	and.w	r3, r3, #33554432	; 0x2000000
 8002734:	2b00      	cmp	r3, #0
 8002736:	d1f0      	bne.n	800271a <HAL_RCC_OscConfig+0x44a>
 8002738:	e037      	b.n	80027aa <HAL_RCC_OscConfig+0x4da>
      }
    }
    else
    {
      /* Check if there is a request to disable the PLL used as System clock source */
      if((RCC_OscInitStruct->PLL.PLLState) == RCC_PLL_OFF)
 800273a:	687b      	ldr	r3, [r7, #4]
 800273c:	699b      	ldr	r3, [r3, #24]
 800273e:	2b01      	cmp	r3, #1
 8002740:	d101      	bne.n	8002746 <HAL_RCC_OscConfig+0x476>
      {
        return HAL_ERROR;
 8002742:	2301      	movs	r3, #1
 8002744:	e032      	b.n	80027ac <HAL_RCC_OscConfig+0x4dc>
      }
      else
      {
        /* Do not return HAL_ERROR if request repeats the current configuration */
        pll_config = RCC->PLLCFGR;
 8002746:	4b1c      	ldr	r3, [pc, #112]	; (80027b8 <HAL_RCC_OscConfig+0x4e8>)
 8002748:	685b      	ldr	r3, [r3, #4]
 800274a:	60fb      	str	r3, [r7, #12]
            (READ_BIT(pll_config, RCC_PLLCFGR_PLLN) != (RCC_OscInitStruct->PLL.PLLN) << RCC_PLLCFGR_PLLN_Pos) ||
            (READ_BIT(pll_config, RCC_PLLCFGR_PLLP) != (((RCC_OscInitStruct->PLL.PLLP >> 1U) - 1U)) << RCC_PLLCFGR_PLLP_Pos) ||
            (READ_BIT(pll_config, RCC_PLLCFGR_PLLQ) != (RCC_OscInitStruct->PLL.PLLQ << RCC_PLLCFGR_PLLQ_Pos)) ||
            (READ_BIT(pll_config, RCC_PLLCFGR_PLLR) != (RCC_OscInitStruct->PLL.PLLR << RCC_PLLCFGR_PLLR_Pos)))
#else
        if (((RCC_OscInitStruct->PLL.PLLState) == RCC_PLL_OFF) ||
 800274c:	687b      	ldr	r3, [r7, #4]
 800274e:	699b      	ldr	r3, [r3, #24]
 8002750:	2b01      	cmp	r3, #1
 8002752:	d028      	beq.n	80027a6 <HAL_RCC_OscConfig+0x4d6>
            (READ_BIT(pll_config, RCC_PLLCFGR_PLLSRC) != RCC_OscInitStruct->PLL.PLLSource) ||
 8002754:	68fb      	ldr	r3, [r7, #12]
 8002756:	f403 0280 	and.w	r2, r3, #4194304	; 0x400000
 800275a:	687b      	ldr	r3, [r7, #4]
 800275c:	69db      	ldr	r3, [r3, #28]
        if (((RCC_OscInitStruct->PLL.PLLState) == RCC_PLL_OFF) ||
 800275e:	429a      	cmp	r2, r3
 8002760:	d121      	bne.n	80027a6 <HAL_RCC_OscConfig+0x4d6>
            (READ_BIT(pll_config, RCC_PLLCFGR_PLLM) != (RCC_OscInitStruct->PLL.PLLM) << RCC_PLLCFGR_PLLM_Pos) ||
 8002762:	68fb      	ldr	r3, [r7, #12]
 8002764:	f003 023f 	and.w	r2, r3, #63	; 0x3f
 8002768:	687b      	ldr	r3, [r7, #4]
 800276a:	6a1b      	ldr	r3, [r3, #32]
            (READ_BIT(pll_config, RCC_PLLCFGR_PLLSRC) != RCC_OscInitStruct->PLL.PLLSource) ||
 800276c:	429a      	cmp	r2, r3
 800276e:	d11a      	bne.n	80027a6 <HAL_RCC_OscConfig+0x4d6>
            (READ_BIT(pll_config, RCC_PLLCFGR_PLLN) != (RCC_OscInitStruct->PLL.PLLN) << RCC_PLLCFGR_PLLN_Pos) ||
 8002770:	68fa      	ldr	r2, [r7, #12]
 8002772:	f647 73c0 	movw	r3, #32704	; 0x7fc0
 8002776:	4013      	ands	r3, r2
 8002778:	687a      	ldr	r2, [r7, #4]
 800277a:	6a52      	ldr	r2, [r2, #36]	; 0x24
 800277c:	0192      	lsls	r2, r2, #6
            (READ_BIT(pll_config, RCC_PLLCFGR_PLLM) != (RCC_OscInitStruct->PLL.PLLM) << RCC_PLLCFGR_PLLM_Pos) ||
 800277e:	4293      	cmp	r3, r2
 8002780:	d111      	bne.n	80027a6 <HAL_RCC_OscConfig+0x4d6>
            (READ_BIT(pll_config, RCC_PLLCFGR_PLLP) != (((RCC_OscInitStruct->PLL.PLLP >> 1U) - 1U)) << RCC_PLLCFGR_PLLP_Pos) ||
 8002782:	68fb      	ldr	r3, [r7, #12]
 8002784:	f403 3240 	and.w	r2, r3, #196608	; 0x30000
 8002788:	687b      	ldr	r3, [r7, #4]
 800278a:	6a9b      	ldr	r3, [r3, #40]	; 0x28
 800278c:	085b      	lsrs	r3, r3, #1
 800278e:	3b01      	subs	r3, #1
 8002790:	041b      	lsls	r3, r3, #16
            (READ_BIT(pll_config, RCC_PLLCFGR_PLLN) != (RCC_OscInitStruct->PLL.PLLN) << RCC_PLLCFGR_PLLN_Pos) ||
 8002792:	429a      	cmp	r2, r3
 8002794:	d107      	bne.n	80027a6 <HAL_RCC_OscConfig+0x4d6>
            (READ_BIT(pll_config, RCC_PLLCFGR_PLLQ) != (RCC_OscInitStruct->PLL.PLLQ << RCC_PLLCFGR_PLLQ_Pos)))
 8002796:	68fb      	ldr	r3, [r7, #12]
 8002798:	f003 6270 	and.w	r2, r3, #251658240	; 0xf000000
 800279c:	687b      	ldr	r3, [r7, #4]
 800279e:	6adb      	ldr	r3, [r3, #44]	; 0x2c
 80027a0:	061b      	lsls	r3, r3, #24
            (READ_BIT(pll_config, RCC_PLLCFGR_PLLP) != (((RCC_OscInitStruct->PLL.PLLP >> 1U) - 1U)) << RCC_PLLCFGR_PLLP_Pos) ||
 80027a2:	429a      	cmp	r2, r3
 80027a4:	d001      	beq.n	80027aa <HAL_RCC_OscConfig+0x4da>
#endif
        {
          return HAL_ERROR;
 80027a6:	2301      	movs	r3, #1
 80027a8:	e000      	b.n	80027ac <HAL_RCC_OscConfig+0x4dc>
        }
      }
    }
  }
  return HAL_OK;
 80027aa:	2300      	movs	r3, #0
}
 80027ac:	4618      	mov	r0, r3
 80027ae:	3718      	adds	r7, #24
 80027b0:	46bd      	mov	sp, r7
 80027b2:	bd80      	pop	{r7, pc}
 80027b4:	40007000 	.word	0x40007000
 80027b8:	40023800 	.word	0x40023800
 80027bc:	42470060 	.word	0x42470060

080027c0 <HAL_RCC_ClockConfig>:
  *         HPRE[3:0] bits to ensure that HCLK not exceed the maximum allowed frequency
  *         (for more details refer to section above "Initialization/de-initialization functions")
  * @retval None
  */
HAL_StatusTypeDef HAL_RCC_ClockConfig(RCC_ClkInitTypeDef  *RCC_ClkInitStruct, uint32_t FLatency)
{
 80027c0:	b580      	push	{r7, lr}
 80027c2:	b084      	sub	sp, #16
 80027c4:	af00      	add	r7, sp, #0
 80027c6:	6078      	str	r0, [r7, #4]
 80027c8:	6039      	str	r1, [r7, #0]
  uint32_t tickstart;

  /* Check Null pointer */
  if(RCC_ClkInitStruct == NULL)
 80027ca:	687b      	ldr	r3, [r7, #4]
 80027cc:	2b00      	cmp	r3, #0
 80027ce:	d101      	bne.n	80027d4 <HAL_RCC_ClockConfig+0x14>
  {
    return HAL_ERROR;
 80027d0:	2301      	movs	r3, #1
 80027d2:	e0cc      	b.n	800296e <HAL_RCC_ClockConfig+0x1ae>
  /* To correctly read data from FLASH memory, the number of wait states (LATENCY)
    must be correctly programmed according to the frequency of the CPU clock
    (HCLK) and the supply voltage of the device. */

  /* Increasing the number of wait states because of higher CPU frequency */
  if(FLatency > __HAL_FLASH_GET_LATENCY())
 80027d4:	4b68      	ldr	r3, [pc, #416]	; (8002978 <HAL_RCC_ClockConfig+0x1b8>)
 80027d6:	681b      	ldr	r3, [r3, #0]
 80027d8:	f003 0307 	and.w	r3, r3, #7
 80027dc:	683a      	ldr	r2, [r7, #0]
 80027de:	429a      	cmp	r2, r3
 80027e0:	d90c      	bls.n	80027fc <HAL_RCC_ClockConfig+0x3c>
  {
    /* Program the new number of wait states to the LATENCY bits in the FLASH_ACR register */
    __HAL_FLASH_SET_LATENCY(FLatency);
 80027e2:	4b65      	ldr	r3, [pc, #404]	; (8002978 <HAL_RCC_ClockConfig+0x1b8>)
 80027e4:	683a      	ldr	r2, [r7, #0]
 80027e6:	b2d2      	uxtb	r2, r2
 80027e8:	701a      	strb	r2, [r3, #0]

    /* Check that the new number of wait states is taken into account to access the Flash
    memory by reading the FLASH_ACR register */
    if(__HAL_FLASH_GET_LATENCY() != FLatency)
 80027ea:	4b63      	ldr	r3, [pc, #396]	; (8002978 <HAL_RCC_ClockConfig+0x1b8>)
 80027ec:	681b      	ldr	r3, [r3, #0]
 80027ee:	f003 0307 	and.w	r3, r3, #7
 80027f2:	683a      	ldr	r2, [r7, #0]
 80027f4:	429a      	cmp	r2, r3
 80027f6:	d001      	beq.n	80027fc <HAL_RCC_ClockConfig+0x3c>
    {
      return HAL_ERROR;
 80027f8:	2301      	movs	r3, #1
 80027fa:	e0b8      	b.n	800296e <HAL_RCC_ClockConfig+0x1ae>
    }
  }

  /*-------------------------- HCLK Configuration --------------------------*/
  if(((RCC_ClkInitStruct->ClockType) & RCC_CLOCKTYPE_HCLK) == RCC_CLOCKTYPE_HCLK)
 80027fc:	687b      	ldr	r3, [r7, #4]
 80027fe:	681b      	ldr	r3, [r3, #0]
 8002800:	f003 0302 	and.w	r3, r3, #2
 8002804:	2b00      	cmp	r3, #0
 8002806:	d020      	beq.n	800284a <HAL_RCC_ClockConfig+0x8a>
  {
    /* Set the highest APBx dividers in order to ensure that we do not go through
       a non-spec phase whatever we decrease or increase HCLK. */
    if(((RCC_ClkInitStruct->ClockType) & RCC_CLOCKTYPE_PCLK1) == RCC_CLOCKTYPE_PCLK1)
 8002808:	687b      	ldr	r3, [r7, #4]
 800280a:	681b      	ldr	r3, [r3, #0]
 800280c:	f003 0304 	and.w	r3, r3, #4
 8002810:	2b00      	cmp	r3, #0
 8002812:	d005      	beq.n	8002820 <HAL_RCC_ClockConfig+0x60>
    {
      MODIFY_REG(RCC->CFGR, RCC_CFGR_PPRE1, RCC_HCLK_DIV16);
 8002814:	4b59      	ldr	r3, [pc, #356]	; (800297c <HAL_RCC_ClockConfig+0x1bc>)
 8002816:	689b      	ldr	r3, [r3, #8]
 8002818:	4a58      	ldr	r2, [pc, #352]	; (800297c <HAL_RCC_ClockConfig+0x1bc>)
 800281a:	f443 53e0 	orr.w	r3, r3, #7168	; 0x1c00
 800281e:	6093      	str	r3, [r2, #8]
    }

    if(((RCC_ClkInitStruct->ClockType) & RCC_CLOCKTYPE_PCLK2) == RCC_CLOCKTYPE_PCLK2)
 8002820:	687b      	ldr	r3, [r7, #4]
 8002822:	681b      	ldr	r3, [r3, #0]
 8002824:	f003 0308 	and.w	r3, r3, #8
 8002828:	2b00      	cmp	r3, #0
 800282a:	d005      	beq.n	8002838 <HAL_RCC_ClockConfig+0x78>
    {
      MODIFY_REG(RCC->CFGR, RCC_CFGR_PPRE2, (RCC_HCLK_DIV16 << 3));
 800282c:	4b53      	ldr	r3, [pc, #332]	; (800297c <HAL_RCC_ClockConfig+0x1bc>)
 800282e:	689b      	ldr	r3, [r3, #8]
 8002830:	4a52      	ldr	r2, [pc, #328]	; (800297c <HAL_RCC_ClockConfig+0x1bc>)
 8002832:	f443 4360 	orr.w	r3, r3, #57344	; 0xe000
 8002836:	6093      	str	r3, [r2, #8]
    }

    assert_param(IS_RCC_HCLK(RCC_ClkInitStruct->AHBCLKDivider));
    MODIFY_REG(RCC->CFGR, RCC_CFGR_HPRE, RCC_ClkInitStruct->AHBCLKDivider);
 8002838:	4b50      	ldr	r3, [pc, #320]	; (800297c <HAL_RCC_ClockConfig+0x1bc>)
 800283a:	689b      	ldr	r3, [r3, #8]
 800283c:	f023 02f0 	bic.w	r2, r3, #240	; 0xf0
 8002840:	687b      	ldr	r3, [r7, #4]
 8002842:	689b      	ldr	r3, [r3, #8]
 8002844:	494d      	ldr	r1, [pc, #308]	; (800297c <HAL_RCC_ClockConfig+0x1bc>)
 8002846:	4313      	orrs	r3, r2
 8002848:	608b      	str	r3, [r1, #8]
  }

  /*------------------------- SYSCLK Configuration ---------------------------*/
  if(((RCC_ClkInitStruct->ClockType) & RCC_CLOCKTYPE_SYSCLK) == RCC_CLOCKTYPE_SYSCLK)
 800284a:	687b      	ldr	r3, [r7, #4]
 800284c:	681b      	ldr	r3, [r3, #0]
 800284e:	f003 0301 	and.w	r3, r3, #1
 8002852:	2b00      	cmp	r3, #0
 8002854:	d044      	beq.n	80028e0 <HAL_RCC_ClockConfig+0x120>
  {
    assert_param(IS_RCC_SYSCLKSOURCE(RCC_ClkInitStruct->SYSCLKSource));

    /* HSE is selected as System Clock Source */
    if(RCC_ClkInitStruct->SYSCLKSource == RCC_SYSCLKSOURCE_HSE)
 8002856:	687b      	ldr	r3, [r7, #4]
 8002858:	685b      	ldr	r3, [r3, #4]
 800285a:	2b01      	cmp	r3, #1
 800285c:	d107      	bne.n	800286e <HAL_RCC_ClockConfig+0xae>
    {
      /* Check the HSE ready flag */
      if(__HAL_RCC_GET_FLAG(RCC_FLAG_HSERDY) == RESET)
 800285e:	4b47      	ldr	r3, [pc, #284]	; (800297c <HAL_RCC_ClockConfig+0x1bc>)
 8002860:	681b      	ldr	r3, [r3, #0]
 8002862:	f403 3300 	and.w	r3, r3, #131072	; 0x20000
 8002866:	2b00      	cmp	r3, #0
 8002868:	d119      	bne.n	800289e <HAL_RCC_ClockConfig+0xde>
      {
        return HAL_ERROR;
 800286a:	2301      	movs	r3, #1
 800286c:	e07f      	b.n	800296e <HAL_RCC_ClockConfig+0x1ae>
      }
    }
    /* PLL is selected as System Clock Source */
    else if((RCC_ClkInitStruct->SYSCLKSource == RCC_SYSCLKSOURCE_PLLCLK)   ||
 800286e:	687b      	ldr	r3, [r7, #4]
 8002870:	685b      	ldr	r3, [r3, #4]
 8002872:	2b02      	cmp	r3, #2
 8002874:	d003      	beq.n	800287e <HAL_RCC_ClockConfig+0xbe>
            (RCC_ClkInitStruct->SYSCLKSource == RCC_SYSCLKSOURCE_PLLRCLK))
 8002876:	687b      	ldr	r3, [r7, #4]
 8002878:	685b      	ldr	r3, [r3, #4]
    else if((RCC_ClkInitStruct->SYSCLKSource == RCC_SYSCLKSOURCE_PLLCLK)   ||
 800287a:	2b03      	cmp	r3, #3
 800287c:	d107      	bne.n	800288e <HAL_RCC_ClockConfig+0xce>
    {
      /* Check the PLL ready flag */
      if(__HAL_RCC_GET_FLAG(RCC_FLAG_PLLRDY) == RESET)
 800287e:	4b3f      	ldr	r3, [pc, #252]	; (800297c <HAL_RCC_ClockConfig+0x1bc>)
 8002880:	681b      	ldr	r3, [r3, #0]
 8002882:	f003 7300 	and.w	r3, r3, #33554432	; 0x2000000
 8002886:	2b00      	cmp	r3, #0
 8002888:	d109      	bne.n	800289e <HAL_RCC_ClockConfig+0xde>
      {
        return HAL_ERROR;
 800288a:	2301      	movs	r3, #1
 800288c:	e06f      	b.n	800296e <HAL_RCC_ClockConfig+0x1ae>
    }
    /* HSI is selected as System Clock Source */
    else
    {
      /* Check the HSI ready flag */
      if(__HAL_RCC_GET_FLAG(RCC_FLAG_HSIRDY) == RESET)
 800288e:	4b3b      	ldr	r3, [pc, #236]	; (800297c <HAL_RCC_ClockConfig+0x1bc>)
 8002890:	681b      	ldr	r3, [r3, #0]
 8002892:	f003 0302 	and.w	r3, r3, #2
 8002896:	2b00      	cmp	r3, #0
 8002898:	d101      	bne.n	800289e <HAL_RCC_ClockConfig+0xde>
      {
        return HAL_ERROR;
 800289a:	2301      	movs	r3, #1
 800289c:	e067      	b.n	800296e <HAL_RCC_ClockConfig+0x1ae>
      }
    }

    __HAL_RCC_SYSCLK_CONFIG(RCC_ClkInitStruct->SYSCLKSource);
 800289e:	4b37      	ldr	r3, [pc, #220]	; (800297c <HAL_RCC_ClockConfig+0x1bc>)
 80028a0:	689b      	ldr	r3, [r3, #8]
 80028a2:	f023 0203 	bic.w	r2, r3, #3
 80028a6:	687b      	ldr	r3, [r7, #4]
 80028a8:	685b      	ldr	r3, [r3, #4]
 80028aa:	4934      	ldr	r1, [pc, #208]	; (800297c <HAL_RCC_ClockConfig+0x1bc>)
 80028ac:	4313      	orrs	r3, r2
 80028ae:	608b      	str	r3, [r1, #8]

    /* Get Start Tick */
    tickstart = HAL_GetTick();
 80028b0:	f7fe fe38 	bl	8001524 <HAL_GetTick>
 80028b4:	60f8      	str	r0, [r7, #12]

    while (__HAL_RCC_GET_SYSCLK_SOURCE() != (RCC_ClkInitStruct->SYSCLKSource << RCC_CFGR_SWS_Pos))
 80028b6:	e00a      	b.n	80028ce <HAL_RCC_ClockConfig+0x10e>
    {
      if ((HAL_GetTick() - tickstart) > CLOCKSWITCH_TIMEOUT_VALUE)
 80028b8:	f7fe fe34 	bl	8001524 <HAL_GetTick>
 80028bc:	4602      	mov	r2, r0
 80028be:	68fb      	ldr	r3, [r7, #12]
 80028c0:	1ad3      	subs	r3, r2, r3
 80028c2:	f241 3288 	movw	r2, #5000	; 0x1388
 80028c6:	4293      	cmp	r3, r2
 80028c8:	d901      	bls.n	80028ce <HAL_RCC_ClockConfig+0x10e>
      {
        return HAL_TIMEOUT;
 80028ca:	2303      	movs	r3, #3
 80028cc:	e04f      	b.n	800296e <HAL_RCC_ClockConfig+0x1ae>
    while (__HAL_RCC_GET_SYSCLK_SOURCE() != (RCC_ClkInitStruct->SYSCLKSource << RCC_CFGR_SWS_Pos))
 80028ce:	4b2b      	ldr	r3, [pc, #172]	; (800297c <HAL_RCC_ClockConfig+0x1bc>)
 80028d0:	689b      	ldr	r3, [r3, #8]
 80028d2:	f003 020c 	and.w	r2, r3, #12
 80028d6:	687b      	ldr	r3, [r7, #4]
 80028d8:	685b      	ldr	r3, [r3, #4]
 80028da:	009b      	lsls	r3, r3, #2
 80028dc:	429a      	cmp	r2, r3
 80028de:	d1eb      	bne.n	80028b8 <HAL_RCC_ClockConfig+0xf8>
      }
    }
  }

  /* Decreasing the number of wait states because of lower CPU frequency */
  if(FLatency < __HAL_FLASH_GET_LATENCY())
 80028e0:	4b25      	ldr	r3, [pc, #148]	; (8002978 <HAL_RCC_ClockConfig+0x1b8>)
 80028e2:	681b      	ldr	r3, [r3, #0]
 80028e4:	f003 0307 	and.w	r3, r3, #7
 80028e8:	683a      	ldr	r2, [r7, #0]
 80028ea:	429a      	cmp	r2, r3
 80028ec:	d20c      	bcs.n	8002908 <HAL_RCC_ClockConfig+0x148>
  {
     /* Program the new number of wait states to the LATENCY bits in the FLASH_ACR register */
    __HAL_FLASH_SET_LATENCY(FLatency);
 80028ee:	4b22      	ldr	r3, [pc, #136]	; (8002978 <HAL_RCC_ClockConfig+0x1b8>)
 80028f0:	683a      	ldr	r2, [r7, #0]
 80028f2:	b2d2      	uxtb	r2, r2
 80028f4:	701a      	strb	r2, [r3, #0]

    /* Check that the new number of wait states is taken into account to access the Flash
    memory by reading the FLASH_ACR register */
    if(__HAL_FLASH_GET_LATENCY() != FLatency)
 80028f6:	4b20      	ldr	r3, [pc, #128]	; (8002978 <HAL_RCC_ClockConfig+0x1b8>)
 80028f8:	681b      	ldr	r3, [r3, #0]
 80028fa:	f003 0307 	and.w	r3, r3, #7
 80028fe:	683a      	ldr	r2, [r7, #0]
 8002900:	429a      	cmp	r2, r3
 8002902:	d001      	beq.n	8002908 <HAL_RCC_ClockConfig+0x148>
    {
      return HAL_ERROR;
 8002904:	2301      	movs	r3, #1
 8002906:	e032      	b.n	800296e <HAL_RCC_ClockConfig+0x1ae>
    }
  }

  /*-------------------------- PCLK1 Configuration ---------------------------*/
  if(((RCC_ClkInitStruct->ClockType) & RCC_CLOCKTYPE_PCLK1) == RCC_CLOCKTYPE_PCLK1)
 8002908:	687b      	ldr	r3, [r7, #4]
 800290a:	681b      	ldr	r3, [r3, #0]
 800290c:	f003 0304 	and.w	r3, r3, #4
 8002910:	2b00      	cmp	r3, #0
 8002912:	d008      	beq.n	8002926 <HAL_RCC_ClockConfig+0x166>
  {
    assert_param(IS_RCC_PCLK(RCC_ClkInitStruct->APB1CLKDivider));
    MODIFY_REG(RCC->CFGR, RCC_CFGR_PPRE1, RCC_ClkInitStruct->APB1CLKDivider);
 8002914:	4b19      	ldr	r3, [pc, #100]	; (800297c <HAL_RCC_ClockConfig+0x1bc>)
 8002916:	689b      	ldr	r3, [r3, #8]
 8002918:	f423 52e0 	bic.w	r2, r3, #7168	; 0x1c00
 800291c:	687b      	ldr	r3, [r7, #4]
 800291e:	68db      	ldr	r3, [r3, #12]
 8002920:	4916      	ldr	r1, [pc, #88]	; (800297c <HAL_RCC_ClockConfig+0x1bc>)
 8002922:	4313      	orrs	r3, r2
 8002924:	608b      	str	r3, [r1, #8]
  }

  /*-------------------------- PCLK2 Configuration ---------------------------*/
  if(((RCC_ClkInitStruct->ClockType) & RCC_CLOCKTYPE_PCLK2) == RCC_CLOCKTYPE_PCLK2)
 8002926:	687b      	ldr	r3, [r7, #4]
 8002928:	681b      	ldr	r3, [r3, #0]
 800292a:	f003 0308 	and.w	r3, r3, #8
 800292e:	2b00      	cmp	r3, #0
 8002930:	d009      	beq.n	8002946 <HAL_RCC_ClockConfig+0x186>
  {
    assert_param(IS_RCC_PCLK(RCC_ClkInitStruct->APB2CLKDivider));
    MODIFY_REG(RCC->CFGR, RCC_CFGR_PPRE2, ((RCC_ClkInitStruct->APB2CLKDivider) << 3U));
 8002932:	4b12      	ldr	r3, [pc, #72]	; (800297c <HAL_RCC_ClockConfig+0x1bc>)
 8002934:	689b      	ldr	r3, [r3, #8]
 8002936:	f423 4260 	bic.w	r2, r3, #57344	; 0xe000
 800293a:	687b      	ldr	r3, [r7, #4]
 800293c:	691b      	ldr	r3, [r3, #16]
 800293e:	00db      	lsls	r3, r3, #3
 8002940:	490e      	ldr	r1, [pc, #56]	; (800297c <HAL_RCC_ClockConfig+0x1bc>)
 8002942:	4313      	orrs	r3, r2
 8002944:	608b      	str	r3, [r1, #8]
  }

  /* Update the SystemCoreClock global variable */
  SystemCoreClock = HAL_RCC_GetSysClockFreq() >> AHBPrescTable[(RCC->CFGR & RCC_CFGR_HPRE)>> RCC_CFGR_HPRE_Pos];
 8002946:	f000 f821 	bl	800298c <HAL_RCC_GetSysClockFreq>
 800294a:	4602      	mov	r2, r0
 800294c:	4b0b      	ldr	r3, [pc, #44]	; (800297c <HAL_RCC_ClockConfig+0x1bc>)
 800294e:	689b      	ldr	r3, [r3, #8]
 8002950:	091b      	lsrs	r3, r3, #4
 8002952:	f003 030f 	and.w	r3, r3, #15
 8002956:	490a      	ldr	r1, [pc, #40]	; (8002980 <HAL_RCC_ClockConfig+0x1c0>)
 8002958:	5ccb      	ldrb	r3, [r1, r3]
 800295a:	fa22 f303 	lsr.w	r3, r2, r3
 800295e:	4a09      	ldr	r2, [pc, #36]	; (8002984 <HAL_RCC_ClockConfig+0x1c4>)
 8002960:	6013      	str	r3, [r2, #0]

  /* Configure the source of time base considering new system clocks settings */
  HAL_InitTick (uwTickPrio);
 8002962:	4b09      	ldr	r3, [pc, #36]	; (8002988 <HAL_RCC_ClockConfig+0x1c8>)
 8002964:	681b      	ldr	r3, [r3, #0]
 8002966:	4618      	mov	r0, r3
 8002968:	f7fe fd98 	bl	800149c <HAL_InitTick>

  return HAL_OK;
 800296c:	2300      	movs	r3, #0
}
 800296e:	4618      	mov	r0, r3
 8002970:	3710      	adds	r7, #16
 8002972:	46bd      	mov	sp, r7
 8002974:	bd80      	pop	{r7, pc}
 8002976:	bf00      	nop
 8002978:	40023c00 	.word	0x40023c00
 800297c:	40023800 	.word	0x40023800
 8002980:	080062bc 	.word	0x080062bc
 8002984:	20000020 	.word	0x20000020
 8002988:	20000024 	.word	0x20000024

0800298c <HAL_RCC_GetSysClockFreq>:
  *
  *
  * @retval SYSCLK frequency
  */
__weak uint32_t HAL_RCC_GetSysClockFreq(void)
{
 800298c:	e92d 43b0 	stmdb	sp!, {r4, r5, r7, r8, r9, lr}
 8002990:	b084      	sub	sp, #16
 8002992:	af00      	add	r7, sp, #0
  uint32_t pllm = 0U, pllvco = 0U, pllp = 0U;
 8002994:	2300      	movs	r3, #0
 8002996:	607b      	str	r3, [r7, #4]
 8002998:	2300      	movs	r3, #0
 800299a:	60fb      	str	r3, [r7, #12]
 800299c:	2300      	movs	r3, #0
 800299e:	603b      	str	r3, [r7, #0]
  uint32_t sysclockfreq = 0U;
 80029a0:	2300      	movs	r3, #0
 80029a2:	60bb      	str	r3, [r7, #8]

  /* Get SYSCLK source -------------------------------------------------------*/
  switch (RCC->CFGR & RCC_CFGR_SWS)
 80029a4:	4b67      	ldr	r3, [pc, #412]	; (8002b44 <HAL_RCC_GetSysClockFreq+0x1b8>)
 80029a6:	689b      	ldr	r3, [r3, #8]
 80029a8:	f003 030c 	and.w	r3, r3, #12
 80029ac:	2b08      	cmp	r3, #8
 80029ae:	d00d      	beq.n	80029cc <HAL_RCC_GetSysClockFreq+0x40>
 80029b0:	2b08      	cmp	r3, #8
 80029b2:	f200 80bd 	bhi.w	8002b30 <HAL_RCC_GetSysClockFreq+0x1a4>
 80029b6:	2b00      	cmp	r3, #0
 80029b8:	d002      	beq.n	80029c0 <HAL_RCC_GetSysClockFreq+0x34>
 80029ba:	2b04      	cmp	r3, #4
 80029bc:	d003      	beq.n	80029c6 <HAL_RCC_GetSysClockFreq+0x3a>
 80029be:	e0b7      	b.n	8002b30 <HAL_RCC_GetSysClockFreq+0x1a4>
  {
    case RCC_CFGR_SWS_HSI:  /* HSI used as system clock source */
    {
      sysclockfreq = HSI_VALUE;
 80029c0:	4b61      	ldr	r3, [pc, #388]	; (8002b48 <HAL_RCC_GetSysClockFreq+0x1bc>)
 80029c2:	60bb      	str	r3, [r7, #8]
       break;
 80029c4:	e0b7      	b.n	8002b36 <HAL_RCC_GetSysClockFreq+0x1aa>
    }
    case RCC_CFGR_SWS_HSE:  /* HSE used as system clock  source */
    {
      sysclockfreq = HSE_VALUE;
 80029c6:	4b61      	ldr	r3, [pc, #388]	; (8002b4c <HAL_RCC_GetSysClockFreq+0x1c0>)
 80029c8:	60bb      	str	r3, [r7, #8]
      break;
 80029ca:	e0b4      	b.n	8002b36 <HAL_RCC_GetSysClockFreq+0x1aa>
    }
    case RCC_CFGR_SWS_PLL:  /* PLL used as system clock  source */
    {
      /* PLL_VCO = (HSE_VALUE or HSI_VALUE / PLLM) * PLLN
      SYSCLK = PLL_VCO / PLLP */
      pllm = RCC->PLLCFGR & RCC_PLLCFGR_PLLM;
 80029cc:	4b5d      	ldr	r3, [pc, #372]	; (8002b44 <HAL_RCC_GetSysClockFreq+0x1b8>)
 80029ce:	685b      	ldr	r3, [r3, #4]
 80029d0:	f003 033f 	and.w	r3, r3, #63	; 0x3f
 80029d4:	607b      	str	r3, [r7, #4]
      if(__HAL_RCC_GET_PLL_OSCSOURCE() != RCC_PLLSOURCE_HSI)
 80029d6:	4b5b      	ldr	r3, [pc, #364]	; (8002b44 <HAL_RCC_GetSysClockFreq+0x1b8>)
 80029d8:	685b      	ldr	r3, [r3, #4]
 80029da:	f403 0380 	and.w	r3, r3, #4194304	; 0x400000
 80029de:	2b00      	cmp	r3, #0
 80029e0:	d04d      	beq.n	8002a7e <HAL_RCC_GetSysClockFreq+0xf2>
      {
        /* HSE used as PLL clock source */
        pllvco = (uint32_t) ((((uint64_t) HSE_VALUE * ((uint64_t) ((RCC->PLLCFGR & RCC_PLLCFGR_PLLN) >> RCC_PLLCFGR_PLLN_Pos)))) / (uint64_t)pllm);
 80029e2:	4b58      	ldr	r3, [pc, #352]	; (8002b44 <HAL_RCC_GetSysClockFreq+0x1b8>)
 80029e4:	685b      	ldr	r3, [r3, #4]
 80029e6:	099b      	lsrs	r3, r3, #6
 80029e8:	461a      	mov	r2, r3
 80029ea:	f04f 0300 	mov.w	r3, #0
 80029ee:	f240 10ff 	movw	r0, #511	; 0x1ff
 80029f2:	f04f 0100 	mov.w	r1, #0
 80029f6:	ea02 0800 	and.w	r8, r2, r0
 80029fa:	ea03 0901 	and.w	r9, r3, r1
 80029fe:	4640      	mov	r0, r8
 8002a00:	4649      	mov	r1, r9
 8002a02:	f04f 0200 	mov.w	r2, #0
 8002a06:	f04f 0300 	mov.w	r3, #0
 8002a0a:	014b      	lsls	r3, r1, #5
 8002a0c:	ea43 63d0 	orr.w	r3, r3, r0, lsr #27
 8002a10:	0142      	lsls	r2, r0, #5
 8002a12:	4610      	mov	r0, r2
 8002a14:	4619      	mov	r1, r3
 8002a16:	ebb0 0008 	subs.w	r0, r0, r8
 8002a1a:	eb61 0109 	sbc.w	r1, r1, r9
 8002a1e:	f04f 0200 	mov.w	r2, #0
 8002a22:	f04f 0300 	mov.w	r3, #0
 8002a26:	018b      	lsls	r3, r1, #6
 8002a28:	ea43 6390 	orr.w	r3, r3, r0, lsr #26
 8002a2c:	0182      	lsls	r2, r0, #6
 8002a2e:	1a12      	subs	r2, r2, r0
 8002a30:	eb63 0301 	sbc.w	r3, r3, r1
 8002a34:	f04f 0000 	mov.w	r0, #0
 8002a38:	f04f 0100 	mov.w	r1, #0
 8002a3c:	00d9      	lsls	r1, r3, #3
 8002a3e:	ea41 7152 	orr.w	r1, r1, r2, lsr #29
 8002a42:	00d0      	lsls	r0, r2, #3
 8002a44:	4602      	mov	r2, r0
 8002a46:	460b      	mov	r3, r1
 8002a48:	eb12 0208 	adds.w	r2, r2, r8
 8002a4c:	eb43 0309 	adc.w	r3, r3, r9
 8002a50:	f04f 0000 	mov.w	r0, #0
 8002a54:	f04f 0100 	mov.w	r1, #0
 8002a58:	0259      	lsls	r1, r3, #9
 8002a5a:	ea41 51d2 	orr.w	r1, r1, r2, lsr #23
 8002a5e:	0250      	lsls	r0, r2, #9
 8002a60:	4602      	mov	r2, r0
 8002a62:	460b      	mov	r3, r1
 8002a64:	4610      	mov	r0, r2
 8002a66:	4619      	mov	r1, r3
 8002a68:	687b      	ldr	r3, [r7, #4]
 8002a6a:	461a      	mov	r2, r3
 8002a6c:	f04f 0300 	mov.w	r3, #0
 8002a70:	f7fd fc06 	bl	8000280 <__aeabi_uldivmod>
 8002a74:	4602      	mov	r2, r0
 8002a76:	460b      	mov	r3, r1
 8002a78:	4613      	mov	r3, r2
 8002a7a:	60fb      	str	r3, [r7, #12]
 8002a7c:	e04a      	b.n	8002b14 <HAL_RCC_GetSysClockFreq+0x188>
      }
      else
      {
        /* HSI used as PLL clock source */
        pllvco = (uint32_t) ((((uint64_t) HSI_VALUE * ((uint64_t) ((RCC->PLLCFGR & RCC_PLLCFGR_PLLN) >> RCC_PLLCFGR_PLLN_Pos)))) / (uint64_t)pllm);
 8002a7e:	4b31      	ldr	r3, [pc, #196]	; (8002b44 <HAL_RCC_GetSysClockFreq+0x1b8>)
 8002a80:	685b      	ldr	r3, [r3, #4]
 8002a82:	099b      	lsrs	r3, r3, #6
 8002a84:	461a      	mov	r2, r3
 8002a86:	f04f 0300 	mov.w	r3, #0
 8002a8a:	f240 10ff 	movw	r0, #511	; 0x1ff
 8002a8e:	f04f 0100 	mov.w	r1, #0
 8002a92:	ea02 0400 	and.w	r4, r2, r0
 8002a96:	ea03 0501 	and.w	r5, r3, r1
 8002a9a:	4620      	mov	r0, r4
 8002a9c:	4629      	mov	r1, r5
 8002a9e:	f04f 0200 	mov.w	r2, #0
 8002aa2:	f04f 0300 	mov.w	r3, #0
 8002aa6:	014b      	lsls	r3, r1, #5
 8002aa8:	ea43 63d0 	orr.w	r3, r3, r0, lsr #27
 8002aac:	0142      	lsls	r2, r0, #5
 8002aae:	4610      	mov	r0, r2
 8002ab0:	4619      	mov	r1, r3
 8002ab2:	1b00      	subs	r0, r0, r4
 8002ab4:	eb61 0105 	sbc.w	r1, r1, r5
 8002ab8:	f04f 0200 	mov.w	r2, #0
 8002abc:	f04f 0300 	mov.w	r3, #0
 8002ac0:	018b      	lsls	r3, r1, #6
 8002ac2:	ea43 6390 	orr.w	r3, r3, r0, lsr #26
 8002ac6:	0182      	lsls	r2, r0, #6
 8002ac8:	1a12      	subs	r2, r2, r0
 8002aca:	eb63 0301 	sbc.w	r3, r3, r1
 8002ace:	f04f 0000 	mov.w	r0, #0
 8002ad2:	f04f 0100 	mov.w	r1, #0
 8002ad6:	00d9      	lsls	r1, r3, #3
 8002ad8:	ea41 7152 	orr.w	r1, r1, r2, lsr #29
 8002adc:	00d0      	lsls	r0, r2, #3
 8002ade:	4602      	mov	r2, r0
 8002ae0:	460b      	mov	r3, r1
 8002ae2:	1912      	adds	r2, r2, r4
 8002ae4:	eb45 0303 	adc.w	r3, r5, r3
 8002ae8:	f04f 0000 	mov.w	r0, #0
 8002aec:	f04f 0100 	mov.w	r1, #0
 8002af0:	0299      	lsls	r1, r3, #10
 8002af2:	ea41 5192 	orr.w	r1, r1, r2, lsr #22
 8002af6:	0290      	lsls	r0, r2, #10
 8002af8:	4602      	mov	r2, r0
 8002afa:	460b      	mov	r3, r1
 8002afc:	4610      	mov	r0, r2
 8002afe:	4619      	mov	r1, r3
 8002b00:	687b      	ldr	r3, [r7, #4]
 8002b02:	461a      	mov	r2, r3
 8002b04:	f04f 0300 	mov.w	r3, #0
 8002b08:	f7fd fbba 	bl	8000280 <__aeabi_uldivmod>
 8002b0c:	4602      	mov	r2, r0
 8002b0e:	460b      	mov	r3, r1
 8002b10:	4613      	mov	r3, r2
 8002b12:	60fb      	str	r3, [r7, #12]
      }
      pllp = ((((RCC->PLLCFGR & RCC_PLLCFGR_PLLP) >> RCC_PLLCFGR_PLLP_Pos) + 1U) *2U);
 8002b14:	4b0b      	ldr	r3, [pc, #44]	; (8002b44 <HAL_RCC_GetSysClockFreq+0x1b8>)
 8002b16:	685b      	ldr	r3, [r3, #4]
 8002b18:	0c1b      	lsrs	r3, r3, #16
 8002b1a:	f003 0303 	and.w	r3, r3, #3
 8002b1e:	3301      	adds	r3, #1
 8002b20:	005b      	lsls	r3, r3, #1
 8002b22:	603b      	str	r3, [r7, #0]

      sysclockfreq = pllvco/pllp;
 8002b24:	68fa      	ldr	r2, [r7, #12]
 8002b26:	683b      	ldr	r3, [r7, #0]
 8002b28:	fbb2 f3f3 	udiv	r3, r2, r3
 8002b2c:	60bb      	str	r3, [r7, #8]
      break;
 8002b2e:	e002      	b.n	8002b36 <HAL_RCC_GetSysClockFreq+0x1aa>
    }
    default:
    {
      sysclockfreq = HSI_VALUE;
 8002b30:	4b05      	ldr	r3, [pc, #20]	; (8002b48 <HAL_RCC_GetSysClockFreq+0x1bc>)
 8002b32:	60bb      	str	r3, [r7, #8]
      break;
 8002b34:	bf00      	nop
    }
  }
  return sysclockfreq;
 8002b36:	68bb      	ldr	r3, [r7, #8]
}
 8002b38:	4618      	mov	r0, r3
 8002b3a:	3710      	adds	r7, #16
 8002b3c:	46bd      	mov	sp, r7
 8002b3e:	e8bd 83b0 	ldmia.w	sp!, {r4, r5, r7, r8, r9, pc}
 8002b42:	bf00      	nop
 8002b44:	40023800 	.word	0x40023800
 8002b48:	00f42400 	.word	0x00f42400
 8002b4c:	007a1200 	.word	0x007a1200

08002b50 <HAL_RCC_GetHCLKFreq>:
  * @note   The SystemCoreClock CMSIS variable is used to store System Clock Frequency
  *         and updated within this function
  * @retval HCLK frequency
  */
uint32_t HAL_RCC_GetHCLKFreq(void)
{
 8002b50:	b480      	push	{r7}
 8002b52:	af00      	add	r7, sp, #0
  return SystemCoreClock;
 8002b54:	4b03      	ldr	r3, [pc, #12]	; (8002b64 <HAL_RCC_GetHCLKFreq+0x14>)
 8002b56:	681b      	ldr	r3, [r3, #0]
}
 8002b58:	4618      	mov	r0, r3
 8002b5a:	46bd      	mov	sp, r7
 8002b5c:	f85d 7b04 	ldr.w	r7, [sp], #4
 8002b60:	4770      	bx	lr
 8002b62:	bf00      	nop
 8002b64:	20000020 	.word	0x20000020

08002b68 <HAL_RCC_GetPCLK1Freq>:
  * @note   Each time PCLK1 changes, this function must be called to update the
  *         right PCLK1 value. Otherwise, any configuration based on this function will be incorrect.
  * @retval PCLK1 frequency
  */
uint32_t HAL_RCC_GetPCLK1Freq(void)
{
 8002b68:	b580      	push	{r7, lr}
 8002b6a:	af00      	add	r7, sp, #0
  /* Get HCLK source and Compute PCLK1 frequency ---------------------------*/
  return (HAL_RCC_GetHCLKFreq() >> APBPrescTable[(RCC->CFGR & RCC_CFGR_PPRE1)>> RCC_CFGR_PPRE1_Pos]);
 8002b6c:	f7ff fff0 	bl	8002b50 <HAL_RCC_GetHCLKFreq>
 8002b70:	4602      	mov	r2, r0
 8002b72:	4b05      	ldr	r3, [pc, #20]	; (8002b88 <HAL_RCC_GetPCLK1Freq+0x20>)
 8002b74:	689b      	ldr	r3, [r3, #8]
 8002b76:	0a9b      	lsrs	r3, r3, #10
 8002b78:	f003 0307 	and.w	r3, r3, #7
 8002b7c:	4903      	ldr	r1, [pc, #12]	; (8002b8c <HAL_RCC_GetPCLK1Freq+0x24>)
 8002b7e:	5ccb      	ldrb	r3, [r1, r3]
 8002b80:	fa22 f303 	lsr.w	r3, r2, r3
}
 8002b84:	4618      	mov	r0, r3
 8002b86:	bd80      	pop	{r7, pc}
 8002b88:	40023800 	.word	0x40023800
 8002b8c:	080062cc 	.word	0x080062cc

08002b90 <HAL_RCC_GetPCLK2Freq>:
  * @note   Each time PCLK2 changes, this function must be called to update the
  *         right PCLK2 value. Otherwise, any configuration based on this function will be incorrect.
  * @retval PCLK2 frequency
  */
uint32_t HAL_RCC_GetPCLK2Freq(void)
{
 8002b90:	b580      	push	{r7, lr}
 8002b92:	af00      	add	r7, sp, #0
  /* Get HCLK source and Compute PCLK2 frequency ---------------------------*/
  return (HAL_RCC_GetHCLKFreq()>> APBPrescTable[(RCC->CFGR & RCC_CFGR_PPRE2)>> RCC_CFGR_PPRE2_Pos]);
 8002b94:	f7ff ffdc 	bl	8002b50 <HAL_RCC_GetHCLKFreq>
 8002b98:	4602      	mov	r2, r0
 8002b9a:	4b05      	ldr	r3, [pc, #20]	; (8002bb0 <HAL_RCC_GetPCLK2Freq+0x20>)
 8002b9c:	689b      	ldr	r3, [r3, #8]
 8002b9e:	0b5b      	lsrs	r3, r3, #13
 8002ba0:	f003 0307 	and.w	r3, r3, #7
 8002ba4:	4903      	ldr	r1, [pc, #12]	; (8002bb4 <HAL_RCC_GetPCLK2Freq+0x24>)
 8002ba6:	5ccb      	ldrb	r3, [r1, r3]
 8002ba8:	fa22 f303 	lsr.w	r3, r2, r3
}
 8002bac:	4618      	mov	r0, r3
 8002bae:	bd80      	pop	{r7, pc}
 8002bb0:	40023800 	.word	0x40023800
 8002bb4:	080062cc 	.word	0x080062cc

08002bb8 <HAL_TIM_Base_Init>:
  *         Ex: call @ref HAL_TIM_Base_DeInit() before HAL_TIM_Base_Init()
  * @param  htim TIM Base handle
  * @retval HAL status
  */
HAL_StatusTypeDef HAL_TIM_Base_Init(TIM_HandleTypeDef *htim)
{
 8002bb8:	b580      	push	{r7, lr}
 8002bba:	b082      	sub	sp, #8
 8002bbc:	af00      	add	r7, sp, #0
 8002bbe:	6078      	str	r0, [r7, #4]
  /* Check the TIM handle allocation */
  if (htim == NULL)
 8002bc0:	687b      	ldr	r3, [r7, #4]
 8002bc2:	2b00      	cmp	r3, #0
 8002bc4:	d101      	bne.n	8002bca <HAL_TIM_Base_Init+0x12>
  {
    return HAL_ERROR;
 8002bc6:	2301      	movs	r3, #1
 8002bc8:	e041      	b.n	8002c4e <HAL_TIM_Base_Init+0x96>
  assert_param(IS_TIM_INSTANCE(htim->Instance));
  assert_param(IS_TIM_COUNTER_MODE(htim->Init.CounterMode));
  assert_param(IS_TIM_CLOCKDIVISION_DIV(htim->Init.ClockDivision));
  assert_param(IS_TIM_AUTORELOAD_PRELOAD(htim->Init.AutoReloadPreload));

  if (htim->State == HAL_TIM_STATE_RESET)
 8002bca:	687b      	ldr	r3, [r7, #4]
 8002bcc:	f893 303d 	ldrb.w	r3, [r3, #61]	; 0x3d
 8002bd0:	b2db      	uxtb	r3, r3
 8002bd2:	2b00      	cmp	r3, #0
 8002bd4:	d106      	bne.n	8002be4 <HAL_TIM_Base_Init+0x2c>
  {
    /* Allocate lock resource and initialize it */
    htim->Lock = HAL_UNLOCKED;
 8002bd6:	687b      	ldr	r3, [r7, #4]
 8002bd8:	2200      	movs	r2, #0
 8002bda:	f883 203c 	strb.w	r2, [r3, #60]	; 0x3c
    }
    /* Init the low level hardware : GPIO, CLOCK, NVIC */
    htim->Base_MspInitCallback(htim);
#else
    /* Init the low level hardware : GPIO, CLOCK, NVIC */
    HAL_TIM_Base_MspInit(htim);
 8002bde:	6878      	ldr	r0, [r7, #4]
 8002be0:	f7fe f9c4 	bl	8000f6c <HAL_TIM_Base_MspInit>
#endif /* USE_HAL_TIM_REGISTER_CALLBACKS */
  }

  /* Set the TIM state */
  htim->State = HAL_TIM_STATE_BUSY;
 8002be4:	687b      	ldr	r3, [r7, #4]
 8002be6:	2202      	movs	r2, #2
 8002be8:	f883 203d 	strb.w	r2, [r3, #61]	; 0x3d

  /* Set the Time Base configuration */
  TIM_Base_SetConfig(htim->Instance, &htim->Init);
 8002bec:	687b      	ldr	r3, [r7, #4]
 8002bee:	681a      	ldr	r2, [r3, #0]
 8002bf0:	687b      	ldr	r3, [r7, #4]
 8002bf2:	3304      	adds	r3, #4
 8002bf4:	4619      	mov	r1, r3
 8002bf6:	4610      	mov	r0, r2
 8002bf8:	f000 fd78 	bl	80036ec <TIM_Base_SetConfig>

  /* Initialize the DMA burst operation state */
  htim->DMABurstState = HAL_DMA_BURST_STATE_READY;
 8002bfc:	687b      	ldr	r3, [r7, #4]
 8002bfe:	2201      	movs	r2, #1
 8002c00:	f883 2046 	strb.w	r2, [r3, #70]	; 0x46

  /* Initialize the TIM channels state */
  TIM_CHANNEL_STATE_SET_ALL(htim, HAL_TIM_CHANNEL_STATE_READY);
 8002c04:	687b      	ldr	r3, [r7, #4]
 8002c06:	2201      	movs	r2, #1
 8002c08:	f883 203e 	strb.w	r2, [r3, #62]	; 0x3e
 8002c0c:	687b      	ldr	r3, [r7, #4]
 8002c0e:	2201      	movs	r2, #1
 8002c10:	f883 203f 	strb.w	r2, [r3, #63]	; 0x3f
 8002c14:	687b      	ldr	r3, [r7, #4]
 8002c16:	2201      	movs	r2, #1
 8002c18:	f883 2040 	strb.w	r2, [r3, #64]	; 0x40
 8002c1c:	687b      	ldr	r3, [r7, #4]
 8002c1e:	2201      	movs	r2, #1
 8002c20:	f883 2041 	strb.w	r2, [r3, #65]	; 0x41
  TIM_CHANNEL_N_STATE_SET_ALL(htim, HAL_TIM_CHANNEL_STATE_READY);
 8002c24:	687b      	ldr	r3, [r7, #4]
 8002c26:	2201      	movs	r2, #1
 8002c28:	f883 2042 	strb.w	r2, [r3, #66]	; 0x42
 8002c2c:	687b      	ldr	r3, [r7, #4]
 8002c2e:	2201      	movs	r2, #1
 8002c30:	f883 2043 	strb.w	r2, [r3, #67]	; 0x43
 8002c34:	687b      	ldr	r3, [r7, #4]
 8002c36:	2201      	movs	r2, #1
 8002c38:	f883 2044 	strb.w	r2, [r3, #68]	; 0x44
 8002c3c:	687b      	ldr	r3, [r7, #4]
 8002c3e:	2201      	movs	r2, #1
 8002c40:	f883 2045 	strb.w	r2, [r3, #69]	; 0x45

  /* Initialize the TIM state*/
  htim->State = HAL_TIM_STATE_READY;
 8002c44:	687b      	ldr	r3, [r7, #4]
 8002c46:	2201      	movs	r2, #1
 8002c48:	f883 203d 	strb.w	r2, [r3, #61]	; 0x3d

  return HAL_OK;
 8002c4c:	2300      	movs	r3, #0
}
 8002c4e:	4618      	mov	r0, r3
 8002c50:	3708      	adds	r7, #8
 8002c52:	46bd      	mov	sp, r7
 8002c54:	bd80      	pop	{r7, pc}
	...

08002c58 <HAL_TIM_Base_Start>:
  * @brief  Starts the TIM Base generation.
  * @param  htim TIM Base handle
  * @retval HAL status
  */
HAL_StatusTypeDef HAL_TIM_Base_Start(TIM_HandleTypeDef *htim)
{
 8002c58:	b480      	push	{r7}
 8002c5a:	b085      	sub	sp, #20
 8002c5c:	af00      	add	r7, sp, #0
 8002c5e:	6078      	str	r0, [r7, #4]

  /* Check the parameters */
  assert_param(IS_TIM_INSTANCE(htim->Instance));

  /* Check the TIM state */
  if (htim->State != HAL_TIM_STATE_READY)
 8002c60:	687b      	ldr	r3, [r7, #4]
 8002c62:	f893 303d 	ldrb.w	r3, [r3, #61]	; 0x3d
 8002c66:	b2db      	uxtb	r3, r3
 8002c68:	2b01      	cmp	r3, #1
 8002c6a:	d001      	beq.n	8002c70 <HAL_TIM_Base_Start+0x18>
  {
    return HAL_ERROR;
 8002c6c:	2301      	movs	r3, #1
 8002c6e:	e046      	b.n	8002cfe <HAL_TIM_Base_Start+0xa6>
  }

  /* Set the TIM state */
  htim->State = HAL_TIM_STATE_BUSY;
 8002c70:	687b      	ldr	r3, [r7, #4]
 8002c72:	2202      	movs	r2, #2
 8002c74:	f883 203d 	strb.w	r2, [r3, #61]	; 0x3d

  /* Enable the Peripheral, except in trigger mode where enable is automatically done with trigger */
  if (IS_TIM_SLAVE_INSTANCE(htim->Instance))
 8002c78:	687b      	ldr	r3, [r7, #4]
 8002c7a:	681b      	ldr	r3, [r3, #0]
 8002c7c:	4a23      	ldr	r2, [pc, #140]	; (8002d0c <HAL_TIM_Base_Start+0xb4>)
 8002c7e:	4293      	cmp	r3, r2
 8002c80:	d022      	beq.n	8002cc8 <HAL_TIM_Base_Start+0x70>
 8002c82:	687b      	ldr	r3, [r7, #4]
 8002c84:	681b      	ldr	r3, [r3, #0]
 8002c86:	f1b3 4f80 	cmp.w	r3, #1073741824	; 0x40000000
 8002c8a:	d01d      	beq.n	8002cc8 <HAL_TIM_Base_Start+0x70>
 8002c8c:	687b      	ldr	r3, [r7, #4]
 8002c8e:	681b      	ldr	r3, [r3, #0]
 8002c90:	4a1f      	ldr	r2, [pc, #124]	; (8002d10 <HAL_TIM_Base_Start+0xb8>)
 8002c92:	4293      	cmp	r3, r2
 8002c94:	d018      	beq.n	8002cc8 <HAL_TIM_Base_Start+0x70>
 8002c96:	687b      	ldr	r3, [r7, #4]
 8002c98:	681b      	ldr	r3, [r3, #0]
 8002c9a:	4a1e      	ldr	r2, [pc, #120]	; (8002d14 <HAL_TIM_Base_Start+0xbc>)
 8002c9c:	4293      	cmp	r3, r2
 8002c9e:	d013      	beq.n	8002cc8 <HAL_TIM_Base_Start+0x70>
 8002ca0:	687b      	ldr	r3, [r7, #4]
 8002ca2:	681b      	ldr	r3, [r3, #0]
 8002ca4:	4a1c      	ldr	r2, [pc, #112]	; (8002d18 <HAL_TIM_Base_Start+0xc0>)
 8002ca6:	4293      	cmp	r3, r2
 8002ca8:	d00e      	beq.n	8002cc8 <HAL_TIM_Base_Start+0x70>
 8002caa:	687b      	ldr	r3, [r7, #4]
 8002cac:	681b      	ldr	r3, [r3, #0]
 8002cae:	4a1b      	ldr	r2, [pc, #108]	; (8002d1c <HAL_TIM_Base_Start+0xc4>)
 8002cb0:	4293      	cmp	r3, r2
 8002cb2:	d009      	beq.n	8002cc8 <HAL_TIM_Base_Start+0x70>
 8002cb4:	687b      	ldr	r3, [r7, #4]
 8002cb6:	681b      	ldr	r3, [r3, #0]
 8002cb8:	4a19      	ldr	r2, [pc, #100]	; (8002d20 <HAL_TIM_Base_Start+0xc8>)
 8002cba:	4293      	cmp	r3, r2
 8002cbc:	d004      	beq.n	8002cc8 <HAL_TIM_Base_Start+0x70>
 8002cbe:	687b      	ldr	r3, [r7, #4]
 8002cc0:	681b      	ldr	r3, [r3, #0]
 8002cc2:	4a18      	ldr	r2, [pc, #96]	; (8002d24 <HAL_TIM_Base_Start+0xcc>)
 8002cc4:	4293      	cmp	r3, r2
 8002cc6:	d111      	bne.n	8002cec <HAL_TIM_Base_Start+0x94>
  {
    tmpsmcr = htim->Instance->SMCR & TIM_SMCR_SMS;
 8002cc8:	687b      	ldr	r3, [r7, #4]
 8002cca:	681b      	ldr	r3, [r3, #0]
 8002ccc:	689b      	ldr	r3, [r3, #8]
 8002cce:	f003 0307 	and.w	r3, r3, #7
 8002cd2:	60fb      	str	r3, [r7, #12]
    if (!IS_TIM_SLAVEMODE_TRIGGER_ENABLED(tmpsmcr))
 8002cd4:	68fb      	ldr	r3, [r7, #12]
 8002cd6:	2b06      	cmp	r3, #6
 8002cd8:	d010      	beq.n	8002cfc <HAL_TIM_Base_Start+0xa4>
    {
      __HAL_TIM_ENABLE(htim);
 8002cda:	687b      	ldr	r3, [r7, #4]
 8002cdc:	681b      	ldr	r3, [r3, #0]
 8002cde:	681a      	ldr	r2, [r3, #0]
 8002ce0:	687b      	ldr	r3, [r7, #4]
 8002ce2:	681b      	ldr	r3, [r3, #0]
 8002ce4:	f042 0201 	orr.w	r2, r2, #1
 8002ce8:	601a      	str	r2, [r3, #0]
    if (!IS_TIM_SLAVEMODE_TRIGGER_ENABLED(tmpsmcr))
 8002cea:	e007      	b.n	8002cfc <HAL_TIM_Base_Start+0xa4>
    }
  }
  else
  {
    __HAL_TIM_ENABLE(htim);
 8002cec:	687b      	ldr	r3, [r7, #4]
 8002cee:	681b      	ldr	r3, [r3, #0]
 8002cf0:	681a      	ldr	r2, [r3, #0]
 8002cf2:	687b      	ldr	r3, [r7, #4]
 8002cf4:	681b      	ldr	r3, [r3, #0]
 8002cf6:	f042 0201 	orr.w	r2, r2, #1
 8002cfa:	601a      	str	r2, [r3, #0]
  }

  /* Return function status */
  return HAL_OK;
 8002cfc:	2300      	movs	r3, #0
}
 8002cfe:	4618      	mov	r0, r3
 8002d00:	3714      	adds	r7, #20
 8002d02:	46bd      	mov	sp, r7
 8002d04:	f85d 7b04 	ldr.w	r7, [sp], #4
 8002d08:	4770      	bx	lr
 8002d0a:	bf00      	nop
 8002d0c:	40010000 	.word	0x40010000
 8002d10:	40000400 	.word	0x40000400
 8002d14:	40000800 	.word	0x40000800
 8002d18:	40000c00 	.word	0x40000c00
 8002d1c:	40010400 	.word	0x40010400
 8002d20:	40014000 	.word	0x40014000
 8002d24:	40001800 	.word	0x40001800

08002d28 <HAL_TIM_PWM_Init>:
  *         Ex: call @ref HAL_TIM_PWM_DeInit() before HAL_TIM_PWM_Init()
  * @param  htim TIM PWM handle
  * @retval HAL status
  */
HAL_StatusTypeDef HAL_TIM_PWM_Init(TIM_HandleTypeDef *htim)
{
 8002d28:	b580      	push	{r7, lr}
 8002d2a:	b082      	sub	sp, #8
 8002d2c:	af00      	add	r7, sp, #0
 8002d2e:	6078      	str	r0, [r7, #4]
  /* Check the TIM handle allocation */
  if (htim == NULL)
 8002d30:	687b      	ldr	r3, [r7, #4]
 8002d32:	2b00      	cmp	r3, #0
 8002d34:	d101      	bne.n	8002d3a <HAL_TIM_PWM_Init+0x12>
  {
    return HAL_ERROR;
 8002d36:	2301      	movs	r3, #1
 8002d38:	e041      	b.n	8002dbe <HAL_TIM_PWM_Init+0x96>
  assert_param(IS_TIM_INSTANCE(htim->Instance));
  assert_param(IS_TIM_COUNTER_MODE(htim->Init.CounterMode));
  assert_param(IS_TIM_CLOCKDIVISION_DIV(htim->Init.ClockDivision));
  assert_param(IS_TIM_AUTORELOAD_PRELOAD(htim->Init.AutoReloadPreload));

  if (htim->State == HAL_TIM_STATE_RESET)
 8002d3a:	687b      	ldr	r3, [r7, #4]
 8002d3c:	f893 303d 	ldrb.w	r3, [r3, #61]	; 0x3d
 8002d40:	b2db      	uxtb	r3, r3
 8002d42:	2b00      	cmp	r3, #0
 8002d44:	d106      	bne.n	8002d54 <HAL_TIM_PWM_Init+0x2c>
  {
    /* Allocate lock resource and initialize it */
    htim->Lock = HAL_UNLOCKED;
 8002d46:	687b      	ldr	r3, [r7, #4]
 8002d48:	2200      	movs	r2, #0
 8002d4a:	f883 203c 	strb.w	r2, [r3, #60]	; 0x3c
    }
    /* Init the low level hardware : GPIO, CLOCK, NVIC */
    htim->PWM_MspInitCallback(htim);
#else
    /* Init the low level hardware : GPIO, CLOCK, NVIC and DMA */
    HAL_TIM_PWM_MspInit(htim);
 8002d4e:	6878      	ldr	r0, [r7, #4]
 8002d50:	f7fe f95e 	bl	8001010 <HAL_TIM_PWM_MspInit>
#endif /* USE_HAL_TIM_REGISTER_CALLBACKS */
  }

  /* Set the TIM state */
  htim->State = HAL_TIM_STATE_BUSY;
 8002d54:	687b      	ldr	r3, [r7, #4]
 8002d56:	2202      	movs	r2, #2
 8002d58:	f883 203d 	strb.w	r2, [r3, #61]	; 0x3d

  /* Init the base time for the PWM */
  TIM_Base_SetConfig(htim->Instance, &htim->Init);
 8002d5c:	687b      	ldr	r3, [r7, #4]
 8002d5e:	681a      	ldr	r2, [r3, #0]
 8002d60:	687b      	ldr	r3, [r7, #4]
 8002d62:	3304      	adds	r3, #4
 8002d64:	4619      	mov	r1, r3
 8002d66:	4610      	mov	r0, r2
 8002d68:	f000 fcc0 	bl	80036ec <TIM_Base_SetConfig>

  /* Initialize the DMA burst operation state */
  htim->DMABurstState = HAL_DMA_BURST_STATE_READY;
 8002d6c:	687b      	ldr	r3, [r7, #4]
 8002d6e:	2201      	movs	r2, #1
 8002d70:	f883 2046 	strb.w	r2, [r3, #70]	; 0x46

  /* Initialize the TIM channels state */
  TIM_CHANNEL_STATE_SET_ALL(htim, HAL_TIM_CHANNEL_STATE_READY);
 8002d74:	687b      	ldr	r3, [r7, #4]
 8002d76:	2201      	movs	r2, #1
 8002d78:	f883 203e 	strb.w	r2, [r3, #62]	; 0x3e
 8002d7c:	687b      	ldr	r3, [r7, #4]
 8002d7e:	2201      	movs	r2, #1
 8002d80:	f883 203f 	strb.w	r2, [r3, #63]	; 0x3f
 8002d84:	687b      	ldr	r3, [r7, #4]
 8002d86:	2201      	movs	r2, #1
 8002d88:	f883 2040 	strb.w	r2, [r3, #64]	; 0x40
 8002d8c:	687b      	ldr	r3, [r7, #4]
 8002d8e:	2201      	movs	r2, #1
 8002d90:	f883 2041 	strb.w	r2, [r3, #65]	; 0x41
  TIM_CHANNEL_N_STATE_SET_ALL(htim, HAL_TIM_CHANNEL_STATE_READY);
 8002d94:	687b      	ldr	r3, [r7, #4]
 8002d96:	2201      	movs	r2, #1
 8002d98:	f883 2042 	strb.w	r2, [r3, #66]	; 0x42
 8002d9c:	687b      	ldr	r3, [r7, #4]
 8002d9e:	2201      	movs	r2, #1
 8002da0:	f883 2043 	strb.w	r2, [r3, #67]	; 0x43
 8002da4:	687b      	ldr	r3, [r7, #4]
 8002da6:	2201      	movs	r2, #1
 8002da8:	f883 2044 	strb.w	r2, [r3, #68]	; 0x44
 8002dac:	687b      	ldr	r3, [r7, #4]
 8002dae:	2201      	movs	r2, #1
 8002db0:	f883 2045 	strb.w	r2, [r3, #69]	; 0x45

  /* Initialize the TIM state*/
  htim->State = HAL_TIM_STATE_READY;
 8002db4:	687b      	ldr	r3, [r7, #4]
 8002db6:	2201      	movs	r2, #1
 8002db8:	f883 203d 	strb.w	r2, [r3, #61]	; 0x3d

  return HAL_OK;
 8002dbc:	2300      	movs	r3, #0
}
 8002dbe:	4618      	mov	r0, r3
 8002dc0:	3708      	adds	r7, #8
 8002dc2:	46bd      	mov	sp, r7
 8002dc4:	bd80      	pop	{r7, pc}
	...

08002dc8 <HAL_TIM_PWM_Start>:
  *            @arg TIM_CHANNEL_3: TIM Channel 3 selected
  *            @arg TIM_CHANNEL_4: TIM Channel 4 selected
  * @retval HAL status
  */
HAL_StatusTypeDef HAL_TIM_PWM_Start(TIM_HandleTypeDef *htim, uint32_t Channel)
{
 8002dc8:	b580      	push	{r7, lr}
 8002dca:	b084      	sub	sp, #16
 8002dcc:	af00      	add	r7, sp, #0
 8002dce:	6078      	str	r0, [r7, #4]
 8002dd0:	6039      	str	r1, [r7, #0]

  /* Check the parameters */
  assert_param(IS_TIM_CCX_INSTANCE(htim->Instance, Channel));

  /* Check the TIM channel state */
  if (TIM_CHANNEL_STATE_GET(htim, Channel) != HAL_TIM_CHANNEL_STATE_READY)
 8002dd2:	683b      	ldr	r3, [r7, #0]
 8002dd4:	2b00      	cmp	r3, #0
 8002dd6:	d109      	bne.n	8002dec <HAL_TIM_PWM_Start+0x24>
 8002dd8:	687b      	ldr	r3, [r7, #4]
 8002dda:	f893 303e 	ldrb.w	r3, [r3, #62]	; 0x3e
 8002dde:	b2db      	uxtb	r3, r3
 8002de0:	2b01      	cmp	r3, #1
 8002de2:	bf14      	ite	ne
 8002de4:	2301      	movne	r3, #1
 8002de6:	2300      	moveq	r3, #0
 8002de8:	b2db      	uxtb	r3, r3
 8002dea:	e022      	b.n	8002e32 <HAL_TIM_PWM_Start+0x6a>
 8002dec:	683b      	ldr	r3, [r7, #0]
 8002dee:	2b04      	cmp	r3, #4
 8002df0:	d109      	bne.n	8002e06 <HAL_TIM_PWM_Start+0x3e>
 8002df2:	687b      	ldr	r3, [r7, #4]
 8002df4:	f893 303f 	ldrb.w	r3, [r3, #63]	; 0x3f
 8002df8:	b2db      	uxtb	r3, r3
 8002dfa:	2b01      	cmp	r3, #1
 8002dfc:	bf14      	ite	ne
 8002dfe:	2301      	movne	r3, #1
 8002e00:	2300      	moveq	r3, #0
 8002e02:	b2db      	uxtb	r3, r3
 8002e04:	e015      	b.n	8002e32 <HAL_TIM_PWM_Start+0x6a>
 8002e06:	683b      	ldr	r3, [r7, #0]
 8002e08:	2b08      	cmp	r3, #8
 8002e0a:	d109      	bne.n	8002e20 <HAL_TIM_PWM_Start+0x58>
 8002e0c:	687b      	ldr	r3, [r7, #4]
 8002e0e:	f893 3040 	ldrb.w	r3, [r3, #64]	; 0x40
 8002e12:	b2db      	uxtb	r3, r3
 8002e14:	2b01      	cmp	r3, #1
 8002e16:	bf14      	ite	ne
 8002e18:	2301      	movne	r3, #1
 8002e1a:	2300      	moveq	r3, #0
 8002e1c:	b2db      	uxtb	r3, r3
 8002e1e:	e008      	b.n	8002e32 <HAL_TIM_PWM_Start+0x6a>
 8002e20:	687b      	ldr	r3, [r7, #4]
 8002e22:	f893 3041 	ldrb.w	r3, [r3, #65]	; 0x41
 8002e26:	b2db      	uxtb	r3, r3
 8002e28:	2b01      	cmp	r3, #1
 8002e2a:	bf14      	ite	ne
 8002e2c:	2301      	movne	r3, #1
 8002e2e:	2300      	moveq	r3, #0
 8002e30:	b2db      	uxtb	r3, r3
 8002e32:	2b00      	cmp	r3, #0
 8002e34:	d001      	beq.n	8002e3a <HAL_TIM_PWM_Start+0x72>
  {
    return HAL_ERROR;
 8002e36:	2301      	movs	r3, #1
 8002e38:	e07c      	b.n	8002f34 <HAL_TIM_PWM_Start+0x16c>
  }

  /* Set the TIM channel state */
  TIM_CHANNEL_STATE_SET(htim, Channel, HAL_TIM_CHANNEL_STATE_BUSY);
 8002e3a:	683b      	ldr	r3, [r7, #0]
 8002e3c:	2b00      	cmp	r3, #0
 8002e3e:	d104      	bne.n	8002e4a <HAL_TIM_PWM_Start+0x82>
 8002e40:	687b      	ldr	r3, [r7, #4]
 8002e42:	2202      	movs	r2, #2
 8002e44:	f883 203e 	strb.w	r2, [r3, #62]	; 0x3e
 8002e48:	e013      	b.n	8002e72 <HAL_TIM_PWM_Start+0xaa>
 8002e4a:	683b      	ldr	r3, [r7, #0]
 8002e4c:	2b04      	cmp	r3, #4
 8002e4e:	d104      	bne.n	8002e5a <HAL_TIM_PWM_Start+0x92>
 8002e50:	687b      	ldr	r3, [r7, #4]
 8002e52:	2202      	movs	r2, #2
 8002e54:	f883 203f 	strb.w	r2, [r3, #63]	; 0x3f
 8002e58:	e00b      	b.n	8002e72 <HAL_TIM_PWM_Start+0xaa>
 8002e5a:	683b      	ldr	r3, [r7, #0]
 8002e5c:	2b08      	cmp	r3, #8
 8002e5e:	d104      	bne.n	8002e6a <HAL_TIM_PWM_Start+0xa2>
 8002e60:	687b      	ldr	r3, [r7, #4]
 8002e62:	2202      	movs	r2, #2
 8002e64:	f883 2040 	strb.w	r2, [r3, #64]	; 0x40
 8002e68:	e003      	b.n	8002e72 <HAL_TIM_PWM_Start+0xaa>
 8002e6a:	687b      	ldr	r3, [r7, #4]
 8002e6c:	2202      	movs	r2, #2
 8002e6e:	f883 2041 	strb.w	r2, [r3, #65]	; 0x41

  /* Enable the Capture compare channel */
  TIM_CCxChannelCmd(htim->Instance, Channel, TIM_CCx_ENABLE);
 8002e72:	687b      	ldr	r3, [r7, #4]
 8002e74:	681b      	ldr	r3, [r3, #0]
 8002e76:	2201      	movs	r2, #1
 8002e78:	6839      	ldr	r1, [r7, #0]
 8002e7a:	4618      	mov	r0, r3
 8002e7c:	f000 ff20 	bl	8003cc0 <TIM_CCxChannelCmd>

  if (IS_TIM_BREAK_INSTANCE(htim->Instance) != RESET)
 8002e80:	687b      	ldr	r3, [r7, #4]
 8002e82:	681b      	ldr	r3, [r3, #0]
 8002e84:	4a2d      	ldr	r2, [pc, #180]	; (8002f3c <HAL_TIM_PWM_Start+0x174>)
 8002e86:	4293      	cmp	r3, r2
 8002e88:	d004      	beq.n	8002e94 <HAL_TIM_PWM_Start+0xcc>
 8002e8a:	687b      	ldr	r3, [r7, #4]
 8002e8c:	681b      	ldr	r3, [r3, #0]
 8002e8e:	4a2c      	ldr	r2, [pc, #176]	; (8002f40 <HAL_TIM_PWM_Start+0x178>)
 8002e90:	4293      	cmp	r3, r2
 8002e92:	d101      	bne.n	8002e98 <HAL_TIM_PWM_Start+0xd0>
 8002e94:	2301      	movs	r3, #1
 8002e96:	e000      	b.n	8002e9a <HAL_TIM_PWM_Start+0xd2>
 8002e98:	2300      	movs	r3, #0
 8002e9a:	2b00      	cmp	r3, #0
 8002e9c:	d007      	beq.n	8002eae <HAL_TIM_PWM_Start+0xe6>
  {
    /* Enable the main output */
    __HAL_TIM_MOE_ENABLE(htim);
 8002e9e:	687b      	ldr	r3, [r7, #4]
 8002ea0:	681b      	ldr	r3, [r3, #0]
 8002ea2:	6c5a      	ldr	r2, [r3, #68]	; 0x44
 8002ea4:	687b      	ldr	r3, [r7, #4]
 8002ea6:	681b      	ldr	r3, [r3, #0]
 8002ea8:	f442 4200 	orr.w	r2, r2, #32768	; 0x8000
 8002eac:	645a      	str	r2, [r3, #68]	; 0x44
  }

  /* Enable the Peripheral, except in trigger mode where enable is automatically done with trigger */
  if (IS_TIM_SLAVE_INSTANCE(htim->Instance))
 8002eae:	687b      	ldr	r3, [r7, #4]
 8002eb0:	681b      	ldr	r3, [r3, #0]
 8002eb2:	4a22      	ldr	r2, [pc, #136]	; (8002f3c <HAL_TIM_PWM_Start+0x174>)
 8002eb4:	4293      	cmp	r3, r2
 8002eb6:	d022      	beq.n	8002efe <HAL_TIM_PWM_Start+0x136>
 8002eb8:	687b      	ldr	r3, [r7, #4]
 8002eba:	681b      	ldr	r3, [r3, #0]
 8002ebc:	f1b3 4f80 	cmp.w	r3, #1073741824	; 0x40000000
 8002ec0:	d01d      	beq.n	8002efe <HAL_TIM_PWM_Start+0x136>
 8002ec2:	687b      	ldr	r3, [r7, #4]
 8002ec4:	681b      	ldr	r3, [r3, #0]
 8002ec6:	4a1f      	ldr	r2, [pc, #124]	; (8002f44 <HAL_TIM_PWM_Start+0x17c>)
 8002ec8:	4293      	cmp	r3, r2
 8002eca:	d018      	beq.n	8002efe <HAL_TIM_PWM_Start+0x136>
 8002ecc:	687b      	ldr	r3, [r7, #4]
 8002ece:	681b      	ldr	r3, [r3, #0]
 8002ed0:	4a1d      	ldr	r2, [pc, #116]	; (8002f48 <HAL_TIM_PWM_Start+0x180>)
 8002ed2:	4293      	cmp	r3, r2
 8002ed4:	d013      	beq.n	8002efe <HAL_TIM_PWM_Start+0x136>
 8002ed6:	687b      	ldr	r3, [r7, #4]
 8002ed8:	681b      	ldr	r3, [r3, #0]
 8002eda:	4a1c      	ldr	r2, [pc, #112]	; (8002f4c <HAL_TIM_PWM_Start+0x184>)
 8002edc:	4293      	cmp	r3, r2
 8002ede:	d00e      	beq.n	8002efe <HAL_TIM_PWM_Start+0x136>
 8002ee0:	687b      	ldr	r3, [r7, #4]
 8002ee2:	681b      	ldr	r3, [r3, #0]
 8002ee4:	4a16      	ldr	r2, [pc, #88]	; (8002f40 <HAL_TIM_PWM_Start+0x178>)
 8002ee6:	4293      	cmp	r3, r2
 8002ee8:	d009      	beq.n	8002efe <HAL_TIM_PWM_Start+0x136>
 8002eea:	687b      	ldr	r3, [r7, #4]
 8002eec:	681b      	ldr	r3, [r3, #0]
 8002eee:	4a18      	ldr	r2, [pc, #96]	; (8002f50 <HAL_TIM_PWM_Start+0x188>)
 8002ef0:	4293      	cmp	r3, r2
 8002ef2:	d004      	beq.n	8002efe <HAL_TIM_PWM_Start+0x136>
 8002ef4:	687b      	ldr	r3, [r7, #4]
 8002ef6:	681b      	ldr	r3, [r3, #0]
 8002ef8:	4a16      	ldr	r2, [pc, #88]	; (8002f54 <HAL_TIM_PWM_Start+0x18c>)
 8002efa:	4293      	cmp	r3, r2
 8002efc:	d111      	bne.n	8002f22 <HAL_TIM_PWM_Start+0x15a>
  {
    tmpsmcr = htim->Instance->SMCR & TIM_SMCR_SMS;
 8002efe:	687b      	ldr	r3, [r7, #4]
 8002f00:	681b      	ldr	r3, [r3, #0]
 8002f02:	689b      	ldr	r3, [r3, #8]
 8002f04:	f003 0307 	and.w	r3, r3, #7
 8002f08:	60fb      	str	r3, [r7, #12]
    if (!IS_TIM_SLAVEMODE_TRIGGER_ENABLED(tmpsmcr))
 8002f0a:	68fb      	ldr	r3, [r7, #12]
 8002f0c:	2b06      	cmp	r3, #6
 8002f0e:	d010      	beq.n	8002f32 <HAL_TIM_PWM_Start+0x16a>
    {
      __HAL_TIM_ENABLE(htim);
 8002f10:	687b      	ldr	r3, [r7, #4]
 8002f12:	681b      	ldr	r3, [r3, #0]
 8002f14:	681a      	ldr	r2, [r3, #0]
 8002f16:	687b      	ldr	r3, [r7, #4]
 8002f18:	681b      	ldr	r3, [r3, #0]
 8002f1a:	f042 0201 	orr.w	r2, r2, #1
 8002f1e:	601a      	str	r2, [r3, #0]
    if (!IS_TIM_SLAVEMODE_TRIGGER_ENABLED(tmpsmcr))
 8002f20:	e007      	b.n	8002f32 <HAL_TIM_PWM_Start+0x16a>
    }
  }
  else
  {
    __HAL_TIM_ENABLE(htim);
 8002f22:	687b      	ldr	r3, [r7, #4]
 8002f24:	681b      	ldr	r3, [r3, #0]
 8002f26:	681a      	ldr	r2, [r3, #0]
 8002f28:	687b      	ldr	r3, [r7, #4]
 8002f2a:	681b      	ldr	r3, [r3, #0]
 8002f2c:	f042 0201 	orr.w	r2, r2, #1
 8002f30:	601a      	str	r2, [r3, #0]
  }

  /* Return function status */
  return HAL_OK;
 8002f32:	2300      	movs	r3, #0
}
 8002f34:	4618      	mov	r0, r3
 8002f36:	3710      	adds	r7, #16
 8002f38:	46bd      	mov	sp, r7
 8002f3a:	bd80      	pop	{r7, pc}
 8002f3c:	40010000 	.word	0x40010000
 8002f40:	40010400 	.word	0x40010400
 8002f44:	40000400 	.word	0x40000400
 8002f48:	40000800 	.word	0x40000800
 8002f4c:	40000c00 	.word	0x40000c00
 8002f50:	40014000 	.word	0x40014000
 8002f54:	40001800 	.word	0x40001800

08002f58 <HAL_TIM_PWM_Start_IT>:
  *            @arg TIM_CHANNEL_3: TIM Channel 3 selected
  *            @arg TIM_CHANNEL_4: TIM Channel 4 selected
  * @retval HAL status
  */
HAL_StatusTypeDef HAL_TIM_PWM_Start_IT(TIM_HandleTypeDef *htim, uint32_t Channel)
{
 8002f58:	b580      	push	{r7, lr}
 8002f5a:	b084      	sub	sp, #16
 8002f5c:	af00      	add	r7, sp, #0
 8002f5e:	6078      	str	r0, [r7, #4]
 8002f60:	6039      	str	r1, [r7, #0]
  uint32_t tmpsmcr;
  /* Check the parameters */
  assert_param(IS_TIM_CCX_INSTANCE(htim->Instance, Channel));

  /* Check the TIM channel state */
  if (TIM_CHANNEL_STATE_GET(htim, Channel) != HAL_TIM_CHANNEL_STATE_READY)
 8002f62:	683b      	ldr	r3, [r7, #0]
 8002f64:	2b00      	cmp	r3, #0
 8002f66:	d109      	bne.n	8002f7c <HAL_TIM_PWM_Start_IT+0x24>
 8002f68:	687b      	ldr	r3, [r7, #4]
 8002f6a:	f893 303e 	ldrb.w	r3, [r3, #62]	; 0x3e
 8002f6e:	b2db      	uxtb	r3, r3
 8002f70:	2b01      	cmp	r3, #1
 8002f72:	bf14      	ite	ne
 8002f74:	2301      	movne	r3, #1
 8002f76:	2300      	moveq	r3, #0
 8002f78:	b2db      	uxtb	r3, r3
 8002f7a:	e022      	b.n	8002fc2 <HAL_TIM_PWM_Start_IT+0x6a>
 8002f7c:	683b      	ldr	r3, [r7, #0]
 8002f7e:	2b04      	cmp	r3, #4
 8002f80:	d109      	bne.n	8002f96 <HAL_TIM_PWM_Start_IT+0x3e>
 8002f82:	687b      	ldr	r3, [r7, #4]
 8002f84:	f893 303f 	ldrb.w	r3, [r3, #63]	; 0x3f
 8002f88:	b2db      	uxtb	r3, r3
 8002f8a:	2b01      	cmp	r3, #1
 8002f8c:	bf14      	ite	ne
 8002f8e:	2301      	movne	r3, #1
 8002f90:	2300      	moveq	r3, #0
 8002f92:	b2db      	uxtb	r3, r3
 8002f94:	e015      	b.n	8002fc2 <HAL_TIM_PWM_Start_IT+0x6a>
 8002f96:	683b      	ldr	r3, [r7, #0]
 8002f98:	2b08      	cmp	r3, #8
 8002f9a:	d109      	bne.n	8002fb0 <HAL_TIM_PWM_Start_IT+0x58>
 8002f9c:	687b      	ldr	r3, [r7, #4]
 8002f9e:	f893 3040 	ldrb.w	r3, [r3, #64]	; 0x40
 8002fa2:	b2db      	uxtb	r3, r3
 8002fa4:	2b01      	cmp	r3, #1
 8002fa6:	bf14      	ite	ne
 8002fa8:	2301      	movne	r3, #1
 8002faa:	2300      	moveq	r3, #0
 8002fac:	b2db      	uxtb	r3, r3
 8002fae:	e008      	b.n	8002fc2 <HAL_TIM_PWM_Start_IT+0x6a>
 8002fb0:	687b      	ldr	r3, [r7, #4]
 8002fb2:	f893 3041 	ldrb.w	r3, [r3, #65]	; 0x41
 8002fb6:	b2db      	uxtb	r3, r3
 8002fb8:	2b01      	cmp	r3, #1
 8002fba:	bf14      	ite	ne
 8002fbc:	2301      	movne	r3, #1
 8002fbe:	2300      	moveq	r3, #0
 8002fc0:	b2db      	uxtb	r3, r3
 8002fc2:	2b00      	cmp	r3, #0
 8002fc4:	d001      	beq.n	8002fca <HAL_TIM_PWM_Start_IT+0x72>
  {
    return HAL_ERROR;
 8002fc6:	2301      	movs	r3, #1
 8002fc8:	e0c2      	b.n	8003150 <HAL_TIM_PWM_Start_IT+0x1f8>
  }

  /* Set the TIM channel state */
  TIM_CHANNEL_STATE_SET(htim, Channel, HAL_TIM_CHANNEL_STATE_BUSY);
 8002fca:	683b      	ldr	r3, [r7, #0]
 8002fcc:	2b00      	cmp	r3, #0
 8002fce:	d104      	bne.n	8002fda <HAL_TIM_PWM_Start_IT+0x82>
 8002fd0:	687b      	ldr	r3, [r7, #4]
 8002fd2:	2202      	movs	r2, #2
 8002fd4:	f883 203e 	strb.w	r2, [r3, #62]	; 0x3e
 8002fd8:	e013      	b.n	8003002 <HAL_TIM_PWM_Start_IT+0xaa>
 8002fda:	683b      	ldr	r3, [r7, #0]
 8002fdc:	2b04      	cmp	r3, #4
 8002fde:	d104      	bne.n	8002fea <HAL_TIM_PWM_Start_IT+0x92>
 8002fe0:	687b      	ldr	r3, [r7, #4]
 8002fe2:	2202      	movs	r2, #2
 8002fe4:	f883 203f 	strb.w	r2, [r3, #63]	; 0x3f
 8002fe8:	e00b      	b.n	8003002 <HAL_TIM_PWM_Start_IT+0xaa>
 8002fea:	683b      	ldr	r3, [r7, #0]
 8002fec:	2b08      	cmp	r3, #8
 8002fee:	d104      	bne.n	8002ffa <HAL_TIM_PWM_Start_IT+0xa2>
 8002ff0:	687b      	ldr	r3, [r7, #4]
 8002ff2:	2202      	movs	r2, #2
 8002ff4:	f883 2040 	strb.w	r2, [r3, #64]	; 0x40
 8002ff8:	e003      	b.n	8003002 <HAL_TIM_PWM_Start_IT+0xaa>
 8002ffa:	687b      	ldr	r3, [r7, #4]
 8002ffc:	2202      	movs	r2, #2
 8002ffe:	f883 2041 	strb.w	r2, [r3, #65]	; 0x41
 8003002:	683b      	ldr	r3, [r7, #0]
 8003004:	2b0c      	cmp	r3, #12
 8003006:	d841      	bhi.n	800308c <HAL_TIM_PWM_Start_IT+0x134>
 8003008:	a201      	add	r2, pc, #4	; (adr r2, 8003010 <HAL_TIM_PWM_Start_IT+0xb8>)
 800300a:	f852 f023 	ldr.w	pc, [r2, r3, lsl #2]
 800300e:	bf00      	nop
 8003010:	08003045 	.word	0x08003045
 8003014:	0800308d 	.word	0x0800308d
 8003018:	0800308d 	.word	0x0800308d
 800301c:	0800308d 	.word	0x0800308d
 8003020:	08003057 	.word	0x08003057
 8003024:	0800308d 	.word	0x0800308d
 8003028:	0800308d 	.word	0x0800308d
 800302c:	0800308d 	.word	0x0800308d
 8003030:	08003069 	.word	0x08003069
 8003034:	0800308d 	.word	0x0800308d
 8003038:	0800308d 	.word	0x0800308d
 800303c:	0800308d 	.word	0x0800308d
 8003040:	0800307b 	.word	0x0800307b
  switch (Channel)
  {
    case TIM_CHANNEL_1:
    {
      /* Enable the TIM Capture/Compare 1 interrupt */
      __HAL_TIM_ENABLE_IT(htim, TIM_IT_CC1);
 8003044:	687b      	ldr	r3, [r7, #4]
 8003046:	681b      	ldr	r3, [r3, #0]
 8003048:	68da      	ldr	r2, [r3, #12]
 800304a:	687b      	ldr	r3, [r7, #4]
 800304c:	681b      	ldr	r3, [r3, #0]
 800304e:	f042 0202 	orr.w	r2, r2, #2
 8003052:	60da      	str	r2, [r3, #12]
      break;
 8003054:	e01b      	b.n	800308e <HAL_TIM_PWM_Start_IT+0x136>
    }

    case TIM_CHANNEL_2:
    {
      /* Enable the TIM Capture/Compare 2 interrupt */
      __HAL_TIM_ENABLE_IT(htim, TIM_IT_CC2);
 8003056:	687b      	ldr	r3, [r7, #4]
 8003058:	681b      	ldr	r3, [r3, #0]
 800305a:	68da      	ldr	r2, [r3, #12]
 800305c:	687b      	ldr	r3, [r7, #4]
 800305e:	681b      	ldr	r3, [r3, #0]
 8003060:	f042 0204 	orr.w	r2, r2, #4
 8003064:	60da      	str	r2, [r3, #12]
      break;
 8003066:	e012      	b.n	800308e <HAL_TIM_PWM_Start_IT+0x136>
    }

    case TIM_CHANNEL_3:
    {
      /* Enable the TIM Capture/Compare 3 interrupt */
      __HAL_TIM_ENABLE_IT(htim, TIM_IT_CC3);
 8003068:	687b      	ldr	r3, [r7, #4]
 800306a:	681b      	ldr	r3, [r3, #0]
 800306c:	68da      	ldr	r2, [r3, #12]
 800306e:	687b      	ldr	r3, [r7, #4]
 8003070:	681b      	ldr	r3, [r3, #0]
 8003072:	f042 0208 	orr.w	r2, r2, #8
 8003076:	60da      	str	r2, [r3, #12]
      break;
 8003078:	e009      	b.n	800308e <HAL_TIM_PWM_Start_IT+0x136>
    }

    case TIM_CHANNEL_4:
    {
      /* Enable the TIM Capture/Compare 4 interrupt */
      __HAL_TIM_ENABLE_IT(htim, TIM_IT_CC4);
 800307a:	687b      	ldr	r3, [r7, #4]
 800307c:	681b      	ldr	r3, [r3, #0]
 800307e:	68da      	ldr	r2, [r3, #12]
 8003080:	687b      	ldr	r3, [r7, #4]
 8003082:	681b      	ldr	r3, [r3, #0]
 8003084:	f042 0210 	orr.w	r2, r2, #16
 8003088:	60da      	str	r2, [r3, #12]
      break;
 800308a:	e000      	b.n	800308e <HAL_TIM_PWM_Start_IT+0x136>
    }

    default:
      break;
 800308c:	bf00      	nop
  }

  /* Enable the Capture compare channel */
  TIM_CCxChannelCmd(htim->Instance, Channel, TIM_CCx_ENABLE);
 800308e:	687b      	ldr	r3, [r7, #4]
 8003090:	681b      	ldr	r3, [r3, #0]
 8003092:	2201      	movs	r2, #1
 8003094:	6839      	ldr	r1, [r7, #0]
 8003096:	4618      	mov	r0, r3
 8003098:	f000 fe12 	bl	8003cc0 <TIM_CCxChannelCmd>

  if (IS_TIM_BREAK_INSTANCE(htim->Instance) != RESET)
 800309c:	687b      	ldr	r3, [r7, #4]
 800309e:	681b      	ldr	r3, [r3, #0]
 80030a0:	4a2d      	ldr	r2, [pc, #180]	; (8003158 <HAL_TIM_PWM_Start_IT+0x200>)
 80030a2:	4293      	cmp	r3, r2
 80030a4:	d004      	beq.n	80030b0 <HAL_TIM_PWM_Start_IT+0x158>
 80030a6:	687b      	ldr	r3, [r7, #4]
 80030a8:	681b      	ldr	r3, [r3, #0]
 80030aa:	4a2c      	ldr	r2, [pc, #176]	; (800315c <HAL_TIM_PWM_Start_IT+0x204>)
 80030ac:	4293      	cmp	r3, r2
 80030ae:	d101      	bne.n	80030b4 <HAL_TIM_PWM_Start_IT+0x15c>
 80030b0:	2301      	movs	r3, #1
 80030b2:	e000      	b.n	80030b6 <HAL_TIM_PWM_Start_IT+0x15e>
 80030b4:	2300      	movs	r3, #0
 80030b6:	2b00      	cmp	r3, #0
 80030b8:	d007      	beq.n	80030ca <HAL_TIM_PWM_Start_IT+0x172>
  {
    /* Enable the main output */
    __HAL_TIM_MOE_ENABLE(htim);
 80030ba:	687b      	ldr	r3, [r7, #4]
 80030bc:	681b      	ldr	r3, [r3, #0]
 80030be:	6c5a      	ldr	r2, [r3, #68]	; 0x44
 80030c0:	687b      	ldr	r3, [r7, #4]
 80030c2:	681b      	ldr	r3, [r3, #0]
 80030c4:	f442 4200 	orr.w	r2, r2, #32768	; 0x8000
 80030c8:	645a      	str	r2, [r3, #68]	; 0x44
  }

  /* Enable the Peripheral, except in trigger mode where enable is automatically done with trigger */
  if (IS_TIM_SLAVE_INSTANCE(htim->Instance))
 80030ca:	687b      	ldr	r3, [r7, #4]
 80030cc:	681b      	ldr	r3, [r3, #0]
 80030ce:	4a22      	ldr	r2, [pc, #136]	; (8003158 <HAL_TIM_PWM_Start_IT+0x200>)
 80030d0:	4293      	cmp	r3, r2
 80030d2:	d022      	beq.n	800311a <HAL_TIM_PWM_Start_IT+0x1c2>
 80030d4:	687b      	ldr	r3, [r7, #4]
 80030d6:	681b      	ldr	r3, [r3, #0]
 80030d8:	f1b3 4f80 	cmp.w	r3, #1073741824	; 0x40000000
 80030dc:	d01d      	beq.n	800311a <HAL_TIM_PWM_Start_IT+0x1c2>
 80030de:	687b      	ldr	r3, [r7, #4]
 80030e0:	681b      	ldr	r3, [r3, #0]
 80030e2:	4a1f      	ldr	r2, [pc, #124]	; (8003160 <HAL_TIM_PWM_Start_IT+0x208>)
 80030e4:	4293      	cmp	r3, r2
 80030e6:	d018      	beq.n	800311a <HAL_TIM_PWM_Start_IT+0x1c2>
 80030e8:	687b      	ldr	r3, [r7, #4]
 80030ea:	681b      	ldr	r3, [r3, #0]
 80030ec:	4a1d      	ldr	r2, [pc, #116]	; (8003164 <HAL_TIM_PWM_Start_IT+0x20c>)
 80030ee:	4293      	cmp	r3, r2
 80030f0:	d013      	beq.n	800311a <HAL_TIM_PWM_Start_IT+0x1c2>
 80030f2:	687b      	ldr	r3, [r7, #4]
 80030f4:	681b      	ldr	r3, [r3, #0]
 80030f6:	4a1c      	ldr	r2, [pc, #112]	; (8003168 <HAL_TIM_PWM_Start_IT+0x210>)
 80030f8:	4293      	cmp	r3, r2
 80030fa:	d00e      	beq.n	800311a <HAL_TIM_PWM_Start_IT+0x1c2>
 80030fc:	687b      	ldr	r3, [r7, #4]
 80030fe:	681b      	ldr	r3, [r3, #0]
 8003100:	4a16      	ldr	r2, [pc, #88]	; (800315c <HAL_TIM_PWM_Start_IT+0x204>)
 8003102:	4293      	cmp	r3, r2
 8003104:	d009      	beq.n	800311a <HAL_TIM_PWM_Start_IT+0x1c2>
 8003106:	687b      	ldr	r3, [r7, #4]
 8003108:	681b      	ldr	r3, [r3, #0]
 800310a:	4a18      	ldr	r2, [pc, #96]	; (800316c <HAL_TIM_PWM_Start_IT+0x214>)
 800310c:	4293      	cmp	r3, r2
 800310e:	d004      	beq.n	800311a <HAL_TIM_PWM_Start_IT+0x1c2>
 8003110:	687b      	ldr	r3, [r7, #4]
 8003112:	681b      	ldr	r3, [r3, #0]
 8003114:	4a16      	ldr	r2, [pc, #88]	; (8003170 <HAL_TIM_PWM_Start_IT+0x218>)
 8003116:	4293      	cmp	r3, r2
 8003118:	d111      	bne.n	800313e <HAL_TIM_PWM_Start_IT+0x1e6>
  {
    tmpsmcr = htim->Instance->SMCR & TIM_SMCR_SMS;
 800311a:	687b      	ldr	r3, [r7, #4]
 800311c:	681b      	ldr	r3, [r3, #0]
 800311e:	689b      	ldr	r3, [r3, #8]
 8003120:	f003 0307 	and.w	r3, r3, #7
 8003124:	60fb      	str	r3, [r7, #12]
    if (!IS_TIM_SLAVEMODE_TRIGGER_ENABLED(tmpsmcr))
 8003126:	68fb      	ldr	r3, [r7, #12]
 8003128:	2b06      	cmp	r3, #6
 800312a:	d010      	beq.n	800314e <HAL_TIM_PWM_Start_IT+0x1f6>
    {
      __HAL_TIM_ENABLE(htim);
 800312c:	687b      	ldr	r3, [r7, #4]
 800312e:	681b      	ldr	r3, [r3, #0]
 8003130:	681a      	ldr	r2, [r3, #0]
 8003132:	687b      	ldr	r3, [r7, #4]
 8003134:	681b      	ldr	r3, [r3, #0]
 8003136:	f042 0201 	orr.w	r2, r2, #1
 800313a:	601a      	str	r2, [r3, #0]
    if (!IS_TIM_SLAVEMODE_TRIGGER_ENABLED(tmpsmcr))
 800313c:	e007      	b.n	800314e <HAL_TIM_PWM_Start_IT+0x1f6>
    }
  }
  else
  {
    __HAL_TIM_ENABLE(htim);
 800313e:	687b      	ldr	r3, [r7, #4]
 8003140:	681b      	ldr	r3, [r3, #0]
 8003142:	681a      	ldr	r2, [r3, #0]
 8003144:	687b      	ldr	r3, [r7, #4]
 8003146:	681b      	ldr	r3, [r3, #0]
 8003148:	f042 0201 	orr.w	r2, r2, #1
 800314c:	601a      	str	r2, [r3, #0]
  }

  /* Return function status */
  return HAL_OK;
 800314e:	2300      	movs	r3, #0
}
 8003150:	4618      	mov	r0, r3
 8003152:	3710      	adds	r7, #16
 8003154:	46bd      	mov	sp, r7
 8003156:	bd80      	pop	{r7, pc}
 8003158:	40010000 	.word	0x40010000
 800315c:	40010400 	.word	0x40010400
 8003160:	40000400 	.word	0x40000400
 8003164:	40000800 	.word	0x40000800
 8003168:	40000c00 	.word	0x40000c00
 800316c:	40014000 	.word	0x40014000
 8003170:	40001800 	.word	0x40001800

08003174 <HAL_TIM_IRQHandler>:
  * @brief  This function handles TIM interrupts requests.
  * @param  htim TIM  handle
  * @retval None
  */
void HAL_TIM_IRQHandler(TIM_HandleTypeDef *htim)
{
 8003174:	b580      	push	{r7, lr}
 8003176:	b082      	sub	sp, #8
 8003178:	af00      	add	r7, sp, #0
 800317a:	6078      	str	r0, [r7, #4]
  /* Capture compare 1 event */
  if (__HAL_TIM_GET_FLAG(htim, TIM_FLAG_CC1) != RESET)
 800317c:	687b      	ldr	r3, [r7, #4]
 800317e:	681b      	ldr	r3, [r3, #0]
 8003180:	691b      	ldr	r3, [r3, #16]
 8003182:	f003 0302 	and.w	r3, r3, #2
 8003186:	2b02      	cmp	r3, #2
 8003188:	d122      	bne.n	80031d0 <HAL_TIM_IRQHandler+0x5c>
  {
    if (__HAL_TIM_GET_IT_SOURCE(htim, TIM_IT_CC1) != RESET)
 800318a:	687b      	ldr	r3, [r7, #4]
 800318c:	681b      	ldr	r3, [r3, #0]
 800318e:	68db      	ldr	r3, [r3, #12]
 8003190:	f003 0302 	and.w	r3, r3, #2
 8003194:	2b02      	cmp	r3, #2
 8003196:	d11b      	bne.n	80031d0 <HAL_TIM_IRQHandler+0x5c>
    {
      {
        __HAL_TIM_CLEAR_IT(htim, TIM_IT_CC1);
 8003198:	687b      	ldr	r3, [r7, #4]
 800319a:	681b      	ldr	r3, [r3, #0]
 800319c:	f06f 0202 	mvn.w	r2, #2
 80031a0:	611a      	str	r2, [r3, #16]
        htim->Channel = HAL_TIM_ACTIVE_CHANNEL_1;
 80031a2:	687b      	ldr	r3, [r7, #4]
 80031a4:	2201      	movs	r2, #1
 80031a6:	771a      	strb	r2, [r3, #28]

        /* Input capture event */
        if ((htim->Instance->CCMR1 & TIM_CCMR1_CC1S) != 0x00U)
 80031a8:	687b      	ldr	r3, [r7, #4]
 80031aa:	681b      	ldr	r3, [r3, #0]
 80031ac:	699b      	ldr	r3, [r3, #24]
 80031ae:	f003 0303 	and.w	r3, r3, #3
 80031b2:	2b00      	cmp	r3, #0
 80031b4:	d003      	beq.n	80031be <HAL_TIM_IRQHandler+0x4a>
        {
#if (USE_HAL_TIM_REGISTER_CALLBACKS == 1)
          htim->IC_CaptureCallback(htim);
#else
          HAL_TIM_IC_CaptureCallback(htim);
 80031b6:	6878      	ldr	r0, [r7, #4]
 80031b8:	f000 fa7a 	bl	80036b0 <HAL_TIM_IC_CaptureCallback>
 80031bc:	e005      	b.n	80031ca <HAL_TIM_IRQHandler+0x56>
        {
#if (USE_HAL_TIM_REGISTER_CALLBACKS == 1)
          htim->OC_DelayElapsedCallback(htim);
          htim->PWM_PulseFinishedCallback(htim);
#else
          HAL_TIM_OC_DelayElapsedCallback(htim);
 80031be:	6878      	ldr	r0, [r7, #4]
 80031c0:	f000 fa6c 	bl	800369c <HAL_TIM_OC_DelayElapsedCallback>
          HAL_TIM_PWM_PulseFinishedCallback(htim);
 80031c4:	6878      	ldr	r0, [r7, #4]
 80031c6:	f000 fa7d 	bl	80036c4 <HAL_TIM_PWM_PulseFinishedCallback>
#endif /* USE_HAL_TIM_REGISTER_CALLBACKS */
        }
        htim->Channel = HAL_TIM_ACTIVE_CHANNEL_CLEARED;
 80031ca:	687b      	ldr	r3, [r7, #4]
 80031cc:	2200      	movs	r2, #0
 80031ce:	771a      	strb	r2, [r3, #28]
      }
    }
  }
  /* Capture compare 2 event */
  if (__HAL_TIM_GET_FLAG(htim, TIM_FLAG_CC2) != RESET)
 80031d0:	687b      	ldr	r3, [r7, #4]
 80031d2:	681b      	ldr	r3, [r3, #0]
 80031d4:	691b      	ldr	r3, [r3, #16]
 80031d6:	f003 0304 	and.w	r3, r3, #4
 80031da:	2b04      	cmp	r3, #4
 80031dc:	d122      	bne.n	8003224 <HAL_TIM_IRQHandler+0xb0>
  {
    if (__HAL_TIM_GET_IT_SOURCE(htim, TIM_IT_CC2) != RESET)
 80031de:	687b      	ldr	r3, [r7, #4]
 80031e0:	681b      	ldr	r3, [r3, #0]
 80031e2:	68db      	ldr	r3, [r3, #12]
 80031e4:	f003 0304 	and.w	r3, r3, #4
 80031e8:	2b04      	cmp	r3, #4
 80031ea:	d11b      	bne.n	8003224 <HAL_TIM_IRQHandler+0xb0>
    {
      __HAL_TIM_CLEAR_IT(htim, TIM_IT_CC2);
 80031ec:	687b      	ldr	r3, [r7, #4]
 80031ee:	681b      	ldr	r3, [r3, #0]
 80031f0:	f06f 0204 	mvn.w	r2, #4
 80031f4:	611a      	str	r2, [r3, #16]
      htim->Channel = HAL_TIM_ACTIVE_CHANNEL_2;
 80031f6:	687b      	ldr	r3, [r7, #4]
 80031f8:	2202      	movs	r2, #2
 80031fa:	771a      	strb	r2, [r3, #28]
      /* Input capture event */
      if ((htim->Instance->CCMR1 & TIM_CCMR1_CC2S) != 0x00U)
 80031fc:	687b      	ldr	r3, [r7, #4]
 80031fe:	681b      	ldr	r3, [r3, #0]
 8003200:	699b      	ldr	r3, [r3, #24]
 8003202:	f403 7340 	and.w	r3, r3, #768	; 0x300
 8003206:	2b00      	cmp	r3, #0
 8003208:	d003      	beq.n	8003212 <HAL_TIM_IRQHandler+0x9e>
      {
#if (USE_HAL_TIM_REGISTER_CALLBACKS == 1)
        htim->IC_CaptureCallback(htim);
#else
        HAL_TIM_IC_CaptureCallback(htim);
 800320a:	6878      	ldr	r0, [r7, #4]
 800320c:	f000 fa50 	bl	80036b0 <HAL_TIM_IC_CaptureCallback>
 8003210:	e005      	b.n	800321e <HAL_TIM_IRQHandler+0xaa>
      {
#if (USE_HAL_TIM_REGISTER_CALLBACKS == 1)
        htim->OC_DelayElapsedCallback(htim);
        htim->PWM_PulseFinishedCallback(htim);
#else
        HAL_TIM_OC_DelayElapsedCallback(htim);
 8003212:	6878      	ldr	r0, [r7, #4]
 8003214:	f000 fa42 	bl	800369c <HAL_TIM_OC_DelayElapsedCallback>
        HAL_TIM_PWM_PulseFinishedCallback(htim);
 8003218:	6878      	ldr	r0, [r7, #4]
 800321a:	f000 fa53 	bl	80036c4 <HAL_TIM_PWM_PulseFinishedCallback>
#endif /* USE_HAL_TIM_REGISTER_CALLBACKS */
      }
      htim->Channel = HAL_TIM_ACTIVE_CHANNEL_CLEARED;
 800321e:	687b      	ldr	r3, [r7, #4]
 8003220:	2200      	movs	r2, #0
 8003222:	771a      	strb	r2, [r3, #28]
    }
  }
  /* Capture compare 3 event */
  if (__HAL_TIM_GET_FLAG(htim, TIM_FLAG_CC3) != RESET)
 8003224:	687b      	ldr	r3, [r7, #4]
 8003226:	681b      	ldr	r3, [r3, #0]
 8003228:	691b      	ldr	r3, [r3, #16]
 800322a:	f003 0308 	and.w	r3, r3, #8
 800322e:	2b08      	cmp	r3, #8
 8003230:	d122      	bne.n	8003278 <HAL_TIM_IRQHandler+0x104>
  {
    if (__HAL_TIM_GET_IT_SOURCE(htim, TIM_IT_CC3) != RESET)
 8003232:	687b      	ldr	r3, [r7, #4]
 8003234:	681b      	ldr	r3, [r3, #0]
 8003236:	68db      	ldr	r3, [r3, #12]
 8003238:	f003 0308 	and.w	r3, r3, #8
 800323c:	2b08      	cmp	r3, #8
 800323e:	d11b      	bne.n	8003278 <HAL_TIM_IRQHandler+0x104>
    {
      __HAL_TIM_CLEAR_IT(htim, TIM_IT_CC3);
 8003240:	687b      	ldr	r3, [r7, #4]
 8003242:	681b      	ldr	r3, [r3, #0]
 8003244:	f06f 0208 	mvn.w	r2, #8
 8003248:	611a      	str	r2, [r3, #16]
      htim->Channel = HAL_TIM_ACTIVE_CHANNEL_3;
 800324a:	687b      	ldr	r3, [r7, #4]
 800324c:	2204      	movs	r2, #4
 800324e:	771a      	strb	r2, [r3, #28]
      /* Input capture event */
      if ((htim->Instance->CCMR2 & TIM_CCMR2_CC3S) != 0x00U)
 8003250:	687b      	ldr	r3, [r7, #4]
 8003252:	681b      	ldr	r3, [r3, #0]
 8003254:	69db      	ldr	r3, [r3, #28]
 8003256:	f003 0303 	and.w	r3, r3, #3
 800325a:	2b00      	cmp	r3, #0
 800325c:	d003      	beq.n	8003266 <HAL_TIM_IRQHandler+0xf2>
      {
#if (USE_HAL_TIM_REGISTER_CALLBACKS == 1)
        htim->IC_CaptureCallback(htim);
#else
        HAL_TIM_IC_CaptureCallback(htim);
 800325e:	6878      	ldr	r0, [r7, #4]
 8003260:	f000 fa26 	bl	80036b0 <HAL_TIM_IC_CaptureCallback>
 8003264:	e005      	b.n	8003272 <HAL_TIM_IRQHandler+0xfe>
      {
#if (USE_HAL_TIM_REGISTER_CALLBACKS == 1)
        htim->OC_DelayElapsedCallback(htim);
        htim->PWM_PulseFinishedCallback(htim);
#else
        HAL_TIM_OC_DelayElapsedCallback(htim);
 8003266:	6878      	ldr	r0, [r7, #4]
 8003268:	f000 fa18 	bl	800369c <HAL_TIM_OC_DelayElapsedCallback>
        HAL_TIM_PWM_PulseFinishedCallback(htim);
 800326c:	6878      	ldr	r0, [r7, #4]
 800326e:	f000 fa29 	bl	80036c4 <HAL_TIM_PWM_PulseFinishedCallback>
#endif /* USE_HAL_TIM_REGISTER_CALLBACKS */
      }
      htim->Channel = HAL_TIM_ACTIVE_CHANNEL_CLEARED;
 8003272:	687b      	ldr	r3, [r7, #4]
 8003274:	2200      	movs	r2, #0
 8003276:	771a      	strb	r2, [r3, #28]
    }
  }
  /* Capture compare 4 event */
  if (__HAL_TIM_GET_FLAG(htim, TIM_FLAG_CC4) != RESET)
 8003278:	687b      	ldr	r3, [r7, #4]
 800327a:	681b      	ldr	r3, [r3, #0]
 800327c:	691b      	ldr	r3, [r3, #16]
 800327e:	f003 0310 	and.w	r3, r3, #16
 8003282:	2b10      	cmp	r3, #16
 8003284:	d122      	bne.n	80032cc <HAL_TIM_IRQHandler+0x158>
  {
    if (__HAL_TIM_GET_IT_SOURCE(htim, TIM_IT_CC4) != RESET)
 8003286:	687b      	ldr	r3, [r7, #4]
 8003288:	681b      	ldr	r3, [r3, #0]
 800328a:	68db      	ldr	r3, [r3, #12]
 800328c:	f003 0310 	and.w	r3, r3, #16
 8003290:	2b10      	cmp	r3, #16
 8003292:	d11b      	bne.n	80032cc <HAL_TIM_IRQHandler+0x158>
    {
      __HAL_TIM_CLEAR_IT(htim, TIM_IT_CC4);
 8003294:	687b      	ldr	r3, [r7, #4]
 8003296:	681b      	ldr	r3, [r3, #0]
 8003298:	f06f 0210 	mvn.w	r2, #16
 800329c:	611a      	str	r2, [r3, #16]
      htim->Channel = HAL_TIM_ACTIVE_CHANNEL_4;
 800329e:	687b      	ldr	r3, [r7, #4]
 80032a0:	2208      	movs	r2, #8
 80032a2:	771a      	strb	r2, [r3, #28]
      /* Input capture event */
      if ((htim->Instance->CCMR2 & TIM_CCMR2_CC4S) != 0x00U)
 80032a4:	687b      	ldr	r3, [r7, #4]
 80032a6:	681b      	ldr	r3, [r3, #0]
 80032a8:	69db      	ldr	r3, [r3, #28]
 80032aa:	f403 7340 	and.w	r3, r3, #768	; 0x300
 80032ae:	2b00      	cmp	r3, #0
 80032b0:	d003      	beq.n	80032ba <HAL_TIM_IRQHandler+0x146>
      {
#if (USE_HAL_TIM_REGISTER_CALLBACKS == 1)
        htim->IC_CaptureCallback(htim);
#else
        HAL_TIM_IC_CaptureCallback(htim);
 80032b2:	6878      	ldr	r0, [r7, #4]
 80032b4:	f000 f9fc 	bl	80036b0 <HAL_TIM_IC_CaptureCallback>
 80032b8:	e005      	b.n	80032c6 <HAL_TIM_IRQHandler+0x152>
      {
#if (USE_HAL_TIM_REGISTER_CALLBACKS == 1)
        htim->OC_DelayElapsedCallback(htim);
        htim->PWM_PulseFinishedCallback(htim);
#else
        HAL_TIM_OC_DelayElapsedCallback(htim);
 80032ba:	6878      	ldr	r0, [r7, #4]
 80032bc:	f000 f9ee 	bl	800369c <HAL_TIM_OC_DelayElapsedCallback>
        HAL_TIM_PWM_PulseFinishedCallback(htim);
 80032c0:	6878      	ldr	r0, [r7, #4]
 80032c2:	f000 f9ff 	bl	80036c4 <HAL_TIM_PWM_PulseFinishedCallback>
#endif /* USE_HAL_TIM_REGISTER_CALLBACKS */
      }
      htim->Channel = HAL_TIM_ACTIVE_CHANNEL_CLEARED;
 80032c6:	687b      	ldr	r3, [r7, #4]
 80032c8:	2200      	movs	r2, #0
 80032ca:	771a      	strb	r2, [r3, #28]
    }
  }
  /* TIM Update event */
  if (__HAL_TIM_GET_FLAG(htim, TIM_FLAG_UPDATE) != RESET)
 80032cc:	687b      	ldr	r3, [r7, #4]
 80032ce:	681b      	ldr	r3, [r3, #0]
 80032d0:	691b      	ldr	r3, [r3, #16]
 80032d2:	f003 0301 	and.w	r3, r3, #1
 80032d6:	2b01      	cmp	r3, #1
 80032d8:	d10e      	bne.n	80032f8 <HAL_TIM_IRQHandler+0x184>
  {
    if (__HAL_TIM_GET_IT_SOURCE(htim, TIM_IT_UPDATE) != RESET)
 80032da:	687b      	ldr	r3, [r7, #4]
 80032dc:	681b      	ldr	r3, [r3, #0]
 80032de:	68db      	ldr	r3, [r3, #12]
 80032e0:	f003 0301 	and.w	r3, r3, #1
 80032e4:	2b01      	cmp	r3, #1
 80032e6:	d107      	bne.n	80032f8 <HAL_TIM_IRQHandler+0x184>
    {
      __HAL_TIM_CLEAR_IT(htim, TIM_IT_UPDATE);
 80032e8:	687b      	ldr	r3, [r7, #4]
 80032ea:	681b      	ldr	r3, [r3, #0]
 80032ec:	f06f 0201 	mvn.w	r2, #1
 80032f0:	611a      	str	r2, [r3, #16]
#if (USE_HAL_TIM_REGISTER_CALLBACKS == 1)
      htim->PeriodElapsedCallback(htim);
#else
      HAL_TIM_PeriodElapsedCallback(htim);
 80032f2:	6878      	ldr	r0, [r7, #4]
 80032f4:	f000 f9c8 	bl	8003688 <HAL_TIM_PeriodElapsedCallback>
#endif /* USE_HAL_TIM_REGISTER_CALLBACKS */
    }
  }
  /* TIM Break input event */
  if (__HAL_TIM_GET_FLAG(htim, TIM_FLAG_BREAK) != RESET)
 80032f8:	687b      	ldr	r3, [r7, #4]
 80032fa:	681b      	ldr	r3, [r3, #0]
 80032fc:	691b      	ldr	r3, [r3, #16]
 80032fe:	f003 0380 	and.w	r3, r3, #128	; 0x80
 8003302:	2b80      	cmp	r3, #128	; 0x80
 8003304:	d10e      	bne.n	8003324 <HAL_TIM_IRQHandler+0x1b0>
  {
    if (__HAL_TIM_GET_IT_SOURCE(htim, TIM_IT_BREAK) != RESET)
 8003306:	687b      	ldr	r3, [r7, #4]
 8003308:	681b      	ldr	r3, [r3, #0]
 800330a:	68db      	ldr	r3, [r3, #12]
 800330c:	f003 0380 	and.w	r3, r3, #128	; 0x80
 8003310:	2b80      	cmp	r3, #128	; 0x80
 8003312:	d107      	bne.n	8003324 <HAL_TIM_IRQHandler+0x1b0>
    {
      __HAL_TIM_CLEAR_IT(htim, TIM_IT_BREAK);
 8003314:	687b      	ldr	r3, [r7, #4]
 8003316:	681b      	ldr	r3, [r3, #0]
 8003318:	f06f 0280 	mvn.w	r2, #128	; 0x80
 800331c:	611a      	str	r2, [r3, #16]
#if (USE_HAL_TIM_REGISTER_CALLBACKS == 1)
      htim->BreakCallback(htim);
#else
      HAL_TIMEx_BreakCallback(htim);
 800331e:	6878      	ldr	r0, [r7, #4]
 8003320:	f000 fd7a 	bl	8003e18 <HAL_TIMEx_BreakCallback>
#endif /* USE_HAL_TIM_REGISTER_CALLBACKS */
    }
  }
  /* TIM Trigger detection event */
  if (__HAL_TIM_GET_FLAG(htim, TIM_FLAG_TRIGGER) != RESET)
 8003324:	687b      	ldr	r3, [r7, #4]
 8003326:	681b      	ldr	r3, [r3, #0]
 8003328:	691b      	ldr	r3, [r3, #16]
 800332a:	f003 0340 	and.w	r3, r3, #64	; 0x40
 800332e:	2b40      	cmp	r3, #64	; 0x40
 8003330:	d10e      	bne.n	8003350 <HAL_TIM_IRQHandler+0x1dc>
  {
    if (__HAL_TIM_GET_IT_SOURCE(htim, TIM_IT_TRIGGER) != RESET)
 8003332:	687b      	ldr	r3, [r7, #4]
 8003334:	681b      	ldr	r3, [r3, #0]
 8003336:	68db      	ldr	r3, [r3, #12]
 8003338:	f003 0340 	and.w	r3, r3, #64	; 0x40
 800333c:	2b40      	cmp	r3, #64	; 0x40
 800333e:	d107      	bne.n	8003350 <HAL_TIM_IRQHandler+0x1dc>
    {
      __HAL_TIM_CLEAR_IT(htim, TIM_IT_TRIGGER);
 8003340:	687b      	ldr	r3, [r7, #4]
 8003342:	681b      	ldr	r3, [r3, #0]
 8003344:	f06f 0240 	mvn.w	r2, #64	; 0x40
 8003348:	611a      	str	r2, [r3, #16]
#if (USE_HAL_TIM_REGISTER_CALLBACKS == 1)
      htim->TriggerCallback(htim);
#else
      HAL_TIM_TriggerCallback(htim);
 800334a:	6878      	ldr	r0, [r7, #4]
 800334c:	f000 f9c4 	bl	80036d8 <HAL_TIM_TriggerCallback>
#endif /* USE_HAL_TIM_REGISTER_CALLBACKS */
    }
  }
  /* TIM commutation event */
  if (__HAL_TIM_GET_FLAG(htim, TIM_FLAG_COM) != RESET)
 8003350:	687b      	ldr	r3, [r7, #4]
 8003352:	681b      	ldr	r3, [r3, #0]
 8003354:	691b      	ldr	r3, [r3, #16]
 8003356:	f003 0320 	and.w	r3, r3, #32
 800335a:	2b20      	cmp	r3, #32
 800335c:	d10e      	bne.n	800337c <HAL_TIM_IRQHandler+0x208>
  {
    if (__HAL_TIM_GET_IT_SOURCE(htim, TIM_IT_COM) != RESET)
 800335e:	687b      	ldr	r3, [r7, #4]
 8003360:	681b      	ldr	r3, [r3, #0]
 8003362:	68db      	ldr	r3, [r3, #12]
 8003364:	f003 0320 	and.w	r3, r3, #32
 8003368:	2b20      	cmp	r3, #32
 800336a:	d107      	bne.n	800337c <HAL_TIM_IRQHandler+0x208>
    {
      __HAL_TIM_CLEAR_IT(htim, TIM_FLAG_COM);
 800336c:	687b      	ldr	r3, [r7, #4]
 800336e:	681b      	ldr	r3, [r3, #0]
 8003370:	f06f 0220 	mvn.w	r2, #32
 8003374:	611a      	str	r2, [r3, #16]
#if (USE_HAL_TIM_REGISTER_CALLBACKS == 1)
      htim->CommutationCallback(htim);
#else
      HAL_TIMEx_CommutCallback(htim);
 8003376:	6878      	ldr	r0, [r7, #4]
 8003378:	f000 fd44 	bl	8003e04 <HAL_TIMEx_CommutCallback>
#endif /* USE_HAL_TIM_REGISTER_CALLBACKS */
    }
  }
}
 800337c:	bf00      	nop
 800337e:	3708      	adds	r7, #8
 8003380:	46bd      	mov	sp, r7
 8003382:	bd80      	pop	{r7, pc}

08003384 <HAL_TIM_PWM_ConfigChannel>:
  * @retval HAL status
  */
HAL_StatusTypeDef HAL_TIM_PWM_ConfigChannel(TIM_HandleTypeDef *htim,
                                            TIM_OC_InitTypeDef *sConfig,
                                            uint32_t Channel)
{
 8003384:	b580      	push	{r7, lr}
 8003386:	b084      	sub	sp, #16
 8003388:	af00      	add	r7, sp, #0
 800338a:	60f8      	str	r0, [r7, #12]
 800338c:	60b9      	str	r1, [r7, #8]
 800338e:	607a      	str	r2, [r7, #4]
  assert_param(IS_TIM_PWM_MODE(sConfig->OCMode));
  assert_param(IS_TIM_OC_POLARITY(sConfig->OCPolarity));
  assert_param(IS_TIM_FAST_STATE(sConfig->OCFastMode));

  /* Process Locked */
  __HAL_LOCK(htim);
 8003390:	68fb      	ldr	r3, [r7, #12]
 8003392:	f893 303c 	ldrb.w	r3, [r3, #60]	; 0x3c
 8003396:	2b01      	cmp	r3, #1
 8003398:	d101      	bne.n	800339e <HAL_TIM_PWM_ConfigChannel+0x1a>
 800339a:	2302      	movs	r3, #2
 800339c:	e0ac      	b.n	80034f8 <HAL_TIM_PWM_ConfigChannel+0x174>
 800339e:	68fb      	ldr	r3, [r7, #12]
 80033a0:	2201      	movs	r2, #1
 80033a2:	f883 203c 	strb.w	r2, [r3, #60]	; 0x3c
 80033a6:	687b      	ldr	r3, [r7, #4]
 80033a8:	2b0c      	cmp	r3, #12
 80033aa:	f200 809f 	bhi.w	80034ec <HAL_TIM_PWM_ConfigChannel+0x168>
 80033ae:	a201      	add	r2, pc, #4	; (adr r2, 80033b4 <HAL_TIM_PWM_ConfigChannel+0x30>)
 80033b0:	f852 f023 	ldr.w	pc, [r2, r3, lsl #2]
 80033b4:	080033e9 	.word	0x080033e9
 80033b8:	080034ed 	.word	0x080034ed
 80033bc:	080034ed 	.word	0x080034ed
 80033c0:	080034ed 	.word	0x080034ed
 80033c4:	08003429 	.word	0x08003429
 80033c8:	080034ed 	.word	0x080034ed
 80033cc:	080034ed 	.word	0x080034ed
 80033d0:	080034ed 	.word	0x080034ed
 80033d4:	0800346b 	.word	0x0800346b
 80033d8:	080034ed 	.word	0x080034ed
 80033dc:	080034ed 	.word	0x080034ed
 80033e0:	080034ed 	.word	0x080034ed
 80033e4:	080034ab 	.word	0x080034ab
    {
      /* Check the parameters */
      assert_param(IS_TIM_CC1_INSTANCE(htim->Instance));

      /* Configure the Channel 1 in PWM mode */
      TIM_OC1_SetConfig(htim->Instance, sConfig);
 80033e8:	68fb      	ldr	r3, [r7, #12]
 80033ea:	681b      	ldr	r3, [r3, #0]
 80033ec:	68b9      	ldr	r1, [r7, #8]
 80033ee:	4618      	mov	r0, r3
 80033f0:	f000 fa1c 	bl	800382c <TIM_OC1_SetConfig>

      /* Set the Preload enable bit for channel1 */
      htim->Instance->CCMR1 |= TIM_CCMR1_OC1PE;
 80033f4:	68fb      	ldr	r3, [r7, #12]
 80033f6:	681b      	ldr	r3, [r3, #0]
 80033f8:	699a      	ldr	r2, [r3, #24]
 80033fa:	68fb      	ldr	r3, [r7, #12]
 80033fc:	681b      	ldr	r3, [r3, #0]
 80033fe:	f042 0208 	orr.w	r2, r2, #8
 8003402:	619a      	str	r2, [r3, #24]

      /* Configure the Output Fast mode */
      htim->Instance->CCMR1 &= ~TIM_CCMR1_OC1FE;
 8003404:	68fb      	ldr	r3, [r7, #12]
 8003406:	681b      	ldr	r3, [r3, #0]
 8003408:	699a      	ldr	r2, [r3, #24]
 800340a:	68fb      	ldr	r3, [r7, #12]
 800340c:	681b      	ldr	r3, [r3, #0]
 800340e:	f022 0204 	bic.w	r2, r2, #4
 8003412:	619a      	str	r2, [r3, #24]
      htim->Instance->CCMR1 |= sConfig->OCFastMode;
 8003414:	68fb      	ldr	r3, [r7, #12]
 8003416:	681b      	ldr	r3, [r3, #0]
 8003418:	6999      	ldr	r1, [r3, #24]
 800341a:	68bb      	ldr	r3, [r7, #8]
 800341c:	691a      	ldr	r2, [r3, #16]
 800341e:	68fb      	ldr	r3, [r7, #12]
 8003420:	681b      	ldr	r3, [r3, #0]
 8003422:	430a      	orrs	r2, r1
 8003424:	619a      	str	r2, [r3, #24]
      break;
 8003426:	e062      	b.n	80034ee <HAL_TIM_PWM_ConfigChannel+0x16a>
    {
      /* Check the parameters */
      assert_param(IS_TIM_CC2_INSTANCE(htim->Instance));

      /* Configure the Channel 2 in PWM mode */
      TIM_OC2_SetConfig(htim->Instance, sConfig);
 8003428:	68fb      	ldr	r3, [r7, #12]
 800342a:	681b      	ldr	r3, [r3, #0]
 800342c:	68b9      	ldr	r1, [r7, #8]
 800342e:	4618      	mov	r0, r3
 8003430:	f000 fa6c 	bl	800390c <TIM_OC2_SetConfig>

      /* Set the Preload enable bit for channel2 */
      htim->Instance->CCMR1 |= TIM_CCMR1_OC2PE;
 8003434:	68fb      	ldr	r3, [r7, #12]
 8003436:	681b      	ldr	r3, [r3, #0]
 8003438:	699a      	ldr	r2, [r3, #24]
 800343a:	68fb      	ldr	r3, [r7, #12]
 800343c:	681b      	ldr	r3, [r3, #0]
 800343e:	f442 6200 	orr.w	r2, r2, #2048	; 0x800
 8003442:	619a      	str	r2, [r3, #24]

      /* Configure the Output Fast mode */
      htim->Instance->CCMR1 &= ~TIM_CCMR1_OC2FE;
 8003444:	68fb      	ldr	r3, [r7, #12]
 8003446:	681b      	ldr	r3, [r3, #0]
 8003448:	699a      	ldr	r2, [r3, #24]
 800344a:	68fb      	ldr	r3, [r7, #12]
 800344c:	681b      	ldr	r3, [r3, #0]
 800344e:	f422 6280 	bic.w	r2, r2, #1024	; 0x400
 8003452:	619a      	str	r2, [r3, #24]
      htim->Instance->CCMR1 |= sConfig->OCFastMode << 8U;
 8003454:	68fb      	ldr	r3, [r7, #12]
 8003456:	681b      	ldr	r3, [r3, #0]
 8003458:	6999      	ldr	r1, [r3, #24]
 800345a:	68bb      	ldr	r3, [r7, #8]
 800345c:	691b      	ldr	r3, [r3, #16]
 800345e:	021a      	lsls	r2, r3, #8
 8003460:	68fb      	ldr	r3, [r7, #12]
 8003462:	681b      	ldr	r3, [r3, #0]
 8003464:	430a      	orrs	r2, r1
 8003466:	619a      	str	r2, [r3, #24]
      break;
 8003468:	e041      	b.n	80034ee <HAL_TIM_PWM_ConfigChannel+0x16a>
    {
      /* Check the parameters */
      assert_param(IS_TIM_CC3_INSTANCE(htim->Instance));

      /* Configure the Channel 3 in PWM mode */
      TIM_OC3_SetConfig(htim->Instance, sConfig);
 800346a:	68fb      	ldr	r3, [r7, #12]
 800346c:	681b      	ldr	r3, [r3, #0]
 800346e:	68b9      	ldr	r1, [r7, #8]
 8003470:	4618      	mov	r0, r3
 8003472:	f000 fac1 	bl	80039f8 <TIM_OC3_SetConfig>

      /* Set the Preload enable bit for channel3 */
      htim->Instance->CCMR2 |= TIM_CCMR2_OC3PE;
 8003476:	68fb      	ldr	r3, [r7, #12]
 8003478:	681b      	ldr	r3, [r3, #0]
 800347a:	69da      	ldr	r2, [r3, #28]
 800347c:	68fb      	ldr	r3, [r7, #12]
 800347e:	681b      	ldr	r3, [r3, #0]
 8003480:	f042 0208 	orr.w	r2, r2, #8
 8003484:	61da      	str	r2, [r3, #28]

      /* Configure the Output Fast mode */
      htim->Instance->CCMR2 &= ~TIM_CCMR2_OC3FE;
 8003486:	68fb      	ldr	r3, [r7, #12]
 8003488:	681b      	ldr	r3, [r3, #0]
 800348a:	69da      	ldr	r2, [r3, #28]
 800348c:	68fb      	ldr	r3, [r7, #12]
 800348e:	681b      	ldr	r3, [r3, #0]
 8003490:	f022 0204 	bic.w	r2, r2, #4
 8003494:	61da      	str	r2, [r3, #28]
      htim->Instance->CCMR2 |= sConfig->OCFastMode;
 8003496:	68fb      	ldr	r3, [r7, #12]
 8003498:	681b      	ldr	r3, [r3, #0]
 800349a:	69d9      	ldr	r1, [r3, #28]
 800349c:	68bb      	ldr	r3, [r7, #8]
 800349e:	691a      	ldr	r2, [r3, #16]
 80034a0:	68fb      	ldr	r3, [r7, #12]
 80034a2:	681b      	ldr	r3, [r3, #0]
 80034a4:	430a      	orrs	r2, r1
 80034a6:	61da      	str	r2, [r3, #28]
      break;
 80034a8:	e021      	b.n	80034ee <HAL_TIM_PWM_ConfigChannel+0x16a>
    {
      /* Check the parameters */
      assert_param(IS_TIM_CC4_INSTANCE(htim->Instance));

      /* Configure the Channel 4 in PWM mode */
      TIM_OC4_SetConfig(htim->Instance, sConfig);
 80034aa:	68fb      	ldr	r3, [r7, #12]
 80034ac:	681b      	ldr	r3, [r3, #0]
 80034ae:	68b9      	ldr	r1, [r7, #8]
 80034b0:	4618      	mov	r0, r3
 80034b2:	f000 fb15 	bl	8003ae0 <TIM_OC4_SetConfig>

      /* Set the Preload enable bit for channel4 */
      htim->Instance->CCMR2 |= TIM_CCMR2_OC4PE;
 80034b6:	68fb      	ldr	r3, [r7, #12]
 80034b8:	681b      	ldr	r3, [r3, #0]
 80034ba:	69da      	ldr	r2, [r3, #28]
 80034bc:	68fb      	ldr	r3, [r7, #12]
 80034be:	681b      	ldr	r3, [r3, #0]
 80034c0:	f442 6200 	orr.w	r2, r2, #2048	; 0x800
 80034c4:	61da      	str	r2, [r3, #28]

      /* Configure the Output Fast mode */
      htim->Instance->CCMR2 &= ~TIM_CCMR2_OC4FE;
 80034c6:	68fb      	ldr	r3, [r7, #12]
 80034c8:	681b      	ldr	r3, [r3, #0]
 80034ca:	69da      	ldr	r2, [r3, #28]
 80034cc:	68fb      	ldr	r3, [r7, #12]
 80034ce:	681b      	ldr	r3, [r3, #0]
 80034d0:	f422 6280 	bic.w	r2, r2, #1024	; 0x400
 80034d4:	61da      	str	r2, [r3, #28]
      htim->Instance->CCMR2 |= sConfig->OCFastMode << 8U;
 80034d6:	68fb      	ldr	r3, [r7, #12]
 80034d8:	681b      	ldr	r3, [r3, #0]
 80034da:	69d9      	ldr	r1, [r3, #28]
 80034dc:	68bb      	ldr	r3, [r7, #8]
 80034de:	691b      	ldr	r3, [r3, #16]
 80034e0:	021a      	lsls	r2, r3, #8
 80034e2:	68fb      	ldr	r3, [r7, #12]
 80034e4:	681b      	ldr	r3, [r3, #0]
 80034e6:	430a      	orrs	r2, r1
 80034e8:	61da      	str	r2, [r3, #28]
      break;
 80034ea:	e000      	b.n	80034ee <HAL_TIM_PWM_ConfigChannel+0x16a>
    }

    default:
      break;
 80034ec:	bf00      	nop
  }

  __HAL_UNLOCK(htim);
 80034ee:	68fb      	ldr	r3, [r7, #12]
 80034f0:	2200      	movs	r2, #0
 80034f2:	f883 203c 	strb.w	r2, [r3, #60]	; 0x3c

  return HAL_OK;
 80034f6:	2300      	movs	r3, #0
}
 80034f8:	4618      	mov	r0, r3
 80034fa:	3710      	adds	r7, #16
 80034fc:	46bd      	mov	sp, r7
 80034fe:	bd80      	pop	{r7, pc}

08003500 <HAL_TIM_ConfigClockSource>:
  * @param  sClockSourceConfig pointer to a TIM_ClockConfigTypeDef structure that
  *         contains the clock source information for the TIM peripheral.
  * @retval HAL status
  */
HAL_StatusTypeDef HAL_TIM_ConfigClockSource(TIM_HandleTypeDef *htim, TIM_ClockConfigTypeDef *sClockSourceConfig)
{
 8003500:	b580      	push	{r7, lr}
 8003502:	b084      	sub	sp, #16
 8003504:	af00      	add	r7, sp, #0
 8003506:	6078      	str	r0, [r7, #4]
 8003508:	6039      	str	r1, [r7, #0]
  uint32_t tmpsmcr;

  /* Process Locked */
  __HAL_LOCK(htim);
 800350a:	687b      	ldr	r3, [r7, #4]
 800350c:	f893 303c 	ldrb.w	r3, [r3, #60]	; 0x3c
 8003510:	2b01      	cmp	r3, #1
 8003512:	d101      	bne.n	8003518 <HAL_TIM_ConfigClockSource+0x18>
 8003514:	2302      	movs	r3, #2
 8003516:	e0b3      	b.n	8003680 <HAL_TIM_ConfigClockSource+0x180>
 8003518:	687b      	ldr	r3, [r7, #4]
 800351a:	2201      	movs	r2, #1
 800351c:	f883 203c 	strb.w	r2, [r3, #60]	; 0x3c

  htim->State = HAL_TIM_STATE_BUSY;
 8003520:	687b      	ldr	r3, [r7, #4]
 8003522:	2202      	movs	r2, #2
 8003524:	f883 203d 	strb.w	r2, [r3, #61]	; 0x3d

  /* Check the parameters */
  assert_param(IS_TIM_CLOCKSOURCE(sClockSourceConfig->ClockSource));

  /* Reset the SMS, TS, ECE, ETPS and ETRF bits */
  tmpsmcr = htim->Instance->SMCR;
 8003528:	687b      	ldr	r3, [r7, #4]
 800352a:	681b      	ldr	r3, [r3, #0]
 800352c:	689b      	ldr	r3, [r3, #8]
 800352e:	60fb      	str	r3, [r7, #12]
  tmpsmcr &= ~(TIM_SMCR_SMS | TIM_SMCR_TS);
 8003530:	68fb      	ldr	r3, [r7, #12]
 8003532:	f023 0377 	bic.w	r3, r3, #119	; 0x77
 8003536:	60fb      	str	r3, [r7, #12]
  tmpsmcr &= ~(TIM_SMCR_ETF | TIM_SMCR_ETPS | TIM_SMCR_ECE | TIM_SMCR_ETP);
 8003538:	68fb      	ldr	r3, [r7, #12]
 800353a:	f423 437f 	bic.w	r3, r3, #65280	; 0xff00
 800353e:	60fb      	str	r3, [r7, #12]
  htim->Instance->SMCR = tmpsmcr;
 8003540:	687b      	ldr	r3, [r7, #4]
 8003542:	681b      	ldr	r3, [r3, #0]
 8003544:	68fa      	ldr	r2, [r7, #12]
 8003546:	609a      	str	r2, [r3, #8]

  switch (sClockSourceConfig->ClockSource)
 8003548:	683b      	ldr	r3, [r7, #0]
 800354a:	681b      	ldr	r3, [r3, #0]
 800354c:	f5b3 5f00 	cmp.w	r3, #8192	; 0x2000
 8003550:	d03e      	beq.n	80035d0 <HAL_TIM_ConfigClockSource+0xd0>
 8003552:	f5b3 5f00 	cmp.w	r3, #8192	; 0x2000
 8003556:	f200 8087 	bhi.w	8003668 <HAL_TIM_ConfigClockSource+0x168>
 800355a:	f5b3 5f80 	cmp.w	r3, #4096	; 0x1000
 800355e:	f000 8085 	beq.w	800366c <HAL_TIM_ConfigClockSource+0x16c>
 8003562:	f5b3 5f80 	cmp.w	r3, #4096	; 0x1000
 8003566:	d87f      	bhi.n	8003668 <HAL_TIM_ConfigClockSource+0x168>
 8003568:	2b70      	cmp	r3, #112	; 0x70
 800356a:	d01a      	beq.n	80035a2 <HAL_TIM_ConfigClockSource+0xa2>
 800356c:	2b70      	cmp	r3, #112	; 0x70
 800356e:	d87b      	bhi.n	8003668 <HAL_TIM_ConfigClockSource+0x168>
 8003570:	2b60      	cmp	r3, #96	; 0x60
 8003572:	d050      	beq.n	8003616 <HAL_TIM_ConfigClockSource+0x116>
 8003574:	2b60      	cmp	r3, #96	; 0x60
 8003576:	d877      	bhi.n	8003668 <HAL_TIM_ConfigClockSource+0x168>
 8003578:	2b50      	cmp	r3, #80	; 0x50
 800357a:	d03c      	beq.n	80035f6 <HAL_TIM_ConfigClockSource+0xf6>
 800357c:	2b50      	cmp	r3, #80	; 0x50
 800357e:	d873      	bhi.n	8003668 <HAL_TIM_ConfigClockSource+0x168>
 8003580:	2b40      	cmp	r3, #64	; 0x40
 8003582:	d058      	beq.n	8003636 <HAL_TIM_ConfigClockSource+0x136>
 8003584:	2b40      	cmp	r3, #64	; 0x40
 8003586:	d86f      	bhi.n	8003668 <HAL_TIM_ConfigClockSource+0x168>
 8003588:	2b30      	cmp	r3, #48	; 0x30
 800358a:	d064      	beq.n	8003656 <HAL_TIM_ConfigClockSource+0x156>
 800358c:	2b30      	cmp	r3, #48	; 0x30
 800358e:	d86b      	bhi.n	8003668 <HAL_TIM_ConfigClockSource+0x168>
 8003590:	2b20      	cmp	r3, #32
 8003592:	d060      	beq.n	8003656 <HAL_TIM_ConfigClockSource+0x156>
 8003594:	2b20      	cmp	r3, #32
 8003596:	d867      	bhi.n	8003668 <HAL_TIM_ConfigClockSource+0x168>
 8003598:	2b00      	cmp	r3, #0
 800359a:	d05c      	beq.n	8003656 <HAL_TIM_ConfigClockSource+0x156>
 800359c:	2b10      	cmp	r3, #16
 800359e:	d05a      	beq.n	8003656 <HAL_TIM_ConfigClockSource+0x156>
        TIM_ITRx_SetConfig(htim->Instance, sClockSourceConfig->ClockSource);
        break;
      }

    default:
      break;
 80035a0:	e062      	b.n	8003668 <HAL_TIM_ConfigClockSource+0x168>
      TIM_ETR_SetConfig(htim->Instance,
 80035a2:	687b      	ldr	r3, [r7, #4]
 80035a4:	6818      	ldr	r0, [r3, #0]
 80035a6:	683b      	ldr	r3, [r7, #0]
 80035a8:	6899      	ldr	r1, [r3, #8]
 80035aa:	683b      	ldr	r3, [r7, #0]
 80035ac:	685a      	ldr	r2, [r3, #4]
 80035ae:	683b      	ldr	r3, [r7, #0]
 80035b0:	68db      	ldr	r3, [r3, #12]
 80035b2:	f000 fb65 	bl	8003c80 <TIM_ETR_SetConfig>
      tmpsmcr = htim->Instance->SMCR;
 80035b6:	687b      	ldr	r3, [r7, #4]
 80035b8:	681b      	ldr	r3, [r3, #0]
 80035ba:	689b      	ldr	r3, [r3, #8]
 80035bc:	60fb      	str	r3, [r7, #12]
      tmpsmcr |= (TIM_SLAVEMODE_EXTERNAL1 | TIM_CLOCKSOURCE_ETRMODE1);
 80035be:	68fb      	ldr	r3, [r7, #12]
 80035c0:	f043 0377 	orr.w	r3, r3, #119	; 0x77
 80035c4:	60fb      	str	r3, [r7, #12]
      htim->Instance->SMCR = tmpsmcr;
 80035c6:	687b      	ldr	r3, [r7, #4]
 80035c8:	681b      	ldr	r3, [r3, #0]
 80035ca:	68fa      	ldr	r2, [r7, #12]
 80035cc:	609a      	str	r2, [r3, #8]
      break;
 80035ce:	e04e      	b.n	800366e <HAL_TIM_ConfigClockSource+0x16e>
      TIM_ETR_SetConfig(htim->Instance,
 80035d0:	687b      	ldr	r3, [r7, #4]
 80035d2:	6818      	ldr	r0, [r3, #0]
 80035d4:	683b      	ldr	r3, [r7, #0]
 80035d6:	6899      	ldr	r1, [r3, #8]
 80035d8:	683b      	ldr	r3, [r7, #0]
 80035da:	685a      	ldr	r2, [r3, #4]
 80035dc:	683b      	ldr	r3, [r7, #0]
 80035de:	68db      	ldr	r3, [r3, #12]
 80035e0:	f000 fb4e 	bl	8003c80 <TIM_ETR_SetConfig>
      htim->Instance->SMCR |= TIM_SMCR_ECE;
 80035e4:	687b      	ldr	r3, [r7, #4]
 80035e6:	681b      	ldr	r3, [r3, #0]
 80035e8:	689a      	ldr	r2, [r3, #8]
 80035ea:	687b      	ldr	r3, [r7, #4]
 80035ec:	681b      	ldr	r3, [r3, #0]
 80035ee:	f442 4280 	orr.w	r2, r2, #16384	; 0x4000
 80035f2:	609a      	str	r2, [r3, #8]
      break;
 80035f4:	e03b      	b.n	800366e <HAL_TIM_ConfigClockSource+0x16e>
      TIM_TI1_ConfigInputStage(htim->Instance,
 80035f6:	687b      	ldr	r3, [r7, #4]
 80035f8:	6818      	ldr	r0, [r3, #0]
 80035fa:	683b      	ldr	r3, [r7, #0]
 80035fc:	6859      	ldr	r1, [r3, #4]
 80035fe:	683b      	ldr	r3, [r7, #0]
 8003600:	68db      	ldr	r3, [r3, #12]
 8003602:	461a      	mov	r2, r3
 8003604:	f000 fac2 	bl	8003b8c <TIM_TI1_ConfigInputStage>
      TIM_ITRx_SetConfig(htim->Instance, TIM_CLOCKSOURCE_TI1);
 8003608:	687b      	ldr	r3, [r7, #4]
 800360a:	681b      	ldr	r3, [r3, #0]
 800360c:	2150      	movs	r1, #80	; 0x50
 800360e:	4618      	mov	r0, r3
 8003610:	f000 fb1b 	bl	8003c4a <TIM_ITRx_SetConfig>
      break;
 8003614:	e02b      	b.n	800366e <HAL_TIM_ConfigClockSource+0x16e>
      TIM_TI2_ConfigInputStage(htim->Instance,
 8003616:	687b      	ldr	r3, [r7, #4]
 8003618:	6818      	ldr	r0, [r3, #0]
 800361a:	683b      	ldr	r3, [r7, #0]
 800361c:	6859      	ldr	r1, [r3, #4]
 800361e:	683b      	ldr	r3, [r7, #0]
 8003620:	68db      	ldr	r3, [r3, #12]
 8003622:	461a      	mov	r2, r3
 8003624:	f000 fae1 	bl	8003bea <TIM_TI2_ConfigInputStage>
      TIM_ITRx_SetConfig(htim->Instance, TIM_CLOCKSOURCE_TI2);
 8003628:	687b      	ldr	r3, [r7, #4]
 800362a:	681b      	ldr	r3, [r3, #0]
 800362c:	2160      	movs	r1, #96	; 0x60
 800362e:	4618      	mov	r0, r3
 8003630:	f000 fb0b 	bl	8003c4a <TIM_ITRx_SetConfig>
      break;
 8003634:	e01b      	b.n	800366e <HAL_TIM_ConfigClockSource+0x16e>
      TIM_TI1_ConfigInputStage(htim->Instance,
 8003636:	687b      	ldr	r3, [r7, #4]
 8003638:	6818      	ldr	r0, [r3, #0]
 800363a:	683b      	ldr	r3, [r7, #0]
 800363c:	6859      	ldr	r1, [r3, #4]
 800363e:	683b      	ldr	r3, [r7, #0]
 8003640:	68db      	ldr	r3, [r3, #12]
 8003642:	461a      	mov	r2, r3
 8003644:	f000 faa2 	bl	8003b8c <TIM_TI1_ConfigInputStage>
      TIM_ITRx_SetConfig(htim->Instance, TIM_CLOCKSOURCE_TI1ED);
 8003648:	687b      	ldr	r3, [r7, #4]
 800364a:	681b      	ldr	r3, [r3, #0]
 800364c:	2140      	movs	r1, #64	; 0x40
 800364e:	4618      	mov	r0, r3
 8003650:	f000 fafb 	bl	8003c4a <TIM_ITRx_SetConfig>
      break;
 8003654:	e00b      	b.n	800366e <HAL_TIM_ConfigClockSource+0x16e>
        TIM_ITRx_SetConfig(htim->Instance, sClockSourceConfig->ClockSource);
 8003656:	687b      	ldr	r3, [r7, #4]
 8003658:	681a      	ldr	r2, [r3, #0]
 800365a:	683b      	ldr	r3, [r7, #0]
 800365c:	681b      	ldr	r3, [r3, #0]
 800365e:	4619      	mov	r1, r3
 8003660:	4610      	mov	r0, r2
 8003662:	f000 faf2 	bl	8003c4a <TIM_ITRx_SetConfig>
        break;
 8003666:	e002      	b.n	800366e <HAL_TIM_ConfigClockSource+0x16e>
      break;
 8003668:	bf00      	nop
 800366a:	e000      	b.n	800366e <HAL_TIM_ConfigClockSource+0x16e>
      break;
 800366c:	bf00      	nop
  }
  htim->State = HAL_TIM_STATE_READY;
 800366e:	687b      	ldr	r3, [r7, #4]
 8003670:	2201      	movs	r2, #1
 8003672:	f883 203d 	strb.w	r2, [r3, #61]	; 0x3d

  __HAL_UNLOCK(htim);
 8003676:	687b      	ldr	r3, [r7, #4]
 8003678:	2200      	movs	r2, #0
 800367a:	f883 203c 	strb.w	r2, [r3, #60]	; 0x3c

  return HAL_OK;
 800367e:	2300      	movs	r3, #0
}
 8003680:	4618      	mov	r0, r3
 8003682:	3710      	adds	r7, #16
 8003684:	46bd      	mov	sp, r7
 8003686:	bd80      	pop	{r7, pc}

08003688 <HAL_TIM_PeriodElapsedCallback>:
  * @brief  Period elapsed callback in non-blocking mode
  * @param  htim TIM handle
  * @retval None
  */
__weak void HAL_TIM_PeriodElapsedCallback(TIM_HandleTypeDef *htim)
{
 8003688:	b480      	push	{r7}
 800368a:	b083      	sub	sp, #12
 800368c:	af00      	add	r7, sp, #0
 800368e:	6078      	str	r0, [r7, #4]
  UNUSED(htim);

  /* NOTE : This function should not be modified, when the callback is needed,
            the HAL_TIM_PeriodElapsedCallback could be implemented in the user file
   */
}
 8003690:	bf00      	nop
 8003692:	370c      	adds	r7, #12
 8003694:	46bd      	mov	sp, r7
 8003696:	f85d 7b04 	ldr.w	r7, [sp], #4
 800369a:	4770      	bx	lr

0800369c <HAL_TIM_OC_DelayElapsedCallback>:
  * @brief  Output Compare callback in non-blocking mode
  * @param  htim TIM OC handle
  * @retval None
  */
__weak void HAL_TIM_OC_DelayElapsedCallback(TIM_HandleTypeDef *htim)
{
 800369c:	b480      	push	{r7}
 800369e:	b083      	sub	sp, #12
 80036a0:	af00      	add	r7, sp, #0
 80036a2:	6078      	str	r0, [r7, #4]
  UNUSED(htim);

  /* NOTE : This function should not be modified, when the callback is needed,
            the HAL_TIM_OC_DelayElapsedCallback could be implemented in the user file
   */
}
 80036a4:	bf00      	nop
 80036a6:	370c      	adds	r7, #12
 80036a8:	46bd      	mov	sp, r7
 80036aa:	f85d 7b04 	ldr.w	r7, [sp], #4
 80036ae:	4770      	bx	lr

080036b0 <HAL_TIM_IC_CaptureCallback>:
  * @brief  Input Capture callback in non-blocking mode
  * @param  htim TIM IC handle
  * @retval None
  */
__weak void HAL_TIM_IC_CaptureCallback(TIM_HandleTypeDef *htim)
{
 80036b0:	b480      	push	{r7}
 80036b2:	b083      	sub	sp, #12
 80036b4:	af00      	add	r7, sp, #0
 80036b6:	6078      	str	r0, [r7, #4]
  UNUSED(htim);

  /* NOTE : This function should not be modified, when the callback is needed,
            the HAL_TIM_IC_CaptureCallback could be implemented in the user file
   */
}
 80036b8:	bf00      	nop
 80036ba:	370c      	adds	r7, #12
 80036bc:	46bd      	mov	sp, r7
 80036be:	f85d 7b04 	ldr.w	r7, [sp], #4
 80036c2:	4770      	bx	lr

080036c4 <HAL_TIM_PWM_PulseFinishedCallback>:
  * @brief  PWM Pulse finished callback in non-blocking mode
  * @param  htim TIM handle
  * @retval None
  */
__weak void HAL_TIM_PWM_PulseFinishedCallback(TIM_HandleTypeDef *htim)
{
 80036c4:	b480      	push	{r7}
 80036c6:	b083      	sub	sp, #12
 80036c8:	af00      	add	r7, sp, #0
 80036ca:	6078      	str	r0, [r7, #4]
  UNUSED(htim);

  /* NOTE : This function should not be modified, when the callback is needed,
            the HAL_TIM_PWM_PulseFinishedCallback could be implemented in the user file
   */
}
 80036cc:	bf00      	nop
 80036ce:	370c      	adds	r7, #12
 80036d0:	46bd      	mov	sp, r7
 80036d2:	f85d 7b04 	ldr.w	r7, [sp], #4
 80036d6:	4770      	bx	lr

080036d8 <HAL_TIM_TriggerCallback>:
  * @brief  Hall Trigger detection callback in non-blocking mode
  * @param  htim TIM handle
  * @retval None
  */
__weak void HAL_TIM_TriggerCallback(TIM_HandleTypeDef *htim)
{
 80036d8:	b480      	push	{r7}
 80036da:	b083      	sub	sp, #12
 80036dc:	af00      	add	r7, sp, #0
 80036de:	6078      	str	r0, [r7, #4]
  UNUSED(htim);

  /* NOTE : This function should not be modified, when the callback is needed,
            the HAL_TIM_TriggerCallback could be implemented in the user file
   */
}
 80036e0:	bf00      	nop
 80036e2:	370c      	adds	r7, #12
 80036e4:	46bd      	mov	sp, r7
 80036e6:	f85d 7b04 	ldr.w	r7, [sp], #4
 80036ea:	4770      	bx	lr

080036ec <TIM_Base_SetConfig>:
  * @param  TIMx TIM peripheral
  * @param  Structure TIM Base configuration structure
  * @retval None
  */
void TIM_Base_SetConfig(TIM_TypeDef *TIMx, TIM_Base_InitTypeDef *Structure)
{
 80036ec:	b480      	push	{r7}
 80036ee:	b085      	sub	sp, #20
 80036f0:	af00      	add	r7, sp, #0
 80036f2:	6078      	str	r0, [r7, #4]
 80036f4:	6039      	str	r1, [r7, #0]
  uint32_t tmpcr1;
  tmpcr1 = TIMx->CR1;
 80036f6:	687b      	ldr	r3, [r7, #4]
 80036f8:	681b      	ldr	r3, [r3, #0]
 80036fa:	60fb      	str	r3, [r7, #12]

  /* Set TIM Time Base Unit parameters ---------------------------------------*/
  if (IS_TIM_COUNTER_MODE_SELECT_INSTANCE(TIMx))
 80036fc:	687b      	ldr	r3, [r7, #4]
 80036fe:	4a40      	ldr	r2, [pc, #256]	; (8003800 <TIM_Base_SetConfig+0x114>)
 8003700:	4293      	cmp	r3, r2
 8003702:	d013      	beq.n	800372c <TIM_Base_SetConfig+0x40>
 8003704:	687b      	ldr	r3, [r7, #4]
 8003706:	f1b3 4f80 	cmp.w	r3, #1073741824	; 0x40000000
 800370a:	d00f      	beq.n	800372c <TIM_Base_SetConfig+0x40>
 800370c:	687b      	ldr	r3, [r7, #4]
 800370e:	4a3d      	ldr	r2, [pc, #244]	; (8003804 <TIM_Base_SetConfig+0x118>)
 8003710:	4293      	cmp	r3, r2
 8003712:	d00b      	beq.n	800372c <TIM_Base_SetConfig+0x40>
 8003714:	687b      	ldr	r3, [r7, #4]
 8003716:	4a3c      	ldr	r2, [pc, #240]	; (8003808 <TIM_Base_SetConfig+0x11c>)
 8003718:	4293      	cmp	r3, r2
 800371a:	d007      	beq.n	800372c <TIM_Base_SetConfig+0x40>
 800371c:	687b      	ldr	r3, [r7, #4]
 800371e:	4a3b      	ldr	r2, [pc, #236]	; (800380c <TIM_Base_SetConfig+0x120>)
 8003720:	4293      	cmp	r3, r2
 8003722:	d003      	beq.n	800372c <TIM_Base_SetConfig+0x40>
 8003724:	687b      	ldr	r3, [r7, #4]
 8003726:	4a3a      	ldr	r2, [pc, #232]	; (8003810 <TIM_Base_SetConfig+0x124>)
 8003728:	4293      	cmp	r3, r2
 800372a:	d108      	bne.n	800373e <TIM_Base_SetConfig+0x52>
  {
    /* Select the Counter Mode */
    tmpcr1 &= ~(TIM_CR1_DIR | TIM_CR1_CMS);
 800372c:	68fb      	ldr	r3, [r7, #12]
 800372e:	f023 0370 	bic.w	r3, r3, #112	; 0x70
 8003732:	60fb      	str	r3, [r7, #12]
    tmpcr1 |= Structure->CounterMode;
 8003734:	683b      	ldr	r3, [r7, #0]
 8003736:	685b      	ldr	r3, [r3, #4]
 8003738:	68fa      	ldr	r2, [r7, #12]
 800373a:	4313      	orrs	r3, r2
 800373c:	60fb      	str	r3, [r7, #12]
  }

  if (IS_TIM_CLOCK_DIVISION_INSTANCE(TIMx))
 800373e:	687b      	ldr	r3, [r7, #4]
 8003740:	4a2f      	ldr	r2, [pc, #188]	; (8003800 <TIM_Base_SetConfig+0x114>)
 8003742:	4293      	cmp	r3, r2
 8003744:	d02b      	beq.n	800379e <TIM_Base_SetConfig+0xb2>
 8003746:	687b      	ldr	r3, [r7, #4]
 8003748:	f1b3 4f80 	cmp.w	r3, #1073741824	; 0x40000000
 800374c:	d027      	beq.n	800379e <TIM_Base_SetConfig+0xb2>
 800374e:	687b      	ldr	r3, [r7, #4]
 8003750:	4a2c      	ldr	r2, [pc, #176]	; (8003804 <TIM_Base_SetConfig+0x118>)
 8003752:	4293      	cmp	r3, r2
 8003754:	d023      	beq.n	800379e <TIM_Base_SetConfig+0xb2>
 8003756:	687b      	ldr	r3, [r7, #4]
 8003758:	4a2b      	ldr	r2, [pc, #172]	; (8003808 <TIM_Base_SetConfig+0x11c>)
 800375a:	4293      	cmp	r3, r2
 800375c:	d01f      	beq.n	800379e <TIM_Base_SetConfig+0xb2>
 800375e:	687b      	ldr	r3, [r7, #4]
 8003760:	4a2a      	ldr	r2, [pc, #168]	; (800380c <TIM_Base_SetConfig+0x120>)
 8003762:	4293      	cmp	r3, r2
 8003764:	d01b      	beq.n	800379e <TIM_Base_SetConfig+0xb2>
 8003766:	687b      	ldr	r3, [r7, #4]
 8003768:	4a29      	ldr	r2, [pc, #164]	; (8003810 <TIM_Base_SetConfig+0x124>)
 800376a:	4293      	cmp	r3, r2
 800376c:	d017      	beq.n	800379e <TIM_Base_SetConfig+0xb2>
 800376e:	687b      	ldr	r3, [r7, #4]
 8003770:	4a28      	ldr	r2, [pc, #160]	; (8003814 <TIM_Base_SetConfig+0x128>)
 8003772:	4293      	cmp	r3, r2
 8003774:	d013      	beq.n	800379e <TIM_Base_SetConfig+0xb2>
 8003776:	687b      	ldr	r3, [r7, #4]
 8003778:	4a27      	ldr	r2, [pc, #156]	; (8003818 <TIM_Base_SetConfig+0x12c>)
 800377a:	4293      	cmp	r3, r2
 800377c:	d00f      	beq.n	800379e <TIM_Base_SetConfig+0xb2>
 800377e:	687b      	ldr	r3, [r7, #4]
 8003780:	4a26      	ldr	r2, [pc, #152]	; (800381c <TIM_Base_SetConfig+0x130>)
 8003782:	4293      	cmp	r3, r2
 8003784:	d00b      	beq.n	800379e <TIM_Base_SetConfig+0xb2>
 8003786:	687b      	ldr	r3, [r7, #4]
 8003788:	4a25      	ldr	r2, [pc, #148]	; (8003820 <TIM_Base_SetConfig+0x134>)
 800378a:	4293      	cmp	r3, r2
 800378c:	d007      	beq.n	800379e <TIM_Base_SetConfig+0xb2>
 800378e:	687b      	ldr	r3, [r7, #4]
 8003790:	4a24      	ldr	r2, [pc, #144]	; (8003824 <TIM_Base_SetConfig+0x138>)
 8003792:	4293      	cmp	r3, r2
 8003794:	d003      	beq.n	800379e <TIM_Base_SetConfig+0xb2>
 8003796:	687b      	ldr	r3, [r7, #4]
 8003798:	4a23      	ldr	r2, [pc, #140]	; (8003828 <TIM_Base_SetConfig+0x13c>)
 800379a:	4293      	cmp	r3, r2
 800379c:	d108      	bne.n	80037b0 <TIM_Base_SetConfig+0xc4>
  {
    /* Set the clock division */
    tmpcr1 &= ~TIM_CR1_CKD;
 800379e:	68fb      	ldr	r3, [r7, #12]
 80037a0:	f423 7340 	bic.w	r3, r3, #768	; 0x300
 80037a4:	60fb      	str	r3, [r7, #12]
    tmpcr1 |= (uint32_t)Structure->ClockDivision;
 80037a6:	683b      	ldr	r3, [r7, #0]
 80037a8:	68db      	ldr	r3, [r3, #12]
 80037aa:	68fa      	ldr	r2, [r7, #12]
 80037ac:	4313      	orrs	r3, r2
 80037ae:	60fb      	str	r3, [r7, #12]
  }

  /* Set the auto-reload preload */
  MODIFY_REG(tmpcr1, TIM_CR1_ARPE, Structure->AutoReloadPreload);
 80037b0:	68fb      	ldr	r3, [r7, #12]
 80037b2:	f023 0280 	bic.w	r2, r3, #128	; 0x80
 80037b6:	683b      	ldr	r3, [r7, #0]
 80037b8:	695b      	ldr	r3, [r3, #20]
 80037ba:	4313      	orrs	r3, r2
 80037bc:	60fb      	str	r3, [r7, #12]

  TIMx->CR1 = tmpcr1;
 80037be:	687b      	ldr	r3, [r7, #4]
 80037c0:	68fa      	ldr	r2, [r7, #12]
 80037c2:	601a      	str	r2, [r3, #0]

  /* Set the Autoreload value */
  TIMx->ARR = (uint32_t)Structure->Period ;
 80037c4:	683b      	ldr	r3, [r7, #0]
 80037c6:	689a      	ldr	r2, [r3, #8]
 80037c8:	687b      	ldr	r3, [r7, #4]
 80037ca:	62da      	str	r2, [r3, #44]	; 0x2c

  /* Set the Prescaler value */
  TIMx->PSC = Structure->Prescaler;
 80037cc:	683b      	ldr	r3, [r7, #0]
 80037ce:	681a      	ldr	r2, [r3, #0]
 80037d0:	687b      	ldr	r3, [r7, #4]
 80037d2:	629a      	str	r2, [r3, #40]	; 0x28

  if (IS_TIM_REPETITION_COUNTER_INSTANCE(TIMx))
 80037d4:	687b      	ldr	r3, [r7, #4]
 80037d6:	4a0a      	ldr	r2, [pc, #40]	; (8003800 <TIM_Base_SetConfig+0x114>)
 80037d8:	4293      	cmp	r3, r2
 80037da:	d003      	beq.n	80037e4 <TIM_Base_SetConfig+0xf8>
 80037dc:	687b      	ldr	r3, [r7, #4]
 80037de:	4a0c      	ldr	r2, [pc, #48]	; (8003810 <TIM_Base_SetConfig+0x124>)
 80037e0:	4293      	cmp	r3, r2
 80037e2:	d103      	bne.n	80037ec <TIM_Base_SetConfig+0x100>
  {
    /* Set the Repetition Counter value */
    TIMx->RCR = Structure->RepetitionCounter;
 80037e4:	683b      	ldr	r3, [r7, #0]
 80037e6:	691a      	ldr	r2, [r3, #16]
 80037e8:	687b      	ldr	r3, [r7, #4]
 80037ea:	631a      	str	r2, [r3, #48]	; 0x30
  }

  /* Generate an update event to reload the Prescaler
     and the repetition counter (only for advanced timer) value immediately */
  TIMx->EGR = TIM_EGR_UG;
 80037ec:	687b      	ldr	r3, [r7, #4]
 80037ee:	2201      	movs	r2, #1
 80037f0:	615a      	str	r2, [r3, #20]
}
 80037f2:	bf00      	nop
 80037f4:	3714      	adds	r7, #20
 80037f6:	46bd      	mov	sp, r7
 80037f8:	f85d 7b04 	ldr.w	r7, [sp], #4
 80037fc:	4770      	bx	lr
 80037fe:	bf00      	nop
 8003800:	40010000 	.word	0x40010000
 8003804:	40000400 	.word	0x40000400
 8003808:	40000800 	.word	0x40000800
 800380c:	40000c00 	.word	0x40000c00
 8003810:	40010400 	.word	0x40010400
 8003814:	40014000 	.word	0x40014000
 8003818:	40014400 	.word	0x40014400
 800381c:	40014800 	.word	0x40014800
 8003820:	40001800 	.word	0x40001800
 8003824:	40001c00 	.word	0x40001c00
 8003828:	40002000 	.word	0x40002000

0800382c <TIM_OC1_SetConfig>:
  * @param  TIMx to select the TIM peripheral
  * @param  OC_Config The output configuration structure
  * @retval None
  */
static void TIM_OC1_SetConfig(TIM_TypeDef *TIMx, TIM_OC_InitTypeDef *OC_Config)
{
 800382c:	b480      	push	{r7}
 800382e:	b087      	sub	sp, #28
 8003830:	af00      	add	r7, sp, #0
 8003832:	6078      	str	r0, [r7, #4]
 8003834:	6039      	str	r1, [r7, #0]
  uint32_t tmpccmrx;
  uint32_t tmpccer;
  uint32_t tmpcr2;

  /* Disable the Channel 1: Reset the CC1E Bit */
  TIMx->CCER &= ~TIM_CCER_CC1E;
 8003836:	687b      	ldr	r3, [r7, #4]
 8003838:	6a1b      	ldr	r3, [r3, #32]
 800383a:	f023 0201 	bic.w	r2, r3, #1
 800383e:	687b      	ldr	r3, [r7, #4]
 8003840:	621a      	str	r2, [r3, #32]

  /* Get the TIMx CCER register value */
  tmpccer = TIMx->CCER;
 8003842:	687b      	ldr	r3, [r7, #4]
 8003844:	6a1b      	ldr	r3, [r3, #32]
 8003846:	617b      	str	r3, [r7, #20]
  /* Get the TIMx CR2 register value */
  tmpcr2 =  TIMx->CR2;
 8003848:	687b      	ldr	r3, [r7, #4]
 800384a:	685b      	ldr	r3, [r3, #4]
 800384c:	613b      	str	r3, [r7, #16]

  /* Get the TIMx CCMR1 register value */
  tmpccmrx = TIMx->CCMR1;
 800384e:	687b      	ldr	r3, [r7, #4]
 8003850:	699b      	ldr	r3, [r3, #24]
 8003852:	60fb      	str	r3, [r7, #12]

  /* Reset the Output Compare Mode Bits */
  tmpccmrx &= ~TIM_CCMR1_OC1M;
 8003854:	68fb      	ldr	r3, [r7, #12]
 8003856:	f023 0370 	bic.w	r3, r3, #112	; 0x70
 800385a:	60fb      	str	r3, [r7, #12]
  tmpccmrx &= ~TIM_CCMR1_CC1S;
 800385c:	68fb      	ldr	r3, [r7, #12]
 800385e:	f023 0303 	bic.w	r3, r3, #3
 8003862:	60fb      	str	r3, [r7, #12]
  /* Select the Output Compare Mode */
  tmpccmrx |= OC_Config->OCMode;
 8003864:	683b      	ldr	r3, [r7, #0]
 8003866:	681b      	ldr	r3, [r3, #0]
 8003868:	68fa      	ldr	r2, [r7, #12]
 800386a:	4313      	orrs	r3, r2
 800386c:	60fb      	str	r3, [r7, #12]

  /* Reset the Output Polarity level */
  tmpccer &= ~TIM_CCER_CC1P;
 800386e:	697b      	ldr	r3, [r7, #20]
 8003870:	f023 0302 	bic.w	r3, r3, #2
 8003874:	617b      	str	r3, [r7, #20]
  /* Set the Output Compare Polarity */
  tmpccer |= OC_Config->OCPolarity;
 8003876:	683b      	ldr	r3, [r7, #0]
 8003878:	689b      	ldr	r3, [r3, #8]
 800387a:	697a      	ldr	r2, [r7, #20]
 800387c:	4313      	orrs	r3, r2
 800387e:	617b      	str	r3, [r7, #20]

  if (IS_TIM_CCXN_INSTANCE(TIMx, TIM_CHANNEL_1))
 8003880:	687b      	ldr	r3, [r7, #4]
 8003882:	4a20      	ldr	r2, [pc, #128]	; (8003904 <TIM_OC1_SetConfig+0xd8>)
 8003884:	4293      	cmp	r3, r2
 8003886:	d003      	beq.n	8003890 <TIM_OC1_SetConfig+0x64>
 8003888:	687b      	ldr	r3, [r7, #4]
 800388a:	4a1f      	ldr	r2, [pc, #124]	; (8003908 <TIM_OC1_SetConfig+0xdc>)
 800388c:	4293      	cmp	r3, r2
 800388e:	d10c      	bne.n	80038aa <TIM_OC1_SetConfig+0x7e>
  {
    /* Check parameters */
    assert_param(IS_TIM_OCN_POLARITY(OC_Config->OCNPolarity));

    /* Reset the Output N Polarity level */
    tmpccer &= ~TIM_CCER_CC1NP;
 8003890:	697b      	ldr	r3, [r7, #20]
 8003892:	f023 0308 	bic.w	r3, r3, #8
 8003896:	617b      	str	r3, [r7, #20]
    /* Set the Output N Polarity */
    tmpccer |= OC_Config->OCNPolarity;
 8003898:	683b      	ldr	r3, [r7, #0]
 800389a:	68db      	ldr	r3, [r3, #12]
 800389c:	697a      	ldr	r2, [r7, #20]
 800389e:	4313      	orrs	r3, r2
 80038a0:	617b      	str	r3, [r7, #20]
    /* Reset the Output N State */
    tmpccer &= ~TIM_CCER_CC1NE;
 80038a2:	697b      	ldr	r3, [r7, #20]
 80038a4:	f023 0304 	bic.w	r3, r3, #4
 80038a8:	617b      	str	r3, [r7, #20]
  }

  if (IS_TIM_BREAK_INSTANCE(TIMx))
 80038aa:	687b      	ldr	r3, [r7, #4]
 80038ac:	4a15      	ldr	r2, [pc, #84]	; (8003904 <TIM_OC1_SetConfig+0xd8>)
 80038ae:	4293      	cmp	r3, r2
 80038b0:	d003      	beq.n	80038ba <TIM_OC1_SetConfig+0x8e>
 80038b2:	687b      	ldr	r3, [r7, #4]
 80038b4:	4a14      	ldr	r2, [pc, #80]	; (8003908 <TIM_OC1_SetConfig+0xdc>)
 80038b6:	4293      	cmp	r3, r2
 80038b8:	d111      	bne.n	80038de <TIM_OC1_SetConfig+0xb2>
    /* Check parameters */
    assert_param(IS_TIM_OCNIDLE_STATE(OC_Config->OCNIdleState));
    assert_param(IS_TIM_OCIDLE_STATE(OC_Config->OCIdleState));

    /* Reset the Output Compare and Output Compare N IDLE State */
    tmpcr2 &= ~TIM_CR2_OIS1;
 80038ba:	693b      	ldr	r3, [r7, #16]
 80038bc:	f423 7380 	bic.w	r3, r3, #256	; 0x100
 80038c0:	613b      	str	r3, [r7, #16]
    tmpcr2 &= ~TIM_CR2_OIS1N;
 80038c2:	693b      	ldr	r3, [r7, #16]
 80038c4:	f423 7300 	bic.w	r3, r3, #512	; 0x200
 80038c8:	613b      	str	r3, [r7, #16]
    /* Set the Output Idle state */
    tmpcr2 |= OC_Config->OCIdleState;
 80038ca:	683b      	ldr	r3, [r7, #0]
 80038cc:	695b      	ldr	r3, [r3, #20]
 80038ce:	693a      	ldr	r2, [r7, #16]
 80038d0:	4313      	orrs	r3, r2
 80038d2:	613b      	str	r3, [r7, #16]
    /* Set the Output N Idle state */
    tmpcr2 |= OC_Config->OCNIdleState;
 80038d4:	683b      	ldr	r3, [r7, #0]
 80038d6:	699b      	ldr	r3, [r3, #24]
 80038d8:	693a      	ldr	r2, [r7, #16]
 80038da:	4313      	orrs	r3, r2
 80038dc:	613b      	str	r3, [r7, #16]
  }

  /* Write to TIMx CR2 */
  TIMx->CR2 = tmpcr2;
 80038de:	687b      	ldr	r3, [r7, #4]
 80038e0:	693a      	ldr	r2, [r7, #16]
 80038e2:	605a      	str	r2, [r3, #4]

  /* Write to TIMx CCMR1 */
  TIMx->CCMR1 = tmpccmrx;
 80038e4:	687b      	ldr	r3, [r7, #4]
 80038e6:	68fa      	ldr	r2, [r7, #12]
 80038e8:	619a      	str	r2, [r3, #24]

  /* Set the Capture Compare Register value */
  TIMx->CCR1 = OC_Config->Pulse;
 80038ea:	683b      	ldr	r3, [r7, #0]
 80038ec:	685a      	ldr	r2, [r3, #4]
 80038ee:	687b      	ldr	r3, [r7, #4]
 80038f0:	635a      	str	r2, [r3, #52]	; 0x34

  /* Write to TIMx CCER */
  TIMx->CCER = tmpccer;
 80038f2:	687b      	ldr	r3, [r7, #4]
 80038f4:	697a      	ldr	r2, [r7, #20]
 80038f6:	621a      	str	r2, [r3, #32]
}
 80038f8:	bf00      	nop
 80038fa:	371c      	adds	r7, #28
 80038fc:	46bd      	mov	sp, r7
 80038fe:	f85d 7b04 	ldr.w	r7, [sp], #4
 8003902:	4770      	bx	lr
 8003904:	40010000 	.word	0x40010000
 8003908:	40010400 	.word	0x40010400

0800390c <TIM_OC2_SetConfig>:
  * @param  TIMx to select the TIM peripheral
  * @param  OC_Config The output configuration structure
  * @retval None
  */
void TIM_OC2_SetConfig(TIM_TypeDef *TIMx, TIM_OC_InitTypeDef *OC_Config)
{
 800390c:	b480      	push	{r7}
 800390e:	b087      	sub	sp, #28
 8003910:	af00      	add	r7, sp, #0
 8003912:	6078      	str	r0, [r7, #4]
 8003914:	6039      	str	r1, [r7, #0]
  uint32_t tmpccmrx;
  uint32_t tmpccer;
  uint32_t tmpcr2;

  /* Disable the Channel 2: Reset the CC2E Bit */
  TIMx->CCER &= ~TIM_CCER_CC2E;
 8003916:	687b      	ldr	r3, [r7, #4]
 8003918:	6a1b      	ldr	r3, [r3, #32]
 800391a:	f023 0210 	bic.w	r2, r3, #16
 800391e:	687b      	ldr	r3, [r7, #4]
 8003920:	621a      	str	r2, [r3, #32]

  /* Get the TIMx CCER register value */
  tmpccer = TIMx->CCER;
 8003922:	687b      	ldr	r3, [r7, #4]
 8003924:	6a1b      	ldr	r3, [r3, #32]
 8003926:	617b      	str	r3, [r7, #20]
  /* Get the TIMx CR2 register value */
  tmpcr2 =  TIMx->CR2;
 8003928:	687b      	ldr	r3, [r7, #4]
 800392a:	685b      	ldr	r3, [r3, #4]
 800392c:	613b      	str	r3, [r7, #16]

  /* Get the TIMx CCMR1 register value */
  tmpccmrx = TIMx->CCMR1;
 800392e:	687b      	ldr	r3, [r7, #4]
 8003930:	699b      	ldr	r3, [r3, #24]
 8003932:	60fb      	str	r3, [r7, #12]

  /* Reset the Output Compare mode and Capture/Compare selection Bits */
  tmpccmrx &= ~TIM_CCMR1_OC2M;
 8003934:	68fb      	ldr	r3, [r7, #12]
 8003936:	f423 43e0 	bic.w	r3, r3, #28672	; 0x7000
 800393a:	60fb      	str	r3, [r7, #12]
  tmpccmrx &= ~TIM_CCMR1_CC2S;
 800393c:	68fb      	ldr	r3, [r7, #12]
 800393e:	f423 7340 	bic.w	r3, r3, #768	; 0x300
 8003942:	60fb      	str	r3, [r7, #12]

  /* Select the Output Compare Mode */
  tmpccmrx |= (OC_Config->OCMode << 8U);
 8003944:	683b      	ldr	r3, [r7, #0]
 8003946:	681b      	ldr	r3, [r3, #0]
 8003948:	021b      	lsls	r3, r3, #8
 800394a:	68fa      	ldr	r2, [r7, #12]
 800394c:	4313      	orrs	r3, r2
 800394e:	60fb      	str	r3, [r7, #12]

  /* Reset the Output Polarity level */
  tmpccer &= ~TIM_CCER_CC2P;
 8003950:	697b      	ldr	r3, [r7, #20]
 8003952:	f023 0320 	bic.w	r3, r3, #32
 8003956:	617b      	str	r3, [r7, #20]
  /* Set the Output Compare Polarity */
  tmpccer |= (OC_Config->OCPolarity << 4U);
 8003958:	683b      	ldr	r3, [r7, #0]
 800395a:	689b      	ldr	r3, [r3, #8]
 800395c:	011b      	lsls	r3, r3, #4
 800395e:	697a      	ldr	r2, [r7, #20]
 8003960:	4313      	orrs	r3, r2
 8003962:	617b      	str	r3, [r7, #20]

  if (IS_TIM_CCXN_INSTANCE(TIMx, TIM_CHANNEL_2))
 8003964:	687b      	ldr	r3, [r7, #4]
 8003966:	4a22      	ldr	r2, [pc, #136]	; (80039f0 <TIM_OC2_SetConfig+0xe4>)
 8003968:	4293      	cmp	r3, r2
 800396a:	d003      	beq.n	8003974 <TIM_OC2_SetConfig+0x68>
 800396c:	687b      	ldr	r3, [r7, #4]
 800396e:	4a21      	ldr	r2, [pc, #132]	; (80039f4 <TIM_OC2_SetConfig+0xe8>)
 8003970:	4293      	cmp	r3, r2
 8003972:	d10d      	bne.n	8003990 <TIM_OC2_SetConfig+0x84>
  {
    assert_param(IS_TIM_OCN_POLARITY(OC_Config->OCNPolarity));

    /* Reset the Output N Polarity level */
    tmpccer &= ~TIM_CCER_CC2NP;
 8003974:	697b      	ldr	r3, [r7, #20]
 8003976:	f023 0380 	bic.w	r3, r3, #128	; 0x80
 800397a:	617b      	str	r3, [r7, #20]
    /* Set the Output N Polarity */
    tmpccer |= (OC_Config->OCNPolarity << 4U);
 800397c:	683b      	ldr	r3, [r7, #0]
 800397e:	68db      	ldr	r3, [r3, #12]
 8003980:	011b      	lsls	r3, r3, #4
 8003982:	697a      	ldr	r2, [r7, #20]
 8003984:	4313      	orrs	r3, r2
 8003986:	617b      	str	r3, [r7, #20]
    /* Reset the Output N State */
    tmpccer &= ~TIM_CCER_CC2NE;
 8003988:	697b      	ldr	r3, [r7, #20]
 800398a:	f023 0340 	bic.w	r3, r3, #64	; 0x40
 800398e:	617b      	str	r3, [r7, #20]

  }

  if (IS_TIM_BREAK_INSTANCE(TIMx))
 8003990:	687b      	ldr	r3, [r7, #4]
 8003992:	4a17      	ldr	r2, [pc, #92]	; (80039f0 <TIM_OC2_SetConfig+0xe4>)
 8003994:	4293      	cmp	r3, r2
 8003996:	d003      	beq.n	80039a0 <TIM_OC2_SetConfig+0x94>
 8003998:	687b      	ldr	r3, [r7, #4]
 800399a:	4a16      	ldr	r2, [pc, #88]	; (80039f4 <TIM_OC2_SetConfig+0xe8>)
 800399c:	4293      	cmp	r3, r2
 800399e:	d113      	bne.n	80039c8 <TIM_OC2_SetConfig+0xbc>
    /* Check parameters */
    assert_param(IS_TIM_OCNIDLE_STATE(OC_Config->OCNIdleState));
    assert_param(IS_TIM_OCIDLE_STATE(OC_Config->OCIdleState));

    /* Reset the Output Compare and Output Compare N IDLE State */
    tmpcr2 &= ~TIM_CR2_OIS2;
 80039a0:	693b      	ldr	r3, [r7, #16]
 80039a2:	f423 6380 	bic.w	r3, r3, #1024	; 0x400
 80039a6:	613b      	str	r3, [r7, #16]
    tmpcr2 &= ~TIM_CR2_OIS2N;
 80039a8:	693b      	ldr	r3, [r7, #16]
 80039aa:	f423 6300 	bic.w	r3, r3, #2048	; 0x800
 80039ae:	613b      	str	r3, [r7, #16]
    /* Set the Output Idle state */
    tmpcr2 |= (OC_Config->OCIdleState << 2U);
 80039b0:	683b      	ldr	r3, [r7, #0]
 80039b2:	695b      	ldr	r3, [r3, #20]
 80039b4:	009b      	lsls	r3, r3, #2
 80039b6:	693a      	ldr	r2, [r7, #16]
 80039b8:	4313      	orrs	r3, r2
 80039ba:	613b      	str	r3, [r7, #16]
    /* Set the Output N Idle state */
    tmpcr2 |= (OC_Config->OCNIdleState << 2U);
 80039bc:	683b      	ldr	r3, [r7, #0]
 80039be:	699b      	ldr	r3, [r3, #24]
 80039c0:	009b      	lsls	r3, r3, #2
 80039c2:	693a      	ldr	r2, [r7, #16]
 80039c4:	4313      	orrs	r3, r2
 80039c6:	613b      	str	r3, [r7, #16]
  }

  /* Write to TIMx CR2 */
  TIMx->CR2 = tmpcr2;
 80039c8:	687b      	ldr	r3, [r7, #4]
 80039ca:	693a      	ldr	r2, [r7, #16]
 80039cc:	605a      	str	r2, [r3, #4]

  /* Write to TIMx CCMR1 */
  TIMx->CCMR1 = tmpccmrx;
 80039ce:	687b      	ldr	r3, [r7, #4]
 80039d0:	68fa      	ldr	r2, [r7, #12]
 80039d2:	619a      	str	r2, [r3, #24]

  /* Set the Capture Compare Register value */
  TIMx->CCR2 = OC_Config->Pulse;
 80039d4:	683b      	ldr	r3, [r7, #0]
 80039d6:	685a      	ldr	r2, [r3, #4]
 80039d8:	687b      	ldr	r3, [r7, #4]
 80039da:	639a      	str	r2, [r3, #56]	; 0x38

  /* Write to TIMx CCER */
  TIMx->CCER = tmpccer;
 80039dc:	687b      	ldr	r3, [r7, #4]
 80039de:	697a      	ldr	r2, [r7, #20]
 80039e0:	621a      	str	r2, [r3, #32]
}
 80039e2:	bf00      	nop
 80039e4:	371c      	adds	r7, #28
 80039e6:	46bd      	mov	sp, r7
 80039e8:	f85d 7b04 	ldr.w	r7, [sp], #4
 80039ec:	4770      	bx	lr
 80039ee:	bf00      	nop
 80039f0:	40010000 	.word	0x40010000
 80039f4:	40010400 	.word	0x40010400

080039f8 <TIM_OC3_SetConfig>:
  * @param  TIMx to select the TIM peripheral
  * @param  OC_Config The output configuration structure
  * @retval None
  */
static void TIM_OC3_SetConfig(TIM_TypeDef *TIMx, TIM_OC_InitTypeDef *OC_Config)
{
 80039f8:	b480      	push	{r7}
 80039fa:	b087      	sub	sp, #28
 80039fc:	af00      	add	r7, sp, #0
 80039fe:	6078      	str	r0, [r7, #4]
 8003a00:	6039      	str	r1, [r7, #0]
  uint32_t tmpccmrx;
  uint32_t tmpccer;
  uint32_t tmpcr2;

  /* Disable the Channel 3: Reset the CC2E Bit */
  TIMx->CCER &= ~TIM_CCER_CC3E;
 8003a02:	687b      	ldr	r3, [r7, #4]
 8003a04:	6a1b      	ldr	r3, [r3, #32]
 8003a06:	f423 7280 	bic.w	r2, r3, #256	; 0x100
 8003a0a:	687b      	ldr	r3, [r7, #4]
 8003a0c:	621a      	str	r2, [r3, #32]

  /* Get the TIMx CCER register value */
  tmpccer = TIMx->CCER;
 8003a0e:	687b      	ldr	r3, [r7, #4]
 8003a10:	6a1b      	ldr	r3, [r3, #32]
 8003a12:	617b      	str	r3, [r7, #20]
  /* Get the TIMx CR2 register value */
  tmpcr2 =  TIMx->CR2;
 8003a14:	687b      	ldr	r3, [r7, #4]
 8003a16:	685b      	ldr	r3, [r3, #4]
 8003a18:	613b      	str	r3, [r7, #16]

  /* Get the TIMx CCMR2 register value */
  tmpccmrx = TIMx->CCMR2;
 8003a1a:	687b      	ldr	r3, [r7, #4]
 8003a1c:	69db      	ldr	r3, [r3, #28]
 8003a1e:	60fb      	str	r3, [r7, #12]

  /* Reset the Output Compare mode and Capture/Compare selection Bits */
  tmpccmrx &= ~TIM_CCMR2_OC3M;
 8003a20:	68fb      	ldr	r3, [r7, #12]
 8003a22:	f023 0370 	bic.w	r3, r3, #112	; 0x70
 8003a26:	60fb      	str	r3, [r7, #12]
  tmpccmrx &= ~TIM_CCMR2_CC3S;
 8003a28:	68fb      	ldr	r3, [r7, #12]
 8003a2a:	f023 0303 	bic.w	r3, r3, #3
 8003a2e:	60fb      	str	r3, [r7, #12]
  /* Select the Output Compare Mode */
  tmpccmrx |= OC_Config->OCMode;
 8003a30:	683b      	ldr	r3, [r7, #0]
 8003a32:	681b      	ldr	r3, [r3, #0]
 8003a34:	68fa      	ldr	r2, [r7, #12]
 8003a36:	4313      	orrs	r3, r2
 8003a38:	60fb      	str	r3, [r7, #12]

  /* Reset the Output Polarity level */
  tmpccer &= ~TIM_CCER_CC3P;
 8003a3a:	697b      	ldr	r3, [r7, #20]
 8003a3c:	f423 7300 	bic.w	r3, r3, #512	; 0x200
 8003a40:	617b      	str	r3, [r7, #20]
  /* Set the Output Compare Polarity */
  tmpccer |= (OC_Config->OCPolarity << 8U);
 8003a42:	683b      	ldr	r3, [r7, #0]
 8003a44:	689b      	ldr	r3, [r3, #8]
 8003a46:	021b      	lsls	r3, r3, #8
 8003a48:	697a      	ldr	r2, [r7, #20]
 8003a4a:	4313      	orrs	r3, r2
 8003a4c:	617b      	str	r3, [r7, #20]

  if (IS_TIM_CCXN_INSTANCE(TIMx, TIM_CHANNEL_3))
 8003a4e:	687b      	ldr	r3, [r7, #4]
 8003a50:	4a21      	ldr	r2, [pc, #132]	; (8003ad8 <TIM_OC3_SetConfig+0xe0>)
 8003a52:	4293      	cmp	r3, r2
 8003a54:	d003      	beq.n	8003a5e <TIM_OC3_SetConfig+0x66>
 8003a56:	687b      	ldr	r3, [r7, #4]
 8003a58:	4a20      	ldr	r2, [pc, #128]	; (8003adc <TIM_OC3_SetConfig+0xe4>)
 8003a5a:	4293      	cmp	r3, r2
 8003a5c:	d10d      	bne.n	8003a7a <TIM_OC3_SetConfig+0x82>
  {
    assert_param(IS_TIM_OCN_POLARITY(OC_Config->OCNPolarity));

    /* Reset the Output N Polarity level */
    tmpccer &= ~TIM_CCER_CC3NP;
 8003a5e:	697b      	ldr	r3, [r7, #20]
 8003a60:	f423 6300 	bic.w	r3, r3, #2048	; 0x800
 8003a64:	617b      	str	r3, [r7, #20]
    /* Set the Output N Polarity */
    tmpccer |= (OC_Config->OCNPolarity << 8U);
 8003a66:	683b      	ldr	r3, [r7, #0]
 8003a68:	68db      	ldr	r3, [r3, #12]
 8003a6a:	021b      	lsls	r3, r3, #8
 8003a6c:	697a      	ldr	r2, [r7, #20]
 8003a6e:	4313      	orrs	r3, r2
 8003a70:	617b      	str	r3, [r7, #20]
    /* Reset the Output N State */
    tmpccer &= ~TIM_CCER_CC3NE;
 8003a72:	697b      	ldr	r3, [r7, #20]
 8003a74:	f423 6380 	bic.w	r3, r3, #1024	; 0x400
 8003a78:	617b      	str	r3, [r7, #20]
  }

  if (IS_TIM_BREAK_INSTANCE(TIMx))
 8003a7a:	687b      	ldr	r3, [r7, #4]
 8003a7c:	4a16      	ldr	r2, [pc, #88]	; (8003ad8 <TIM_OC3_SetConfig+0xe0>)
 8003a7e:	4293      	cmp	r3, r2
 8003a80:	d003      	beq.n	8003a8a <TIM_OC3_SetConfig+0x92>
 8003a82:	687b      	ldr	r3, [r7, #4]
 8003a84:	4a15      	ldr	r2, [pc, #84]	; (8003adc <TIM_OC3_SetConfig+0xe4>)
 8003a86:	4293      	cmp	r3, r2
 8003a88:	d113      	bne.n	8003ab2 <TIM_OC3_SetConfig+0xba>
    /* Check parameters */
    assert_param(IS_TIM_OCNIDLE_STATE(OC_Config->OCNIdleState));
    assert_param(IS_TIM_OCIDLE_STATE(OC_Config->OCIdleState));

    /* Reset the Output Compare and Output Compare N IDLE State */
    tmpcr2 &= ~TIM_CR2_OIS3;
 8003a8a:	693b      	ldr	r3, [r7, #16]
 8003a8c:	f423 5380 	bic.w	r3, r3, #4096	; 0x1000
 8003a90:	613b      	str	r3, [r7, #16]
    tmpcr2 &= ~TIM_CR2_OIS3N;
 8003a92:	693b      	ldr	r3, [r7, #16]
 8003a94:	f423 5300 	bic.w	r3, r3, #8192	; 0x2000
 8003a98:	613b      	str	r3, [r7, #16]
    /* Set the Output Idle state */
    tmpcr2 |= (OC_Config->OCIdleState << 4U);
 8003a9a:	683b      	ldr	r3, [r7, #0]
 8003a9c:	695b      	ldr	r3, [r3, #20]
 8003a9e:	011b      	lsls	r3, r3, #4
 8003aa0:	693a      	ldr	r2, [r7, #16]
 8003aa2:	4313      	orrs	r3, r2
 8003aa4:	613b      	str	r3, [r7, #16]
    /* Set the Output N Idle state */
    tmpcr2 |= (OC_Config->OCNIdleState << 4U);
 8003aa6:	683b      	ldr	r3, [r7, #0]
 8003aa8:	699b      	ldr	r3, [r3, #24]
 8003aaa:	011b      	lsls	r3, r3, #4
 8003aac:	693a      	ldr	r2, [r7, #16]
 8003aae:	4313      	orrs	r3, r2
 8003ab0:	613b      	str	r3, [r7, #16]
  }

  /* Write to TIMx CR2 */
  TIMx->CR2 = tmpcr2;
 8003ab2:	687b      	ldr	r3, [r7, #4]
 8003ab4:	693a      	ldr	r2, [r7, #16]
 8003ab6:	605a      	str	r2, [r3, #4]

  /* Write to TIMx CCMR2 */
  TIMx->CCMR2 = tmpccmrx;
 8003ab8:	687b      	ldr	r3, [r7, #4]
 8003aba:	68fa      	ldr	r2, [r7, #12]
 8003abc:	61da      	str	r2, [r3, #28]

  /* Set the Capture Compare Register value */
  TIMx->CCR3 = OC_Config->Pulse;
 8003abe:	683b      	ldr	r3, [r7, #0]
 8003ac0:	685a      	ldr	r2, [r3, #4]
 8003ac2:	687b      	ldr	r3, [r7, #4]
 8003ac4:	63da      	str	r2, [r3, #60]	; 0x3c

  /* Write to TIMx CCER */
  TIMx->CCER = tmpccer;
 8003ac6:	687b      	ldr	r3, [r7, #4]
 8003ac8:	697a      	ldr	r2, [r7, #20]
 8003aca:	621a      	str	r2, [r3, #32]
}
 8003acc:	bf00      	nop
 8003ace:	371c      	adds	r7, #28
 8003ad0:	46bd      	mov	sp, r7
 8003ad2:	f85d 7b04 	ldr.w	r7, [sp], #4
 8003ad6:	4770      	bx	lr
 8003ad8:	40010000 	.word	0x40010000
 8003adc:	40010400 	.word	0x40010400

08003ae0 <TIM_OC4_SetConfig>:
  * @param  TIMx to select the TIM peripheral
  * @param  OC_Config The output configuration structure
  * @retval None
  */
static void TIM_OC4_SetConfig(TIM_TypeDef *TIMx, TIM_OC_InitTypeDef *OC_Config)
{
 8003ae0:	b480      	push	{r7}
 8003ae2:	b087      	sub	sp, #28
 8003ae4:	af00      	add	r7, sp, #0
 8003ae6:	6078      	str	r0, [r7, #4]
 8003ae8:	6039      	str	r1, [r7, #0]
  uint32_t tmpccmrx;
  uint32_t tmpccer;
  uint32_t tmpcr2;

  /* Disable the Channel 4: Reset the CC4E Bit */
  TIMx->CCER &= ~TIM_CCER_CC4E;
 8003aea:	687b      	ldr	r3, [r7, #4]
 8003aec:	6a1b      	ldr	r3, [r3, #32]
 8003aee:	f423 5280 	bic.w	r2, r3, #4096	; 0x1000
 8003af2:	687b      	ldr	r3, [r7, #4]
 8003af4:	621a      	str	r2, [r3, #32]

  /* Get the TIMx CCER register value */
  tmpccer = TIMx->CCER;
 8003af6:	687b      	ldr	r3, [r7, #4]
 8003af8:	6a1b      	ldr	r3, [r3, #32]
 8003afa:	613b      	str	r3, [r7, #16]
  /* Get the TIMx CR2 register value */
  tmpcr2 =  TIMx->CR2;
 8003afc:	687b      	ldr	r3, [r7, #4]
 8003afe:	685b      	ldr	r3, [r3, #4]
 8003b00:	617b      	str	r3, [r7, #20]

  /* Get the TIMx CCMR2 register value */
  tmpccmrx = TIMx->CCMR2;
 8003b02:	687b      	ldr	r3, [r7, #4]
 8003b04:	69db      	ldr	r3, [r3, #28]
 8003b06:	60fb      	str	r3, [r7, #12]

  /* Reset the Output Compare mode and Capture/Compare selection Bits */
  tmpccmrx &= ~TIM_CCMR2_OC4M;
 8003b08:	68fb      	ldr	r3, [r7, #12]
 8003b0a:	f423 43e0 	bic.w	r3, r3, #28672	; 0x7000
 8003b0e:	60fb      	str	r3, [r7, #12]
  tmpccmrx &= ~TIM_CCMR2_CC4S;
 8003b10:	68fb      	ldr	r3, [r7, #12]
 8003b12:	f423 7340 	bic.w	r3, r3, #768	; 0x300
 8003b16:	60fb      	str	r3, [r7, #12]

  /* Select the Output Compare Mode */
  tmpccmrx |= (OC_Config->OCMode << 8U);
 8003b18:	683b      	ldr	r3, [r7, #0]
 8003b1a:	681b      	ldr	r3, [r3, #0]
 8003b1c:	021b      	lsls	r3, r3, #8
 8003b1e:	68fa      	ldr	r2, [r7, #12]
 8003b20:	4313      	orrs	r3, r2
 8003b22:	60fb      	str	r3, [r7, #12]

  /* Reset the Output Polarity level */
  tmpccer &= ~TIM_CCER_CC4P;
 8003b24:	693b      	ldr	r3, [r7, #16]
 8003b26:	f423 5300 	bic.w	r3, r3, #8192	; 0x2000
 8003b2a:	613b      	str	r3, [r7, #16]
  /* Set the Output Compare Polarity */
  tmpccer |= (OC_Config->OCPolarity << 12U);
 8003b2c:	683b      	ldr	r3, [r7, #0]
 8003b2e:	689b      	ldr	r3, [r3, #8]
 8003b30:	031b      	lsls	r3, r3, #12
 8003b32:	693a      	ldr	r2, [r7, #16]
 8003b34:	4313      	orrs	r3, r2
 8003b36:	613b      	str	r3, [r7, #16]

  if (IS_TIM_BREAK_INSTANCE(TIMx))
 8003b38:	687b      	ldr	r3, [r7, #4]
 8003b3a:	4a12      	ldr	r2, [pc, #72]	; (8003b84 <TIM_OC4_SetConfig+0xa4>)
 8003b3c:	4293      	cmp	r3, r2
 8003b3e:	d003      	beq.n	8003b48 <TIM_OC4_SetConfig+0x68>
 8003b40:	687b      	ldr	r3, [r7, #4]
 8003b42:	4a11      	ldr	r2, [pc, #68]	; (8003b88 <TIM_OC4_SetConfig+0xa8>)
 8003b44:	4293      	cmp	r3, r2
 8003b46:	d109      	bne.n	8003b5c <TIM_OC4_SetConfig+0x7c>
  {
    /* Check parameters */
    assert_param(IS_TIM_OCIDLE_STATE(OC_Config->OCIdleState));

    /* Reset the Output Compare IDLE State */
    tmpcr2 &= ~TIM_CR2_OIS4;
 8003b48:	697b      	ldr	r3, [r7, #20]
 8003b4a:	f423 4380 	bic.w	r3, r3, #16384	; 0x4000
 8003b4e:	617b      	str	r3, [r7, #20]

    /* Set the Output Idle state */
    tmpcr2 |= (OC_Config->OCIdleState << 6U);
 8003b50:	683b      	ldr	r3, [r7, #0]
 8003b52:	695b      	ldr	r3, [r3, #20]
 8003b54:	019b      	lsls	r3, r3, #6
 8003b56:	697a      	ldr	r2, [r7, #20]
 8003b58:	4313      	orrs	r3, r2
 8003b5a:	617b      	str	r3, [r7, #20]
  }

  /* Write to TIMx CR2 */
  TIMx->CR2 = tmpcr2;
 8003b5c:	687b      	ldr	r3, [r7, #4]
 8003b5e:	697a      	ldr	r2, [r7, #20]
 8003b60:	605a      	str	r2, [r3, #4]

  /* Write to TIMx CCMR2 */
  TIMx->CCMR2 = tmpccmrx;
 8003b62:	687b      	ldr	r3, [r7, #4]
 8003b64:	68fa      	ldr	r2, [r7, #12]
 8003b66:	61da      	str	r2, [r3, #28]

  /* Set the Capture Compare Register value */
  TIMx->CCR4 = OC_Config->Pulse;
 8003b68:	683b      	ldr	r3, [r7, #0]
 8003b6a:	685a      	ldr	r2, [r3, #4]
 8003b6c:	687b      	ldr	r3, [r7, #4]
 8003b6e:	641a      	str	r2, [r3, #64]	; 0x40

  /* Write to TIMx CCER */
  TIMx->CCER = tmpccer;
 8003b70:	687b      	ldr	r3, [r7, #4]
 8003b72:	693a      	ldr	r2, [r7, #16]
 8003b74:	621a      	str	r2, [r3, #32]
}
 8003b76:	bf00      	nop
 8003b78:	371c      	adds	r7, #28
 8003b7a:	46bd      	mov	sp, r7
 8003b7c:	f85d 7b04 	ldr.w	r7, [sp], #4
 8003b80:	4770      	bx	lr
 8003b82:	bf00      	nop
 8003b84:	40010000 	.word	0x40010000
 8003b88:	40010400 	.word	0x40010400

08003b8c <TIM_TI1_ConfigInputStage>:
  * @param  TIM_ICFilter Specifies the Input Capture Filter.
  *          This parameter must be a value between 0x00 and 0x0F.
  * @retval None
  */
static void TIM_TI1_ConfigInputStage(TIM_TypeDef *TIMx, uint32_t TIM_ICPolarity, uint32_t TIM_ICFilter)
{
 8003b8c:	b480      	push	{r7}
 8003b8e:	b087      	sub	sp, #28
 8003b90:	af00      	add	r7, sp, #0
 8003b92:	60f8      	str	r0, [r7, #12]
 8003b94:	60b9      	str	r1, [r7, #8]
 8003b96:	607a      	str	r2, [r7, #4]
  uint32_t tmpccmr1;
  uint32_t tmpccer;

  /* Disable the Channel 1: Reset the CC1E Bit */
  tmpccer = TIMx->CCER;
 8003b98:	68fb      	ldr	r3, [r7, #12]
 8003b9a:	6a1b      	ldr	r3, [r3, #32]
 8003b9c:	617b      	str	r3, [r7, #20]
  TIMx->CCER &= ~TIM_CCER_CC1E;
 8003b9e:	68fb      	ldr	r3, [r7, #12]
 8003ba0:	6a1b      	ldr	r3, [r3, #32]
 8003ba2:	f023 0201 	bic.w	r2, r3, #1
 8003ba6:	68fb      	ldr	r3, [r7, #12]
 8003ba8:	621a      	str	r2, [r3, #32]
  tmpccmr1 = TIMx->CCMR1;
 8003baa:	68fb      	ldr	r3, [r7, #12]
 8003bac:	699b      	ldr	r3, [r3, #24]
 8003bae:	613b      	str	r3, [r7, #16]

  /* Set the filter */
  tmpccmr1 &= ~TIM_CCMR1_IC1F;
 8003bb0:	693b      	ldr	r3, [r7, #16]
 8003bb2:	f023 03f0 	bic.w	r3, r3, #240	; 0xf0
 8003bb6:	613b      	str	r3, [r7, #16]
  tmpccmr1 |= (TIM_ICFilter << 4U);
 8003bb8:	687b      	ldr	r3, [r7, #4]
 8003bba:	011b      	lsls	r3, r3, #4
 8003bbc:	693a      	ldr	r2, [r7, #16]
 8003bbe:	4313      	orrs	r3, r2
 8003bc0:	613b      	str	r3, [r7, #16]

  /* Select the Polarity and set the CC1E Bit */
  tmpccer &= ~(TIM_CCER_CC1P | TIM_CCER_CC1NP);
 8003bc2:	697b      	ldr	r3, [r7, #20]
 8003bc4:	f023 030a 	bic.w	r3, r3, #10
 8003bc8:	617b      	str	r3, [r7, #20]
  tmpccer |= TIM_ICPolarity;
 8003bca:	697a      	ldr	r2, [r7, #20]
 8003bcc:	68bb      	ldr	r3, [r7, #8]
 8003bce:	4313      	orrs	r3, r2
 8003bd0:	617b      	str	r3, [r7, #20]

  /* Write to TIMx CCMR1 and CCER registers */
  TIMx->CCMR1 = tmpccmr1;
 8003bd2:	68fb      	ldr	r3, [r7, #12]
 8003bd4:	693a      	ldr	r2, [r7, #16]
 8003bd6:	619a      	str	r2, [r3, #24]
  TIMx->CCER = tmpccer;
 8003bd8:	68fb      	ldr	r3, [r7, #12]
 8003bda:	697a      	ldr	r2, [r7, #20]
 8003bdc:	621a      	str	r2, [r3, #32]
}
 8003bde:	bf00      	nop
 8003be0:	371c      	adds	r7, #28
 8003be2:	46bd      	mov	sp, r7
 8003be4:	f85d 7b04 	ldr.w	r7, [sp], #4
 8003be8:	4770      	bx	lr

08003bea <TIM_TI2_ConfigInputStage>:
  * @param  TIM_ICFilter Specifies the Input Capture Filter.
  *          This parameter must be a value between 0x00 and 0x0F.
  * @retval None
  */
static void TIM_TI2_ConfigInputStage(TIM_TypeDef *TIMx, uint32_t TIM_ICPolarity, uint32_t TIM_ICFilter)
{
 8003bea:	b480      	push	{r7}
 8003bec:	b087      	sub	sp, #28
 8003bee:	af00      	add	r7, sp, #0
 8003bf0:	60f8      	str	r0, [r7, #12]
 8003bf2:	60b9      	str	r1, [r7, #8]
 8003bf4:	607a      	str	r2, [r7, #4]
  uint32_t tmpccmr1;
  uint32_t tmpccer;

  /* Disable the Channel 2: Reset the CC2E Bit */
  TIMx->CCER &= ~TIM_CCER_CC2E;
 8003bf6:	68fb      	ldr	r3, [r7, #12]
 8003bf8:	6a1b      	ldr	r3, [r3, #32]
 8003bfa:	f023 0210 	bic.w	r2, r3, #16
 8003bfe:	68fb      	ldr	r3, [r7, #12]
 8003c00:	621a      	str	r2, [r3, #32]
  tmpccmr1 = TIMx->CCMR1;
 8003c02:	68fb      	ldr	r3, [r7, #12]
 8003c04:	699b      	ldr	r3, [r3, #24]
 8003c06:	617b      	str	r3, [r7, #20]
  tmpccer = TIMx->CCER;
 8003c08:	68fb      	ldr	r3, [r7, #12]
 8003c0a:	6a1b      	ldr	r3, [r3, #32]
 8003c0c:	613b      	str	r3, [r7, #16]

  /* Set the filter */
  tmpccmr1 &= ~TIM_CCMR1_IC2F;
 8003c0e:	697b      	ldr	r3, [r7, #20]
 8003c10:	f423 4370 	bic.w	r3, r3, #61440	; 0xf000
 8003c14:	617b      	str	r3, [r7, #20]
  tmpccmr1 |= (TIM_ICFilter << 12U);
 8003c16:	687b      	ldr	r3, [r7, #4]
 8003c18:	031b      	lsls	r3, r3, #12
 8003c1a:	697a      	ldr	r2, [r7, #20]
 8003c1c:	4313      	orrs	r3, r2
 8003c1e:	617b      	str	r3, [r7, #20]

  /* Select the Polarity and set the CC2E Bit */
  tmpccer &= ~(TIM_CCER_CC2P | TIM_CCER_CC2NP);
 8003c20:	693b      	ldr	r3, [r7, #16]
 8003c22:	f023 03a0 	bic.w	r3, r3, #160	; 0xa0
 8003c26:	613b      	str	r3, [r7, #16]
  tmpccer |= (TIM_ICPolarity << 4U);
 8003c28:	68bb      	ldr	r3, [r7, #8]
 8003c2a:	011b      	lsls	r3, r3, #4
 8003c2c:	693a      	ldr	r2, [r7, #16]
 8003c2e:	4313      	orrs	r3, r2
 8003c30:	613b      	str	r3, [r7, #16]

  /* Write to TIMx CCMR1 and CCER registers */
  TIMx->CCMR1 = tmpccmr1 ;
 8003c32:	68fb      	ldr	r3, [r7, #12]
 8003c34:	697a      	ldr	r2, [r7, #20]
 8003c36:	619a      	str	r2, [r3, #24]
  TIMx->CCER = tmpccer;
 8003c38:	68fb      	ldr	r3, [r7, #12]
 8003c3a:	693a      	ldr	r2, [r7, #16]
 8003c3c:	621a      	str	r2, [r3, #32]
}
 8003c3e:	bf00      	nop
 8003c40:	371c      	adds	r7, #28
 8003c42:	46bd      	mov	sp, r7
 8003c44:	f85d 7b04 	ldr.w	r7, [sp], #4
 8003c48:	4770      	bx	lr

08003c4a <TIM_ITRx_SetConfig>:
  *            @arg TIM_TS_TI2FP2: Filtered Timer Input 2
  *            @arg TIM_TS_ETRF: External Trigger input
  * @retval None
  */
static void TIM_ITRx_SetConfig(TIM_TypeDef *TIMx, uint32_t InputTriggerSource)
{
 8003c4a:	b480      	push	{r7}
 8003c4c:	b085      	sub	sp, #20
 8003c4e:	af00      	add	r7, sp, #0
 8003c50:	6078      	str	r0, [r7, #4]
 8003c52:	6039      	str	r1, [r7, #0]
  uint32_t tmpsmcr;

  /* Get the TIMx SMCR register value */
  tmpsmcr = TIMx->SMCR;
 8003c54:	687b      	ldr	r3, [r7, #4]
 8003c56:	689b      	ldr	r3, [r3, #8]
 8003c58:	60fb      	str	r3, [r7, #12]
  /* Reset the TS Bits */
  tmpsmcr &= ~TIM_SMCR_TS;
 8003c5a:	68fb      	ldr	r3, [r7, #12]
 8003c5c:	f023 0370 	bic.w	r3, r3, #112	; 0x70
 8003c60:	60fb      	str	r3, [r7, #12]
  /* Set the Input Trigger source and the slave mode*/
  tmpsmcr |= (InputTriggerSource | TIM_SLAVEMODE_EXTERNAL1);
 8003c62:	683a      	ldr	r2, [r7, #0]
 8003c64:	68fb      	ldr	r3, [r7, #12]
 8003c66:	4313      	orrs	r3, r2
 8003c68:	f043 0307 	orr.w	r3, r3, #7
 8003c6c:	60fb      	str	r3, [r7, #12]
  /* Write to TIMx SMCR */
  TIMx->SMCR = tmpsmcr;
 8003c6e:	687b      	ldr	r3, [r7, #4]
 8003c70:	68fa      	ldr	r2, [r7, #12]
 8003c72:	609a      	str	r2, [r3, #8]
}
 8003c74:	bf00      	nop
 8003c76:	3714      	adds	r7, #20
 8003c78:	46bd      	mov	sp, r7
 8003c7a:	f85d 7b04 	ldr.w	r7, [sp], #4
 8003c7e:	4770      	bx	lr

08003c80 <TIM_ETR_SetConfig>:
  *          This parameter must be a value between 0x00 and 0x0F
  * @retval None
  */
void TIM_ETR_SetConfig(TIM_TypeDef *TIMx, uint32_t TIM_ExtTRGPrescaler,
                       uint32_t TIM_ExtTRGPolarity, uint32_t ExtTRGFilter)
{
 8003c80:	b480      	push	{r7}
 8003c82:	b087      	sub	sp, #28
 8003c84:	af00      	add	r7, sp, #0
 8003c86:	60f8      	str	r0, [r7, #12]
 8003c88:	60b9      	str	r1, [r7, #8]
 8003c8a:	607a      	str	r2, [r7, #4]
 8003c8c:	603b      	str	r3, [r7, #0]
  uint32_t tmpsmcr;

  tmpsmcr = TIMx->SMCR;
 8003c8e:	68fb      	ldr	r3, [r7, #12]
 8003c90:	689b      	ldr	r3, [r3, #8]
 8003c92:	617b      	str	r3, [r7, #20]

  /* Reset the ETR Bits */
  tmpsmcr &= ~(TIM_SMCR_ETF | TIM_SMCR_ETPS | TIM_SMCR_ECE | TIM_SMCR_ETP);
 8003c94:	697b      	ldr	r3, [r7, #20]
 8003c96:	f423 437f 	bic.w	r3, r3, #65280	; 0xff00
 8003c9a:	617b      	str	r3, [r7, #20]

  /* Set the Prescaler, the Filter value and the Polarity */
  tmpsmcr |= (uint32_t)(TIM_ExtTRGPrescaler | (TIM_ExtTRGPolarity | (ExtTRGFilter << 8U)));
 8003c9c:	683b      	ldr	r3, [r7, #0]
 8003c9e:	021a      	lsls	r2, r3, #8
 8003ca0:	687b      	ldr	r3, [r7, #4]
 8003ca2:	431a      	orrs	r2, r3
 8003ca4:	68bb      	ldr	r3, [r7, #8]
 8003ca6:	4313      	orrs	r3, r2
 8003ca8:	697a      	ldr	r2, [r7, #20]
 8003caa:	4313      	orrs	r3, r2
 8003cac:	617b      	str	r3, [r7, #20]

  /* Write to TIMx SMCR */
  TIMx->SMCR = tmpsmcr;
 8003cae:	68fb      	ldr	r3, [r7, #12]
 8003cb0:	697a      	ldr	r2, [r7, #20]
 8003cb2:	609a      	str	r2, [r3, #8]
}
 8003cb4:	bf00      	nop
 8003cb6:	371c      	adds	r7, #28
 8003cb8:	46bd      	mov	sp, r7
 8003cba:	f85d 7b04 	ldr.w	r7, [sp], #4
 8003cbe:	4770      	bx	lr

08003cc0 <TIM_CCxChannelCmd>:
  * @param  ChannelState specifies the TIM Channel CCxE bit new state.
  *          This parameter can be: TIM_CCx_ENABLE or TIM_CCx_DISABLE.
  * @retval None
  */
void TIM_CCxChannelCmd(TIM_TypeDef *TIMx, uint32_t Channel, uint32_t ChannelState)
{
 8003cc0:	b480      	push	{r7}
 8003cc2:	b087      	sub	sp, #28
 8003cc4:	af00      	add	r7, sp, #0
 8003cc6:	60f8      	str	r0, [r7, #12]
 8003cc8:	60b9      	str	r1, [r7, #8]
 8003cca:	607a      	str	r2, [r7, #4]

  /* Check the parameters */
  assert_param(IS_TIM_CC1_INSTANCE(TIMx));
  assert_param(IS_TIM_CHANNELS(Channel));

  tmp = TIM_CCER_CC1E << (Channel & 0x1FU); /* 0x1FU = 31 bits max shift */
 8003ccc:	68bb      	ldr	r3, [r7, #8]
 8003cce:	f003 031f 	and.w	r3, r3, #31
 8003cd2:	2201      	movs	r2, #1
 8003cd4:	fa02 f303 	lsl.w	r3, r2, r3
 8003cd8:	617b      	str	r3, [r7, #20]

  /* Reset the CCxE Bit */
  TIMx->CCER &= ~tmp;
 8003cda:	68fb      	ldr	r3, [r7, #12]
 8003cdc:	6a1a      	ldr	r2, [r3, #32]
 8003cde:	697b      	ldr	r3, [r7, #20]
 8003ce0:	43db      	mvns	r3, r3
 8003ce2:	401a      	ands	r2, r3
 8003ce4:	68fb      	ldr	r3, [r7, #12]
 8003ce6:	621a      	str	r2, [r3, #32]

  /* Set or reset the CCxE Bit */
  TIMx->CCER |= (uint32_t)(ChannelState << (Channel & 0x1FU)); /* 0x1FU = 31 bits max shift */
 8003ce8:	68fb      	ldr	r3, [r7, #12]
 8003cea:	6a1a      	ldr	r2, [r3, #32]
 8003cec:	68bb      	ldr	r3, [r7, #8]
 8003cee:	f003 031f 	and.w	r3, r3, #31
 8003cf2:	6879      	ldr	r1, [r7, #4]
 8003cf4:	fa01 f303 	lsl.w	r3, r1, r3
 8003cf8:	431a      	orrs	r2, r3
 8003cfa:	68fb      	ldr	r3, [r7, #12]
 8003cfc:	621a      	str	r2, [r3, #32]
}
 8003cfe:	bf00      	nop
 8003d00:	371c      	adds	r7, #28
 8003d02:	46bd      	mov	sp, r7
 8003d04:	f85d 7b04 	ldr.w	r7, [sp], #4
 8003d08:	4770      	bx	lr
	...

08003d0c <HAL_TIMEx_MasterConfigSynchronization>:
  *         mode.
  * @retval HAL status
  */
HAL_StatusTypeDef HAL_TIMEx_MasterConfigSynchronization(TIM_HandleTypeDef *htim,
                                                        TIM_MasterConfigTypeDef *sMasterConfig)
{
 8003d0c:	b480      	push	{r7}
 8003d0e:	b085      	sub	sp, #20
 8003d10:	af00      	add	r7, sp, #0
 8003d12:	6078      	str	r0, [r7, #4]
 8003d14:	6039      	str	r1, [r7, #0]
  assert_param(IS_TIM_MASTER_INSTANCE(htim->Instance));
  assert_param(IS_TIM_TRGO_SOURCE(sMasterConfig->MasterOutputTrigger));
  assert_param(IS_TIM_MSM_STATE(sMasterConfig->MasterSlaveMode));

  /* Check input state */
  __HAL_LOCK(htim);
 8003d16:	687b      	ldr	r3, [r7, #4]
 8003d18:	f893 303c 	ldrb.w	r3, [r3, #60]	; 0x3c
 8003d1c:	2b01      	cmp	r3, #1
 8003d1e:	d101      	bne.n	8003d24 <HAL_TIMEx_MasterConfigSynchronization+0x18>
 8003d20:	2302      	movs	r3, #2
 8003d22:	e05a      	b.n	8003dda <HAL_TIMEx_MasterConfigSynchronization+0xce>
 8003d24:	687b      	ldr	r3, [r7, #4]
 8003d26:	2201      	movs	r2, #1
 8003d28:	f883 203c 	strb.w	r2, [r3, #60]	; 0x3c

  /* Change the handler state */
  htim->State = HAL_TIM_STATE_BUSY;
 8003d2c:	687b      	ldr	r3, [r7, #4]
 8003d2e:	2202      	movs	r2, #2
 8003d30:	f883 203d 	strb.w	r2, [r3, #61]	; 0x3d

  /* Get the TIMx CR2 register value */
  tmpcr2 = htim->Instance->CR2;
 8003d34:	687b      	ldr	r3, [r7, #4]
 8003d36:	681b      	ldr	r3, [r3, #0]
 8003d38:	685b      	ldr	r3, [r3, #4]
 8003d3a:	60fb      	str	r3, [r7, #12]

  /* Get the TIMx SMCR register value */
  tmpsmcr = htim->Instance->SMCR;
 8003d3c:	687b      	ldr	r3, [r7, #4]
 8003d3e:	681b      	ldr	r3, [r3, #0]
 8003d40:	689b      	ldr	r3, [r3, #8]
 8003d42:	60bb      	str	r3, [r7, #8]

  /* Reset the MMS Bits */
  tmpcr2 &= ~TIM_CR2_MMS;
 8003d44:	68fb      	ldr	r3, [r7, #12]
 8003d46:	f023 0370 	bic.w	r3, r3, #112	; 0x70
 8003d4a:	60fb      	str	r3, [r7, #12]
  /* Select the TRGO source */
  tmpcr2 |=  sMasterConfig->MasterOutputTrigger;
 8003d4c:	683b      	ldr	r3, [r7, #0]
 8003d4e:	681b      	ldr	r3, [r3, #0]
 8003d50:	68fa      	ldr	r2, [r7, #12]
 8003d52:	4313      	orrs	r3, r2
 8003d54:	60fb      	str	r3, [r7, #12]

  /* Update TIMx CR2 */
  htim->Instance->CR2 = tmpcr2;
 8003d56:	687b      	ldr	r3, [r7, #4]
 8003d58:	681b      	ldr	r3, [r3, #0]
 8003d5a:	68fa      	ldr	r2, [r7, #12]
 8003d5c:	605a      	str	r2, [r3, #4]

  if (IS_TIM_SLAVE_INSTANCE(htim->Instance))
 8003d5e:	687b      	ldr	r3, [r7, #4]
 8003d60:	681b      	ldr	r3, [r3, #0]
 8003d62:	4a21      	ldr	r2, [pc, #132]	; (8003de8 <HAL_TIMEx_MasterConfigSynchronization+0xdc>)
 8003d64:	4293      	cmp	r3, r2
 8003d66:	d022      	beq.n	8003dae <HAL_TIMEx_MasterConfigSynchronization+0xa2>
 8003d68:	687b      	ldr	r3, [r7, #4]
 8003d6a:	681b      	ldr	r3, [r3, #0]
 8003d6c:	f1b3 4f80 	cmp.w	r3, #1073741824	; 0x40000000
 8003d70:	d01d      	beq.n	8003dae <HAL_TIMEx_MasterConfigSynchronization+0xa2>
 8003d72:	687b      	ldr	r3, [r7, #4]
 8003d74:	681b      	ldr	r3, [r3, #0]
 8003d76:	4a1d      	ldr	r2, [pc, #116]	; (8003dec <HAL_TIMEx_MasterConfigSynchronization+0xe0>)
 8003d78:	4293      	cmp	r3, r2
 8003d7a:	d018      	beq.n	8003dae <HAL_TIMEx_MasterConfigSynchronization+0xa2>
 8003d7c:	687b      	ldr	r3, [r7, #4]
 8003d7e:	681b      	ldr	r3, [r3, #0]
 8003d80:	4a1b      	ldr	r2, [pc, #108]	; (8003df0 <HAL_TIMEx_MasterConfigSynchronization+0xe4>)
 8003d82:	4293      	cmp	r3, r2
 8003d84:	d013      	beq.n	8003dae <HAL_TIMEx_MasterConfigSynchronization+0xa2>
 8003d86:	687b      	ldr	r3, [r7, #4]
 8003d88:	681b      	ldr	r3, [r3, #0]
 8003d8a:	4a1a      	ldr	r2, [pc, #104]	; (8003df4 <HAL_TIMEx_MasterConfigSynchronization+0xe8>)
 8003d8c:	4293      	cmp	r3, r2
 8003d8e:	d00e      	beq.n	8003dae <HAL_TIMEx_MasterConfigSynchronization+0xa2>
 8003d90:	687b      	ldr	r3, [r7, #4]
 8003d92:	681b      	ldr	r3, [r3, #0]
 8003d94:	4a18      	ldr	r2, [pc, #96]	; (8003df8 <HAL_TIMEx_MasterConfigSynchronization+0xec>)
 8003d96:	4293      	cmp	r3, r2
 8003d98:	d009      	beq.n	8003dae <HAL_TIMEx_MasterConfigSynchronization+0xa2>
 8003d9a:	687b      	ldr	r3, [r7, #4]
 8003d9c:	681b      	ldr	r3, [r3, #0]
 8003d9e:	4a17      	ldr	r2, [pc, #92]	; (8003dfc <HAL_TIMEx_MasterConfigSynchronization+0xf0>)
 8003da0:	4293      	cmp	r3, r2
 8003da2:	d004      	beq.n	8003dae <HAL_TIMEx_MasterConfigSynchronization+0xa2>
 8003da4:	687b      	ldr	r3, [r7, #4]
 8003da6:	681b      	ldr	r3, [r3, #0]
 8003da8:	4a15      	ldr	r2, [pc, #84]	; (8003e00 <HAL_TIMEx_MasterConfigSynchronization+0xf4>)
 8003daa:	4293      	cmp	r3, r2
 8003dac:	d10c      	bne.n	8003dc8 <HAL_TIMEx_MasterConfigSynchronization+0xbc>
  {
    /* Reset the MSM Bit */
    tmpsmcr &= ~TIM_SMCR_MSM;
 8003dae:	68bb      	ldr	r3, [r7, #8]
 8003db0:	f023 0380 	bic.w	r3, r3, #128	; 0x80
 8003db4:	60bb      	str	r3, [r7, #8]
    /* Set master mode */
    tmpsmcr |= sMasterConfig->MasterSlaveMode;
 8003db6:	683b      	ldr	r3, [r7, #0]
 8003db8:	685b      	ldr	r3, [r3, #4]
 8003dba:	68ba      	ldr	r2, [r7, #8]
 8003dbc:	4313      	orrs	r3, r2
 8003dbe:	60bb      	str	r3, [r7, #8]

    /* Update TIMx SMCR */
    htim->Instance->SMCR = tmpsmcr;
 8003dc0:	687b      	ldr	r3, [r7, #4]
 8003dc2:	681b      	ldr	r3, [r3, #0]
 8003dc4:	68ba      	ldr	r2, [r7, #8]
 8003dc6:	609a      	str	r2, [r3, #8]
  }

  /* Change the htim state */
  htim->State = HAL_TIM_STATE_READY;
 8003dc8:	687b      	ldr	r3, [r7, #4]
 8003dca:	2201      	movs	r2, #1
 8003dcc:	f883 203d 	strb.w	r2, [r3, #61]	; 0x3d

  __HAL_UNLOCK(htim);
 8003dd0:	687b      	ldr	r3, [r7, #4]
 8003dd2:	2200      	movs	r2, #0
 8003dd4:	f883 203c 	strb.w	r2, [r3, #60]	; 0x3c

  return HAL_OK;
 8003dd8:	2300      	movs	r3, #0
}
 8003dda:	4618      	mov	r0, r3
 8003ddc:	3714      	adds	r7, #20
 8003dde:	46bd      	mov	sp, r7
 8003de0:	f85d 7b04 	ldr.w	r7, [sp], #4
 8003de4:	4770      	bx	lr
 8003de6:	bf00      	nop
 8003de8:	40010000 	.word	0x40010000
 8003dec:	40000400 	.word	0x40000400
 8003df0:	40000800 	.word	0x40000800
 8003df4:	40000c00 	.word	0x40000c00
 8003df8:	40010400 	.word	0x40010400
 8003dfc:	40014000 	.word	0x40014000
 8003e00:	40001800 	.word	0x40001800

08003e04 <HAL_TIMEx_CommutCallback>:
  * @brief  Hall commutation changed callback in non-blocking mode
  * @param  htim TIM handle
  * @retval None
  */
__weak void HAL_TIMEx_CommutCallback(TIM_HandleTypeDef *htim)
{
 8003e04:	b480      	push	{r7}
 8003e06:	b083      	sub	sp, #12
 8003e08:	af00      	add	r7, sp, #0
 8003e0a:	6078      	str	r0, [r7, #4]
  UNUSED(htim);

  /* NOTE : This function should not be modified, when the callback is needed,
            the HAL_TIMEx_CommutCallback could be implemented in the user file
   */
}
 8003e0c:	bf00      	nop
 8003e0e:	370c      	adds	r7, #12
 8003e10:	46bd      	mov	sp, r7
 8003e12:	f85d 7b04 	ldr.w	r7, [sp], #4
 8003e16:	4770      	bx	lr

08003e18 <HAL_TIMEx_BreakCallback>:
  * @brief  Hall Break detection callback in non-blocking mode
  * @param  htim TIM handle
  * @retval None
  */
__weak void HAL_TIMEx_BreakCallback(TIM_HandleTypeDef *htim)
{
 8003e18:	b480      	push	{r7}
 8003e1a:	b083      	sub	sp, #12
 8003e1c:	af00      	add	r7, sp, #0
 8003e1e:	6078      	str	r0, [r7, #4]
  UNUSED(htim);

  /* NOTE : This function should not be modified, when the callback is needed,
            the HAL_TIMEx_BreakCallback could be implemented in the user file
   */
}
 8003e20:	bf00      	nop
 8003e22:	370c      	adds	r7, #12
 8003e24:	46bd      	mov	sp, r7
 8003e26:	f85d 7b04 	ldr.w	r7, [sp], #4
 8003e2a:	4770      	bx	lr

08003e2c <HAL_UART_Init>:
  * @param  huart  Pointer to a UART_HandleTypeDef structure that contains
  *                the configuration information for the specified UART module.
  * @retval HAL status
  */
HAL_StatusTypeDef HAL_UART_Init(UART_HandleTypeDef *huart)
{
 8003e2c:	b580      	push	{r7, lr}
 8003e2e:	b082      	sub	sp, #8
 8003e30:	af00      	add	r7, sp, #0
 8003e32:	6078      	str	r0, [r7, #4]
  /* Check the UART handle allocation */
  if (huart == NULL)
 8003e34:	687b      	ldr	r3, [r7, #4]
 8003e36:	2b00      	cmp	r3, #0
 8003e38:	d101      	bne.n	8003e3e <HAL_UART_Init+0x12>
  {
    return HAL_ERROR;
 8003e3a:	2301      	movs	r3, #1
 8003e3c:	e03f      	b.n	8003ebe <HAL_UART_Init+0x92>
    assert_param(IS_UART_INSTANCE(huart->Instance));
  }
  assert_param(IS_UART_WORD_LENGTH(huart->Init.WordLength));
  assert_param(IS_UART_OVERSAMPLING(huart->Init.OverSampling));

  if (huart->gState == HAL_UART_STATE_RESET)
 8003e3e:	687b      	ldr	r3, [r7, #4]
 8003e40:	f893 303d 	ldrb.w	r3, [r3, #61]	; 0x3d
 8003e44:	b2db      	uxtb	r3, r3
 8003e46:	2b00      	cmp	r3, #0
 8003e48:	d106      	bne.n	8003e58 <HAL_UART_Init+0x2c>
  {
    /* Allocate lock resource and initialize it */
    huart->Lock = HAL_UNLOCKED;
 8003e4a:	687b      	ldr	r3, [r7, #4]
 8003e4c:	2200      	movs	r2, #0
 8003e4e:	f883 203c 	strb.w	r2, [r3, #60]	; 0x3c

    /* Init the low level hardware */
    huart->MspInitCallback(huart);
#else
    /* Init the low level hardware : GPIO, CLOCK */
    HAL_UART_MspInit(huart);
 8003e52:	6878      	ldr	r0, [r7, #4]
 8003e54:	f7fd f964 	bl	8001120 <HAL_UART_MspInit>
#endif /* (USE_HAL_UART_REGISTER_CALLBACKS) */
  }

  huart->gState = HAL_UART_STATE_BUSY;
 8003e58:	687b      	ldr	r3, [r7, #4]
 8003e5a:	2224      	movs	r2, #36	; 0x24
 8003e5c:	f883 203d 	strb.w	r2, [r3, #61]	; 0x3d

  /* Disable the peripheral */
  __HAL_UART_DISABLE(huart);
 8003e60:	687b      	ldr	r3, [r7, #4]
 8003e62:	681b      	ldr	r3, [r3, #0]
 8003e64:	68da      	ldr	r2, [r3, #12]
 8003e66:	687b      	ldr	r3, [r7, #4]
 8003e68:	681b      	ldr	r3, [r3, #0]
 8003e6a:	f422 5200 	bic.w	r2, r2, #8192	; 0x2000
 8003e6e:	60da      	str	r2, [r3, #12]

  /* Set the UART Communication parameters */
  UART_SetConfig(huart);
 8003e70:	6878      	ldr	r0, [r7, #4]
 8003e72:	f000 fe19 	bl	8004aa8 <UART_SetConfig>

  /* In asynchronous mode, the following bits must be kept cleared:
     - LINEN and CLKEN bits in the USART_CR2 register,
     - SCEN, HDSEL and IREN  bits in the USART_CR3 register.*/
  CLEAR_BIT(huart->Instance->CR2, (USART_CR2_LINEN | USART_CR2_CLKEN));
 8003e76:	687b      	ldr	r3, [r7, #4]
 8003e78:	681b      	ldr	r3, [r3, #0]
 8003e7a:	691a      	ldr	r2, [r3, #16]
 8003e7c:	687b      	ldr	r3, [r7, #4]
 8003e7e:	681b      	ldr	r3, [r3, #0]
 8003e80:	f422 4290 	bic.w	r2, r2, #18432	; 0x4800
 8003e84:	611a      	str	r2, [r3, #16]
  CLEAR_BIT(huart->Instance->CR3, (USART_CR3_SCEN | USART_CR3_HDSEL | USART_CR3_IREN));
 8003e86:	687b      	ldr	r3, [r7, #4]
 8003e88:	681b      	ldr	r3, [r3, #0]
 8003e8a:	695a      	ldr	r2, [r3, #20]
 8003e8c:	687b      	ldr	r3, [r7, #4]
 8003e8e:	681b      	ldr	r3, [r3, #0]
 8003e90:	f022 022a 	bic.w	r2, r2, #42	; 0x2a
 8003e94:	615a      	str	r2, [r3, #20]

  /* Enable the peripheral */
  __HAL_UART_ENABLE(huart);
 8003e96:	687b      	ldr	r3, [r7, #4]
 8003e98:	681b      	ldr	r3, [r3, #0]
 8003e9a:	68da      	ldr	r2, [r3, #12]
 8003e9c:	687b      	ldr	r3, [r7, #4]
 8003e9e:	681b      	ldr	r3, [r3, #0]
 8003ea0:	f442 5200 	orr.w	r2, r2, #8192	; 0x2000
 8003ea4:	60da      	str	r2, [r3, #12]

  /* Initialize the UART state */
  huart->ErrorCode = HAL_UART_ERROR_NONE;
 8003ea6:	687b      	ldr	r3, [r7, #4]
 8003ea8:	2200      	movs	r2, #0
 8003eaa:	641a      	str	r2, [r3, #64]	; 0x40
  huart->gState = HAL_UART_STATE_READY;
 8003eac:	687b      	ldr	r3, [r7, #4]
 8003eae:	2220      	movs	r2, #32
 8003eb0:	f883 203d 	strb.w	r2, [r3, #61]	; 0x3d
  huart->RxState = HAL_UART_STATE_READY;
 8003eb4:	687b      	ldr	r3, [r7, #4]
 8003eb6:	2220      	movs	r2, #32
 8003eb8:	f883 203e 	strb.w	r2, [r3, #62]	; 0x3e

  return HAL_OK;
 8003ebc:	2300      	movs	r3, #0
}
 8003ebe:	4618      	mov	r0, r3
 8003ec0:	3708      	adds	r7, #8
 8003ec2:	46bd      	mov	sp, r7
 8003ec4:	bd80      	pop	{r7, pc}

08003ec6 <HAL_UART_Transmit>:
  * @param  Size  Amount of data elements (u8 or u16) to be sent
  * @param  Timeout Timeout duration
  * @retval HAL status
  */
HAL_StatusTypeDef HAL_UART_Transmit(UART_HandleTypeDef *huart, uint8_t *pData, uint16_t Size, uint32_t Timeout)
{
 8003ec6:	b580      	push	{r7, lr}
 8003ec8:	b08a      	sub	sp, #40	; 0x28
 8003eca:	af02      	add	r7, sp, #8
 8003ecc:	60f8      	str	r0, [r7, #12]
 8003ece:	60b9      	str	r1, [r7, #8]
 8003ed0:	603b      	str	r3, [r7, #0]
 8003ed2:	4613      	mov	r3, r2
 8003ed4:	80fb      	strh	r3, [r7, #6]
  uint8_t  *pdata8bits;
  uint16_t *pdata16bits;
  uint32_t tickstart = 0U;
 8003ed6:	2300      	movs	r3, #0
 8003ed8:	617b      	str	r3, [r7, #20]

  /* Check that a Tx process is not already ongoing */
  if (huart->gState == HAL_UART_STATE_READY)
 8003eda:	68fb      	ldr	r3, [r7, #12]
 8003edc:	f893 303d 	ldrb.w	r3, [r3, #61]	; 0x3d
 8003ee0:	b2db      	uxtb	r3, r3
 8003ee2:	2b20      	cmp	r3, #32
 8003ee4:	d17c      	bne.n	8003fe0 <HAL_UART_Transmit+0x11a>
  {
    if ((pData == NULL) || (Size == 0U))
 8003ee6:	68bb      	ldr	r3, [r7, #8]
 8003ee8:	2b00      	cmp	r3, #0
 8003eea:	d002      	beq.n	8003ef2 <HAL_UART_Transmit+0x2c>
 8003eec:	88fb      	ldrh	r3, [r7, #6]
 8003eee:	2b00      	cmp	r3, #0
 8003ef0:	d101      	bne.n	8003ef6 <HAL_UART_Transmit+0x30>
    {
      return  HAL_ERROR;
 8003ef2:	2301      	movs	r3, #1
 8003ef4:	e075      	b.n	8003fe2 <HAL_UART_Transmit+0x11c>
    }

    /* Process Locked */
    __HAL_LOCK(huart);
 8003ef6:	68fb      	ldr	r3, [r7, #12]
 8003ef8:	f893 303c 	ldrb.w	r3, [r3, #60]	; 0x3c
 8003efc:	2b01      	cmp	r3, #1
 8003efe:	d101      	bne.n	8003f04 <HAL_UART_Transmit+0x3e>
 8003f00:	2302      	movs	r3, #2
 8003f02:	e06e      	b.n	8003fe2 <HAL_UART_Transmit+0x11c>
 8003f04:	68fb      	ldr	r3, [r7, #12]
 8003f06:	2201      	movs	r2, #1
 8003f08:	f883 203c 	strb.w	r2, [r3, #60]	; 0x3c

    huart->ErrorCode = HAL_UART_ERROR_NONE;
 8003f0c:	68fb      	ldr	r3, [r7, #12]
 8003f0e:	2200      	movs	r2, #0
 8003f10:	641a      	str	r2, [r3, #64]	; 0x40
    huart->gState = HAL_UART_STATE_BUSY_TX;
 8003f12:	68fb      	ldr	r3, [r7, #12]
 8003f14:	2221      	movs	r2, #33	; 0x21
 8003f16:	f883 203d 	strb.w	r2, [r3, #61]	; 0x3d

    /* Init tickstart for timeout management */
    tickstart = HAL_GetTick();
 8003f1a:	f7fd fb03 	bl	8001524 <HAL_GetTick>
 8003f1e:	6178      	str	r0, [r7, #20]

    huart->TxXferSize = Size;
 8003f20:	68fb      	ldr	r3, [r7, #12]
 8003f22:	88fa      	ldrh	r2, [r7, #6]
 8003f24:	849a      	strh	r2, [r3, #36]	; 0x24
    huart->TxXferCount = Size;
 8003f26:	68fb      	ldr	r3, [r7, #12]
 8003f28:	88fa      	ldrh	r2, [r7, #6]
 8003f2a:	84da      	strh	r2, [r3, #38]	; 0x26

    /* In case of 9bits/No Parity transfer, pData needs to be handled as a uint16_t pointer */
    if ((huart->Init.WordLength == UART_WORDLENGTH_9B) && (huart->Init.Parity == UART_PARITY_NONE))
 8003f2c:	68fb      	ldr	r3, [r7, #12]
 8003f2e:	689b      	ldr	r3, [r3, #8]
 8003f30:	f5b3 5f80 	cmp.w	r3, #4096	; 0x1000
 8003f34:	d108      	bne.n	8003f48 <HAL_UART_Transmit+0x82>
 8003f36:	68fb      	ldr	r3, [r7, #12]
 8003f38:	691b      	ldr	r3, [r3, #16]
 8003f3a:	2b00      	cmp	r3, #0
 8003f3c:	d104      	bne.n	8003f48 <HAL_UART_Transmit+0x82>
    {
      pdata8bits  = NULL;
 8003f3e:	2300      	movs	r3, #0
 8003f40:	61fb      	str	r3, [r7, #28]
      pdata16bits = (uint16_t *) pData;
 8003f42:	68bb      	ldr	r3, [r7, #8]
 8003f44:	61bb      	str	r3, [r7, #24]
 8003f46:	e003      	b.n	8003f50 <HAL_UART_Transmit+0x8a>
    }
    else
    {
      pdata8bits  = pData;
 8003f48:	68bb      	ldr	r3, [r7, #8]
 8003f4a:	61fb      	str	r3, [r7, #28]
      pdata16bits = NULL;
 8003f4c:	2300      	movs	r3, #0
 8003f4e:	61bb      	str	r3, [r7, #24]
    }

    /* Process Unlocked */
    __HAL_UNLOCK(huart);
 8003f50:	68fb      	ldr	r3, [r7, #12]
 8003f52:	2200      	movs	r2, #0
 8003f54:	f883 203c 	strb.w	r2, [r3, #60]	; 0x3c

    while (huart->TxXferCount > 0U)
 8003f58:	e02a      	b.n	8003fb0 <HAL_UART_Transmit+0xea>
    {
      if (UART_WaitOnFlagUntilTimeout(huart, UART_FLAG_TXE, RESET, tickstart, Timeout) != HAL_OK)
 8003f5a:	683b      	ldr	r3, [r7, #0]
 8003f5c:	9300      	str	r3, [sp, #0]
 8003f5e:	697b      	ldr	r3, [r7, #20]
 8003f60:	2200      	movs	r2, #0
 8003f62:	2180      	movs	r1, #128	; 0x80
 8003f64:	68f8      	ldr	r0, [r7, #12]
 8003f66:	f000 fb9a 	bl	800469e <UART_WaitOnFlagUntilTimeout>
 8003f6a:	4603      	mov	r3, r0
 8003f6c:	2b00      	cmp	r3, #0
 8003f6e:	d001      	beq.n	8003f74 <HAL_UART_Transmit+0xae>
      {
        return HAL_TIMEOUT;
 8003f70:	2303      	movs	r3, #3
 8003f72:	e036      	b.n	8003fe2 <HAL_UART_Transmit+0x11c>
      }
      if (pdata8bits == NULL)
 8003f74:	69fb      	ldr	r3, [r7, #28]
 8003f76:	2b00      	cmp	r3, #0
 8003f78:	d10b      	bne.n	8003f92 <HAL_UART_Transmit+0xcc>
      {
        huart->Instance->DR = (uint16_t)(*pdata16bits & 0x01FFU);
 8003f7a:	69bb      	ldr	r3, [r7, #24]
 8003f7c:	881b      	ldrh	r3, [r3, #0]
 8003f7e:	461a      	mov	r2, r3
 8003f80:	68fb      	ldr	r3, [r7, #12]
 8003f82:	681b      	ldr	r3, [r3, #0]
 8003f84:	f3c2 0208 	ubfx	r2, r2, #0, #9
 8003f88:	605a      	str	r2, [r3, #4]
        pdata16bits++;
 8003f8a:	69bb      	ldr	r3, [r7, #24]
 8003f8c:	3302      	adds	r3, #2
 8003f8e:	61bb      	str	r3, [r7, #24]
 8003f90:	e007      	b.n	8003fa2 <HAL_UART_Transmit+0xdc>
      }
      else
      {
        huart->Instance->DR = (uint8_t)(*pdata8bits & 0xFFU);
 8003f92:	69fb      	ldr	r3, [r7, #28]
 8003f94:	781a      	ldrb	r2, [r3, #0]
 8003f96:	68fb      	ldr	r3, [r7, #12]
 8003f98:	681b      	ldr	r3, [r3, #0]
 8003f9a:	605a      	str	r2, [r3, #4]
        pdata8bits++;
 8003f9c:	69fb      	ldr	r3, [r7, #28]
 8003f9e:	3301      	adds	r3, #1
 8003fa0:	61fb      	str	r3, [r7, #28]
      }
      huart->TxXferCount--;
 8003fa2:	68fb      	ldr	r3, [r7, #12]
 8003fa4:	8cdb      	ldrh	r3, [r3, #38]	; 0x26
 8003fa6:	b29b      	uxth	r3, r3
 8003fa8:	3b01      	subs	r3, #1
 8003faa:	b29a      	uxth	r2, r3
 8003fac:	68fb      	ldr	r3, [r7, #12]
 8003fae:	84da      	strh	r2, [r3, #38]	; 0x26
    while (huart->TxXferCount > 0U)
 8003fb0:	68fb      	ldr	r3, [r7, #12]
 8003fb2:	8cdb      	ldrh	r3, [r3, #38]	; 0x26
 8003fb4:	b29b      	uxth	r3, r3
 8003fb6:	2b00      	cmp	r3, #0
 8003fb8:	d1cf      	bne.n	8003f5a <HAL_UART_Transmit+0x94>
    }

    if (UART_WaitOnFlagUntilTimeout(huart, UART_FLAG_TC, RESET, tickstart, Timeout) != HAL_OK)
 8003fba:	683b      	ldr	r3, [r7, #0]
 8003fbc:	9300      	str	r3, [sp, #0]
 8003fbe:	697b      	ldr	r3, [r7, #20]
 8003fc0:	2200      	movs	r2, #0
 8003fc2:	2140      	movs	r1, #64	; 0x40
 8003fc4:	68f8      	ldr	r0, [r7, #12]
 8003fc6:	f000 fb6a 	bl	800469e <UART_WaitOnFlagUntilTimeout>
 8003fca:	4603      	mov	r3, r0
 8003fcc:	2b00      	cmp	r3, #0
 8003fce:	d001      	beq.n	8003fd4 <HAL_UART_Transmit+0x10e>
    {
      return HAL_TIMEOUT;
 8003fd0:	2303      	movs	r3, #3
 8003fd2:	e006      	b.n	8003fe2 <HAL_UART_Transmit+0x11c>
    }

    /* At end of Tx process, restore huart->gState to Ready */
    huart->gState = HAL_UART_STATE_READY;
 8003fd4:	68fb      	ldr	r3, [r7, #12]
 8003fd6:	2220      	movs	r2, #32
 8003fd8:	f883 203d 	strb.w	r2, [r3, #61]	; 0x3d

    return HAL_OK;
 8003fdc:	2300      	movs	r3, #0
 8003fde:	e000      	b.n	8003fe2 <HAL_UART_Transmit+0x11c>
  }
  else
  {
    return HAL_BUSY;
 8003fe0:	2302      	movs	r3, #2
  }
}
 8003fe2:	4618      	mov	r0, r3
 8003fe4:	3720      	adds	r7, #32
 8003fe6:	46bd      	mov	sp, r7
 8003fe8:	bd80      	pop	{r7, pc}
	...

08003fec <HAL_UART_Transmit_DMA>:
  * @param  pData Pointer to data buffer (u8 or u16 data elements).
  * @param  Size  Amount of data elements (u8 or u16) to be sent
  * @retval HAL status
  */
HAL_StatusTypeDef HAL_UART_Transmit_DMA(UART_HandleTypeDef *huart, uint8_t *pData, uint16_t Size)
{
 8003fec:	b580      	push	{r7, lr}
 8003fee:	b086      	sub	sp, #24
 8003ff0:	af00      	add	r7, sp, #0
 8003ff2:	60f8      	str	r0, [r7, #12]
 8003ff4:	60b9      	str	r1, [r7, #8]
 8003ff6:	4613      	mov	r3, r2
 8003ff8:	80fb      	strh	r3, [r7, #6]
  uint32_t *tmp;

  /* Check that a Tx process is not already ongoing */
  if (huart->gState == HAL_UART_STATE_READY)
 8003ffa:	68fb      	ldr	r3, [r7, #12]
 8003ffc:	f893 303d 	ldrb.w	r3, [r3, #61]	; 0x3d
 8004000:	b2db      	uxtb	r3, r3
 8004002:	2b20      	cmp	r3, #32
 8004004:	d153      	bne.n	80040ae <HAL_UART_Transmit_DMA+0xc2>
  {
    if ((pData == NULL) || (Size == 0U))
 8004006:	68bb      	ldr	r3, [r7, #8]
 8004008:	2b00      	cmp	r3, #0
 800400a:	d002      	beq.n	8004012 <HAL_UART_Transmit_DMA+0x26>
 800400c:	88fb      	ldrh	r3, [r7, #6]
 800400e:	2b00      	cmp	r3, #0
 8004010:	d101      	bne.n	8004016 <HAL_UART_Transmit_DMA+0x2a>
    {
      return HAL_ERROR;
 8004012:	2301      	movs	r3, #1
 8004014:	e04c      	b.n	80040b0 <HAL_UART_Transmit_DMA+0xc4>
    }

    /* Process Locked */
    __HAL_LOCK(huart);
 8004016:	68fb      	ldr	r3, [r7, #12]
 8004018:	f893 303c 	ldrb.w	r3, [r3, #60]	; 0x3c
 800401c:	2b01      	cmp	r3, #1
 800401e:	d101      	bne.n	8004024 <HAL_UART_Transmit_DMA+0x38>
 8004020:	2302      	movs	r3, #2
 8004022:	e045      	b.n	80040b0 <HAL_UART_Transmit_DMA+0xc4>
 8004024:	68fb      	ldr	r3, [r7, #12]
 8004026:	2201      	movs	r2, #1
 8004028:	f883 203c 	strb.w	r2, [r3, #60]	; 0x3c

    huart->pTxBuffPtr = pData;
 800402c:	68ba      	ldr	r2, [r7, #8]
 800402e:	68fb      	ldr	r3, [r7, #12]
 8004030:	621a      	str	r2, [r3, #32]
    huart->TxXferSize = Size;
 8004032:	68fb      	ldr	r3, [r7, #12]
 8004034:	88fa      	ldrh	r2, [r7, #6]
 8004036:	849a      	strh	r2, [r3, #36]	; 0x24
    huart->TxXferCount = Size;
 8004038:	68fb      	ldr	r3, [r7, #12]
 800403a:	88fa      	ldrh	r2, [r7, #6]
 800403c:	84da      	strh	r2, [r3, #38]	; 0x26

    huart->ErrorCode = HAL_UART_ERROR_NONE;
 800403e:	68fb      	ldr	r3, [r7, #12]
 8004040:	2200      	movs	r2, #0
 8004042:	641a      	str	r2, [r3, #64]	; 0x40
    huart->gState = HAL_UART_STATE_BUSY_TX;
 8004044:	68fb      	ldr	r3, [r7, #12]
 8004046:	2221      	movs	r2, #33	; 0x21
 8004048:	f883 203d 	strb.w	r2, [r3, #61]	; 0x3d

    /* Set the UART DMA transfer complete callback */
    huart->hdmatx->XferCpltCallback = UART_DMATransmitCplt;
 800404c:	68fb      	ldr	r3, [r7, #12]
 800404e:	6b5b      	ldr	r3, [r3, #52]	; 0x34
 8004050:	4a19      	ldr	r2, [pc, #100]	; (80040b8 <HAL_UART_Transmit_DMA+0xcc>)
 8004052:	63da      	str	r2, [r3, #60]	; 0x3c

    /* Set the UART DMA Half transfer complete callback */
    huart->hdmatx->XferHalfCpltCallback = UART_DMATxHalfCplt;
 8004054:	68fb      	ldr	r3, [r7, #12]
 8004056:	6b5b      	ldr	r3, [r3, #52]	; 0x34
 8004058:	4a18      	ldr	r2, [pc, #96]	; (80040bc <HAL_UART_Transmit_DMA+0xd0>)
 800405a:	641a      	str	r2, [r3, #64]	; 0x40

    /* Set the DMA error callback */
    huart->hdmatx->XferErrorCallback = UART_DMAError;
 800405c:	68fb      	ldr	r3, [r7, #12]
 800405e:	6b5b      	ldr	r3, [r3, #52]	; 0x34
 8004060:	4a17      	ldr	r2, [pc, #92]	; (80040c0 <HAL_UART_Transmit_DMA+0xd4>)
 8004062:	64da      	str	r2, [r3, #76]	; 0x4c

    /* Set the DMA abort callback */
    huart->hdmatx->XferAbortCallback = NULL;
 8004064:	68fb      	ldr	r3, [r7, #12]
 8004066:	6b5b      	ldr	r3, [r3, #52]	; 0x34
 8004068:	2200      	movs	r2, #0
 800406a:	651a      	str	r2, [r3, #80]	; 0x50

    /* Enable the UART transmit DMA stream */
    tmp = (uint32_t *)&pData;
 800406c:	f107 0308 	add.w	r3, r7, #8
 8004070:	617b      	str	r3, [r7, #20]
    HAL_DMA_Start_IT(huart->hdmatx, *(uint32_t *)tmp, (uint32_t)&huart->Instance->DR, Size);
 8004072:	68fb      	ldr	r3, [r7, #12]
 8004074:	6b58      	ldr	r0, [r3, #52]	; 0x34
 8004076:	697b      	ldr	r3, [r7, #20]
 8004078:	6819      	ldr	r1, [r3, #0]
 800407a:	68fb      	ldr	r3, [r7, #12]
 800407c:	681b      	ldr	r3, [r3, #0]
 800407e:	3304      	adds	r3, #4
 8004080:	461a      	mov	r2, r3
 8004082:	88fb      	ldrh	r3, [r7, #6]
 8004084:	f7fd fc1a 	bl	80018bc <HAL_DMA_Start_IT>

    /* Clear the TC flag in the SR register by writing 0 to it */
    __HAL_UART_CLEAR_FLAG(huart, UART_FLAG_TC);
 8004088:	68fb      	ldr	r3, [r7, #12]
 800408a:	681b      	ldr	r3, [r3, #0]
 800408c:	f06f 0240 	mvn.w	r2, #64	; 0x40
 8004090:	601a      	str	r2, [r3, #0]

    /* Process Unlocked */
    __HAL_UNLOCK(huart);
 8004092:	68fb      	ldr	r3, [r7, #12]
 8004094:	2200      	movs	r2, #0
 8004096:	f883 203c 	strb.w	r2, [r3, #60]	; 0x3c

    /* Enable the DMA transfer for transmit request by setting the DMAT bit
       in the UART CR3 register */
    SET_BIT(huart->Instance->CR3, USART_CR3_DMAT);
 800409a:	68fb      	ldr	r3, [r7, #12]
 800409c:	681b      	ldr	r3, [r3, #0]
 800409e:	695a      	ldr	r2, [r3, #20]
 80040a0:	68fb      	ldr	r3, [r7, #12]
 80040a2:	681b      	ldr	r3, [r3, #0]
 80040a4:	f042 0280 	orr.w	r2, r2, #128	; 0x80
 80040a8:	615a      	str	r2, [r3, #20]

    return HAL_OK;
 80040aa:	2300      	movs	r3, #0
 80040ac:	e000      	b.n	80040b0 <HAL_UART_Transmit_DMA+0xc4>
  }
  else
  {
    return HAL_BUSY;
 80040ae:	2302      	movs	r3, #2
  }
}
 80040b0:	4618      	mov	r0, r3
 80040b2:	3718      	adds	r7, #24
 80040b4:	46bd      	mov	sp, r7
 80040b6:	bd80      	pop	{r7, pc}
 80040b8:	080044d1 	.word	0x080044d1
 80040bc:	08004523 	.word	0x08004523
 80040c0:	0800460b 	.word	0x0800460b

080040c4 <HAL_UART_Receive_DMA>:
  * @param  Size  Amount of data elements (u8 or u16) to be received.
  * @note   When the UART parity is enabled (PCE = 1) the received data contains the parity bit.
  * @retval HAL status
  */
HAL_StatusTypeDef HAL_UART_Receive_DMA(UART_HandleTypeDef *huart, uint8_t *pData, uint16_t Size)
{
 80040c4:	b580      	push	{r7, lr}
 80040c6:	b084      	sub	sp, #16
 80040c8:	af00      	add	r7, sp, #0
 80040ca:	60f8      	str	r0, [r7, #12]
 80040cc:	60b9      	str	r1, [r7, #8]
 80040ce:	4613      	mov	r3, r2
 80040d0:	80fb      	strh	r3, [r7, #6]
  /* Check that a Rx process is not already ongoing */
  if (huart->RxState == HAL_UART_STATE_READY)
 80040d2:	68fb      	ldr	r3, [r7, #12]
 80040d4:	f893 303e 	ldrb.w	r3, [r3, #62]	; 0x3e
 80040d8:	b2db      	uxtb	r3, r3
 80040da:	2b20      	cmp	r3, #32
 80040dc:	d11d      	bne.n	800411a <HAL_UART_Receive_DMA+0x56>
  {
    if ((pData == NULL) || (Size == 0U))
 80040de:	68bb      	ldr	r3, [r7, #8]
 80040e0:	2b00      	cmp	r3, #0
 80040e2:	d002      	beq.n	80040ea <HAL_UART_Receive_DMA+0x26>
 80040e4:	88fb      	ldrh	r3, [r7, #6]
 80040e6:	2b00      	cmp	r3, #0
 80040e8:	d101      	bne.n	80040ee <HAL_UART_Receive_DMA+0x2a>
    {
      return HAL_ERROR;
 80040ea:	2301      	movs	r3, #1
 80040ec:	e016      	b.n	800411c <HAL_UART_Receive_DMA+0x58>
    }

    /* Process Locked */
    __HAL_LOCK(huart);
 80040ee:	68fb      	ldr	r3, [r7, #12]
 80040f0:	f893 303c 	ldrb.w	r3, [r3, #60]	; 0x3c
 80040f4:	2b01      	cmp	r3, #1
 80040f6:	d101      	bne.n	80040fc <HAL_UART_Receive_DMA+0x38>
 80040f8:	2302      	movs	r3, #2
 80040fa:	e00f      	b.n	800411c <HAL_UART_Receive_DMA+0x58>
 80040fc:	68fb      	ldr	r3, [r7, #12]
 80040fe:	2201      	movs	r2, #1
 8004100:	f883 203c 	strb.w	r2, [r3, #60]	; 0x3c

    /* Set Reception type to Standard reception */
    huart->ReceptionType = HAL_UART_RECEPTION_STANDARD;
 8004104:	68fb      	ldr	r3, [r7, #12]
 8004106:	2200      	movs	r2, #0
 8004108:	631a      	str	r2, [r3, #48]	; 0x30

    return(UART_Start_Receive_DMA(huart, pData, Size));
 800410a:	88fb      	ldrh	r3, [r7, #6]
 800410c:	461a      	mov	r2, r3
 800410e:	68b9      	ldr	r1, [r7, #8]
 8004110:	68f8      	ldr	r0, [r7, #12]
 8004112:	f000 fb0f 	bl	8004734 <UART_Start_Receive_DMA>
 8004116:	4603      	mov	r3, r0
 8004118:	e000      	b.n	800411c <HAL_UART_Receive_DMA+0x58>
  }
  else
  {
    return HAL_BUSY;
 800411a:	2302      	movs	r3, #2
  }
}
 800411c:	4618      	mov	r0, r3
 800411e:	3710      	adds	r7, #16
 8004120:	46bd      	mov	sp, r7
 8004122:	bd80      	pop	{r7, pc}

08004124 <HAL_UART_IRQHandler>:
  * @param  huart  Pointer to a UART_HandleTypeDef structure that contains
  *                the configuration information for the specified UART module.
  * @retval None
  */
void HAL_UART_IRQHandler(UART_HandleTypeDef *huart)
{
 8004124:	b580      	push	{r7, lr}
 8004126:	b08a      	sub	sp, #40	; 0x28
 8004128:	af00      	add	r7, sp, #0
 800412a:	6078      	str	r0, [r7, #4]
  uint32_t isrflags   = READ_REG(huart->Instance->SR);
 800412c:	687b      	ldr	r3, [r7, #4]
 800412e:	681b      	ldr	r3, [r3, #0]
 8004130:	681b      	ldr	r3, [r3, #0]
 8004132:	627b      	str	r3, [r7, #36]	; 0x24
  uint32_t cr1its     = READ_REG(huart->Instance->CR1);
 8004134:	687b      	ldr	r3, [r7, #4]
 8004136:	681b      	ldr	r3, [r3, #0]
 8004138:	68db      	ldr	r3, [r3, #12]
 800413a:	623b      	str	r3, [r7, #32]
  uint32_t cr3its     = READ_REG(huart->Instance->CR3);
 800413c:	687b      	ldr	r3, [r7, #4]
 800413e:	681b      	ldr	r3, [r3, #0]
 8004140:	695b      	ldr	r3, [r3, #20]
 8004142:	61fb      	str	r3, [r7, #28]
  uint32_t errorflags = 0x00U;
 8004144:	2300      	movs	r3, #0
 8004146:	61bb      	str	r3, [r7, #24]
  uint32_t dmarequest = 0x00U;
 8004148:	2300      	movs	r3, #0
 800414a:	617b      	str	r3, [r7, #20]

  /* If no error occurs */
  errorflags = (isrflags & (uint32_t)(USART_SR_PE | USART_SR_FE | USART_SR_ORE | USART_SR_NE));
 800414c:	6a7b      	ldr	r3, [r7, #36]	; 0x24
 800414e:	f003 030f 	and.w	r3, r3, #15
 8004152:	61bb      	str	r3, [r7, #24]
  if (errorflags == RESET)
 8004154:	69bb      	ldr	r3, [r7, #24]
 8004156:	2b00      	cmp	r3, #0
 8004158:	d10d      	bne.n	8004176 <HAL_UART_IRQHandler+0x52>
  {
    /* UART in mode Receiver -------------------------------------------------*/
    if (((isrflags & USART_SR_RXNE) != RESET) && ((cr1its & USART_CR1_RXNEIE) != RESET))
 800415a:	6a7b      	ldr	r3, [r7, #36]	; 0x24
 800415c:	f003 0320 	and.w	r3, r3, #32
 8004160:	2b00      	cmp	r3, #0
 8004162:	d008      	beq.n	8004176 <HAL_UART_IRQHandler+0x52>
 8004164:	6a3b      	ldr	r3, [r7, #32]
 8004166:	f003 0320 	and.w	r3, r3, #32
 800416a:	2b00      	cmp	r3, #0
 800416c:	d003      	beq.n	8004176 <HAL_UART_IRQHandler+0x52>
    {
      UART_Receive_IT(huart);
 800416e:	6878      	ldr	r0, [r7, #4]
 8004170:	f000 fc03 	bl	800497a <UART_Receive_IT>
      return;
 8004174:	e17c      	b.n	8004470 <HAL_UART_IRQHandler+0x34c>
    }
  }

  /* If some errors occur */
  if ((errorflags != RESET) && (((cr3its & USART_CR3_EIE) != RESET) || ((cr1its & (USART_CR1_RXNEIE | USART_CR1_PEIE)) != RESET)))
 8004176:	69bb      	ldr	r3, [r7, #24]
 8004178:	2b00      	cmp	r3, #0
 800417a:	f000 80b1 	beq.w	80042e0 <HAL_UART_IRQHandler+0x1bc>
 800417e:	69fb      	ldr	r3, [r7, #28]
 8004180:	f003 0301 	and.w	r3, r3, #1
 8004184:	2b00      	cmp	r3, #0
 8004186:	d105      	bne.n	8004194 <HAL_UART_IRQHandler+0x70>
 8004188:	6a3b      	ldr	r3, [r7, #32]
 800418a:	f403 7390 	and.w	r3, r3, #288	; 0x120
 800418e:	2b00      	cmp	r3, #0
 8004190:	f000 80a6 	beq.w	80042e0 <HAL_UART_IRQHandler+0x1bc>
  {
    /* UART parity error interrupt occurred ----------------------------------*/
    if (((isrflags & USART_SR_PE) != RESET) && ((cr1its & USART_CR1_PEIE) != RESET))
 8004194:	6a7b      	ldr	r3, [r7, #36]	; 0x24
 8004196:	f003 0301 	and.w	r3, r3, #1
 800419a:	2b00      	cmp	r3, #0
 800419c:	d00a      	beq.n	80041b4 <HAL_UART_IRQHandler+0x90>
 800419e:	6a3b      	ldr	r3, [r7, #32]
 80041a0:	f403 7380 	and.w	r3, r3, #256	; 0x100
 80041a4:	2b00      	cmp	r3, #0
 80041a6:	d005      	beq.n	80041b4 <HAL_UART_IRQHandler+0x90>
    {
      huart->ErrorCode |= HAL_UART_ERROR_PE;
 80041a8:	687b      	ldr	r3, [r7, #4]
 80041aa:	6c1b      	ldr	r3, [r3, #64]	; 0x40
 80041ac:	f043 0201 	orr.w	r2, r3, #1
 80041b0:	687b      	ldr	r3, [r7, #4]
 80041b2:	641a      	str	r2, [r3, #64]	; 0x40
    }

    /* UART noise error interrupt occurred -----------------------------------*/
    if (((isrflags & USART_SR_NE) != RESET) && ((cr3its & USART_CR3_EIE) != RESET))
 80041b4:	6a7b      	ldr	r3, [r7, #36]	; 0x24
 80041b6:	f003 0304 	and.w	r3, r3, #4
 80041ba:	2b00      	cmp	r3, #0
 80041bc:	d00a      	beq.n	80041d4 <HAL_UART_IRQHandler+0xb0>
 80041be:	69fb      	ldr	r3, [r7, #28]
 80041c0:	f003 0301 	and.w	r3, r3, #1
 80041c4:	2b00      	cmp	r3, #0
 80041c6:	d005      	beq.n	80041d4 <HAL_UART_IRQHandler+0xb0>
    {
      huart->ErrorCode |= HAL_UART_ERROR_NE;
 80041c8:	687b      	ldr	r3, [r7, #4]
 80041ca:	6c1b      	ldr	r3, [r3, #64]	; 0x40
 80041cc:	f043 0202 	orr.w	r2, r3, #2
 80041d0:	687b      	ldr	r3, [r7, #4]
 80041d2:	641a      	str	r2, [r3, #64]	; 0x40
    }

    /* UART frame error interrupt occurred -----------------------------------*/
    if (((isrflags & USART_SR_FE) != RESET) && ((cr3its & USART_CR3_EIE) != RESET))
 80041d4:	6a7b      	ldr	r3, [r7, #36]	; 0x24
 80041d6:	f003 0302 	and.w	r3, r3, #2
 80041da:	2b00      	cmp	r3, #0
 80041dc:	d00a      	beq.n	80041f4 <HAL_UART_IRQHandler+0xd0>
 80041de:	69fb      	ldr	r3, [r7, #28]
 80041e0:	f003 0301 	and.w	r3, r3, #1
 80041e4:	2b00      	cmp	r3, #0
 80041e6:	d005      	beq.n	80041f4 <HAL_UART_IRQHandler+0xd0>
    {
      huart->ErrorCode |= HAL_UART_ERROR_FE;
 80041e8:	687b      	ldr	r3, [r7, #4]
 80041ea:	6c1b      	ldr	r3, [r3, #64]	; 0x40
 80041ec:	f043 0204 	orr.w	r2, r3, #4
 80041f0:	687b      	ldr	r3, [r7, #4]
 80041f2:	641a      	str	r2, [r3, #64]	; 0x40
    }

    /* UART Over-Run interrupt occurred --------------------------------------*/
    if (((isrflags & USART_SR_ORE) != RESET) && (((cr1its & USART_CR1_RXNEIE) != RESET) || ((cr3its & USART_CR3_EIE) != RESET)))
 80041f4:	6a7b      	ldr	r3, [r7, #36]	; 0x24
 80041f6:	f003 0308 	and.w	r3, r3, #8
 80041fa:	2b00      	cmp	r3, #0
 80041fc:	d00f      	beq.n	800421e <HAL_UART_IRQHandler+0xfa>
 80041fe:	6a3b      	ldr	r3, [r7, #32]
 8004200:	f003 0320 	and.w	r3, r3, #32
 8004204:	2b00      	cmp	r3, #0
 8004206:	d104      	bne.n	8004212 <HAL_UART_IRQHandler+0xee>
 8004208:	69fb      	ldr	r3, [r7, #28]
 800420a:	f003 0301 	and.w	r3, r3, #1
 800420e:	2b00      	cmp	r3, #0
 8004210:	d005      	beq.n	800421e <HAL_UART_IRQHandler+0xfa>
    {
      huart->ErrorCode |= HAL_UART_ERROR_ORE;
 8004212:	687b      	ldr	r3, [r7, #4]
 8004214:	6c1b      	ldr	r3, [r3, #64]	; 0x40
 8004216:	f043 0208 	orr.w	r2, r3, #8
 800421a:	687b      	ldr	r3, [r7, #4]
 800421c:	641a      	str	r2, [r3, #64]	; 0x40
    }

    /* Call UART Error Call back function if need be --------------------------*/
    if (huart->ErrorCode != HAL_UART_ERROR_NONE)
 800421e:	687b      	ldr	r3, [r7, #4]
 8004220:	6c1b      	ldr	r3, [r3, #64]	; 0x40
 8004222:	2b00      	cmp	r3, #0
 8004224:	f000 811f 	beq.w	8004466 <HAL_UART_IRQHandler+0x342>
    {
      /* UART in mode Receiver -----------------------------------------------*/
      if (((isrflags & USART_SR_RXNE) != RESET) && ((cr1its & USART_CR1_RXNEIE) != RESET))
 8004228:	6a7b      	ldr	r3, [r7, #36]	; 0x24
 800422a:	f003 0320 	and.w	r3, r3, #32
 800422e:	2b00      	cmp	r3, #0
 8004230:	d007      	beq.n	8004242 <HAL_UART_IRQHandler+0x11e>
 8004232:	6a3b      	ldr	r3, [r7, #32]
 8004234:	f003 0320 	and.w	r3, r3, #32
 8004238:	2b00      	cmp	r3, #0
 800423a:	d002      	beq.n	8004242 <HAL_UART_IRQHandler+0x11e>
      {
        UART_Receive_IT(huart);
 800423c:	6878      	ldr	r0, [r7, #4]
 800423e:	f000 fb9c 	bl	800497a <UART_Receive_IT>
      }

      /* If Overrun error occurs, or if any error occurs in DMA mode reception,
         consider error as blocking */
      dmarequest = HAL_IS_BIT_SET(huart->Instance->CR3, USART_CR3_DMAR);
 8004242:	687b      	ldr	r3, [r7, #4]
 8004244:	681b      	ldr	r3, [r3, #0]
 8004246:	695b      	ldr	r3, [r3, #20]
 8004248:	f003 0340 	and.w	r3, r3, #64	; 0x40
 800424c:	2b40      	cmp	r3, #64	; 0x40
 800424e:	bf0c      	ite	eq
 8004250:	2301      	moveq	r3, #1
 8004252:	2300      	movne	r3, #0
 8004254:	b2db      	uxtb	r3, r3
 8004256:	617b      	str	r3, [r7, #20]
      if (((huart->ErrorCode & HAL_UART_ERROR_ORE) != RESET) || dmarequest)
 8004258:	687b      	ldr	r3, [r7, #4]
 800425a:	6c1b      	ldr	r3, [r3, #64]	; 0x40
 800425c:	f003 0308 	and.w	r3, r3, #8
 8004260:	2b00      	cmp	r3, #0
 8004262:	d102      	bne.n	800426a <HAL_UART_IRQHandler+0x146>
 8004264:	697b      	ldr	r3, [r7, #20]
 8004266:	2b00      	cmp	r3, #0
 8004268:	d031      	beq.n	80042ce <HAL_UART_IRQHandler+0x1aa>
      {
        /* Blocking error : transfer is aborted
           Set the UART state ready to be able to start again the process,
           Disable Rx Interrupts, and disable Rx DMA request, if ongoing */
        UART_EndRxTransfer(huart);
 800426a:	6878      	ldr	r0, [r7, #4]
 800426c:	f000 fadc 	bl	8004828 <UART_EndRxTransfer>

        /* Disable the UART DMA Rx request if enabled */
        if (HAL_IS_BIT_SET(huart->Instance->CR3, USART_CR3_DMAR))
 8004270:	687b      	ldr	r3, [r7, #4]
 8004272:	681b      	ldr	r3, [r3, #0]
 8004274:	695b      	ldr	r3, [r3, #20]
 8004276:	f003 0340 	and.w	r3, r3, #64	; 0x40
 800427a:	2b40      	cmp	r3, #64	; 0x40
 800427c:	d123      	bne.n	80042c6 <HAL_UART_IRQHandler+0x1a2>
        {
          CLEAR_BIT(huart->Instance->CR3, USART_CR3_DMAR);
 800427e:	687b      	ldr	r3, [r7, #4]
 8004280:	681b      	ldr	r3, [r3, #0]
 8004282:	695a      	ldr	r2, [r3, #20]
 8004284:	687b      	ldr	r3, [r7, #4]
 8004286:	681b      	ldr	r3, [r3, #0]
 8004288:	f022 0240 	bic.w	r2, r2, #64	; 0x40
 800428c:	615a      	str	r2, [r3, #20]

          /* Abort the UART DMA Rx stream */
          if (huart->hdmarx != NULL)
 800428e:	687b      	ldr	r3, [r7, #4]
 8004290:	6b9b      	ldr	r3, [r3, #56]	; 0x38
 8004292:	2b00      	cmp	r3, #0
 8004294:	d013      	beq.n	80042be <HAL_UART_IRQHandler+0x19a>
          {
            /* Set the UART DMA Abort callback :
               will lead to call HAL_UART_ErrorCallback() at end of DMA abort procedure */
            huart->hdmarx->XferAbortCallback = UART_DMAAbortOnError;
 8004296:	687b      	ldr	r3, [r7, #4]
 8004298:	6b9b      	ldr	r3, [r3, #56]	; 0x38
 800429a:	4a77      	ldr	r2, [pc, #476]	; (8004478 <HAL_UART_IRQHandler+0x354>)
 800429c:	651a      	str	r2, [r3, #80]	; 0x50
            if (HAL_DMA_Abort_IT(huart->hdmarx) != HAL_OK)
 800429e:	687b      	ldr	r3, [r7, #4]
 80042a0:	6b9b      	ldr	r3, [r3, #56]	; 0x38
 80042a2:	4618      	mov	r0, r3
 80042a4:	f7fd fbd2 	bl	8001a4c <HAL_DMA_Abort_IT>
 80042a8:	4603      	mov	r3, r0
 80042aa:	2b00      	cmp	r3, #0
 80042ac:	d016      	beq.n	80042dc <HAL_UART_IRQHandler+0x1b8>
            {
              /* Call Directly XferAbortCallback function in case of error */
              huart->hdmarx->XferAbortCallback(huart->hdmarx);
 80042ae:	687b      	ldr	r3, [r7, #4]
 80042b0:	6b9b      	ldr	r3, [r3, #56]	; 0x38
 80042b2:	6d1b      	ldr	r3, [r3, #80]	; 0x50
 80042b4:	687a      	ldr	r2, [r7, #4]
 80042b6:	6b92      	ldr	r2, [r2, #56]	; 0x38
 80042b8:	4610      	mov	r0, r2
 80042ba:	4798      	blx	r3
        if (HAL_IS_BIT_SET(huart->Instance->CR3, USART_CR3_DMAR))
 80042bc:	e00e      	b.n	80042dc <HAL_UART_IRQHandler+0x1b8>
#if (USE_HAL_UART_REGISTER_CALLBACKS == 1)
            /*Call registered error callback*/
            huart->ErrorCallback(huart);
#else
            /*Call legacy weak error callback*/
            HAL_UART_ErrorCallback(huart);
 80042be:	6878      	ldr	r0, [r7, #4]
 80042c0:	f000 f8f0 	bl	80044a4 <HAL_UART_ErrorCallback>
        if (HAL_IS_BIT_SET(huart->Instance->CR3, USART_CR3_DMAR))
 80042c4:	e00a      	b.n	80042dc <HAL_UART_IRQHandler+0x1b8>
#if (USE_HAL_UART_REGISTER_CALLBACKS == 1)
          /*Call registered error callback*/
          huart->ErrorCallback(huart);
#else
          /*Call legacy weak error callback*/
          HAL_UART_ErrorCallback(huart);
 80042c6:	6878      	ldr	r0, [r7, #4]
 80042c8:	f000 f8ec 	bl	80044a4 <HAL_UART_ErrorCallback>
        if (HAL_IS_BIT_SET(huart->Instance->CR3, USART_CR3_DMAR))
 80042cc:	e006      	b.n	80042dc <HAL_UART_IRQHandler+0x1b8>
#if (USE_HAL_UART_REGISTER_CALLBACKS == 1)
        /*Call registered error callback*/
        huart->ErrorCallback(huart);
#else
        /*Call legacy weak error callback*/
        HAL_UART_ErrorCallback(huart);
 80042ce:	6878      	ldr	r0, [r7, #4]
 80042d0:	f000 f8e8 	bl	80044a4 <HAL_UART_ErrorCallback>
#endif /* USE_HAL_UART_REGISTER_CALLBACKS */

        huart->ErrorCode = HAL_UART_ERROR_NONE;
 80042d4:	687b      	ldr	r3, [r7, #4]
 80042d6:	2200      	movs	r2, #0
 80042d8:	641a      	str	r2, [r3, #64]	; 0x40
      }
    }
    return;
 80042da:	e0c4      	b.n	8004466 <HAL_UART_IRQHandler+0x342>
        if (HAL_IS_BIT_SET(huart->Instance->CR3, USART_CR3_DMAR))
 80042dc:	bf00      	nop
    return;
 80042de:	e0c2      	b.n	8004466 <HAL_UART_IRQHandler+0x342>
  } /* End if some error occurs */

  /* Check current reception Mode :
     If Reception till IDLE event has been selected : */
  if (  (huart->ReceptionType == HAL_UART_RECEPTION_TOIDLE)
 80042e0:	687b      	ldr	r3, [r7, #4]
 80042e2:	6b1b      	ldr	r3, [r3, #48]	; 0x30
 80042e4:	2b01      	cmp	r3, #1
 80042e6:	f040 80a2 	bne.w	800442e <HAL_UART_IRQHandler+0x30a>
      &&((isrflags & USART_SR_IDLE) != 0U)
 80042ea:	6a7b      	ldr	r3, [r7, #36]	; 0x24
 80042ec:	f003 0310 	and.w	r3, r3, #16
 80042f0:	2b00      	cmp	r3, #0
 80042f2:	f000 809c 	beq.w	800442e <HAL_UART_IRQHandler+0x30a>
      &&((cr1its & USART_SR_IDLE) != 0U))
 80042f6:	6a3b      	ldr	r3, [r7, #32]
 80042f8:	f003 0310 	and.w	r3, r3, #16
 80042fc:	2b00      	cmp	r3, #0
 80042fe:	f000 8096 	beq.w	800442e <HAL_UART_IRQHandler+0x30a>
  {
    __HAL_UART_CLEAR_IDLEFLAG(huart);
 8004302:	2300      	movs	r3, #0
 8004304:	60fb      	str	r3, [r7, #12]
 8004306:	687b      	ldr	r3, [r7, #4]
 8004308:	681b      	ldr	r3, [r3, #0]
 800430a:	681b      	ldr	r3, [r3, #0]
 800430c:	60fb      	str	r3, [r7, #12]
 800430e:	687b      	ldr	r3, [r7, #4]
 8004310:	681b      	ldr	r3, [r3, #0]
 8004312:	685b      	ldr	r3, [r3, #4]
 8004314:	60fb      	str	r3, [r7, #12]
 8004316:	68fb      	ldr	r3, [r7, #12]

    /* Check if DMA mode is enabled in UART */
    if (HAL_IS_BIT_SET(huart->Instance->CR3, USART_CR3_DMAR))
 8004318:	687b      	ldr	r3, [r7, #4]
 800431a:	681b      	ldr	r3, [r3, #0]
 800431c:	695b      	ldr	r3, [r3, #20]
 800431e:	f003 0340 	and.w	r3, r3, #64	; 0x40
 8004322:	2b40      	cmp	r3, #64	; 0x40
 8004324:	d14f      	bne.n	80043c6 <HAL_UART_IRQHandler+0x2a2>
    {
      /* DMA mode enabled */
      /* Check received length : If all expected data are received, do nothing,
         (DMA cplt callback will be called).
         Otherwise, if at least one data has already been received, IDLE event is to be notified to user */
      uint16_t nb_remaining_rx_data = (uint16_t) __HAL_DMA_GET_COUNTER(huart->hdmarx);
 8004326:	687b      	ldr	r3, [r7, #4]
 8004328:	6b9b      	ldr	r3, [r3, #56]	; 0x38
 800432a:	681b      	ldr	r3, [r3, #0]
 800432c:	685b      	ldr	r3, [r3, #4]
 800432e:	823b      	strh	r3, [r7, #16]
      if (  (nb_remaining_rx_data > 0U)
 8004330:	8a3b      	ldrh	r3, [r7, #16]
 8004332:	2b00      	cmp	r3, #0
 8004334:	f000 8099 	beq.w	800446a <HAL_UART_IRQHandler+0x346>
          &&(nb_remaining_rx_data < huart->RxXferSize))
 8004338:	687b      	ldr	r3, [r7, #4]
 800433a:	8d9b      	ldrh	r3, [r3, #44]	; 0x2c
 800433c:	8a3a      	ldrh	r2, [r7, #16]
 800433e:	429a      	cmp	r2, r3
 8004340:	f080 8093 	bcs.w	800446a <HAL_UART_IRQHandler+0x346>
      {
        /* Reception is not complete */
        huart->RxXferCount = nb_remaining_rx_data;
 8004344:	687b      	ldr	r3, [r7, #4]
 8004346:	8a3a      	ldrh	r2, [r7, #16]
 8004348:	85da      	strh	r2, [r3, #46]	; 0x2e

        /* In Normal mode, end DMA xfer and HAL UART Rx process*/
        if (huart->hdmarx->Init.Mode != DMA_CIRCULAR)
 800434a:	687b      	ldr	r3, [r7, #4]
 800434c:	6b9b      	ldr	r3, [r3, #56]	; 0x38
 800434e:	69db      	ldr	r3, [r3, #28]
 8004350:	f5b3 7f80 	cmp.w	r3, #256	; 0x100
 8004354:	d02b      	beq.n	80043ae <HAL_UART_IRQHandler+0x28a>
        {
          /* Disable PE and ERR (Frame error, noise error, overrun error) interrupts */
          CLEAR_BIT(huart->Instance->CR1, USART_CR1_PEIE);
 8004356:	687b      	ldr	r3, [r7, #4]
 8004358:	681b      	ldr	r3, [r3, #0]
 800435a:	68da      	ldr	r2, [r3, #12]
 800435c:	687b      	ldr	r3, [r7, #4]
 800435e:	681b      	ldr	r3, [r3, #0]
 8004360:	f422 7280 	bic.w	r2, r2, #256	; 0x100
 8004364:	60da      	str	r2, [r3, #12]
          CLEAR_BIT(huart->Instance->CR3, USART_CR3_EIE);
 8004366:	687b      	ldr	r3, [r7, #4]
 8004368:	681b      	ldr	r3, [r3, #0]
 800436a:	695a      	ldr	r2, [r3, #20]
 800436c:	687b      	ldr	r3, [r7, #4]
 800436e:	681b      	ldr	r3, [r3, #0]
 8004370:	f022 0201 	bic.w	r2, r2, #1
 8004374:	615a      	str	r2, [r3, #20]

          /* Disable the DMA transfer for the receiver request by resetting the DMAR bit
             in the UART CR3 register */
          CLEAR_BIT(huart->Instance->CR3, USART_CR3_DMAR);
 8004376:	687b      	ldr	r3, [r7, #4]
 8004378:	681b      	ldr	r3, [r3, #0]
 800437a:	695a      	ldr	r2, [r3, #20]
 800437c:	687b      	ldr	r3, [r7, #4]
 800437e:	681b      	ldr	r3, [r3, #0]
 8004380:	f022 0240 	bic.w	r2, r2, #64	; 0x40
 8004384:	615a      	str	r2, [r3, #20]

          /* At end of Rx process, restore huart->RxState to Ready */
          huart->RxState = HAL_UART_STATE_READY;
 8004386:	687b      	ldr	r3, [r7, #4]
 8004388:	2220      	movs	r2, #32
 800438a:	f883 203e 	strb.w	r2, [r3, #62]	; 0x3e
          huart->ReceptionType = HAL_UART_RECEPTION_STANDARD;
 800438e:	687b      	ldr	r3, [r7, #4]
 8004390:	2200      	movs	r2, #0
 8004392:	631a      	str	r2, [r3, #48]	; 0x30

          CLEAR_BIT(huart->Instance->CR1, USART_CR1_IDLEIE);
 8004394:	687b      	ldr	r3, [r7, #4]
 8004396:	681b      	ldr	r3, [r3, #0]
 8004398:	68da      	ldr	r2, [r3, #12]
 800439a:	687b      	ldr	r3, [r7, #4]
 800439c:	681b      	ldr	r3, [r3, #0]
 800439e:	f022 0210 	bic.w	r2, r2, #16
 80043a2:	60da      	str	r2, [r3, #12]

          /* Last bytes received, so no need as the abort is immediate */
          (void)HAL_DMA_Abort(huart->hdmarx);
 80043a4:	687b      	ldr	r3, [r7, #4]
 80043a6:	6b9b      	ldr	r3, [r3, #56]	; 0x38
 80043a8:	4618      	mov	r0, r3
 80043aa:	f7fd fadf 	bl	800196c <HAL_DMA_Abort>
#if (USE_HAL_UART_REGISTER_CALLBACKS == 1)
        /*Call registered Rx Event callback*/
        huart->RxEventCallback(huart, (huart->RxXferSize - huart->RxXferCount));
#else
        /*Call legacy weak Rx Event callback*/
        HAL_UARTEx_RxEventCallback(huart, (huart->RxXferSize - huart->RxXferCount));
 80043ae:	687b      	ldr	r3, [r7, #4]
 80043b0:	8d9a      	ldrh	r2, [r3, #44]	; 0x2c
 80043b2:	687b      	ldr	r3, [r7, #4]
 80043b4:	8ddb      	ldrh	r3, [r3, #46]	; 0x2e
 80043b6:	b29b      	uxth	r3, r3
 80043b8:	1ad3      	subs	r3, r2, r3
 80043ba:	b29b      	uxth	r3, r3
 80043bc:	4619      	mov	r1, r3
 80043be:	6878      	ldr	r0, [r7, #4]
 80043c0:	f000 f87a 	bl	80044b8 <HAL_UARTEx_RxEventCallback>
#endif
      }
      return;
 80043c4:	e051      	b.n	800446a <HAL_UART_IRQHandler+0x346>
    else
    {
      /* DMA mode not enabled */
      /* Check received length : If all expected data are received, do nothing.
         Otherwise, if at least one data has already been received, IDLE event is to be notified to user */
      uint16_t nb_rx_data = huart->RxXferSize - huart->RxXferCount;
 80043c6:	687b      	ldr	r3, [r7, #4]
 80043c8:	8d9a      	ldrh	r2, [r3, #44]	; 0x2c
 80043ca:	687b      	ldr	r3, [r7, #4]
 80043cc:	8ddb      	ldrh	r3, [r3, #46]	; 0x2e
 80043ce:	b29b      	uxth	r3, r3
 80043d0:	1ad3      	subs	r3, r2, r3
 80043d2:	827b      	strh	r3, [r7, #18]
      if (  (huart->RxXferCount > 0U)
 80043d4:	687b      	ldr	r3, [r7, #4]
 80043d6:	8ddb      	ldrh	r3, [r3, #46]	; 0x2e
 80043d8:	b29b      	uxth	r3, r3
 80043da:	2b00      	cmp	r3, #0
 80043dc:	d047      	beq.n	800446e <HAL_UART_IRQHandler+0x34a>
          &&(nb_rx_data > 0U) )
 80043de:	8a7b      	ldrh	r3, [r7, #18]
 80043e0:	2b00      	cmp	r3, #0
 80043e2:	d044      	beq.n	800446e <HAL_UART_IRQHandler+0x34a>
      {
        /* Disable the UART Parity Error Interrupt and RXNE interrupts */
        CLEAR_BIT(huart->Instance->CR1, (USART_CR1_RXNEIE | USART_CR1_PEIE));
 80043e4:	687b      	ldr	r3, [r7, #4]
 80043e6:	681b      	ldr	r3, [r3, #0]
 80043e8:	68da      	ldr	r2, [r3, #12]
 80043ea:	687b      	ldr	r3, [r7, #4]
 80043ec:	681b      	ldr	r3, [r3, #0]
 80043ee:	f422 7290 	bic.w	r2, r2, #288	; 0x120
 80043f2:	60da      	str	r2, [r3, #12]

        /* Disable the UART Error Interrupt: (Frame error, noise error, overrun error) */
        CLEAR_BIT(huart->Instance->CR3, USART_CR3_EIE);
 80043f4:	687b      	ldr	r3, [r7, #4]
 80043f6:	681b      	ldr	r3, [r3, #0]
 80043f8:	695a      	ldr	r2, [r3, #20]
 80043fa:	687b      	ldr	r3, [r7, #4]
 80043fc:	681b      	ldr	r3, [r3, #0]
 80043fe:	f022 0201 	bic.w	r2, r2, #1
 8004402:	615a      	str	r2, [r3, #20]

        /* Rx process is completed, restore huart->RxState to Ready */
        huart->RxState = HAL_UART_STATE_READY;
 8004404:	687b      	ldr	r3, [r7, #4]
 8004406:	2220      	movs	r2, #32
 8004408:	f883 203e 	strb.w	r2, [r3, #62]	; 0x3e
        huart->ReceptionType = HAL_UART_RECEPTION_STANDARD;
 800440c:	687b      	ldr	r3, [r7, #4]
 800440e:	2200      	movs	r2, #0
 8004410:	631a      	str	r2, [r3, #48]	; 0x30

        CLEAR_BIT(huart->Instance->CR1, USART_CR1_IDLEIE);
 8004412:	687b      	ldr	r3, [r7, #4]
 8004414:	681b      	ldr	r3, [r3, #0]
 8004416:	68da      	ldr	r2, [r3, #12]
 8004418:	687b      	ldr	r3, [r7, #4]
 800441a:	681b      	ldr	r3, [r3, #0]
 800441c:	f022 0210 	bic.w	r2, r2, #16
 8004420:	60da      	str	r2, [r3, #12]
#if (USE_HAL_UART_REGISTER_CALLBACKS == 1)
        /*Call registered Rx complete callback*/
        huart->RxEventCallback(huart, nb_rx_data);
#else
        /*Call legacy weak Rx Event callback*/
        HAL_UARTEx_RxEventCallback(huart, nb_rx_data);
 8004422:	8a7b      	ldrh	r3, [r7, #18]
 8004424:	4619      	mov	r1, r3
 8004426:	6878      	ldr	r0, [r7, #4]
 8004428:	f000 f846 	bl	80044b8 <HAL_UARTEx_RxEventCallback>
#endif
      }
      return;
 800442c:	e01f      	b.n	800446e <HAL_UART_IRQHandler+0x34a>
    }
  }

  /* UART in mode Transmitter ------------------------------------------------*/
  if (((isrflags & USART_SR_TXE) != RESET) && ((cr1its & USART_CR1_TXEIE) != RESET))
 800442e:	6a7b      	ldr	r3, [r7, #36]	; 0x24
 8004430:	f003 0380 	and.w	r3, r3, #128	; 0x80
 8004434:	2b00      	cmp	r3, #0
 8004436:	d008      	beq.n	800444a <HAL_UART_IRQHandler+0x326>
 8004438:	6a3b      	ldr	r3, [r7, #32]
 800443a:	f003 0380 	and.w	r3, r3, #128	; 0x80
 800443e:	2b00      	cmp	r3, #0
 8004440:	d003      	beq.n	800444a <HAL_UART_IRQHandler+0x326>
  {
    UART_Transmit_IT(huart);
 8004442:	6878      	ldr	r0, [r7, #4]
 8004444:	f000 fa31 	bl	80048aa <UART_Transmit_IT>
    return;
 8004448:	e012      	b.n	8004470 <HAL_UART_IRQHandler+0x34c>
  }

  /* UART in mode Transmitter end --------------------------------------------*/
  if (((isrflags & USART_SR_TC) != RESET) && ((cr1its & USART_CR1_TCIE) != RESET))
 800444a:	6a7b      	ldr	r3, [r7, #36]	; 0x24
 800444c:	f003 0340 	and.w	r3, r3, #64	; 0x40
 8004450:	2b00      	cmp	r3, #0
 8004452:	d00d      	beq.n	8004470 <HAL_UART_IRQHandler+0x34c>
 8004454:	6a3b      	ldr	r3, [r7, #32]
 8004456:	f003 0340 	and.w	r3, r3, #64	; 0x40
 800445a:	2b00      	cmp	r3, #0
 800445c:	d008      	beq.n	8004470 <HAL_UART_IRQHandler+0x34c>
  {
    UART_EndTransmit_IT(huart);
 800445e:	6878      	ldr	r0, [r7, #4]
 8004460:	f000 fa73 	bl	800494a <UART_EndTransmit_IT>
    return;
 8004464:	e004      	b.n	8004470 <HAL_UART_IRQHandler+0x34c>
    return;
 8004466:	bf00      	nop
 8004468:	e002      	b.n	8004470 <HAL_UART_IRQHandler+0x34c>
      return;
 800446a:	bf00      	nop
 800446c:	e000      	b.n	8004470 <HAL_UART_IRQHandler+0x34c>
      return;
 800446e:	bf00      	nop
  }
}
 8004470:	3728      	adds	r7, #40	; 0x28
 8004472:	46bd      	mov	sp, r7
 8004474:	bd80      	pop	{r7, pc}
 8004476:	bf00      	nop
 8004478:	08004883 	.word	0x08004883

0800447c <HAL_UART_TxHalfCpltCallback>:
  * @param  huart  Pointer to a UART_HandleTypeDef structure that contains
  *                the configuration information for the specified UART module.
  * @retval None
  */
__weak void HAL_UART_TxHalfCpltCallback(UART_HandleTypeDef *huart)
{
 800447c:	b480      	push	{r7}
 800447e:	b083      	sub	sp, #12
 8004480:	af00      	add	r7, sp, #0
 8004482:	6078      	str	r0, [r7, #4]
  /* Prevent unused argument(s) compilation warning */
  UNUSED(huart);
  /* NOTE: This function should not be modified, when the callback is needed,
           the HAL_UART_TxHalfCpltCallback could be implemented in the user file
   */
}
 8004484:	bf00      	nop
 8004486:	370c      	adds	r7, #12
 8004488:	46bd      	mov	sp, r7
 800448a:	f85d 7b04 	ldr.w	r7, [sp], #4
 800448e:	4770      	bx	lr

08004490 <HAL_UART_RxHalfCpltCallback>:
  * @param  huart  Pointer to a UART_HandleTypeDef structure that contains
  *                the configuration information for the specified UART module.
  * @retval None
  */
__weak void HAL_UART_RxHalfCpltCallback(UART_HandleTypeDef *huart)
{
 8004490:	b480      	push	{r7}
 8004492:	b083      	sub	sp, #12
 8004494:	af00      	add	r7, sp, #0
 8004496:	6078      	str	r0, [r7, #4]
  /* Prevent unused argument(s) compilation warning */
  UNUSED(huart);
  /* NOTE: This function should not be modified, when the callback is needed,
           the HAL_UART_RxHalfCpltCallback could be implemented in the user file
   */
}
 8004498:	bf00      	nop
 800449a:	370c      	adds	r7, #12
 800449c:	46bd      	mov	sp, r7
 800449e:	f85d 7b04 	ldr.w	r7, [sp], #4
 80044a2:	4770      	bx	lr

080044a4 <HAL_UART_ErrorCallback>:
  * @param  huart  Pointer to a UART_HandleTypeDef structure that contains
  *                the configuration information for the specified UART module.
  * @retval None
  */
__weak void HAL_UART_ErrorCallback(UART_HandleTypeDef *huart)
{
 80044a4:	b480      	push	{r7}
 80044a6:	b083      	sub	sp, #12
 80044a8:	af00      	add	r7, sp, #0
 80044aa:	6078      	str	r0, [r7, #4]
  /* Prevent unused argument(s) compilation warning */
  UNUSED(huart);
  /* NOTE: This function should not be modified, when the callback is needed,
           the HAL_UART_ErrorCallback could be implemented in the user file
   */
}
 80044ac:	bf00      	nop
 80044ae:	370c      	adds	r7, #12
 80044b0:	46bd      	mov	sp, r7
 80044b2:	f85d 7b04 	ldr.w	r7, [sp], #4
 80044b6:	4770      	bx	lr

080044b8 <HAL_UARTEx_RxEventCallback>:
  * @param  Size  Number of data available in application reception buffer (indicates a position in
  *               reception buffer until which, data are available)
  * @retval None
  */
__weak void HAL_UARTEx_RxEventCallback(UART_HandleTypeDef *huart, uint16_t Size)
{
 80044b8:	b480      	push	{r7}
 80044ba:	b083      	sub	sp, #12
 80044bc:	af00      	add	r7, sp, #0
 80044be:	6078      	str	r0, [r7, #4]
 80044c0:	460b      	mov	r3, r1
 80044c2:	807b      	strh	r3, [r7, #2]
  UNUSED(Size);

  /* NOTE : This function should not be modified, when the callback is needed,
            the HAL_UARTEx_RxEventCallback can be implemented in the user file.
   */
}
 80044c4:	bf00      	nop
 80044c6:	370c      	adds	r7, #12
 80044c8:	46bd      	mov	sp, r7
 80044ca:	f85d 7b04 	ldr.w	r7, [sp], #4
 80044ce:	4770      	bx	lr

080044d0 <UART_DMATransmitCplt>:
  * @param  hdma  Pointer to a DMA_HandleTypeDef structure that contains
  *               the configuration information for the specified DMA module.
  * @retval None
  */
static void UART_DMATransmitCplt(DMA_HandleTypeDef *hdma)
{
 80044d0:	b580      	push	{r7, lr}
 80044d2:	b084      	sub	sp, #16
 80044d4:	af00      	add	r7, sp, #0
 80044d6:	6078      	str	r0, [r7, #4]
  UART_HandleTypeDef *huart = (UART_HandleTypeDef *)((DMA_HandleTypeDef *)hdma)->Parent;
 80044d8:	687b      	ldr	r3, [r7, #4]
 80044da:	6b9b      	ldr	r3, [r3, #56]	; 0x38
 80044dc:	60fb      	str	r3, [r7, #12]
  /* DMA Normal mode*/
  if ((hdma->Instance->CR & DMA_SxCR_CIRC) == 0U)
 80044de:	687b      	ldr	r3, [r7, #4]
 80044e0:	681b      	ldr	r3, [r3, #0]
 80044e2:	681b      	ldr	r3, [r3, #0]
 80044e4:	f403 7380 	and.w	r3, r3, #256	; 0x100
 80044e8:	2b00      	cmp	r3, #0
 80044ea:	d113      	bne.n	8004514 <UART_DMATransmitCplt+0x44>
  {
    huart->TxXferCount = 0x00U;
 80044ec:	68fb      	ldr	r3, [r7, #12]
 80044ee:	2200      	movs	r2, #0
 80044f0:	84da      	strh	r2, [r3, #38]	; 0x26

    /* Disable the DMA transfer for transmit request by setting the DMAT bit
       in the UART CR3 register */
    CLEAR_BIT(huart->Instance->CR3, USART_CR3_DMAT);
 80044f2:	68fb      	ldr	r3, [r7, #12]
 80044f4:	681b      	ldr	r3, [r3, #0]
 80044f6:	695a      	ldr	r2, [r3, #20]
 80044f8:	68fb      	ldr	r3, [r7, #12]
 80044fa:	681b      	ldr	r3, [r3, #0]
 80044fc:	f022 0280 	bic.w	r2, r2, #128	; 0x80
 8004500:	615a      	str	r2, [r3, #20]

    /* Enable the UART Transmit Complete Interrupt */
    SET_BIT(huart->Instance->CR1, USART_CR1_TCIE);
 8004502:	68fb      	ldr	r3, [r7, #12]
 8004504:	681b      	ldr	r3, [r3, #0]
 8004506:	68da      	ldr	r2, [r3, #12]
 8004508:	68fb      	ldr	r3, [r7, #12]
 800450a:	681b      	ldr	r3, [r3, #0]
 800450c:	f042 0240 	orr.w	r2, r2, #64	; 0x40
 8004510:	60da      	str	r2, [r3, #12]
#else
    /*Call legacy weak Tx complete callback*/
    HAL_UART_TxCpltCallback(huart);
#endif /* USE_HAL_UART_REGISTER_CALLBACKS */
  }
}
 8004512:	e002      	b.n	800451a <UART_DMATransmitCplt+0x4a>
    HAL_UART_TxCpltCallback(huart);
 8004514:	68f8      	ldr	r0, [r7, #12]
 8004516:	f7fc ff63 	bl	80013e0 <HAL_UART_TxCpltCallback>
}
 800451a:	bf00      	nop
 800451c:	3710      	adds	r7, #16
 800451e:	46bd      	mov	sp, r7
 8004520:	bd80      	pop	{r7, pc}

08004522 <UART_DMATxHalfCplt>:
  * @param  hdma  Pointer to a DMA_HandleTypeDef structure that contains
  *               the configuration information for the specified DMA module.
  * @retval None
  */
static void UART_DMATxHalfCplt(DMA_HandleTypeDef *hdma)
{
 8004522:	b580      	push	{r7, lr}
 8004524:	b084      	sub	sp, #16
 8004526:	af00      	add	r7, sp, #0
 8004528:	6078      	str	r0, [r7, #4]
  UART_HandleTypeDef *huart = (UART_HandleTypeDef *)((DMA_HandleTypeDef *)hdma)->Parent;
 800452a:	687b      	ldr	r3, [r7, #4]
 800452c:	6b9b      	ldr	r3, [r3, #56]	; 0x38
 800452e:	60fb      	str	r3, [r7, #12]
#if (USE_HAL_UART_REGISTER_CALLBACKS == 1)
  /*Call registered Tx complete callback*/
  huart->TxHalfCpltCallback(huart);
#else
  /*Call legacy weak Tx complete callback*/
  HAL_UART_TxHalfCpltCallback(huart);
 8004530:	68f8      	ldr	r0, [r7, #12]
 8004532:	f7ff ffa3 	bl	800447c <HAL_UART_TxHalfCpltCallback>
#endif /* USE_HAL_UART_REGISTER_CALLBACKS */
}
 8004536:	bf00      	nop
 8004538:	3710      	adds	r7, #16
 800453a:	46bd      	mov	sp, r7
 800453c:	bd80      	pop	{r7, pc}

0800453e <UART_DMAReceiveCplt>:
  * @param  hdma  Pointer to a DMA_HandleTypeDef structure that contains
  *               the configuration information for the specified DMA module.
  * @retval None
  */
static void UART_DMAReceiveCplt(DMA_HandleTypeDef *hdma)
{
 800453e:	b580      	push	{r7, lr}
 8004540:	b084      	sub	sp, #16
 8004542:	af00      	add	r7, sp, #0
 8004544:	6078      	str	r0, [r7, #4]
  UART_HandleTypeDef *huart = (UART_HandleTypeDef *)((DMA_HandleTypeDef *)hdma)->Parent;
 8004546:	687b      	ldr	r3, [r7, #4]
 8004548:	6b9b      	ldr	r3, [r3, #56]	; 0x38
 800454a:	60fb      	str	r3, [r7, #12]
  /* DMA Normal mode*/
  if ((hdma->Instance->CR & DMA_SxCR_CIRC) == 0U)
 800454c:	687b      	ldr	r3, [r7, #4]
 800454e:	681b      	ldr	r3, [r3, #0]
 8004550:	681b      	ldr	r3, [r3, #0]
 8004552:	f403 7380 	and.w	r3, r3, #256	; 0x100
 8004556:	2b00      	cmp	r3, #0
 8004558:	d12a      	bne.n	80045b0 <UART_DMAReceiveCplt+0x72>
  {
    huart->RxXferCount = 0U;
 800455a:	68fb      	ldr	r3, [r7, #12]
 800455c:	2200      	movs	r2, #0
 800455e:	85da      	strh	r2, [r3, #46]	; 0x2e

    /* Disable RXNE, PE and ERR (Frame error, noise error, overrun error) interrupts */
    CLEAR_BIT(huart->Instance->CR1, USART_CR1_PEIE);
 8004560:	68fb      	ldr	r3, [r7, #12]
 8004562:	681b      	ldr	r3, [r3, #0]
 8004564:	68da      	ldr	r2, [r3, #12]
 8004566:	68fb      	ldr	r3, [r7, #12]
 8004568:	681b      	ldr	r3, [r3, #0]
 800456a:	f422 7280 	bic.w	r2, r2, #256	; 0x100
 800456e:	60da      	str	r2, [r3, #12]
    CLEAR_BIT(huart->Instance->CR3, USART_CR3_EIE);
 8004570:	68fb      	ldr	r3, [r7, #12]
 8004572:	681b      	ldr	r3, [r3, #0]
 8004574:	695a      	ldr	r2, [r3, #20]
 8004576:	68fb      	ldr	r3, [r7, #12]
 8004578:	681b      	ldr	r3, [r3, #0]
 800457a:	f022 0201 	bic.w	r2, r2, #1
 800457e:	615a      	str	r2, [r3, #20]

    /* Disable the DMA transfer for the receiver request by setting the DMAR bit
       in the UART CR3 register */
    CLEAR_BIT(huart->Instance->CR3, USART_CR3_DMAR);
 8004580:	68fb      	ldr	r3, [r7, #12]
 8004582:	681b      	ldr	r3, [r3, #0]
 8004584:	695a      	ldr	r2, [r3, #20]
 8004586:	68fb      	ldr	r3, [r7, #12]
 8004588:	681b      	ldr	r3, [r3, #0]
 800458a:	f022 0240 	bic.w	r2, r2, #64	; 0x40
 800458e:	615a      	str	r2, [r3, #20]

    /* At end of Rx process, restore huart->RxState to Ready */
    huart->RxState = HAL_UART_STATE_READY;
 8004590:	68fb      	ldr	r3, [r7, #12]
 8004592:	2220      	movs	r2, #32
 8004594:	f883 203e 	strb.w	r2, [r3, #62]	; 0x3e

    /* If Reception till IDLE event has been selected, Disable IDLE Interrupt */
    if (huart->ReceptionType == HAL_UART_RECEPTION_TOIDLE)
 8004598:	68fb      	ldr	r3, [r7, #12]
 800459a:	6b1b      	ldr	r3, [r3, #48]	; 0x30
 800459c:	2b01      	cmp	r3, #1
 800459e:	d107      	bne.n	80045b0 <UART_DMAReceiveCplt+0x72>
    {
      CLEAR_BIT(huart->Instance->CR1, USART_CR1_IDLEIE);
 80045a0:	68fb      	ldr	r3, [r7, #12]
 80045a2:	681b      	ldr	r3, [r3, #0]
 80045a4:	68da      	ldr	r2, [r3, #12]
 80045a6:	68fb      	ldr	r3, [r7, #12]
 80045a8:	681b      	ldr	r3, [r3, #0]
 80045aa:	f022 0210 	bic.w	r2, r2, #16
 80045ae:	60da      	str	r2, [r3, #12]
    }
  }

  /* Check current reception Mode :
     If Reception till IDLE event has been selected : use Rx Event callback */
  if (huart->ReceptionType == HAL_UART_RECEPTION_TOIDLE)
 80045b0:	68fb      	ldr	r3, [r7, #12]
 80045b2:	6b1b      	ldr	r3, [r3, #48]	; 0x30
 80045b4:	2b01      	cmp	r3, #1
 80045b6:	d106      	bne.n	80045c6 <UART_DMAReceiveCplt+0x88>
#if (USE_HAL_UART_REGISTER_CALLBACKS == 1)
    /*Call registered Rx Event callback*/
    huart->RxEventCallback(huart, huart->RxXferSize);
#else
    /*Call legacy weak Rx Event callback*/
    HAL_UARTEx_RxEventCallback(huart, huart->RxXferSize);
 80045b8:	68fb      	ldr	r3, [r7, #12]
 80045ba:	8d9b      	ldrh	r3, [r3, #44]	; 0x2c
 80045bc:	4619      	mov	r1, r3
 80045be:	68f8      	ldr	r0, [r7, #12]
 80045c0:	f7ff ff7a 	bl	80044b8 <HAL_UARTEx_RxEventCallback>
#else
    /*Call legacy weak Rx complete callback*/
    HAL_UART_RxCpltCallback(huart);
#endif /* USE_HAL_UART_REGISTER_CALLBACKS */
  }
}
 80045c4:	e002      	b.n	80045cc <UART_DMAReceiveCplt+0x8e>
    HAL_UART_RxCpltCallback(huart);
 80045c6:	68f8      	ldr	r0, [r7, #12]
 80045c8:	f7fc fe60 	bl	800128c <HAL_UART_RxCpltCallback>
}
 80045cc:	bf00      	nop
 80045ce:	3710      	adds	r7, #16
 80045d0:	46bd      	mov	sp, r7
 80045d2:	bd80      	pop	{r7, pc}

080045d4 <UART_DMARxHalfCplt>:
  * @param  hdma  Pointer to a DMA_HandleTypeDef structure that contains
  *               the configuration information for the specified DMA module.
  * @retval None
  */
static void UART_DMARxHalfCplt(DMA_HandleTypeDef *hdma)
{
 80045d4:	b580      	push	{r7, lr}
 80045d6:	b084      	sub	sp, #16
 80045d8:	af00      	add	r7, sp, #0
 80045da:	6078      	str	r0, [r7, #4]
  UART_HandleTypeDef *huart = (UART_HandleTypeDef *)((DMA_HandleTypeDef *)hdma)->Parent;
 80045dc:	687b      	ldr	r3, [r7, #4]
 80045de:	6b9b      	ldr	r3, [r3, #56]	; 0x38
 80045e0:	60fb      	str	r3, [r7, #12]

  /* Check current reception Mode :
     If Reception till IDLE event has been selected : use Rx Event callback */
  if (huart->ReceptionType == HAL_UART_RECEPTION_TOIDLE)
 80045e2:	68fb      	ldr	r3, [r7, #12]
 80045e4:	6b1b      	ldr	r3, [r3, #48]	; 0x30
 80045e6:	2b01      	cmp	r3, #1
 80045e8:	d108      	bne.n	80045fc <UART_DMARxHalfCplt+0x28>
#if (USE_HAL_UART_REGISTER_CALLBACKS == 1)
    /*Call registered Rx Event callback*/
    huart->RxEventCallback(huart, huart->RxXferSize/2U);
#else
    /*Call legacy weak Rx Event callback*/
    HAL_UARTEx_RxEventCallback(huart, huart->RxXferSize/2U);
 80045ea:	68fb      	ldr	r3, [r7, #12]
 80045ec:	8d9b      	ldrh	r3, [r3, #44]	; 0x2c
 80045ee:	085b      	lsrs	r3, r3, #1
 80045f0:	b29b      	uxth	r3, r3
 80045f2:	4619      	mov	r1, r3
 80045f4:	68f8      	ldr	r0, [r7, #12]
 80045f6:	f7ff ff5f 	bl	80044b8 <HAL_UARTEx_RxEventCallback>
#else
    /*Call legacy weak Rx Half complete callback*/
    HAL_UART_RxHalfCpltCallback(huart);
#endif /* USE_HAL_UART_REGISTER_CALLBACKS */
  }
}
 80045fa:	e002      	b.n	8004602 <UART_DMARxHalfCplt+0x2e>
    HAL_UART_RxHalfCpltCallback(huart);
 80045fc:	68f8      	ldr	r0, [r7, #12]
 80045fe:	f7ff ff47 	bl	8004490 <HAL_UART_RxHalfCpltCallback>
}
 8004602:	bf00      	nop
 8004604:	3710      	adds	r7, #16
 8004606:	46bd      	mov	sp, r7
 8004608:	bd80      	pop	{r7, pc}

0800460a <UART_DMAError>:
  * @param  hdma  Pointer to a DMA_HandleTypeDef structure that contains
  *               the configuration information for the specified DMA module.
  * @retval None
  */
static void UART_DMAError(DMA_HandleTypeDef *hdma)
{
 800460a:	b580      	push	{r7, lr}
 800460c:	b084      	sub	sp, #16
 800460e:	af00      	add	r7, sp, #0
 8004610:	6078      	str	r0, [r7, #4]
  uint32_t dmarequest = 0x00U;
 8004612:	2300      	movs	r3, #0
 8004614:	60fb      	str	r3, [r7, #12]
  UART_HandleTypeDef *huart = (UART_HandleTypeDef *)((DMA_HandleTypeDef *)hdma)->Parent;
 8004616:	687b      	ldr	r3, [r7, #4]
 8004618:	6b9b      	ldr	r3, [r3, #56]	; 0x38
 800461a:	60bb      	str	r3, [r7, #8]

  /* Stop UART DMA Tx request if ongoing */
  dmarequest = HAL_IS_BIT_SET(huart->Instance->CR3, USART_CR3_DMAT);
 800461c:	68bb      	ldr	r3, [r7, #8]
 800461e:	681b      	ldr	r3, [r3, #0]
 8004620:	695b      	ldr	r3, [r3, #20]
 8004622:	f003 0380 	and.w	r3, r3, #128	; 0x80
 8004626:	2b80      	cmp	r3, #128	; 0x80
 8004628:	bf0c      	ite	eq
 800462a:	2301      	moveq	r3, #1
 800462c:	2300      	movne	r3, #0
 800462e:	b2db      	uxtb	r3, r3
 8004630:	60fb      	str	r3, [r7, #12]
  if ((huart->gState == HAL_UART_STATE_BUSY_TX) && dmarequest)
 8004632:	68bb      	ldr	r3, [r7, #8]
 8004634:	f893 303d 	ldrb.w	r3, [r3, #61]	; 0x3d
 8004638:	b2db      	uxtb	r3, r3
 800463a:	2b21      	cmp	r3, #33	; 0x21
 800463c:	d108      	bne.n	8004650 <UART_DMAError+0x46>
 800463e:	68fb      	ldr	r3, [r7, #12]
 8004640:	2b00      	cmp	r3, #0
 8004642:	d005      	beq.n	8004650 <UART_DMAError+0x46>
  {
    huart->TxXferCount = 0x00U;
 8004644:	68bb      	ldr	r3, [r7, #8]
 8004646:	2200      	movs	r2, #0
 8004648:	84da      	strh	r2, [r3, #38]	; 0x26
    UART_EndTxTransfer(huart);
 800464a:	68b8      	ldr	r0, [r7, #8]
 800464c:	f000 f8d6 	bl	80047fc <UART_EndTxTransfer>
  }

  /* Stop UART DMA Rx request if ongoing */
  dmarequest = HAL_IS_BIT_SET(huart->Instance->CR3, USART_CR3_DMAR);
 8004650:	68bb      	ldr	r3, [r7, #8]
 8004652:	681b      	ldr	r3, [r3, #0]
 8004654:	695b      	ldr	r3, [r3, #20]
 8004656:	f003 0340 	and.w	r3, r3, #64	; 0x40
 800465a:	2b40      	cmp	r3, #64	; 0x40
 800465c:	bf0c      	ite	eq
 800465e:	2301      	moveq	r3, #1
 8004660:	2300      	movne	r3, #0
 8004662:	b2db      	uxtb	r3, r3
 8004664:	60fb      	str	r3, [r7, #12]
  if ((huart->RxState == HAL_UART_STATE_BUSY_RX) && dmarequest)
 8004666:	68bb      	ldr	r3, [r7, #8]
 8004668:	f893 303e 	ldrb.w	r3, [r3, #62]	; 0x3e
 800466c:	b2db      	uxtb	r3, r3
 800466e:	2b22      	cmp	r3, #34	; 0x22
 8004670:	d108      	bne.n	8004684 <UART_DMAError+0x7a>
 8004672:	68fb      	ldr	r3, [r7, #12]
 8004674:	2b00      	cmp	r3, #0
 8004676:	d005      	beq.n	8004684 <UART_DMAError+0x7a>
  {
    huart->RxXferCount = 0x00U;
 8004678:	68bb      	ldr	r3, [r7, #8]
 800467a:	2200      	movs	r2, #0
 800467c:	85da      	strh	r2, [r3, #46]	; 0x2e
    UART_EndRxTransfer(huart);
 800467e:	68b8      	ldr	r0, [r7, #8]
 8004680:	f000 f8d2 	bl	8004828 <UART_EndRxTransfer>
  }

  huart->ErrorCode |= HAL_UART_ERROR_DMA;
 8004684:	68bb      	ldr	r3, [r7, #8]
 8004686:	6c1b      	ldr	r3, [r3, #64]	; 0x40
 8004688:	f043 0210 	orr.w	r2, r3, #16
 800468c:	68bb      	ldr	r3, [r7, #8]
 800468e:	641a      	str	r2, [r3, #64]	; 0x40
#if (USE_HAL_UART_REGISTER_CALLBACKS == 1)
  /*Call registered error callback*/
  huart->ErrorCallback(huart);
#else
  /*Call legacy weak error callback*/
  HAL_UART_ErrorCallback(huart);
 8004690:	68b8      	ldr	r0, [r7, #8]
 8004692:	f7ff ff07 	bl	80044a4 <HAL_UART_ErrorCallback>
#endif /* USE_HAL_UART_REGISTER_CALLBACKS */
}
 8004696:	bf00      	nop
 8004698:	3710      	adds	r7, #16
 800469a:	46bd      	mov	sp, r7
 800469c:	bd80      	pop	{r7, pc}

0800469e <UART_WaitOnFlagUntilTimeout>:
  * @param  Tickstart Tick start value
  * @param  Timeout Timeout duration
  * @retval HAL status
  */
static HAL_StatusTypeDef UART_WaitOnFlagUntilTimeout(UART_HandleTypeDef *huart, uint32_t Flag, FlagStatus Status, uint32_t Tickstart, uint32_t Timeout)
{
 800469e:	b580      	push	{r7, lr}
 80046a0:	b084      	sub	sp, #16
 80046a2:	af00      	add	r7, sp, #0
 80046a4:	60f8      	str	r0, [r7, #12]
 80046a6:	60b9      	str	r1, [r7, #8]
 80046a8:	603b      	str	r3, [r7, #0]
 80046aa:	4613      	mov	r3, r2
 80046ac:	71fb      	strb	r3, [r7, #7]
  /* Wait until flag is set */
  while ((__HAL_UART_GET_FLAG(huart, Flag) ? SET : RESET) == Status)
 80046ae:	e02c      	b.n	800470a <UART_WaitOnFlagUntilTimeout+0x6c>
  {
    /* Check for the Timeout */
    if (Timeout != HAL_MAX_DELAY)
 80046b0:	69bb      	ldr	r3, [r7, #24]
 80046b2:	f1b3 3fff 	cmp.w	r3, #4294967295
 80046b6:	d028      	beq.n	800470a <UART_WaitOnFlagUntilTimeout+0x6c>
    {
      if ((Timeout == 0U) || ((HAL_GetTick() - Tickstart) > Timeout))
 80046b8:	69bb      	ldr	r3, [r7, #24]
 80046ba:	2b00      	cmp	r3, #0
 80046bc:	d007      	beq.n	80046ce <UART_WaitOnFlagUntilTimeout+0x30>
 80046be:	f7fc ff31 	bl	8001524 <HAL_GetTick>
 80046c2:	4602      	mov	r2, r0
 80046c4:	683b      	ldr	r3, [r7, #0]
 80046c6:	1ad3      	subs	r3, r2, r3
 80046c8:	69ba      	ldr	r2, [r7, #24]
 80046ca:	429a      	cmp	r2, r3
 80046cc:	d21d      	bcs.n	800470a <UART_WaitOnFlagUntilTimeout+0x6c>
      {
        /* Disable TXE, RXNE, PE and ERR (Frame error, noise error, overrun error) interrupts for the interrupt process */
        CLEAR_BIT(huart->Instance->CR1, (USART_CR1_RXNEIE | USART_CR1_PEIE | USART_CR1_TXEIE));
 80046ce:	68fb      	ldr	r3, [r7, #12]
 80046d0:	681b      	ldr	r3, [r3, #0]
 80046d2:	68da      	ldr	r2, [r3, #12]
 80046d4:	68fb      	ldr	r3, [r7, #12]
 80046d6:	681b      	ldr	r3, [r3, #0]
 80046d8:	f422 72d0 	bic.w	r2, r2, #416	; 0x1a0
 80046dc:	60da      	str	r2, [r3, #12]
        CLEAR_BIT(huart->Instance->CR3, USART_CR3_EIE);
 80046de:	68fb      	ldr	r3, [r7, #12]
 80046e0:	681b      	ldr	r3, [r3, #0]
 80046e2:	695a      	ldr	r2, [r3, #20]
 80046e4:	68fb      	ldr	r3, [r7, #12]
 80046e6:	681b      	ldr	r3, [r3, #0]
 80046e8:	f022 0201 	bic.w	r2, r2, #1
 80046ec:	615a      	str	r2, [r3, #20]

        huart->gState  = HAL_UART_STATE_READY;
 80046ee:	68fb      	ldr	r3, [r7, #12]
 80046f0:	2220      	movs	r2, #32
 80046f2:	f883 203d 	strb.w	r2, [r3, #61]	; 0x3d
        huart->RxState = HAL_UART_STATE_READY;
 80046f6:	68fb      	ldr	r3, [r7, #12]
 80046f8:	2220      	movs	r2, #32
 80046fa:	f883 203e 	strb.w	r2, [r3, #62]	; 0x3e

        /* Process Unlocked */
        __HAL_UNLOCK(huart);
 80046fe:	68fb      	ldr	r3, [r7, #12]
 8004700:	2200      	movs	r2, #0
 8004702:	f883 203c 	strb.w	r2, [r3, #60]	; 0x3c

        return HAL_TIMEOUT;
 8004706:	2303      	movs	r3, #3
 8004708:	e00f      	b.n	800472a <UART_WaitOnFlagUntilTimeout+0x8c>
  while ((__HAL_UART_GET_FLAG(huart, Flag) ? SET : RESET) == Status)
 800470a:	68fb      	ldr	r3, [r7, #12]
 800470c:	681b      	ldr	r3, [r3, #0]
 800470e:	681a      	ldr	r2, [r3, #0]
 8004710:	68bb      	ldr	r3, [r7, #8]
 8004712:	4013      	ands	r3, r2
 8004714:	68ba      	ldr	r2, [r7, #8]
 8004716:	429a      	cmp	r2, r3
 8004718:	bf0c      	ite	eq
 800471a:	2301      	moveq	r3, #1
 800471c:	2300      	movne	r3, #0
 800471e:	b2db      	uxtb	r3, r3
 8004720:	461a      	mov	r2, r3
 8004722:	79fb      	ldrb	r3, [r7, #7]
 8004724:	429a      	cmp	r2, r3
 8004726:	d0c3      	beq.n	80046b0 <UART_WaitOnFlagUntilTimeout+0x12>
      }
    }
  }
  return HAL_OK;
 8004728:	2300      	movs	r3, #0
}
 800472a:	4618      	mov	r0, r3
 800472c:	3710      	adds	r7, #16
 800472e:	46bd      	mov	sp, r7
 8004730:	bd80      	pop	{r7, pc}
	...

08004734 <UART_Start_Receive_DMA>:
  * @param  pData Pointer to data buffer (u8 or u16 data elements).
  * @param  Size  Amount of data elements (u8 or u16) to be received.
  * @retval HAL status
  */
HAL_StatusTypeDef UART_Start_Receive_DMA(UART_HandleTypeDef *huart, uint8_t *pData, uint16_t Size)
{
 8004734:	b580      	push	{r7, lr}
 8004736:	b086      	sub	sp, #24
 8004738:	af00      	add	r7, sp, #0
 800473a:	60f8      	str	r0, [r7, #12]
 800473c:	60b9      	str	r1, [r7, #8]
 800473e:	4613      	mov	r3, r2
 8004740:	80fb      	strh	r3, [r7, #6]
  uint32_t *tmp;

  huart->pRxBuffPtr = pData;
 8004742:	68ba      	ldr	r2, [r7, #8]
 8004744:	68fb      	ldr	r3, [r7, #12]
 8004746:	629a      	str	r2, [r3, #40]	; 0x28
  huart->RxXferSize = Size;
 8004748:	68fb      	ldr	r3, [r7, #12]
 800474a:	88fa      	ldrh	r2, [r7, #6]
 800474c:	859a      	strh	r2, [r3, #44]	; 0x2c

  huart->ErrorCode = HAL_UART_ERROR_NONE;
 800474e:	68fb      	ldr	r3, [r7, #12]
 8004750:	2200      	movs	r2, #0
 8004752:	641a      	str	r2, [r3, #64]	; 0x40
  huart->RxState = HAL_UART_STATE_BUSY_RX;
 8004754:	68fb      	ldr	r3, [r7, #12]
 8004756:	2222      	movs	r2, #34	; 0x22
 8004758:	f883 203e 	strb.w	r2, [r3, #62]	; 0x3e

  /* Set the UART DMA transfer complete callback */
  huart->hdmarx->XferCpltCallback = UART_DMAReceiveCplt;
 800475c:	68fb      	ldr	r3, [r7, #12]
 800475e:	6b9b      	ldr	r3, [r3, #56]	; 0x38
 8004760:	4a23      	ldr	r2, [pc, #140]	; (80047f0 <UART_Start_Receive_DMA+0xbc>)
 8004762:	63da      	str	r2, [r3, #60]	; 0x3c

  /* Set the UART DMA Half transfer complete callback */
  huart->hdmarx->XferHalfCpltCallback = UART_DMARxHalfCplt;
 8004764:	68fb      	ldr	r3, [r7, #12]
 8004766:	6b9b      	ldr	r3, [r3, #56]	; 0x38
 8004768:	4a22      	ldr	r2, [pc, #136]	; (80047f4 <UART_Start_Receive_DMA+0xc0>)
 800476a:	641a      	str	r2, [r3, #64]	; 0x40

  /* Set the DMA error callback */
  huart->hdmarx->XferErrorCallback = UART_DMAError;
 800476c:	68fb      	ldr	r3, [r7, #12]
 800476e:	6b9b      	ldr	r3, [r3, #56]	; 0x38
 8004770:	4a21      	ldr	r2, [pc, #132]	; (80047f8 <UART_Start_Receive_DMA+0xc4>)
 8004772:	64da      	str	r2, [r3, #76]	; 0x4c

  /* Set the DMA abort callback */
  huart->hdmarx->XferAbortCallback = NULL;
 8004774:	68fb      	ldr	r3, [r7, #12]
 8004776:	6b9b      	ldr	r3, [r3, #56]	; 0x38
 8004778:	2200      	movs	r2, #0
 800477a:	651a      	str	r2, [r3, #80]	; 0x50

  /* Enable the DMA stream */
  tmp = (uint32_t *)&pData;
 800477c:	f107 0308 	add.w	r3, r7, #8
 8004780:	617b      	str	r3, [r7, #20]
  HAL_DMA_Start_IT(huart->hdmarx, (uint32_t)&huart->Instance->DR, *(uint32_t *)tmp, Size);
 8004782:	68fb      	ldr	r3, [r7, #12]
 8004784:	6b98      	ldr	r0, [r3, #56]	; 0x38
 8004786:	68fb      	ldr	r3, [r7, #12]
 8004788:	681b      	ldr	r3, [r3, #0]
 800478a:	3304      	adds	r3, #4
 800478c:	4619      	mov	r1, r3
 800478e:	697b      	ldr	r3, [r7, #20]
 8004790:	681a      	ldr	r2, [r3, #0]
 8004792:	88fb      	ldrh	r3, [r7, #6]
 8004794:	f7fd f892 	bl	80018bc <HAL_DMA_Start_IT>

  /* Clear the Overrun flag just before enabling the DMA Rx request: can be mandatory for the second transfer */
  __HAL_UART_CLEAR_OREFLAG(huart);
 8004798:	2300      	movs	r3, #0
 800479a:	613b      	str	r3, [r7, #16]
 800479c:	68fb      	ldr	r3, [r7, #12]
 800479e:	681b      	ldr	r3, [r3, #0]
 80047a0:	681b      	ldr	r3, [r3, #0]
 80047a2:	613b      	str	r3, [r7, #16]
 80047a4:	68fb      	ldr	r3, [r7, #12]
 80047a6:	681b      	ldr	r3, [r3, #0]
 80047a8:	685b      	ldr	r3, [r3, #4]
 80047aa:	613b      	str	r3, [r7, #16]
 80047ac:	693b      	ldr	r3, [r7, #16]

  /* Process Unlocked */
  __HAL_UNLOCK(huart);
 80047ae:	68fb      	ldr	r3, [r7, #12]
 80047b0:	2200      	movs	r2, #0
 80047b2:	f883 203c 	strb.w	r2, [r3, #60]	; 0x3c

  /* Enable the UART Parity Error Interrupt */
  SET_BIT(huart->Instance->CR1, USART_CR1_PEIE);
 80047b6:	68fb      	ldr	r3, [r7, #12]
 80047b8:	681b      	ldr	r3, [r3, #0]
 80047ba:	68da      	ldr	r2, [r3, #12]
 80047bc:	68fb      	ldr	r3, [r7, #12]
 80047be:	681b      	ldr	r3, [r3, #0]
 80047c0:	f442 7280 	orr.w	r2, r2, #256	; 0x100
 80047c4:	60da      	str	r2, [r3, #12]

  /* Enable the UART Error Interrupt: (Frame error, noise error, overrun error) */
  SET_BIT(huart->Instance->CR3, USART_CR3_EIE);
 80047c6:	68fb      	ldr	r3, [r7, #12]
 80047c8:	681b      	ldr	r3, [r3, #0]
 80047ca:	695a      	ldr	r2, [r3, #20]
 80047cc:	68fb      	ldr	r3, [r7, #12]
 80047ce:	681b      	ldr	r3, [r3, #0]
 80047d0:	f042 0201 	orr.w	r2, r2, #1
 80047d4:	615a      	str	r2, [r3, #20]

  /* Enable the DMA transfer for the receiver request by setting the DMAR bit
  in the UART CR3 register */
  SET_BIT(huart->Instance->CR3, USART_CR3_DMAR);
 80047d6:	68fb      	ldr	r3, [r7, #12]
 80047d8:	681b      	ldr	r3, [r3, #0]
 80047da:	695a      	ldr	r2, [r3, #20]
 80047dc:	68fb      	ldr	r3, [r7, #12]
 80047de:	681b      	ldr	r3, [r3, #0]
 80047e0:	f042 0240 	orr.w	r2, r2, #64	; 0x40
 80047e4:	615a      	str	r2, [r3, #20]

  return HAL_OK;
 80047e6:	2300      	movs	r3, #0
}
 80047e8:	4618      	mov	r0, r3
 80047ea:	3718      	adds	r7, #24
 80047ec:	46bd      	mov	sp, r7
 80047ee:	bd80      	pop	{r7, pc}
 80047f0:	0800453f 	.word	0x0800453f
 80047f4:	080045d5 	.word	0x080045d5
 80047f8:	0800460b 	.word	0x0800460b

080047fc <UART_EndTxTransfer>:
  * @brief  End ongoing Tx transfer on UART peripheral (following error detection or Transmit completion).
  * @param  huart UART handle.
  * @retval None
  */
static void UART_EndTxTransfer(UART_HandleTypeDef *huart)
{
 80047fc:	b480      	push	{r7}
 80047fe:	b083      	sub	sp, #12
 8004800:	af00      	add	r7, sp, #0
 8004802:	6078      	str	r0, [r7, #4]
  /* Disable TXEIE and TCIE interrupts */
  CLEAR_BIT(huart->Instance->CR1, (USART_CR1_TXEIE | USART_CR1_TCIE));
 8004804:	687b      	ldr	r3, [r7, #4]
 8004806:	681b      	ldr	r3, [r3, #0]
 8004808:	68da      	ldr	r2, [r3, #12]
 800480a:	687b      	ldr	r3, [r7, #4]
 800480c:	681b      	ldr	r3, [r3, #0]
 800480e:	f022 02c0 	bic.w	r2, r2, #192	; 0xc0
 8004812:	60da      	str	r2, [r3, #12]

  /* At end of Tx process, restore huart->gState to Ready */
  huart->gState = HAL_UART_STATE_READY;
 8004814:	687b      	ldr	r3, [r7, #4]
 8004816:	2220      	movs	r2, #32
 8004818:	f883 203d 	strb.w	r2, [r3, #61]	; 0x3d
}
 800481c:	bf00      	nop
 800481e:	370c      	adds	r7, #12
 8004820:	46bd      	mov	sp, r7
 8004822:	f85d 7b04 	ldr.w	r7, [sp], #4
 8004826:	4770      	bx	lr

08004828 <UART_EndRxTransfer>:
  * @brief  End ongoing Rx transfer on UART peripheral (following error detection or Reception completion).
  * @param  huart UART handle.
  * @retval None
  */
static void UART_EndRxTransfer(UART_HandleTypeDef *huart)
{
 8004828:	b480      	push	{r7}
 800482a:	b083      	sub	sp, #12
 800482c:	af00      	add	r7, sp, #0
 800482e:	6078      	str	r0, [r7, #4]
  /* Disable RXNE, PE and ERR (Frame error, noise error, overrun error) interrupts */
  CLEAR_BIT(huart->Instance->CR1, (USART_CR1_RXNEIE | USART_CR1_PEIE));
 8004830:	687b      	ldr	r3, [r7, #4]
 8004832:	681b      	ldr	r3, [r3, #0]
 8004834:	68da      	ldr	r2, [r3, #12]
 8004836:	687b      	ldr	r3, [r7, #4]
 8004838:	681b      	ldr	r3, [r3, #0]
 800483a:	f422 7290 	bic.w	r2, r2, #288	; 0x120
 800483e:	60da      	str	r2, [r3, #12]
  CLEAR_BIT(huart->Instance->CR3, USART_CR3_EIE);
 8004840:	687b      	ldr	r3, [r7, #4]
 8004842:	681b      	ldr	r3, [r3, #0]
 8004844:	695a      	ldr	r2, [r3, #20]
 8004846:	687b      	ldr	r3, [r7, #4]
 8004848:	681b      	ldr	r3, [r3, #0]
 800484a:	f022 0201 	bic.w	r2, r2, #1
 800484e:	615a      	str	r2, [r3, #20]

  /* In case of reception waiting for IDLE event, disable also the IDLE IE interrupt source */
  if (huart->ReceptionType == HAL_UART_RECEPTION_TOIDLE)
 8004850:	687b      	ldr	r3, [r7, #4]
 8004852:	6b1b      	ldr	r3, [r3, #48]	; 0x30
 8004854:	2b01      	cmp	r3, #1
 8004856:	d107      	bne.n	8004868 <UART_EndRxTransfer+0x40>
  {
    CLEAR_BIT(huart->Instance->CR1, USART_CR1_IDLEIE);
 8004858:	687b      	ldr	r3, [r7, #4]
 800485a:	681b      	ldr	r3, [r3, #0]
 800485c:	68da      	ldr	r2, [r3, #12]
 800485e:	687b      	ldr	r3, [r7, #4]
 8004860:	681b      	ldr	r3, [r3, #0]
 8004862:	f022 0210 	bic.w	r2, r2, #16
 8004866:	60da      	str	r2, [r3, #12]
  }

  /* At end of Rx process, restore huart->RxState to Ready */
  huart->RxState = HAL_UART_STATE_READY;
 8004868:	687b      	ldr	r3, [r7, #4]
 800486a:	2220      	movs	r2, #32
 800486c:	f883 203e 	strb.w	r2, [r3, #62]	; 0x3e
  huart->ReceptionType = HAL_UART_RECEPTION_STANDARD;
 8004870:	687b      	ldr	r3, [r7, #4]
 8004872:	2200      	movs	r2, #0
 8004874:	631a      	str	r2, [r3, #48]	; 0x30
}
 8004876:	bf00      	nop
 8004878:	370c      	adds	r7, #12
 800487a:	46bd      	mov	sp, r7
 800487c:	f85d 7b04 	ldr.w	r7, [sp], #4
 8004880:	4770      	bx	lr

08004882 <UART_DMAAbortOnError>:
  * @param  hdma  Pointer to a DMA_HandleTypeDef structure that contains
  *               the configuration information for the specified DMA module.
  * @retval None
  */
static void UART_DMAAbortOnError(DMA_HandleTypeDef *hdma)
{
 8004882:	b580      	push	{r7, lr}
 8004884:	b084      	sub	sp, #16
 8004886:	af00      	add	r7, sp, #0
 8004888:	6078      	str	r0, [r7, #4]
  UART_HandleTypeDef *huart = (UART_HandleTypeDef *)((DMA_HandleTypeDef *)hdma)->Parent;
 800488a:	687b      	ldr	r3, [r7, #4]
 800488c:	6b9b      	ldr	r3, [r3, #56]	; 0x38
 800488e:	60fb      	str	r3, [r7, #12]
  huart->RxXferCount = 0x00U;
 8004890:	68fb      	ldr	r3, [r7, #12]
 8004892:	2200      	movs	r2, #0
 8004894:	85da      	strh	r2, [r3, #46]	; 0x2e
  huart->TxXferCount = 0x00U;
 8004896:	68fb      	ldr	r3, [r7, #12]
 8004898:	2200      	movs	r2, #0
 800489a:	84da      	strh	r2, [r3, #38]	; 0x26
#if (USE_HAL_UART_REGISTER_CALLBACKS == 1)
  /*Call registered error callback*/
  huart->ErrorCallback(huart);
#else
  /*Call legacy weak error callback*/
  HAL_UART_ErrorCallback(huart);
 800489c:	68f8      	ldr	r0, [r7, #12]
 800489e:	f7ff fe01 	bl	80044a4 <HAL_UART_ErrorCallback>
#endif /* USE_HAL_UART_REGISTER_CALLBACKS */
}
 80048a2:	bf00      	nop
 80048a4:	3710      	adds	r7, #16
 80048a6:	46bd      	mov	sp, r7
 80048a8:	bd80      	pop	{r7, pc}

080048aa <UART_Transmit_IT>:
  * @param  huart  Pointer to a UART_HandleTypeDef structure that contains
  *                the configuration information for the specified UART module.
  * @retval HAL status
  */
static HAL_StatusTypeDef UART_Transmit_IT(UART_HandleTypeDef *huart)
{
 80048aa:	b480      	push	{r7}
 80048ac:	b085      	sub	sp, #20
 80048ae:	af00      	add	r7, sp, #0
 80048b0:	6078      	str	r0, [r7, #4]
  uint16_t *tmp;

  /* Check that a Tx process is ongoing */
  if (huart->gState == HAL_UART_STATE_BUSY_TX)
 80048b2:	687b      	ldr	r3, [r7, #4]
 80048b4:	f893 303d 	ldrb.w	r3, [r3, #61]	; 0x3d
 80048b8:	b2db      	uxtb	r3, r3
 80048ba:	2b21      	cmp	r3, #33	; 0x21
 80048bc:	d13e      	bne.n	800493c <UART_Transmit_IT+0x92>
  {
    if ((huart->Init.WordLength == UART_WORDLENGTH_9B) && (huart->Init.Parity == UART_PARITY_NONE))
 80048be:	687b      	ldr	r3, [r7, #4]
 80048c0:	689b      	ldr	r3, [r3, #8]
 80048c2:	f5b3 5f80 	cmp.w	r3, #4096	; 0x1000
 80048c6:	d114      	bne.n	80048f2 <UART_Transmit_IT+0x48>
 80048c8:	687b      	ldr	r3, [r7, #4]
 80048ca:	691b      	ldr	r3, [r3, #16]
 80048cc:	2b00      	cmp	r3, #0
 80048ce:	d110      	bne.n	80048f2 <UART_Transmit_IT+0x48>
    {
      tmp = (uint16_t *) huart->pTxBuffPtr;
 80048d0:	687b      	ldr	r3, [r7, #4]
 80048d2:	6a1b      	ldr	r3, [r3, #32]
 80048d4:	60fb      	str	r3, [r7, #12]
      huart->Instance->DR = (uint16_t)(*tmp & (uint16_t)0x01FF);
 80048d6:	68fb      	ldr	r3, [r7, #12]
 80048d8:	881b      	ldrh	r3, [r3, #0]
 80048da:	461a      	mov	r2, r3
 80048dc:	687b      	ldr	r3, [r7, #4]
 80048de:	681b      	ldr	r3, [r3, #0]
 80048e0:	f3c2 0208 	ubfx	r2, r2, #0, #9
 80048e4:	605a      	str	r2, [r3, #4]
      huart->pTxBuffPtr += 2U;
 80048e6:	687b      	ldr	r3, [r7, #4]
 80048e8:	6a1b      	ldr	r3, [r3, #32]
 80048ea:	1c9a      	adds	r2, r3, #2
 80048ec:	687b      	ldr	r3, [r7, #4]
 80048ee:	621a      	str	r2, [r3, #32]
 80048f0:	e008      	b.n	8004904 <UART_Transmit_IT+0x5a>
    }
    else
    {
      huart->Instance->DR = (uint8_t)(*huart->pTxBuffPtr++ & (uint8_t)0x00FF);
 80048f2:	687b      	ldr	r3, [r7, #4]
 80048f4:	6a1b      	ldr	r3, [r3, #32]
 80048f6:	1c59      	adds	r1, r3, #1
 80048f8:	687a      	ldr	r2, [r7, #4]
 80048fa:	6211      	str	r1, [r2, #32]
 80048fc:	781a      	ldrb	r2, [r3, #0]
 80048fe:	687b      	ldr	r3, [r7, #4]
 8004900:	681b      	ldr	r3, [r3, #0]
 8004902:	605a      	str	r2, [r3, #4]
    }

    if (--huart->TxXferCount == 0U)
 8004904:	687b      	ldr	r3, [r7, #4]
 8004906:	8cdb      	ldrh	r3, [r3, #38]	; 0x26
 8004908:	b29b      	uxth	r3, r3
 800490a:	3b01      	subs	r3, #1
 800490c:	b29b      	uxth	r3, r3
 800490e:	687a      	ldr	r2, [r7, #4]
 8004910:	4619      	mov	r1, r3
 8004912:	84d1      	strh	r1, [r2, #38]	; 0x26
 8004914:	2b00      	cmp	r3, #0
 8004916:	d10f      	bne.n	8004938 <UART_Transmit_IT+0x8e>
    {
      /* Disable the UART Transmit Complete Interrupt */
      __HAL_UART_DISABLE_IT(huart, UART_IT_TXE);
 8004918:	687b      	ldr	r3, [r7, #4]
 800491a:	681b      	ldr	r3, [r3, #0]
 800491c:	68da      	ldr	r2, [r3, #12]
 800491e:	687b      	ldr	r3, [r7, #4]
 8004920:	681b      	ldr	r3, [r3, #0]
 8004922:	f022 0280 	bic.w	r2, r2, #128	; 0x80
 8004926:	60da      	str	r2, [r3, #12]

      /* Enable the UART Transmit Complete Interrupt */
      __HAL_UART_ENABLE_IT(huart, UART_IT_TC);
 8004928:	687b      	ldr	r3, [r7, #4]
 800492a:	681b      	ldr	r3, [r3, #0]
 800492c:	68da      	ldr	r2, [r3, #12]
 800492e:	687b      	ldr	r3, [r7, #4]
 8004930:	681b      	ldr	r3, [r3, #0]
 8004932:	f042 0240 	orr.w	r2, r2, #64	; 0x40
 8004936:	60da      	str	r2, [r3, #12]
    }
    return HAL_OK;
 8004938:	2300      	movs	r3, #0
 800493a:	e000      	b.n	800493e <UART_Transmit_IT+0x94>
  }
  else
  {
    return HAL_BUSY;
 800493c:	2302      	movs	r3, #2
  }
}
 800493e:	4618      	mov	r0, r3
 8004940:	3714      	adds	r7, #20
 8004942:	46bd      	mov	sp, r7
 8004944:	f85d 7b04 	ldr.w	r7, [sp], #4
 8004948:	4770      	bx	lr

0800494a <UART_EndTransmit_IT>:
  * @param  huart  Pointer to a UART_HandleTypeDef structure that contains
  *                the configuration information for the specified UART module.
  * @retval HAL status
  */
static HAL_StatusTypeDef UART_EndTransmit_IT(UART_HandleTypeDef *huart)
{
 800494a:	b580      	push	{r7, lr}
 800494c:	b082      	sub	sp, #8
 800494e:	af00      	add	r7, sp, #0
 8004950:	6078      	str	r0, [r7, #4]
  /* Disable the UART Transmit Complete Interrupt */
  __HAL_UART_DISABLE_IT(huart, UART_IT_TC);
 8004952:	687b      	ldr	r3, [r7, #4]
 8004954:	681b      	ldr	r3, [r3, #0]
 8004956:	68da      	ldr	r2, [r3, #12]
 8004958:	687b      	ldr	r3, [r7, #4]
 800495a:	681b      	ldr	r3, [r3, #0]
 800495c:	f022 0240 	bic.w	r2, r2, #64	; 0x40
 8004960:	60da      	str	r2, [r3, #12]

  /* Tx process is ended, restore huart->gState to Ready */
  huart->gState = HAL_UART_STATE_READY;
 8004962:	687b      	ldr	r3, [r7, #4]
 8004964:	2220      	movs	r2, #32
 8004966:	f883 203d 	strb.w	r2, [r3, #61]	; 0x3d
#if (USE_HAL_UART_REGISTER_CALLBACKS == 1)
  /*Call registered Tx complete callback*/
  huart->TxCpltCallback(huart);
#else
  /*Call legacy weak Tx complete callback*/
  HAL_UART_TxCpltCallback(huart);
 800496a:	6878      	ldr	r0, [r7, #4]
 800496c:	f7fc fd38 	bl	80013e0 <HAL_UART_TxCpltCallback>
#endif /* USE_HAL_UART_REGISTER_CALLBACKS */

  return HAL_OK;
 8004970:	2300      	movs	r3, #0
}
 8004972:	4618      	mov	r0, r3
 8004974:	3708      	adds	r7, #8
 8004976:	46bd      	mov	sp, r7
 8004978:	bd80      	pop	{r7, pc}

0800497a <UART_Receive_IT>:
  * @param  huart  Pointer to a UART_HandleTypeDef structure that contains
  *                the configuration information for the specified UART module.
  * @retval HAL status
  */
static HAL_StatusTypeDef UART_Receive_IT(UART_HandleTypeDef *huart)
{
 800497a:	b580      	push	{r7, lr}
 800497c:	b084      	sub	sp, #16
 800497e:	af00      	add	r7, sp, #0
 8004980:	6078      	str	r0, [r7, #4]
  uint8_t  *pdata8bits;
  uint16_t *pdata16bits;

  /* Check that a Rx process is ongoing */
  if (huart->RxState == HAL_UART_STATE_BUSY_RX)
 8004982:	687b      	ldr	r3, [r7, #4]
 8004984:	f893 303e 	ldrb.w	r3, [r3, #62]	; 0x3e
 8004988:	b2db      	uxtb	r3, r3
 800498a:	2b22      	cmp	r3, #34	; 0x22
 800498c:	f040 8087 	bne.w	8004a9e <UART_Receive_IT+0x124>
  {
    if ((huart->Init.WordLength == UART_WORDLENGTH_9B) && (huart->Init.Parity == UART_PARITY_NONE))
 8004990:	687b      	ldr	r3, [r7, #4]
 8004992:	689b      	ldr	r3, [r3, #8]
 8004994:	f5b3 5f80 	cmp.w	r3, #4096	; 0x1000
 8004998:	d117      	bne.n	80049ca <UART_Receive_IT+0x50>
 800499a:	687b      	ldr	r3, [r7, #4]
 800499c:	691b      	ldr	r3, [r3, #16]
 800499e:	2b00      	cmp	r3, #0
 80049a0:	d113      	bne.n	80049ca <UART_Receive_IT+0x50>
    {
      pdata8bits  = NULL;
 80049a2:	2300      	movs	r3, #0
 80049a4:	60fb      	str	r3, [r7, #12]
      pdata16bits = (uint16_t *) huart->pRxBuffPtr;
 80049a6:	687b      	ldr	r3, [r7, #4]
 80049a8:	6a9b      	ldr	r3, [r3, #40]	; 0x28
 80049aa:	60bb      	str	r3, [r7, #8]
      *pdata16bits = (uint16_t)(huart->Instance->DR & (uint16_t)0x01FF);
 80049ac:	687b      	ldr	r3, [r7, #4]
 80049ae:	681b      	ldr	r3, [r3, #0]
 80049b0:	685b      	ldr	r3, [r3, #4]
 80049b2:	b29b      	uxth	r3, r3
 80049b4:	f3c3 0308 	ubfx	r3, r3, #0, #9
 80049b8:	b29a      	uxth	r2, r3
 80049ba:	68bb      	ldr	r3, [r7, #8]
 80049bc:	801a      	strh	r2, [r3, #0]
      huart->pRxBuffPtr += 2U;
 80049be:	687b      	ldr	r3, [r7, #4]
 80049c0:	6a9b      	ldr	r3, [r3, #40]	; 0x28
 80049c2:	1c9a      	adds	r2, r3, #2
 80049c4:	687b      	ldr	r3, [r7, #4]
 80049c6:	629a      	str	r2, [r3, #40]	; 0x28
 80049c8:	e026      	b.n	8004a18 <UART_Receive_IT+0x9e>
    }
    else
    {
      pdata8bits = (uint8_t *) huart->pRxBuffPtr;
 80049ca:	687b      	ldr	r3, [r7, #4]
 80049cc:	6a9b      	ldr	r3, [r3, #40]	; 0x28
 80049ce:	60fb      	str	r3, [r7, #12]
      pdata16bits  = NULL;
 80049d0:	2300      	movs	r3, #0
 80049d2:	60bb      	str	r3, [r7, #8]

      if ((huart->Init.WordLength == UART_WORDLENGTH_9B) || ((huart->Init.WordLength == UART_WORDLENGTH_8B) && (huart->Init.Parity == UART_PARITY_NONE)))
 80049d4:	687b      	ldr	r3, [r7, #4]
 80049d6:	689b      	ldr	r3, [r3, #8]
 80049d8:	f5b3 5f80 	cmp.w	r3, #4096	; 0x1000
 80049dc:	d007      	beq.n	80049ee <UART_Receive_IT+0x74>
 80049de:	687b      	ldr	r3, [r7, #4]
 80049e0:	689b      	ldr	r3, [r3, #8]
 80049e2:	2b00      	cmp	r3, #0
 80049e4:	d10a      	bne.n	80049fc <UART_Receive_IT+0x82>
 80049e6:	687b      	ldr	r3, [r7, #4]
 80049e8:	691b      	ldr	r3, [r3, #16]
 80049ea:	2b00      	cmp	r3, #0
 80049ec:	d106      	bne.n	80049fc <UART_Receive_IT+0x82>
      {
        *pdata8bits = (uint8_t)(huart->Instance->DR & (uint8_t)0x00FF);
 80049ee:	687b      	ldr	r3, [r7, #4]
 80049f0:	681b      	ldr	r3, [r3, #0]
 80049f2:	685b      	ldr	r3, [r3, #4]
 80049f4:	b2da      	uxtb	r2, r3
 80049f6:	68fb      	ldr	r3, [r7, #12]
 80049f8:	701a      	strb	r2, [r3, #0]
 80049fa:	e008      	b.n	8004a0e <UART_Receive_IT+0x94>
      }
      else
      {
        *pdata8bits = (uint8_t)(huart->Instance->DR & (uint8_t)0x007F);
 80049fc:	687b      	ldr	r3, [r7, #4]
 80049fe:	681b      	ldr	r3, [r3, #0]
 8004a00:	685b      	ldr	r3, [r3, #4]
 8004a02:	b2db      	uxtb	r3, r3
 8004a04:	f003 037f 	and.w	r3, r3, #127	; 0x7f
 8004a08:	b2da      	uxtb	r2, r3
 8004a0a:	68fb      	ldr	r3, [r7, #12]
 8004a0c:	701a      	strb	r2, [r3, #0]
      }
      huart->pRxBuffPtr += 1U;
 8004a0e:	687b      	ldr	r3, [r7, #4]
 8004a10:	6a9b      	ldr	r3, [r3, #40]	; 0x28
 8004a12:	1c5a      	adds	r2, r3, #1
 8004a14:	687b      	ldr	r3, [r7, #4]
 8004a16:	629a      	str	r2, [r3, #40]	; 0x28
    }

    if (--huart->RxXferCount == 0U)
 8004a18:	687b      	ldr	r3, [r7, #4]
 8004a1a:	8ddb      	ldrh	r3, [r3, #46]	; 0x2e
 8004a1c:	b29b      	uxth	r3, r3
 8004a1e:	3b01      	subs	r3, #1
 8004a20:	b29b      	uxth	r3, r3
 8004a22:	687a      	ldr	r2, [r7, #4]
 8004a24:	4619      	mov	r1, r3
 8004a26:	85d1      	strh	r1, [r2, #46]	; 0x2e
 8004a28:	2b00      	cmp	r3, #0
 8004a2a:	d136      	bne.n	8004a9a <UART_Receive_IT+0x120>
    {
      /* Disable the UART Data Register not empty Interrupt */
      __HAL_UART_DISABLE_IT(huart, UART_IT_RXNE);
 8004a2c:	687b      	ldr	r3, [r7, #4]
 8004a2e:	681b      	ldr	r3, [r3, #0]
 8004a30:	68da      	ldr	r2, [r3, #12]
 8004a32:	687b      	ldr	r3, [r7, #4]
 8004a34:	681b      	ldr	r3, [r3, #0]
 8004a36:	f022 0220 	bic.w	r2, r2, #32
 8004a3a:	60da      	str	r2, [r3, #12]

      /* Disable the UART Parity Error Interrupt */
      __HAL_UART_DISABLE_IT(huart, UART_IT_PE);
 8004a3c:	687b      	ldr	r3, [r7, #4]
 8004a3e:	681b      	ldr	r3, [r3, #0]
 8004a40:	68da      	ldr	r2, [r3, #12]
 8004a42:	687b      	ldr	r3, [r7, #4]
 8004a44:	681b      	ldr	r3, [r3, #0]
 8004a46:	f422 7280 	bic.w	r2, r2, #256	; 0x100
 8004a4a:	60da      	str	r2, [r3, #12]

      /* Disable the UART Error Interrupt: (Frame error, noise error, overrun error) */
      __HAL_UART_DISABLE_IT(huart, UART_IT_ERR);
 8004a4c:	687b      	ldr	r3, [r7, #4]
 8004a4e:	681b      	ldr	r3, [r3, #0]
 8004a50:	695a      	ldr	r2, [r3, #20]
 8004a52:	687b      	ldr	r3, [r7, #4]
 8004a54:	681b      	ldr	r3, [r3, #0]
 8004a56:	f022 0201 	bic.w	r2, r2, #1
 8004a5a:	615a      	str	r2, [r3, #20]

      /* Rx process is completed, restore huart->RxState to Ready */
      huart->RxState = HAL_UART_STATE_READY;
 8004a5c:	687b      	ldr	r3, [r7, #4]
 8004a5e:	2220      	movs	r2, #32
 8004a60:	f883 203e 	strb.w	r2, [r3, #62]	; 0x3e

      /* Check current reception Mode :
         If Reception till IDLE event has been selected : */
      if (huart->ReceptionType == HAL_UART_RECEPTION_TOIDLE)
 8004a64:	687b      	ldr	r3, [r7, #4]
 8004a66:	6b1b      	ldr	r3, [r3, #48]	; 0x30
 8004a68:	2b01      	cmp	r3, #1
 8004a6a:	d10e      	bne.n	8004a8a <UART_Receive_IT+0x110>
      {
        /* Disable IDLE interrupt */
        CLEAR_BIT(huart->Instance->CR1, USART_CR1_IDLEIE);
 8004a6c:	687b      	ldr	r3, [r7, #4]
 8004a6e:	681b      	ldr	r3, [r3, #0]
 8004a70:	68da      	ldr	r2, [r3, #12]
 8004a72:	687b      	ldr	r3, [r7, #4]
 8004a74:	681b      	ldr	r3, [r3, #0]
 8004a76:	f022 0210 	bic.w	r2, r2, #16
 8004a7a:	60da      	str	r2, [r3, #12]
#if (USE_HAL_UART_REGISTER_CALLBACKS == 1)
        /*Call registered Rx Event callback*/
        huart->RxEventCallback(huart, huart->RxXferSize);
#else
        /*Call legacy weak Rx Event callback*/
        HAL_UARTEx_RxEventCallback(huart, huart->RxXferSize);
 8004a7c:	687b      	ldr	r3, [r7, #4]
 8004a7e:	8d9b      	ldrh	r3, [r3, #44]	; 0x2c
 8004a80:	4619      	mov	r1, r3
 8004a82:	6878      	ldr	r0, [r7, #4]
 8004a84:	f7ff fd18 	bl	80044b8 <HAL_UARTEx_RxEventCallback>
 8004a88:	e002      	b.n	8004a90 <UART_Receive_IT+0x116>
#if (USE_HAL_UART_REGISTER_CALLBACKS == 1)		  
       /*Call registered Rx complete callback*/
       huart->RxCpltCallback(huart);
#else
       /*Call legacy weak Rx complete callback*/
       HAL_UART_RxCpltCallback(huart);
 8004a8a:	6878      	ldr	r0, [r7, #4]
 8004a8c:	f7fc fbfe 	bl	800128c <HAL_UART_RxCpltCallback>
#endif /* USE_HAL_UART_REGISTER_CALLBACKS */
      }
      huart->ReceptionType = HAL_UART_RECEPTION_STANDARD;
 8004a90:	687b      	ldr	r3, [r7, #4]
 8004a92:	2200      	movs	r2, #0
 8004a94:	631a      	str	r2, [r3, #48]	; 0x30
      return HAL_OK;
 8004a96:	2300      	movs	r3, #0
 8004a98:	e002      	b.n	8004aa0 <UART_Receive_IT+0x126>
    }
    return HAL_OK;
 8004a9a:	2300      	movs	r3, #0
 8004a9c:	e000      	b.n	8004aa0 <UART_Receive_IT+0x126>
  }
  else
  {
    return HAL_BUSY;
 8004a9e:	2302      	movs	r3, #2
  }
}
 8004aa0:	4618      	mov	r0, r3
 8004aa2:	3710      	adds	r7, #16
 8004aa4:	46bd      	mov	sp, r7
 8004aa6:	bd80      	pop	{r7, pc}

08004aa8 <UART_SetConfig>:
  * @param  huart  Pointer to a UART_HandleTypeDef structure that contains
  *                the configuration information for the specified UART module.
  * @retval None
  */
static void UART_SetConfig(UART_HandleTypeDef *huart)
{
 8004aa8:	e92d 4ff0 	stmdb	sp!, {r4, r5, r6, r7, r8, r9, sl, fp, lr}
 8004aac:	b09f      	sub	sp, #124	; 0x7c
 8004aae:	af00      	add	r7, sp, #0
 8004ab0:	66f8      	str	r0, [r7, #108]	; 0x6c
  assert_param(IS_UART_MODE(huart->Init.Mode));

  /*-------------------------- USART CR2 Configuration -----------------------*/
  /* Configure the UART Stop Bits: Set STOP[13:12] bits
     according to huart->Init.StopBits value */
  MODIFY_REG(huart->Instance->CR2, USART_CR2_STOP, huart->Init.StopBits);
 8004ab2:	6efb      	ldr	r3, [r7, #108]	; 0x6c
 8004ab4:	681b      	ldr	r3, [r3, #0]
 8004ab6:	691b      	ldr	r3, [r3, #16]
 8004ab8:	f423 5040 	bic.w	r0, r3, #12288	; 0x3000
 8004abc:	6efb      	ldr	r3, [r7, #108]	; 0x6c
 8004abe:	68d9      	ldr	r1, [r3, #12]
 8004ac0:	6efb      	ldr	r3, [r7, #108]	; 0x6c
 8004ac2:	681a      	ldr	r2, [r3, #0]
 8004ac4:	ea40 0301 	orr.w	r3, r0, r1
 8004ac8:	6113      	str	r3, [r2, #16]
     Set the M bits according to huart->Init.WordLength value
     Set PCE and PS bits according to huart->Init.Parity value
     Set TE and RE bits according to huart->Init.Mode value
     Set OVER8 bit according to huart->Init.OverSampling value */

  tmpreg = (uint32_t)huart->Init.WordLength | huart->Init.Parity | huart->Init.Mode | huart->Init.OverSampling;
 8004aca:	6efb      	ldr	r3, [r7, #108]	; 0x6c
 8004acc:	689a      	ldr	r2, [r3, #8]
 8004ace:	6efb      	ldr	r3, [r7, #108]	; 0x6c
 8004ad0:	691b      	ldr	r3, [r3, #16]
 8004ad2:	431a      	orrs	r2, r3
 8004ad4:	6efb      	ldr	r3, [r7, #108]	; 0x6c
 8004ad6:	695b      	ldr	r3, [r3, #20]
 8004ad8:	431a      	orrs	r2, r3
 8004ada:	6efb      	ldr	r3, [r7, #108]	; 0x6c
 8004adc:	69db      	ldr	r3, [r3, #28]
 8004ade:	4313      	orrs	r3, r2
 8004ae0:	673b      	str	r3, [r7, #112]	; 0x70
  MODIFY_REG(huart->Instance->CR1,
 8004ae2:	6efb      	ldr	r3, [r7, #108]	; 0x6c
 8004ae4:	681b      	ldr	r3, [r3, #0]
 8004ae6:	68db      	ldr	r3, [r3, #12]
 8004ae8:	f423 4116 	bic.w	r1, r3, #38400	; 0x9600
 8004aec:	f021 010c 	bic.w	r1, r1, #12
 8004af0:	6efb      	ldr	r3, [r7, #108]	; 0x6c
 8004af2:	681a      	ldr	r2, [r3, #0]
 8004af4:	6f3b      	ldr	r3, [r7, #112]	; 0x70
 8004af6:	430b      	orrs	r3, r1
 8004af8:	60d3      	str	r3, [r2, #12]
             (uint32_t)(USART_CR1_M | USART_CR1_PCE | USART_CR1_PS | USART_CR1_TE | USART_CR1_RE | USART_CR1_OVER8),
             tmpreg);

  /*-------------------------- USART CR3 Configuration -----------------------*/
  /* Configure the UART HFC: Set CTSE and RTSE bits according to huart->Init.HwFlowCtl value */
  MODIFY_REG(huart->Instance->CR3, (USART_CR3_RTSE | USART_CR3_CTSE), huart->Init.HwFlowCtl);
 8004afa:	6efb      	ldr	r3, [r7, #108]	; 0x6c
 8004afc:	681b      	ldr	r3, [r3, #0]
 8004afe:	695b      	ldr	r3, [r3, #20]
 8004b00:	f423 7040 	bic.w	r0, r3, #768	; 0x300
 8004b04:	6efb      	ldr	r3, [r7, #108]	; 0x6c
 8004b06:	6999      	ldr	r1, [r3, #24]
 8004b08:	6efb      	ldr	r3, [r7, #108]	; 0x6c
 8004b0a:	681a      	ldr	r2, [r3, #0]
 8004b0c:	ea40 0301 	orr.w	r3, r0, r1
 8004b10:	6153      	str	r3, [r2, #20]
    if ((huart->Instance == USART1) || (huart->Instance == USART6) || (huart->Instance == UART9) || (huart->Instance == UART10))
    {
      pclk = HAL_RCC_GetPCLK2Freq();
    }
#elif defined(USART6)
    if ((huart->Instance == USART1) || (huart->Instance == USART6))
 8004b12:	6efb      	ldr	r3, [r7, #108]	; 0x6c
 8004b14:	681a      	ldr	r2, [r3, #0]
 8004b16:	4bc5      	ldr	r3, [pc, #788]	; (8004e2c <UART_SetConfig+0x384>)
 8004b18:	429a      	cmp	r2, r3
 8004b1a:	d004      	beq.n	8004b26 <UART_SetConfig+0x7e>
 8004b1c:	6efb      	ldr	r3, [r7, #108]	; 0x6c
 8004b1e:	681a      	ldr	r2, [r3, #0]
 8004b20:	4bc3      	ldr	r3, [pc, #780]	; (8004e30 <UART_SetConfig+0x388>)
 8004b22:	429a      	cmp	r2, r3
 8004b24:	d103      	bne.n	8004b2e <UART_SetConfig+0x86>
    {
      pclk = HAL_RCC_GetPCLK2Freq();
 8004b26:	f7fe f833 	bl	8002b90 <HAL_RCC_GetPCLK2Freq>
 8004b2a:	6778      	str	r0, [r7, #116]	; 0x74
 8004b2c:	e002      	b.n	8004b34 <UART_SetConfig+0x8c>
      pclk = HAL_RCC_GetPCLK2Freq();
    }
#endif /* USART6 */
    else
    {
      pclk = HAL_RCC_GetPCLK1Freq();
 8004b2e:	f7fe f81b 	bl	8002b68 <HAL_RCC_GetPCLK1Freq>
 8004b32:	6778      	str	r0, [r7, #116]	; 0x74
    }
  /*-------------------------- USART BRR Configuration ---------------------*/
  if (huart->Init.OverSampling == UART_OVERSAMPLING_8)
 8004b34:	6efb      	ldr	r3, [r7, #108]	; 0x6c
 8004b36:	69db      	ldr	r3, [r3, #28]
 8004b38:	f5b3 4f00 	cmp.w	r3, #32768	; 0x8000
 8004b3c:	f040 80b6 	bne.w	8004cac <UART_SetConfig+0x204>
  {
    huart->Instance->BRR = UART_BRR_SAMPLING8(pclk, huart->Init.BaudRate);
 8004b40:	6f7b      	ldr	r3, [r7, #116]	; 0x74
 8004b42:	461c      	mov	r4, r3
 8004b44:	f04f 0500 	mov.w	r5, #0
 8004b48:	4622      	mov	r2, r4
 8004b4a:	462b      	mov	r3, r5
 8004b4c:	1891      	adds	r1, r2, r2
 8004b4e:	6439      	str	r1, [r7, #64]	; 0x40
 8004b50:	415b      	adcs	r3, r3
 8004b52:	647b      	str	r3, [r7, #68]	; 0x44
 8004b54:	e9d7 2310 	ldrd	r2, r3, [r7, #64]	; 0x40
 8004b58:	1912      	adds	r2, r2, r4
 8004b5a:	eb45 0303 	adc.w	r3, r5, r3
 8004b5e:	f04f 0000 	mov.w	r0, #0
 8004b62:	f04f 0100 	mov.w	r1, #0
 8004b66:	00d9      	lsls	r1, r3, #3
 8004b68:	ea41 7152 	orr.w	r1, r1, r2, lsr #29
 8004b6c:	00d0      	lsls	r0, r2, #3
 8004b6e:	4602      	mov	r2, r0
 8004b70:	460b      	mov	r3, r1
 8004b72:	1911      	adds	r1, r2, r4
 8004b74:	6639      	str	r1, [r7, #96]	; 0x60
 8004b76:	416b      	adcs	r3, r5
 8004b78:	667b      	str	r3, [r7, #100]	; 0x64
 8004b7a:	6efb      	ldr	r3, [r7, #108]	; 0x6c
 8004b7c:	685b      	ldr	r3, [r3, #4]
 8004b7e:	461a      	mov	r2, r3
 8004b80:	f04f 0300 	mov.w	r3, #0
 8004b84:	1891      	adds	r1, r2, r2
 8004b86:	63b9      	str	r1, [r7, #56]	; 0x38
 8004b88:	415b      	adcs	r3, r3
 8004b8a:	63fb      	str	r3, [r7, #60]	; 0x3c
 8004b8c:	e9d7 230e 	ldrd	r2, r3, [r7, #56]	; 0x38
 8004b90:	e9d7 0118 	ldrd	r0, r1, [r7, #96]	; 0x60
 8004b94:	f7fb fb74 	bl	8000280 <__aeabi_uldivmod>
 8004b98:	4602      	mov	r2, r0
 8004b9a:	460b      	mov	r3, r1
 8004b9c:	4ba5      	ldr	r3, [pc, #660]	; (8004e34 <UART_SetConfig+0x38c>)
 8004b9e:	fba3 2302 	umull	r2, r3, r3, r2
 8004ba2:	095b      	lsrs	r3, r3, #5
 8004ba4:	011e      	lsls	r6, r3, #4
 8004ba6:	6f7b      	ldr	r3, [r7, #116]	; 0x74
 8004ba8:	461c      	mov	r4, r3
 8004baa:	f04f 0500 	mov.w	r5, #0
 8004bae:	4622      	mov	r2, r4
 8004bb0:	462b      	mov	r3, r5
 8004bb2:	1891      	adds	r1, r2, r2
 8004bb4:	6339      	str	r1, [r7, #48]	; 0x30
 8004bb6:	415b      	adcs	r3, r3
 8004bb8:	637b      	str	r3, [r7, #52]	; 0x34
 8004bba:	e9d7 230c 	ldrd	r2, r3, [r7, #48]	; 0x30
 8004bbe:	1912      	adds	r2, r2, r4
 8004bc0:	eb45 0303 	adc.w	r3, r5, r3
 8004bc4:	f04f 0000 	mov.w	r0, #0
 8004bc8:	f04f 0100 	mov.w	r1, #0
 8004bcc:	00d9      	lsls	r1, r3, #3
 8004bce:	ea41 7152 	orr.w	r1, r1, r2, lsr #29
 8004bd2:	00d0      	lsls	r0, r2, #3
 8004bd4:	4602      	mov	r2, r0
 8004bd6:	460b      	mov	r3, r1
 8004bd8:	1911      	adds	r1, r2, r4
 8004bda:	65b9      	str	r1, [r7, #88]	; 0x58
 8004bdc:	416b      	adcs	r3, r5
 8004bde:	65fb      	str	r3, [r7, #92]	; 0x5c
 8004be0:	6efb      	ldr	r3, [r7, #108]	; 0x6c
 8004be2:	685b      	ldr	r3, [r3, #4]
 8004be4:	461a      	mov	r2, r3
 8004be6:	f04f 0300 	mov.w	r3, #0
 8004bea:	1891      	adds	r1, r2, r2
 8004bec:	62b9      	str	r1, [r7, #40]	; 0x28
 8004bee:	415b      	adcs	r3, r3
 8004bf0:	62fb      	str	r3, [r7, #44]	; 0x2c
 8004bf2:	e9d7 230a 	ldrd	r2, r3, [r7, #40]	; 0x28
 8004bf6:	e9d7 0116 	ldrd	r0, r1, [r7, #88]	; 0x58
 8004bfa:	f7fb fb41 	bl	8000280 <__aeabi_uldivmod>
 8004bfe:	4602      	mov	r2, r0
 8004c00:	460b      	mov	r3, r1
 8004c02:	4b8c      	ldr	r3, [pc, #560]	; (8004e34 <UART_SetConfig+0x38c>)
 8004c04:	fba3 1302 	umull	r1, r3, r3, r2
 8004c08:	095b      	lsrs	r3, r3, #5
 8004c0a:	2164      	movs	r1, #100	; 0x64
 8004c0c:	fb01 f303 	mul.w	r3, r1, r3
 8004c10:	1ad3      	subs	r3, r2, r3
 8004c12:	00db      	lsls	r3, r3, #3
 8004c14:	3332      	adds	r3, #50	; 0x32
 8004c16:	4a87      	ldr	r2, [pc, #540]	; (8004e34 <UART_SetConfig+0x38c>)
 8004c18:	fba2 2303 	umull	r2, r3, r2, r3
 8004c1c:	095b      	lsrs	r3, r3, #5
 8004c1e:	005b      	lsls	r3, r3, #1
 8004c20:	f403 73f8 	and.w	r3, r3, #496	; 0x1f0
 8004c24:	441e      	add	r6, r3
 8004c26:	6f7b      	ldr	r3, [r7, #116]	; 0x74
 8004c28:	4618      	mov	r0, r3
 8004c2a:	f04f 0100 	mov.w	r1, #0
 8004c2e:	4602      	mov	r2, r0
 8004c30:	460b      	mov	r3, r1
 8004c32:	1894      	adds	r4, r2, r2
 8004c34:	623c      	str	r4, [r7, #32]
 8004c36:	415b      	adcs	r3, r3
 8004c38:	627b      	str	r3, [r7, #36]	; 0x24
 8004c3a:	e9d7 2308 	ldrd	r2, r3, [r7, #32]
 8004c3e:	1812      	adds	r2, r2, r0
 8004c40:	eb41 0303 	adc.w	r3, r1, r3
 8004c44:	f04f 0400 	mov.w	r4, #0
 8004c48:	f04f 0500 	mov.w	r5, #0
 8004c4c:	00dd      	lsls	r5, r3, #3
 8004c4e:	ea45 7552 	orr.w	r5, r5, r2, lsr #29
 8004c52:	00d4      	lsls	r4, r2, #3
 8004c54:	4622      	mov	r2, r4
 8004c56:	462b      	mov	r3, r5
 8004c58:	1814      	adds	r4, r2, r0
 8004c5a:	653c      	str	r4, [r7, #80]	; 0x50
 8004c5c:	414b      	adcs	r3, r1
 8004c5e:	657b      	str	r3, [r7, #84]	; 0x54
 8004c60:	6efb      	ldr	r3, [r7, #108]	; 0x6c
 8004c62:	685b      	ldr	r3, [r3, #4]
 8004c64:	461a      	mov	r2, r3
 8004c66:	f04f 0300 	mov.w	r3, #0
 8004c6a:	1891      	adds	r1, r2, r2
 8004c6c:	61b9      	str	r1, [r7, #24]
 8004c6e:	415b      	adcs	r3, r3
 8004c70:	61fb      	str	r3, [r7, #28]
 8004c72:	e9d7 2306 	ldrd	r2, r3, [r7, #24]
 8004c76:	e9d7 0114 	ldrd	r0, r1, [r7, #80]	; 0x50
 8004c7a:	f7fb fb01 	bl	8000280 <__aeabi_uldivmod>
 8004c7e:	4602      	mov	r2, r0
 8004c80:	460b      	mov	r3, r1
 8004c82:	4b6c      	ldr	r3, [pc, #432]	; (8004e34 <UART_SetConfig+0x38c>)
 8004c84:	fba3 1302 	umull	r1, r3, r3, r2
 8004c88:	095b      	lsrs	r3, r3, #5
 8004c8a:	2164      	movs	r1, #100	; 0x64
 8004c8c:	fb01 f303 	mul.w	r3, r1, r3
 8004c90:	1ad3      	subs	r3, r2, r3
 8004c92:	00db      	lsls	r3, r3, #3
 8004c94:	3332      	adds	r3, #50	; 0x32
 8004c96:	4a67      	ldr	r2, [pc, #412]	; (8004e34 <UART_SetConfig+0x38c>)
 8004c98:	fba2 2303 	umull	r2, r3, r2, r3
 8004c9c:	095b      	lsrs	r3, r3, #5
 8004c9e:	f003 0207 	and.w	r2, r3, #7
 8004ca2:	6efb      	ldr	r3, [r7, #108]	; 0x6c
 8004ca4:	681b      	ldr	r3, [r3, #0]
 8004ca6:	4432      	add	r2, r6
 8004ca8:	609a      	str	r2, [r3, #8]
  }
  else
  {
    huart->Instance->BRR = UART_BRR_SAMPLING16(pclk, huart->Init.BaudRate);
  }
}
 8004caa:	e0b9      	b.n	8004e20 <UART_SetConfig+0x378>
    huart->Instance->BRR = UART_BRR_SAMPLING16(pclk, huart->Init.BaudRate);
 8004cac:	6f7b      	ldr	r3, [r7, #116]	; 0x74
 8004cae:	461c      	mov	r4, r3
 8004cb0:	f04f 0500 	mov.w	r5, #0
 8004cb4:	4622      	mov	r2, r4
 8004cb6:	462b      	mov	r3, r5
 8004cb8:	1891      	adds	r1, r2, r2
 8004cba:	6139      	str	r1, [r7, #16]
 8004cbc:	415b      	adcs	r3, r3
 8004cbe:	617b      	str	r3, [r7, #20]
 8004cc0:	e9d7 2304 	ldrd	r2, r3, [r7, #16]
 8004cc4:	1912      	adds	r2, r2, r4
 8004cc6:	eb45 0303 	adc.w	r3, r5, r3
 8004cca:	f04f 0000 	mov.w	r0, #0
 8004cce:	f04f 0100 	mov.w	r1, #0
 8004cd2:	00d9      	lsls	r1, r3, #3
 8004cd4:	ea41 7152 	orr.w	r1, r1, r2, lsr #29
 8004cd8:	00d0      	lsls	r0, r2, #3
 8004cda:	4602      	mov	r2, r0
 8004cdc:	460b      	mov	r3, r1
 8004cde:	eb12 0804 	adds.w	r8, r2, r4
 8004ce2:	eb43 0905 	adc.w	r9, r3, r5
 8004ce6:	6efb      	ldr	r3, [r7, #108]	; 0x6c
 8004ce8:	685b      	ldr	r3, [r3, #4]
 8004cea:	4618      	mov	r0, r3
 8004cec:	f04f 0100 	mov.w	r1, #0
 8004cf0:	f04f 0200 	mov.w	r2, #0
 8004cf4:	f04f 0300 	mov.w	r3, #0
 8004cf8:	008b      	lsls	r3, r1, #2
 8004cfa:	ea43 7390 	orr.w	r3, r3, r0, lsr #30
 8004cfe:	0082      	lsls	r2, r0, #2
 8004d00:	4640      	mov	r0, r8
 8004d02:	4649      	mov	r1, r9
 8004d04:	f7fb fabc 	bl	8000280 <__aeabi_uldivmod>
 8004d08:	4602      	mov	r2, r0
 8004d0a:	460b      	mov	r3, r1
 8004d0c:	4b49      	ldr	r3, [pc, #292]	; (8004e34 <UART_SetConfig+0x38c>)
 8004d0e:	fba3 2302 	umull	r2, r3, r3, r2
 8004d12:	095b      	lsrs	r3, r3, #5
 8004d14:	011e      	lsls	r6, r3, #4
 8004d16:	6f7b      	ldr	r3, [r7, #116]	; 0x74
 8004d18:	4618      	mov	r0, r3
 8004d1a:	f04f 0100 	mov.w	r1, #0
 8004d1e:	4602      	mov	r2, r0
 8004d20:	460b      	mov	r3, r1
 8004d22:	1894      	adds	r4, r2, r2
 8004d24:	60bc      	str	r4, [r7, #8]
 8004d26:	415b      	adcs	r3, r3
 8004d28:	60fb      	str	r3, [r7, #12]
 8004d2a:	e9d7 2302 	ldrd	r2, r3, [r7, #8]
 8004d2e:	1812      	adds	r2, r2, r0
 8004d30:	eb41 0303 	adc.w	r3, r1, r3
 8004d34:	f04f 0400 	mov.w	r4, #0
 8004d38:	f04f 0500 	mov.w	r5, #0
 8004d3c:	00dd      	lsls	r5, r3, #3
 8004d3e:	ea45 7552 	orr.w	r5, r5, r2, lsr #29
 8004d42:	00d4      	lsls	r4, r2, #3
 8004d44:	4622      	mov	r2, r4
 8004d46:	462b      	mov	r3, r5
 8004d48:	1814      	adds	r4, r2, r0
 8004d4a:	64bc      	str	r4, [r7, #72]	; 0x48
 8004d4c:	414b      	adcs	r3, r1
 8004d4e:	64fb      	str	r3, [r7, #76]	; 0x4c
 8004d50:	6efb      	ldr	r3, [r7, #108]	; 0x6c
 8004d52:	685b      	ldr	r3, [r3, #4]
 8004d54:	4618      	mov	r0, r3
 8004d56:	f04f 0100 	mov.w	r1, #0
 8004d5a:	f04f 0200 	mov.w	r2, #0
 8004d5e:	f04f 0300 	mov.w	r3, #0
 8004d62:	008b      	lsls	r3, r1, #2
 8004d64:	ea43 7390 	orr.w	r3, r3, r0, lsr #30
 8004d68:	0082      	lsls	r2, r0, #2
 8004d6a:	e9d7 0112 	ldrd	r0, r1, [r7, #72]	; 0x48
 8004d6e:	f7fb fa87 	bl	8000280 <__aeabi_uldivmod>
 8004d72:	4602      	mov	r2, r0
 8004d74:	460b      	mov	r3, r1
 8004d76:	4b2f      	ldr	r3, [pc, #188]	; (8004e34 <UART_SetConfig+0x38c>)
 8004d78:	fba3 1302 	umull	r1, r3, r3, r2
 8004d7c:	095b      	lsrs	r3, r3, #5
 8004d7e:	2164      	movs	r1, #100	; 0x64
 8004d80:	fb01 f303 	mul.w	r3, r1, r3
 8004d84:	1ad3      	subs	r3, r2, r3
 8004d86:	011b      	lsls	r3, r3, #4
 8004d88:	3332      	adds	r3, #50	; 0x32
 8004d8a:	4a2a      	ldr	r2, [pc, #168]	; (8004e34 <UART_SetConfig+0x38c>)
 8004d8c:	fba2 2303 	umull	r2, r3, r2, r3
 8004d90:	095b      	lsrs	r3, r3, #5
 8004d92:	f003 03f0 	and.w	r3, r3, #240	; 0xf0
 8004d96:	441e      	add	r6, r3
 8004d98:	6f7b      	ldr	r3, [r7, #116]	; 0x74
 8004d9a:	4618      	mov	r0, r3
 8004d9c:	f04f 0100 	mov.w	r1, #0
 8004da0:	4602      	mov	r2, r0
 8004da2:	460b      	mov	r3, r1
 8004da4:	1894      	adds	r4, r2, r2
 8004da6:	603c      	str	r4, [r7, #0]
 8004da8:	415b      	adcs	r3, r3
 8004daa:	607b      	str	r3, [r7, #4]
 8004dac:	e9d7 2300 	ldrd	r2, r3, [r7]
 8004db0:	1812      	adds	r2, r2, r0
 8004db2:	eb41 0303 	adc.w	r3, r1, r3
 8004db6:	f04f 0400 	mov.w	r4, #0
 8004dba:	f04f 0500 	mov.w	r5, #0
 8004dbe:	00dd      	lsls	r5, r3, #3
 8004dc0:	ea45 7552 	orr.w	r5, r5, r2, lsr #29
 8004dc4:	00d4      	lsls	r4, r2, #3
 8004dc6:	4622      	mov	r2, r4
 8004dc8:	462b      	mov	r3, r5
 8004dca:	eb12 0a00 	adds.w	sl, r2, r0
 8004dce:	eb43 0b01 	adc.w	fp, r3, r1
 8004dd2:	6efb      	ldr	r3, [r7, #108]	; 0x6c
 8004dd4:	685b      	ldr	r3, [r3, #4]
 8004dd6:	4618      	mov	r0, r3
 8004dd8:	f04f 0100 	mov.w	r1, #0
 8004ddc:	f04f 0200 	mov.w	r2, #0
 8004de0:	f04f 0300 	mov.w	r3, #0
 8004de4:	008b      	lsls	r3, r1, #2
 8004de6:	ea43 7390 	orr.w	r3, r3, r0, lsr #30
 8004dea:	0082      	lsls	r2, r0, #2
 8004dec:	4650      	mov	r0, sl
 8004dee:	4659      	mov	r1, fp
 8004df0:	f7fb fa46 	bl	8000280 <__aeabi_uldivmod>
 8004df4:	4602      	mov	r2, r0
 8004df6:	460b      	mov	r3, r1
 8004df8:	4b0e      	ldr	r3, [pc, #56]	; (8004e34 <UART_SetConfig+0x38c>)
 8004dfa:	fba3 1302 	umull	r1, r3, r3, r2
 8004dfe:	095b      	lsrs	r3, r3, #5
 8004e00:	2164      	movs	r1, #100	; 0x64
 8004e02:	fb01 f303 	mul.w	r3, r1, r3
 8004e06:	1ad3      	subs	r3, r2, r3
 8004e08:	011b      	lsls	r3, r3, #4
 8004e0a:	3332      	adds	r3, #50	; 0x32
 8004e0c:	4a09      	ldr	r2, [pc, #36]	; (8004e34 <UART_SetConfig+0x38c>)
 8004e0e:	fba2 2303 	umull	r2, r3, r2, r3
 8004e12:	095b      	lsrs	r3, r3, #5
 8004e14:	f003 020f 	and.w	r2, r3, #15
 8004e18:	6efb      	ldr	r3, [r7, #108]	; 0x6c
 8004e1a:	681b      	ldr	r3, [r3, #0]
 8004e1c:	4432      	add	r2, r6
 8004e1e:	609a      	str	r2, [r3, #8]
}
 8004e20:	bf00      	nop
 8004e22:	377c      	adds	r7, #124	; 0x7c
 8004e24:	46bd      	mov	sp, r7
 8004e26:	e8bd 8ff0 	ldmia.w	sp!, {r4, r5, r6, r7, r8, r9, sl, fp, pc}
 8004e2a:	bf00      	nop
 8004e2c:	40011000 	.word	0x40011000
 8004e30:	40011400 	.word	0x40011400
 8004e34:	51eb851f 	.word	0x51eb851f

08004e38 <__errno>:
 8004e38:	4b01      	ldr	r3, [pc, #4]	; (8004e40 <__errno+0x8>)
 8004e3a:	6818      	ldr	r0, [r3, #0]
 8004e3c:	4770      	bx	lr
 8004e3e:	bf00      	nop
 8004e40:	2000002c 	.word	0x2000002c

08004e44 <__libc_init_array>:
 8004e44:	b570      	push	{r4, r5, r6, lr}
 8004e46:	4d0d      	ldr	r5, [pc, #52]	; (8004e7c <__libc_init_array+0x38>)
 8004e48:	4c0d      	ldr	r4, [pc, #52]	; (8004e80 <__libc_init_array+0x3c>)
 8004e4a:	1b64      	subs	r4, r4, r5
 8004e4c:	10a4      	asrs	r4, r4, #2
 8004e4e:	2600      	movs	r6, #0
 8004e50:	42a6      	cmp	r6, r4
 8004e52:	d109      	bne.n	8004e68 <__libc_init_array+0x24>
 8004e54:	4d0b      	ldr	r5, [pc, #44]	; (8004e84 <__libc_init_array+0x40>)
 8004e56:	4c0c      	ldr	r4, [pc, #48]	; (8004e88 <__libc_init_array+0x44>)
 8004e58:	f001 fa10 	bl	800627c <_init>
 8004e5c:	1b64      	subs	r4, r4, r5
 8004e5e:	10a4      	asrs	r4, r4, #2
 8004e60:	2600      	movs	r6, #0
 8004e62:	42a6      	cmp	r6, r4
 8004e64:	d105      	bne.n	8004e72 <__libc_init_array+0x2e>
 8004e66:	bd70      	pop	{r4, r5, r6, pc}
 8004e68:	f855 3b04 	ldr.w	r3, [r5], #4
 8004e6c:	4798      	blx	r3
 8004e6e:	3601      	adds	r6, #1
 8004e70:	e7ee      	b.n	8004e50 <__libc_init_array+0xc>
 8004e72:	f855 3b04 	ldr.w	r3, [r5], #4
 8004e76:	4798      	blx	r3
 8004e78:	3601      	adds	r6, #1
 8004e7a:	e7f2      	b.n	8004e62 <__libc_init_array+0x1e>
 8004e7c:	08006430 	.word	0x08006430
 8004e80:	08006430 	.word	0x08006430
 8004e84:	08006430 	.word	0x08006430
 8004e88:	08006434 	.word	0x08006434

08004e8c <memset>:
 8004e8c:	4402      	add	r2, r0
 8004e8e:	4603      	mov	r3, r0
 8004e90:	4293      	cmp	r3, r2
 8004e92:	d100      	bne.n	8004e96 <memset+0xa>
 8004e94:	4770      	bx	lr
 8004e96:	f803 1b01 	strb.w	r1, [r3], #1
 8004e9a:	e7f9      	b.n	8004e90 <memset+0x4>

08004e9c <siprintf>:
 8004e9c:	b40e      	push	{r1, r2, r3}
 8004e9e:	b500      	push	{lr}
 8004ea0:	b09c      	sub	sp, #112	; 0x70
 8004ea2:	ab1d      	add	r3, sp, #116	; 0x74
 8004ea4:	9002      	str	r0, [sp, #8]
 8004ea6:	9006      	str	r0, [sp, #24]
 8004ea8:	f06f 4100 	mvn.w	r1, #2147483648	; 0x80000000
 8004eac:	4809      	ldr	r0, [pc, #36]	; (8004ed4 <siprintf+0x38>)
 8004eae:	9107      	str	r1, [sp, #28]
 8004eb0:	9104      	str	r1, [sp, #16]
 8004eb2:	4909      	ldr	r1, [pc, #36]	; (8004ed8 <siprintf+0x3c>)
 8004eb4:	f853 2b04 	ldr.w	r2, [r3], #4
 8004eb8:	9105      	str	r1, [sp, #20]
 8004eba:	6800      	ldr	r0, [r0, #0]
 8004ebc:	9301      	str	r3, [sp, #4]
 8004ebe:	a902      	add	r1, sp, #8
 8004ec0:	f000 f9a6 	bl	8005210 <_svfiprintf_r>
 8004ec4:	9b02      	ldr	r3, [sp, #8]
 8004ec6:	2200      	movs	r2, #0
 8004ec8:	701a      	strb	r2, [r3, #0]
 8004eca:	b01c      	add	sp, #112	; 0x70
 8004ecc:	f85d eb04 	ldr.w	lr, [sp], #4
 8004ed0:	b003      	add	sp, #12
 8004ed2:	4770      	bx	lr
 8004ed4:	2000002c 	.word	0x2000002c
 8004ed8:	ffff0208 	.word	0xffff0208

08004edc <strtok>:
 8004edc:	4b16      	ldr	r3, [pc, #88]	; (8004f38 <strtok+0x5c>)
 8004ede:	b573      	push	{r0, r1, r4, r5, r6, lr}
 8004ee0:	681e      	ldr	r6, [r3, #0]
 8004ee2:	6db4      	ldr	r4, [r6, #88]	; 0x58
 8004ee4:	4605      	mov	r5, r0
 8004ee6:	b9fc      	cbnz	r4, 8004f28 <strtok+0x4c>
 8004ee8:	2050      	movs	r0, #80	; 0x50
 8004eea:	9101      	str	r1, [sp, #4]
 8004eec:	f000 f882 	bl	8004ff4 <malloc>
 8004ef0:	9901      	ldr	r1, [sp, #4]
 8004ef2:	65b0      	str	r0, [r6, #88]	; 0x58
 8004ef4:	4602      	mov	r2, r0
 8004ef6:	b920      	cbnz	r0, 8004f02 <strtok+0x26>
 8004ef8:	4b10      	ldr	r3, [pc, #64]	; (8004f3c <strtok+0x60>)
 8004efa:	4811      	ldr	r0, [pc, #68]	; (8004f40 <strtok+0x64>)
 8004efc:	2157      	movs	r1, #87	; 0x57
 8004efe:	f000 f849 	bl	8004f94 <__assert_func>
 8004f02:	e9c0 4400 	strd	r4, r4, [r0]
 8004f06:	e9c0 4402 	strd	r4, r4, [r0, #8]
 8004f0a:	e9c0 4404 	strd	r4, r4, [r0, #16]
 8004f0e:	e9c0 440a 	strd	r4, r4, [r0, #40]	; 0x28
 8004f12:	e9c0 440c 	strd	r4, r4, [r0, #48]	; 0x30
 8004f16:	e9c0 440e 	strd	r4, r4, [r0, #56]	; 0x38
 8004f1a:	e9c0 4410 	strd	r4, r4, [r0, #64]	; 0x40
 8004f1e:	e9c0 4412 	strd	r4, r4, [r0, #72]	; 0x48
 8004f22:	6184      	str	r4, [r0, #24]
 8004f24:	7704      	strb	r4, [r0, #28]
 8004f26:	6244      	str	r4, [r0, #36]	; 0x24
 8004f28:	6db2      	ldr	r2, [r6, #88]	; 0x58
 8004f2a:	2301      	movs	r3, #1
 8004f2c:	4628      	mov	r0, r5
 8004f2e:	b002      	add	sp, #8
 8004f30:	e8bd 4070 	ldmia.w	sp!, {r4, r5, r6, lr}
 8004f34:	f000 b806 	b.w	8004f44 <__strtok_r>
 8004f38:	2000002c 	.word	0x2000002c
 8004f3c:	080062e0 	.word	0x080062e0
 8004f40:	080062f7 	.word	0x080062f7

08004f44 <__strtok_r>:
 8004f44:	b5f0      	push	{r4, r5, r6, r7, lr}
 8004f46:	b908      	cbnz	r0, 8004f4c <__strtok_r+0x8>
 8004f48:	6810      	ldr	r0, [r2, #0]
 8004f4a:	b188      	cbz	r0, 8004f70 <__strtok_r+0x2c>
 8004f4c:	4604      	mov	r4, r0
 8004f4e:	4620      	mov	r0, r4
 8004f50:	f814 5b01 	ldrb.w	r5, [r4], #1
 8004f54:	460f      	mov	r7, r1
 8004f56:	f817 6b01 	ldrb.w	r6, [r7], #1
 8004f5a:	b91e      	cbnz	r6, 8004f64 <__strtok_r+0x20>
 8004f5c:	b965      	cbnz	r5, 8004f78 <__strtok_r+0x34>
 8004f5e:	6015      	str	r5, [r2, #0]
 8004f60:	4628      	mov	r0, r5
 8004f62:	e005      	b.n	8004f70 <__strtok_r+0x2c>
 8004f64:	42b5      	cmp	r5, r6
 8004f66:	d1f6      	bne.n	8004f56 <__strtok_r+0x12>
 8004f68:	2b00      	cmp	r3, #0
 8004f6a:	d1f0      	bne.n	8004f4e <__strtok_r+0xa>
 8004f6c:	6014      	str	r4, [r2, #0]
 8004f6e:	7003      	strb	r3, [r0, #0]
 8004f70:	bdf0      	pop	{r4, r5, r6, r7, pc}
 8004f72:	461c      	mov	r4, r3
 8004f74:	e00c      	b.n	8004f90 <__strtok_r+0x4c>
 8004f76:	b915      	cbnz	r5, 8004f7e <__strtok_r+0x3a>
 8004f78:	f814 3b01 	ldrb.w	r3, [r4], #1
 8004f7c:	460e      	mov	r6, r1
 8004f7e:	f816 5b01 	ldrb.w	r5, [r6], #1
 8004f82:	42ab      	cmp	r3, r5
 8004f84:	d1f7      	bne.n	8004f76 <__strtok_r+0x32>
 8004f86:	2b00      	cmp	r3, #0
 8004f88:	d0f3      	beq.n	8004f72 <__strtok_r+0x2e>
 8004f8a:	2300      	movs	r3, #0
 8004f8c:	f804 3c01 	strb.w	r3, [r4, #-1]
 8004f90:	6014      	str	r4, [r2, #0]
 8004f92:	e7ed      	b.n	8004f70 <__strtok_r+0x2c>

08004f94 <__assert_func>:
 8004f94:	b51f      	push	{r0, r1, r2, r3, r4, lr}
 8004f96:	4614      	mov	r4, r2
 8004f98:	461a      	mov	r2, r3
 8004f9a:	4b09      	ldr	r3, [pc, #36]	; (8004fc0 <__assert_func+0x2c>)
 8004f9c:	681b      	ldr	r3, [r3, #0]
 8004f9e:	4605      	mov	r5, r0
 8004fa0:	68d8      	ldr	r0, [r3, #12]
 8004fa2:	b14c      	cbz	r4, 8004fb8 <__assert_func+0x24>
 8004fa4:	4b07      	ldr	r3, [pc, #28]	; (8004fc4 <__assert_func+0x30>)
 8004fa6:	9100      	str	r1, [sp, #0]
 8004fa8:	e9cd 3401 	strd	r3, r4, [sp, #4]
 8004fac:	4906      	ldr	r1, [pc, #24]	; (8004fc8 <__assert_func+0x34>)
 8004fae:	462b      	mov	r3, r5
 8004fb0:	f000 f80e 	bl	8004fd0 <fiprintf>
 8004fb4:	f000 fdea 	bl	8005b8c <abort>
 8004fb8:	4b04      	ldr	r3, [pc, #16]	; (8004fcc <__assert_func+0x38>)
 8004fba:	461c      	mov	r4, r3
 8004fbc:	e7f3      	b.n	8004fa6 <__assert_func+0x12>
 8004fbe:	bf00      	nop
 8004fc0:	2000002c 	.word	0x2000002c
 8004fc4:	08006358 	.word	0x08006358
 8004fc8:	08006365 	.word	0x08006365
 8004fcc:	08006393 	.word	0x08006393

08004fd0 <fiprintf>:
 8004fd0:	b40e      	push	{r1, r2, r3}
 8004fd2:	b503      	push	{r0, r1, lr}
 8004fd4:	4601      	mov	r1, r0
 8004fd6:	ab03      	add	r3, sp, #12
 8004fd8:	4805      	ldr	r0, [pc, #20]	; (8004ff0 <fiprintf+0x20>)
 8004fda:	f853 2b04 	ldr.w	r2, [r3], #4
 8004fde:	6800      	ldr	r0, [r0, #0]
 8004fe0:	9301      	str	r3, [sp, #4]
 8004fe2:	f000 fa3f 	bl	8005464 <_vfiprintf_r>
 8004fe6:	b002      	add	sp, #8
 8004fe8:	f85d eb04 	ldr.w	lr, [sp], #4
 8004fec:	b003      	add	sp, #12
 8004fee:	4770      	bx	lr
 8004ff0:	2000002c 	.word	0x2000002c

08004ff4 <malloc>:
 8004ff4:	4b02      	ldr	r3, [pc, #8]	; (8005000 <malloc+0xc>)
 8004ff6:	4601      	mov	r1, r0
 8004ff8:	6818      	ldr	r0, [r3, #0]
 8004ffa:	f000 b853 	b.w	80050a4 <_malloc_r>
 8004ffe:	bf00      	nop
 8005000:	2000002c 	.word	0x2000002c

08005004 <_free_r>:
 8005004:	b537      	push	{r0, r1, r2, r4, r5, lr}
 8005006:	2900      	cmp	r1, #0
 8005008:	d048      	beq.n	800509c <_free_r+0x98>
 800500a:	f851 3c04 	ldr.w	r3, [r1, #-4]
 800500e:	9001      	str	r0, [sp, #4]
 8005010:	2b00      	cmp	r3, #0
 8005012:	f1a1 0404 	sub.w	r4, r1, #4
 8005016:	bfb8      	it	lt
 8005018:	18e4      	addlt	r4, r4, r3
 800501a:	f001 f805 	bl	8006028 <__malloc_lock>
 800501e:	4a20      	ldr	r2, [pc, #128]	; (80050a0 <_free_r+0x9c>)
 8005020:	9801      	ldr	r0, [sp, #4]
 8005022:	6813      	ldr	r3, [r2, #0]
 8005024:	4615      	mov	r5, r2
 8005026:	b933      	cbnz	r3, 8005036 <_free_r+0x32>
 8005028:	6063      	str	r3, [r4, #4]
 800502a:	6014      	str	r4, [r2, #0]
 800502c:	b003      	add	sp, #12
 800502e:	e8bd 4030 	ldmia.w	sp!, {r4, r5, lr}
 8005032:	f000 bfff 	b.w	8006034 <__malloc_unlock>
 8005036:	42a3      	cmp	r3, r4
 8005038:	d90b      	bls.n	8005052 <_free_r+0x4e>
 800503a:	6821      	ldr	r1, [r4, #0]
 800503c:	1862      	adds	r2, r4, r1
 800503e:	4293      	cmp	r3, r2
 8005040:	bf04      	itt	eq
 8005042:	681a      	ldreq	r2, [r3, #0]
 8005044:	685b      	ldreq	r3, [r3, #4]
 8005046:	6063      	str	r3, [r4, #4]
 8005048:	bf04      	itt	eq
 800504a:	1852      	addeq	r2, r2, r1
 800504c:	6022      	streq	r2, [r4, #0]
 800504e:	602c      	str	r4, [r5, #0]
 8005050:	e7ec      	b.n	800502c <_free_r+0x28>
 8005052:	461a      	mov	r2, r3
 8005054:	685b      	ldr	r3, [r3, #4]
 8005056:	b10b      	cbz	r3, 800505c <_free_r+0x58>
 8005058:	42a3      	cmp	r3, r4
 800505a:	d9fa      	bls.n	8005052 <_free_r+0x4e>
 800505c:	6811      	ldr	r1, [r2, #0]
 800505e:	1855      	adds	r5, r2, r1
 8005060:	42a5      	cmp	r5, r4
 8005062:	d10b      	bne.n	800507c <_free_r+0x78>
 8005064:	6824      	ldr	r4, [r4, #0]
 8005066:	4421      	add	r1, r4
 8005068:	1854      	adds	r4, r2, r1
 800506a:	42a3      	cmp	r3, r4
 800506c:	6011      	str	r1, [r2, #0]
 800506e:	d1dd      	bne.n	800502c <_free_r+0x28>
 8005070:	681c      	ldr	r4, [r3, #0]
 8005072:	685b      	ldr	r3, [r3, #4]
 8005074:	6053      	str	r3, [r2, #4]
 8005076:	4421      	add	r1, r4
 8005078:	6011      	str	r1, [r2, #0]
 800507a:	e7d7      	b.n	800502c <_free_r+0x28>
 800507c:	d902      	bls.n	8005084 <_free_r+0x80>
 800507e:	230c      	movs	r3, #12
 8005080:	6003      	str	r3, [r0, #0]
 8005082:	e7d3      	b.n	800502c <_free_r+0x28>
 8005084:	6825      	ldr	r5, [r4, #0]
 8005086:	1961      	adds	r1, r4, r5
 8005088:	428b      	cmp	r3, r1
 800508a:	bf04      	itt	eq
 800508c:	6819      	ldreq	r1, [r3, #0]
 800508e:	685b      	ldreq	r3, [r3, #4]
 8005090:	6063      	str	r3, [r4, #4]
 8005092:	bf04      	itt	eq
 8005094:	1949      	addeq	r1, r1, r5
 8005096:	6021      	streq	r1, [r4, #0]
 8005098:	6054      	str	r4, [r2, #4]
 800509a:	e7c7      	b.n	800502c <_free_r+0x28>
 800509c:	b003      	add	sp, #12
 800509e:	bd30      	pop	{r4, r5, pc}
 80050a0:	200000b4 	.word	0x200000b4

080050a4 <_malloc_r>:
 80050a4:	b5f8      	push	{r3, r4, r5, r6, r7, lr}
 80050a6:	1ccd      	adds	r5, r1, #3
 80050a8:	f025 0503 	bic.w	r5, r5, #3
 80050ac:	3508      	adds	r5, #8
 80050ae:	2d0c      	cmp	r5, #12
 80050b0:	bf38      	it	cc
 80050b2:	250c      	movcc	r5, #12
 80050b4:	2d00      	cmp	r5, #0
 80050b6:	4606      	mov	r6, r0
 80050b8:	db01      	blt.n	80050be <_malloc_r+0x1a>
 80050ba:	42a9      	cmp	r1, r5
 80050bc:	d903      	bls.n	80050c6 <_malloc_r+0x22>
 80050be:	230c      	movs	r3, #12
 80050c0:	6033      	str	r3, [r6, #0]
 80050c2:	2000      	movs	r0, #0
 80050c4:	bdf8      	pop	{r3, r4, r5, r6, r7, pc}
 80050c6:	f000 ffaf 	bl	8006028 <__malloc_lock>
 80050ca:	4921      	ldr	r1, [pc, #132]	; (8005150 <_malloc_r+0xac>)
 80050cc:	680a      	ldr	r2, [r1, #0]
 80050ce:	4614      	mov	r4, r2
 80050d0:	b99c      	cbnz	r4, 80050fa <_malloc_r+0x56>
 80050d2:	4f20      	ldr	r7, [pc, #128]	; (8005154 <_malloc_r+0xb0>)
 80050d4:	683b      	ldr	r3, [r7, #0]
 80050d6:	b923      	cbnz	r3, 80050e2 <_malloc_r+0x3e>
 80050d8:	4621      	mov	r1, r4
 80050da:	4630      	mov	r0, r6
 80050dc:	f000 fc86 	bl	80059ec <_sbrk_r>
 80050e0:	6038      	str	r0, [r7, #0]
 80050e2:	4629      	mov	r1, r5
 80050e4:	4630      	mov	r0, r6
 80050e6:	f000 fc81 	bl	80059ec <_sbrk_r>
 80050ea:	1c43      	adds	r3, r0, #1
 80050ec:	d123      	bne.n	8005136 <_malloc_r+0x92>
 80050ee:	230c      	movs	r3, #12
 80050f0:	6033      	str	r3, [r6, #0]
 80050f2:	4630      	mov	r0, r6
 80050f4:	f000 ff9e 	bl	8006034 <__malloc_unlock>
 80050f8:	e7e3      	b.n	80050c2 <_malloc_r+0x1e>
 80050fa:	6823      	ldr	r3, [r4, #0]
 80050fc:	1b5b      	subs	r3, r3, r5
 80050fe:	d417      	bmi.n	8005130 <_malloc_r+0x8c>
 8005100:	2b0b      	cmp	r3, #11
 8005102:	d903      	bls.n	800510c <_malloc_r+0x68>
 8005104:	6023      	str	r3, [r4, #0]
 8005106:	441c      	add	r4, r3
 8005108:	6025      	str	r5, [r4, #0]
 800510a:	e004      	b.n	8005116 <_malloc_r+0x72>
 800510c:	6863      	ldr	r3, [r4, #4]
 800510e:	42a2      	cmp	r2, r4
 8005110:	bf0c      	ite	eq
 8005112:	600b      	streq	r3, [r1, #0]
 8005114:	6053      	strne	r3, [r2, #4]
 8005116:	4630      	mov	r0, r6
 8005118:	f000 ff8c 	bl	8006034 <__malloc_unlock>
 800511c:	f104 000b 	add.w	r0, r4, #11
 8005120:	1d23      	adds	r3, r4, #4
 8005122:	f020 0007 	bic.w	r0, r0, #7
 8005126:	1ac2      	subs	r2, r0, r3
 8005128:	d0cc      	beq.n	80050c4 <_malloc_r+0x20>
 800512a:	1a1b      	subs	r3, r3, r0
 800512c:	50a3      	str	r3, [r4, r2]
 800512e:	e7c9      	b.n	80050c4 <_malloc_r+0x20>
 8005130:	4622      	mov	r2, r4
 8005132:	6864      	ldr	r4, [r4, #4]
 8005134:	e7cc      	b.n	80050d0 <_malloc_r+0x2c>
 8005136:	1cc4      	adds	r4, r0, #3
 8005138:	f024 0403 	bic.w	r4, r4, #3
 800513c:	42a0      	cmp	r0, r4
 800513e:	d0e3      	beq.n	8005108 <_malloc_r+0x64>
 8005140:	1a21      	subs	r1, r4, r0
 8005142:	4630      	mov	r0, r6
 8005144:	f000 fc52 	bl	80059ec <_sbrk_r>
 8005148:	3001      	adds	r0, #1
 800514a:	d1dd      	bne.n	8005108 <_malloc_r+0x64>
 800514c:	e7cf      	b.n	80050ee <_malloc_r+0x4a>
 800514e:	bf00      	nop
 8005150:	200000b4 	.word	0x200000b4
 8005154:	200000b8 	.word	0x200000b8

08005158 <__ssputs_r>:
 8005158:	e92d 47f0 	stmdb	sp!, {r4, r5, r6, r7, r8, r9, sl, lr}
 800515c:	688e      	ldr	r6, [r1, #8]
 800515e:	429e      	cmp	r6, r3
 8005160:	4682      	mov	sl, r0
 8005162:	460c      	mov	r4, r1
 8005164:	4690      	mov	r8, r2
 8005166:	461f      	mov	r7, r3
 8005168:	d838      	bhi.n	80051dc <__ssputs_r+0x84>
 800516a:	898a      	ldrh	r2, [r1, #12]
 800516c:	f412 6f90 	tst.w	r2, #1152	; 0x480
 8005170:	d032      	beq.n	80051d8 <__ssputs_r+0x80>
 8005172:	6825      	ldr	r5, [r4, #0]
 8005174:	6909      	ldr	r1, [r1, #16]
 8005176:	eba5 0901 	sub.w	r9, r5, r1
 800517a:	6965      	ldr	r5, [r4, #20]
 800517c:	eb05 0545 	add.w	r5, r5, r5, lsl #1
 8005180:	eb05 75d5 	add.w	r5, r5, r5, lsr #31
 8005184:	3301      	adds	r3, #1
 8005186:	444b      	add	r3, r9
 8005188:	106d      	asrs	r5, r5, #1
 800518a:	429d      	cmp	r5, r3
 800518c:	bf38      	it	cc
 800518e:	461d      	movcc	r5, r3
 8005190:	0553      	lsls	r3, r2, #21
 8005192:	d531      	bpl.n	80051f8 <__ssputs_r+0xa0>
 8005194:	4629      	mov	r1, r5
 8005196:	f7ff ff85 	bl	80050a4 <_malloc_r>
 800519a:	4606      	mov	r6, r0
 800519c:	b950      	cbnz	r0, 80051b4 <__ssputs_r+0x5c>
 800519e:	230c      	movs	r3, #12
 80051a0:	f8ca 3000 	str.w	r3, [sl]
 80051a4:	89a3      	ldrh	r3, [r4, #12]
 80051a6:	f043 0340 	orr.w	r3, r3, #64	; 0x40
 80051aa:	81a3      	strh	r3, [r4, #12]
 80051ac:	f04f 30ff 	mov.w	r0, #4294967295
 80051b0:	e8bd 87f0 	ldmia.w	sp!, {r4, r5, r6, r7, r8, r9, sl, pc}
 80051b4:	6921      	ldr	r1, [r4, #16]
 80051b6:	464a      	mov	r2, r9
 80051b8:	f000 ff0e 	bl	8005fd8 <memcpy>
 80051bc:	89a3      	ldrh	r3, [r4, #12]
 80051be:	f423 6390 	bic.w	r3, r3, #1152	; 0x480
 80051c2:	f043 0380 	orr.w	r3, r3, #128	; 0x80
 80051c6:	81a3      	strh	r3, [r4, #12]
 80051c8:	6126      	str	r6, [r4, #16]
 80051ca:	6165      	str	r5, [r4, #20]
 80051cc:	444e      	add	r6, r9
 80051ce:	eba5 0509 	sub.w	r5, r5, r9
 80051d2:	6026      	str	r6, [r4, #0]
 80051d4:	60a5      	str	r5, [r4, #8]
 80051d6:	463e      	mov	r6, r7
 80051d8:	42be      	cmp	r6, r7
 80051da:	d900      	bls.n	80051de <__ssputs_r+0x86>
 80051dc:	463e      	mov	r6, r7
 80051de:	4632      	mov	r2, r6
 80051e0:	6820      	ldr	r0, [r4, #0]
 80051e2:	4641      	mov	r1, r8
 80051e4:	f000 ff06 	bl	8005ff4 <memmove>
 80051e8:	68a3      	ldr	r3, [r4, #8]
 80051ea:	6822      	ldr	r2, [r4, #0]
 80051ec:	1b9b      	subs	r3, r3, r6
 80051ee:	4432      	add	r2, r6
 80051f0:	60a3      	str	r3, [r4, #8]
 80051f2:	6022      	str	r2, [r4, #0]
 80051f4:	2000      	movs	r0, #0
 80051f6:	e7db      	b.n	80051b0 <__ssputs_r+0x58>
 80051f8:	462a      	mov	r2, r5
 80051fa:	f000 ff21 	bl	8006040 <_realloc_r>
 80051fe:	4606      	mov	r6, r0
 8005200:	2800      	cmp	r0, #0
 8005202:	d1e1      	bne.n	80051c8 <__ssputs_r+0x70>
 8005204:	6921      	ldr	r1, [r4, #16]
 8005206:	4650      	mov	r0, sl
 8005208:	f7ff fefc 	bl	8005004 <_free_r>
 800520c:	e7c7      	b.n	800519e <__ssputs_r+0x46>
	...

08005210 <_svfiprintf_r>:
 8005210:	e92d 4ff0 	stmdb	sp!, {r4, r5, r6, r7, r8, r9, sl, fp, lr}
 8005214:	4698      	mov	r8, r3
 8005216:	898b      	ldrh	r3, [r1, #12]
 8005218:	061b      	lsls	r3, r3, #24
 800521a:	b09d      	sub	sp, #116	; 0x74
 800521c:	4607      	mov	r7, r0
 800521e:	460d      	mov	r5, r1
 8005220:	4614      	mov	r4, r2
 8005222:	d50e      	bpl.n	8005242 <_svfiprintf_r+0x32>
 8005224:	690b      	ldr	r3, [r1, #16]
 8005226:	b963      	cbnz	r3, 8005242 <_svfiprintf_r+0x32>
 8005228:	2140      	movs	r1, #64	; 0x40
 800522a:	f7ff ff3b 	bl	80050a4 <_malloc_r>
 800522e:	6028      	str	r0, [r5, #0]
 8005230:	6128      	str	r0, [r5, #16]
 8005232:	b920      	cbnz	r0, 800523e <_svfiprintf_r+0x2e>
 8005234:	230c      	movs	r3, #12
 8005236:	603b      	str	r3, [r7, #0]
 8005238:	f04f 30ff 	mov.w	r0, #4294967295
 800523c:	e0d1      	b.n	80053e2 <_svfiprintf_r+0x1d2>
 800523e:	2340      	movs	r3, #64	; 0x40
 8005240:	616b      	str	r3, [r5, #20]
 8005242:	2300      	movs	r3, #0
 8005244:	9309      	str	r3, [sp, #36]	; 0x24
 8005246:	2320      	movs	r3, #32
 8005248:	f88d 3029 	strb.w	r3, [sp, #41]	; 0x29
 800524c:	f8cd 800c 	str.w	r8, [sp, #12]
 8005250:	2330      	movs	r3, #48	; 0x30
 8005252:	f8df 81a8 	ldr.w	r8, [pc, #424]	; 80053fc <_svfiprintf_r+0x1ec>
 8005256:	f88d 302a 	strb.w	r3, [sp, #42]	; 0x2a
 800525a:	f04f 0901 	mov.w	r9, #1
 800525e:	4623      	mov	r3, r4
 8005260:	469a      	mov	sl, r3
 8005262:	f813 2b01 	ldrb.w	r2, [r3], #1
 8005266:	b10a      	cbz	r2, 800526c <_svfiprintf_r+0x5c>
 8005268:	2a25      	cmp	r2, #37	; 0x25
 800526a:	d1f9      	bne.n	8005260 <_svfiprintf_r+0x50>
 800526c:	ebba 0b04 	subs.w	fp, sl, r4
 8005270:	d00b      	beq.n	800528a <_svfiprintf_r+0x7a>
 8005272:	465b      	mov	r3, fp
 8005274:	4622      	mov	r2, r4
 8005276:	4629      	mov	r1, r5
 8005278:	4638      	mov	r0, r7
 800527a:	f7ff ff6d 	bl	8005158 <__ssputs_r>
 800527e:	3001      	adds	r0, #1
 8005280:	f000 80aa 	beq.w	80053d8 <_svfiprintf_r+0x1c8>
 8005284:	9a09      	ldr	r2, [sp, #36]	; 0x24
 8005286:	445a      	add	r2, fp
 8005288:	9209      	str	r2, [sp, #36]	; 0x24
 800528a:	f89a 3000 	ldrb.w	r3, [sl]
 800528e:	2b00      	cmp	r3, #0
 8005290:	f000 80a2 	beq.w	80053d8 <_svfiprintf_r+0x1c8>
 8005294:	2300      	movs	r3, #0
 8005296:	f04f 32ff 	mov.w	r2, #4294967295
 800529a:	e9cd 2305 	strd	r2, r3, [sp, #20]
 800529e:	f10a 0a01 	add.w	sl, sl, #1
 80052a2:	9304      	str	r3, [sp, #16]
 80052a4:	9307      	str	r3, [sp, #28]
 80052a6:	f88d 3053 	strb.w	r3, [sp, #83]	; 0x53
 80052aa:	931a      	str	r3, [sp, #104]	; 0x68
 80052ac:	4654      	mov	r4, sl
 80052ae:	2205      	movs	r2, #5
 80052b0:	f814 1b01 	ldrb.w	r1, [r4], #1
 80052b4:	4851      	ldr	r0, [pc, #324]	; (80053fc <_svfiprintf_r+0x1ec>)
 80052b6:	f7fa ff93 	bl	80001e0 <memchr>
 80052ba:	9a04      	ldr	r2, [sp, #16]
 80052bc:	b9d8      	cbnz	r0, 80052f6 <_svfiprintf_r+0xe6>
 80052be:	06d0      	lsls	r0, r2, #27
 80052c0:	bf44      	itt	mi
 80052c2:	2320      	movmi	r3, #32
 80052c4:	f88d 3053 	strbmi.w	r3, [sp, #83]	; 0x53
 80052c8:	0711      	lsls	r1, r2, #28
 80052ca:	bf44      	itt	mi
 80052cc:	232b      	movmi	r3, #43	; 0x2b
 80052ce:	f88d 3053 	strbmi.w	r3, [sp, #83]	; 0x53
 80052d2:	f89a 3000 	ldrb.w	r3, [sl]
 80052d6:	2b2a      	cmp	r3, #42	; 0x2a
 80052d8:	d015      	beq.n	8005306 <_svfiprintf_r+0xf6>
 80052da:	9a07      	ldr	r2, [sp, #28]
 80052dc:	4654      	mov	r4, sl
 80052de:	2000      	movs	r0, #0
 80052e0:	f04f 0c0a 	mov.w	ip, #10
 80052e4:	4621      	mov	r1, r4
 80052e6:	f811 3b01 	ldrb.w	r3, [r1], #1
 80052ea:	3b30      	subs	r3, #48	; 0x30
 80052ec:	2b09      	cmp	r3, #9
 80052ee:	d94e      	bls.n	800538e <_svfiprintf_r+0x17e>
 80052f0:	b1b0      	cbz	r0, 8005320 <_svfiprintf_r+0x110>
 80052f2:	9207      	str	r2, [sp, #28]
 80052f4:	e014      	b.n	8005320 <_svfiprintf_r+0x110>
 80052f6:	eba0 0308 	sub.w	r3, r0, r8
 80052fa:	fa09 f303 	lsl.w	r3, r9, r3
 80052fe:	4313      	orrs	r3, r2
 8005300:	9304      	str	r3, [sp, #16]
 8005302:	46a2      	mov	sl, r4
 8005304:	e7d2      	b.n	80052ac <_svfiprintf_r+0x9c>
 8005306:	9b03      	ldr	r3, [sp, #12]
 8005308:	1d19      	adds	r1, r3, #4
 800530a:	681b      	ldr	r3, [r3, #0]
 800530c:	9103      	str	r1, [sp, #12]
 800530e:	2b00      	cmp	r3, #0
 8005310:	bfbb      	ittet	lt
 8005312:	425b      	neglt	r3, r3
 8005314:	f042 0202 	orrlt.w	r2, r2, #2
 8005318:	9307      	strge	r3, [sp, #28]
 800531a:	9307      	strlt	r3, [sp, #28]
 800531c:	bfb8      	it	lt
 800531e:	9204      	strlt	r2, [sp, #16]
 8005320:	7823      	ldrb	r3, [r4, #0]
 8005322:	2b2e      	cmp	r3, #46	; 0x2e
 8005324:	d10c      	bne.n	8005340 <_svfiprintf_r+0x130>
 8005326:	7863      	ldrb	r3, [r4, #1]
 8005328:	2b2a      	cmp	r3, #42	; 0x2a
 800532a:	d135      	bne.n	8005398 <_svfiprintf_r+0x188>
 800532c:	9b03      	ldr	r3, [sp, #12]
 800532e:	1d1a      	adds	r2, r3, #4
 8005330:	681b      	ldr	r3, [r3, #0]
 8005332:	9203      	str	r2, [sp, #12]
 8005334:	2b00      	cmp	r3, #0
 8005336:	bfb8      	it	lt
 8005338:	f04f 33ff 	movlt.w	r3, #4294967295
 800533c:	3402      	adds	r4, #2
 800533e:	9305      	str	r3, [sp, #20]
 8005340:	f8df a0c8 	ldr.w	sl, [pc, #200]	; 800540c <_svfiprintf_r+0x1fc>
 8005344:	7821      	ldrb	r1, [r4, #0]
 8005346:	2203      	movs	r2, #3
 8005348:	4650      	mov	r0, sl
 800534a:	f7fa ff49 	bl	80001e0 <memchr>
 800534e:	b140      	cbz	r0, 8005362 <_svfiprintf_r+0x152>
 8005350:	2340      	movs	r3, #64	; 0x40
 8005352:	eba0 000a 	sub.w	r0, r0, sl
 8005356:	fa03 f000 	lsl.w	r0, r3, r0
 800535a:	9b04      	ldr	r3, [sp, #16]
 800535c:	4303      	orrs	r3, r0
 800535e:	3401      	adds	r4, #1
 8005360:	9304      	str	r3, [sp, #16]
 8005362:	f814 1b01 	ldrb.w	r1, [r4], #1
 8005366:	4826      	ldr	r0, [pc, #152]	; (8005400 <_svfiprintf_r+0x1f0>)
 8005368:	f88d 1028 	strb.w	r1, [sp, #40]	; 0x28
 800536c:	2206      	movs	r2, #6
 800536e:	f7fa ff37 	bl	80001e0 <memchr>
 8005372:	2800      	cmp	r0, #0
 8005374:	d038      	beq.n	80053e8 <_svfiprintf_r+0x1d8>
 8005376:	4b23      	ldr	r3, [pc, #140]	; (8005404 <_svfiprintf_r+0x1f4>)
 8005378:	bb1b      	cbnz	r3, 80053c2 <_svfiprintf_r+0x1b2>
 800537a:	9b03      	ldr	r3, [sp, #12]
 800537c:	3307      	adds	r3, #7
 800537e:	f023 0307 	bic.w	r3, r3, #7
 8005382:	3308      	adds	r3, #8
 8005384:	9303      	str	r3, [sp, #12]
 8005386:	9b09      	ldr	r3, [sp, #36]	; 0x24
 8005388:	4433      	add	r3, r6
 800538a:	9309      	str	r3, [sp, #36]	; 0x24
 800538c:	e767      	b.n	800525e <_svfiprintf_r+0x4e>
 800538e:	fb0c 3202 	mla	r2, ip, r2, r3
 8005392:	460c      	mov	r4, r1
 8005394:	2001      	movs	r0, #1
 8005396:	e7a5      	b.n	80052e4 <_svfiprintf_r+0xd4>
 8005398:	2300      	movs	r3, #0
 800539a:	3401      	adds	r4, #1
 800539c:	9305      	str	r3, [sp, #20]
 800539e:	4619      	mov	r1, r3
 80053a0:	f04f 0c0a 	mov.w	ip, #10
 80053a4:	4620      	mov	r0, r4
 80053a6:	f810 2b01 	ldrb.w	r2, [r0], #1
 80053aa:	3a30      	subs	r2, #48	; 0x30
 80053ac:	2a09      	cmp	r2, #9
 80053ae:	d903      	bls.n	80053b8 <_svfiprintf_r+0x1a8>
 80053b0:	2b00      	cmp	r3, #0
 80053b2:	d0c5      	beq.n	8005340 <_svfiprintf_r+0x130>
 80053b4:	9105      	str	r1, [sp, #20]
 80053b6:	e7c3      	b.n	8005340 <_svfiprintf_r+0x130>
 80053b8:	fb0c 2101 	mla	r1, ip, r1, r2
 80053bc:	4604      	mov	r4, r0
 80053be:	2301      	movs	r3, #1
 80053c0:	e7f0      	b.n	80053a4 <_svfiprintf_r+0x194>
 80053c2:	ab03      	add	r3, sp, #12
 80053c4:	9300      	str	r3, [sp, #0]
 80053c6:	462a      	mov	r2, r5
 80053c8:	4b0f      	ldr	r3, [pc, #60]	; (8005408 <_svfiprintf_r+0x1f8>)
 80053ca:	a904      	add	r1, sp, #16
 80053cc:	4638      	mov	r0, r7
 80053ce:	f3af 8000 	nop.w
 80053d2:	1c42      	adds	r2, r0, #1
 80053d4:	4606      	mov	r6, r0
 80053d6:	d1d6      	bne.n	8005386 <_svfiprintf_r+0x176>
 80053d8:	89ab      	ldrh	r3, [r5, #12]
 80053da:	065b      	lsls	r3, r3, #25
 80053dc:	f53f af2c 	bmi.w	8005238 <_svfiprintf_r+0x28>
 80053e0:	9809      	ldr	r0, [sp, #36]	; 0x24
 80053e2:	b01d      	add	sp, #116	; 0x74
 80053e4:	e8bd 8ff0 	ldmia.w	sp!, {r4, r5, r6, r7, r8, r9, sl, fp, pc}
 80053e8:	ab03      	add	r3, sp, #12
 80053ea:	9300      	str	r3, [sp, #0]
 80053ec:	462a      	mov	r2, r5
 80053ee:	4b06      	ldr	r3, [pc, #24]	; (8005408 <_svfiprintf_r+0x1f8>)
 80053f0:	a904      	add	r1, sp, #16
 80053f2:	4638      	mov	r0, r7
 80053f4:	f000 f9d4 	bl	80057a0 <_printf_i>
 80053f8:	e7eb      	b.n	80053d2 <_svfiprintf_r+0x1c2>
 80053fa:	bf00      	nop
 80053fc:	08006394 	.word	0x08006394
 8005400:	0800639e 	.word	0x0800639e
 8005404:	00000000 	.word	0x00000000
 8005408:	08005159 	.word	0x08005159
 800540c:	0800639a 	.word	0x0800639a

08005410 <__sfputc_r>:
 8005410:	6893      	ldr	r3, [r2, #8]
 8005412:	3b01      	subs	r3, #1
 8005414:	2b00      	cmp	r3, #0
 8005416:	b410      	push	{r4}
 8005418:	6093      	str	r3, [r2, #8]
 800541a:	da08      	bge.n	800542e <__sfputc_r+0x1e>
 800541c:	6994      	ldr	r4, [r2, #24]
 800541e:	42a3      	cmp	r3, r4
 8005420:	db01      	blt.n	8005426 <__sfputc_r+0x16>
 8005422:	290a      	cmp	r1, #10
 8005424:	d103      	bne.n	800542e <__sfputc_r+0x1e>
 8005426:	f85d 4b04 	ldr.w	r4, [sp], #4
 800542a:	f000 baef 	b.w	8005a0c <__swbuf_r>
 800542e:	6813      	ldr	r3, [r2, #0]
 8005430:	1c58      	adds	r0, r3, #1
 8005432:	6010      	str	r0, [r2, #0]
 8005434:	7019      	strb	r1, [r3, #0]
 8005436:	4608      	mov	r0, r1
 8005438:	f85d 4b04 	ldr.w	r4, [sp], #4
 800543c:	4770      	bx	lr

0800543e <__sfputs_r>:
 800543e:	b5f8      	push	{r3, r4, r5, r6, r7, lr}
 8005440:	4606      	mov	r6, r0
 8005442:	460f      	mov	r7, r1
 8005444:	4614      	mov	r4, r2
 8005446:	18d5      	adds	r5, r2, r3
 8005448:	42ac      	cmp	r4, r5
 800544a:	d101      	bne.n	8005450 <__sfputs_r+0x12>
 800544c:	2000      	movs	r0, #0
 800544e:	e007      	b.n	8005460 <__sfputs_r+0x22>
 8005450:	f814 1b01 	ldrb.w	r1, [r4], #1
 8005454:	463a      	mov	r2, r7
 8005456:	4630      	mov	r0, r6
 8005458:	f7ff ffda 	bl	8005410 <__sfputc_r>
 800545c:	1c43      	adds	r3, r0, #1
 800545e:	d1f3      	bne.n	8005448 <__sfputs_r+0xa>
 8005460:	bdf8      	pop	{r3, r4, r5, r6, r7, pc}
	...

08005464 <_vfiprintf_r>:
 8005464:	e92d 4ff0 	stmdb	sp!, {r4, r5, r6, r7, r8, r9, sl, fp, lr}
 8005468:	460d      	mov	r5, r1
 800546a:	b09d      	sub	sp, #116	; 0x74
 800546c:	4614      	mov	r4, r2
 800546e:	4698      	mov	r8, r3
 8005470:	4606      	mov	r6, r0
 8005472:	b118      	cbz	r0, 800547c <_vfiprintf_r+0x18>
 8005474:	6983      	ldr	r3, [r0, #24]
 8005476:	b90b      	cbnz	r3, 800547c <_vfiprintf_r+0x18>
 8005478:	f000 fcaa 	bl	8005dd0 <__sinit>
 800547c:	4b89      	ldr	r3, [pc, #548]	; (80056a4 <_vfiprintf_r+0x240>)
 800547e:	429d      	cmp	r5, r3
 8005480:	d11b      	bne.n	80054ba <_vfiprintf_r+0x56>
 8005482:	6875      	ldr	r5, [r6, #4]
 8005484:	6e6b      	ldr	r3, [r5, #100]	; 0x64
 8005486:	07d9      	lsls	r1, r3, #31
 8005488:	d405      	bmi.n	8005496 <_vfiprintf_r+0x32>
 800548a:	89ab      	ldrh	r3, [r5, #12]
 800548c:	059a      	lsls	r2, r3, #22
 800548e:	d402      	bmi.n	8005496 <_vfiprintf_r+0x32>
 8005490:	6da8      	ldr	r0, [r5, #88]	; 0x58
 8005492:	f000 fd3b 	bl	8005f0c <__retarget_lock_acquire_recursive>
 8005496:	89ab      	ldrh	r3, [r5, #12]
 8005498:	071b      	lsls	r3, r3, #28
 800549a:	d501      	bpl.n	80054a0 <_vfiprintf_r+0x3c>
 800549c:	692b      	ldr	r3, [r5, #16]
 800549e:	b9eb      	cbnz	r3, 80054dc <_vfiprintf_r+0x78>
 80054a0:	4629      	mov	r1, r5
 80054a2:	4630      	mov	r0, r6
 80054a4:	f000 fb04 	bl	8005ab0 <__swsetup_r>
 80054a8:	b1c0      	cbz	r0, 80054dc <_vfiprintf_r+0x78>
 80054aa:	6e6b      	ldr	r3, [r5, #100]	; 0x64
 80054ac:	07dc      	lsls	r4, r3, #31
 80054ae:	d50e      	bpl.n	80054ce <_vfiprintf_r+0x6a>
 80054b0:	f04f 30ff 	mov.w	r0, #4294967295
 80054b4:	b01d      	add	sp, #116	; 0x74
 80054b6:	e8bd 8ff0 	ldmia.w	sp!, {r4, r5, r6, r7, r8, r9, sl, fp, pc}
 80054ba:	4b7b      	ldr	r3, [pc, #492]	; (80056a8 <_vfiprintf_r+0x244>)
 80054bc:	429d      	cmp	r5, r3
 80054be:	d101      	bne.n	80054c4 <_vfiprintf_r+0x60>
 80054c0:	68b5      	ldr	r5, [r6, #8]
 80054c2:	e7df      	b.n	8005484 <_vfiprintf_r+0x20>
 80054c4:	4b79      	ldr	r3, [pc, #484]	; (80056ac <_vfiprintf_r+0x248>)
 80054c6:	429d      	cmp	r5, r3
 80054c8:	bf08      	it	eq
 80054ca:	68f5      	ldreq	r5, [r6, #12]
 80054cc:	e7da      	b.n	8005484 <_vfiprintf_r+0x20>
 80054ce:	89ab      	ldrh	r3, [r5, #12]
 80054d0:	0598      	lsls	r0, r3, #22
 80054d2:	d4ed      	bmi.n	80054b0 <_vfiprintf_r+0x4c>
 80054d4:	6da8      	ldr	r0, [r5, #88]	; 0x58
 80054d6:	f000 fd1a 	bl	8005f0e <__retarget_lock_release_recursive>
 80054da:	e7e9      	b.n	80054b0 <_vfiprintf_r+0x4c>
 80054dc:	2300      	movs	r3, #0
 80054de:	9309      	str	r3, [sp, #36]	; 0x24
 80054e0:	2320      	movs	r3, #32
 80054e2:	f88d 3029 	strb.w	r3, [sp, #41]	; 0x29
 80054e6:	f8cd 800c 	str.w	r8, [sp, #12]
 80054ea:	2330      	movs	r3, #48	; 0x30
 80054ec:	f8df 81c0 	ldr.w	r8, [pc, #448]	; 80056b0 <_vfiprintf_r+0x24c>
 80054f0:	f88d 302a 	strb.w	r3, [sp, #42]	; 0x2a
 80054f4:	f04f 0901 	mov.w	r9, #1
 80054f8:	4623      	mov	r3, r4
 80054fa:	469a      	mov	sl, r3
 80054fc:	f813 2b01 	ldrb.w	r2, [r3], #1
 8005500:	b10a      	cbz	r2, 8005506 <_vfiprintf_r+0xa2>
 8005502:	2a25      	cmp	r2, #37	; 0x25
 8005504:	d1f9      	bne.n	80054fa <_vfiprintf_r+0x96>
 8005506:	ebba 0b04 	subs.w	fp, sl, r4
 800550a:	d00b      	beq.n	8005524 <_vfiprintf_r+0xc0>
 800550c:	465b      	mov	r3, fp
 800550e:	4622      	mov	r2, r4
 8005510:	4629      	mov	r1, r5
 8005512:	4630      	mov	r0, r6
 8005514:	f7ff ff93 	bl	800543e <__sfputs_r>
 8005518:	3001      	adds	r0, #1
 800551a:	f000 80aa 	beq.w	8005672 <_vfiprintf_r+0x20e>
 800551e:	9a09      	ldr	r2, [sp, #36]	; 0x24
 8005520:	445a      	add	r2, fp
 8005522:	9209      	str	r2, [sp, #36]	; 0x24
 8005524:	f89a 3000 	ldrb.w	r3, [sl]
 8005528:	2b00      	cmp	r3, #0
 800552a:	f000 80a2 	beq.w	8005672 <_vfiprintf_r+0x20e>
 800552e:	2300      	movs	r3, #0
 8005530:	f04f 32ff 	mov.w	r2, #4294967295
 8005534:	e9cd 2305 	strd	r2, r3, [sp, #20]
 8005538:	f10a 0a01 	add.w	sl, sl, #1
 800553c:	9304      	str	r3, [sp, #16]
 800553e:	9307      	str	r3, [sp, #28]
 8005540:	f88d 3053 	strb.w	r3, [sp, #83]	; 0x53
 8005544:	931a      	str	r3, [sp, #104]	; 0x68
 8005546:	4654      	mov	r4, sl
 8005548:	2205      	movs	r2, #5
 800554a:	f814 1b01 	ldrb.w	r1, [r4], #1
 800554e:	4858      	ldr	r0, [pc, #352]	; (80056b0 <_vfiprintf_r+0x24c>)
 8005550:	f7fa fe46 	bl	80001e0 <memchr>
 8005554:	9a04      	ldr	r2, [sp, #16]
 8005556:	b9d8      	cbnz	r0, 8005590 <_vfiprintf_r+0x12c>
 8005558:	06d1      	lsls	r1, r2, #27
 800555a:	bf44      	itt	mi
 800555c:	2320      	movmi	r3, #32
 800555e:	f88d 3053 	strbmi.w	r3, [sp, #83]	; 0x53
 8005562:	0713      	lsls	r3, r2, #28
 8005564:	bf44      	itt	mi
 8005566:	232b      	movmi	r3, #43	; 0x2b
 8005568:	f88d 3053 	strbmi.w	r3, [sp, #83]	; 0x53
 800556c:	f89a 3000 	ldrb.w	r3, [sl]
 8005570:	2b2a      	cmp	r3, #42	; 0x2a
 8005572:	d015      	beq.n	80055a0 <_vfiprintf_r+0x13c>
 8005574:	9a07      	ldr	r2, [sp, #28]
 8005576:	4654      	mov	r4, sl
 8005578:	2000      	movs	r0, #0
 800557a:	f04f 0c0a 	mov.w	ip, #10
 800557e:	4621      	mov	r1, r4
 8005580:	f811 3b01 	ldrb.w	r3, [r1], #1
 8005584:	3b30      	subs	r3, #48	; 0x30
 8005586:	2b09      	cmp	r3, #9
 8005588:	d94e      	bls.n	8005628 <_vfiprintf_r+0x1c4>
 800558a:	b1b0      	cbz	r0, 80055ba <_vfiprintf_r+0x156>
 800558c:	9207      	str	r2, [sp, #28]
 800558e:	e014      	b.n	80055ba <_vfiprintf_r+0x156>
 8005590:	eba0 0308 	sub.w	r3, r0, r8
 8005594:	fa09 f303 	lsl.w	r3, r9, r3
 8005598:	4313      	orrs	r3, r2
 800559a:	9304      	str	r3, [sp, #16]
 800559c:	46a2      	mov	sl, r4
 800559e:	e7d2      	b.n	8005546 <_vfiprintf_r+0xe2>
 80055a0:	9b03      	ldr	r3, [sp, #12]
 80055a2:	1d19      	adds	r1, r3, #4
 80055a4:	681b      	ldr	r3, [r3, #0]
 80055a6:	9103      	str	r1, [sp, #12]
 80055a8:	2b00      	cmp	r3, #0
 80055aa:	bfbb      	ittet	lt
 80055ac:	425b      	neglt	r3, r3
 80055ae:	f042 0202 	orrlt.w	r2, r2, #2
 80055b2:	9307      	strge	r3, [sp, #28]
 80055b4:	9307      	strlt	r3, [sp, #28]
 80055b6:	bfb8      	it	lt
 80055b8:	9204      	strlt	r2, [sp, #16]
 80055ba:	7823      	ldrb	r3, [r4, #0]
 80055bc:	2b2e      	cmp	r3, #46	; 0x2e
 80055be:	d10c      	bne.n	80055da <_vfiprintf_r+0x176>
 80055c0:	7863      	ldrb	r3, [r4, #1]
 80055c2:	2b2a      	cmp	r3, #42	; 0x2a
 80055c4:	d135      	bne.n	8005632 <_vfiprintf_r+0x1ce>
 80055c6:	9b03      	ldr	r3, [sp, #12]
 80055c8:	1d1a      	adds	r2, r3, #4
 80055ca:	681b      	ldr	r3, [r3, #0]
 80055cc:	9203      	str	r2, [sp, #12]
 80055ce:	2b00      	cmp	r3, #0
 80055d0:	bfb8      	it	lt
 80055d2:	f04f 33ff 	movlt.w	r3, #4294967295
 80055d6:	3402      	adds	r4, #2
 80055d8:	9305      	str	r3, [sp, #20]
 80055da:	f8df a0e4 	ldr.w	sl, [pc, #228]	; 80056c0 <_vfiprintf_r+0x25c>
 80055de:	7821      	ldrb	r1, [r4, #0]
 80055e0:	2203      	movs	r2, #3
 80055e2:	4650      	mov	r0, sl
 80055e4:	f7fa fdfc 	bl	80001e0 <memchr>
 80055e8:	b140      	cbz	r0, 80055fc <_vfiprintf_r+0x198>
 80055ea:	2340      	movs	r3, #64	; 0x40
 80055ec:	eba0 000a 	sub.w	r0, r0, sl
 80055f0:	fa03 f000 	lsl.w	r0, r3, r0
 80055f4:	9b04      	ldr	r3, [sp, #16]
 80055f6:	4303      	orrs	r3, r0
 80055f8:	3401      	adds	r4, #1
 80055fa:	9304      	str	r3, [sp, #16]
 80055fc:	f814 1b01 	ldrb.w	r1, [r4], #1
 8005600:	482c      	ldr	r0, [pc, #176]	; (80056b4 <_vfiprintf_r+0x250>)
 8005602:	f88d 1028 	strb.w	r1, [sp, #40]	; 0x28
 8005606:	2206      	movs	r2, #6
 8005608:	f7fa fdea 	bl	80001e0 <memchr>
 800560c:	2800      	cmp	r0, #0
 800560e:	d03f      	beq.n	8005690 <_vfiprintf_r+0x22c>
 8005610:	4b29      	ldr	r3, [pc, #164]	; (80056b8 <_vfiprintf_r+0x254>)
 8005612:	bb1b      	cbnz	r3, 800565c <_vfiprintf_r+0x1f8>
 8005614:	9b03      	ldr	r3, [sp, #12]
 8005616:	3307      	adds	r3, #7
 8005618:	f023 0307 	bic.w	r3, r3, #7
 800561c:	3308      	adds	r3, #8
 800561e:	9303      	str	r3, [sp, #12]
 8005620:	9b09      	ldr	r3, [sp, #36]	; 0x24
 8005622:	443b      	add	r3, r7
 8005624:	9309      	str	r3, [sp, #36]	; 0x24
 8005626:	e767      	b.n	80054f8 <_vfiprintf_r+0x94>
 8005628:	fb0c 3202 	mla	r2, ip, r2, r3
 800562c:	460c      	mov	r4, r1
 800562e:	2001      	movs	r0, #1
 8005630:	e7a5      	b.n	800557e <_vfiprintf_r+0x11a>
 8005632:	2300      	movs	r3, #0
 8005634:	3401      	adds	r4, #1
 8005636:	9305      	str	r3, [sp, #20]
 8005638:	4619      	mov	r1, r3
 800563a:	f04f 0c0a 	mov.w	ip, #10
 800563e:	4620      	mov	r0, r4
 8005640:	f810 2b01 	ldrb.w	r2, [r0], #1
 8005644:	3a30      	subs	r2, #48	; 0x30
 8005646:	2a09      	cmp	r2, #9
 8005648:	d903      	bls.n	8005652 <_vfiprintf_r+0x1ee>
 800564a:	2b00      	cmp	r3, #0
 800564c:	d0c5      	beq.n	80055da <_vfiprintf_r+0x176>
 800564e:	9105      	str	r1, [sp, #20]
 8005650:	e7c3      	b.n	80055da <_vfiprintf_r+0x176>
 8005652:	fb0c 2101 	mla	r1, ip, r1, r2
 8005656:	4604      	mov	r4, r0
 8005658:	2301      	movs	r3, #1
 800565a:	e7f0      	b.n	800563e <_vfiprintf_r+0x1da>
 800565c:	ab03      	add	r3, sp, #12
 800565e:	9300      	str	r3, [sp, #0]
 8005660:	462a      	mov	r2, r5
 8005662:	4b16      	ldr	r3, [pc, #88]	; (80056bc <_vfiprintf_r+0x258>)
 8005664:	a904      	add	r1, sp, #16
 8005666:	4630      	mov	r0, r6
 8005668:	f3af 8000 	nop.w
 800566c:	4607      	mov	r7, r0
 800566e:	1c78      	adds	r0, r7, #1
 8005670:	d1d6      	bne.n	8005620 <_vfiprintf_r+0x1bc>
 8005672:	6e6b      	ldr	r3, [r5, #100]	; 0x64
 8005674:	07d9      	lsls	r1, r3, #31
 8005676:	d405      	bmi.n	8005684 <_vfiprintf_r+0x220>
 8005678:	89ab      	ldrh	r3, [r5, #12]
 800567a:	059a      	lsls	r2, r3, #22
 800567c:	d402      	bmi.n	8005684 <_vfiprintf_r+0x220>
 800567e:	6da8      	ldr	r0, [r5, #88]	; 0x58
 8005680:	f000 fc45 	bl	8005f0e <__retarget_lock_release_recursive>
 8005684:	89ab      	ldrh	r3, [r5, #12]
 8005686:	065b      	lsls	r3, r3, #25
 8005688:	f53f af12 	bmi.w	80054b0 <_vfiprintf_r+0x4c>
 800568c:	9809      	ldr	r0, [sp, #36]	; 0x24
 800568e:	e711      	b.n	80054b4 <_vfiprintf_r+0x50>
 8005690:	ab03      	add	r3, sp, #12
 8005692:	9300      	str	r3, [sp, #0]
 8005694:	462a      	mov	r2, r5
 8005696:	4b09      	ldr	r3, [pc, #36]	; (80056bc <_vfiprintf_r+0x258>)
 8005698:	a904      	add	r1, sp, #16
 800569a:	4630      	mov	r0, r6
 800569c:	f000 f880 	bl	80057a0 <_printf_i>
 80056a0:	e7e4      	b.n	800566c <_vfiprintf_r+0x208>
 80056a2:	bf00      	nop
 80056a4:	080063e8 	.word	0x080063e8
 80056a8:	08006408 	.word	0x08006408
 80056ac:	080063c8 	.word	0x080063c8
 80056b0:	08006394 	.word	0x08006394
 80056b4:	0800639e 	.word	0x0800639e
 80056b8:	00000000 	.word	0x00000000
 80056bc:	0800543f 	.word	0x0800543f
 80056c0:	0800639a 	.word	0x0800639a

080056c4 <_printf_common>:
 80056c4:	e92d 47f0 	stmdb	sp!, {r4, r5, r6, r7, r8, r9, sl, lr}
 80056c8:	4616      	mov	r6, r2
 80056ca:	4699      	mov	r9, r3
 80056cc:	688a      	ldr	r2, [r1, #8]
 80056ce:	690b      	ldr	r3, [r1, #16]
 80056d0:	f8dd 8020 	ldr.w	r8, [sp, #32]
 80056d4:	4293      	cmp	r3, r2
 80056d6:	bfb8      	it	lt
 80056d8:	4613      	movlt	r3, r2
 80056da:	6033      	str	r3, [r6, #0]
 80056dc:	f891 2043 	ldrb.w	r2, [r1, #67]	; 0x43
 80056e0:	4607      	mov	r7, r0
 80056e2:	460c      	mov	r4, r1
 80056e4:	b10a      	cbz	r2, 80056ea <_printf_common+0x26>
 80056e6:	3301      	adds	r3, #1
 80056e8:	6033      	str	r3, [r6, #0]
 80056ea:	6823      	ldr	r3, [r4, #0]
 80056ec:	0699      	lsls	r1, r3, #26
 80056ee:	bf42      	ittt	mi
 80056f0:	6833      	ldrmi	r3, [r6, #0]
 80056f2:	3302      	addmi	r3, #2
 80056f4:	6033      	strmi	r3, [r6, #0]
 80056f6:	6825      	ldr	r5, [r4, #0]
 80056f8:	f015 0506 	ands.w	r5, r5, #6
 80056fc:	d106      	bne.n	800570c <_printf_common+0x48>
 80056fe:	f104 0a19 	add.w	sl, r4, #25
 8005702:	68e3      	ldr	r3, [r4, #12]
 8005704:	6832      	ldr	r2, [r6, #0]
 8005706:	1a9b      	subs	r3, r3, r2
 8005708:	42ab      	cmp	r3, r5
 800570a:	dc26      	bgt.n	800575a <_printf_common+0x96>
 800570c:	f894 2043 	ldrb.w	r2, [r4, #67]	; 0x43
 8005710:	1e13      	subs	r3, r2, #0
 8005712:	6822      	ldr	r2, [r4, #0]
 8005714:	bf18      	it	ne
 8005716:	2301      	movne	r3, #1
 8005718:	0692      	lsls	r2, r2, #26
 800571a:	d42b      	bmi.n	8005774 <_printf_common+0xb0>
 800571c:	f104 0243 	add.w	r2, r4, #67	; 0x43
 8005720:	4649      	mov	r1, r9
 8005722:	4638      	mov	r0, r7
 8005724:	47c0      	blx	r8
 8005726:	3001      	adds	r0, #1
 8005728:	d01e      	beq.n	8005768 <_printf_common+0xa4>
 800572a:	6823      	ldr	r3, [r4, #0]
 800572c:	68e5      	ldr	r5, [r4, #12]
 800572e:	6832      	ldr	r2, [r6, #0]
 8005730:	f003 0306 	and.w	r3, r3, #6
 8005734:	2b04      	cmp	r3, #4
 8005736:	bf08      	it	eq
 8005738:	1aad      	subeq	r5, r5, r2
 800573a:	68a3      	ldr	r3, [r4, #8]
 800573c:	6922      	ldr	r2, [r4, #16]
 800573e:	bf0c      	ite	eq
 8005740:	ea25 75e5 	biceq.w	r5, r5, r5, asr #31
 8005744:	2500      	movne	r5, #0
 8005746:	4293      	cmp	r3, r2
 8005748:	bfc4      	itt	gt
 800574a:	1a9b      	subgt	r3, r3, r2
 800574c:	18ed      	addgt	r5, r5, r3
 800574e:	2600      	movs	r6, #0
 8005750:	341a      	adds	r4, #26
 8005752:	42b5      	cmp	r5, r6
 8005754:	d11a      	bne.n	800578c <_printf_common+0xc8>
 8005756:	2000      	movs	r0, #0
 8005758:	e008      	b.n	800576c <_printf_common+0xa8>
 800575a:	2301      	movs	r3, #1
 800575c:	4652      	mov	r2, sl
 800575e:	4649      	mov	r1, r9
 8005760:	4638      	mov	r0, r7
 8005762:	47c0      	blx	r8
 8005764:	3001      	adds	r0, #1
 8005766:	d103      	bne.n	8005770 <_printf_common+0xac>
 8005768:	f04f 30ff 	mov.w	r0, #4294967295
 800576c:	e8bd 87f0 	ldmia.w	sp!, {r4, r5, r6, r7, r8, r9, sl, pc}
 8005770:	3501      	adds	r5, #1
 8005772:	e7c6      	b.n	8005702 <_printf_common+0x3e>
 8005774:	18e1      	adds	r1, r4, r3
 8005776:	1c5a      	adds	r2, r3, #1
 8005778:	2030      	movs	r0, #48	; 0x30
 800577a:	f881 0043 	strb.w	r0, [r1, #67]	; 0x43
 800577e:	4422      	add	r2, r4
 8005780:	f894 1045 	ldrb.w	r1, [r4, #69]	; 0x45
 8005784:	f882 1043 	strb.w	r1, [r2, #67]	; 0x43
 8005788:	3302      	adds	r3, #2
 800578a:	e7c7      	b.n	800571c <_printf_common+0x58>
 800578c:	2301      	movs	r3, #1
 800578e:	4622      	mov	r2, r4
 8005790:	4649      	mov	r1, r9
 8005792:	4638      	mov	r0, r7
 8005794:	47c0      	blx	r8
 8005796:	3001      	adds	r0, #1
 8005798:	d0e6      	beq.n	8005768 <_printf_common+0xa4>
 800579a:	3601      	adds	r6, #1
 800579c:	e7d9      	b.n	8005752 <_printf_common+0x8e>
	...

080057a0 <_printf_i>:
 80057a0:	e92d 47ff 	stmdb	sp!, {r0, r1, r2, r3, r4, r5, r6, r7, r8, r9, sl, lr}
 80057a4:	460c      	mov	r4, r1
 80057a6:	4691      	mov	r9, r2
 80057a8:	7e27      	ldrb	r7, [r4, #24]
 80057aa:	990c      	ldr	r1, [sp, #48]	; 0x30
 80057ac:	2f78      	cmp	r7, #120	; 0x78
 80057ae:	4680      	mov	r8, r0
 80057b0:	469a      	mov	sl, r3
 80057b2:	f104 0243 	add.w	r2, r4, #67	; 0x43
 80057b6:	d807      	bhi.n	80057c8 <_printf_i+0x28>
 80057b8:	2f62      	cmp	r7, #98	; 0x62
 80057ba:	d80a      	bhi.n	80057d2 <_printf_i+0x32>
 80057bc:	2f00      	cmp	r7, #0
 80057be:	f000 80d8 	beq.w	8005972 <_printf_i+0x1d2>
 80057c2:	2f58      	cmp	r7, #88	; 0x58
 80057c4:	f000 80a3 	beq.w	800590e <_printf_i+0x16e>
 80057c8:	f104 0642 	add.w	r6, r4, #66	; 0x42
 80057cc:	f884 7042 	strb.w	r7, [r4, #66]	; 0x42
 80057d0:	e03a      	b.n	8005848 <_printf_i+0xa8>
 80057d2:	f1a7 0363 	sub.w	r3, r7, #99	; 0x63
 80057d6:	2b15      	cmp	r3, #21
 80057d8:	d8f6      	bhi.n	80057c8 <_printf_i+0x28>
 80057da:	a001      	add	r0, pc, #4	; (adr r0, 80057e0 <_printf_i+0x40>)
 80057dc:	f850 f023 	ldr.w	pc, [r0, r3, lsl #2]
 80057e0:	08005839 	.word	0x08005839
 80057e4:	0800584d 	.word	0x0800584d
 80057e8:	080057c9 	.word	0x080057c9
 80057ec:	080057c9 	.word	0x080057c9
 80057f0:	080057c9 	.word	0x080057c9
 80057f4:	080057c9 	.word	0x080057c9
 80057f8:	0800584d 	.word	0x0800584d
 80057fc:	080057c9 	.word	0x080057c9
 8005800:	080057c9 	.word	0x080057c9
 8005804:	080057c9 	.word	0x080057c9
 8005808:	080057c9 	.word	0x080057c9
 800580c:	08005959 	.word	0x08005959
 8005810:	0800587d 	.word	0x0800587d
 8005814:	0800593b 	.word	0x0800593b
 8005818:	080057c9 	.word	0x080057c9
 800581c:	080057c9 	.word	0x080057c9
 8005820:	0800597b 	.word	0x0800597b
 8005824:	080057c9 	.word	0x080057c9
 8005828:	0800587d 	.word	0x0800587d
 800582c:	080057c9 	.word	0x080057c9
 8005830:	080057c9 	.word	0x080057c9
 8005834:	08005943 	.word	0x08005943
 8005838:	680b      	ldr	r3, [r1, #0]
 800583a:	1d1a      	adds	r2, r3, #4
 800583c:	681b      	ldr	r3, [r3, #0]
 800583e:	600a      	str	r2, [r1, #0]
 8005840:	f104 0642 	add.w	r6, r4, #66	; 0x42
 8005844:	f884 3042 	strb.w	r3, [r4, #66]	; 0x42
 8005848:	2301      	movs	r3, #1
 800584a:	e0a3      	b.n	8005994 <_printf_i+0x1f4>
 800584c:	6825      	ldr	r5, [r4, #0]
 800584e:	6808      	ldr	r0, [r1, #0]
 8005850:	062e      	lsls	r6, r5, #24
 8005852:	f100 0304 	add.w	r3, r0, #4
 8005856:	d50a      	bpl.n	800586e <_printf_i+0xce>
 8005858:	6805      	ldr	r5, [r0, #0]
 800585a:	600b      	str	r3, [r1, #0]
 800585c:	2d00      	cmp	r5, #0
 800585e:	da03      	bge.n	8005868 <_printf_i+0xc8>
 8005860:	232d      	movs	r3, #45	; 0x2d
 8005862:	426d      	negs	r5, r5
 8005864:	f884 3043 	strb.w	r3, [r4, #67]	; 0x43
 8005868:	485e      	ldr	r0, [pc, #376]	; (80059e4 <_printf_i+0x244>)
 800586a:	230a      	movs	r3, #10
 800586c:	e019      	b.n	80058a2 <_printf_i+0x102>
 800586e:	f015 0f40 	tst.w	r5, #64	; 0x40
 8005872:	6805      	ldr	r5, [r0, #0]
 8005874:	600b      	str	r3, [r1, #0]
 8005876:	bf18      	it	ne
 8005878:	b22d      	sxthne	r5, r5
 800587a:	e7ef      	b.n	800585c <_printf_i+0xbc>
 800587c:	680b      	ldr	r3, [r1, #0]
 800587e:	6825      	ldr	r5, [r4, #0]
 8005880:	1d18      	adds	r0, r3, #4
 8005882:	6008      	str	r0, [r1, #0]
 8005884:	0628      	lsls	r0, r5, #24
 8005886:	d501      	bpl.n	800588c <_printf_i+0xec>
 8005888:	681d      	ldr	r5, [r3, #0]
 800588a:	e002      	b.n	8005892 <_printf_i+0xf2>
 800588c:	0669      	lsls	r1, r5, #25
 800588e:	d5fb      	bpl.n	8005888 <_printf_i+0xe8>
 8005890:	881d      	ldrh	r5, [r3, #0]
 8005892:	4854      	ldr	r0, [pc, #336]	; (80059e4 <_printf_i+0x244>)
 8005894:	2f6f      	cmp	r7, #111	; 0x6f
 8005896:	bf0c      	ite	eq
 8005898:	2308      	moveq	r3, #8
 800589a:	230a      	movne	r3, #10
 800589c:	2100      	movs	r1, #0
 800589e:	f884 1043 	strb.w	r1, [r4, #67]	; 0x43
 80058a2:	6866      	ldr	r6, [r4, #4]
 80058a4:	60a6      	str	r6, [r4, #8]
 80058a6:	2e00      	cmp	r6, #0
 80058a8:	bfa2      	ittt	ge
 80058aa:	6821      	ldrge	r1, [r4, #0]
 80058ac:	f021 0104 	bicge.w	r1, r1, #4
 80058b0:	6021      	strge	r1, [r4, #0]
 80058b2:	b90d      	cbnz	r5, 80058b8 <_printf_i+0x118>
 80058b4:	2e00      	cmp	r6, #0
 80058b6:	d04d      	beq.n	8005954 <_printf_i+0x1b4>
 80058b8:	4616      	mov	r6, r2
 80058ba:	fbb5 f1f3 	udiv	r1, r5, r3
 80058be:	fb03 5711 	mls	r7, r3, r1, r5
 80058c2:	5dc7      	ldrb	r7, [r0, r7]
 80058c4:	f806 7d01 	strb.w	r7, [r6, #-1]!
 80058c8:	462f      	mov	r7, r5
 80058ca:	42bb      	cmp	r3, r7
 80058cc:	460d      	mov	r5, r1
 80058ce:	d9f4      	bls.n	80058ba <_printf_i+0x11a>
 80058d0:	2b08      	cmp	r3, #8
 80058d2:	d10b      	bne.n	80058ec <_printf_i+0x14c>
 80058d4:	6823      	ldr	r3, [r4, #0]
 80058d6:	07df      	lsls	r7, r3, #31
 80058d8:	d508      	bpl.n	80058ec <_printf_i+0x14c>
 80058da:	6923      	ldr	r3, [r4, #16]
 80058dc:	6861      	ldr	r1, [r4, #4]
 80058de:	4299      	cmp	r1, r3
 80058e0:	bfde      	ittt	le
 80058e2:	2330      	movle	r3, #48	; 0x30
 80058e4:	f806 3c01 	strble.w	r3, [r6, #-1]
 80058e8:	f106 36ff 	addle.w	r6, r6, #4294967295
 80058ec:	1b92      	subs	r2, r2, r6
 80058ee:	6122      	str	r2, [r4, #16]
 80058f0:	f8cd a000 	str.w	sl, [sp]
 80058f4:	464b      	mov	r3, r9
 80058f6:	aa03      	add	r2, sp, #12
 80058f8:	4621      	mov	r1, r4
 80058fa:	4640      	mov	r0, r8
 80058fc:	f7ff fee2 	bl	80056c4 <_printf_common>
 8005900:	3001      	adds	r0, #1
 8005902:	d14c      	bne.n	800599e <_printf_i+0x1fe>
 8005904:	f04f 30ff 	mov.w	r0, #4294967295
 8005908:	b004      	add	sp, #16
 800590a:	e8bd 87f0 	ldmia.w	sp!, {r4, r5, r6, r7, r8, r9, sl, pc}
 800590e:	4835      	ldr	r0, [pc, #212]	; (80059e4 <_printf_i+0x244>)
 8005910:	f884 7045 	strb.w	r7, [r4, #69]	; 0x45
 8005914:	6823      	ldr	r3, [r4, #0]
 8005916:	680e      	ldr	r6, [r1, #0]
 8005918:	061f      	lsls	r7, r3, #24
 800591a:	f856 5b04 	ldr.w	r5, [r6], #4
 800591e:	600e      	str	r6, [r1, #0]
 8005920:	d514      	bpl.n	800594c <_printf_i+0x1ac>
 8005922:	07d9      	lsls	r1, r3, #31
 8005924:	bf44      	itt	mi
 8005926:	f043 0320 	orrmi.w	r3, r3, #32
 800592a:	6023      	strmi	r3, [r4, #0]
 800592c:	b91d      	cbnz	r5, 8005936 <_printf_i+0x196>
 800592e:	6823      	ldr	r3, [r4, #0]
 8005930:	f023 0320 	bic.w	r3, r3, #32
 8005934:	6023      	str	r3, [r4, #0]
 8005936:	2310      	movs	r3, #16
 8005938:	e7b0      	b.n	800589c <_printf_i+0xfc>
 800593a:	6823      	ldr	r3, [r4, #0]
 800593c:	f043 0320 	orr.w	r3, r3, #32
 8005940:	6023      	str	r3, [r4, #0]
 8005942:	2378      	movs	r3, #120	; 0x78
 8005944:	4828      	ldr	r0, [pc, #160]	; (80059e8 <_printf_i+0x248>)
 8005946:	f884 3045 	strb.w	r3, [r4, #69]	; 0x45
 800594a:	e7e3      	b.n	8005914 <_printf_i+0x174>
 800594c:	065e      	lsls	r6, r3, #25
 800594e:	bf48      	it	mi
 8005950:	b2ad      	uxthmi	r5, r5
 8005952:	e7e6      	b.n	8005922 <_printf_i+0x182>
 8005954:	4616      	mov	r6, r2
 8005956:	e7bb      	b.n	80058d0 <_printf_i+0x130>
 8005958:	680b      	ldr	r3, [r1, #0]
 800595a:	6826      	ldr	r6, [r4, #0]
 800595c:	6960      	ldr	r0, [r4, #20]
 800595e:	1d1d      	adds	r5, r3, #4
 8005960:	600d      	str	r5, [r1, #0]
 8005962:	0635      	lsls	r5, r6, #24
 8005964:	681b      	ldr	r3, [r3, #0]
 8005966:	d501      	bpl.n	800596c <_printf_i+0x1cc>
 8005968:	6018      	str	r0, [r3, #0]
 800596a:	e002      	b.n	8005972 <_printf_i+0x1d2>
 800596c:	0671      	lsls	r1, r6, #25
 800596e:	d5fb      	bpl.n	8005968 <_printf_i+0x1c8>
 8005970:	8018      	strh	r0, [r3, #0]
 8005972:	2300      	movs	r3, #0
 8005974:	6123      	str	r3, [r4, #16]
 8005976:	4616      	mov	r6, r2
 8005978:	e7ba      	b.n	80058f0 <_printf_i+0x150>
 800597a:	680b      	ldr	r3, [r1, #0]
 800597c:	1d1a      	adds	r2, r3, #4
 800597e:	600a      	str	r2, [r1, #0]
 8005980:	681e      	ldr	r6, [r3, #0]
 8005982:	6862      	ldr	r2, [r4, #4]
 8005984:	2100      	movs	r1, #0
 8005986:	4630      	mov	r0, r6
 8005988:	f7fa fc2a 	bl	80001e0 <memchr>
 800598c:	b108      	cbz	r0, 8005992 <_printf_i+0x1f2>
 800598e:	1b80      	subs	r0, r0, r6
 8005990:	6060      	str	r0, [r4, #4]
 8005992:	6863      	ldr	r3, [r4, #4]
 8005994:	6123      	str	r3, [r4, #16]
 8005996:	2300      	movs	r3, #0
 8005998:	f884 3043 	strb.w	r3, [r4, #67]	; 0x43
 800599c:	e7a8      	b.n	80058f0 <_printf_i+0x150>
 800599e:	6923      	ldr	r3, [r4, #16]
 80059a0:	4632      	mov	r2, r6
 80059a2:	4649      	mov	r1, r9
 80059a4:	4640      	mov	r0, r8
 80059a6:	47d0      	blx	sl
 80059a8:	3001      	adds	r0, #1
 80059aa:	d0ab      	beq.n	8005904 <_printf_i+0x164>
 80059ac:	6823      	ldr	r3, [r4, #0]
 80059ae:	079b      	lsls	r3, r3, #30
 80059b0:	d413      	bmi.n	80059da <_printf_i+0x23a>
 80059b2:	68e0      	ldr	r0, [r4, #12]
 80059b4:	9b03      	ldr	r3, [sp, #12]
 80059b6:	4298      	cmp	r0, r3
 80059b8:	bfb8      	it	lt
 80059ba:	4618      	movlt	r0, r3
 80059bc:	e7a4      	b.n	8005908 <_printf_i+0x168>
 80059be:	2301      	movs	r3, #1
 80059c0:	4632      	mov	r2, r6
 80059c2:	4649      	mov	r1, r9
 80059c4:	4640      	mov	r0, r8
 80059c6:	47d0      	blx	sl
 80059c8:	3001      	adds	r0, #1
 80059ca:	d09b      	beq.n	8005904 <_printf_i+0x164>
 80059cc:	3501      	adds	r5, #1
 80059ce:	68e3      	ldr	r3, [r4, #12]
 80059d0:	9903      	ldr	r1, [sp, #12]
 80059d2:	1a5b      	subs	r3, r3, r1
 80059d4:	42ab      	cmp	r3, r5
 80059d6:	dcf2      	bgt.n	80059be <_printf_i+0x21e>
 80059d8:	e7eb      	b.n	80059b2 <_printf_i+0x212>
 80059da:	2500      	movs	r5, #0
 80059dc:	f104 0619 	add.w	r6, r4, #25
 80059e0:	e7f5      	b.n	80059ce <_printf_i+0x22e>
 80059e2:	bf00      	nop
 80059e4:	080063a5 	.word	0x080063a5
 80059e8:	080063b6 	.word	0x080063b6

080059ec <_sbrk_r>:
 80059ec:	b538      	push	{r3, r4, r5, lr}
 80059ee:	4d06      	ldr	r5, [pc, #24]	; (8005a08 <_sbrk_r+0x1c>)
 80059f0:	2300      	movs	r3, #0
 80059f2:	4604      	mov	r4, r0
 80059f4:	4608      	mov	r0, r1
 80059f6:	602b      	str	r3, [r5, #0]
 80059f8:	f7fb f9be 	bl	8000d78 <_sbrk>
 80059fc:	1c43      	adds	r3, r0, #1
 80059fe:	d102      	bne.n	8005a06 <_sbrk_r+0x1a>
 8005a00:	682b      	ldr	r3, [r5, #0]
 8005a02:	b103      	cbz	r3, 8005a06 <_sbrk_r+0x1a>
 8005a04:	6023      	str	r3, [r4, #0]
 8005a06:	bd38      	pop	{r3, r4, r5, pc}
 8005a08:	2001307c 	.word	0x2001307c

08005a0c <__swbuf_r>:
 8005a0c:	b5f8      	push	{r3, r4, r5, r6, r7, lr}
 8005a0e:	460e      	mov	r6, r1
 8005a10:	4614      	mov	r4, r2
 8005a12:	4605      	mov	r5, r0
 8005a14:	b118      	cbz	r0, 8005a1e <__swbuf_r+0x12>
 8005a16:	6983      	ldr	r3, [r0, #24]
 8005a18:	b90b      	cbnz	r3, 8005a1e <__swbuf_r+0x12>
 8005a1a:	f000 f9d9 	bl	8005dd0 <__sinit>
 8005a1e:	4b21      	ldr	r3, [pc, #132]	; (8005aa4 <__swbuf_r+0x98>)
 8005a20:	429c      	cmp	r4, r3
 8005a22:	d12b      	bne.n	8005a7c <__swbuf_r+0x70>
 8005a24:	686c      	ldr	r4, [r5, #4]
 8005a26:	69a3      	ldr	r3, [r4, #24]
 8005a28:	60a3      	str	r3, [r4, #8]
 8005a2a:	89a3      	ldrh	r3, [r4, #12]
 8005a2c:	071a      	lsls	r2, r3, #28
 8005a2e:	d52f      	bpl.n	8005a90 <__swbuf_r+0x84>
 8005a30:	6923      	ldr	r3, [r4, #16]
 8005a32:	b36b      	cbz	r3, 8005a90 <__swbuf_r+0x84>
 8005a34:	6923      	ldr	r3, [r4, #16]
 8005a36:	6820      	ldr	r0, [r4, #0]
 8005a38:	1ac0      	subs	r0, r0, r3
 8005a3a:	6963      	ldr	r3, [r4, #20]
 8005a3c:	b2f6      	uxtb	r6, r6
 8005a3e:	4283      	cmp	r3, r0
 8005a40:	4637      	mov	r7, r6
 8005a42:	dc04      	bgt.n	8005a4e <__swbuf_r+0x42>
 8005a44:	4621      	mov	r1, r4
 8005a46:	4628      	mov	r0, r5
 8005a48:	f000 f92e 	bl	8005ca8 <_fflush_r>
 8005a4c:	bb30      	cbnz	r0, 8005a9c <__swbuf_r+0x90>
 8005a4e:	68a3      	ldr	r3, [r4, #8]
 8005a50:	3b01      	subs	r3, #1
 8005a52:	60a3      	str	r3, [r4, #8]
 8005a54:	6823      	ldr	r3, [r4, #0]
 8005a56:	1c5a      	adds	r2, r3, #1
 8005a58:	6022      	str	r2, [r4, #0]
 8005a5a:	701e      	strb	r6, [r3, #0]
 8005a5c:	6963      	ldr	r3, [r4, #20]
 8005a5e:	3001      	adds	r0, #1
 8005a60:	4283      	cmp	r3, r0
 8005a62:	d004      	beq.n	8005a6e <__swbuf_r+0x62>
 8005a64:	89a3      	ldrh	r3, [r4, #12]
 8005a66:	07db      	lsls	r3, r3, #31
 8005a68:	d506      	bpl.n	8005a78 <__swbuf_r+0x6c>
 8005a6a:	2e0a      	cmp	r6, #10
 8005a6c:	d104      	bne.n	8005a78 <__swbuf_r+0x6c>
 8005a6e:	4621      	mov	r1, r4
 8005a70:	4628      	mov	r0, r5
 8005a72:	f000 f919 	bl	8005ca8 <_fflush_r>
 8005a76:	b988      	cbnz	r0, 8005a9c <__swbuf_r+0x90>
 8005a78:	4638      	mov	r0, r7
 8005a7a:	bdf8      	pop	{r3, r4, r5, r6, r7, pc}
 8005a7c:	4b0a      	ldr	r3, [pc, #40]	; (8005aa8 <__swbuf_r+0x9c>)
 8005a7e:	429c      	cmp	r4, r3
 8005a80:	d101      	bne.n	8005a86 <__swbuf_r+0x7a>
 8005a82:	68ac      	ldr	r4, [r5, #8]
 8005a84:	e7cf      	b.n	8005a26 <__swbuf_r+0x1a>
 8005a86:	4b09      	ldr	r3, [pc, #36]	; (8005aac <__swbuf_r+0xa0>)
 8005a88:	429c      	cmp	r4, r3
 8005a8a:	bf08      	it	eq
 8005a8c:	68ec      	ldreq	r4, [r5, #12]
 8005a8e:	e7ca      	b.n	8005a26 <__swbuf_r+0x1a>
 8005a90:	4621      	mov	r1, r4
 8005a92:	4628      	mov	r0, r5
 8005a94:	f000 f80c 	bl	8005ab0 <__swsetup_r>
 8005a98:	2800      	cmp	r0, #0
 8005a9a:	d0cb      	beq.n	8005a34 <__swbuf_r+0x28>
 8005a9c:	f04f 37ff 	mov.w	r7, #4294967295
 8005aa0:	e7ea      	b.n	8005a78 <__swbuf_r+0x6c>
 8005aa2:	bf00      	nop
 8005aa4:	080063e8 	.word	0x080063e8
 8005aa8:	08006408 	.word	0x08006408
 8005aac:	080063c8 	.word	0x080063c8

08005ab0 <__swsetup_r>:
 8005ab0:	4b32      	ldr	r3, [pc, #200]	; (8005b7c <__swsetup_r+0xcc>)
 8005ab2:	b570      	push	{r4, r5, r6, lr}
 8005ab4:	681d      	ldr	r5, [r3, #0]
 8005ab6:	4606      	mov	r6, r0
 8005ab8:	460c      	mov	r4, r1
 8005aba:	b125      	cbz	r5, 8005ac6 <__swsetup_r+0x16>
 8005abc:	69ab      	ldr	r3, [r5, #24]
 8005abe:	b913      	cbnz	r3, 8005ac6 <__swsetup_r+0x16>
 8005ac0:	4628      	mov	r0, r5
 8005ac2:	f000 f985 	bl	8005dd0 <__sinit>
 8005ac6:	4b2e      	ldr	r3, [pc, #184]	; (8005b80 <__swsetup_r+0xd0>)
 8005ac8:	429c      	cmp	r4, r3
 8005aca:	d10f      	bne.n	8005aec <__swsetup_r+0x3c>
 8005acc:	686c      	ldr	r4, [r5, #4]
 8005ace:	89a3      	ldrh	r3, [r4, #12]
 8005ad0:	f9b4 200c 	ldrsh.w	r2, [r4, #12]
 8005ad4:	0719      	lsls	r1, r3, #28
 8005ad6:	d42c      	bmi.n	8005b32 <__swsetup_r+0x82>
 8005ad8:	06dd      	lsls	r5, r3, #27
 8005ada:	d411      	bmi.n	8005b00 <__swsetup_r+0x50>
 8005adc:	2309      	movs	r3, #9
 8005ade:	6033      	str	r3, [r6, #0]
 8005ae0:	f042 0340 	orr.w	r3, r2, #64	; 0x40
 8005ae4:	81a3      	strh	r3, [r4, #12]
 8005ae6:	f04f 30ff 	mov.w	r0, #4294967295
 8005aea:	e03e      	b.n	8005b6a <__swsetup_r+0xba>
 8005aec:	4b25      	ldr	r3, [pc, #148]	; (8005b84 <__swsetup_r+0xd4>)
 8005aee:	429c      	cmp	r4, r3
 8005af0:	d101      	bne.n	8005af6 <__swsetup_r+0x46>
 8005af2:	68ac      	ldr	r4, [r5, #8]
 8005af4:	e7eb      	b.n	8005ace <__swsetup_r+0x1e>
 8005af6:	4b24      	ldr	r3, [pc, #144]	; (8005b88 <__swsetup_r+0xd8>)
 8005af8:	429c      	cmp	r4, r3
 8005afa:	bf08      	it	eq
 8005afc:	68ec      	ldreq	r4, [r5, #12]
 8005afe:	e7e6      	b.n	8005ace <__swsetup_r+0x1e>
 8005b00:	0758      	lsls	r0, r3, #29
 8005b02:	d512      	bpl.n	8005b2a <__swsetup_r+0x7a>
 8005b04:	6b61      	ldr	r1, [r4, #52]	; 0x34
 8005b06:	b141      	cbz	r1, 8005b1a <__swsetup_r+0x6a>
 8005b08:	f104 0344 	add.w	r3, r4, #68	; 0x44
 8005b0c:	4299      	cmp	r1, r3
 8005b0e:	d002      	beq.n	8005b16 <__swsetup_r+0x66>
 8005b10:	4630      	mov	r0, r6
 8005b12:	f7ff fa77 	bl	8005004 <_free_r>
 8005b16:	2300      	movs	r3, #0
 8005b18:	6363      	str	r3, [r4, #52]	; 0x34
 8005b1a:	89a3      	ldrh	r3, [r4, #12]
 8005b1c:	f023 0324 	bic.w	r3, r3, #36	; 0x24
 8005b20:	81a3      	strh	r3, [r4, #12]
 8005b22:	2300      	movs	r3, #0
 8005b24:	6063      	str	r3, [r4, #4]
 8005b26:	6923      	ldr	r3, [r4, #16]
 8005b28:	6023      	str	r3, [r4, #0]
 8005b2a:	89a3      	ldrh	r3, [r4, #12]
 8005b2c:	f043 0308 	orr.w	r3, r3, #8
 8005b30:	81a3      	strh	r3, [r4, #12]
 8005b32:	6923      	ldr	r3, [r4, #16]
 8005b34:	b94b      	cbnz	r3, 8005b4a <__swsetup_r+0x9a>
 8005b36:	89a3      	ldrh	r3, [r4, #12]
 8005b38:	f403 7320 	and.w	r3, r3, #640	; 0x280
 8005b3c:	f5b3 7f00 	cmp.w	r3, #512	; 0x200
 8005b40:	d003      	beq.n	8005b4a <__swsetup_r+0x9a>
 8005b42:	4621      	mov	r1, r4
 8005b44:	4630      	mov	r0, r6
 8005b46:	f000 fa07 	bl	8005f58 <__smakebuf_r>
 8005b4a:	89a0      	ldrh	r0, [r4, #12]
 8005b4c:	f9b4 200c 	ldrsh.w	r2, [r4, #12]
 8005b50:	f010 0301 	ands.w	r3, r0, #1
 8005b54:	d00a      	beq.n	8005b6c <__swsetup_r+0xbc>
 8005b56:	2300      	movs	r3, #0
 8005b58:	60a3      	str	r3, [r4, #8]
 8005b5a:	6963      	ldr	r3, [r4, #20]
 8005b5c:	425b      	negs	r3, r3
 8005b5e:	61a3      	str	r3, [r4, #24]
 8005b60:	6923      	ldr	r3, [r4, #16]
 8005b62:	b943      	cbnz	r3, 8005b76 <__swsetup_r+0xc6>
 8005b64:	f010 0080 	ands.w	r0, r0, #128	; 0x80
 8005b68:	d1ba      	bne.n	8005ae0 <__swsetup_r+0x30>
 8005b6a:	bd70      	pop	{r4, r5, r6, pc}
 8005b6c:	0781      	lsls	r1, r0, #30
 8005b6e:	bf58      	it	pl
 8005b70:	6963      	ldrpl	r3, [r4, #20]
 8005b72:	60a3      	str	r3, [r4, #8]
 8005b74:	e7f4      	b.n	8005b60 <__swsetup_r+0xb0>
 8005b76:	2000      	movs	r0, #0
 8005b78:	e7f7      	b.n	8005b6a <__swsetup_r+0xba>
 8005b7a:	bf00      	nop
 8005b7c:	2000002c 	.word	0x2000002c
 8005b80:	080063e8 	.word	0x080063e8
 8005b84:	08006408 	.word	0x08006408
 8005b88:	080063c8 	.word	0x080063c8

08005b8c <abort>:
 8005b8c:	b508      	push	{r3, lr}
 8005b8e:	2006      	movs	r0, #6
 8005b90:	f000 faa4 	bl	80060dc <raise>
 8005b94:	2001      	movs	r0, #1
 8005b96:	f7fb f877 	bl	8000c88 <_exit>
	...

08005b9c <__sflush_r>:
 8005b9c:	898a      	ldrh	r2, [r1, #12]
 8005b9e:	e92d 41f0 	stmdb	sp!, {r4, r5, r6, r7, r8, lr}
 8005ba2:	4605      	mov	r5, r0
 8005ba4:	0710      	lsls	r0, r2, #28
 8005ba6:	460c      	mov	r4, r1
 8005ba8:	d458      	bmi.n	8005c5c <__sflush_r+0xc0>
 8005baa:	684b      	ldr	r3, [r1, #4]
 8005bac:	2b00      	cmp	r3, #0
 8005bae:	dc05      	bgt.n	8005bbc <__sflush_r+0x20>
 8005bb0:	6c0b      	ldr	r3, [r1, #64]	; 0x40
 8005bb2:	2b00      	cmp	r3, #0
 8005bb4:	dc02      	bgt.n	8005bbc <__sflush_r+0x20>
 8005bb6:	2000      	movs	r0, #0
 8005bb8:	e8bd 81f0 	ldmia.w	sp!, {r4, r5, r6, r7, r8, pc}
 8005bbc:	6ae6      	ldr	r6, [r4, #44]	; 0x2c
 8005bbe:	2e00      	cmp	r6, #0
 8005bc0:	d0f9      	beq.n	8005bb6 <__sflush_r+0x1a>
 8005bc2:	2300      	movs	r3, #0
 8005bc4:	f412 5280 	ands.w	r2, r2, #4096	; 0x1000
 8005bc8:	682f      	ldr	r7, [r5, #0]
 8005bca:	602b      	str	r3, [r5, #0]
 8005bcc:	d032      	beq.n	8005c34 <__sflush_r+0x98>
 8005bce:	6d60      	ldr	r0, [r4, #84]	; 0x54
 8005bd0:	89a3      	ldrh	r3, [r4, #12]
 8005bd2:	075a      	lsls	r2, r3, #29
 8005bd4:	d505      	bpl.n	8005be2 <__sflush_r+0x46>
 8005bd6:	6863      	ldr	r3, [r4, #4]
 8005bd8:	1ac0      	subs	r0, r0, r3
 8005bda:	6b63      	ldr	r3, [r4, #52]	; 0x34
 8005bdc:	b10b      	cbz	r3, 8005be2 <__sflush_r+0x46>
 8005bde:	6c23      	ldr	r3, [r4, #64]	; 0x40
 8005be0:	1ac0      	subs	r0, r0, r3
 8005be2:	2300      	movs	r3, #0
 8005be4:	4602      	mov	r2, r0
 8005be6:	6ae6      	ldr	r6, [r4, #44]	; 0x2c
 8005be8:	6a21      	ldr	r1, [r4, #32]
 8005bea:	4628      	mov	r0, r5
 8005bec:	47b0      	blx	r6
 8005bee:	1c43      	adds	r3, r0, #1
 8005bf0:	89a3      	ldrh	r3, [r4, #12]
 8005bf2:	d106      	bne.n	8005c02 <__sflush_r+0x66>
 8005bf4:	6829      	ldr	r1, [r5, #0]
 8005bf6:	291d      	cmp	r1, #29
 8005bf8:	d82c      	bhi.n	8005c54 <__sflush_r+0xb8>
 8005bfa:	4a2a      	ldr	r2, [pc, #168]	; (8005ca4 <__sflush_r+0x108>)
 8005bfc:	40ca      	lsrs	r2, r1
 8005bfe:	07d6      	lsls	r6, r2, #31
 8005c00:	d528      	bpl.n	8005c54 <__sflush_r+0xb8>
 8005c02:	2200      	movs	r2, #0
 8005c04:	6062      	str	r2, [r4, #4]
 8005c06:	04d9      	lsls	r1, r3, #19
 8005c08:	6922      	ldr	r2, [r4, #16]
 8005c0a:	6022      	str	r2, [r4, #0]
 8005c0c:	d504      	bpl.n	8005c18 <__sflush_r+0x7c>
 8005c0e:	1c42      	adds	r2, r0, #1
 8005c10:	d101      	bne.n	8005c16 <__sflush_r+0x7a>
 8005c12:	682b      	ldr	r3, [r5, #0]
 8005c14:	b903      	cbnz	r3, 8005c18 <__sflush_r+0x7c>
 8005c16:	6560      	str	r0, [r4, #84]	; 0x54
 8005c18:	6b61      	ldr	r1, [r4, #52]	; 0x34
 8005c1a:	602f      	str	r7, [r5, #0]
 8005c1c:	2900      	cmp	r1, #0
 8005c1e:	d0ca      	beq.n	8005bb6 <__sflush_r+0x1a>
 8005c20:	f104 0344 	add.w	r3, r4, #68	; 0x44
 8005c24:	4299      	cmp	r1, r3
 8005c26:	d002      	beq.n	8005c2e <__sflush_r+0x92>
 8005c28:	4628      	mov	r0, r5
 8005c2a:	f7ff f9eb 	bl	8005004 <_free_r>
 8005c2e:	2000      	movs	r0, #0
 8005c30:	6360      	str	r0, [r4, #52]	; 0x34
 8005c32:	e7c1      	b.n	8005bb8 <__sflush_r+0x1c>
 8005c34:	6a21      	ldr	r1, [r4, #32]
 8005c36:	2301      	movs	r3, #1
 8005c38:	4628      	mov	r0, r5
 8005c3a:	47b0      	blx	r6
 8005c3c:	1c41      	adds	r1, r0, #1
 8005c3e:	d1c7      	bne.n	8005bd0 <__sflush_r+0x34>
 8005c40:	682b      	ldr	r3, [r5, #0]
 8005c42:	2b00      	cmp	r3, #0
 8005c44:	d0c4      	beq.n	8005bd0 <__sflush_r+0x34>
 8005c46:	2b1d      	cmp	r3, #29
 8005c48:	d001      	beq.n	8005c4e <__sflush_r+0xb2>
 8005c4a:	2b16      	cmp	r3, #22
 8005c4c:	d101      	bne.n	8005c52 <__sflush_r+0xb6>
 8005c4e:	602f      	str	r7, [r5, #0]
 8005c50:	e7b1      	b.n	8005bb6 <__sflush_r+0x1a>
 8005c52:	89a3      	ldrh	r3, [r4, #12]
 8005c54:	f043 0340 	orr.w	r3, r3, #64	; 0x40
 8005c58:	81a3      	strh	r3, [r4, #12]
 8005c5a:	e7ad      	b.n	8005bb8 <__sflush_r+0x1c>
 8005c5c:	690f      	ldr	r7, [r1, #16]
 8005c5e:	2f00      	cmp	r7, #0
 8005c60:	d0a9      	beq.n	8005bb6 <__sflush_r+0x1a>
 8005c62:	0793      	lsls	r3, r2, #30
 8005c64:	680e      	ldr	r6, [r1, #0]
 8005c66:	bf08      	it	eq
 8005c68:	694b      	ldreq	r3, [r1, #20]
 8005c6a:	600f      	str	r7, [r1, #0]
 8005c6c:	bf18      	it	ne
 8005c6e:	2300      	movne	r3, #0
 8005c70:	eba6 0807 	sub.w	r8, r6, r7
 8005c74:	608b      	str	r3, [r1, #8]
 8005c76:	f1b8 0f00 	cmp.w	r8, #0
 8005c7a:	dd9c      	ble.n	8005bb6 <__sflush_r+0x1a>
 8005c7c:	6a21      	ldr	r1, [r4, #32]
 8005c7e:	6aa6      	ldr	r6, [r4, #40]	; 0x28
 8005c80:	4643      	mov	r3, r8
 8005c82:	463a      	mov	r2, r7
 8005c84:	4628      	mov	r0, r5
 8005c86:	47b0      	blx	r6
 8005c88:	2800      	cmp	r0, #0
 8005c8a:	dc06      	bgt.n	8005c9a <__sflush_r+0xfe>
 8005c8c:	89a3      	ldrh	r3, [r4, #12]
 8005c8e:	f043 0340 	orr.w	r3, r3, #64	; 0x40
 8005c92:	81a3      	strh	r3, [r4, #12]
 8005c94:	f04f 30ff 	mov.w	r0, #4294967295
 8005c98:	e78e      	b.n	8005bb8 <__sflush_r+0x1c>
 8005c9a:	4407      	add	r7, r0
 8005c9c:	eba8 0800 	sub.w	r8, r8, r0
 8005ca0:	e7e9      	b.n	8005c76 <__sflush_r+0xda>
 8005ca2:	bf00      	nop
 8005ca4:	20400001 	.word	0x20400001

08005ca8 <_fflush_r>:
 8005ca8:	b538      	push	{r3, r4, r5, lr}
 8005caa:	690b      	ldr	r3, [r1, #16]
 8005cac:	4605      	mov	r5, r0
 8005cae:	460c      	mov	r4, r1
 8005cb0:	b913      	cbnz	r3, 8005cb8 <_fflush_r+0x10>
 8005cb2:	2500      	movs	r5, #0
 8005cb4:	4628      	mov	r0, r5
 8005cb6:	bd38      	pop	{r3, r4, r5, pc}
 8005cb8:	b118      	cbz	r0, 8005cc2 <_fflush_r+0x1a>
 8005cba:	6983      	ldr	r3, [r0, #24]
 8005cbc:	b90b      	cbnz	r3, 8005cc2 <_fflush_r+0x1a>
 8005cbe:	f000 f887 	bl	8005dd0 <__sinit>
 8005cc2:	4b14      	ldr	r3, [pc, #80]	; (8005d14 <_fflush_r+0x6c>)
 8005cc4:	429c      	cmp	r4, r3
 8005cc6:	d11b      	bne.n	8005d00 <_fflush_r+0x58>
 8005cc8:	686c      	ldr	r4, [r5, #4]
 8005cca:	f9b4 300c 	ldrsh.w	r3, [r4, #12]
 8005cce:	2b00      	cmp	r3, #0
 8005cd0:	d0ef      	beq.n	8005cb2 <_fflush_r+0xa>
 8005cd2:	6e62      	ldr	r2, [r4, #100]	; 0x64
 8005cd4:	07d0      	lsls	r0, r2, #31
 8005cd6:	d404      	bmi.n	8005ce2 <_fflush_r+0x3a>
 8005cd8:	0599      	lsls	r1, r3, #22
 8005cda:	d402      	bmi.n	8005ce2 <_fflush_r+0x3a>
 8005cdc:	6da0      	ldr	r0, [r4, #88]	; 0x58
 8005cde:	f000 f915 	bl	8005f0c <__retarget_lock_acquire_recursive>
 8005ce2:	4628      	mov	r0, r5
 8005ce4:	4621      	mov	r1, r4
 8005ce6:	f7ff ff59 	bl	8005b9c <__sflush_r>
 8005cea:	6e63      	ldr	r3, [r4, #100]	; 0x64
 8005cec:	07da      	lsls	r2, r3, #31
 8005cee:	4605      	mov	r5, r0
 8005cf0:	d4e0      	bmi.n	8005cb4 <_fflush_r+0xc>
 8005cf2:	89a3      	ldrh	r3, [r4, #12]
 8005cf4:	059b      	lsls	r3, r3, #22
 8005cf6:	d4dd      	bmi.n	8005cb4 <_fflush_r+0xc>
 8005cf8:	6da0      	ldr	r0, [r4, #88]	; 0x58
 8005cfa:	f000 f908 	bl	8005f0e <__retarget_lock_release_recursive>
 8005cfe:	e7d9      	b.n	8005cb4 <_fflush_r+0xc>
 8005d00:	4b05      	ldr	r3, [pc, #20]	; (8005d18 <_fflush_r+0x70>)
 8005d02:	429c      	cmp	r4, r3
 8005d04:	d101      	bne.n	8005d0a <_fflush_r+0x62>
 8005d06:	68ac      	ldr	r4, [r5, #8]
 8005d08:	e7df      	b.n	8005cca <_fflush_r+0x22>
 8005d0a:	4b04      	ldr	r3, [pc, #16]	; (8005d1c <_fflush_r+0x74>)
 8005d0c:	429c      	cmp	r4, r3
 8005d0e:	bf08      	it	eq
 8005d10:	68ec      	ldreq	r4, [r5, #12]
 8005d12:	e7da      	b.n	8005cca <_fflush_r+0x22>
 8005d14:	080063e8 	.word	0x080063e8
 8005d18:	08006408 	.word	0x08006408
 8005d1c:	080063c8 	.word	0x080063c8

08005d20 <std>:
 8005d20:	2300      	movs	r3, #0
 8005d22:	b510      	push	{r4, lr}
 8005d24:	4604      	mov	r4, r0
 8005d26:	e9c0 3300 	strd	r3, r3, [r0]
 8005d2a:	e9c0 3304 	strd	r3, r3, [r0, #16]
 8005d2e:	6083      	str	r3, [r0, #8]
 8005d30:	8181      	strh	r1, [r0, #12]
 8005d32:	6643      	str	r3, [r0, #100]	; 0x64
 8005d34:	81c2      	strh	r2, [r0, #14]
 8005d36:	6183      	str	r3, [r0, #24]
 8005d38:	4619      	mov	r1, r3
 8005d3a:	2208      	movs	r2, #8
 8005d3c:	305c      	adds	r0, #92	; 0x5c
 8005d3e:	f7ff f8a5 	bl	8004e8c <memset>
 8005d42:	4b05      	ldr	r3, [pc, #20]	; (8005d58 <std+0x38>)
 8005d44:	6263      	str	r3, [r4, #36]	; 0x24
 8005d46:	4b05      	ldr	r3, [pc, #20]	; (8005d5c <std+0x3c>)
 8005d48:	62a3      	str	r3, [r4, #40]	; 0x28
 8005d4a:	4b05      	ldr	r3, [pc, #20]	; (8005d60 <std+0x40>)
 8005d4c:	62e3      	str	r3, [r4, #44]	; 0x2c
 8005d4e:	4b05      	ldr	r3, [pc, #20]	; (8005d64 <std+0x44>)
 8005d50:	6224      	str	r4, [r4, #32]
 8005d52:	6323      	str	r3, [r4, #48]	; 0x30
 8005d54:	bd10      	pop	{r4, pc}
 8005d56:	bf00      	nop
 8005d58:	08006115 	.word	0x08006115
 8005d5c:	08006137 	.word	0x08006137
 8005d60:	0800616f 	.word	0x0800616f
 8005d64:	08006193 	.word	0x08006193

08005d68 <_cleanup_r>:
 8005d68:	4901      	ldr	r1, [pc, #4]	; (8005d70 <_cleanup_r+0x8>)
 8005d6a:	f000 b8af 	b.w	8005ecc <_fwalk_reent>
 8005d6e:	bf00      	nop
 8005d70:	08005ca9 	.word	0x08005ca9

08005d74 <__sfmoreglue>:
 8005d74:	b570      	push	{r4, r5, r6, lr}
 8005d76:	1e4a      	subs	r2, r1, #1
 8005d78:	2568      	movs	r5, #104	; 0x68
 8005d7a:	4355      	muls	r5, r2
 8005d7c:	460e      	mov	r6, r1
 8005d7e:	f105 0174 	add.w	r1, r5, #116	; 0x74
 8005d82:	f7ff f98f 	bl	80050a4 <_malloc_r>
 8005d86:	4604      	mov	r4, r0
 8005d88:	b140      	cbz	r0, 8005d9c <__sfmoreglue+0x28>
 8005d8a:	2100      	movs	r1, #0
 8005d8c:	e9c0 1600 	strd	r1, r6, [r0]
 8005d90:	300c      	adds	r0, #12
 8005d92:	60a0      	str	r0, [r4, #8]
 8005d94:	f105 0268 	add.w	r2, r5, #104	; 0x68
 8005d98:	f7ff f878 	bl	8004e8c <memset>
 8005d9c:	4620      	mov	r0, r4
 8005d9e:	bd70      	pop	{r4, r5, r6, pc}

08005da0 <__sfp_lock_acquire>:
 8005da0:	4801      	ldr	r0, [pc, #4]	; (8005da8 <__sfp_lock_acquire+0x8>)
 8005da2:	f000 b8b3 	b.w	8005f0c <__retarget_lock_acquire_recursive>
 8005da6:	bf00      	nop
 8005da8:	20013078 	.word	0x20013078

08005dac <__sfp_lock_release>:
 8005dac:	4801      	ldr	r0, [pc, #4]	; (8005db4 <__sfp_lock_release+0x8>)
 8005dae:	f000 b8ae 	b.w	8005f0e <__retarget_lock_release_recursive>
 8005db2:	bf00      	nop
 8005db4:	20013078 	.word	0x20013078

08005db8 <__sinit_lock_acquire>:
 8005db8:	4801      	ldr	r0, [pc, #4]	; (8005dc0 <__sinit_lock_acquire+0x8>)
 8005dba:	f000 b8a7 	b.w	8005f0c <__retarget_lock_acquire_recursive>
 8005dbe:	bf00      	nop
 8005dc0:	20013073 	.word	0x20013073

08005dc4 <__sinit_lock_release>:
 8005dc4:	4801      	ldr	r0, [pc, #4]	; (8005dcc <__sinit_lock_release+0x8>)
 8005dc6:	f000 b8a2 	b.w	8005f0e <__retarget_lock_release_recursive>
 8005dca:	bf00      	nop
 8005dcc:	20013073 	.word	0x20013073

08005dd0 <__sinit>:
 8005dd0:	b510      	push	{r4, lr}
 8005dd2:	4604      	mov	r4, r0
 8005dd4:	f7ff fff0 	bl	8005db8 <__sinit_lock_acquire>
 8005dd8:	69a3      	ldr	r3, [r4, #24]
 8005dda:	b11b      	cbz	r3, 8005de4 <__sinit+0x14>
 8005ddc:	e8bd 4010 	ldmia.w	sp!, {r4, lr}
 8005de0:	f7ff bff0 	b.w	8005dc4 <__sinit_lock_release>
 8005de4:	e9c4 3312 	strd	r3, r3, [r4, #72]	; 0x48
 8005de8:	6523      	str	r3, [r4, #80]	; 0x50
 8005dea:	4b13      	ldr	r3, [pc, #76]	; (8005e38 <__sinit+0x68>)
 8005dec:	4a13      	ldr	r2, [pc, #76]	; (8005e3c <__sinit+0x6c>)
 8005dee:	681b      	ldr	r3, [r3, #0]
 8005df0:	62a2      	str	r2, [r4, #40]	; 0x28
 8005df2:	42a3      	cmp	r3, r4
 8005df4:	bf04      	itt	eq
 8005df6:	2301      	moveq	r3, #1
 8005df8:	61a3      	streq	r3, [r4, #24]
 8005dfa:	4620      	mov	r0, r4
 8005dfc:	f000 f820 	bl	8005e40 <__sfp>
 8005e00:	6060      	str	r0, [r4, #4]
 8005e02:	4620      	mov	r0, r4
 8005e04:	f000 f81c 	bl	8005e40 <__sfp>
 8005e08:	60a0      	str	r0, [r4, #8]
 8005e0a:	4620      	mov	r0, r4
 8005e0c:	f000 f818 	bl	8005e40 <__sfp>
 8005e10:	2200      	movs	r2, #0
 8005e12:	60e0      	str	r0, [r4, #12]
 8005e14:	2104      	movs	r1, #4
 8005e16:	6860      	ldr	r0, [r4, #4]
 8005e18:	f7ff ff82 	bl	8005d20 <std>
 8005e1c:	68a0      	ldr	r0, [r4, #8]
 8005e1e:	2201      	movs	r2, #1
 8005e20:	2109      	movs	r1, #9
 8005e22:	f7ff ff7d 	bl	8005d20 <std>
 8005e26:	68e0      	ldr	r0, [r4, #12]
 8005e28:	2202      	movs	r2, #2
 8005e2a:	2112      	movs	r1, #18
 8005e2c:	f7ff ff78 	bl	8005d20 <std>
 8005e30:	2301      	movs	r3, #1
 8005e32:	61a3      	str	r3, [r4, #24]
 8005e34:	e7d2      	b.n	8005ddc <__sinit+0xc>
 8005e36:	bf00      	nop
 8005e38:	080062dc 	.word	0x080062dc
 8005e3c:	08005d69 	.word	0x08005d69

08005e40 <__sfp>:
 8005e40:	b5f8      	push	{r3, r4, r5, r6, r7, lr}
 8005e42:	4607      	mov	r7, r0
 8005e44:	f7ff ffac 	bl	8005da0 <__sfp_lock_acquire>
 8005e48:	4b1e      	ldr	r3, [pc, #120]	; (8005ec4 <__sfp+0x84>)
 8005e4a:	681e      	ldr	r6, [r3, #0]
 8005e4c:	69b3      	ldr	r3, [r6, #24]
 8005e4e:	b913      	cbnz	r3, 8005e56 <__sfp+0x16>
 8005e50:	4630      	mov	r0, r6
 8005e52:	f7ff ffbd 	bl	8005dd0 <__sinit>
 8005e56:	3648      	adds	r6, #72	; 0x48
 8005e58:	e9d6 3401 	ldrd	r3, r4, [r6, #4]
 8005e5c:	3b01      	subs	r3, #1
 8005e5e:	d503      	bpl.n	8005e68 <__sfp+0x28>
 8005e60:	6833      	ldr	r3, [r6, #0]
 8005e62:	b30b      	cbz	r3, 8005ea8 <__sfp+0x68>
 8005e64:	6836      	ldr	r6, [r6, #0]
 8005e66:	e7f7      	b.n	8005e58 <__sfp+0x18>
 8005e68:	f9b4 500c 	ldrsh.w	r5, [r4, #12]
 8005e6c:	b9d5      	cbnz	r5, 8005ea4 <__sfp+0x64>
 8005e6e:	4b16      	ldr	r3, [pc, #88]	; (8005ec8 <__sfp+0x88>)
 8005e70:	60e3      	str	r3, [r4, #12]
 8005e72:	f104 0058 	add.w	r0, r4, #88	; 0x58
 8005e76:	6665      	str	r5, [r4, #100]	; 0x64
 8005e78:	f000 f847 	bl	8005f0a <__retarget_lock_init_recursive>
 8005e7c:	f7ff ff96 	bl	8005dac <__sfp_lock_release>
 8005e80:	e9c4 5501 	strd	r5, r5, [r4, #4]
 8005e84:	e9c4 5504 	strd	r5, r5, [r4, #16]
 8005e88:	6025      	str	r5, [r4, #0]
 8005e8a:	61a5      	str	r5, [r4, #24]
 8005e8c:	2208      	movs	r2, #8
 8005e8e:	4629      	mov	r1, r5
 8005e90:	f104 005c 	add.w	r0, r4, #92	; 0x5c
 8005e94:	f7fe fffa 	bl	8004e8c <memset>
 8005e98:	e9c4 550d 	strd	r5, r5, [r4, #52]	; 0x34
 8005e9c:	e9c4 5512 	strd	r5, r5, [r4, #72]	; 0x48
 8005ea0:	4620      	mov	r0, r4
 8005ea2:	bdf8      	pop	{r3, r4, r5, r6, r7, pc}
 8005ea4:	3468      	adds	r4, #104	; 0x68
 8005ea6:	e7d9      	b.n	8005e5c <__sfp+0x1c>
 8005ea8:	2104      	movs	r1, #4
 8005eaa:	4638      	mov	r0, r7
 8005eac:	f7ff ff62 	bl	8005d74 <__sfmoreglue>
 8005eb0:	4604      	mov	r4, r0
 8005eb2:	6030      	str	r0, [r6, #0]
 8005eb4:	2800      	cmp	r0, #0
 8005eb6:	d1d5      	bne.n	8005e64 <__sfp+0x24>
 8005eb8:	f7ff ff78 	bl	8005dac <__sfp_lock_release>
 8005ebc:	230c      	movs	r3, #12
 8005ebe:	603b      	str	r3, [r7, #0]
 8005ec0:	e7ee      	b.n	8005ea0 <__sfp+0x60>
 8005ec2:	bf00      	nop
 8005ec4:	080062dc 	.word	0x080062dc
 8005ec8:	ffff0001 	.word	0xffff0001

08005ecc <_fwalk_reent>:
 8005ecc:	e92d 43f8 	stmdb	sp!, {r3, r4, r5, r6, r7, r8, r9, lr}
 8005ed0:	4606      	mov	r6, r0
 8005ed2:	4688      	mov	r8, r1
 8005ed4:	f100 0448 	add.w	r4, r0, #72	; 0x48
 8005ed8:	2700      	movs	r7, #0
 8005eda:	e9d4 9501 	ldrd	r9, r5, [r4, #4]
 8005ede:	f1b9 0901 	subs.w	r9, r9, #1
 8005ee2:	d505      	bpl.n	8005ef0 <_fwalk_reent+0x24>
 8005ee4:	6824      	ldr	r4, [r4, #0]
 8005ee6:	2c00      	cmp	r4, #0
 8005ee8:	d1f7      	bne.n	8005eda <_fwalk_reent+0xe>
 8005eea:	4638      	mov	r0, r7
 8005eec:	e8bd 83f8 	ldmia.w	sp!, {r3, r4, r5, r6, r7, r8, r9, pc}
 8005ef0:	89ab      	ldrh	r3, [r5, #12]
 8005ef2:	2b01      	cmp	r3, #1
 8005ef4:	d907      	bls.n	8005f06 <_fwalk_reent+0x3a>
 8005ef6:	f9b5 300e 	ldrsh.w	r3, [r5, #14]
 8005efa:	3301      	adds	r3, #1
 8005efc:	d003      	beq.n	8005f06 <_fwalk_reent+0x3a>
 8005efe:	4629      	mov	r1, r5
 8005f00:	4630      	mov	r0, r6
 8005f02:	47c0      	blx	r8
 8005f04:	4307      	orrs	r7, r0
 8005f06:	3568      	adds	r5, #104	; 0x68
 8005f08:	e7e9      	b.n	8005ede <_fwalk_reent+0x12>

08005f0a <__retarget_lock_init_recursive>:
 8005f0a:	4770      	bx	lr

08005f0c <__retarget_lock_acquire_recursive>:
 8005f0c:	4770      	bx	lr

08005f0e <__retarget_lock_release_recursive>:
 8005f0e:	4770      	bx	lr

08005f10 <__swhatbuf_r>:
 8005f10:	b570      	push	{r4, r5, r6, lr}
 8005f12:	460e      	mov	r6, r1
 8005f14:	f9b1 100e 	ldrsh.w	r1, [r1, #14]
 8005f18:	2900      	cmp	r1, #0
 8005f1a:	b096      	sub	sp, #88	; 0x58
 8005f1c:	4614      	mov	r4, r2
 8005f1e:	461d      	mov	r5, r3
 8005f20:	da07      	bge.n	8005f32 <__swhatbuf_r+0x22>
 8005f22:	2300      	movs	r3, #0
 8005f24:	602b      	str	r3, [r5, #0]
 8005f26:	89b3      	ldrh	r3, [r6, #12]
 8005f28:	061a      	lsls	r2, r3, #24
 8005f2a:	d410      	bmi.n	8005f4e <__swhatbuf_r+0x3e>
 8005f2c:	f44f 6380 	mov.w	r3, #1024	; 0x400
 8005f30:	e00e      	b.n	8005f50 <__swhatbuf_r+0x40>
 8005f32:	466a      	mov	r2, sp
 8005f34:	f000 f954 	bl	80061e0 <_fstat_r>
 8005f38:	2800      	cmp	r0, #0
 8005f3a:	dbf2      	blt.n	8005f22 <__swhatbuf_r+0x12>
 8005f3c:	9a01      	ldr	r2, [sp, #4]
 8005f3e:	f402 4270 	and.w	r2, r2, #61440	; 0xf000
 8005f42:	f5a2 5300 	sub.w	r3, r2, #8192	; 0x2000
 8005f46:	425a      	negs	r2, r3
 8005f48:	415a      	adcs	r2, r3
 8005f4a:	602a      	str	r2, [r5, #0]
 8005f4c:	e7ee      	b.n	8005f2c <__swhatbuf_r+0x1c>
 8005f4e:	2340      	movs	r3, #64	; 0x40
 8005f50:	2000      	movs	r0, #0
 8005f52:	6023      	str	r3, [r4, #0]
 8005f54:	b016      	add	sp, #88	; 0x58
 8005f56:	bd70      	pop	{r4, r5, r6, pc}

08005f58 <__smakebuf_r>:
 8005f58:	898b      	ldrh	r3, [r1, #12]
 8005f5a:	b573      	push	{r0, r1, r4, r5, r6, lr}
 8005f5c:	079d      	lsls	r5, r3, #30
 8005f5e:	4606      	mov	r6, r0
 8005f60:	460c      	mov	r4, r1
 8005f62:	d507      	bpl.n	8005f74 <__smakebuf_r+0x1c>
 8005f64:	f104 0347 	add.w	r3, r4, #71	; 0x47
 8005f68:	6023      	str	r3, [r4, #0]
 8005f6a:	6123      	str	r3, [r4, #16]
 8005f6c:	2301      	movs	r3, #1
 8005f6e:	6163      	str	r3, [r4, #20]
 8005f70:	b002      	add	sp, #8
 8005f72:	bd70      	pop	{r4, r5, r6, pc}
 8005f74:	ab01      	add	r3, sp, #4
 8005f76:	466a      	mov	r2, sp
 8005f78:	f7ff ffca 	bl	8005f10 <__swhatbuf_r>
 8005f7c:	9900      	ldr	r1, [sp, #0]
 8005f7e:	4605      	mov	r5, r0
 8005f80:	4630      	mov	r0, r6
 8005f82:	f7ff f88f 	bl	80050a4 <_malloc_r>
 8005f86:	b948      	cbnz	r0, 8005f9c <__smakebuf_r+0x44>
 8005f88:	f9b4 300c 	ldrsh.w	r3, [r4, #12]
 8005f8c:	059a      	lsls	r2, r3, #22
 8005f8e:	d4ef      	bmi.n	8005f70 <__smakebuf_r+0x18>
 8005f90:	f023 0303 	bic.w	r3, r3, #3
 8005f94:	f043 0302 	orr.w	r3, r3, #2
 8005f98:	81a3      	strh	r3, [r4, #12]
 8005f9a:	e7e3      	b.n	8005f64 <__smakebuf_r+0xc>
 8005f9c:	4b0d      	ldr	r3, [pc, #52]	; (8005fd4 <__smakebuf_r+0x7c>)
 8005f9e:	62b3      	str	r3, [r6, #40]	; 0x28
 8005fa0:	89a3      	ldrh	r3, [r4, #12]
 8005fa2:	6020      	str	r0, [r4, #0]
 8005fa4:	f043 0380 	orr.w	r3, r3, #128	; 0x80
 8005fa8:	81a3      	strh	r3, [r4, #12]
 8005faa:	9b00      	ldr	r3, [sp, #0]
 8005fac:	6163      	str	r3, [r4, #20]
 8005fae:	9b01      	ldr	r3, [sp, #4]
 8005fb0:	6120      	str	r0, [r4, #16]
 8005fb2:	b15b      	cbz	r3, 8005fcc <__smakebuf_r+0x74>
 8005fb4:	f9b4 100e 	ldrsh.w	r1, [r4, #14]
 8005fb8:	4630      	mov	r0, r6
 8005fba:	f000 f923 	bl	8006204 <_isatty_r>
 8005fbe:	b128      	cbz	r0, 8005fcc <__smakebuf_r+0x74>
 8005fc0:	89a3      	ldrh	r3, [r4, #12]
 8005fc2:	f023 0303 	bic.w	r3, r3, #3
 8005fc6:	f043 0301 	orr.w	r3, r3, #1
 8005fca:	81a3      	strh	r3, [r4, #12]
 8005fcc:	89a0      	ldrh	r0, [r4, #12]
 8005fce:	4305      	orrs	r5, r0
 8005fd0:	81a5      	strh	r5, [r4, #12]
 8005fd2:	e7cd      	b.n	8005f70 <__smakebuf_r+0x18>
 8005fd4:	08005d69 	.word	0x08005d69

08005fd8 <memcpy>:
 8005fd8:	440a      	add	r2, r1
 8005fda:	4291      	cmp	r1, r2
 8005fdc:	f100 33ff 	add.w	r3, r0, #4294967295
 8005fe0:	d100      	bne.n	8005fe4 <memcpy+0xc>
 8005fe2:	4770      	bx	lr
 8005fe4:	b510      	push	{r4, lr}
 8005fe6:	f811 4b01 	ldrb.w	r4, [r1], #1
 8005fea:	f803 4f01 	strb.w	r4, [r3, #1]!
 8005fee:	4291      	cmp	r1, r2
 8005ff0:	d1f9      	bne.n	8005fe6 <memcpy+0xe>
 8005ff2:	bd10      	pop	{r4, pc}

08005ff4 <memmove>:
 8005ff4:	4288      	cmp	r0, r1
 8005ff6:	b510      	push	{r4, lr}
 8005ff8:	eb01 0402 	add.w	r4, r1, r2
 8005ffc:	d902      	bls.n	8006004 <memmove+0x10>
 8005ffe:	4284      	cmp	r4, r0
 8006000:	4623      	mov	r3, r4
 8006002:	d807      	bhi.n	8006014 <memmove+0x20>
 8006004:	1e43      	subs	r3, r0, #1
 8006006:	42a1      	cmp	r1, r4
 8006008:	d008      	beq.n	800601c <memmove+0x28>
 800600a:	f811 2b01 	ldrb.w	r2, [r1], #1
 800600e:	f803 2f01 	strb.w	r2, [r3, #1]!
 8006012:	e7f8      	b.n	8006006 <memmove+0x12>
 8006014:	4402      	add	r2, r0
 8006016:	4601      	mov	r1, r0
 8006018:	428a      	cmp	r2, r1
 800601a:	d100      	bne.n	800601e <memmove+0x2a>
 800601c:	bd10      	pop	{r4, pc}
 800601e:	f813 4d01 	ldrb.w	r4, [r3, #-1]!
 8006022:	f802 4d01 	strb.w	r4, [r2, #-1]!
 8006026:	e7f7      	b.n	8006018 <memmove+0x24>

08006028 <__malloc_lock>:
 8006028:	4801      	ldr	r0, [pc, #4]	; (8006030 <__malloc_lock+0x8>)
 800602a:	f7ff bf6f 	b.w	8005f0c <__retarget_lock_acquire_recursive>
 800602e:	bf00      	nop
 8006030:	20013074 	.word	0x20013074

08006034 <__malloc_unlock>:
 8006034:	4801      	ldr	r0, [pc, #4]	; (800603c <__malloc_unlock+0x8>)
 8006036:	f7ff bf6a 	b.w	8005f0e <__retarget_lock_release_recursive>
 800603a:	bf00      	nop
 800603c:	20013074 	.word	0x20013074

08006040 <_realloc_r>:
 8006040:	b5f8      	push	{r3, r4, r5, r6, r7, lr}
 8006042:	4607      	mov	r7, r0
 8006044:	4614      	mov	r4, r2
 8006046:	460e      	mov	r6, r1
 8006048:	b921      	cbnz	r1, 8006054 <_realloc_r+0x14>
 800604a:	e8bd 40f8 	ldmia.w	sp!, {r3, r4, r5, r6, r7, lr}
 800604e:	4611      	mov	r1, r2
 8006050:	f7ff b828 	b.w	80050a4 <_malloc_r>
 8006054:	b922      	cbnz	r2, 8006060 <_realloc_r+0x20>
 8006056:	f7fe ffd5 	bl	8005004 <_free_r>
 800605a:	4625      	mov	r5, r4
 800605c:	4628      	mov	r0, r5
 800605e:	bdf8      	pop	{r3, r4, r5, r6, r7, pc}
 8006060:	f000 f8f2 	bl	8006248 <_malloc_usable_size_r>
 8006064:	42a0      	cmp	r0, r4
 8006066:	d20f      	bcs.n	8006088 <_realloc_r+0x48>
 8006068:	4621      	mov	r1, r4
 800606a:	4638      	mov	r0, r7
 800606c:	f7ff f81a 	bl	80050a4 <_malloc_r>
 8006070:	4605      	mov	r5, r0
 8006072:	2800      	cmp	r0, #0
 8006074:	d0f2      	beq.n	800605c <_realloc_r+0x1c>
 8006076:	4631      	mov	r1, r6
 8006078:	4622      	mov	r2, r4
 800607a:	f7ff ffad 	bl	8005fd8 <memcpy>
 800607e:	4631      	mov	r1, r6
 8006080:	4638      	mov	r0, r7
 8006082:	f7fe ffbf 	bl	8005004 <_free_r>
 8006086:	e7e9      	b.n	800605c <_realloc_r+0x1c>
 8006088:	4635      	mov	r5, r6
 800608a:	e7e7      	b.n	800605c <_realloc_r+0x1c>

0800608c <_raise_r>:
 800608c:	291f      	cmp	r1, #31
 800608e:	b538      	push	{r3, r4, r5, lr}
 8006090:	4604      	mov	r4, r0
 8006092:	460d      	mov	r5, r1
 8006094:	d904      	bls.n	80060a0 <_raise_r+0x14>
 8006096:	2316      	movs	r3, #22
 8006098:	6003      	str	r3, [r0, #0]
 800609a:	f04f 30ff 	mov.w	r0, #4294967295
 800609e:	bd38      	pop	{r3, r4, r5, pc}
 80060a0:	6c42      	ldr	r2, [r0, #68]	; 0x44
 80060a2:	b112      	cbz	r2, 80060aa <_raise_r+0x1e>
 80060a4:	f852 3021 	ldr.w	r3, [r2, r1, lsl #2]
 80060a8:	b94b      	cbnz	r3, 80060be <_raise_r+0x32>
 80060aa:	4620      	mov	r0, r4
 80060ac:	f000 f830 	bl	8006110 <_getpid_r>
 80060b0:	462a      	mov	r2, r5
 80060b2:	4601      	mov	r1, r0
 80060b4:	4620      	mov	r0, r4
 80060b6:	e8bd 4038 	ldmia.w	sp!, {r3, r4, r5, lr}
 80060ba:	f000 b817 	b.w	80060ec <_kill_r>
 80060be:	2b01      	cmp	r3, #1
 80060c0:	d00a      	beq.n	80060d8 <_raise_r+0x4c>
 80060c2:	1c59      	adds	r1, r3, #1
 80060c4:	d103      	bne.n	80060ce <_raise_r+0x42>
 80060c6:	2316      	movs	r3, #22
 80060c8:	6003      	str	r3, [r0, #0]
 80060ca:	2001      	movs	r0, #1
 80060cc:	e7e7      	b.n	800609e <_raise_r+0x12>
 80060ce:	2400      	movs	r4, #0
 80060d0:	f842 4025 	str.w	r4, [r2, r5, lsl #2]
 80060d4:	4628      	mov	r0, r5
 80060d6:	4798      	blx	r3
 80060d8:	2000      	movs	r0, #0
 80060da:	e7e0      	b.n	800609e <_raise_r+0x12>

080060dc <raise>:
 80060dc:	4b02      	ldr	r3, [pc, #8]	; (80060e8 <raise+0xc>)
 80060de:	4601      	mov	r1, r0
 80060e0:	6818      	ldr	r0, [r3, #0]
 80060e2:	f7ff bfd3 	b.w	800608c <_raise_r>
 80060e6:	bf00      	nop
 80060e8:	2000002c 	.word	0x2000002c

080060ec <_kill_r>:
 80060ec:	b538      	push	{r3, r4, r5, lr}
 80060ee:	4d07      	ldr	r5, [pc, #28]	; (800610c <_kill_r+0x20>)
 80060f0:	2300      	movs	r3, #0
 80060f2:	4604      	mov	r4, r0
 80060f4:	4608      	mov	r0, r1
 80060f6:	4611      	mov	r1, r2
 80060f8:	602b      	str	r3, [r5, #0]
 80060fa:	f7fa fdb5 	bl	8000c68 <_kill>
 80060fe:	1c43      	adds	r3, r0, #1
 8006100:	d102      	bne.n	8006108 <_kill_r+0x1c>
 8006102:	682b      	ldr	r3, [r5, #0]
 8006104:	b103      	cbz	r3, 8006108 <_kill_r+0x1c>
 8006106:	6023      	str	r3, [r4, #0]
 8006108:	bd38      	pop	{r3, r4, r5, pc}
 800610a:	bf00      	nop
 800610c:	2001307c 	.word	0x2001307c

08006110 <_getpid_r>:
 8006110:	f7fa bda2 	b.w	8000c58 <_getpid>

08006114 <__sread>:
 8006114:	b510      	push	{r4, lr}
 8006116:	460c      	mov	r4, r1
 8006118:	f9b1 100e 	ldrsh.w	r1, [r1, #14]
 800611c:	f000 f89c 	bl	8006258 <_read_r>
 8006120:	2800      	cmp	r0, #0
 8006122:	bfab      	itete	ge
 8006124:	6d63      	ldrge	r3, [r4, #84]	; 0x54
 8006126:	89a3      	ldrhlt	r3, [r4, #12]
 8006128:	181b      	addge	r3, r3, r0
 800612a:	f423 5380 	biclt.w	r3, r3, #4096	; 0x1000
 800612e:	bfac      	ite	ge
 8006130:	6563      	strge	r3, [r4, #84]	; 0x54
 8006132:	81a3      	strhlt	r3, [r4, #12]
 8006134:	bd10      	pop	{r4, pc}

08006136 <__swrite>:
 8006136:	e92d 41f0 	stmdb	sp!, {r4, r5, r6, r7, r8, lr}
 800613a:	461f      	mov	r7, r3
 800613c:	898b      	ldrh	r3, [r1, #12]
 800613e:	05db      	lsls	r3, r3, #23
 8006140:	4605      	mov	r5, r0
 8006142:	460c      	mov	r4, r1
 8006144:	4616      	mov	r6, r2
 8006146:	d505      	bpl.n	8006154 <__swrite+0x1e>
 8006148:	f9b1 100e 	ldrsh.w	r1, [r1, #14]
 800614c:	2302      	movs	r3, #2
 800614e:	2200      	movs	r2, #0
 8006150:	f000 f868 	bl	8006224 <_lseek_r>
 8006154:	89a3      	ldrh	r3, [r4, #12]
 8006156:	f9b4 100e 	ldrsh.w	r1, [r4, #14]
 800615a:	f423 5380 	bic.w	r3, r3, #4096	; 0x1000
 800615e:	81a3      	strh	r3, [r4, #12]
 8006160:	4632      	mov	r2, r6
 8006162:	463b      	mov	r3, r7
 8006164:	4628      	mov	r0, r5
 8006166:	e8bd 41f0 	ldmia.w	sp!, {r4, r5, r6, r7, r8, lr}
 800616a:	f000 b817 	b.w	800619c <_write_r>

0800616e <__sseek>:
 800616e:	b510      	push	{r4, lr}
 8006170:	460c      	mov	r4, r1
 8006172:	f9b1 100e 	ldrsh.w	r1, [r1, #14]
 8006176:	f000 f855 	bl	8006224 <_lseek_r>
 800617a:	1c43      	adds	r3, r0, #1
 800617c:	89a3      	ldrh	r3, [r4, #12]
 800617e:	bf15      	itete	ne
 8006180:	6560      	strne	r0, [r4, #84]	; 0x54
 8006182:	f423 5380 	biceq.w	r3, r3, #4096	; 0x1000
 8006186:	f443 5380 	orrne.w	r3, r3, #4096	; 0x1000
 800618a:	81a3      	strheq	r3, [r4, #12]
 800618c:	bf18      	it	ne
 800618e:	81a3      	strhne	r3, [r4, #12]
 8006190:	bd10      	pop	{r4, pc}

08006192 <__sclose>:
 8006192:	f9b1 100e 	ldrsh.w	r1, [r1, #14]
 8006196:	f000 b813 	b.w	80061c0 <_close_r>
	...

0800619c <_write_r>:
 800619c:	b538      	push	{r3, r4, r5, lr}
 800619e:	4d07      	ldr	r5, [pc, #28]	; (80061bc <_write_r+0x20>)
 80061a0:	4604      	mov	r4, r0
 80061a2:	4608      	mov	r0, r1
 80061a4:	4611      	mov	r1, r2
 80061a6:	2200      	movs	r2, #0
 80061a8:	602a      	str	r2, [r5, #0]
 80061aa:	461a      	mov	r2, r3
 80061ac:	f7fa fd93 	bl	8000cd6 <_write>
 80061b0:	1c43      	adds	r3, r0, #1
 80061b2:	d102      	bne.n	80061ba <_write_r+0x1e>
 80061b4:	682b      	ldr	r3, [r5, #0]
 80061b6:	b103      	cbz	r3, 80061ba <_write_r+0x1e>
 80061b8:	6023      	str	r3, [r4, #0]
 80061ba:	bd38      	pop	{r3, r4, r5, pc}
 80061bc:	2001307c 	.word	0x2001307c

080061c0 <_close_r>:
 80061c0:	b538      	push	{r3, r4, r5, lr}
 80061c2:	4d06      	ldr	r5, [pc, #24]	; (80061dc <_close_r+0x1c>)
 80061c4:	2300      	movs	r3, #0
 80061c6:	4604      	mov	r4, r0
 80061c8:	4608      	mov	r0, r1
 80061ca:	602b      	str	r3, [r5, #0]
 80061cc:	f7fa fd9f 	bl	8000d0e <_close>
 80061d0:	1c43      	adds	r3, r0, #1
 80061d2:	d102      	bne.n	80061da <_close_r+0x1a>
 80061d4:	682b      	ldr	r3, [r5, #0]
 80061d6:	b103      	cbz	r3, 80061da <_close_r+0x1a>
 80061d8:	6023      	str	r3, [r4, #0]
 80061da:	bd38      	pop	{r3, r4, r5, pc}
 80061dc:	2001307c 	.word	0x2001307c

080061e0 <_fstat_r>:
 80061e0:	b538      	push	{r3, r4, r5, lr}
 80061e2:	4d07      	ldr	r5, [pc, #28]	; (8006200 <_fstat_r+0x20>)
 80061e4:	2300      	movs	r3, #0
 80061e6:	4604      	mov	r4, r0
 80061e8:	4608      	mov	r0, r1
 80061ea:	4611      	mov	r1, r2
 80061ec:	602b      	str	r3, [r5, #0]
 80061ee:	f7fa fd9a 	bl	8000d26 <_fstat>
 80061f2:	1c43      	adds	r3, r0, #1
 80061f4:	d102      	bne.n	80061fc <_fstat_r+0x1c>
 80061f6:	682b      	ldr	r3, [r5, #0]
 80061f8:	b103      	cbz	r3, 80061fc <_fstat_r+0x1c>
 80061fa:	6023      	str	r3, [r4, #0]
 80061fc:	bd38      	pop	{r3, r4, r5, pc}
 80061fe:	bf00      	nop
 8006200:	2001307c 	.word	0x2001307c

08006204 <_isatty_r>:
 8006204:	b538      	push	{r3, r4, r5, lr}
 8006206:	4d06      	ldr	r5, [pc, #24]	; (8006220 <_isatty_r+0x1c>)
 8006208:	2300      	movs	r3, #0
 800620a:	4604      	mov	r4, r0
 800620c:	4608      	mov	r0, r1
 800620e:	602b      	str	r3, [r5, #0]
 8006210:	f7fa fd99 	bl	8000d46 <_isatty>
 8006214:	1c43      	adds	r3, r0, #1
 8006216:	d102      	bne.n	800621e <_isatty_r+0x1a>
 8006218:	682b      	ldr	r3, [r5, #0]
 800621a:	b103      	cbz	r3, 800621e <_isatty_r+0x1a>
 800621c:	6023      	str	r3, [r4, #0]
 800621e:	bd38      	pop	{r3, r4, r5, pc}
 8006220:	2001307c 	.word	0x2001307c

08006224 <_lseek_r>:
 8006224:	b538      	push	{r3, r4, r5, lr}
 8006226:	4d07      	ldr	r5, [pc, #28]	; (8006244 <_lseek_r+0x20>)
 8006228:	4604      	mov	r4, r0
 800622a:	4608      	mov	r0, r1
 800622c:	4611      	mov	r1, r2
 800622e:	2200      	movs	r2, #0
 8006230:	602a      	str	r2, [r5, #0]
 8006232:	461a      	mov	r2, r3
 8006234:	f7fa fd92 	bl	8000d5c <_lseek>
 8006238:	1c43      	adds	r3, r0, #1
 800623a:	d102      	bne.n	8006242 <_lseek_r+0x1e>
 800623c:	682b      	ldr	r3, [r5, #0]
 800623e:	b103      	cbz	r3, 8006242 <_lseek_r+0x1e>
 8006240:	6023      	str	r3, [r4, #0]
 8006242:	bd38      	pop	{r3, r4, r5, pc}
 8006244:	2001307c 	.word	0x2001307c

08006248 <_malloc_usable_size_r>:
 8006248:	f851 3c04 	ldr.w	r3, [r1, #-4]
 800624c:	1f18      	subs	r0, r3, #4
 800624e:	2b00      	cmp	r3, #0
 8006250:	bfbc      	itt	lt
 8006252:	580b      	ldrlt	r3, [r1, r0]
 8006254:	18c0      	addlt	r0, r0, r3
 8006256:	4770      	bx	lr

08006258 <_read_r>:
 8006258:	b538      	push	{r3, r4, r5, lr}
 800625a:	4d07      	ldr	r5, [pc, #28]	; (8006278 <_read_r+0x20>)
 800625c:	4604      	mov	r4, r0
 800625e:	4608      	mov	r0, r1
 8006260:	4611      	mov	r1, r2
 8006262:	2200      	movs	r2, #0
 8006264:	602a      	str	r2, [r5, #0]
 8006266:	461a      	mov	r2, r3
 8006268:	f7fa fd18 	bl	8000c9c <_read>
 800626c:	1c43      	adds	r3, r0, #1
 800626e:	d102      	bne.n	8006276 <_read_r+0x1e>
 8006270:	682b      	ldr	r3, [r5, #0]
 8006272:	b103      	cbz	r3, 8006276 <_read_r+0x1e>
 8006274:	6023      	str	r3, [r4, #0]
 8006276:	bd38      	pop	{r3, r4, r5, pc}
 8006278:	2001307c 	.word	0x2001307c

0800627c <_init>:
 800627c:	b5f8      	push	{r3, r4, r5, r6, r7, lr}
 800627e:	bf00      	nop
 8006280:	bcf8      	pop	{r3, r4, r5, r6, r7}
 8006282:	bc08      	pop	{r3}
 8006284:	469e      	mov	lr, r3
 8006286:	4770      	bx	lr

08006288 <_fini>:
 8006288:	b5f8      	push	{r3, r4, r5, r6, r7, lr}
 800628a:	bf00      	nop
 800628c:	bcf8      	pop	{r3, r4, r5, r6, r7}
 800628e:	bc08      	pop	{r3}
 8006290:	469e      	mov	lr, r3
 8006292:	4770      	bx	lr
