
VGAnuS_Software-Ontwikkeling.elf:     file format elf32-littlearm

Sections:
Idx Name          Size      VMA       LMA       File off  Algn
  0 .isr_vector   00000188  08000000  08000000  00010000  2**0
                  CONTENTS, ALLOC, LOAD, READONLY, DATA
  1 .text         00006110  08000190  08000190  00010190  2**4
                  CONTENTS, ALLOC, LOAD, READONLY, CODE
  2 .rodata       000001b8  080062a0  080062a0  000162a0  2**2
                  CONTENTS, ALLOC, LOAD, READONLY, DATA
  3 .ARM.extab    00000000  08006458  08006458  00020090  2**0
                  CONTENTS
  4 .ARM          00000008  08006458  08006458  00016458  2**2
                  CONTENTS, ALLOC, LOAD, READONLY, DATA
  5 .preinit_array 00000000  08006460  08006460  00020090  2**0
                  CONTENTS, ALLOC, LOAD, DATA
  6 .init_array   00000004  08006460  08006460  00016460  2**2
                  CONTENTS, ALLOC, LOAD, DATA
  7 .fini_array   00000004  08006464  08006464  00016464  2**2
                  CONTENTS, ALLOC, LOAD, DATA
  8 .data         00000090  20000000  08006468  00020000  2**2
                  CONTENTS, ALLOC, LOAD, DATA
  9 .bss          00012ff0  20000090  080064f8  00020090  2**2
                  ALLOC
 10 ._user_heap_stack 00000600  20013080  080064f8  00023080  2**0
                  ALLOC
 11 .ARM.attributes 00000030  00000000  00000000  00020090  2**0
                  CONTENTS, READONLY
 12 .debug_info   00016288  00000000  00000000  000200c0  2**0
                  CONTENTS, READONLY, DEBUGGING, OCTETS
 13 .debug_abbrev 00002d9c  00000000  00000000  00036348  2**0
                  CONTENTS, READONLY, DEBUGGING, OCTETS
 14 .debug_aranges 00000dc0  00000000  00000000  000390e8  2**3
                  CONTENTS, READONLY, DEBUGGING, OCTETS
 15 .debug_ranges 00000ca8  00000000  00000000  00039ea8  2**3
                  CONTENTS, READONLY, DEBUGGING, OCTETS
 16 .debug_macro  00023914  00000000  00000000  0003ab50  2**0
                  CONTENTS, READONLY, DEBUGGING, OCTETS
 17 .debug_line   0001132b  00000000  00000000  0005e464  2**0
                  CONTENTS, READONLY, DEBUGGING, OCTETS
 18 .debug_str    000cc703  00000000  00000000  0006f78f  2**0
                  CONTENTS, READONLY, DEBUGGING, OCTETS
 19 .comment      00000053  00000000  00000000  0013be92  2**0
                  CONTENTS, READONLY
 20 .debug_frame  00004348  00000000  00000000  0013bee8  2**2
                  CONTENTS, READONLY, DEBUGGING, OCTETS

Disassembly of section .text:

08000190 <__do_global_dtors_aux>:
 8000190:	b510      	push	{r4, lr}
 8000192:	4c05      	ldr	r4, [pc, #20]	; (80001a8 <__do_global_dtors_aux+0x18>)
 8000194:	7823      	ldrb	r3, [r4, #0]
 8000196:	b933      	cbnz	r3, 80001a6 <__do_global_dtors_aux+0x16>
 8000198:	4b04      	ldr	r3, [pc, #16]	; (80001ac <__do_global_dtors_aux+0x1c>)
 800019a:	b113      	cbz	r3, 80001a2 <__do_global_dtors_aux+0x12>
 800019c:	4804      	ldr	r0, [pc, #16]	; (80001b0 <__do_global_dtors_aux+0x20>)
 800019e:	f3af 8000 	nop.w
 80001a2:	2301      	movs	r3, #1
 80001a4:	7023      	strb	r3, [r4, #0]
 80001a6:	bd10      	pop	{r4, pc}
 80001a8:	20000090 	.word	0x20000090
 80001ac:	00000000 	.word	0x00000000
 80001b0:	08006288 	.word	0x08006288

080001b4 <frame_dummy>:
 80001b4:	b508      	push	{r3, lr}
 80001b6:	4b03      	ldr	r3, [pc, #12]	; (80001c4 <frame_dummy+0x10>)
 80001b8:	b11b      	cbz	r3, 80001c2 <frame_dummy+0xe>
 80001ba:	4903      	ldr	r1, [pc, #12]	; (80001c8 <frame_dummy+0x14>)
 80001bc:	4803      	ldr	r0, [pc, #12]	; (80001cc <frame_dummy+0x18>)
 80001be:	f3af 8000 	nop.w
 80001c2:	bd08      	pop	{r3, pc}
 80001c4:	00000000 	.word	0x00000000
 80001c8:	20000094 	.word	0x20000094
 80001cc:	08006288 	.word	0x08006288

080001d0 <strcmp>:
 80001d0:	f810 2b01 	ldrb.w	r2, [r0], #1
 80001d4:	f811 3b01 	ldrb.w	r3, [r1], #1
 80001d8:	2a01      	cmp	r2, #1
 80001da:	bf28      	it	cs
 80001dc:	429a      	cmpcs	r2, r3
 80001de:	d0f7      	beq.n	80001d0 <strcmp>
 80001e0:	1ad0      	subs	r0, r2, r3
 80001e2:	4770      	bx	lr

080001e4 <strlen>:
 80001e4:	4603      	mov	r3, r0
 80001e6:	f813 2b01 	ldrb.w	r2, [r3], #1
 80001ea:	2a00      	cmp	r2, #0
 80001ec:	d1fb      	bne.n	80001e6 <strlen+0x2>
 80001ee:	1a18      	subs	r0, r3, r0
 80001f0:	3801      	subs	r0, #1
 80001f2:	4770      	bx	lr
	...

08000200 <memchr>:
 8000200:	f001 01ff 	and.w	r1, r1, #255	; 0xff
 8000204:	2a10      	cmp	r2, #16
 8000206:	db2b      	blt.n	8000260 <memchr+0x60>
 8000208:	f010 0f07 	tst.w	r0, #7
 800020c:	d008      	beq.n	8000220 <memchr+0x20>
 800020e:	f810 3b01 	ldrb.w	r3, [r0], #1
 8000212:	3a01      	subs	r2, #1
 8000214:	428b      	cmp	r3, r1
 8000216:	d02d      	beq.n	8000274 <memchr+0x74>
 8000218:	f010 0f07 	tst.w	r0, #7
 800021c:	b342      	cbz	r2, 8000270 <memchr+0x70>
 800021e:	d1f6      	bne.n	800020e <memchr+0xe>
 8000220:	b4f0      	push	{r4, r5, r6, r7}
 8000222:	ea41 2101 	orr.w	r1, r1, r1, lsl #8
 8000226:	ea41 4101 	orr.w	r1, r1, r1, lsl #16
 800022a:	f022 0407 	bic.w	r4, r2, #7
 800022e:	f07f 0700 	mvns.w	r7, #0
 8000232:	2300      	movs	r3, #0
 8000234:	e8f0 5602 	ldrd	r5, r6, [r0], #8
 8000238:	3c08      	subs	r4, #8
 800023a:	ea85 0501 	eor.w	r5, r5, r1
 800023e:	ea86 0601 	eor.w	r6, r6, r1
 8000242:	fa85 f547 	uadd8	r5, r5, r7
 8000246:	faa3 f587 	sel	r5, r3, r7
 800024a:	fa86 f647 	uadd8	r6, r6, r7
 800024e:	faa5 f687 	sel	r6, r5, r7
 8000252:	b98e      	cbnz	r6, 8000278 <memchr+0x78>
 8000254:	d1ee      	bne.n	8000234 <memchr+0x34>
 8000256:	bcf0      	pop	{r4, r5, r6, r7}
 8000258:	f001 01ff 	and.w	r1, r1, #255	; 0xff
 800025c:	f002 0207 	and.w	r2, r2, #7
 8000260:	b132      	cbz	r2, 8000270 <memchr+0x70>
 8000262:	f810 3b01 	ldrb.w	r3, [r0], #1
 8000266:	3a01      	subs	r2, #1
 8000268:	ea83 0301 	eor.w	r3, r3, r1
 800026c:	b113      	cbz	r3, 8000274 <memchr+0x74>
 800026e:	d1f8      	bne.n	8000262 <memchr+0x62>
 8000270:	2000      	movs	r0, #0
 8000272:	4770      	bx	lr
 8000274:	3801      	subs	r0, #1
 8000276:	4770      	bx	lr
 8000278:	2d00      	cmp	r5, #0
 800027a:	bf06      	itte	eq
 800027c:	4635      	moveq	r5, r6
 800027e:	3803      	subeq	r0, #3
 8000280:	3807      	subne	r0, #7
 8000282:	f015 0f01 	tst.w	r5, #1
 8000286:	d107      	bne.n	8000298 <memchr+0x98>
 8000288:	3001      	adds	r0, #1
 800028a:	f415 7f80 	tst.w	r5, #256	; 0x100
 800028e:	bf02      	ittt	eq
 8000290:	3001      	addeq	r0, #1
 8000292:	f415 3fc0 	tsteq.w	r5, #98304	; 0x18000
 8000296:	3001      	addeq	r0, #1
 8000298:	bcf0      	pop	{r4, r5, r6, r7}
 800029a:	3801      	subs	r0, #1
 800029c:	4770      	bx	lr
 800029e:	bf00      	nop

080002a0 <__aeabi_uldivmod>:
 80002a0:	b953      	cbnz	r3, 80002b8 <__aeabi_uldivmod+0x18>
 80002a2:	b94a      	cbnz	r2, 80002b8 <__aeabi_uldivmod+0x18>
 80002a4:	2900      	cmp	r1, #0
 80002a6:	bf08      	it	eq
 80002a8:	2800      	cmpeq	r0, #0
 80002aa:	bf1c      	itt	ne
 80002ac:	f04f 31ff 	movne.w	r1, #4294967295
 80002b0:	f04f 30ff 	movne.w	r0, #4294967295
 80002b4:	f000 b96e 	b.w	8000594 <__aeabi_idiv0>
 80002b8:	f1ad 0c08 	sub.w	ip, sp, #8
 80002bc:	e96d ce04 	strd	ip, lr, [sp, #-16]!
 80002c0:	f000 f806 	bl	80002d0 <__udivmoddi4>
 80002c4:	f8dd e004 	ldr.w	lr, [sp, #4]
 80002c8:	e9dd 2302 	ldrd	r2, r3, [sp, #8]
 80002cc:	b004      	add	sp, #16
 80002ce:	4770      	bx	lr

080002d0 <__udivmoddi4>:
 80002d0:	e92d 47f0 	stmdb	sp!, {r4, r5, r6, r7, r8, r9, sl, lr}
 80002d4:	9d08      	ldr	r5, [sp, #32]
 80002d6:	4604      	mov	r4, r0
 80002d8:	468c      	mov	ip, r1
 80002da:	2b00      	cmp	r3, #0
 80002dc:	f040 8083 	bne.w	80003e6 <__udivmoddi4+0x116>
 80002e0:	428a      	cmp	r2, r1
 80002e2:	4617      	mov	r7, r2
 80002e4:	d947      	bls.n	8000376 <__udivmoddi4+0xa6>
 80002e6:	fab2 f282 	clz	r2, r2
 80002ea:	b142      	cbz	r2, 80002fe <__udivmoddi4+0x2e>
 80002ec:	f1c2 0020 	rsb	r0, r2, #32
 80002f0:	fa24 f000 	lsr.w	r0, r4, r0
 80002f4:	4091      	lsls	r1, r2
 80002f6:	4097      	lsls	r7, r2
 80002f8:	ea40 0c01 	orr.w	ip, r0, r1
 80002fc:	4094      	lsls	r4, r2
 80002fe:	ea4f 4817 	mov.w	r8, r7, lsr #16
 8000302:	0c23      	lsrs	r3, r4, #16
 8000304:	fbbc f6f8 	udiv	r6, ip, r8
 8000308:	fa1f fe87 	uxth.w	lr, r7
 800030c:	fb08 c116 	mls	r1, r8, r6, ip
 8000310:	ea43 4301 	orr.w	r3, r3, r1, lsl #16
 8000314:	fb06 f10e 	mul.w	r1, r6, lr
 8000318:	4299      	cmp	r1, r3
 800031a:	d909      	bls.n	8000330 <__udivmoddi4+0x60>
 800031c:	18fb      	adds	r3, r7, r3
 800031e:	f106 30ff 	add.w	r0, r6, #4294967295
 8000322:	f080 8119 	bcs.w	8000558 <__udivmoddi4+0x288>
 8000326:	4299      	cmp	r1, r3
 8000328:	f240 8116 	bls.w	8000558 <__udivmoddi4+0x288>
 800032c:	3e02      	subs	r6, #2
 800032e:	443b      	add	r3, r7
 8000330:	1a5b      	subs	r3, r3, r1
 8000332:	b2a4      	uxth	r4, r4
 8000334:	fbb3 f0f8 	udiv	r0, r3, r8
 8000338:	fb08 3310 	mls	r3, r8, r0, r3
 800033c:	ea44 4403 	orr.w	r4, r4, r3, lsl #16
 8000340:	fb00 fe0e 	mul.w	lr, r0, lr
 8000344:	45a6      	cmp	lr, r4
 8000346:	d909      	bls.n	800035c <__udivmoddi4+0x8c>
 8000348:	193c      	adds	r4, r7, r4
 800034a:	f100 33ff 	add.w	r3, r0, #4294967295
 800034e:	f080 8105 	bcs.w	800055c <__udivmoddi4+0x28c>
 8000352:	45a6      	cmp	lr, r4
 8000354:	f240 8102 	bls.w	800055c <__udivmoddi4+0x28c>
 8000358:	3802      	subs	r0, #2
 800035a:	443c      	add	r4, r7
 800035c:	ea40 4006 	orr.w	r0, r0, r6, lsl #16
 8000360:	eba4 040e 	sub.w	r4, r4, lr
 8000364:	2600      	movs	r6, #0
 8000366:	b11d      	cbz	r5, 8000370 <__udivmoddi4+0xa0>
 8000368:	40d4      	lsrs	r4, r2
 800036a:	2300      	movs	r3, #0
 800036c:	e9c5 4300 	strd	r4, r3, [r5]
 8000370:	4631      	mov	r1, r6
 8000372:	e8bd 87f0 	ldmia.w	sp!, {r4, r5, r6, r7, r8, r9, sl, pc}
 8000376:	b902      	cbnz	r2, 800037a <__udivmoddi4+0xaa>
 8000378:	deff      	udf	#255	; 0xff
 800037a:	fab2 f282 	clz	r2, r2
 800037e:	2a00      	cmp	r2, #0
 8000380:	d150      	bne.n	8000424 <__udivmoddi4+0x154>
 8000382:	1bcb      	subs	r3, r1, r7
 8000384:	ea4f 4e17 	mov.w	lr, r7, lsr #16
 8000388:	fa1f f887 	uxth.w	r8, r7
 800038c:	2601      	movs	r6, #1
 800038e:	fbb3 fcfe 	udiv	ip, r3, lr
 8000392:	0c21      	lsrs	r1, r4, #16
 8000394:	fb0e 331c 	mls	r3, lr, ip, r3
 8000398:	ea41 4103 	orr.w	r1, r1, r3, lsl #16
 800039c:	fb08 f30c 	mul.w	r3, r8, ip
 80003a0:	428b      	cmp	r3, r1
 80003a2:	d907      	bls.n	80003b4 <__udivmoddi4+0xe4>
 80003a4:	1879      	adds	r1, r7, r1
 80003a6:	f10c 30ff 	add.w	r0, ip, #4294967295
 80003aa:	d202      	bcs.n	80003b2 <__udivmoddi4+0xe2>
 80003ac:	428b      	cmp	r3, r1
 80003ae:	f200 80e9 	bhi.w	8000584 <__udivmoddi4+0x2b4>
 80003b2:	4684      	mov	ip, r0
 80003b4:	1ac9      	subs	r1, r1, r3
 80003b6:	b2a3      	uxth	r3, r4
 80003b8:	fbb1 f0fe 	udiv	r0, r1, lr
 80003bc:	fb0e 1110 	mls	r1, lr, r0, r1
 80003c0:	ea43 4401 	orr.w	r4, r3, r1, lsl #16
 80003c4:	fb08 f800 	mul.w	r8, r8, r0
 80003c8:	45a0      	cmp	r8, r4
 80003ca:	d907      	bls.n	80003dc <__udivmoddi4+0x10c>
 80003cc:	193c      	adds	r4, r7, r4
 80003ce:	f100 33ff 	add.w	r3, r0, #4294967295
 80003d2:	d202      	bcs.n	80003da <__udivmoddi4+0x10a>
 80003d4:	45a0      	cmp	r8, r4
 80003d6:	f200 80d9 	bhi.w	800058c <__udivmoddi4+0x2bc>
 80003da:	4618      	mov	r0, r3
 80003dc:	eba4 0408 	sub.w	r4, r4, r8
 80003e0:	ea40 400c 	orr.w	r0, r0, ip, lsl #16
 80003e4:	e7bf      	b.n	8000366 <__udivmoddi4+0x96>
 80003e6:	428b      	cmp	r3, r1
 80003e8:	d909      	bls.n	80003fe <__udivmoddi4+0x12e>
 80003ea:	2d00      	cmp	r5, #0
 80003ec:	f000 80b1 	beq.w	8000552 <__udivmoddi4+0x282>
 80003f0:	2600      	movs	r6, #0
 80003f2:	e9c5 0100 	strd	r0, r1, [r5]
 80003f6:	4630      	mov	r0, r6
 80003f8:	4631      	mov	r1, r6
 80003fa:	e8bd 87f0 	ldmia.w	sp!, {r4, r5, r6, r7, r8, r9, sl, pc}
 80003fe:	fab3 f683 	clz	r6, r3
 8000402:	2e00      	cmp	r6, #0
 8000404:	d14a      	bne.n	800049c <__udivmoddi4+0x1cc>
 8000406:	428b      	cmp	r3, r1
 8000408:	d302      	bcc.n	8000410 <__udivmoddi4+0x140>
 800040a:	4282      	cmp	r2, r0
 800040c:	f200 80b8 	bhi.w	8000580 <__udivmoddi4+0x2b0>
 8000410:	1a84      	subs	r4, r0, r2
 8000412:	eb61 0103 	sbc.w	r1, r1, r3
 8000416:	2001      	movs	r0, #1
 8000418:	468c      	mov	ip, r1
 800041a:	2d00      	cmp	r5, #0
 800041c:	d0a8      	beq.n	8000370 <__udivmoddi4+0xa0>
 800041e:	e9c5 4c00 	strd	r4, ip, [r5]
 8000422:	e7a5      	b.n	8000370 <__udivmoddi4+0xa0>
 8000424:	f1c2 0320 	rsb	r3, r2, #32
 8000428:	fa20 f603 	lsr.w	r6, r0, r3
 800042c:	4097      	lsls	r7, r2
 800042e:	fa01 f002 	lsl.w	r0, r1, r2
 8000432:	ea4f 4e17 	mov.w	lr, r7, lsr #16
 8000436:	40d9      	lsrs	r1, r3
 8000438:	4330      	orrs	r0, r6
 800043a:	0c03      	lsrs	r3, r0, #16
 800043c:	fbb1 f6fe 	udiv	r6, r1, lr
 8000440:	fa1f f887 	uxth.w	r8, r7
 8000444:	fb0e 1116 	mls	r1, lr, r6, r1
 8000448:	ea43 4301 	orr.w	r3, r3, r1, lsl #16
 800044c:	fb06 f108 	mul.w	r1, r6, r8
 8000450:	4299      	cmp	r1, r3
 8000452:	fa04 f402 	lsl.w	r4, r4, r2
 8000456:	d909      	bls.n	800046c <__udivmoddi4+0x19c>
 8000458:	18fb      	adds	r3, r7, r3
 800045a:	f106 3cff 	add.w	ip, r6, #4294967295
 800045e:	f080 808d 	bcs.w	800057c <__udivmoddi4+0x2ac>
 8000462:	4299      	cmp	r1, r3
 8000464:	f240 808a 	bls.w	800057c <__udivmoddi4+0x2ac>
 8000468:	3e02      	subs	r6, #2
 800046a:	443b      	add	r3, r7
 800046c:	1a5b      	subs	r3, r3, r1
 800046e:	b281      	uxth	r1, r0
 8000470:	fbb3 f0fe 	udiv	r0, r3, lr
 8000474:	fb0e 3310 	mls	r3, lr, r0, r3
 8000478:	ea41 4103 	orr.w	r1, r1, r3, lsl #16
 800047c:	fb00 f308 	mul.w	r3, r0, r8
 8000480:	428b      	cmp	r3, r1
 8000482:	d907      	bls.n	8000494 <__udivmoddi4+0x1c4>
 8000484:	1879      	adds	r1, r7, r1
 8000486:	f100 3cff 	add.w	ip, r0, #4294967295
 800048a:	d273      	bcs.n	8000574 <__udivmoddi4+0x2a4>
 800048c:	428b      	cmp	r3, r1
 800048e:	d971      	bls.n	8000574 <__udivmoddi4+0x2a4>
 8000490:	3802      	subs	r0, #2
 8000492:	4439      	add	r1, r7
 8000494:	1acb      	subs	r3, r1, r3
 8000496:	ea40 4606 	orr.w	r6, r0, r6, lsl #16
 800049a:	e778      	b.n	800038e <__udivmoddi4+0xbe>
 800049c:	f1c6 0c20 	rsb	ip, r6, #32
 80004a0:	fa03 f406 	lsl.w	r4, r3, r6
 80004a4:	fa22 f30c 	lsr.w	r3, r2, ip
 80004a8:	431c      	orrs	r4, r3
 80004aa:	fa20 f70c 	lsr.w	r7, r0, ip
 80004ae:	fa01 f306 	lsl.w	r3, r1, r6
 80004b2:	ea4f 4e14 	mov.w	lr, r4, lsr #16
 80004b6:	fa21 f10c 	lsr.w	r1, r1, ip
 80004ba:	431f      	orrs	r7, r3
 80004bc:	0c3b      	lsrs	r3, r7, #16
 80004be:	fbb1 f9fe 	udiv	r9, r1, lr
 80004c2:	fa1f f884 	uxth.w	r8, r4
 80004c6:	fb0e 1119 	mls	r1, lr, r9, r1
 80004ca:	ea43 4101 	orr.w	r1, r3, r1, lsl #16
 80004ce:	fb09 fa08 	mul.w	sl, r9, r8
 80004d2:	458a      	cmp	sl, r1
 80004d4:	fa02 f206 	lsl.w	r2, r2, r6
 80004d8:	fa00 f306 	lsl.w	r3, r0, r6
 80004dc:	d908      	bls.n	80004f0 <__udivmoddi4+0x220>
 80004de:	1861      	adds	r1, r4, r1
 80004e0:	f109 30ff 	add.w	r0, r9, #4294967295
 80004e4:	d248      	bcs.n	8000578 <__udivmoddi4+0x2a8>
 80004e6:	458a      	cmp	sl, r1
 80004e8:	d946      	bls.n	8000578 <__udivmoddi4+0x2a8>
 80004ea:	f1a9 0902 	sub.w	r9, r9, #2
 80004ee:	4421      	add	r1, r4
 80004f0:	eba1 010a 	sub.w	r1, r1, sl
 80004f4:	b2bf      	uxth	r7, r7
 80004f6:	fbb1 f0fe 	udiv	r0, r1, lr
 80004fa:	fb0e 1110 	mls	r1, lr, r0, r1
 80004fe:	ea47 4701 	orr.w	r7, r7, r1, lsl #16
 8000502:	fb00 f808 	mul.w	r8, r0, r8
 8000506:	45b8      	cmp	r8, r7
 8000508:	d907      	bls.n	800051a <__udivmoddi4+0x24a>
 800050a:	19e7      	adds	r7, r4, r7
 800050c:	f100 31ff 	add.w	r1, r0, #4294967295
 8000510:	d22e      	bcs.n	8000570 <__udivmoddi4+0x2a0>
 8000512:	45b8      	cmp	r8, r7
 8000514:	d92c      	bls.n	8000570 <__udivmoddi4+0x2a0>
 8000516:	3802      	subs	r0, #2
 8000518:	4427      	add	r7, r4
 800051a:	ea40 4009 	orr.w	r0, r0, r9, lsl #16
 800051e:	eba7 0708 	sub.w	r7, r7, r8
 8000522:	fba0 8902 	umull	r8, r9, r0, r2
 8000526:	454f      	cmp	r7, r9
 8000528:	46c6      	mov	lr, r8
 800052a:	4649      	mov	r1, r9
 800052c:	d31a      	bcc.n	8000564 <__udivmoddi4+0x294>
 800052e:	d017      	beq.n	8000560 <__udivmoddi4+0x290>
 8000530:	b15d      	cbz	r5, 800054a <__udivmoddi4+0x27a>
 8000532:	ebb3 020e 	subs.w	r2, r3, lr
 8000536:	eb67 0701 	sbc.w	r7, r7, r1
 800053a:	fa07 fc0c 	lsl.w	ip, r7, ip
 800053e:	40f2      	lsrs	r2, r6
 8000540:	ea4c 0202 	orr.w	r2, ip, r2
 8000544:	40f7      	lsrs	r7, r6
 8000546:	e9c5 2700 	strd	r2, r7, [r5]
 800054a:	2600      	movs	r6, #0
 800054c:	4631      	mov	r1, r6
 800054e:	e8bd 87f0 	ldmia.w	sp!, {r4, r5, r6, r7, r8, r9, sl, pc}
 8000552:	462e      	mov	r6, r5
 8000554:	4628      	mov	r0, r5
 8000556:	e70b      	b.n	8000370 <__udivmoddi4+0xa0>
 8000558:	4606      	mov	r6, r0
 800055a:	e6e9      	b.n	8000330 <__udivmoddi4+0x60>
 800055c:	4618      	mov	r0, r3
 800055e:	e6fd      	b.n	800035c <__udivmoddi4+0x8c>
 8000560:	4543      	cmp	r3, r8
 8000562:	d2e5      	bcs.n	8000530 <__udivmoddi4+0x260>
 8000564:	ebb8 0e02 	subs.w	lr, r8, r2
 8000568:	eb69 0104 	sbc.w	r1, r9, r4
 800056c:	3801      	subs	r0, #1
 800056e:	e7df      	b.n	8000530 <__udivmoddi4+0x260>
 8000570:	4608      	mov	r0, r1
 8000572:	e7d2      	b.n	800051a <__udivmoddi4+0x24a>
 8000574:	4660      	mov	r0, ip
 8000576:	e78d      	b.n	8000494 <__udivmoddi4+0x1c4>
 8000578:	4681      	mov	r9, r0
 800057a:	e7b9      	b.n	80004f0 <__udivmoddi4+0x220>
 800057c:	4666      	mov	r6, ip
 800057e:	e775      	b.n	800046c <__udivmoddi4+0x19c>
 8000580:	4630      	mov	r0, r6
 8000582:	e74a      	b.n	800041a <__udivmoddi4+0x14a>
 8000584:	f1ac 0c02 	sub.w	ip, ip, #2
 8000588:	4439      	add	r1, r7
 800058a:	e713      	b.n	80003b4 <__udivmoddi4+0xe4>
 800058c:	3802      	subs	r0, #2
 800058e:	443c      	add	r4, r7
 8000590:	e724      	b.n	80003dc <__udivmoddi4+0x10c>
 8000592:	bf00      	nop

08000594 <__aeabi_idiv0>:
 8000594:	4770      	bx	lr
 8000596:	bf00      	nop

08000598 <FL_Parse>:
 */

#include "main.h"

void FL_Parse(char *buf)
{
 8000598:	b580      	push	{r7, lr}
 800059a:	b09e      	sub	sp, #120	; 0x78
 800059c:	af00      	add	r7, sp, #0
 800059e:	6078      	str	r0, [r7, #4]
	char *woord;
	char woorden[10][10];
	int i = 0;
 80005a0:	2300      	movs	r3, #0
 80005a2:	673b      	str	r3, [r7, #112]	; 0x70

	woord = strtok(buf, ",");	 //Find the first word in the sentence which is seperated via the delimiter ","
 80005a4:	4920      	ldr	r1, [pc, #128]	; (8000628 <FL_Parse+0x90>)
 80005a6:	6878      	ldr	r0, [r7, #4]
 80005a8:	f004 fc9e 	bl	8004ee8 <strtok>
 80005ac:	6778      	str	r0, [r7, #116]	; 0x74
	sprintf(woorden[i], woord);
 80005ae:	f107 010c 	add.w	r1, r7, #12
 80005b2:	6f3a      	ldr	r2, [r7, #112]	; 0x70
 80005b4:	4613      	mov	r3, r2
 80005b6:	009b      	lsls	r3, r3, #2
 80005b8:	4413      	add	r3, r2
 80005ba:	005b      	lsls	r3, r3, #1
 80005bc:	440b      	add	r3, r1
 80005be:	6f79      	ldr	r1, [r7, #116]	; 0x74
 80005c0:	4618      	mov	r0, r3
 80005c2:	f004 fc71 	bl	8004ea8 <siprintf>

	while(woord != NULL){					 //Find all the other words with the delimiter "," between them
 80005c6:	e013      	b.n	80005f0 <FL_Parse+0x58>
		sprintf(woorden[i], woord);
 80005c8:	f107 010c 	add.w	r1, r7, #12
 80005cc:	6f3a      	ldr	r2, [r7, #112]	; 0x70
 80005ce:	4613      	mov	r3, r2
 80005d0:	009b      	lsls	r3, r3, #2
 80005d2:	4413      	add	r3, r2
 80005d4:	005b      	lsls	r3, r3, #1
 80005d6:	440b      	add	r3, r1
 80005d8:	6f79      	ldr	r1, [r7, #116]	; 0x74
 80005da:	4618      	mov	r0, r3
 80005dc:	f004 fc64 	bl	8004ea8 <siprintf>
		i++;
 80005e0:	6f3b      	ldr	r3, [r7, #112]	; 0x70
 80005e2:	3301      	adds	r3, #1
 80005e4:	673b      	str	r3, [r7, #112]	; 0x70
		woord = strtok(NULL, ",");
 80005e6:	4910      	ldr	r1, [pc, #64]	; (8000628 <FL_Parse+0x90>)
 80005e8:	2000      	movs	r0, #0
 80005ea:	f004 fc7d 	bl	8004ee8 <strtok>
 80005ee:	6778      	str	r0, [r7, #116]	; 0x74
	while(woord != NULL){					 //Find all the other words with the delimiter "," between them
 80005f0:	6f7b      	ldr	r3, [r7, #116]	; 0x74
 80005f2:	2b00      	cmp	r3, #0
 80005f4:	d1e8      	bne.n	80005c8 <FL_Parse+0x30>
		//printf("%s\n", woord);			 //print each word
	}

	if(strcmp(woorden[0], "lijn") == 0){
 80005f6:	f107 030c 	add.w	r3, r7, #12
 80005fa:	490c      	ldr	r1, [pc, #48]	; (800062c <FL_Parse+0x94>)
 80005fc:	4618      	mov	r0, r3
 80005fe:	f7ff fde7 	bl	80001d0 <strcmp>
 8000602:	4603      	mov	r3, r0
 8000604:	2b00      	cmp	r3, #0
 8000606:	d105      	bne.n	8000614 <FL_Parse+0x7c>
			HAL_UART_Transmit_DMA(&huart2, (uint8_t *)"Lijn command", 12);
 8000608:	220c      	movs	r2, #12
 800060a:	4909      	ldr	r1, [pc, #36]	; (8000630 <FL_Parse+0x98>)
 800060c:	4809      	ldr	r0, [pc, #36]	; (8000634 <FL_Parse+0x9c>)
 800060e:	f003 fcf3 	bl	8003ff8 <HAL_UART_Transmit_DMA>
	}
	else
	{
		HAL_UART_Transmit_DMA(&huart2, (uint8_t *)"Command nvt", 11);
	}
}
 8000612:	e004      	b.n	800061e <FL_Parse+0x86>
		HAL_UART_Transmit_DMA(&huart2, (uint8_t *)"Command nvt", 11);
 8000614:	220b      	movs	r2, #11
 8000616:	4908      	ldr	r1, [pc, #32]	; (8000638 <FL_Parse+0xa0>)
 8000618:	4806      	ldr	r0, [pc, #24]	; (8000634 <FL_Parse+0x9c>)
 800061a:	f003 fced 	bl	8003ff8 <HAL_UART_Transmit_DMA>
}
 800061e:	bf00      	nop
 8000620:	3778      	adds	r7, #120	; 0x78
 8000622:	46bd      	mov	sp, r7
 8000624:	bd80      	pop	{r7, pc}
 8000626:	bf00      	nop
 8000628:	080062a0 	.word	0x080062a0
 800062c:	080062a4 	.word	0x080062a4
 8000630:	080062ac 	.word	0x080062ac
 8000634:	20013028 	.word	0x20013028
 8000638:	080062bc 	.word	0x080062bc

0800063c <MX_DMA_Init>:

/**
  * Enable DMA controller clock
  */
void MX_DMA_Init(void)
{
 800063c:	b580      	push	{r7, lr}
 800063e:	b082      	sub	sp, #8
 8000640:	af00      	add	r7, sp, #0

  /* DMA controller clock enable */
  __HAL_RCC_DMA2_CLK_ENABLE();
 8000642:	2300      	movs	r3, #0
 8000644:	607b      	str	r3, [r7, #4]
 8000646:	4b1b      	ldr	r3, [pc, #108]	; (80006b4 <MX_DMA_Init+0x78>)
 8000648:	6b1b      	ldr	r3, [r3, #48]	; 0x30
 800064a:	4a1a      	ldr	r2, [pc, #104]	; (80006b4 <MX_DMA_Init+0x78>)
 800064c:	f443 0380 	orr.w	r3, r3, #4194304	; 0x400000
 8000650:	6313      	str	r3, [r2, #48]	; 0x30
 8000652:	4b18      	ldr	r3, [pc, #96]	; (80006b4 <MX_DMA_Init+0x78>)
 8000654:	6b1b      	ldr	r3, [r3, #48]	; 0x30
 8000656:	f403 0380 	and.w	r3, r3, #4194304	; 0x400000
 800065a:	607b      	str	r3, [r7, #4]
 800065c:	687b      	ldr	r3, [r7, #4]
  __HAL_RCC_DMA1_CLK_ENABLE();
 800065e:	2300      	movs	r3, #0
 8000660:	603b      	str	r3, [r7, #0]
 8000662:	4b14      	ldr	r3, [pc, #80]	; (80006b4 <MX_DMA_Init+0x78>)
 8000664:	6b1b      	ldr	r3, [r3, #48]	; 0x30
 8000666:	4a13      	ldr	r2, [pc, #76]	; (80006b4 <MX_DMA_Init+0x78>)
 8000668:	f443 1300 	orr.w	r3, r3, #2097152	; 0x200000
 800066c:	6313      	str	r3, [r2, #48]	; 0x30
 800066e:	4b11      	ldr	r3, [pc, #68]	; (80006b4 <MX_DMA_Init+0x78>)
 8000670:	6b1b      	ldr	r3, [r3, #48]	; 0x30
 8000672:	f403 1300 	and.w	r3, r3, #2097152	; 0x200000
 8000676:	603b      	str	r3, [r7, #0]
 8000678:	683b      	ldr	r3, [r7, #0]

  /* DMA interrupt init */
  /* DMA1_Stream5_IRQn interrupt configuration */
  HAL_NVIC_SetPriority(DMA1_Stream5_IRQn, 0, 0);
 800067a:	2200      	movs	r2, #0
 800067c:	2100      	movs	r1, #0
 800067e:	2010      	movs	r0, #16
 8000680:	f001 f83d 	bl	80016fe <HAL_NVIC_SetPriority>
  HAL_NVIC_EnableIRQ(DMA1_Stream5_IRQn);
 8000684:	2010      	movs	r0, #16
 8000686:	f001 f856 	bl	8001736 <HAL_NVIC_EnableIRQ>
  /* DMA1_Stream6_IRQn interrupt configuration */
  HAL_NVIC_SetPriority(DMA1_Stream6_IRQn, 0, 0);
 800068a:	2200      	movs	r2, #0
 800068c:	2100      	movs	r1, #0
 800068e:	2011      	movs	r0, #17
 8000690:	f001 f835 	bl	80016fe <HAL_NVIC_SetPriority>
  HAL_NVIC_EnableIRQ(DMA1_Stream6_IRQn);
 8000694:	2011      	movs	r0, #17
 8000696:	f001 f84e 	bl	8001736 <HAL_NVIC_EnableIRQ>
  /* DMA2_Stream5_IRQn interrupt configuration */
  HAL_NVIC_SetPriority(DMA2_Stream5_IRQn, 0, 0);
 800069a:	2200      	movs	r2, #0
 800069c:	2100      	movs	r1, #0
 800069e:	2044      	movs	r0, #68	; 0x44
 80006a0:	f001 f82d 	bl	80016fe <HAL_NVIC_SetPriority>
  HAL_NVIC_EnableIRQ(DMA2_Stream5_IRQn);
 80006a4:	2044      	movs	r0, #68	; 0x44
 80006a6:	f001 f846 	bl	8001736 <HAL_NVIC_EnableIRQ>

}
 80006aa:	bf00      	nop
 80006ac:	3708      	adds	r7, #8
 80006ae:	46bd      	mov	sp, r7
 80006b0:	bd80      	pop	{r7, pc}
 80006b2:	bf00      	nop
 80006b4:	40023800 	.word	0x40023800

080006b8 <MX_GPIO_Init>:
        * Output
        * EVENT_OUT
        * EXTI
*/
void MX_GPIO_Init(void)
{
 80006b8:	b580      	push	{r7, lr}
 80006ba:	b08a      	sub	sp, #40	; 0x28
 80006bc:	af00      	add	r7, sp, #0

  GPIO_InitTypeDef GPIO_InitStruct = {0};
 80006be:	f107 0314 	add.w	r3, r7, #20
 80006c2:	2200      	movs	r2, #0
 80006c4:	601a      	str	r2, [r3, #0]
 80006c6:	605a      	str	r2, [r3, #4]
 80006c8:	609a      	str	r2, [r3, #8]
 80006ca:	60da      	str	r2, [r3, #12]
 80006cc:	611a      	str	r2, [r3, #16]

  /* GPIO Ports Clock Enable */
  __HAL_RCC_GPIOH_CLK_ENABLE();
 80006ce:	2300      	movs	r3, #0
 80006d0:	613b      	str	r3, [r7, #16]
 80006d2:	4b32      	ldr	r3, [pc, #200]	; (800079c <MX_GPIO_Init+0xe4>)
 80006d4:	6b1b      	ldr	r3, [r3, #48]	; 0x30
 80006d6:	4a31      	ldr	r2, [pc, #196]	; (800079c <MX_GPIO_Init+0xe4>)
 80006d8:	f043 0380 	orr.w	r3, r3, #128	; 0x80
 80006dc:	6313      	str	r3, [r2, #48]	; 0x30
 80006de:	4b2f      	ldr	r3, [pc, #188]	; (800079c <MX_GPIO_Init+0xe4>)
 80006e0:	6b1b      	ldr	r3, [r3, #48]	; 0x30
 80006e2:	f003 0380 	and.w	r3, r3, #128	; 0x80
 80006e6:	613b      	str	r3, [r7, #16]
 80006e8:	693b      	ldr	r3, [r7, #16]
  __HAL_RCC_GPIOA_CLK_ENABLE();
 80006ea:	2300      	movs	r3, #0
 80006ec:	60fb      	str	r3, [r7, #12]
 80006ee:	4b2b      	ldr	r3, [pc, #172]	; (800079c <MX_GPIO_Init+0xe4>)
 80006f0:	6b1b      	ldr	r3, [r3, #48]	; 0x30
 80006f2:	4a2a      	ldr	r2, [pc, #168]	; (800079c <MX_GPIO_Init+0xe4>)
 80006f4:	f043 0301 	orr.w	r3, r3, #1
 80006f8:	6313      	str	r3, [r2, #48]	; 0x30
 80006fa:	4b28      	ldr	r3, [pc, #160]	; (800079c <MX_GPIO_Init+0xe4>)
 80006fc:	6b1b      	ldr	r3, [r3, #48]	; 0x30
 80006fe:	f003 0301 	and.w	r3, r3, #1
 8000702:	60fb      	str	r3, [r7, #12]
 8000704:	68fb      	ldr	r3, [r7, #12]
  __HAL_RCC_GPIOE_CLK_ENABLE();
 8000706:	2300      	movs	r3, #0
 8000708:	60bb      	str	r3, [r7, #8]
 800070a:	4b24      	ldr	r3, [pc, #144]	; (800079c <MX_GPIO_Init+0xe4>)
 800070c:	6b1b      	ldr	r3, [r3, #48]	; 0x30
 800070e:	4a23      	ldr	r2, [pc, #140]	; (800079c <MX_GPIO_Init+0xe4>)
 8000710:	f043 0310 	orr.w	r3, r3, #16
 8000714:	6313      	str	r3, [r2, #48]	; 0x30
 8000716:	4b21      	ldr	r3, [pc, #132]	; (800079c <MX_GPIO_Init+0xe4>)
 8000718:	6b1b      	ldr	r3, [r3, #48]	; 0x30
 800071a:	f003 0310 	and.w	r3, r3, #16
 800071e:	60bb      	str	r3, [r7, #8]
 8000720:	68bb      	ldr	r3, [r7, #8]
  __HAL_RCC_GPIOB_CLK_ENABLE();
 8000722:	2300      	movs	r3, #0
 8000724:	607b      	str	r3, [r7, #4]
 8000726:	4b1d      	ldr	r3, [pc, #116]	; (800079c <MX_GPIO_Init+0xe4>)
 8000728:	6b1b      	ldr	r3, [r3, #48]	; 0x30
 800072a:	4a1c      	ldr	r2, [pc, #112]	; (800079c <MX_GPIO_Init+0xe4>)
 800072c:	f043 0302 	orr.w	r3, r3, #2
 8000730:	6313      	str	r3, [r2, #48]	; 0x30
 8000732:	4b1a      	ldr	r3, [pc, #104]	; (800079c <MX_GPIO_Init+0xe4>)
 8000734:	6b1b      	ldr	r3, [r3, #48]	; 0x30
 8000736:	f003 0302 	and.w	r3, r3, #2
 800073a:	607b      	str	r3, [r7, #4]
 800073c:	687b      	ldr	r3, [r7, #4]

  /*Configure GPIO pin Output Level */
  HAL_GPIO_WritePin(GPIOE, VGA_BLUE0_Pin|VGA_BLUE1_Pin|VGA_GREEN0_Pin|VGA_GREEN1_Pin
 800073e:	2200      	movs	r2, #0
 8000740:	f44f 417f 	mov.w	r1, #65280	; 0xff00
 8000744:	4816      	ldr	r0, [pc, #88]	; (80007a0 <MX_GPIO_Init+0xe8>)
 8000746:	f001 fdaf 	bl	80022a8 <HAL_GPIO_WritePin>
                          |VGA_GREEN2_Pin|VGA_RED0_Pin|VGA_RED1_Pin|VGA_RED2_Pin, GPIO_PIN_RESET);

  /*Configure GPIO pin Output Level */
  HAL_GPIO_WritePin(VGA_VSYNC_GPIO_Port, VGA_VSYNC_Pin, GPIO_PIN_RESET);
 800074a:	2200      	movs	r2, #0
 800074c:	f44f 5180 	mov.w	r1, #4096	; 0x1000
 8000750:	4814      	ldr	r0, [pc, #80]	; (80007a4 <MX_GPIO_Init+0xec>)
 8000752:	f001 fda9 	bl	80022a8 <HAL_GPIO_WritePin>

  /*Configure GPIO pins : PEPin PEPin PEPin PEPin
                           PEPin PEPin PEPin PEPin */
  GPIO_InitStruct.Pin = VGA_BLUE0_Pin|VGA_BLUE1_Pin|VGA_GREEN0_Pin|VGA_GREEN1_Pin
 8000756:	f44f 437f 	mov.w	r3, #65280	; 0xff00
 800075a:	617b      	str	r3, [r7, #20]
                          |VGA_GREEN2_Pin|VGA_RED0_Pin|VGA_RED1_Pin|VGA_RED2_Pin;
  GPIO_InitStruct.Mode = GPIO_MODE_OUTPUT_PP;
 800075c:	2301      	movs	r3, #1
 800075e:	61bb      	str	r3, [r7, #24]
  GPIO_InitStruct.Pull = GPIO_NOPULL;
 8000760:	2300      	movs	r3, #0
 8000762:	61fb      	str	r3, [r7, #28]
  GPIO_InitStruct.Speed = GPIO_SPEED_FREQ_VERY_HIGH;
 8000764:	2303      	movs	r3, #3
 8000766:	623b      	str	r3, [r7, #32]
  HAL_GPIO_Init(GPIOE, &GPIO_InitStruct);
 8000768:	f107 0314 	add.w	r3, r7, #20
 800076c:	4619      	mov	r1, r3
 800076e:	480c      	ldr	r0, [pc, #48]	; (80007a0 <MX_GPIO_Init+0xe8>)
 8000770:	f001 fbfe 	bl	8001f70 <HAL_GPIO_Init>

  /*Configure GPIO pin : PtPin */
  GPIO_InitStruct.Pin = VGA_VSYNC_Pin;
 8000774:	f44f 5380 	mov.w	r3, #4096	; 0x1000
 8000778:	617b      	str	r3, [r7, #20]
  GPIO_InitStruct.Mode = GPIO_MODE_OUTPUT_PP;
 800077a:	2301      	movs	r3, #1
 800077c:	61bb      	str	r3, [r7, #24]
  GPIO_InitStruct.Pull = GPIO_NOPULL;
 800077e:	2300      	movs	r3, #0
 8000780:	61fb      	str	r3, [r7, #28]
  GPIO_InitStruct.Speed = GPIO_SPEED_FREQ_VERY_HIGH;
 8000782:	2303      	movs	r3, #3
 8000784:	623b      	str	r3, [r7, #32]
  HAL_GPIO_Init(VGA_VSYNC_GPIO_Port, &GPIO_InitStruct);
 8000786:	f107 0314 	add.w	r3, r7, #20
 800078a:	4619      	mov	r1, r3
 800078c:	4805      	ldr	r0, [pc, #20]	; (80007a4 <MX_GPIO_Init+0xec>)
 800078e:	f001 fbef 	bl	8001f70 <HAL_GPIO_Init>

}
 8000792:	bf00      	nop
 8000794:	3728      	adds	r7, #40	; 0x28
 8000796:	46bd      	mov	sp, r7
 8000798:	bd80      	pop	{r7, pc}
 800079a:	bf00      	nop
 800079c:	40023800 	.word	0x40023800
 80007a0:	40021000 	.word	0x40021000
 80007a4:	40020400 	.word	0x40020400

080007a8 <main>:
/**
  * @brief  The application entry point.
  * @retval int
  */
int main(void)
{
 80007a8:	b580      	push	{r7, lr}
 80007aa:	af00      	add	r7, sp, #0
  /* USER CODE END 1 */

  /* MCU Configuration--------------------------------------------------------*/

  /* Reset of all peripherals, Initializes the Flash interface and the Systick. */
  HAL_Init();
 80007ac:	f000 fe5a 	bl	8001464 <HAL_Init>
  /* USER CODE BEGIN Init */

  /* USER CODE END Init */

  /* Configure the system clock */
  SystemClock_Config();
 80007b0:	f000 f83e 	bl	8000830 <SystemClock_Config>
  /* USER CODE BEGIN SysInit */

  /* USER CODE END SysInit */

  /* Initialize all configured peripherals */
  MX_GPIO_Init();
 80007b4:	f7ff ff80 	bl	80006b8 <MX_GPIO_Init>
  MX_DMA_Init();
 80007b8:	f7ff ff40 	bl	800063c <MX_DMA_Init>
  MX_TIM1_Init();
 80007bc:	f000 fb24 	bl	8000e08 <MX_TIM1_Init>
  MX_TIM2_Init();
 80007c0:	f000 fb72 	bl	8000ea8 <MX_TIM2_Init>
  MX_USART2_UART_Init();
 80007c4:	f000 fc88 	bl	80010d8 <MX_USART2_UART_Init>
  /* USER CODE BEGIN 2 */

  UB_VGA_Screen_Init(); // Init VGA-Screen
 80007c8:	f000 f8a4 	bl	8000914 <UB_VGA_Screen_Init>

  UB_VGA_FillScreen(VGA_COL_WHITE);
 80007cc:	20ff      	movs	r0, #255	; 0xff
 80007ce:	f000 f8f3 	bl	80009b8 <UB_VGA_FillScreen>
  UB_VGA_SetPixel(10,10,10);
 80007d2:	220a      	movs	r2, #10
 80007d4:	210a      	movs	r1, #10
 80007d6:	200a      	movs	r0, #10
 80007d8:	f000 f912 	bl	8000a00 <UB_VGA_SetPixel>
  UB_VGA_SetPixel(0,0,10);
 80007dc:	220a      	movs	r2, #10
 80007de:	2100      	movs	r1, #0
 80007e0:	2000      	movs	r0, #0
 80007e2:	f000 f90d 	bl	8000a00 <UB_VGA_SetPixel>
  UB_VGA_SetPixel(319,0,10);
 80007e6:	220a      	movs	r2, #10
 80007e8:	2100      	movs	r1, #0
 80007ea:	f240 103f 	movw	r0, #319	; 0x13f
 80007ee:	f000 f907 	bl	8000a00 <UB_VGA_SetPixel>

  __HAL_UART_ENABLE_IT(&huart2, UART_IT_IDLE);
 80007f2:	4b0c      	ldr	r3, [pc, #48]	; (8000824 <main+0x7c>)
 80007f4:	681b      	ldr	r3, [r3, #0]
 80007f6:	68da      	ldr	r2, [r3, #12]
 80007f8:	4b0a      	ldr	r3, [pc, #40]	; (8000824 <main+0x7c>)
 80007fa:	681b      	ldr	r3, [r3, #0]
 80007fc:	f042 0210 	orr.w	r2, r2, #16
 8000800:	60da      	str	r2, [r3, #12]
  HAL_UART_Receive_DMA(&huart2, UART2_rxBuffer, RX_BUFSIZE);
 8000802:	2280      	movs	r2, #128	; 0x80
 8000804:	4908      	ldr	r1, [pc, #32]	; (8000828 <main+0x80>)
 8000806:	4807      	ldr	r0, [pc, #28]	; (8000824 <main+0x7c>)
 8000808:	f003 fc62 	bl	80040d0 <HAL_UART_Receive_DMA>
  HAL_UART_Transmit(&huart2, US_mess, (uint8_t)strlen((char*)US_mess), 100);
 800080c:	4807      	ldr	r0, [pc, #28]	; (800082c <main+0x84>)
 800080e:	f7ff fce9 	bl	80001e4 <strlen>
 8000812:	4603      	mov	r3, r0
 8000814:	b2db      	uxtb	r3, r3
 8000816:	b29a      	uxth	r2, r3
 8000818:	2364      	movs	r3, #100	; 0x64
 800081a:	4904      	ldr	r1, [pc, #16]	; (800082c <main+0x84>)
 800081c:	4801      	ldr	r0, [pc, #4]	; (8000824 <main+0x7c>)
 800081e:	f003 fb58 	bl	8003ed2 <HAL_UART_Transmit>

  /* USER CODE END 2 */

  /* Infinite loop */
  /* USER CODE BEGIN WHILE */
  while (1)
 8000822:	e7fe      	b.n	8000822 <main+0x7a>
 8000824:	20013028 	.word	0x20013028
 8000828:	20012ea8 	.word	0x20012ea8
 800082c:	20000000 	.word	0x20000000

08000830 <SystemClock_Config>:
/**
  * @brief System Clock Configuration
  * @retval None
  */
void SystemClock_Config(void)
{
 8000830:	b580      	push	{r7, lr}
 8000832:	b094      	sub	sp, #80	; 0x50
 8000834:	af00      	add	r7, sp, #0
  RCC_OscInitTypeDef RCC_OscInitStruct = {0};
 8000836:	f107 0320 	add.w	r3, r7, #32
 800083a:	2230      	movs	r2, #48	; 0x30
 800083c:	2100      	movs	r1, #0
 800083e:	4618      	mov	r0, r3
 8000840:	f004 fb2a 	bl	8004e98 <memset>
  RCC_ClkInitTypeDef RCC_ClkInitStruct = {0};
 8000844:	f107 030c 	add.w	r3, r7, #12
 8000848:	2200      	movs	r2, #0
 800084a:	601a      	str	r2, [r3, #0]
 800084c:	605a      	str	r2, [r3, #4]
 800084e:	609a      	str	r2, [r3, #8]
 8000850:	60da      	str	r2, [r3, #12]
 8000852:	611a      	str	r2, [r3, #16]

  /** Configure the main internal regulator output voltage
  */
  __HAL_RCC_PWR_CLK_ENABLE();
 8000854:	2300      	movs	r3, #0
 8000856:	60bb      	str	r3, [r7, #8]
 8000858:	4b28      	ldr	r3, [pc, #160]	; (80008fc <SystemClock_Config+0xcc>)
 800085a:	6c1b      	ldr	r3, [r3, #64]	; 0x40
 800085c:	4a27      	ldr	r2, [pc, #156]	; (80008fc <SystemClock_Config+0xcc>)
 800085e:	f043 5380 	orr.w	r3, r3, #268435456	; 0x10000000
 8000862:	6413      	str	r3, [r2, #64]	; 0x40
 8000864:	4b25      	ldr	r3, [pc, #148]	; (80008fc <SystemClock_Config+0xcc>)
 8000866:	6c1b      	ldr	r3, [r3, #64]	; 0x40
 8000868:	f003 5380 	and.w	r3, r3, #268435456	; 0x10000000
 800086c:	60bb      	str	r3, [r7, #8]
 800086e:	68bb      	ldr	r3, [r7, #8]
  __HAL_PWR_VOLTAGESCALING_CONFIG(PWR_REGULATOR_VOLTAGE_SCALE1);
 8000870:	2300      	movs	r3, #0
 8000872:	607b      	str	r3, [r7, #4]
 8000874:	4b22      	ldr	r3, [pc, #136]	; (8000900 <SystemClock_Config+0xd0>)
 8000876:	681b      	ldr	r3, [r3, #0]
 8000878:	4a21      	ldr	r2, [pc, #132]	; (8000900 <SystemClock_Config+0xd0>)
 800087a:	f443 4380 	orr.w	r3, r3, #16384	; 0x4000
 800087e:	6013      	str	r3, [r2, #0]
 8000880:	4b1f      	ldr	r3, [pc, #124]	; (8000900 <SystemClock_Config+0xd0>)
 8000882:	681b      	ldr	r3, [r3, #0]
 8000884:	f403 4380 	and.w	r3, r3, #16384	; 0x4000
 8000888:	607b      	str	r3, [r7, #4]
 800088a:	687b      	ldr	r3, [r7, #4]
  /** Initializes the RCC Oscillators according to the specified parameters
  * in the RCC_OscInitTypeDef structure.
  */
  RCC_OscInitStruct.OscillatorType = RCC_OSCILLATORTYPE_HSE;
 800088c:	2301      	movs	r3, #1
 800088e:	623b      	str	r3, [r7, #32]
  RCC_OscInitStruct.HSEState = RCC_HSE_ON;
 8000890:	f44f 3380 	mov.w	r3, #65536	; 0x10000
 8000894:	627b      	str	r3, [r7, #36]	; 0x24
  RCC_OscInitStruct.PLL.PLLState = RCC_PLL_ON;
 8000896:	2302      	movs	r3, #2
 8000898:	63bb      	str	r3, [r7, #56]	; 0x38
  RCC_OscInitStruct.PLL.PLLSource = RCC_PLLSOURCE_HSE;
 800089a:	f44f 0380 	mov.w	r3, #4194304	; 0x400000
 800089e:	63fb      	str	r3, [r7, #60]	; 0x3c
  RCC_OscInitStruct.PLL.PLLM = 4;
 80008a0:	2304      	movs	r3, #4
 80008a2:	643b      	str	r3, [r7, #64]	; 0x40
  RCC_OscInitStruct.PLL.PLLN = 168;
 80008a4:	23a8      	movs	r3, #168	; 0xa8
 80008a6:	647b      	str	r3, [r7, #68]	; 0x44
  RCC_OscInitStruct.PLL.PLLP = RCC_PLLP_DIV2;
 80008a8:	2302      	movs	r3, #2
 80008aa:	64bb      	str	r3, [r7, #72]	; 0x48
  RCC_OscInitStruct.PLL.PLLQ = 4;
 80008ac:	2304      	movs	r3, #4
 80008ae:	64fb      	str	r3, [r7, #76]	; 0x4c
  if (HAL_RCC_OscConfig(&RCC_OscInitStruct) != HAL_OK)
 80008b0:	f107 0320 	add.w	r3, r7, #32
 80008b4:	4618      	mov	r0, r3
 80008b6:	f001 fd11 	bl	80022dc <HAL_RCC_OscConfig>
 80008ba:	4603      	mov	r3, r0
 80008bc:	2b00      	cmp	r3, #0
 80008be:	d001      	beq.n	80008c4 <SystemClock_Config+0x94>
  {
    Error_Handler();
 80008c0:	f000 f820 	bl	8000904 <Error_Handler>
  }
  /** Initializes the CPU, AHB and APB buses clocks
  */
  RCC_ClkInitStruct.ClockType = RCC_CLOCKTYPE_HCLK|RCC_CLOCKTYPE_SYSCLK
 80008c4:	230f      	movs	r3, #15
 80008c6:	60fb      	str	r3, [r7, #12]
                              |RCC_CLOCKTYPE_PCLK1|RCC_CLOCKTYPE_PCLK2;
  RCC_ClkInitStruct.SYSCLKSource = RCC_SYSCLKSOURCE_PLLCLK;
 80008c8:	2302      	movs	r3, #2
 80008ca:	613b      	str	r3, [r7, #16]
  RCC_ClkInitStruct.AHBCLKDivider = RCC_SYSCLK_DIV1;
 80008cc:	2300      	movs	r3, #0
 80008ce:	617b      	str	r3, [r7, #20]
  RCC_ClkInitStruct.APB1CLKDivider = RCC_HCLK_DIV4;
 80008d0:	f44f 53a0 	mov.w	r3, #5120	; 0x1400
 80008d4:	61bb      	str	r3, [r7, #24]
  RCC_ClkInitStruct.APB2CLKDivider = RCC_HCLK_DIV2;
 80008d6:	f44f 5380 	mov.w	r3, #4096	; 0x1000
 80008da:	61fb      	str	r3, [r7, #28]

  if (HAL_RCC_ClockConfig(&RCC_ClkInitStruct, FLASH_LATENCY_5) != HAL_OK)
 80008dc:	f107 030c 	add.w	r3, r7, #12
 80008e0:	2105      	movs	r1, #5
 80008e2:	4618      	mov	r0, r3
 80008e4:	f001 ff72 	bl	80027cc <HAL_RCC_ClockConfig>
 80008e8:	4603      	mov	r3, r0
 80008ea:	2b00      	cmp	r3, #0
 80008ec:	d001      	beq.n	80008f2 <SystemClock_Config+0xc2>
  {
    Error_Handler();
 80008ee:	f000 f809 	bl	8000904 <Error_Handler>
  }
}
 80008f2:	bf00      	nop
 80008f4:	3750      	adds	r7, #80	; 0x50
 80008f6:	46bd      	mov	sp, r7
 80008f8:	bd80      	pop	{r7, pc}
 80008fa:	bf00      	nop
 80008fc:	40023800 	.word	0x40023800
 8000900:	40007000 	.word	0x40007000

08000904 <Error_Handler>:
/**
  * @brief  This function is executed in case of error occurrence.
  * @retval None
  */
void Error_Handler(void)
{
 8000904:	b480      	push	{r7}
 8000906:	af00      	add	r7, sp, #0
  /* USER CODE BEGIN Error_Handler_Debug */
  /* User can add his own implementation to report the HAL error return state */

  /* USER CODE END Error_Handler_Debug */
}
 8000908:	bf00      	nop
 800090a:	46bd      	mov	sp, r7
 800090c:	f85d 7b04 	ldr.w	r7, [sp], #4
 8000910:	4770      	bx	lr
	...

08000914 <UB_VGA_Screen_Init>:

//--------------------------------------------------------------
// Init VGA-Module
//--------------------------------------------------------------
void UB_VGA_Screen_Init(void)
{
 8000914:	b580      	push	{r7, lr}
 8000916:	af00      	add	r7, sp, #0
  VGA.hsync_cnt = 0;
 8000918:	4b1f      	ldr	r3, [pc, #124]	; (8000998 <UB_VGA_Screen_Init+0x84>)
 800091a:	2200      	movs	r2, #0
 800091c:	801a      	strh	r2, [r3, #0]
  VGA.start_adr = 0;
 800091e:	4b1e      	ldr	r3, [pc, #120]	; (8000998 <UB_VGA_Screen_Init+0x84>)
 8000920:	2200      	movs	r2, #0
 8000922:	605a      	str	r2, [r3, #4]
  VGA.dma2_cr_reg = 0;
 8000924:	4b1c      	ldr	r3, [pc, #112]	; (8000998 <UB_VGA_Screen_Init+0x84>)
 8000926:	2200      	movs	r2, #0
 8000928:	609a      	str	r2, [r3, #8]

  GPIOB->BSRR = VGA_VSYNC_Pin;
 800092a:	4b1c      	ldr	r3, [pc, #112]	; (800099c <UB_VGA_Screen_Init+0x88>)
 800092c:	f44f 5280 	mov.w	r2, #4096	; 0x1000
 8000930:	619a      	str	r2, [r3, #24]

  // TIM2
  HAL_TIM_Base_Start(&htim2);
 8000932:	481b      	ldr	r0, [pc, #108]	; (80009a0 <UB_VGA_Screen_Init+0x8c>)
 8000934:	f002 f996 	bl	8002c64 <HAL_TIM_Base_Start>
  HAL_TIM_PWM_Start(&htim2, TIM_CHANNEL_4);
 8000938:	210c      	movs	r1, #12
 800093a:	4819      	ldr	r0, [pc, #100]	; (80009a0 <UB_VGA_Screen_Init+0x8c>)
 800093c:	f002 fa4a 	bl	8002dd4 <HAL_TIM_PWM_Start>
  HAL_TIM_PWM_Start_IT(&htim2, TIM_CHANNEL_3);
 8000940:	2108      	movs	r1, #8
 8000942:	4817      	ldr	r0, [pc, #92]	; (80009a0 <UB_VGA_Screen_Init+0x8c>)
 8000944:	f002 fb0e 	bl	8002f64 <HAL_TIM_PWM_Start_IT>

  // TIM1
  __HAL_TIM_ENABLE_DMA(&htim1, TIM_DMA_UPDATE);
 8000948:	4b16      	ldr	r3, [pc, #88]	; (80009a4 <UB_VGA_Screen_Init+0x90>)
 800094a:	681b      	ldr	r3, [r3, #0]
 800094c:	68da      	ldr	r2, [r3, #12]
 800094e:	4b15      	ldr	r3, [pc, #84]	; (80009a4 <UB_VGA_Screen_Init+0x90>)
 8000950:	681b      	ldr	r3, [r3, #0]
 8000952:	f442 7280 	orr.w	r2, r2, #256	; 0x100
 8000956:	60da      	str	r2, [r3, #12]
  __HAL_TIM_ENABLE(&htim1);
 8000958:	4b12      	ldr	r3, [pc, #72]	; (80009a4 <UB_VGA_Screen_Init+0x90>)
 800095a:	681b      	ldr	r3, [r3, #0]
 800095c:	681a      	ldr	r2, [r3, #0]
 800095e:	4b11      	ldr	r3, [pc, #68]	; (80009a4 <UB_VGA_Screen_Init+0x90>)
 8000960:	681b      	ldr	r3, [r3, #0]
 8000962:	f042 0201 	orr.w	r2, r2, #1
 8000966:	601a      	str	r2, [r3, #0]
  HAL_DMA_Start_IT(&hdma_tim1_up, (uint32_t)&VGA_RAM1[0], VGA_GPIOE_ODR_ADDRESS, VGA_DISPLAY_X + 1);
 8000968:	490f      	ldr	r1, [pc, #60]	; (80009a8 <UB_VGA_Screen_Init+0x94>)
 800096a:	f240 1341 	movw	r3, #321	; 0x141
 800096e:	4a0f      	ldr	r2, [pc, #60]	; (80009ac <UB_VGA_Screen_Init+0x98>)
 8000970:	480f      	ldr	r0, [pc, #60]	; (80009b0 <UB_VGA_Screen_Init+0x9c>)
 8000972:	f000 ffa9 	bl	80018c8 <HAL_DMA_Start_IT>

  HAL_DMA_Init(&hdma_tim1_up);
 8000976:	480e      	ldr	r0, [pc, #56]	; (80009b0 <UB_VGA_Screen_Init+0x9c>)
 8000978:	f000 fef8 	bl	800176c <HAL_DMA_Init>
  __HAL_DMA_ENABLE_IT(&hdma_tim1_up, DMA_IT_TC);
 800097c:	4b0c      	ldr	r3, [pc, #48]	; (80009b0 <UB_VGA_Screen_Init+0x9c>)
 800097e:	681b      	ldr	r3, [r3, #0]
 8000980:	681a      	ldr	r2, [r3, #0]
 8000982:	4b0b      	ldr	r3, [pc, #44]	; (80009b0 <UB_VGA_Screen_Init+0x9c>)
 8000984:	681b      	ldr	r3, [r3, #0]
 8000986:	f042 0210 	orr.w	r2, r2, #16
 800098a:	601a      	str	r2, [r3, #0]

  //-----------------------
  // Register swap and safe
  //-----------------------
  // content of CR-Register read and save
  VGA.dma2_cr_reg = DMA2_Stream5->CR;
 800098c:	4b09      	ldr	r3, [pc, #36]	; (80009b4 <UB_VGA_Screen_Init+0xa0>)
 800098e:	681b      	ldr	r3, [r3, #0]
 8000990:	4a01      	ldr	r2, [pc, #4]	; (8000998 <UB_VGA_Screen_Init+0x84>)
 8000992:	6093      	str	r3, [r2, #8]
}
 8000994:	bf00      	nop
 8000996:	bd80      	pop	{r7, pc}
 8000998:	200000bc 	.word	0x200000bc
 800099c:	40020400 	.word	0x40020400
 80009a0:	20012e60 	.word	0x20012e60
 80009a4:	20012db8 	.word	0x20012db8
 80009a8:	200000c8 	.word	0x200000c8
 80009ac:	40021015 	.word	0x40021015
 80009b0:	20012e00 	.word	0x20012e00
 80009b4:	40026488 	.word	0x40026488

080009b8 <UB_VGA_FillScreen>:

//--------------------------------------------------------------
// fill the DMA RAM buffer with one color
//--------------------------------------------------------------
void UB_VGA_FillScreen(uint8_t color)
{
 80009b8:	b580      	push	{r7, lr}
 80009ba:	b084      	sub	sp, #16
 80009bc:	af00      	add	r7, sp, #0
 80009be:	4603      	mov	r3, r0
 80009c0:	71fb      	strb	r3, [r7, #7]
  uint16_t xp,yp;

  for(yp = 0; yp < VGA_DISPLAY_Y; yp++) {
 80009c2:	2300      	movs	r3, #0
 80009c4:	81bb      	strh	r3, [r7, #12]
 80009c6:	e012      	b.n	80009ee <UB_VGA_FillScreen+0x36>
    for(xp = 0; xp < VGA_DISPLAY_X; xp++) {
 80009c8:	2300      	movs	r3, #0
 80009ca:	81fb      	strh	r3, [r7, #14]
 80009cc:	e008      	b.n	80009e0 <UB_VGA_FillScreen+0x28>
      UB_VGA_SetPixel(xp, yp, color);
 80009ce:	79fa      	ldrb	r2, [r7, #7]
 80009d0:	89b9      	ldrh	r1, [r7, #12]
 80009d2:	89fb      	ldrh	r3, [r7, #14]
 80009d4:	4618      	mov	r0, r3
 80009d6:	f000 f813 	bl	8000a00 <UB_VGA_SetPixel>
    for(xp = 0; xp < VGA_DISPLAY_X; xp++) {
 80009da:	89fb      	ldrh	r3, [r7, #14]
 80009dc:	3301      	adds	r3, #1
 80009de:	81fb      	strh	r3, [r7, #14]
 80009e0:	89fb      	ldrh	r3, [r7, #14]
 80009e2:	f5b3 7fa0 	cmp.w	r3, #320	; 0x140
 80009e6:	d3f2      	bcc.n	80009ce <UB_VGA_FillScreen+0x16>
  for(yp = 0; yp < VGA_DISPLAY_Y; yp++) {
 80009e8:	89bb      	ldrh	r3, [r7, #12]
 80009ea:	3301      	adds	r3, #1
 80009ec:	81bb      	strh	r3, [r7, #12]
 80009ee:	89bb      	ldrh	r3, [r7, #12]
 80009f0:	2bef      	cmp	r3, #239	; 0xef
 80009f2:	d9e9      	bls.n	80009c8 <UB_VGA_FillScreen+0x10>
    }
  }
}
 80009f4:	bf00      	nop
 80009f6:	bf00      	nop
 80009f8:	3710      	adds	r7, #16
 80009fa:	46bd      	mov	sp, r7
 80009fc:	bd80      	pop	{r7, pc}
	...

08000a00 <UB_VGA_SetPixel>:
//--------------------------------------------------------------
// put one Pixel on the screen with one color
// Important : the last Pixel+1 from every line must be black (don't know why??)
//--------------------------------------------------------------
void UB_VGA_SetPixel(uint16_t xp, uint16_t yp, uint8_t color)
{
 8000a00:	b480      	push	{r7}
 8000a02:	b083      	sub	sp, #12
 8000a04:	af00      	add	r7, sp, #0
 8000a06:	4603      	mov	r3, r0
 8000a08:	80fb      	strh	r3, [r7, #6]
 8000a0a:	460b      	mov	r3, r1
 8000a0c:	80bb      	strh	r3, [r7, #4]
 8000a0e:	4613      	mov	r3, r2
 8000a10:	70fb      	strb	r3, [r7, #3]
  if(xp >= VGA_DISPLAY_X)
 8000a12:	88fb      	ldrh	r3, [r7, #6]
 8000a14:	f5b3 7fa0 	cmp.w	r3, #320	; 0x140
 8000a18:	d301      	bcc.n	8000a1e <UB_VGA_SetPixel+0x1e>
    xp = 0;
 8000a1a:	2300      	movs	r3, #0
 8000a1c:	80fb      	strh	r3, [r7, #6]
  if(yp >= VGA_DISPLAY_Y)
 8000a1e:	88bb      	ldrh	r3, [r7, #4]
 8000a20:	2bef      	cmp	r3, #239	; 0xef
 8000a22:	d901      	bls.n	8000a28 <UB_VGA_SetPixel+0x28>
    yp = 0;
 8000a24:	2300      	movs	r3, #0
 8000a26:	80bb      	strh	r3, [r7, #4]

  // Write pixel to ram
  VGA_RAM1[(yp * (VGA_DISPLAY_X + 1)) + xp] = color;
 8000a28:	88ba      	ldrh	r2, [r7, #4]
 8000a2a:	4613      	mov	r3, r2
 8000a2c:	009b      	lsls	r3, r3, #2
 8000a2e:	4413      	add	r3, r2
 8000a30:	019b      	lsls	r3, r3, #6
 8000a32:	441a      	add	r2, r3
 8000a34:	88fb      	ldrh	r3, [r7, #6]
 8000a36:	4413      	add	r3, r2
 8000a38:	4904      	ldr	r1, [pc, #16]	; (8000a4c <UB_VGA_SetPixel+0x4c>)
 8000a3a:	78fa      	ldrb	r2, [r7, #3]
 8000a3c:	54ca      	strb	r2, [r1, r3]
}
 8000a3e:	bf00      	nop
 8000a40:	370c      	adds	r7, #12
 8000a42:	46bd      	mov	sp, r7
 8000a44:	f85d 7b04 	ldr.w	r7, [sp], #4
 8000a48:	4770      	bx	lr
 8000a4a:	bf00      	nop
 8000a4c:	200000c8 	.word	0x200000c8

08000a50 <HAL_MspInit>:
/* USER CODE END 0 */
/**
  * Initializes the Global MSP.
  */
void HAL_MspInit(void)
{
 8000a50:	b480      	push	{r7}
 8000a52:	b083      	sub	sp, #12
 8000a54:	af00      	add	r7, sp, #0
  /* USER CODE BEGIN MspInit 0 */

  /* USER CODE END MspInit 0 */

  __HAL_RCC_SYSCFG_CLK_ENABLE();
 8000a56:	2300      	movs	r3, #0
 8000a58:	607b      	str	r3, [r7, #4]
 8000a5a:	4b10      	ldr	r3, [pc, #64]	; (8000a9c <HAL_MspInit+0x4c>)
 8000a5c:	6c5b      	ldr	r3, [r3, #68]	; 0x44
 8000a5e:	4a0f      	ldr	r2, [pc, #60]	; (8000a9c <HAL_MspInit+0x4c>)
 8000a60:	f443 4380 	orr.w	r3, r3, #16384	; 0x4000
 8000a64:	6453      	str	r3, [r2, #68]	; 0x44
 8000a66:	4b0d      	ldr	r3, [pc, #52]	; (8000a9c <HAL_MspInit+0x4c>)
 8000a68:	6c5b      	ldr	r3, [r3, #68]	; 0x44
 8000a6a:	f403 4380 	and.w	r3, r3, #16384	; 0x4000
 8000a6e:	607b      	str	r3, [r7, #4]
 8000a70:	687b      	ldr	r3, [r7, #4]
  __HAL_RCC_PWR_CLK_ENABLE();
 8000a72:	2300      	movs	r3, #0
 8000a74:	603b      	str	r3, [r7, #0]
 8000a76:	4b09      	ldr	r3, [pc, #36]	; (8000a9c <HAL_MspInit+0x4c>)
 8000a78:	6c1b      	ldr	r3, [r3, #64]	; 0x40
 8000a7a:	4a08      	ldr	r2, [pc, #32]	; (8000a9c <HAL_MspInit+0x4c>)
 8000a7c:	f043 5380 	orr.w	r3, r3, #268435456	; 0x10000000
 8000a80:	6413      	str	r3, [r2, #64]	; 0x40
 8000a82:	4b06      	ldr	r3, [pc, #24]	; (8000a9c <HAL_MspInit+0x4c>)
 8000a84:	6c1b      	ldr	r3, [r3, #64]	; 0x40
 8000a86:	f003 5380 	and.w	r3, r3, #268435456	; 0x10000000
 8000a8a:	603b      	str	r3, [r7, #0]
 8000a8c:	683b      	ldr	r3, [r7, #0]
  /* System interrupt init*/

  /* USER CODE BEGIN MspInit 1 */

  /* USER CODE END MspInit 1 */
}
 8000a8e:	bf00      	nop
 8000a90:	370c      	adds	r7, #12
 8000a92:	46bd      	mov	sp, r7
 8000a94:	f85d 7b04 	ldr.w	r7, [sp], #4
 8000a98:	4770      	bx	lr
 8000a9a:	bf00      	nop
 8000a9c:	40023800 	.word	0x40023800

08000aa0 <NMI_Handler>:
/******************************************************************************/
/**
  * @brief This function handles Non maskable interrupt.
  */
void NMI_Handler(void)
{
 8000aa0:	b480      	push	{r7}
 8000aa2:	af00      	add	r7, sp, #0

  /* USER CODE END NonMaskableInt_IRQn 0 */
  /* USER CODE BEGIN NonMaskableInt_IRQn 1 */

  /* USER CODE END NonMaskableInt_IRQn 1 */
}
 8000aa4:	bf00      	nop
 8000aa6:	46bd      	mov	sp, r7
 8000aa8:	f85d 7b04 	ldr.w	r7, [sp], #4
 8000aac:	4770      	bx	lr

08000aae <HardFault_Handler>:

/**
  * @brief This function handles Hard fault interrupt.
  */
void HardFault_Handler(void)
{
 8000aae:	b480      	push	{r7}
 8000ab0:	af00      	add	r7, sp, #0
  /* USER CODE BEGIN HardFault_IRQn 0 */

  /* USER CODE END HardFault_IRQn 0 */
  while (1)
 8000ab2:	e7fe      	b.n	8000ab2 <HardFault_Handler+0x4>

08000ab4 <MemManage_Handler>:

/**
  * @brief This function handles Memory management fault.
  */
void MemManage_Handler(void)
{
 8000ab4:	b480      	push	{r7}
 8000ab6:	af00      	add	r7, sp, #0
  /* USER CODE BEGIN MemoryManagement_IRQn 0 */

  /* USER CODE END MemoryManagement_IRQn 0 */
  while (1)
 8000ab8:	e7fe      	b.n	8000ab8 <MemManage_Handler+0x4>

08000aba <BusFault_Handler>:

/**
  * @brief This function handles Pre-fetch fault, memory access fault.
  */
void BusFault_Handler(void)
{
 8000aba:	b480      	push	{r7}
 8000abc:	af00      	add	r7, sp, #0
  /* USER CODE BEGIN BusFault_IRQn 0 */

  /* USER CODE END BusFault_IRQn 0 */
  while (1)
 8000abe:	e7fe      	b.n	8000abe <BusFault_Handler+0x4>

08000ac0 <UsageFault_Handler>:

/**
  * @brief This function handles Undefined instruction or illegal state.
  */
void UsageFault_Handler(void)
{
 8000ac0:	b480      	push	{r7}
 8000ac2:	af00      	add	r7, sp, #0
  /* USER CODE BEGIN UsageFault_IRQn 0 */

  /* USER CODE END UsageFault_IRQn 0 */
  while (1)
 8000ac4:	e7fe      	b.n	8000ac4 <UsageFault_Handler+0x4>

08000ac6 <SVC_Handler>:

/**
  * @brief This function handles System service call via SWI instruction.
  */
void SVC_Handler(void)
{
 8000ac6:	b480      	push	{r7}
 8000ac8:	af00      	add	r7, sp, #0

  /* USER CODE END SVCall_IRQn 0 */
  /* USER CODE BEGIN SVCall_IRQn 1 */

  /* USER CODE END SVCall_IRQn 1 */
}
 8000aca:	bf00      	nop
 8000acc:	46bd      	mov	sp, r7
 8000ace:	f85d 7b04 	ldr.w	r7, [sp], #4
 8000ad2:	4770      	bx	lr

08000ad4 <DebugMon_Handler>:

/**
  * @brief This function handles Debug monitor.
  */
void DebugMon_Handler(void)
{
 8000ad4:	b480      	push	{r7}
 8000ad6:	af00      	add	r7, sp, #0

  /* USER CODE END DebugMonitor_IRQn 0 */
  /* USER CODE BEGIN DebugMonitor_IRQn 1 */

  /* USER CODE END DebugMonitor_IRQn 1 */
}
 8000ad8:	bf00      	nop
 8000ada:	46bd      	mov	sp, r7
 8000adc:	f85d 7b04 	ldr.w	r7, [sp], #4
 8000ae0:	4770      	bx	lr

08000ae2 <PendSV_Handler>:

/**
  * @brief This function handles Pendable request for system service.
  */
void PendSV_Handler(void)
{
 8000ae2:	b480      	push	{r7}
 8000ae4:	af00      	add	r7, sp, #0

  /* USER CODE END PendSV_IRQn 0 */
  /* USER CODE BEGIN PendSV_IRQn 1 */

  /* USER CODE END PendSV_IRQn 1 */
}
 8000ae6:	bf00      	nop
 8000ae8:	46bd      	mov	sp, r7
 8000aea:	f85d 7b04 	ldr.w	r7, [sp], #4
 8000aee:	4770      	bx	lr

08000af0 <SysTick_Handler>:

/**
  * @brief This function handles System tick timer.
  */
void SysTick_Handler(void)
{
 8000af0:	b580      	push	{r7, lr}
 8000af2:	af00      	add	r7, sp, #0
  /* USER CODE BEGIN SysTick_IRQn 0 */

  /* USER CODE END SysTick_IRQn 0 */
  HAL_IncTick();
 8000af4:	f000 fd08 	bl	8001508 <HAL_IncTick>
  /* USER CODE BEGIN SysTick_IRQn 1 */

  /* USER CODE END SysTick_IRQn 1 */
}
 8000af8:	bf00      	nop
 8000afa:	bd80      	pop	{r7, pc}

08000afc <DMA1_Stream5_IRQHandler>:

/**
  * @brief This function handles DMA1 stream5 global interrupt.
  */
void DMA1_Stream5_IRQHandler(void)
{
 8000afc:	b580      	push	{r7, lr}
 8000afe:	af00      	add	r7, sp, #0
  /* USER CODE BEGIN DMA1_Stream5_IRQn 0 */

  /* USER CODE END DMA1_Stream5_IRQn 0 */
  HAL_DMA_IRQHandler(&hdma_usart2_rx);
 8000b00:	4802      	ldr	r0, [pc, #8]	; (8000b0c <DMA1_Stream5_IRQHandler+0x10>)
 8000b02:	f000 ffcb 	bl	8001a9c <HAL_DMA_IRQHandler>
  /* USER CODE BEGIN DMA1_Stream5_IRQn 1 */

  /* USER CODE END DMA1_Stream5_IRQn 1 */
}
 8000b06:	bf00      	nop
 8000b08:	bd80      	pop	{r7, pc}
 8000b0a:	bf00      	nop
 8000b0c:	20012f28 	.word	0x20012f28

08000b10 <DMA1_Stream6_IRQHandler>:

/**
  * @brief This function handles DMA1 stream6 global interrupt.
  */
void DMA1_Stream6_IRQHandler(void)
{
 8000b10:	b580      	push	{r7, lr}
 8000b12:	af00      	add	r7, sp, #0
  /* USER CODE BEGIN DMA1_Stream6_IRQn 0 */

  /* USER CODE END DMA1_Stream6_IRQn 0 */
  HAL_DMA_IRQHandler(&hdma_usart2_tx);
 8000b14:	4802      	ldr	r0, [pc, #8]	; (8000b20 <DMA1_Stream6_IRQHandler+0x10>)
 8000b16:	f000 ffc1 	bl	8001a9c <HAL_DMA_IRQHandler>
  /* USER CODE BEGIN DMA1_Stream6_IRQn 1 */

  /* USER CODE END DMA1_Stream6_IRQn 1 */
}
 8000b1a:	bf00      	nop
 8000b1c:	bd80      	pop	{r7, pc}
 8000b1e:	bf00      	nop
 8000b20:	20012f88 	.word	0x20012f88

08000b24 <TIM2_IRQHandler>:

/**
  * @brief This function handles TIM2 global interrupt.
  */
void TIM2_IRQHandler(void)
{
 8000b24:	b580      	push	{r7, lr}
 8000b26:	af00      	add	r7, sp, #0
  /* USER CODE BEGIN TIM2_IRQn 0 */

  /* USER CODE END TIM2_IRQn 0 */
  HAL_TIM_IRQHandler(&htim2);
 8000b28:	4828      	ldr	r0, [pc, #160]	; (8000bcc <TIM2_IRQHandler+0xa8>)
 8000b2a:	f002 fb29 	bl	8003180 <HAL_TIM_IRQHandler>
  /* USER CODE BEGIN TIM2_IRQn 1 */
  __HAL_TIM_CLEAR_IT(&htim2, TIM_IT_CC3); // uncomment HAL_TIM_IRQHandler(&htim2); ^^
 8000b2e:	4b27      	ldr	r3, [pc, #156]	; (8000bcc <TIM2_IRQHandler+0xa8>)
 8000b30:	681b      	ldr	r3, [r3, #0]
 8000b32:	f06f 0208 	mvn.w	r2, #8
 8000b36:	611a      	str	r2, [r3, #16]

  VGA.hsync_cnt++;
 8000b38:	4b25      	ldr	r3, [pc, #148]	; (8000bd0 <TIM2_IRQHandler+0xac>)
 8000b3a:	881b      	ldrh	r3, [r3, #0]
 8000b3c:	3301      	adds	r3, #1
 8000b3e:	b29a      	uxth	r2, r3
 8000b40:	4b23      	ldr	r3, [pc, #140]	; (8000bd0 <TIM2_IRQHandler+0xac>)
 8000b42:	801a      	strh	r2, [r3, #0]
  if (VGA.hsync_cnt >= VGA_VSYNC_PERIODE)
 8000b44:	4b22      	ldr	r3, [pc, #136]	; (8000bd0 <TIM2_IRQHandler+0xac>)
 8000b46:	881b      	ldrh	r3, [r3, #0]
 8000b48:	f5b3 7f03 	cmp.w	r3, #524	; 0x20c
 8000b4c:	d905      	bls.n	8000b5a <TIM2_IRQHandler+0x36>
  {
    // -----------
    VGA.hsync_cnt = 0;
 8000b4e:	4b20      	ldr	r3, [pc, #128]	; (8000bd0 <TIM2_IRQHandler+0xac>)
 8000b50:	2200      	movs	r2, #0
 8000b52:	801a      	strh	r2, [r3, #0]
    // Adresspointer first dot
    VGA.start_adr = (uint32_t)(&VGA_RAM1[0]);
 8000b54:	4a1f      	ldr	r2, [pc, #124]	; (8000bd4 <TIM2_IRQHandler+0xb0>)
 8000b56:	4b1e      	ldr	r3, [pc, #120]	; (8000bd0 <TIM2_IRQHandler+0xac>)
 8000b58:	605a      	str	r2, [r3, #4]
  }

  // HSync-Pixel
  GPIOB->BSRR = (VGA.hsync_cnt < VGA_VSYNC_IMP) ? VGA_VSYNC_Pin << 16u: VGA_VSYNC_Pin;
 8000b5a:	4b1d      	ldr	r3, [pc, #116]	; (8000bd0 <TIM2_IRQHandler+0xac>)
 8000b5c:	881b      	ldrh	r3, [r3, #0]
 8000b5e:	2b01      	cmp	r3, #1
 8000b60:	d802      	bhi.n	8000b68 <TIM2_IRQHandler+0x44>
 8000b62:	f04f 5380 	mov.w	r3, #268435456	; 0x10000000
 8000b66:	e001      	b.n	8000b6c <TIM2_IRQHandler+0x48>
 8000b68:	f44f 5380 	mov.w	r3, #4096	; 0x1000
 8000b6c:	4a1a      	ldr	r2, [pc, #104]	; (8000bd8 <TIM2_IRQHandler+0xb4>)
 8000b6e:	6193      	str	r3, [r2, #24]

  // Test for DMA start
  if((VGA.hsync_cnt >= VGA_VSYNC_BILD_START) && (VGA.hsync_cnt <= VGA_VSYNC_BILD_STOP))
 8000b70:	4b17      	ldr	r3, [pc, #92]	; (8000bd0 <TIM2_IRQHandler+0xac>)
 8000b72:	881b      	ldrh	r3, [r3, #0]
 8000b74:	2b23      	cmp	r3, #35	; 0x23
 8000b76:	d927      	bls.n	8000bc8 <TIM2_IRQHandler+0xa4>
 8000b78:	4b15      	ldr	r3, [pc, #84]	; (8000bd0 <TIM2_IRQHandler+0xac>)
 8000b7a:	881b      	ldrh	r3, [r3, #0]
 8000b7c:	f240 2202 	movw	r2, #514	; 0x202
 8000b80:	4293      	cmp	r3, r2
 8000b82:	d821      	bhi.n	8000bc8 <TIM2_IRQHandler+0xa4>
  {
    // after FP start => DMA Transfer

    // DMA2 init
	  DMA2_Stream5->CR = VGA.dma2_cr_reg;
 8000b84:	4a15      	ldr	r2, [pc, #84]	; (8000bdc <TIM2_IRQHandler+0xb8>)
 8000b86:	4b12      	ldr	r3, [pc, #72]	; (8000bd0 <TIM2_IRQHandler+0xac>)
 8000b88:	689b      	ldr	r3, [r3, #8]
 8000b8a:	6013      	str	r3, [r2, #0]
    // set adress
    DMA2_Stream5->M0AR = VGA.start_adr;
 8000b8c:	4a13      	ldr	r2, [pc, #76]	; (8000bdc <TIM2_IRQHandler+0xb8>)
 8000b8e:	4b10      	ldr	r3, [pc, #64]	; (8000bd0 <TIM2_IRQHandler+0xac>)
 8000b90:	685b      	ldr	r3, [r3, #4]
 8000b92:	60d3      	str	r3, [r2, #12]
    // Timer1 start
    TIM1->CR1 |= TIM_CR1_CEN; // __HAL_TIM_ENABLE(&htim1); // too slow?
 8000b94:	4b12      	ldr	r3, [pc, #72]	; (8000be0 <TIM2_IRQHandler+0xbc>)
 8000b96:	681b      	ldr	r3, [r3, #0]
 8000b98:	4a11      	ldr	r2, [pc, #68]	; (8000be0 <TIM2_IRQHandler+0xbc>)
 8000b9a:	f043 0301 	orr.w	r3, r3, #1
 8000b9e:	6013      	str	r3, [r2, #0]
    // DMA2 enable
    __HAL_DMA_ENABLE(&hdma_tim1_up);
 8000ba0:	4b10      	ldr	r3, [pc, #64]	; (8000be4 <TIM2_IRQHandler+0xc0>)
 8000ba2:	681b      	ldr	r3, [r3, #0]
 8000ba4:	681a      	ldr	r2, [r3, #0]
 8000ba6:	4b0f      	ldr	r3, [pc, #60]	; (8000be4 <TIM2_IRQHandler+0xc0>)
 8000ba8:	681b      	ldr	r3, [r3, #0]
 8000baa:	f042 0201 	orr.w	r2, r2, #1
 8000bae:	601a      	str	r2, [r3, #0]
    // Test Adrespointer for high
    if(VGA.hsync_cnt & 0x01)
 8000bb0:	4b07      	ldr	r3, [pc, #28]	; (8000bd0 <TIM2_IRQHandler+0xac>)
 8000bb2:	881b      	ldrh	r3, [r3, #0]
 8000bb4:	f003 0301 	and.w	r3, r3, #1
 8000bb8:	2b00      	cmp	r3, #0
 8000bba:	d005      	beq.n	8000bc8 <TIM2_IRQHandler+0xa4>
      VGA.start_adr += (VGA_DISPLAY_X + 1); // inc after Hsync
 8000bbc:	4b04      	ldr	r3, [pc, #16]	; (8000bd0 <TIM2_IRQHandler+0xac>)
 8000bbe:	685b      	ldr	r3, [r3, #4]
 8000bc0:	f203 1341 	addw	r3, r3, #321	; 0x141
 8000bc4:	4a02      	ldr	r2, [pc, #8]	; (8000bd0 <TIM2_IRQHandler+0xac>)
 8000bc6:	6053      	str	r3, [r2, #4]
  }
  /* USER CODE END TIM2_IRQn 1 */
}
 8000bc8:	bf00      	nop
 8000bca:	bd80      	pop	{r7, pc}
 8000bcc:	20012e60 	.word	0x20012e60
 8000bd0:	200000bc 	.word	0x200000bc
 8000bd4:	200000c8 	.word	0x200000c8
 8000bd8:	40020400 	.word	0x40020400
 8000bdc:	40026488 	.word	0x40026488
 8000be0:	40010000 	.word	0x40010000
 8000be4:	20012e00 	.word	0x20012e00

08000be8 <USART2_IRQHandler>:

/**
  * @brief This function handles USART2 global interrupt.
  */
void USART2_IRQHandler(void)
{
 8000be8:	b580      	push	{r7, lr}
 8000bea:	af00      	add	r7, sp, #0
  /* USER CODE BEGIN USART2_IRQn 0 */

  /* USER CODE END USART2_IRQn 0 */
  HAL_UART_IRQHandler(&huart2);
 8000bec:	4807      	ldr	r0, [pc, #28]	; (8000c0c <USART2_IRQHandler+0x24>)
 8000bee:	f003 fa9f 	bl	8004130 <HAL_UART_IRQHandler>
  /* USER CODE BEGIN USART2_IRQn 1 */

  if(__HAL_UART_GET_FLAG(&huart2, UART_FLAG_IDLE))
 8000bf2:	4b06      	ldr	r3, [pc, #24]	; (8000c0c <USART2_IRQHandler+0x24>)
 8000bf4:	681b      	ldr	r3, [r3, #0]
 8000bf6:	681b      	ldr	r3, [r3, #0]
 8000bf8:	f003 0310 	and.w	r3, r3, #16
 8000bfc:	2b10      	cmp	r3, #16
 8000bfe:	d102      	bne.n	8000c06 <USART2_IRQHandler+0x1e>
  {
	  HAL_UART_RxCpltCallback(&huart2);
 8000c00:	4802      	ldr	r0, [pc, #8]	; (8000c0c <USART2_IRQHandler+0x24>)
 8000c02:	f000 fb49 	bl	8001298 <HAL_UART_RxCpltCallback>
  }

  /* USER CODE END USART2_IRQn 1 */
}
 8000c06:	bf00      	nop
 8000c08:	bd80      	pop	{r7, pc}
 8000c0a:	bf00      	nop
 8000c0c:	20013028 	.word	0x20013028

08000c10 <DMA2_Stream5_IRQHandler>:

/**
  * @brief This function handles DMA2 stream5 global interrupt.
  */
void DMA2_Stream5_IRQHandler(void)
{
 8000c10:	b580      	push	{r7, lr}
 8000c12:	af00      	add	r7, sp, #0
  /* USER CODE BEGIN DMA2_Stream5_IRQn 0 */

  // if (__HAL_DMA_GET_IT_SOURCE(&hdma_tim1_up, DMA_IT_TC)) // not needed?
  // {
    // Timer1 stop
    __HAL_TIM_DISABLE(&htim1);
 8000c14:	4b10      	ldr	r3, [pc, #64]	; (8000c58 <DMA2_Stream5_IRQHandler+0x48>)
 8000c16:	681b      	ldr	r3, [r3, #0]
 8000c18:	6a1a      	ldr	r2, [r3, #32]
 8000c1a:	f241 1311 	movw	r3, #4369	; 0x1111
 8000c1e:	4013      	ands	r3, r2
 8000c20:	2b00      	cmp	r3, #0
 8000c22:	d10f      	bne.n	8000c44 <DMA2_Stream5_IRQHandler+0x34>
 8000c24:	4b0c      	ldr	r3, [pc, #48]	; (8000c58 <DMA2_Stream5_IRQHandler+0x48>)
 8000c26:	681b      	ldr	r3, [r3, #0]
 8000c28:	6a1a      	ldr	r2, [r3, #32]
 8000c2a:	f240 4344 	movw	r3, #1092	; 0x444
 8000c2e:	4013      	ands	r3, r2
 8000c30:	2b00      	cmp	r3, #0
 8000c32:	d107      	bne.n	8000c44 <DMA2_Stream5_IRQHandler+0x34>
 8000c34:	4b08      	ldr	r3, [pc, #32]	; (8000c58 <DMA2_Stream5_IRQHandler+0x48>)
 8000c36:	681b      	ldr	r3, [r3, #0]
 8000c38:	681a      	ldr	r2, [r3, #0]
 8000c3a:	4b07      	ldr	r3, [pc, #28]	; (8000c58 <DMA2_Stream5_IRQHandler+0x48>)
 8000c3c:	681b      	ldr	r3, [r3, #0]
 8000c3e:	f022 0201 	bic.w	r2, r2, #1
 8000c42:	601a      	str	r2, [r3, #0]
    // DMA2 disable
    // __HAL_DMA_DISABLE(&hdma_tim1_up); // not needed?
    // switch on black
    GPIOE->BSRR = VGA_GPIO_HINIBBLE << 16u;
 8000c44:	4b05      	ldr	r3, [pc, #20]	; (8000c5c <DMA2_Stream5_IRQHandler+0x4c>)
 8000c46:	f04f 427f 	mov.w	r2, #4278190080	; 0xff000000
 8000c4a:	619a      	str	r2, [r3, #24]
  // }

  /* USER CODE END DMA2_Stream5_IRQn 0 */
  HAL_DMA_IRQHandler(&hdma_tim1_up);
 8000c4c:	4804      	ldr	r0, [pc, #16]	; (8000c60 <DMA2_Stream5_IRQHandler+0x50>)
 8000c4e:	f000 ff25 	bl	8001a9c <HAL_DMA_IRQHandler>
  /* USER CODE BEGIN DMA2_Stream5_IRQn 1 */

  /* USER CODE END DMA2_Stream5_IRQn 1 */
}
 8000c52:	bf00      	nop
 8000c54:	bd80      	pop	{r7, pc}
 8000c56:	bf00      	nop
 8000c58:	20012db8 	.word	0x20012db8
 8000c5c:	40021000 	.word	0x40021000
 8000c60:	20012e00 	.word	0x20012e00

08000c64 <_getpid>:
void initialise_monitor_handles()
{
}

int _getpid(void)
{
 8000c64:	b480      	push	{r7}
 8000c66:	af00      	add	r7, sp, #0
	return 1;
 8000c68:	2301      	movs	r3, #1
}
 8000c6a:	4618      	mov	r0, r3
 8000c6c:	46bd      	mov	sp, r7
 8000c6e:	f85d 7b04 	ldr.w	r7, [sp], #4
 8000c72:	4770      	bx	lr

08000c74 <_kill>:

int _kill(int pid, int sig)
{
 8000c74:	b580      	push	{r7, lr}
 8000c76:	b082      	sub	sp, #8
 8000c78:	af00      	add	r7, sp, #0
 8000c7a:	6078      	str	r0, [r7, #4]
 8000c7c:	6039      	str	r1, [r7, #0]
	errno = EINVAL;
 8000c7e:	f004 f8e1 	bl	8004e44 <__errno>
 8000c82:	4603      	mov	r3, r0
 8000c84:	2216      	movs	r2, #22
 8000c86:	601a      	str	r2, [r3, #0]
	return -1;
 8000c88:	f04f 33ff 	mov.w	r3, #4294967295
}
 8000c8c:	4618      	mov	r0, r3
 8000c8e:	3708      	adds	r7, #8
 8000c90:	46bd      	mov	sp, r7
 8000c92:	bd80      	pop	{r7, pc}

08000c94 <_exit>:

void _exit (int status)
{
 8000c94:	b580      	push	{r7, lr}
 8000c96:	b082      	sub	sp, #8
 8000c98:	af00      	add	r7, sp, #0
 8000c9a:	6078      	str	r0, [r7, #4]
	_kill(status, -1);
 8000c9c:	f04f 31ff 	mov.w	r1, #4294967295
 8000ca0:	6878      	ldr	r0, [r7, #4]
 8000ca2:	f7ff ffe7 	bl	8000c74 <_kill>
	while (1) {}		/* Make sure we hang here */
 8000ca6:	e7fe      	b.n	8000ca6 <_exit+0x12>

08000ca8 <_read>:
}

__attribute__((weak)) int _read(int file, char *ptr, int len)
{
 8000ca8:	b580      	push	{r7, lr}
 8000caa:	b086      	sub	sp, #24
 8000cac:	af00      	add	r7, sp, #0
 8000cae:	60f8      	str	r0, [r7, #12]
 8000cb0:	60b9      	str	r1, [r7, #8]
 8000cb2:	607a      	str	r2, [r7, #4]
	int DataIdx;

	for (DataIdx = 0; DataIdx < len; DataIdx++)
 8000cb4:	2300      	movs	r3, #0
 8000cb6:	617b      	str	r3, [r7, #20]
 8000cb8:	e00a      	b.n	8000cd0 <_read+0x28>
	{
		*ptr++ = __io_getchar();
 8000cba:	f3af 8000 	nop.w
 8000cbe:	4601      	mov	r1, r0
 8000cc0:	68bb      	ldr	r3, [r7, #8]
 8000cc2:	1c5a      	adds	r2, r3, #1
 8000cc4:	60ba      	str	r2, [r7, #8]
 8000cc6:	b2ca      	uxtb	r2, r1
 8000cc8:	701a      	strb	r2, [r3, #0]
	for (DataIdx = 0; DataIdx < len; DataIdx++)
 8000cca:	697b      	ldr	r3, [r7, #20]
 8000ccc:	3301      	adds	r3, #1
 8000cce:	617b      	str	r3, [r7, #20]
 8000cd0:	697a      	ldr	r2, [r7, #20]
 8000cd2:	687b      	ldr	r3, [r7, #4]
 8000cd4:	429a      	cmp	r2, r3
 8000cd6:	dbf0      	blt.n	8000cba <_read+0x12>
	}

return len;
 8000cd8:	687b      	ldr	r3, [r7, #4]
}
 8000cda:	4618      	mov	r0, r3
 8000cdc:	3718      	adds	r7, #24
 8000cde:	46bd      	mov	sp, r7
 8000ce0:	bd80      	pop	{r7, pc}

08000ce2 <_write>:

__attribute__((weak)) int _write(int file, char *ptr, int len)
{
 8000ce2:	b580      	push	{r7, lr}
 8000ce4:	b086      	sub	sp, #24
 8000ce6:	af00      	add	r7, sp, #0
 8000ce8:	60f8      	str	r0, [r7, #12]
 8000cea:	60b9      	str	r1, [r7, #8]
 8000cec:	607a      	str	r2, [r7, #4]
	int DataIdx;

	for (DataIdx = 0; DataIdx < len; DataIdx++)
 8000cee:	2300      	movs	r3, #0
 8000cf0:	617b      	str	r3, [r7, #20]
 8000cf2:	e009      	b.n	8000d08 <_write+0x26>
	{
		__io_putchar(*ptr++);
 8000cf4:	68bb      	ldr	r3, [r7, #8]
 8000cf6:	1c5a      	adds	r2, r3, #1
 8000cf8:	60ba      	str	r2, [r7, #8]
 8000cfa:	781b      	ldrb	r3, [r3, #0]
 8000cfc:	4618      	mov	r0, r3
 8000cfe:	f3af 8000 	nop.w
	for (DataIdx = 0; DataIdx < len; DataIdx++)
 8000d02:	697b      	ldr	r3, [r7, #20]
 8000d04:	3301      	adds	r3, #1
 8000d06:	617b      	str	r3, [r7, #20]
 8000d08:	697a      	ldr	r2, [r7, #20]
 8000d0a:	687b      	ldr	r3, [r7, #4]
 8000d0c:	429a      	cmp	r2, r3
 8000d0e:	dbf1      	blt.n	8000cf4 <_write+0x12>
	}
	return len;
 8000d10:	687b      	ldr	r3, [r7, #4]
}
 8000d12:	4618      	mov	r0, r3
 8000d14:	3718      	adds	r7, #24
 8000d16:	46bd      	mov	sp, r7
 8000d18:	bd80      	pop	{r7, pc}

08000d1a <_close>:

int _close(int file)
{
 8000d1a:	b480      	push	{r7}
 8000d1c:	b083      	sub	sp, #12
 8000d1e:	af00      	add	r7, sp, #0
 8000d20:	6078      	str	r0, [r7, #4]
	return -1;
 8000d22:	f04f 33ff 	mov.w	r3, #4294967295
}
 8000d26:	4618      	mov	r0, r3
 8000d28:	370c      	adds	r7, #12
 8000d2a:	46bd      	mov	sp, r7
 8000d2c:	f85d 7b04 	ldr.w	r7, [sp], #4
 8000d30:	4770      	bx	lr

08000d32 <_fstat>:


int _fstat(int file, struct stat *st)
{
 8000d32:	b480      	push	{r7}
 8000d34:	b083      	sub	sp, #12
 8000d36:	af00      	add	r7, sp, #0
 8000d38:	6078      	str	r0, [r7, #4]
 8000d3a:	6039      	str	r1, [r7, #0]
	st->st_mode = S_IFCHR;
 8000d3c:	683b      	ldr	r3, [r7, #0]
 8000d3e:	f44f 5200 	mov.w	r2, #8192	; 0x2000
 8000d42:	605a      	str	r2, [r3, #4]
	return 0;
 8000d44:	2300      	movs	r3, #0
}
 8000d46:	4618      	mov	r0, r3
 8000d48:	370c      	adds	r7, #12
 8000d4a:	46bd      	mov	sp, r7
 8000d4c:	f85d 7b04 	ldr.w	r7, [sp], #4
 8000d50:	4770      	bx	lr

08000d52 <_isatty>:

int _isatty(int file)
{
 8000d52:	b480      	push	{r7}
 8000d54:	b083      	sub	sp, #12
 8000d56:	af00      	add	r7, sp, #0
 8000d58:	6078      	str	r0, [r7, #4]
	return 1;
 8000d5a:	2301      	movs	r3, #1
}
 8000d5c:	4618      	mov	r0, r3
 8000d5e:	370c      	adds	r7, #12
 8000d60:	46bd      	mov	sp, r7
 8000d62:	f85d 7b04 	ldr.w	r7, [sp], #4
 8000d66:	4770      	bx	lr

08000d68 <_lseek>:

int _lseek(int file, int ptr, int dir)
{
 8000d68:	b480      	push	{r7}
 8000d6a:	b085      	sub	sp, #20
 8000d6c:	af00      	add	r7, sp, #0
 8000d6e:	60f8      	str	r0, [r7, #12]
 8000d70:	60b9      	str	r1, [r7, #8]
 8000d72:	607a      	str	r2, [r7, #4]
	return 0;
 8000d74:	2300      	movs	r3, #0
}
 8000d76:	4618      	mov	r0, r3
 8000d78:	3714      	adds	r7, #20
 8000d7a:	46bd      	mov	sp, r7
 8000d7c:	f85d 7b04 	ldr.w	r7, [sp], #4
 8000d80:	4770      	bx	lr
	...

08000d84 <_sbrk>:
/**
 _sbrk
 Increase program data space. Malloc and related functions depend on this
**/
caddr_t _sbrk(int incr)
{
 8000d84:	b580      	push	{r7, lr}
 8000d86:	b084      	sub	sp, #16
 8000d88:	af00      	add	r7, sp, #0
 8000d8a:	6078      	str	r0, [r7, #4]
	extern char end asm("end");
	static char *heap_end;
	char *prev_heap_end;

	if (heap_end == 0)
 8000d8c:	4b11      	ldr	r3, [pc, #68]	; (8000dd4 <_sbrk+0x50>)
 8000d8e:	681b      	ldr	r3, [r3, #0]
 8000d90:	2b00      	cmp	r3, #0
 8000d92:	d102      	bne.n	8000d9a <_sbrk+0x16>
		heap_end = &end;
 8000d94:	4b0f      	ldr	r3, [pc, #60]	; (8000dd4 <_sbrk+0x50>)
 8000d96:	4a10      	ldr	r2, [pc, #64]	; (8000dd8 <_sbrk+0x54>)
 8000d98:	601a      	str	r2, [r3, #0]

	prev_heap_end = heap_end;
 8000d9a:	4b0e      	ldr	r3, [pc, #56]	; (8000dd4 <_sbrk+0x50>)
 8000d9c:	681b      	ldr	r3, [r3, #0]
 8000d9e:	60fb      	str	r3, [r7, #12]
	if (heap_end + incr > stack_ptr)
 8000da0:	4b0c      	ldr	r3, [pc, #48]	; (8000dd4 <_sbrk+0x50>)
 8000da2:	681a      	ldr	r2, [r3, #0]
 8000da4:	687b      	ldr	r3, [r7, #4]
 8000da6:	4413      	add	r3, r2
 8000da8:	466a      	mov	r2, sp
 8000daa:	4293      	cmp	r3, r2
 8000dac:	d907      	bls.n	8000dbe <_sbrk+0x3a>
	{
		errno = ENOMEM;
 8000dae:	f004 f849 	bl	8004e44 <__errno>
 8000db2:	4603      	mov	r3, r0
 8000db4:	220c      	movs	r2, #12
 8000db6:	601a      	str	r2, [r3, #0]
		return (caddr_t) -1;
 8000db8:	f04f 33ff 	mov.w	r3, #4294967295
 8000dbc:	e006      	b.n	8000dcc <_sbrk+0x48>
	}

	heap_end += incr;
 8000dbe:	4b05      	ldr	r3, [pc, #20]	; (8000dd4 <_sbrk+0x50>)
 8000dc0:	681a      	ldr	r2, [r3, #0]
 8000dc2:	687b      	ldr	r3, [r7, #4]
 8000dc4:	4413      	add	r3, r2
 8000dc6:	4a03      	ldr	r2, [pc, #12]	; (8000dd4 <_sbrk+0x50>)
 8000dc8:	6013      	str	r3, [r2, #0]

	return (caddr_t) prev_heap_end;
 8000dca:	68fb      	ldr	r3, [r7, #12]
}
 8000dcc:	4618      	mov	r0, r3
 8000dce:	3710      	adds	r7, #16
 8000dd0:	46bd      	mov	sp, r7
 8000dd2:	bd80      	pop	{r7, pc}
 8000dd4:	200000ac 	.word	0x200000ac
 8000dd8:	20013080 	.word	0x20013080

08000ddc <SystemInit>:
  *         configuration.
  * @param  None
  * @retval None
  */
void SystemInit(void)
{
 8000ddc:	b480      	push	{r7}
 8000dde:	af00      	add	r7, sp, #0
  /* FPU settings ------------------------------------------------------------*/
  #if (__FPU_PRESENT == 1) && (__FPU_USED == 1)
    SCB->CPACR |= ((3UL << 10*2)|(3UL << 11*2));  /* set CP10 and CP11 Full Access */
 8000de0:	4b08      	ldr	r3, [pc, #32]	; (8000e04 <SystemInit+0x28>)
 8000de2:	f8d3 3088 	ldr.w	r3, [r3, #136]	; 0x88
 8000de6:	4a07      	ldr	r2, [pc, #28]	; (8000e04 <SystemInit+0x28>)
 8000de8:	f443 0370 	orr.w	r3, r3, #15728640	; 0xf00000
 8000dec:	f8c2 3088 	str.w	r3, [r2, #136]	; 0x88

  /* Configure the Vector Table location add offset address ------------------*/
#ifdef VECT_TAB_SRAM
  SCB->VTOR = SRAM_BASE | VECT_TAB_OFFSET; /* Vector Table Relocation in Internal SRAM */
#else
  SCB->VTOR = FLASH_BASE | VECT_TAB_OFFSET; /* Vector Table Relocation in Internal FLASH */
 8000df0:	4b04      	ldr	r3, [pc, #16]	; (8000e04 <SystemInit+0x28>)
 8000df2:	f04f 6200 	mov.w	r2, #134217728	; 0x8000000
 8000df6:	609a      	str	r2, [r3, #8]
#endif
}
 8000df8:	bf00      	nop
 8000dfa:	46bd      	mov	sp, r7
 8000dfc:	f85d 7b04 	ldr.w	r7, [sp], #4
 8000e00:	4770      	bx	lr
 8000e02:	bf00      	nop
 8000e04:	e000ed00 	.word	0xe000ed00

08000e08 <MX_TIM1_Init>:
TIM_HandleTypeDef htim2;
DMA_HandleTypeDef hdma_tim1_up;

/* TIM1 init function */
void MX_TIM1_Init(void)
{
 8000e08:	b580      	push	{r7, lr}
 8000e0a:	b086      	sub	sp, #24
 8000e0c:	af00      	add	r7, sp, #0

  /* USER CODE BEGIN TIM1_Init 0 */

  /* USER CODE END TIM1_Init 0 */

  TIM_ClockConfigTypeDef sClockSourceConfig = {0};
 8000e0e:	f107 0308 	add.w	r3, r7, #8
 8000e12:	2200      	movs	r2, #0
 8000e14:	601a      	str	r2, [r3, #0]
 8000e16:	605a      	str	r2, [r3, #4]
 8000e18:	609a      	str	r2, [r3, #8]
 8000e1a:	60da      	str	r2, [r3, #12]
  TIM_MasterConfigTypeDef sMasterConfig = {0};
 8000e1c:	463b      	mov	r3, r7
 8000e1e:	2200      	movs	r2, #0
 8000e20:	601a      	str	r2, [r3, #0]
 8000e22:	605a      	str	r2, [r3, #4]

  /* USER CODE BEGIN TIM1_Init 1 */

  /* USER CODE END TIM1_Init 1 */
  htim1.Instance = TIM1;
 8000e24:	4b1e      	ldr	r3, [pc, #120]	; (8000ea0 <MX_TIM1_Init+0x98>)
 8000e26:	4a1f      	ldr	r2, [pc, #124]	; (8000ea4 <MX_TIM1_Init+0x9c>)
 8000e28:	601a      	str	r2, [r3, #0]
  htim1.Init.Prescaler = VGA_TIM1_PRESCALE;
 8000e2a:	4b1d      	ldr	r3, [pc, #116]	; (8000ea0 <MX_TIM1_Init+0x98>)
 8000e2c:	2200      	movs	r2, #0
 8000e2e:	605a      	str	r2, [r3, #4]
  htim1.Init.CounterMode = TIM_COUNTERMODE_UP;
 8000e30:	4b1b      	ldr	r3, [pc, #108]	; (8000ea0 <MX_TIM1_Init+0x98>)
 8000e32:	2200      	movs	r2, #0
 8000e34:	609a      	str	r2, [r3, #8]
  htim1.Init.Period = VGA_TIM1_PERIODE;
 8000e36:	4b1a      	ldr	r3, [pc, #104]	; (8000ea0 <MX_TIM1_Init+0x98>)
 8000e38:	220b      	movs	r2, #11
 8000e3a:	60da      	str	r2, [r3, #12]
  htim1.Init.ClockDivision = TIM_CLOCKDIVISION_DIV1;
 8000e3c:	4b18      	ldr	r3, [pc, #96]	; (8000ea0 <MX_TIM1_Init+0x98>)
 8000e3e:	2200      	movs	r2, #0
 8000e40:	611a      	str	r2, [r3, #16]
  htim1.Init.RepetitionCounter = 0;
 8000e42:	4b17      	ldr	r3, [pc, #92]	; (8000ea0 <MX_TIM1_Init+0x98>)
 8000e44:	2200      	movs	r2, #0
 8000e46:	615a      	str	r2, [r3, #20]
  htim1.Init.AutoReloadPreload = TIM_AUTORELOAD_PRELOAD_DISABLE;
 8000e48:	4b15      	ldr	r3, [pc, #84]	; (8000ea0 <MX_TIM1_Init+0x98>)
 8000e4a:	2200      	movs	r2, #0
 8000e4c:	619a      	str	r2, [r3, #24]
  if (HAL_TIM_Base_Init(&htim1) != HAL_OK)
 8000e4e:	4814      	ldr	r0, [pc, #80]	; (8000ea0 <MX_TIM1_Init+0x98>)
 8000e50:	f001 feb8 	bl	8002bc4 <HAL_TIM_Base_Init>
 8000e54:	4603      	mov	r3, r0
 8000e56:	2b00      	cmp	r3, #0
 8000e58:	d001      	beq.n	8000e5e <MX_TIM1_Init+0x56>
  {
    Error_Handler();
 8000e5a:	f7ff fd53 	bl	8000904 <Error_Handler>
  }
  sClockSourceConfig.ClockSource = TIM_CLOCKSOURCE_INTERNAL;
 8000e5e:	f44f 5380 	mov.w	r3, #4096	; 0x1000
 8000e62:	60bb      	str	r3, [r7, #8]
  if (HAL_TIM_ConfigClockSource(&htim1, &sClockSourceConfig) != HAL_OK)
 8000e64:	f107 0308 	add.w	r3, r7, #8
 8000e68:	4619      	mov	r1, r3
 8000e6a:	480d      	ldr	r0, [pc, #52]	; (8000ea0 <MX_TIM1_Init+0x98>)
 8000e6c:	f002 fb4e 	bl	800350c <HAL_TIM_ConfigClockSource>
 8000e70:	4603      	mov	r3, r0
 8000e72:	2b00      	cmp	r3, #0
 8000e74:	d001      	beq.n	8000e7a <MX_TIM1_Init+0x72>
  {
    Error_Handler();
 8000e76:	f7ff fd45 	bl	8000904 <Error_Handler>
  }
  sMasterConfig.MasterOutputTrigger = TIM_TRGO_RESET;
 8000e7a:	2300      	movs	r3, #0
 8000e7c:	603b      	str	r3, [r7, #0]
  sMasterConfig.MasterSlaveMode = TIM_MASTERSLAVEMODE_DISABLE;
 8000e7e:	2300      	movs	r3, #0
 8000e80:	607b      	str	r3, [r7, #4]
  if (HAL_TIMEx_MasterConfigSynchronization(&htim1, &sMasterConfig) != HAL_OK)
 8000e82:	463b      	mov	r3, r7
 8000e84:	4619      	mov	r1, r3
 8000e86:	4806      	ldr	r0, [pc, #24]	; (8000ea0 <MX_TIM1_Init+0x98>)
 8000e88:	f002 ff46 	bl	8003d18 <HAL_TIMEx_MasterConfigSynchronization>
 8000e8c:	4603      	mov	r3, r0
 8000e8e:	2b00      	cmp	r3, #0
 8000e90:	d001      	beq.n	8000e96 <MX_TIM1_Init+0x8e>
  {
    Error_Handler();
 8000e92:	f7ff fd37 	bl	8000904 <Error_Handler>
  }
  /* USER CODE BEGIN TIM1_Init 2 */

  /* USER CODE END TIM1_Init 2 */

}
 8000e96:	bf00      	nop
 8000e98:	3718      	adds	r7, #24
 8000e9a:	46bd      	mov	sp, r7
 8000e9c:	bd80      	pop	{r7, pc}
 8000e9e:	bf00      	nop
 8000ea0:	20012db8 	.word	0x20012db8
 8000ea4:	40010000 	.word	0x40010000

08000ea8 <MX_TIM2_Init>:
/* TIM2 init function */
void MX_TIM2_Init(void)
{
 8000ea8:	b580      	push	{r7, lr}
 8000eaa:	b08a      	sub	sp, #40	; 0x28
 8000eac:	af00      	add	r7, sp, #0

  /* USER CODE BEGIN TIM2_Init 0 */

  /* USER CODE END TIM2_Init 0 */

  TIM_MasterConfigTypeDef sMasterConfig = {0};
 8000eae:	f107 0320 	add.w	r3, r7, #32
 8000eb2:	2200      	movs	r2, #0
 8000eb4:	601a      	str	r2, [r3, #0]
 8000eb6:	605a      	str	r2, [r3, #4]
  TIM_OC_InitTypeDef sConfigOC = {0};
 8000eb8:	1d3b      	adds	r3, r7, #4
 8000eba:	2200      	movs	r2, #0
 8000ebc:	601a      	str	r2, [r3, #0]
 8000ebe:	605a      	str	r2, [r3, #4]
 8000ec0:	609a      	str	r2, [r3, #8]
 8000ec2:	60da      	str	r2, [r3, #12]
 8000ec4:	611a      	str	r2, [r3, #16]
 8000ec6:	615a      	str	r2, [r3, #20]
 8000ec8:	619a      	str	r2, [r3, #24]

  /* USER CODE BEGIN TIM2_Init 1 */

  /* USER CODE END TIM2_Init 1 */
  htim2.Instance = TIM2;
 8000eca:	4b2a      	ldr	r3, [pc, #168]	; (8000f74 <MX_TIM2_Init+0xcc>)
 8000ecc:	f04f 4280 	mov.w	r2, #1073741824	; 0x40000000
 8000ed0:	601a      	str	r2, [r3, #0]
  htim2.Init.Prescaler = VGA_TIM2_HSYNC_PRESCALE;
 8000ed2:	4b28      	ldr	r3, [pc, #160]	; (8000f74 <MX_TIM2_Init+0xcc>)
 8000ed4:	2200      	movs	r2, #0
 8000ed6:	605a      	str	r2, [r3, #4]
  htim2.Init.CounterMode = TIM_COUNTERMODE_UP;
 8000ed8:	4b26      	ldr	r3, [pc, #152]	; (8000f74 <MX_TIM2_Init+0xcc>)
 8000eda:	2200      	movs	r2, #0
 8000edc:	609a      	str	r2, [r3, #8]
  htim2.Init.Period = VGA_TIM2_HSYNC_PERIODE;
 8000ede:	4b25      	ldr	r3, [pc, #148]	; (8000f74 <MX_TIM2_Init+0xcc>)
 8000ee0:	f640 226b 	movw	r2, #2667	; 0xa6b
 8000ee4:	60da      	str	r2, [r3, #12]
  htim2.Init.ClockDivision = TIM_CLOCKDIVISION_DIV1;
 8000ee6:	4b23      	ldr	r3, [pc, #140]	; (8000f74 <MX_TIM2_Init+0xcc>)
 8000ee8:	2200      	movs	r2, #0
 8000eea:	611a      	str	r2, [r3, #16]
  htim2.Init.AutoReloadPreload = TIM_AUTORELOAD_PRELOAD_DISABLE;
 8000eec:	4b21      	ldr	r3, [pc, #132]	; (8000f74 <MX_TIM2_Init+0xcc>)
 8000eee:	2200      	movs	r2, #0
 8000ef0:	619a      	str	r2, [r3, #24]
  if (HAL_TIM_PWM_Init(&htim2) != HAL_OK)
 8000ef2:	4820      	ldr	r0, [pc, #128]	; (8000f74 <MX_TIM2_Init+0xcc>)
 8000ef4:	f001 ff1e 	bl	8002d34 <HAL_TIM_PWM_Init>
 8000ef8:	4603      	mov	r3, r0
 8000efa:	2b00      	cmp	r3, #0
 8000efc:	d001      	beq.n	8000f02 <MX_TIM2_Init+0x5a>
  {
    Error_Handler();
 8000efe:	f7ff fd01 	bl	8000904 <Error_Handler>
  }
  sMasterConfig.MasterOutputTrigger = TIM_TRGO_RESET;
 8000f02:	2300      	movs	r3, #0
 8000f04:	623b      	str	r3, [r7, #32]
  sMasterConfig.MasterSlaveMode = TIM_MASTERSLAVEMODE_DISABLE;
 8000f06:	2300      	movs	r3, #0
 8000f08:	627b      	str	r3, [r7, #36]	; 0x24
  if (HAL_TIMEx_MasterConfigSynchronization(&htim2, &sMasterConfig) != HAL_OK)
 8000f0a:	f107 0320 	add.w	r3, r7, #32
 8000f0e:	4619      	mov	r1, r3
 8000f10:	4818      	ldr	r0, [pc, #96]	; (8000f74 <MX_TIM2_Init+0xcc>)
 8000f12:	f002 ff01 	bl	8003d18 <HAL_TIMEx_MasterConfigSynchronization>
 8000f16:	4603      	mov	r3, r0
 8000f18:	2b00      	cmp	r3, #0
 8000f1a:	d001      	beq.n	8000f20 <MX_TIM2_Init+0x78>
  {
    Error_Handler();
 8000f1c:	f7ff fcf2 	bl	8000904 <Error_Handler>
  }
  sConfigOC.OCMode = TIM_OCMODE_PWM1;
 8000f20:	2360      	movs	r3, #96	; 0x60
 8000f22:	607b      	str	r3, [r7, #4]
  sConfigOC.Pulse = VGA_TIM2_HTRIGGER_START - VGA_TIM2_DMA_DELAY;
 8000f24:	f240 13bb 	movw	r3, #443	; 0x1bb
 8000f28:	60bb      	str	r3, [r7, #8]
  sConfigOC.OCPolarity = TIM_OCPOLARITY_LOW;
 8000f2a:	2302      	movs	r3, #2
 8000f2c:	60fb      	str	r3, [r7, #12]
  sConfigOC.OCFastMode = TIM_OCFAST_DISABLE;
 8000f2e:	2300      	movs	r3, #0
 8000f30:	617b      	str	r3, [r7, #20]
  if (HAL_TIM_PWM_ConfigChannel(&htim2, &sConfigOC, TIM_CHANNEL_3) != HAL_OK)
 8000f32:	1d3b      	adds	r3, r7, #4
 8000f34:	2208      	movs	r2, #8
 8000f36:	4619      	mov	r1, r3
 8000f38:	480e      	ldr	r0, [pc, #56]	; (8000f74 <MX_TIM2_Init+0xcc>)
 8000f3a:	f002 fa29 	bl	8003390 <HAL_TIM_PWM_ConfigChannel>
 8000f3e:	4603      	mov	r3, r0
 8000f40:	2b00      	cmp	r3, #0
 8000f42:	d001      	beq.n	8000f48 <MX_TIM2_Init+0xa0>
  {
    Error_Handler();
 8000f44:	f7ff fcde 	bl	8000904 <Error_Handler>
  }
  sConfigOC.Pulse = VGA_TIM2_HSYNC_IMP;
 8000f48:	f44f 73a0 	mov.w	r3, #320	; 0x140
 8000f4c:	60bb      	str	r3, [r7, #8]
  if (HAL_TIM_PWM_ConfigChannel(&htim2, &sConfigOC, TIM_CHANNEL_4) != HAL_OK)
 8000f4e:	1d3b      	adds	r3, r7, #4
 8000f50:	220c      	movs	r2, #12
 8000f52:	4619      	mov	r1, r3
 8000f54:	4807      	ldr	r0, [pc, #28]	; (8000f74 <MX_TIM2_Init+0xcc>)
 8000f56:	f002 fa1b 	bl	8003390 <HAL_TIM_PWM_ConfigChannel>
 8000f5a:	4603      	mov	r3, r0
 8000f5c:	2b00      	cmp	r3, #0
 8000f5e:	d001      	beq.n	8000f64 <MX_TIM2_Init+0xbc>
  {
    Error_Handler();
 8000f60:	f7ff fcd0 	bl	8000904 <Error_Handler>
  }
  /* USER CODE BEGIN TIM2_Init 2 */

  /* USER CODE END TIM2_Init 2 */
  HAL_TIM_MspPostInit(&htim2);
 8000f64:	4803      	ldr	r0, [pc, #12]	; (8000f74 <MX_TIM2_Init+0xcc>)
 8000f66:	f000 f87f 	bl	8001068 <HAL_TIM_MspPostInit>

}
 8000f6a:	bf00      	nop
 8000f6c:	3728      	adds	r7, #40	; 0x28
 8000f6e:	46bd      	mov	sp, r7
 8000f70:	bd80      	pop	{r7, pc}
 8000f72:	bf00      	nop
 8000f74:	20012e60 	.word	0x20012e60

08000f78 <HAL_TIM_Base_MspInit>:

void HAL_TIM_Base_MspInit(TIM_HandleTypeDef* tim_baseHandle)
{
 8000f78:	b580      	push	{r7, lr}
 8000f7a:	b084      	sub	sp, #16
 8000f7c:	af00      	add	r7, sp, #0
 8000f7e:	6078      	str	r0, [r7, #4]

  if(tim_baseHandle->Instance==TIM1)
 8000f80:	687b      	ldr	r3, [r7, #4]
 8000f82:	681b      	ldr	r3, [r3, #0]
 8000f84:	4a21      	ldr	r2, [pc, #132]	; (800100c <HAL_TIM_Base_MspInit+0x94>)
 8000f86:	4293      	cmp	r3, r2
 8000f88:	d13c      	bne.n	8001004 <HAL_TIM_Base_MspInit+0x8c>
  {
  /* USER CODE BEGIN TIM1_MspInit 0 */

  /* USER CODE END TIM1_MspInit 0 */
    /* TIM1 clock enable */
    __HAL_RCC_TIM1_CLK_ENABLE();
 8000f8a:	2300      	movs	r3, #0
 8000f8c:	60fb      	str	r3, [r7, #12]
 8000f8e:	4b20      	ldr	r3, [pc, #128]	; (8001010 <HAL_TIM_Base_MspInit+0x98>)
 8000f90:	6c5b      	ldr	r3, [r3, #68]	; 0x44
 8000f92:	4a1f      	ldr	r2, [pc, #124]	; (8001010 <HAL_TIM_Base_MspInit+0x98>)
 8000f94:	f043 0301 	orr.w	r3, r3, #1
 8000f98:	6453      	str	r3, [r2, #68]	; 0x44
 8000f9a:	4b1d      	ldr	r3, [pc, #116]	; (8001010 <HAL_TIM_Base_MspInit+0x98>)
 8000f9c:	6c5b      	ldr	r3, [r3, #68]	; 0x44
 8000f9e:	f003 0301 	and.w	r3, r3, #1
 8000fa2:	60fb      	str	r3, [r7, #12]
 8000fa4:	68fb      	ldr	r3, [r7, #12]

    /* TIM1 DMA Init */
    /* TIM1_UP Init */
    hdma_tim1_up.Instance = DMA2_Stream5;
 8000fa6:	4b1b      	ldr	r3, [pc, #108]	; (8001014 <HAL_TIM_Base_MspInit+0x9c>)
 8000fa8:	4a1b      	ldr	r2, [pc, #108]	; (8001018 <HAL_TIM_Base_MspInit+0xa0>)
 8000faa:	601a      	str	r2, [r3, #0]
    hdma_tim1_up.Init.Channel = DMA_CHANNEL_6;
 8000fac:	4b19      	ldr	r3, [pc, #100]	; (8001014 <HAL_TIM_Base_MspInit+0x9c>)
 8000fae:	f04f 6240 	mov.w	r2, #201326592	; 0xc000000
 8000fb2:	605a      	str	r2, [r3, #4]
    hdma_tim1_up.Init.Direction = DMA_MEMORY_TO_PERIPH;
 8000fb4:	4b17      	ldr	r3, [pc, #92]	; (8001014 <HAL_TIM_Base_MspInit+0x9c>)
 8000fb6:	2240      	movs	r2, #64	; 0x40
 8000fb8:	609a      	str	r2, [r3, #8]
    hdma_tim1_up.Init.PeriphInc = DMA_PINC_DISABLE;
 8000fba:	4b16      	ldr	r3, [pc, #88]	; (8001014 <HAL_TIM_Base_MspInit+0x9c>)
 8000fbc:	2200      	movs	r2, #0
 8000fbe:	60da      	str	r2, [r3, #12]
    hdma_tim1_up.Init.MemInc = DMA_MINC_ENABLE;
 8000fc0:	4b14      	ldr	r3, [pc, #80]	; (8001014 <HAL_TIM_Base_MspInit+0x9c>)
 8000fc2:	f44f 6280 	mov.w	r2, #1024	; 0x400
 8000fc6:	611a      	str	r2, [r3, #16]
    hdma_tim1_up.Init.PeriphDataAlignment = DMA_PDATAALIGN_BYTE;
 8000fc8:	4b12      	ldr	r3, [pc, #72]	; (8001014 <HAL_TIM_Base_MspInit+0x9c>)
 8000fca:	2200      	movs	r2, #0
 8000fcc:	615a      	str	r2, [r3, #20]
    hdma_tim1_up.Init.MemDataAlignment = DMA_MDATAALIGN_BYTE;
 8000fce:	4b11      	ldr	r3, [pc, #68]	; (8001014 <HAL_TIM_Base_MspInit+0x9c>)
 8000fd0:	2200      	movs	r2, #0
 8000fd2:	619a      	str	r2, [r3, #24]
    hdma_tim1_up.Init.Mode = DMA_NORMAL;
 8000fd4:	4b0f      	ldr	r3, [pc, #60]	; (8001014 <HAL_TIM_Base_MspInit+0x9c>)
 8000fd6:	2200      	movs	r2, #0
 8000fd8:	61da      	str	r2, [r3, #28]
    hdma_tim1_up.Init.Priority = DMA_PRIORITY_VERY_HIGH;
 8000fda:	4b0e      	ldr	r3, [pc, #56]	; (8001014 <HAL_TIM_Base_MspInit+0x9c>)
 8000fdc:	f44f 3240 	mov.w	r2, #196608	; 0x30000
 8000fe0:	621a      	str	r2, [r3, #32]
    hdma_tim1_up.Init.FIFOMode = DMA_FIFOMODE_DISABLE;
 8000fe2:	4b0c      	ldr	r3, [pc, #48]	; (8001014 <HAL_TIM_Base_MspInit+0x9c>)
 8000fe4:	2200      	movs	r2, #0
 8000fe6:	625a      	str	r2, [r3, #36]	; 0x24
    if (HAL_DMA_Init(&hdma_tim1_up) != HAL_OK)
 8000fe8:	480a      	ldr	r0, [pc, #40]	; (8001014 <HAL_TIM_Base_MspInit+0x9c>)
 8000fea:	f000 fbbf 	bl	800176c <HAL_DMA_Init>
 8000fee:	4603      	mov	r3, r0
 8000ff0:	2b00      	cmp	r3, #0
 8000ff2:	d001      	beq.n	8000ff8 <HAL_TIM_Base_MspInit+0x80>
    {
      Error_Handler();
 8000ff4:	f7ff fc86 	bl	8000904 <Error_Handler>
    }

    __HAL_LINKDMA(tim_baseHandle,hdma[TIM_DMA_ID_UPDATE],hdma_tim1_up);
 8000ff8:	687b      	ldr	r3, [r7, #4]
 8000ffa:	4a06      	ldr	r2, [pc, #24]	; (8001014 <HAL_TIM_Base_MspInit+0x9c>)
 8000ffc:	621a      	str	r2, [r3, #32]
 8000ffe:	4a05      	ldr	r2, [pc, #20]	; (8001014 <HAL_TIM_Base_MspInit+0x9c>)
 8001000:	687b      	ldr	r3, [r7, #4]
 8001002:	6393      	str	r3, [r2, #56]	; 0x38

  /* USER CODE BEGIN TIM1_MspInit 1 */

  /* USER CODE END TIM1_MspInit 1 */
  }
}
 8001004:	bf00      	nop
 8001006:	3710      	adds	r7, #16
 8001008:	46bd      	mov	sp, r7
 800100a:	bd80      	pop	{r7, pc}
 800100c:	40010000 	.word	0x40010000
 8001010:	40023800 	.word	0x40023800
 8001014:	20012e00 	.word	0x20012e00
 8001018:	40026488 	.word	0x40026488

0800101c <HAL_TIM_PWM_MspInit>:

void HAL_TIM_PWM_MspInit(TIM_HandleTypeDef* tim_pwmHandle)
{
 800101c:	b580      	push	{r7, lr}
 800101e:	b084      	sub	sp, #16
 8001020:	af00      	add	r7, sp, #0
 8001022:	6078      	str	r0, [r7, #4]

  if(tim_pwmHandle->Instance==TIM2)
 8001024:	687b      	ldr	r3, [r7, #4]
 8001026:	681b      	ldr	r3, [r3, #0]
 8001028:	f1b3 4f80 	cmp.w	r3, #1073741824	; 0x40000000
 800102c:	d115      	bne.n	800105a <HAL_TIM_PWM_MspInit+0x3e>
  {
  /* USER CODE BEGIN TIM2_MspInit 0 */

  /* USER CODE END TIM2_MspInit 0 */
    /* TIM2 clock enable */
    __HAL_RCC_TIM2_CLK_ENABLE();
 800102e:	2300      	movs	r3, #0
 8001030:	60fb      	str	r3, [r7, #12]
 8001032:	4b0c      	ldr	r3, [pc, #48]	; (8001064 <HAL_TIM_PWM_MspInit+0x48>)
 8001034:	6c1b      	ldr	r3, [r3, #64]	; 0x40
 8001036:	4a0b      	ldr	r2, [pc, #44]	; (8001064 <HAL_TIM_PWM_MspInit+0x48>)
 8001038:	f043 0301 	orr.w	r3, r3, #1
 800103c:	6413      	str	r3, [r2, #64]	; 0x40
 800103e:	4b09      	ldr	r3, [pc, #36]	; (8001064 <HAL_TIM_PWM_MspInit+0x48>)
 8001040:	6c1b      	ldr	r3, [r3, #64]	; 0x40
 8001042:	f003 0301 	and.w	r3, r3, #1
 8001046:	60fb      	str	r3, [r7, #12]
 8001048:	68fb      	ldr	r3, [r7, #12]

    /* TIM2 interrupt Init */
    HAL_NVIC_SetPriority(TIM2_IRQn, 0, 0);
 800104a:	2200      	movs	r2, #0
 800104c:	2100      	movs	r1, #0
 800104e:	201c      	movs	r0, #28
 8001050:	f000 fb55 	bl	80016fe <HAL_NVIC_SetPriority>
    HAL_NVIC_EnableIRQ(TIM2_IRQn);
 8001054:	201c      	movs	r0, #28
 8001056:	f000 fb6e 	bl	8001736 <HAL_NVIC_EnableIRQ>
  /* USER CODE BEGIN TIM2_MspInit 1 */

  /* USER CODE END TIM2_MspInit 1 */
  }
}
 800105a:	bf00      	nop
 800105c:	3710      	adds	r7, #16
 800105e:	46bd      	mov	sp, r7
 8001060:	bd80      	pop	{r7, pc}
 8001062:	bf00      	nop
 8001064:	40023800 	.word	0x40023800

08001068 <HAL_TIM_MspPostInit>:
void HAL_TIM_MspPostInit(TIM_HandleTypeDef* timHandle)
{
 8001068:	b580      	push	{r7, lr}
 800106a:	b088      	sub	sp, #32
 800106c:	af00      	add	r7, sp, #0
 800106e:	6078      	str	r0, [r7, #4]

  GPIO_InitTypeDef GPIO_InitStruct = {0};
 8001070:	f107 030c 	add.w	r3, r7, #12
 8001074:	2200      	movs	r2, #0
 8001076:	601a      	str	r2, [r3, #0]
 8001078:	605a      	str	r2, [r3, #4]
 800107a:	609a      	str	r2, [r3, #8]
 800107c:	60da      	str	r2, [r3, #12]
 800107e:	611a      	str	r2, [r3, #16]
  if(timHandle->Instance==TIM2)
 8001080:	687b      	ldr	r3, [r7, #4]
 8001082:	681b      	ldr	r3, [r3, #0]
 8001084:	f1b3 4f80 	cmp.w	r3, #1073741824	; 0x40000000
 8001088:	d11e      	bne.n	80010c8 <HAL_TIM_MspPostInit+0x60>
  {
  /* USER CODE BEGIN TIM2_MspPostInit 0 */

  /* USER CODE END TIM2_MspPostInit 0 */

    __HAL_RCC_GPIOB_CLK_ENABLE();
 800108a:	2300      	movs	r3, #0
 800108c:	60bb      	str	r3, [r7, #8]
 800108e:	4b10      	ldr	r3, [pc, #64]	; (80010d0 <HAL_TIM_MspPostInit+0x68>)
 8001090:	6b1b      	ldr	r3, [r3, #48]	; 0x30
 8001092:	4a0f      	ldr	r2, [pc, #60]	; (80010d0 <HAL_TIM_MspPostInit+0x68>)
 8001094:	f043 0302 	orr.w	r3, r3, #2
 8001098:	6313      	str	r3, [r2, #48]	; 0x30
 800109a:	4b0d      	ldr	r3, [pc, #52]	; (80010d0 <HAL_TIM_MspPostInit+0x68>)
 800109c:	6b1b      	ldr	r3, [r3, #48]	; 0x30
 800109e:	f003 0302 	and.w	r3, r3, #2
 80010a2:	60bb      	str	r3, [r7, #8]
 80010a4:	68bb      	ldr	r3, [r7, #8]
    /**TIM2 GPIO Configuration
    PB11     ------> TIM2_CH4
    */
    GPIO_InitStruct.Pin = VGA_HSYNC_Pin;
 80010a6:	f44f 6300 	mov.w	r3, #2048	; 0x800
 80010aa:	60fb      	str	r3, [r7, #12]
    GPIO_InitStruct.Mode = GPIO_MODE_AF_PP;
 80010ac:	2302      	movs	r3, #2
 80010ae:	613b      	str	r3, [r7, #16]
    GPIO_InitStruct.Pull = GPIO_NOPULL;
 80010b0:	2300      	movs	r3, #0
 80010b2:	617b      	str	r3, [r7, #20]
    GPIO_InitStruct.Speed = GPIO_SPEED_FREQ_VERY_HIGH;
 80010b4:	2303      	movs	r3, #3
 80010b6:	61bb      	str	r3, [r7, #24]
    GPIO_InitStruct.Alternate = GPIO_AF1_TIM2;
 80010b8:	2301      	movs	r3, #1
 80010ba:	61fb      	str	r3, [r7, #28]
    HAL_GPIO_Init(VGA_HSYNC_GPIO_Port, &GPIO_InitStruct);
 80010bc:	f107 030c 	add.w	r3, r7, #12
 80010c0:	4619      	mov	r1, r3
 80010c2:	4804      	ldr	r0, [pc, #16]	; (80010d4 <HAL_TIM_MspPostInit+0x6c>)
 80010c4:	f000 ff54 	bl	8001f70 <HAL_GPIO_Init>
  /* USER CODE BEGIN TIM2_MspPostInit 1 */

  /* USER CODE END TIM2_MspPostInit 1 */
  }

}
 80010c8:	bf00      	nop
 80010ca:	3720      	adds	r7, #32
 80010cc:	46bd      	mov	sp, r7
 80010ce:	bd80      	pop	{r7, pc}
 80010d0:	40023800 	.word	0x40023800
 80010d4:	40020400 	.word	0x40020400

080010d8 <MX_USART2_UART_Init>:
DMA_HandleTypeDef hdma_usart2_tx;

/* USART2 init function */

void MX_USART2_UART_Init(void)
{
 80010d8:	b580      	push	{r7, lr}
 80010da:	af00      	add	r7, sp, #0
  /* USER CODE END USART2_Init 0 */

  /* USER CODE BEGIN USART2_Init 1 */

  /* USER CODE END USART2_Init 1 */
  huart2.Instance = USART2;
 80010dc:	4b11      	ldr	r3, [pc, #68]	; (8001124 <MX_USART2_UART_Init+0x4c>)
 80010de:	4a12      	ldr	r2, [pc, #72]	; (8001128 <MX_USART2_UART_Init+0x50>)
 80010e0:	601a      	str	r2, [r3, #0]
  huart2.Init.BaudRate = 115200;
 80010e2:	4b10      	ldr	r3, [pc, #64]	; (8001124 <MX_USART2_UART_Init+0x4c>)
 80010e4:	f44f 32e1 	mov.w	r2, #115200	; 0x1c200
 80010e8:	605a      	str	r2, [r3, #4]
  huart2.Init.WordLength = UART_WORDLENGTH_8B;
 80010ea:	4b0e      	ldr	r3, [pc, #56]	; (8001124 <MX_USART2_UART_Init+0x4c>)
 80010ec:	2200      	movs	r2, #0
 80010ee:	609a      	str	r2, [r3, #8]
  huart2.Init.StopBits = UART_STOPBITS_1;
 80010f0:	4b0c      	ldr	r3, [pc, #48]	; (8001124 <MX_USART2_UART_Init+0x4c>)
 80010f2:	2200      	movs	r2, #0
 80010f4:	60da      	str	r2, [r3, #12]
  huart2.Init.Parity = UART_PARITY_NONE;
 80010f6:	4b0b      	ldr	r3, [pc, #44]	; (8001124 <MX_USART2_UART_Init+0x4c>)
 80010f8:	2200      	movs	r2, #0
 80010fa:	611a      	str	r2, [r3, #16]
  huart2.Init.Mode = UART_MODE_TX_RX;
 80010fc:	4b09      	ldr	r3, [pc, #36]	; (8001124 <MX_USART2_UART_Init+0x4c>)
 80010fe:	220c      	movs	r2, #12
 8001100:	615a      	str	r2, [r3, #20]
  huart2.Init.HwFlowCtl = UART_HWCONTROL_NONE;
 8001102:	4b08      	ldr	r3, [pc, #32]	; (8001124 <MX_USART2_UART_Init+0x4c>)
 8001104:	2200      	movs	r2, #0
 8001106:	619a      	str	r2, [r3, #24]
  huart2.Init.OverSampling = UART_OVERSAMPLING_16;
 8001108:	4b06      	ldr	r3, [pc, #24]	; (8001124 <MX_USART2_UART_Init+0x4c>)
 800110a:	2200      	movs	r2, #0
 800110c:	61da      	str	r2, [r3, #28]
  if (HAL_UART_Init(&huart2) != HAL_OK)
 800110e:	4805      	ldr	r0, [pc, #20]	; (8001124 <MX_USART2_UART_Init+0x4c>)
 8001110:	f002 fe92 	bl	8003e38 <HAL_UART_Init>
 8001114:	4603      	mov	r3, r0
 8001116:	2b00      	cmp	r3, #0
 8001118:	d001      	beq.n	800111e <MX_USART2_UART_Init+0x46>
  {
    Error_Handler();
 800111a:	f7ff fbf3 	bl	8000904 <Error_Handler>
  }
  /* USER CODE BEGIN USART2_Init 2 */

  /* USER CODE END USART2_Init 2 */

}
 800111e:	bf00      	nop
 8001120:	bd80      	pop	{r7, pc}
 8001122:	bf00      	nop
 8001124:	20013028 	.word	0x20013028
 8001128:	40004400 	.word	0x40004400

0800112c <HAL_UART_MspInit>:

void HAL_UART_MspInit(UART_HandleTypeDef* uartHandle)
{
 800112c:	b580      	push	{r7, lr}
 800112e:	b08a      	sub	sp, #40	; 0x28
 8001130:	af00      	add	r7, sp, #0
 8001132:	6078      	str	r0, [r7, #4]

  GPIO_InitTypeDef GPIO_InitStruct = {0};
 8001134:	f107 0314 	add.w	r3, r7, #20
 8001138:	2200      	movs	r2, #0
 800113a:	601a      	str	r2, [r3, #0]
 800113c:	605a      	str	r2, [r3, #4]
 800113e:	609a      	str	r2, [r3, #8]
 8001140:	60da      	str	r2, [r3, #12]
 8001142:	611a      	str	r2, [r3, #16]
  if(uartHandle->Instance==USART2)
 8001144:	687b      	ldr	r3, [r7, #4]
 8001146:	681b      	ldr	r3, [r3, #0]
 8001148:	4a4c      	ldr	r2, [pc, #304]	; (800127c <HAL_UART_MspInit+0x150>)
 800114a:	4293      	cmp	r3, r2
 800114c:	f040 8091 	bne.w	8001272 <HAL_UART_MspInit+0x146>
  {
  /* USER CODE BEGIN USART2_MspInit 0 */

  /* USER CODE END USART2_MspInit 0 */
    /* USART2 clock enable */
    __HAL_RCC_USART2_CLK_ENABLE();
 8001150:	2300      	movs	r3, #0
 8001152:	613b      	str	r3, [r7, #16]
 8001154:	4b4a      	ldr	r3, [pc, #296]	; (8001280 <HAL_UART_MspInit+0x154>)
 8001156:	6c1b      	ldr	r3, [r3, #64]	; 0x40
 8001158:	4a49      	ldr	r2, [pc, #292]	; (8001280 <HAL_UART_MspInit+0x154>)
 800115a:	f443 3300 	orr.w	r3, r3, #131072	; 0x20000
 800115e:	6413      	str	r3, [r2, #64]	; 0x40
 8001160:	4b47      	ldr	r3, [pc, #284]	; (8001280 <HAL_UART_MspInit+0x154>)
 8001162:	6c1b      	ldr	r3, [r3, #64]	; 0x40
 8001164:	f403 3300 	and.w	r3, r3, #131072	; 0x20000
 8001168:	613b      	str	r3, [r7, #16]
 800116a:	693b      	ldr	r3, [r7, #16]

    __HAL_RCC_GPIOA_CLK_ENABLE();
 800116c:	2300      	movs	r3, #0
 800116e:	60fb      	str	r3, [r7, #12]
 8001170:	4b43      	ldr	r3, [pc, #268]	; (8001280 <HAL_UART_MspInit+0x154>)
 8001172:	6b1b      	ldr	r3, [r3, #48]	; 0x30
 8001174:	4a42      	ldr	r2, [pc, #264]	; (8001280 <HAL_UART_MspInit+0x154>)
 8001176:	f043 0301 	orr.w	r3, r3, #1
 800117a:	6313      	str	r3, [r2, #48]	; 0x30
 800117c:	4b40      	ldr	r3, [pc, #256]	; (8001280 <HAL_UART_MspInit+0x154>)
 800117e:	6b1b      	ldr	r3, [r3, #48]	; 0x30
 8001180:	f003 0301 	and.w	r3, r3, #1
 8001184:	60fb      	str	r3, [r7, #12]
 8001186:	68fb      	ldr	r3, [r7, #12]
    /**USART2 GPIO Configuration
    PA2     ------> USART2_TX
    PA3     ------> USART2_RX
    */
    GPIO_InitStruct.Pin = GPIO_PIN_2|GPIO_PIN_3;
 8001188:	230c      	movs	r3, #12
 800118a:	617b      	str	r3, [r7, #20]
    GPIO_InitStruct.Mode = GPIO_MODE_AF_PP;
 800118c:	2302      	movs	r3, #2
 800118e:	61bb      	str	r3, [r7, #24]
    GPIO_InitStruct.Pull = GPIO_NOPULL;
 8001190:	2300      	movs	r3, #0
 8001192:	61fb      	str	r3, [r7, #28]
    GPIO_InitStruct.Speed = GPIO_SPEED_FREQ_VERY_HIGH;
 8001194:	2303      	movs	r3, #3
 8001196:	623b      	str	r3, [r7, #32]
    GPIO_InitStruct.Alternate = GPIO_AF7_USART2;
 8001198:	2307      	movs	r3, #7
 800119a:	627b      	str	r3, [r7, #36]	; 0x24
    HAL_GPIO_Init(GPIOA, &GPIO_InitStruct);
 800119c:	f107 0314 	add.w	r3, r7, #20
 80011a0:	4619      	mov	r1, r3
 80011a2:	4838      	ldr	r0, [pc, #224]	; (8001284 <HAL_UART_MspInit+0x158>)
 80011a4:	f000 fee4 	bl	8001f70 <HAL_GPIO_Init>

    /* USART2 DMA Init */
    /* USART2_RX Init */
    hdma_usart2_rx.Instance = DMA1_Stream5;
 80011a8:	4b37      	ldr	r3, [pc, #220]	; (8001288 <HAL_UART_MspInit+0x15c>)
 80011aa:	4a38      	ldr	r2, [pc, #224]	; (800128c <HAL_UART_MspInit+0x160>)
 80011ac:	601a      	str	r2, [r3, #0]
    hdma_usart2_rx.Init.Channel = DMA_CHANNEL_4;
 80011ae:	4b36      	ldr	r3, [pc, #216]	; (8001288 <HAL_UART_MspInit+0x15c>)
 80011b0:	f04f 6200 	mov.w	r2, #134217728	; 0x8000000
 80011b4:	605a      	str	r2, [r3, #4]
    hdma_usart2_rx.Init.Direction = DMA_PERIPH_TO_MEMORY;
 80011b6:	4b34      	ldr	r3, [pc, #208]	; (8001288 <HAL_UART_MspInit+0x15c>)
 80011b8:	2200      	movs	r2, #0
 80011ba:	609a      	str	r2, [r3, #8]
    hdma_usart2_rx.Init.PeriphInc = DMA_PINC_DISABLE;
 80011bc:	4b32      	ldr	r3, [pc, #200]	; (8001288 <HAL_UART_MspInit+0x15c>)
 80011be:	2200      	movs	r2, #0
 80011c0:	60da      	str	r2, [r3, #12]
    hdma_usart2_rx.Init.MemInc = DMA_MINC_ENABLE;
 80011c2:	4b31      	ldr	r3, [pc, #196]	; (8001288 <HAL_UART_MspInit+0x15c>)
 80011c4:	f44f 6280 	mov.w	r2, #1024	; 0x400
 80011c8:	611a      	str	r2, [r3, #16]
    hdma_usart2_rx.Init.PeriphDataAlignment = DMA_PDATAALIGN_BYTE;
 80011ca:	4b2f      	ldr	r3, [pc, #188]	; (8001288 <HAL_UART_MspInit+0x15c>)
 80011cc:	2200      	movs	r2, #0
 80011ce:	615a      	str	r2, [r3, #20]
    hdma_usart2_rx.Init.MemDataAlignment = DMA_MDATAALIGN_BYTE;
 80011d0:	4b2d      	ldr	r3, [pc, #180]	; (8001288 <HAL_UART_MspInit+0x15c>)
 80011d2:	2200      	movs	r2, #0
 80011d4:	619a      	str	r2, [r3, #24]
    hdma_usart2_rx.Init.Mode = DMA_CIRCULAR;
 80011d6:	4b2c      	ldr	r3, [pc, #176]	; (8001288 <HAL_UART_MspInit+0x15c>)
 80011d8:	f44f 7280 	mov.w	r2, #256	; 0x100
 80011dc:	61da      	str	r2, [r3, #28]
    hdma_usart2_rx.Init.Priority = DMA_PRIORITY_LOW;
 80011de:	4b2a      	ldr	r3, [pc, #168]	; (8001288 <HAL_UART_MspInit+0x15c>)
 80011e0:	2200      	movs	r2, #0
 80011e2:	621a      	str	r2, [r3, #32]
    hdma_usart2_rx.Init.FIFOMode = DMA_FIFOMODE_DISABLE;
 80011e4:	4b28      	ldr	r3, [pc, #160]	; (8001288 <HAL_UART_MspInit+0x15c>)
 80011e6:	2200      	movs	r2, #0
 80011e8:	625a      	str	r2, [r3, #36]	; 0x24
    if (HAL_DMA_Init(&hdma_usart2_rx) != HAL_OK)
 80011ea:	4827      	ldr	r0, [pc, #156]	; (8001288 <HAL_UART_MspInit+0x15c>)
 80011ec:	f000 fabe 	bl	800176c <HAL_DMA_Init>
 80011f0:	4603      	mov	r3, r0
 80011f2:	2b00      	cmp	r3, #0
 80011f4:	d001      	beq.n	80011fa <HAL_UART_MspInit+0xce>
    {
      Error_Handler();
 80011f6:	f7ff fb85 	bl	8000904 <Error_Handler>
    }

    __HAL_LINKDMA(uartHandle,hdmarx,hdma_usart2_rx);
 80011fa:	687b      	ldr	r3, [r7, #4]
 80011fc:	4a22      	ldr	r2, [pc, #136]	; (8001288 <HAL_UART_MspInit+0x15c>)
 80011fe:	639a      	str	r2, [r3, #56]	; 0x38
 8001200:	4a21      	ldr	r2, [pc, #132]	; (8001288 <HAL_UART_MspInit+0x15c>)
 8001202:	687b      	ldr	r3, [r7, #4]
 8001204:	6393      	str	r3, [r2, #56]	; 0x38

    /* USART2_TX Init */
    hdma_usart2_tx.Instance = DMA1_Stream6;
 8001206:	4b22      	ldr	r3, [pc, #136]	; (8001290 <HAL_UART_MspInit+0x164>)
 8001208:	4a22      	ldr	r2, [pc, #136]	; (8001294 <HAL_UART_MspInit+0x168>)
 800120a:	601a      	str	r2, [r3, #0]
    hdma_usart2_tx.Init.Channel = DMA_CHANNEL_4;
 800120c:	4b20      	ldr	r3, [pc, #128]	; (8001290 <HAL_UART_MspInit+0x164>)
 800120e:	f04f 6200 	mov.w	r2, #134217728	; 0x8000000
 8001212:	605a      	str	r2, [r3, #4]
    hdma_usart2_tx.Init.Direction = DMA_MEMORY_TO_PERIPH;
 8001214:	4b1e      	ldr	r3, [pc, #120]	; (8001290 <HAL_UART_MspInit+0x164>)
 8001216:	2240      	movs	r2, #64	; 0x40
 8001218:	609a      	str	r2, [r3, #8]
    hdma_usart2_tx.Init.PeriphInc = DMA_PINC_DISABLE;
 800121a:	4b1d      	ldr	r3, [pc, #116]	; (8001290 <HAL_UART_MspInit+0x164>)
 800121c:	2200      	movs	r2, #0
 800121e:	60da      	str	r2, [r3, #12]
    hdma_usart2_tx.Init.MemInc = DMA_MINC_ENABLE;
 8001220:	4b1b      	ldr	r3, [pc, #108]	; (8001290 <HAL_UART_MspInit+0x164>)
 8001222:	f44f 6280 	mov.w	r2, #1024	; 0x400
 8001226:	611a      	str	r2, [r3, #16]
    hdma_usart2_tx.Init.PeriphDataAlignment = DMA_PDATAALIGN_BYTE;
 8001228:	4b19      	ldr	r3, [pc, #100]	; (8001290 <HAL_UART_MspInit+0x164>)
 800122a:	2200      	movs	r2, #0
 800122c:	615a      	str	r2, [r3, #20]
    hdma_usart2_tx.Init.MemDataAlignment = DMA_MDATAALIGN_BYTE;
 800122e:	4b18      	ldr	r3, [pc, #96]	; (8001290 <HAL_UART_MspInit+0x164>)
 8001230:	2200      	movs	r2, #0
 8001232:	619a      	str	r2, [r3, #24]
    hdma_usart2_tx.Init.Mode = DMA_NORMAL;
 8001234:	4b16      	ldr	r3, [pc, #88]	; (8001290 <HAL_UART_MspInit+0x164>)
 8001236:	2200      	movs	r2, #0
 8001238:	61da      	str	r2, [r3, #28]
    hdma_usart2_tx.Init.Priority = DMA_PRIORITY_LOW;
 800123a:	4b15      	ldr	r3, [pc, #84]	; (8001290 <HAL_UART_MspInit+0x164>)
 800123c:	2200      	movs	r2, #0
 800123e:	621a      	str	r2, [r3, #32]
    hdma_usart2_tx.Init.FIFOMode = DMA_FIFOMODE_DISABLE;
 8001240:	4b13      	ldr	r3, [pc, #76]	; (8001290 <HAL_UART_MspInit+0x164>)
 8001242:	2200      	movs	r2, #0
 8001244:	625a      	str	r2, [r3, #36]	; 0x24
    if (HAL_DMA_Init(&hdma_usart2_tx) != HAL_OK)
 8001246:	4812      	ldr	r0, [pc, #72]	; (8001290 <HAL_UART_MspInit+0x164>)
 8001248:	f000 fa90 	bl	800176c <HAL_DMA_Init>
 800124c:	4603      	mov	r3, r0
 800124e:	2b00      	cmp	r3, #0
 8001250:	d001      	beq.n	8001256 <HAL_UART_MspInit+0x12a>
    {
      Error_Handler();
 8001252:	f7ff fb57 	bl	8000904 <Error_Handler>
    }

    __HAL_LINKDMA(uartHandle,hdmatx,hdma_usart2_tx);
 8001256:	687b      	ldr	r3, [r7, #4]
 8001258:	4a0d      	ldr	r2, [pc, #52]	; (8001290 <HAL_UART_MspInit+0x164>)
 800125a:	635a      	str	r2, [r3, #52]	; 0x34
 800125c:	4a0c      	ldr	r2, [pc, #48]	; (8001290 <HAL_UART_MspInit+0x164>)
 800125e:	687b      	ldr	r3, [r7, #4]
 8001260:	6393      	str	r3, [r2, #56]	; 0x38

    /* USART2 interrupt Init */
    HAL_NVIC_SetPriority(USART2_IRQn, 0, 0);
 8001262:	2200      	movs	r2, #0
 8001264:	2100      	movs	r1, #0
 8001266:	2026      	movs	r0, #38	; 0x26
 8001268:	f000 fa49 	bl	80016fe <HAL_NVIC_SetPriority>
    HAL_NVIC_EnableIRQ(USART2_IRQn);
 800126c:	2026      	movs	r0, #38	; 0x26
 800126e:	f000 fa62 	bl	8001736 <HAL_NVIC_EnableIRQ>
  /* USER CODE BEGIN USART2_MspInit 1 */

  /* USER CODE END USART2_MspInit 1 */
  }
}
 8001272:	bf00      	nop
 8001274:	3728      	adds	r7, #40	; 0x28
 8001276:	46bd      	mov	sp, r7
 8001278:	bd80      	pop	{r7, pc}
 800127a:	bf00      	nop
 800127c:	40004400 	.word	0x40004400
 8001280:	40023800 	.word	0x40023800
 8001284:	40020000 	.word	0x40020000
 8001288:	20012f28 	.word	0x20012f28
 800128c:	40026088 	.word	0x40026088
 8001290:	20012f88 	.word	0x20012f88
 8001294:	400260a0 	.word	0x400260a0

08001298 <HAL_UART_RxCpltCallback>:
  }
}

/* USER CODE BEGIN 1 */

void HAL_UART_RxCpltCallback(UART_HandleTypeDef *huart) {
 8001298:	b580      	push	{r7, lr}
 800129a:	b086      	sub	sp, #24
 800129c:	af00      	add	r7, sp, #0
 800129e:	6078      	str	r0, [r7, #4]
	// idle detection needs at least one UART clock to detect the bus is idle. So
	// in the case, that the transmission length is one full buffer length
	// and the start buffer pointer is at 0, it will be also 0 at the end of the
	// transmission. In this case the DMA rollover will increment the RxRollover
	// variable first and len will not be zero.
	if(__HAL_UART_GET_FLAG(huart, UART_FLAG_IDLE)) {									// Check if it is an "Idle Interrupt"
 80012a0:	687b      	ldr	r3, [r7, #4]
 80012a2:	681b      	ldr	r3, [r3, #0]
 80012a4:	681b      	ldr	r3, [r3, #0]
 80012a6:	f003 0310 	and.w	r3, r3, #16
 80012aa:	2b10      	cmp	r3, #16
 80012ac:	f040 8085 	bne.w	80013ba <HAL_UART_RxCpltCallback+0x122>
		__HAL_UART_CLEAR_IDLEFLAG(&huart2);												// clear the interrupt
 80012b0:	2300      	movs	r3, #0
 80012b2:	60fb      	str	r3, [r7, #12]
 80012b4:	4b46      	ldr	r3, [pc, #280]	; (80013d0 <HAL_UART_RxCpltCallback+0x138>)
 80012b6:	681b      	ldr	r3, [r3, #0]
 80012b8:	681b      	ldr	r3, [r3, #0]
 80012ba:	60fb      	str	r3, [r7, #12]
 80012bc:	4b44      	ldr	r3, [pc, #272]	; (80013d0 <HAL_UART_RxCpltCallback+0x138>)
 80012be:	681b      	ldr	r3, [r3, #0]
 80012c0:	685b      	ldr	r3, [r3, #4]
 80012c2:	60fb      	str	r3, [r7, #12]
 80012c4:	68fb      	ldr	r3, [r7, #12]
		RxCounter++;																	// increment the Rx Counter
 80012c6:	4b43      	ldr	r3, [pc, #268]	; (80013d4 <HAL_UART_RxCpltCallback+0x13c>)
 80012c8:	781b      	ldrb	r3, [r3, #0]
 80012ca:	3301      	adds	r3, #1
 80012cc:	b2da      	uxtb	r2, r3
 80012ce:	4b41      	ldr	r3, [pc, #260]	; (80013d4 <HAL_UART_RxCpltCallback+0x13c>)
 80012d0:	701a      	strb	r2, [r3, #0]

		uint8_t TxSize = 0;
 80012d2:	2300      	movs	r3, #0
 80012d4:	753b      	strb	r3, [r7, #20]
		uint16_t start = RxBfrPos;														// Rx bytes start position (=last buffer position)
 80012d6:	4b40      	ldr	r3, [pc, #256]	; (80013d8 <HAL_UART_RxCpltCallback+0x140>)
 80012d8:	781b      	ldrb	r3, [r3, #0]
 80012da:	827b      	strh	r3, [r7, #18]
		RxBfrPos = RX_BUFSIZE - (uint16_t)huart->hdmarx->Instance->NDTR;				// determine actual buffer position
 80012dc:	687b      	ldr	r3, [r7, #4]
 80012de:	6b9b      	ldr	r3, [r3, #56]	; 0x38
 80012e0:	681b      	ldr	r3, [r3, #0]
 80012e2:	685b      	ldr	r3, [r3, #4]
 80012e4:	b2da      	uxtb	r2, r3
 80012e6:	f06f 037f 	mvn.w	r3, #127	; 0x7f
 80012ea:	1a9b      	subs	r3, r3, r2
 80012ec:	b2da      	uxtb	r2, r3
 80012ee:	4b3a      	ldr	r3, [pc, #232]	; (80013d8 <HAL_UART_RxCpltCallback+0x140>)
 80012f0:	701a      	strb	r2, [r3, #0]
		uint16_t len = RX_BUFSIZE;														// init len with max. size
 80012f2:	2380      	movs	r3, #128	; 0x80
 80012f4:	82fb      	strh	r3, [r7, #22]
		UART2_txBuffer[0] = '\0';
 80012f6:	4b39      	ldr	r3, [pc, #228]	; (80013dc <HAL_UART_RxCpltCallback+0x144>)
 80012f8:	2200      	movs	r2, #0
 80012fa:	701a      	strb	r2, [r3, #0]

		if(RxRollover < 2)  {
 80012fc:	4b38      	ldr	r3, [pc, #224]	; (80013e0 <HAL_UART_RxCpltCallback+0x148>)
 80012fe:	781b      	ldrb	r3, [r3, #0]
 8001300:	2b01      	cmp	r3, #1
 8001302:	d81c      	bhi.n	800133e <HAL_UART_RxCpltCallback+0xa6>
			if(RxRollover) {															// rolled over once
 8001304:	4b36      	ldr	r3, [pc, #216]	; (80013e0 <HAL_UART_RxCpltCallback+0x148>)
 8001306:	781b      	ldrb	r3, [r3, #0]
 8001308:	2b00      	cmp	r3, #0
 800130a:	d011      	beq.n	8001330 <HAL_UART_RxCpltCallback+0x98>
				if(RxBfrPos <= start) len = RxBfrPos + RX_BUFSIZE - start;				// no bytes overwritten
 800130c:	4b32      	ldr	r3, [pc, #200]	; (80013d8 <HAL_UART_RxCpltCallback+0x140>)
 800130e:	781b      	ldrb	r3, [r3, #0]
 8001310:	b29b      	uxth	r3, r3
 8001312:	8a7a      	ldrh	r2, [r7, #18]
 8001314:	429a      	cmp	r2, r3
 8001316:	d308      	bcc.n	800132a <HAL_UART_RxCpltCallback+0x92>
 8001318:	4b2f      	ldr	r3, [pc, #188]	; (80013d8 <HAL_UART_RxCpltCallback+0x140>)
 800131a:	781b      	ldrb	r3, [r3, #0]
 800131c:	b29a      	uxth	r2, r3
 800131e:	8a7b      	ldrh	r3, [r7, #18]
 8001320:	1ad3      	subs	r3, r2, r3
 8001322:	b29b      	uxth	r3, r3
 8001324:	3380      	adds	r3, #128	; 0x80
 8001326:	82fb      	strh	r3, [r7, #22]
 8001328:	e00b      	b.n	8001342 <HAL_UART_RxCpltCallback+0xaa>
				else len = RX_BUFSIZE + 1;												// bytes overwritten error
 800132a:	2381      	movs	r3, #129	; 0x81
 800132c:	82fb      	strh	r3, [r7, #22]
 800132e:	e008      	b.n	8001342 <HAL_UART_RxCpltCallback+0xaa>
			} else {
				len = RxBfrPos - start;													// no bytes overwritten
 8001330:	4b29      	ldr	r3, [pc, #164]	; (80013d8 <HAL_UART_RxCpltCallback+0x140>)
 8001332:	781b      	ldrb	r3, [r3, #0]
 8001334:	b29a      	uxth	r2, r3
 8001336:	8a7b      	ldrh	r3, [r7, #18]
 8001338:	1ad3      	subs	r3, r2, r3
 800133a:	82fb      	strh	r3, [r7, #22]
 800133c:	e001      	b.n	8001342 <HAL_UART_RxCpltCallback+0xaa>
			}
		} else {
			len = RX_BUFSIZE + 2;														// dual rollover error
 800133e:	2382      	movs	r3, #130	; 0x82
 8001340:	82fb      	strh	r3, [r7, #22]
		}

		if(len && (len <= RX_BUFSIZE)) {
 8001342:	8afb      	ldrh	r3, [r7, #22]
 8001344:	2b00      	cmp	r3, #0
 8001346:	d025      	beq.n	8001394 <HAL_UART_RxCpltCallback+0xfc>
 8001348:	8afb      	ldrh	r3, [r7, #22]
 800134a:	2b80      	cmp	r3, #128	; 0x80
 800134c:	d822      	bhi.n	8001394 <HAL_UART_RxCpltCallback+0xfc>
				sprintf(UART2_txBuffer, "ACK RxC:%d S:%d L:%d RO:%d RXp:%d >>", RxCounter, start, len, RxRollover, RxBfrPos);

			#else
				//sprintf(UART2_txBuffer, "U heeft ingevoerd:");
			#endif
			TxSize = strlen(UART2_txBuffer);
 800134e:	4823      	ldr	r0, [pc, #140]	; (80013dc <HAL_UART_RxCpltCallback+0x144>)
 8001350:	f7fe ff48 	bl	80001e4 <strlen>
 8001354:	4603      	mov	r3, r0
 8001356:	753b      	strb	r3, [r7, #20]

			// add received bytes to UART2_txBuffer
			uint8_t i;
			for(i = 0; i < len; i++) *(UART2_txBuffer + TxSize + i) = *(UART2_rxBuffer + ((start + i) % RX_BUFSIZE));
 8001358:	2300      	movs	r3, #0
 800135a:	757b      	strb	r3, [r7, #21]
 800135c:	e010      	b.n	8001380 <HAL_UART_RxCpltCallback+0xe8>
 800135e:	8a7a      	ldrh	r2, [r7, #18]
 8001360:	7d7b      	ldrb	r3, [r7, #21]
 8001362:	4413      	add	r3, r2
 8001364:	f003 037f 	and.w	r3, r3, #127	; 0x7f
 8001368:	4a1e      	ldr	r2, [pc, #120]	; (80013e4 <HAL_UART_RxCpltCallback+0x14c>)
 800136a:	441a      	add	r2, r3
 800136c:	7d39      	ldrb	r1, [r7, #20]
 800136e:	7d7b      	ldrb	r3, [r7, #21]
 8001370:	440b      	add	r3, r1
 8001372:	491a      	ldr	r1, [pc, #104]	; (80013dc <HAL_UART_RxCpltCallback+0x144>)
 8001374:	440b      	add	r3, r1
 8001376:	7812      	ldrb	r2, [r2, #0]
 8001378:	701a      	strb	r2, [r3, #0]
 800137a:	7d7b      	ldrb	r3, [r7, #21]
 800137c:	3301      	adds	r3, #1
 800137e:	757b      	strb	r3, [r7, #21]
 8001380:	7d7b      	ldrb	r3, [r7, #21]
 8001382:	b29b      	uxth	r3, r3
 8001384:	8afa      	ldrh	r2, [r7, #22]
 8001386:	429a      	cmp	r2, r3
 8001388:	d8e9      	bhi.n	800135e <HAL_UART_RxCpltCallback+0xc6>
			TxSize += i;
 800138a:	7d3a      	ldrb	r2, [r7, #20]
 800138c:	7d7b      	ldrb	r3, [r7, #21]
 800138e:	4413      	add	r3, r2
 8001390:	753b      	strb	r3, [r7, #20]
		if(len && (len <= RX_BUFSIZE)) {
 8001392:	e00b      	b.n	80013ac <HAL_UART_RxCpltCallback+0x114>
		} else {
			// buffer overflow error:
			sprintf(UART2_txBuffer, "NAK RX BUFFER OVERFLOW ERROR %d\r\n", (len - RX_BUFSIZE));	// Change error message
 8001394:	8afb      	ldrh	r3, [r7, #22]
 8001396:	3b80      	subs	r3, #128	; 0x80
 8001398:	461a      	mov	r2, r3
 800139a:	4913      	ldr	r1, [pc, #76]	; (80013e8 <HAL_UART_RxCpltCallback+0x150>)
 800139c:	480f      	ldr	r0, [pc, #60]	; (80013dc <HAL_UART_RxCpltCallback+0x144>)
 800139e:	f003 fd83 	bl	8004ea8 <siprintf>
			TxSize = strlen(UART2_txBuffer);
 80013a2:	480e      	ldr	r0, [pc, #56]	; (80013dc <HAL_UART_RxCpltCallback+0x144>)
 80013a4:	f7fe ff1e 	bl	80001e4 <strlen>
 80013a8:	4603      	mov	r3, r0
 80013aa:	753b      	strb	r3, [r7, #20]
		}

		FL_Parse(UART2_txBuffer);
 80013ac:	480b      	ldr	r0, [pc, #44]	; (80013dc <HAL_UART_RxCpltCallback+0x144>)
 80013ae:	f7ff f8f3 	bl	8000598 <FL_Parse>

		//HAL_UART_Transmit_DMA(&huart2, (uint8_t*)UART2_txBuffer, TxSize);						// send a response

		RxRollover = 0;																	// reset the Rollover variable
 80013b2:	4b0b      	ldr	r3, [pc, #44]	; (80013e0 <HAL_UART_RxCpltCallback+0x148>)
 80013b4:	2200      	movs	r2, #0
 80013b6:	701a      	strb	r2, [r3, #0]
	} else {
		// no idle flag? --> DMA rollover occurred
		RxRollover++;		// increment Rollover Counter
	}
}
 80013b8:	e005      	b.n	80013c6 <HAL_UART_RxCpltCallback+0x12e>
		RxRollover++;		// increment Rollover Counter
 80013ba:	4b09      	ldr	r3, [pc, #36]	; (80013e0 <HAL_UART_RxCpltCallback+0x148>)
 80013bc:	781b      	ldrb	r3, [r3, #0]
 80013be:	3301      	adds	r3, #1
 80013c0:	b2da      	uxtb	r2, r3
 80013c2:	4b07      	ldr	r3, [pc, #28]	; (80013e0 <HAL_UART_RxCpltCallback+0x148>)
 80013c4:	701a      	strb	r2, [r3, #0]
}
 80013c6:	bf00      	nop
 80013c8:	3718      	adds	r7, #24
 80013ca:	46bd      	mov	sp, r7
 80013cc:	bd80      	pop	{r7, pc}
 80013ce:	bf00      	nop
 80013d0:	20013028 	.word	0x20013028
 80013d4:	200000b1 	.word	0x200000b1
 80013d8:	200000b2 	.word	0x200000b2
 80013dc:	20012fe8 	.word	0x20012fe8
 80013e0:	200000b0 	.word	0x200000b0
 80013e4:	20012ea8 	.word	0x20012ea8
 80013e8:	080062c8 	.word	0x080062c8

080013ec <HAL_UART_TxCpltCallback>:

void HAL_UART_TxCpltCallback(UART_HandleTypeDef *huart) {
 80013ec:	b480      	push	{r7}
 80013ee:	b083      	sub	sp, #12
 80013f0:	af00      	add	r7, sp, #0
 80013f2:	6078      	str	r0, [r7, #4]
	// UART Tx Complete Callback;
	TxCounter++;
 80013f4:	4b05      	ldr	r3, [pc, #20]	; (800140c <HAL_UART_TxCpltCallback+0x20>)
 80013f6:	781b      	ldrb	r3, [r3, #0]
 80013f8:	3301      	adds	r3, #1
 80013fa:	b2da      	uxtb	r2, r3
 80013fc:	4b03      	ldr	r3, [pc, #12]	; (800140c <HAL_UART_TxCpltCallback+0x20>)
 80013fe:	701a      	strb	r2, [r3, #0]
}
 8001400:	bf00      	nop
 8001402:	370c      	adds	r7, #12
 8001404:	46bd      	mov	sp, r7
 8001406:	f85d 7b04 	ldr.w	r7, [sp], #4
 800140a:	4770      	bx	lr
 800140c:	200000b3 	.word	0x200000b3

08001410 <Reset_Handler>:

    .section  .text.Reset_Handler
  .weak  Reset_Handler
  .type  Reset_Handler, %function
Reset_Handler:  
  ldr   sp, =_estack     /* set stack pointer */
 8001410:	f8df d034 	ldr.w	sp, [pc, #52]	; 8001448 <LoopFillZerobss+0x14>

/* Copy the data segment initializers from flash to SRAM */  
  movs  r1, #0
 8001414:	2100      	movs	r1, #0
  b  LoopCopyDataInit
 8001416:	e003      	b.n	8001420 <LoopCopyDataInit>

08001418 <CopyDataInit>:

CopyDataInit:
  ldr  r3, =_sidata
 8001418:	4b0c      	ldr	r3, [pc, #48]	; (800144c <LoopFillZerobss+0x18>)
  ldr  r3, [r3, r1]
 800141a:	585b      	ldr	r3, [r3, r1]
  str  r3, [r0, r1]
 800141c:	5043      	str	r3, [r0, r1]
  adds  r1, r1, #4
 800141e:	3104      	adds	r1, #4

08001420 <LoopCopyDataInit>:
    
LoopCopyDataInit:
  ldr  r0, =_sdata
 8001420:	480b      	ldr	r0, [pc, #44]	; (8001450 <LoopFillZerobss+0x1c>)
  ldr  r3, =_edata
 8001422:	4b0c      	ldr	r3, [pc, #48]	; (8001454 <LoopFillZerobss+0x20>)
  adds  r2, r0, r1
 8001424:	1842      	adds	r2, r0, r1
  cmp  r2, r3
 8001426:	429a      	cmp	r2, r3
  bcc  CopyDataInit
 8001428:	d3f6      	bcc.n	8001418 <CopyDataInit>
  ldr  r2, =_sbss
 800142a:	4a0b      	ldr	r2, [pc, #44]	; (8001458 <LoopFillZerobss+0x24>)
  b  LoopFillZerobss
 800142c:	e002      	b.n	8001434 <LoopFillZerobss>

0800142e <FillZerobss>:
/* Zero fill the bss segment. */  
FillZerobss:
  movs  r3, #0
 800142e:	2300      	movs	r3, #0
  str  r3, [r2], #4
 8001430:	f842 3b04 	str.w	r3, [r2], #4

08001434 <LoopFillZerobss>:
    
LoopFillZerobss:
  ldr  r3, = _ebss
 8001434:	4b09      	ldr	r3, [pc, #36]	; (800145c <LoopFillZerobss+0x28>)
  cmp  r2, r3
 8001436:	429a      	cmp	r2, r3
  bcc  FillZerobss
 8001438:	d3f9      	bcc.n	800142e <FillZerobss>

/* Call the clock system intitialization function.*/
  bl  SystemInit   
 800143a:	f7ff fccf 	bl	8000ddc <SystemInit>
/* Call static constructors */
    bl __libc_init_array
 800143e:	f003 fd07 	bl	8004e50 <__libc_init_array>
/* Call the application's entry point.*/
  bl  main
 8001442:	f7ff f9b1 	bl	80007a8 <main>
  bx  lr    
 8001446:	4770      	bx	lr
  ldr   sp, =_estack     /* set stack pointer */
 8001448:	20020000 	.word	0x20020000
  ldr  r3, =_sidata
 800144c:	08006468 	.word	0x08006468
  ldr  r0, =_sdata
 8001450:	20000000 	.word	0x20000000
  ldr  r3, =_edata
 8001454:	20000090 	.word	0x20000090
  ldr  r2, =_sbss
 8001458:	20000090 	.word	0x20000090
  ldr  r3, = _ebss
 800145c:	20013080 	.word	0x20013080

08001460 <ADC_IRQHandler>:
 * @retval None       
*/
    .section  .text.Default_Handler,"ax",%progbits
Default_Handler:
Infinite_Loop:
  b  Infinite_Loop
 8001460:	e7fe      	b.n	8001460 <ADC_IRQHandler>
	...

08001464 <HAL_Init>:
  *         need to ensure that the SysTick time base is always set to 1 millisecond
  *         to have correct HAL operation.
  * @retval HAL status
  */
HAL_StatusTypeDef HAL_Init(void)
{
 8001464:	b580      	push	{r7, lr}
 8001466:	af00      	add	r7, sp, #0
  /* Configure Flash prefetch, Instruction cache, Data cache */ 
#if (INSTRUCTION_CACHE_ENABLE != 0U)
  __HAL_FLASH_INSTRUCTION_CACHE_ENABLE();
 8001468:	4b0e      	ldr	r3, [pc, #56]	; (80014a4 <HAL_Init+0x40>)
 800146a:	681b      	ldr	r3, [r3, #0]
 800146c:	4a0d      	ldr	r2, [pc, #52]	; (80014a4 <HAL_Init+0x40>)
 800146e:	f443 7300 	orr.w	r3, r3, #512	; 0x200
 8001472:	6013      	str	r3, [r2, #0]
#endif /* INSTRUCTION_CACHE_ENABLE */

#if (DATA_CACHE_ENABLE != 0U)
  __HAL_FLASH_DATA_CACHE_ENABLE();
 8001474:	4b0b      	ldr	r3, [pc, #44]	; (80014a4 <HAL_Init+0x40>)
 8001476:	681b      	ldr	r3, [r3, #0]
 8001478:	4a0a      	ldr	r2, [pc, #40]	; (80014a4 <HAL_Init+0x40>)
 800147a:	f443 6380 	orr.w	r3, r3, #1024	; 0x400
 800147e:	6013      	str	r3, [r2, #0]
#endif /* DATA_CACHE_ENABLE */

#if (PREFETCH_ENABLE != 0U)
  __HAL_FLASH_PREFETCH_BUFFER_ENABLE();
 8001480:	4b08      	ldr	r3, [pc, #32]	; (80014a4 <HAL_Init+0x40>)
 8001482:	681b      	ldr	r3, [r3, #0]
 8001484:	4a07      	ldr	r2, [pc, #28]	; (80014a4 <HAL_Init+0x40>)
 8001486:	f443 7380 	orr.w	r3, r3, #256	; 0x100
 800148a:	6013      	str	r3, [r2, #0]
#endif /* PREFETCH_ENABLE */

  /* Set Interrupt Group Priority */
  HAL_NVIC_SetPriorityGrouping(NVIC_PRIORITYGROUP_4);
 800148c:	2003      	movs	r0, #3
 800148e:	f000 f92b 	bl	80016e8 <HAL_NVIC_SetPriorityGrouping>

  /* Use systick as time base source and configure 1ms tick (default clock after Reset is HSI) */
  HAL_InitTick(TICK_INT_PRIORITY);
 8001492:	2000      	movs	r0, #0
 8001494:	f000 f808 	bl	80014a8 <HAL_InitTick>

  /* Init the low level hardware */
  HAL_MspInit();
 8001498:	f7ff fada 	bl	8000a50 <HAL_MspInit>

  /* Return function status */
  return HAL_OK;
 800149c:	2300      	movs	r3, #0
}
 800149e:	4618      	mov	r0, r3
 80014a0:	bd80      	pop	{r7, pc}
 80014a2:	bf00      	nop
 80014a4:	40023c00 	.word	0x40023c00

080014a8 <HAL_InitTick>:
  *       implementation  in user file.
  * @param TickPriority Tick interrupt priority.
  * @retval HAL status
  */
__weak HAL_StatusTypeDef HAL_InitTick(uint32_t TickPriority)
{
 80014a8:	b580      	push	{r7, lr}
 80014aa:	b082      	sub	sp, #8
 80014ac:	af00      	add	r7, sp, #0
 80014ae:	6078      	str	r0, [r7, #4]
  /* Configure the SysTick to have interrupt in 1ms time basis*/
  if (HAL_SYSTICK_Config(SystemCoreClock / (1000U / uwTickFreq)) > 0U)
 80014b0:	4b12      	ldr	r3, [pc, #72]	; (80014fc <HAL_InitTick+0x54>)
 80014b2:	681a      	ldr	r2, [r3, #0]
 80014b4:	4b12      	ldr	r3, [pc, #72]	; (8001500 <HAL_InitTick+0x58>)
 80014b6:	781b      	ldrb	r3, [r3, #0]
 80014b8:	4619      	mov	r1, r3
 80014ba:	f44f 737a 	mov.w	r3, #1000	; 0x3e8
 80014be:	fbb3 f3f1 	udiv	r3, r3, r1
 80014c2:	fbb2 f3f3 	udiv	r3, r2, r3
 80014c6:	4618      	mov	r0, r3
 80014c8:	f000 f943 	bl	8001752 <HAL_SYSTICK_Config>
 80014cc:	4603      	mov	r3, r0
 80014ce:	2b00      	cmp	r3, #0
 80014d0:	d001      	beq.n	80014d6 <HAL_InitTick+0x2e>
  {
    return HAL_ERROR;
 80014d2:	2301      	movs	r3, #1
 80014d4:	e00e      	b.n	80014f4 <HAL_InitTick+0x4c>
  }

  /* Configure the SysTick IRQ priority */
  if (TickPriority < (1UL << __NVIC_PRIO_BITS))
 80014d6:	687b      	ldr	r3, [r7, #4]
 80014d8:	2b0f      	cmp	r3, #15
 80014da:	d80a      	bhi.n	80014f2 <HAL_InitTick+0x4a>
  {
    HAL_NVIC_SetPriority(SysTick_IRQn, TickPriority, 0U);
 80014dc:	2200      	movs	r2, #0
 80014de:	6879      	ldr	r1, [r7, #4]
 80014e0:	f04f 30ff 	mov.w	r0, #4294967295
 80014e4:	f000 f90b 	bl	80016fe <HAL_NVIC_SetPriority>
    uwTickPrio = TickPriority;
 80014e8:	4a06      	ldr	r2, [pc, #24]	; (8001504 <HAL_InitTick+0x5c>)
 80014ea:	687b      	ldr	r3, [r7, #4]
 80014ec:	6013      	str	r3, [r2, #0]
  {
    return HAL_ERROR;
  }

  /* Return function status */
  return HAL_OK;
 80014ee:	2300      	movs	r3, #0
 80014f0:	e000      	b.n	80014f4 <HAL_InitTick+0x4c>
    return HAL_ERROR;
 80014f2:	2301      	movs	r3, #1
}
 80014f4:	4618      	mov	r0, r3
 80014f6:	3708      	adds	r7, #8
 80014f8:	46bd      	mov	sp, r7
 80014fa:	bd80      	pop	{r7, pc}
 80014fc:	20000020 	.word	0x20000020
 8001500:	20000028 	.word	0x20000028
 8001504:	20000024 	.word	0x20000024

08001508 <HAL_IncTick>:
 * @note This function is declared as __weak to be overwritten in case of other 
  *      implementations in user file.
  * @retval None
  */
__weak void HAL_IncTick(void)
{
 8001508:	b480      	push	{r7}
 800150a:	af00      	add	r7, sp, #0
  uwTick += uwTickFreq;
 800150c:	4b06      	ldr	r3, [pc, #24]	; (8001528 <HAL_IncTick+0x20>)
 800150e:	781b      	ldrb	r3, [r3, #0]
 8001510:	461a      	mov	r2, r3
 8001512:	4b06      	ldr	r3, [pc, #24]	; (800152c <HAL_IncTick+0x24>)
 8001514:	681b      	ldr	r3, [r3, #0]
 8001516:	4413      	add	r3, r2
 8001518:	4a04      	ldr	r2, [pc, #16]	; (800152c <HAL_IncTick+0x24>)
 800151a:	6013      	str	r3, [r2, #0]
}
 800151c:	bf00      	nop
 800151e:	46bd      	mov	sp, r7
 8001520:	f85d 7b04 	ldr.w	r7, [sp], #4
 8001524:	4770      	bx	lr
 8001526:	bf00      	nop
 8001528:	20000028 	.word	0x20000028
 800152c:	2001306c 	.word	0x2001306c

08001530 <HAL_GetTick>:
  * @note This function is declared as __weak to be overwritten in case of other 
  *       implementations in user file.
  * @retval tick value
  */
__weak uint32_t HAL_GetTick(void)
{
 8001530:	b480      	push	{r7}
 8001532:	af00      	add	r7, sp, #0
  return uwTick;
 8001534:	4b03      	ldr	r3, [pc, #12]	; (8001544 <HAL_GetTick+0x14>)
 8001536:	681b      	ldr	r3, [r3, #0]
}
 8001538:	4618      	mov	r0, r3
 800153a:	46bd      	mov	sp, r7
 800153c:	f85d 7b04 	ldr.w	r7, [sp], #4
 8001540:	4770      	bx	lr
 8001542:	bf00      	nop
 8001544:	2001306c 	.word	0x2001306c

08001548 <__NVIC_SetPriorityGrouping>:
           In case of a conflict between priority grouping and available
           priority bits (__NVIC_PRIO_BITS), the smallest possible priority group is set.
  \param [in]      PriorityGroup  Priority grouping field.
 */
__STATIC_INLINE void __NVIC_SetPriorityGrouping(uint32_t PriorityGroup)
{
 8001548:	b480      	push	{r7}
 800154a:	b085      	sub	sp, #20
 800154c:	af00      	add	r7, sp, #0
 800154e:	6078      	str	r0, [r7, #4]
  uint32_t reg_value;
  uint32_t PriorityGroupTmp = (PriorityGroup & (uint32_t)0x07UL);             /* only values 0..7 are used          */
 8001550:	687b      	ldr	r3, [r7, #4]
 8001552:	f003 0307 	and.w	r3, r3, #7
 8001556:	60fb      	str	r3, [r7, #12]

  reg_value  =  SCB->AIRCR;                                                   /* read old register configuration    */
 8001558:	4b0c      	ldr	r3, [pc, #48]	; (800158c <__NVIC_SetPriorityGrouping+0x44>)
 800155a:	68db      	ldr	r3, [r3, #12]
 800155c:	60bb      	str	r3, [r7, #8]
  reg_value &= ~((uint32_t)(SCB_AIRCR_VECTKEY_Msk | SCB_AIRCR_PRIGROUP_Msk)); /* clear bits to change               */
 800155e:	68ba      	ldr	r2, [r7, #8]
 8001560:	f64f 03ff 	movw	r3, #63743	; 0xf8ff
 8001564:	4013      	ands	r3, r2
 8001566:	60bb      	str	r3, [r7, #8]
  reg_value  =  (reg_value                                   |
                ((uint32_t)0x5FAUL << SCB_AIRCR_VECTKEY_Pos) |
                (PriorityGroupTmp << SCB_AIRCR_PRIGROUP_Pos)  );              /* Insert write key and priority group */
 8001568:	68fb      	ldr	r3, [r7, #12]
 800156a:	021a      	lsls	r2, r3, #8
                ((uint32_t)0x5FAUL << SCB_AIRCR_VECTKEY_Pos) |
 800156c:	68bb      	ldr	r3, [r7, #8]
 800156e:	4313      	orrs	r3, r2
  reg_value  =  (reg_value                                   |
 8001570:	f043 63bf 	orr.w	r3, r3, #100139008	; 0x5f80000
 8001574:	f443 3300 	orr.w	r3, r3, #131072	; 0x20000
 8001578:	60bb      	str	r3, [r7, #8]
  SCB->AIRCR =  reg_value;
 800157a:	4a04      	ldr	r2, [pc, #16]	; (800158c <__NVIC_SetPriorityGrouping+0x44>)
 800157c:	68bb      	ldr	r3, [r7, #8]
 800157e:	60d3      	str	r3, [r2, #12]
}
 8001580:	bf00      	nop
 8001582:	3714      	adds	r7, #20
 8001584:	46bd      	mov	sp, r7
 8001586:	f85d 7b04 	ldr.w	r7, [sp], #4
 800158a:	4770      	bx	lr
 800158c:	e000ed00 	.word	0xe000ed00

08001590 <__NVIC_GetPriorityGrouping>:
  \brief   Get Priority Grouping
  \details Reads the priority grouping field from the NVIC Interrupt Controller.
  \return                Priority grouping field (SCB->AIRCR [10:8] PRIGROUP field).
 */
__STATIC_INLINE uint32_t __NVIC_GetPriorityGrouping(void)
{
 8001590:	b480      	push	{r7}
 8001592:	af00      	add	r7, sp, #0
  return ((uint32_t)((SCB->AIRCR & SCB_AIRCR_PRIGROUP_Msk) >> SCB_AIRCR_PRIGROUP_Pos));
 8001594:	4b04      	ldr	r3, [pc, #16]	; (80015a8 <__NVIC_GetPriorityGrouping+0x18>)
 8001596:	68db      	ldr	r3, [r3, #12]
 8001598:	0a1b      	lsrs	r3, r3, #8
 800159a:	f003 0307 	and.w	r3, r3, #7
}
 800159e:	4618      	mov	r0, r3
 80015a0:	46bd      	mov	sp, r7
 80015a2:	f85d 7b04 	ldr.w	r7, [sp], #4
 80015a6:	4770      	bx	lr
 80015a8:	e000ed00 	.word	0xe000ed00

080015ac <__NVIC_EnableIRQ>:
  \details Enables a device specific interrupt in the NVIC interrupt controller.
  \param [in]      IRQn  Device specific interrupt number.
  \note    IRQn must not be negative.
 */
__STATIC_INLINE void __NVIC_EnableIRQ(IRQn_Type IRQn)
{
 80015ac:	b480      	push	{r7}
 80015ae:	b083      	sub	sp, #12
 80015b0:	af00      	add	r7, sp, #0
 80015b2:	4603      	mov	r3, r0
 80015b4:	71fb      	strb	r3, [r7, #7]
  if ((int32_t)(IRQn) >= 0)
 80015b6:	f997 3007 	ldrsb.w	r3, [r7, #7]
 80015ba:	2b00      	cmp	r3, #0
 80015bc:	db0b      	blt.n	80015d6 <__NVIC_EnableIRQ+0x2a>
  {
    NVIC->ISER[(((uint32_t)IRQn) >> 5UL)] = (uint32_t)(1UL << (((uint32_t)IRQn) & 0x1FUL));
 80015be:	79fb      	ldrb	r3, [r7, #7]
 80015c0:	f003 021f 	and.w	r2, r3, #31
 80015c4:	4907      	ldr	r1, [pc, #28]	; (80015e4 <__NVIC_EnableIRQ+0x38>)
 80015c6:	f997 3007 	ldrsb.w	r3, [r7, #7]
 80015ca:	095b      	lsrs	r3, r3, #5
 80015cc:	2001      	movs	r0, #1
 80015ce:	fa00 f202 	lsl.w	r2, r0, r2
 80015d2:	f841 2023 	str.w	r2, [r1, r3, lsl #2]
  }
}
 80015d6:	bf00      	nop
 80015d8:	370c      	adds	r7, #12
 80015da:	46bd      	mov	sp, r7
 80015dc:	f85d 7b04 	ldr.w	r7, [sp], #4
 80015e0:	4770      	bx	lr
 80015e2:	bf00      	nop
 80015e4:	e000e100 	.word	0xe000e100

080015e8 <__NVIC_SetPriority>:
  \param [in]      IRQn  Interrupt number.
  \param [in]  priority  Priority to set.
  \note    The priority cannot be set for every processor exception.
 */
__STATIC_INLINE void __NVIC_SetPriority(IRQn_Type IRQn, uint32_t priority)
{
 80015e8:	b480      	push	{r7}
 80015ea:	b083      	sub	sp, #12
 80015ec:	af00      	add	r7, sp, #0
 80015ee:	4603      	mov	r3, r0
 80015f0:	6039      	str	r1, [r7, #0]
 80015f2:	71fb      	strb	r3, [r7, #7]
  if ((int32_t)(IRQn) >= 0)
 80015f4:	f997 3007 	ldrsb.w	r3, [r7, #7]
 80015f8:	2b00      	cmp	r3, #0
 80015fa:	db0a      	blt.n	8001612 <__NVIC_SetPriority+0x2a>
  {
    NVIC->IP[((uint32_t)IRQn)]               = (uint8_t)((priority << (8U - __NVIC_PRIO_BITS)) & (uint32_t)0xFFUL);
 80015fc:	683b      	ldr	r3, [r7, #0]
 80015fe:	b2da      	uxtb	r2, r3
 8001600:	490c      	ldr	r1, [pc, #48]	; (8001634 <__NVIC_SetPriority+0x4c>)
 8001602:	f997 3007 	ldrsb.w	r3, [r7, #7]
 8001606:	0112      	lsls	r2, r2, #4
 8001608:	b2d2      	uxtb	r2, r2
 800160a:	440b      	add	r3, r1
 800160c:	f883 2300 	strb.w	r2, [r3, #768]	; 0x300
  }
  else
  {
    SCB->SHP[(((uint32_t)IRQn) & 0xFUL)-4UL] = (uint8_t)((priority << (8U - __NVIC_PRIO_BITS)) & (uint32_t)0xFFUL);
  }
}
 8001610:	e00a      	b.n	8001628 <__NVIC_SetPriority+0x40>
    SCB->SHP[(((uint32_t)IRQn) & 0xFUL)-4UL] = (uint8_t)((priority << (8U - __NVIC_PRIO_BITS)) & (uint32_t)0xFFUL);
 8001612:	683b      	ldr	r3, [r7, #0]
 8001614:	b2da      	uxtb	r2, r3
 8001616:	4908      	ldr	r1, [pc, #32]	; (8001638 <__NVIC_SetPriority+0x50>)
 8001618:	79fb      	ldrb	r3, [r7, #7]
 800161a:	f003 030f 	and.w	r3, r3, #15
 800161e:	3b04      	subs	r3, #4
 8001620:	0112      	lsls	r2, r2, #4
 8001622:	b2d2      	uxtb	r2, r2
 8001624:	440b      	add	r3, r1
 8001626:	761a      	strb	r2, [r3, #24]
}
 8001628:	bf00      	nop
 800162a:	370c      	adds	r7, #12
 800162c:	46bd      	mov	sp, r7
 800162e:	f85d 7b04 	ldr.w	r7, [sp], #4
 8001632:	4770      	bx	lr
 8001634:	e000e100 	.word	0xe000e100
 8001638:	e000ed00 	.word	0xe000ed00

0800163c <NVIC_EncodePriority>:
  \param [in]   PreemptPriority  Preemptive priority value (starting from 0).
  \param [in]       SubPriority  Subpriority value (starting from 0).
  \return                        Encoded priority. Value can be used in the function \ref NVIC_SetPriority().
 */
__STATIC_INLINE uint32_t NVIC_EncodePriority (uint32_t PriorityGroup, uint32_t PreemptPriority, uint32_t SubPriority)
{
 800163c:	b480      	push	{r7}
 800163e:	b089      	sub	sp, #36	; 0x24
 8001640:	af00      	add	r7, sp, #0
 8001642:	60f8      	str	r0, [r7, #12]
 8001644:	60b9      	str	r1, [r7, #8]
 8001646:	607a      	str	r2, [r7, #4]
  uint32_t PriorityGroupTmp = (PriorityGroup & (uint32_t)0x07UL);   /* only values 0..7 are used          */
 8001648:	68fb      	ldr	r3, [r7, #12]
 800164a:	f003 0307 	and.w	r3, r3, #7
 800164e:	61fb      	str	r3, [r7, #28]
  uint32_t PreemptPriorityBits;
  uint32_t SubPriorityBits;

  PreemptPriorityBits = ((7UL - PriorityGroupTmp) > (uint32_t)(__NVIC_PRIO_BITS)) ? (uint32_t)(__NVIC_PRIO_BITS) : (uint32_t)(7UL - PriorityGroupTmp);
 8001650:	69fb      	ldr	r3, [r7, #28]
 8001652:	f1c3 0307 	rsb	r3, r3, #7
 8001656:	2b04      	cmp	r3, #4
 8001658:	bf28      	it	cs
 800165a:	2304      	movcs	r3, #4
 800165c:	61bb      	str	r3, [r7, #24]
  SubPriorityBits     = ((PriorityGroupTmp + (uint32_t)(__NVIC_PRIO_BITS)) < (uint32_t)7UL) ? (uint32_t)0UL : (uint32_t)((PriorityGroupTmp - 7UL) + (uint32_t)(__NVIC_PRIO_BITS));
 800165e:	69fb      	ldr	r3, [r7, #28]
 8001660:	3304      	adds	r3, #4
 8001662:	2b06      	cmp	r3, #6
 8001664:	d902      	bls.n	800166c <NVIC_EncodePriority+0x30>
 8001666:	69fb      	ldr	r3, [r7, #28]
 8001668:	3b03      	subs	r3, #3
 800166a:	e000      	b.n	800166e <NVIC_EncodePriority+0x32>
 800166c:	2300      	movs	r3, #0
 800166e:	617b      	str	r3, [r7, #20]

  return (
           ((PreemptPriority & (uint32_t)((1UL << (PreemptPriorityBits)) - 1UL)) << SubPriorityBits) |
 8001670:	f04f 32ff 	mov.w	r2, #4294967295
 8001674:	69bb      	ldr	r3, [r7, #24]
 8001676:	fa02 f303 	lsl.w	r3, r2, r3
 800167a:	43da      	mvns	r2, r3
 800167c:	68bb      	ldr	r3, [r7, #8]
 800167e:	401a      	ands	r2, r3
 8001680:	697b      	ldr	r3, [r7, #20]
 8001682:	409a      	lsls	r2, r3
           ((SubPriority     & (uint32_t)((1UL << (SubPriorityBits    )) - 1UL)))
 8001684:	f04f 31ff 	mov.w	r1, #4294967295
 8001688:	697b      	ldr	r3, [r7, #20]
 800168a:	fa01 f303 	lsl.w	r3, r1, r3
 800168e:	43d9      	mvns	r1, r3
 8001690:	687b      	ldr	r3, [r7, #4]
 8001692:	400b      	ands	r3, r1
           ((PreemptPriority & (uint32_t)((1UL << (PreemptPriorityBits)) - 1UL)) << SubPriorityBits) |
 8001694:	4313      	orrs	r3, r2
         );
}
 8001696:	4618      	mov	r0, r3
 8001698:	3724      	adds	r7, #36	; 0x24
 800169a:	46bd      	mov	sp, r7
 800169c:	f85d 7b04 	ldr.w	r7, [sp], #4
 80016a0:	4770      	bx	lr
	...

080016a4 <SysTick_Config>:
  \note    When the variable <b>__Vendor_SysTickConfig</b> is set to 1, then the
           function <b>SysTick_Config</b> is not included. In this case, the file <b><i>device</i>.h</b>
           must contain a vendor-specific implementation of this function.
 */
__STATIC_INLINE uint32_t SysTick_Config(uint32_t ticks)
{
 80016a4:	b580      	push	{r7, lr}
 80016a6:	b082      	sub	sp, #8
 80016a8:	af00      	add	r7, sp, #0
 80016aa:	6078      	str	r0, [r7, #4]
  if ((ticks - 1UL) > SysTick_LOAD_RELOAD_Msk)
 80016ac:	687b      	ldr	r3, [r7, #4]
 80016ae:	3b01      	subs	r3, #1
 80016b0:	f1b3 7f80 	cmp.w	r3, #16777216	; 0x1000000
 80016b4:	d301      	bcc.n	80016ba <SysTick_Config+0x16>
  {
    return (1UL);                                                   /* Reload value impossible */
 80016b6:	2301      	movs	r3, #1
 80016b8:	e00f      	b.n	80016da <SysTick_Config+0x36>
  }

  SysTick->LOAD  = (uint32_t)(ticks - 1UL);                         /* set reload register */
 80016ba:	4a0a      	ldr	r2, [pc, #40]	; (80016e4 <SysTick_Config+0x40>)
 80016bc:	687b      	ldr	r3, [r7, #4]
 80016be:	3b01      	subs	r3, #1
 80016c0:	6053      	str	r3, [r2, #4]
  NVIC_SetPriority (SysTick_IRQn, (1UL << __NVIC_PRIO_BITS) - 1UL); /* set Priority for Systick Interrupt */
 80016c2:	210f      	movs	r1, #15
 80016c4:	f04f 30ff 	mov.w	r0, #4294967295
 80016c8:	f7ff ff8e 	bl	80015e8 <__NVIC_SetPriority>
  SysTick->VAL   = 0UL;                                             /* Load the SysTick Counter Value */
 80016cc:	4b05      	ldr	r3, [pc, #20]	; (80016e4 <SysTick_Config+0x40>)
 80016ce:	2200      	movs	r2, #0
 80016d0:	609a      	str	r2, [r3, #8]
  SysTick->CTRL  = SysTick_CTRL_CLKSOURCE_Msk |
 80016d2:	4b04      	ldr	r3, [pc, #16]	; (80016e4 <SysTick_Config+0x40>)
 80016d4:	2207      	movs	r2, #7
 80016d6:	601a      	str	r2, [r3, #0]
                   SysTick_CTRL_TICKINT_Msk   |
                   SysTick_CTRL_ENABLE_Msk;                         /* Enable SysTick IRQ and SysTick Timer */
  return (0UL);                                                     /* Function successful */
 80016d8:	2300      	movs	r3, #0
}
 80016da:	4618      	mov	r0, r3
 80016dc:	3708      	adds	r7, #8
 80016de:	46bd      	mov	sp, r7
 80016e0:	bd80      	pop	{r7, pc}
 80016e2:	bf00      	nop
 80016e4:	e000e010 	.word	0xe000e010

080016e8 <HAL_NVIC_SetPriorityGrouping>:
  * @note   When the NVIC_PriorityGroup_0 is selected, IRQ preemption is no more possible. 
  *         The pending IRQ priority will be managed only by the subpriority. 
  * @retval None
  */
void HAL_NVIC_SetPriorityGrouping(uint32_t PriorityGroup)
{
 80016e8:	b580      	push	{r7, lr}
 80016ea:	b082      	sub	sp, #8
 80016ec:	af00      	add	r7, sp, #0
 80016ee:	6078      	str	r0, [r7, #4]
  /* Check the parameters */
  assert_param(IS_NVIC_PRIORITY_GROUP(PriorityGroup));
  
  /* Set the PRIGROUP[10:8] bits according to the PriorityGroup parameter value */
  NVIC_SetPriorityGrouping(PriorityGroup);
 80016f0:	6878      	ldr	r0, [r7, #4]
 80016f2:	f7ff ff29 	bl	8001548 <__NVIC_SetPriorityGrouping>
}
 80016f6:	bf00      	nop
 80016f8:	3708      	adds	r7, #8
 80016fa:	46bd      	mov	sp, r7
 80016fc:	bd80      	pop	{r7, pc}

080016fe <HAL_NVIC_SetPriority>:
  *         This parameter can be a value between 0 and 15
  *         A lower priority value indicates a higher priority.          
  * @retval None
  */
void HAL_NVIC_SetPriority(IRQn_Type IRQn, uint32_t PreemptPriority, uint32_t SubPriority)
{ 
 80016fe:	b580      	push	{r7, lr}
 8001700:	b086      	sub	sp, #24
 8001702:	af00      	add	r7, sp, #0
 8001704:	4603      	mov	r3, r0
 8001706:	60b9      	str	r1, [r7, #8]
 8001708:	607a      	str	r2, [r7, #4]
 800170a:	73fb      	strb	r3, [r7, #15]
  uint32_t prioritygroup = 0x00U;
 800170c:	2300      	movs	r3, #0
 800170e:	617b      	str	r3, [r7, #20]
  
  /* Check the parameters */
  assert_param(IS_NVIC_SUB_PRIORITY(SubPriority));
  assert_param(IS_NVIC_PREEMPTION_PRIORITY(PreemptPriority));
  
  prioritygroup = NVIC_GetPriorityGrouping();
 8001710:	f7ff ff3e 	bl	8001590 <__NVIC_GetPriorityGrouping>
 8001714:	6178      	str	r0, [r7, #20]
  
  NVIC_SetPriority(IRQn, NVIC_EncodePriority(prioritygroup, PreemptPriority, SubPriority));
 8001716:	687a      	ldr	r2, [r7, #4]
 8001718:	68b9      	ldr	r1, [r7, #8]
 800171a:	6978      	ldr	r0, [r7, #20]
 800171c:	f7ff ff8e 	bl	800163c <NVIC_EncodePriority>
 8001720:	4602      	mov	r2, r0
 8001722:	f997 300f 	ldrsb.w	r3, [r7, #15]
 8001726:	4611      	mov	r1, r2
 8001728:	4618      	mov	r0, r3
 800172a:	f7ff ff5d 	bl	80015e8 <__NVIC_SetPriority>
}
 800172e:	bf00      	nop
 8001730:	3718      	adds	r7, #24
 8001732:	46bd      	mov	sp, r7
 8001734:	bd80      	pop	{r7, pc}

08001736 <HAL_NVIC_EnableIRQ>:
  *         This parameter can be an enumerator of IRQn_Type enumeration
  *         (For the complete STM32 Devices IRQ Channels list, please refer to the appropriate CMSIS device file (stm32f4xxxx.h))
  * @retval None
  */
void HAL_NVIC_EnableIRQ(IRQn_Type IRQn)
{
 8001736:	b580      	push	{r7, lr}
 8001738:	b082      	sub	sp, #8
 800173a:	af00      	add	r7, sp, #0
 800173c:	4603      	mov	r3, r0
 800173e:	71fb      	strb	r3, [r7, #7]
  /* Check the parameters */
  assert_param(IS_NVIC_DEVICE_IRQ(IRQn));
  
  /* Enable interrupt */
  NVIC_EnableIRQ(IRQn);
 8001740:	f997 3007 	ldrsb.w	r3, [r7, #7]
 8001744:	4618      	mov	r0, r3
 8001746:	f7ff ff31 	bl	80015ac <__NVIC_EnableIRQ>
}
 800174a:	bf00      	nop
 800174c:	3708      	adds	r7, #8
 800174e:	46bd      	mov	sp, r7
 8001750:	bd80      	pop	{r7, pc}

08001752 <HAL_SYSTICK_Config>:
  * @param  TicksNumb Specifies the ticks Number of ticks between two interrupts.
  * @retval status:  - 0  Function succeeded.
  *                  - 1  Function failed.
  */
uint32_t HAL_SYSTICK_Config(uint32_t TicksNumb)
{
 8001752:	b580      	push	{r7, lr}
 8001754:	b082      	sub	sp, #8
 8001756:	af00      	add	r7, sp, #0
 8001758:	6078      	str	r0, [r7, #4]
   return SysTick_Config(TicksNumb);
 800175a:	6878      	ldr	r0, [r7, #4]
 800175c:	f7ff ffa2 	bl	80016a4 <SysTick_Config>
 8001760:	4603      	mov	r3, r0
}
 8001762:	4618      	mov	r0, r3
 8001764:	3708      	adds	r7, #8
 8001766:	46bd      	mov	sp, r7
 8001768:	bd80      	pop	{r7, pc}
	...

0800176c <HAL_DMA_Init>:
  * @param  hdma Pointer to a DMA_HandleTypeDef structure that contains
  *               the configuration information for the specified DMA Stream.  
  * @retval HAL status
  */
HAL_StatusTypeDef HAL_DMA_Init(DMA_HandleTypeDef *hdma)
{
 800176c:	b580      	push	{r7, lr}
 800176e:	b086      	sub	sp, #24
 8001770:	af00      	add	r7, sp, #0
 8001772:	6078      	str	r0, [r7, #4]
  uint32_t tmp = 0U;
 8001774:	2300      	movs	r3, #0
 8001776:	617b      	str	r3, [r7, #20]
  uint32_t tickstart = HAL_GetTick();
 8001778:	f7ff feda 	bl	8001530 <HAL_GetTick>
 800177c:	6138      	str	r0, [r7, #16]
  DMA_Base_Registers *regs;

  /* Check the DMA peripheral state */
  if(hdma == NULL)
 800177e:	687b      	ldr	r3, [r7, #4]
 8001780:	2b00      	cmp	r3, #0
 8001782:	d101      	bne.n	8001788 <HAL_DMA_Init+0x1c>
  {
    return HAL_ERROR;
 8001784:	2301      	movs	r3, #1
 8001786:	e099      	b.n	80018bc <HAL_DMA_Init+0x150>
    assert_param(IS_DMA_MEMORY_BURST(hdma->Init.MemBurst));
    assert_param(IS_DMA_PERIPHERAL_BURST(hdma->Init.PeriphBurst));
  }
  
  /* Allocate lock resource */
  __HAL_UNLOCK(hdma);
 8001788:	687b      	ldr	r3, [r7, #4]
 800178a:	2200      	movs	r2, #0
 800178c:	f883 2034 	strb.w	r2, [r3, #52]	; 0x34

  /* Change DMA peripheral state */
  hdma->State = HAL_DMA_STATE_BUSY;
 8001790:	687b      	ldr	r3, [r7, #4]
 8001792:	2202      	movs	r2, #2
 8001794:	f883 2035 	strb.w	r2, [r3, #53]	; 0x35
  
  /* Disable the peripheral */
  __HAL_DMA_DISABLE(hdma);
 8001798:	687b      	ldr	r3, [r7, #4]
 800179a:	681b      	ldr	r3, [r3, #0]
 800179c:	681a      	ldr	r2, [r3, #0]
 800179e:	687b      	ldr	r3, [r7, #4]
 80017a0:	681b      	ldr	r3, [r3, #0]
 80017a2:	f022 0201 	bic.w	r2, r2, #1
 80017a6:	601a      	str	r2, [r3, #0]
  
  /* Check if the DMA Stream is effectively disabled */
  while((hdma->Instance->CR & DMA_SxCR_EN) != RESET)
 80017a8:	e00f      	b.n	80017ca <HAL_DMA_Init+0x5e>
  {
    /* Check for the Timeout */
    if((HAL_GetTick() - tickstart ) > HAL_TIMEOUT_DMA_ABORT)
 80017aa:	f7ff fec1 	bl	8001530 <HAL_GetTick>
 80017ae:	4602      	mov	r2, r0
 80017b0:	693b      	ldr	r3, [r7, #16]
 80017b2:	1ad3      	subs	r3, r2, r3
 80017b4:	2b05      	cmp	r3, #5
 80017b6:	d908      	bls.n	80017ca <HAL_DMA_Init+0x5e>
    {
      /* Update error code */
      hdma->ErrorCode = HAL_DMA_ERROR_TIMEOUT;
 80017b8:	687b      	ldr	r3, [r7, #4]
 80017ba:	2220      	movs	r2, #32
 80017bc:	655a      	str	r2, [r3, #84]	; 0x54
      
      /* Change the DMA state */
      hdma->State = HAL_DMA_STATE_TIMEOUT;
 80017be:	687b      	ldr	r3, [r7, #4]
 80017c0:	2203      	movs	r2, #3
 80017c2:	f883 2035 	strb.w	r2, [r3, #53]	; 0x35
      
      return HAL_TIMEOUT;
 80017c6:	2303      	movs	r3, #3
 80017c8:	e078      	b.n	80018bc <HAL_DMA_Init+0x150>
  while((hdma->Instance->CR & DMA_SxCR_EN) != RESET)
 80017ca:	687b      	ldr	r3, [r7, #4]
 80017cc:	681b      	ldr	r3, [r3, #0]
 80017ce:	681b      	ldr	r3, [r3, #0]
 80017d0:	f003 0301 	and.w	r3, r3, #1
 80017d4:	2b00      	cmp	r3, #0
 80017d6:	d1e8      	bne.n	80017aa <HAL_DMA_Init+0x3e>
    }
  }
  
  /* Get the CR register value */
  tmp = hdma->Instance->CR;
 80017d8:	687b      	ldr	r3, [r7, #4]
 80017da:	681b      	ldr	r3, [r3, #0]
 80017dc:	681b      	ldr	r3, [r3, #0]
 80017de:	617b      	str	r3, [r7, #20]

  /* Clear CHSEL, MBURST, PBURST, PL, MSIZE, PSIZE, MINC, PINC, CIRC, DIR, CT and DBM bits */
  tmp &= ((uint32_t)~(DMA_SxCR_CHSEL | DMA_SxCR_MBURST | DMA_SxCR_PBURST | \
 80017e0:	697a      	ldr	r2, [r7, #20]
 80017e2:	4b38      	ldr	r3, [pc, #224]	; (80018c4 <HAL_DMA_Init+0x158>)
 80017e4:	4013      	ands	r3, r2
 80017e6:	617b      	str	r3, [r7, #20]
                      DMA_SxCR_PL    | DMA_SxCR_MSIZE  | DMA_SxCR_PSIZE  | \
                      DMA_SxCR_MINC  | DMA_SxCR_PINC   | DMA_SxCR_CIRC   | \
                      DMA_SxCR_DIR   | DMA_SxCR_CT     | DMA_SxCR_DBM));

  /* Prepare the DMA Stream configuration */
  tmp |=  hdma->Init.Channel             | hdma->Init.Direction        |
 80017e8:	687b      	ldr	r3, [r7, #4]
 80017ea:	685a      	ldr	r2, [r3, #4]
 80017ec:	687b      	ldr	r3, [r7, #4]
 80017ee:	689b      	ldr	r3, [r3, #8]
 80017f0:	431a      	orrs	r2, r3
          hdma->Init.PeriphInc           | hdma->Init.MemInc           |
 80017f2:	687b      	ldr	r3, [r7, #4]
 80017f4:	68db      	ldr	r3, [r3, #12]
  tmp |=  hdma->Init.Channel             | hdma->Init.Direction        |
 80017f6:	431a      	orrs	r2, r3
          hdma->Init.PeriphInc           | hdma->Init.MemInc           |
 80017f8:	687b      	ldr	r3, [r7, #4]
 80017fa:	691b      	ldr	r3, [r3, #16]
 80017fc:	431a      	orrs	r2, r3
          hdma->Init.PeriphDataAlignment | hdma->Init.MemDataAlignment |
 80017fe:	687b      	ldr	r3, [r7, #4]
 8001800:	695b      	ldr	r3, [r3, #20]
          hdma->Init.PeriphInc           | hdma->Init.MemInc           |
 8001802:	431a      	orrs	r2, r3
          hdma->Init.PeriphDataAlignment | hdma->Init.MemDataAlignment |
 8001804:	687b      	ldr	r3, [r7, #4]
 8001806:	699b      	ldr	r3, [r3, #24]
 8001808:	431a      	orrs	r2, r3
          hdma->Init.Mode                | hdma->Init.Priority;
 800180a:	687b      	ldr	r3, [r7, #4]
 800180c:	69db      	ldr	r3, [r3, #28]
          hdma->Init.PeriphDataAlignment | hdma->Init.MemDataAlignment |
 800180e:	431a      	orrs	r2, r3
          hdma->Init.Mode                | hdma->Init.Priority;
 8001810:	687b      	ldr	r3, [r7, #4]
 8001812:	6a1b      	ldr	r3, [r3, #32]
 8001814:	4313      	orrs	r3, r2
  tmp |=  hdma->Init.Channel             | hdma->Init.Direction        |
 8001816:	697a      	ldr	r2, [r7, #20]
 8001818:	4313      	orrs	r3, r2
 800181a:	617b      	str	r3, [r7, #20]

  /* the Memory burst and peripheral burst are not used when the FIFO is disabled */
  if(hdma->Init.FIFOMode == DMA_FIFOMODE_ENABLE)
 800181c:	687b      	ldr	r3, [r7, #4]
 800181e:	6a5b      	ldr	r3, [r3, #36]	; 0x24
 8001820:	2b04      	cmp	r3, #4
 8001822:	d107      	bne.n	8001834 <HAL_DMA_Init+0xc8>
  {
    /* Get memory burst and peripheral burst */
    tmp |=  hdma->Init.MemBurst | hdma->Init.PeriphBurst;
 8001824:	687b      	ldr	r3, [r7, #4]
 8001826:	6ada      	ldr	r2, [r3, #44]	; 0x2c
 8001828:	687b      	ldr	r3, [r7, #4]
 800182a:	6b1b      	ldr	r3, [r3, #48]	; 0x30
 800182c:	4313      	orrs	r3, r2
 800182e:	697a      	ldr	r2, [r7, #20]
 8001830:	4313      	orrs	r3, r2
 8001832:	617b      	str	r3, [r7, #20]
  }
  
  /* Write to DMA Stream CR register */
  hdma->Instance->CR = tmp;  
 8001834:	687b      	ldr	r3, [r7, #4]
 8001836:	681b      	ldr	r3, [r3, #0]
 8001838:	697a      	ldr	r2, [r7, #20]
 800183a:	601a      	str	r2, [r3, #0]

  /* Get the FCR register value */
  tmp = hdma->Instance->FCR;
 800183c:	687b      	ldr	r3, [r7, #4]
 800183e:	681b      	ldr	r3, [r3, #0]
 8001840:	695b      	ldr	r3, [r3, #20]
 8001842:	617b      	str	r3, [r7, #20]

  /* Clear Direct mode and FIFO threshold bits */
  tmp &= (uint32_t)~(DMA_SxFCR_DMDIS | DMA_SxFCR_FTH);
 8001844:	697b      	ldr	r3, [r7, #20]
 8001846:	f023 0307 	bic.w	r3, r3, #7
 800184a:	617b      	str	r3, [r7, #20]

  /* Prepare the DMA Stream FIFO configuration */
  tmp |= hdma->Init.FIFOMode;
 800184c:	687b      	ldr	r3, [r7, #4]
 800184e:	6a5b      	ldr	r3, [r3, #36]	; 0x24
 8001850:	697a      	ldr	r2, [r7, #20]
 8001852:	4313      	orrs	r3, r2
 8001854:	617b      	str	r3, [r7, #20]

  /* The FIFO threshold is not used when the FIFO mode is disabled */
  if(hdma->Init.FIFOMode == DMA_FIFOMODE_ENABLE)
 8001856:	687b      	ldr	r3, [r7, #4]
 8001858:	6a5b      	ldr	r3, [r3, #36]	; 0x24
 800185a:	2b04      	cmp	r3, #4
 800185c:	d117      	bne.n	800188e <HAL_DMA_Init+0x122>
  {
    /* Get the FIFO threshold */
    tmp |= hdma->Init.FIFOThreshold;
 800185e:	687b      	ldr	r3, [r7, #4]
 8001860:	6a9b      	ldr	r3, [r3, #40]	; 0x28
 8001862:	697a      	ldr	r2, [r7, #20]
 8001864:	4313      	orrs	r3, r2
 8001866:	617b      	str	r3, [r7, #20]
    
    /* Check compatibility between FIFO threshold level and size of the memory burst */
    /* for INCR4, INCR8, INCR16 bursts */
    if (hdma->Init.MemBurst != DMA_MBURST_SINGLE)
 8001868:	687b      	ldr	r3, [r7, #4]
 800186a:	6adb      	ldr	r3, [r3, #44]	; 0x2c
 800186c:	2b00      	cmp	r3, #0
 800186e:	d00e      	beq.n	800188e <HAL_DMA_Init+0x122>
    {
      if (DMA_CheckFifoParam(hdma) != HAL_OK)
 8001870:	6878      	ldr	r0, [r7, #4]
 8001872:	f000 fb01 	bl	8001e78 <DMA_CheckFifoParam>
 8001876:	4603      	mov	r3, r0
 8001878:	2b00      	cmp	r3, #0
 800187a:	d008      	beq.n	800188e <HAL_DMA_Init+0x122>
      {
        /* Update error code */
        hdma->ErrorCode = HAL_DMA_ERROR_PARAM;
 800187c:	687b      	ldr	r3, [r7, #4]
 800187e:	2240      	movs	r2, #64	; 0x40
 8001880:	655a      	str	r2, [r3, #84]	; 0x54
        
        /* Change the DMA state */
        hdma->State = HAL_DMA_STATE_READY;
 8001882:	687b      	ldr	r3, [r7, #4]
 8001884:	2201      	movs	r2, #1
 8001886:	f883 2035 	strb.w	r2, [r3, #53]	; 0x35
        
        return HAL_ERROR; 
 800188a:	2301      	movs	r3, #1
 800188c:	e016      	b.n	80018bc <HAL_DMA_Init+0x150>
      }
    }
  }
  
  /* Write to DMA Stream FCR */
  hdma->Instance->FCR = tmp;
 800188e:	687b      	ldr	r3, [r7, #4]
 8001890:	681b      	ldr	r3, [r3, #0]
 8001892:	697a      	ldr	r2, [r7, #20]
 8001894:	615a      	str	r2, [r3, #20]

  /* Initialize StreamBaseAddress and StreamIndex parameters to be used to calculate
     DMA steam Base Address needed by HAL_DMA_IRQHandler() and HAL_DMA_PollForTransfer() */
  regs = (DMA_Base_Registers *)DMA_CalcBaseAndBitshift(hdma);
 8001896:	6878      	ldr	r0, [r7, #4]
 8001898:	f000 fab8 	bl	8001e0c <DMA_CalcBaseAndBitshift>
 800189c:	4603      	mov	r3, r0
 800189e:	60fb      	str	r3, [r7, #12]
  
  /* Clear all interrupt flags */
  regs->IFCR = 0x3FU << hdma->StreamIndex;
 80018a0:	687b      	ldr	r3, [r7, #4]
 80018a2:	6ddb      	ldr	r3, [r3, #92]	; 0x5c
 80018a4:	223f      	movs	r2, #63	; 0x3f
 80018a6:	409a      	lsls	r2, r3
 80018a8:	68fb      	ldr	r3, [r7, #12]
 80018aa:	609a      	str	r2, [r3, #8]

  /* Initialize the error code */
  hdma->ErrorCode = HAL_DMA_ERROR_NONE;
 80018ac:	687b      	ldr	r3, [r7, #4]
 80018ae:	2200      	movs	r2, #0
 80018b0:	655a      	str	r2, [r3, #84]	; 0x54
                                                                                     
  /* Initialize the DMA state */
  hdma->State = HAL_DMA_STATE_READY;
 80018b2:	687b      	ldr	r3, [r7, #4]
 80018b4:	2201      	movs	r2, #1
 80018b6:	f883 2035 	strb.w	r2, [r3, #53]	; 0x35

  return HAL_OK;
 80018ba:	2300      	movs	r3, #0
}
 80018bc:	4618      	mov	r0, r3
 80018be:	3718      	adds	r7, #24
 80018c0:	46bd      	mov	sp, r7
 80018c2:	bd80      	pop	{r7, pc}
 80018c4:	f010803f 	.word	0xf010803f

080018c8 <HAL_DMA_Start_IT>:
  * @param  DstAddress The destination memory Buffer address
  * @param  DataLength The length of data to be transferred from source to destination
  * @retval HAL status
  */
HAL_StatusTypeDef HAL_DMA_Start_IT(DMA_HandleTypeDef *hdma, uint32_t SrcAddress, uint32_t DstAddress, uint32_t DataLength)
{
 80018c8:	b580      	push	{r7, lr}
 80018ca:	b086      	sub	sp, #24
 80018cc:	af00      	add	r7, sp, #0
 80018ce:	60f8      	str	r0, [r7, #12]
 80018d0:	60b9      	str	r1, [r7, #8]
 80018d2:	607a      	str	r2, [r7, #4]
 80018d4:	603b      	str	r3, [r7, #0]
  HAL_StatusTypeDef status = HAL_OK;
 80018d6:	2300      	movs	r3, #0
 80018d8:	75fb      	strb	r3, [r7, #23]

  /* calculate DMA base and stream number */
  DMA_Base_Registers *regs = (DMA_Base_Registers *)hdma->StreamBaseAddress;
 80018da:	68fb      	ldr	r3, [r7, #12]
 80018dc:	6d9b      	ldr	r3, [r3, #88]	; 0x58
 80018de:	613b      	str	r3, [r7, #16]
  
  /* Check the parameters */
  assert_param(IS_DMA_BUFFER_SIZE(DataLength));
 
  /* Process locked */
  __HAL_LOCK(hdma);
 80018e0:	68fb      	ldr	r3, [r7, #12]
 80018e2:	f893 3034 	ldrb.w	r3, [r3, #52]	; 0x34
 80018e6:	2b01      	cmp	r3, #1
 80018e8:	d101      	bne.n	80018ee <HAL_DMA_Start_IT+0x26>
 80018ea:	2302      	movs	r3, #2
 80018ec:	e040      	b.n	8001970 <HAL_DMA_Start_IT+0xa8>
 80018ee:	68fb      	ldr	r3, [r7, #12]
 80018f0:	2201      	movs	r2, #1
 80018f2:	f883 2034 	strb.w	r2, [r3, #52]	; 0x34
  
  if(HAL_DMA_STATE_READY == hdma->State)
 80018f6:	68fb      	ldr	r3, [r7, #12]
 80018f8:	f893 3035 	ldrb.w	r3, [r3, #53]	; 0x35
 80018fc:	b2db      	uxtb	r3, r3
 80018fe:	2b01      	cmp	r3, #1
 8001900:	d12f      	bne.n	8001962 <HAL_DMA_Start_IT+0x9a>
  {
    /* Change DMA peripheral state */
    hdma->State = HAL_DMA_STATE_BUSY;
 8001902:	68fb      	ldr	r3, [r7, #12]
 8001904:	2202      	movs	r2, #2
 8001906:	f883 2035 	strb.w	r2, [r3, #53]	; 0x35
    
    /* Initialize the error code */
    hdma->ErrorCode = HAL_DMA_ERROR_NONE;
 800190a:	68fb      	ldr	r3, [r7, #12]
 800190c:	2200      	movs	r2, #0
 800190e:	655a      	str	r2, [r3, #84]	; 0x54
    
    /* Configure the source, destination address and the data length */
    DMA_SetConfig(hdma, SrcAddress, DstAddress, DataLength);
 8001910:	683b      	ldr	r3, [r7, #0]
 8001912:	687a      	ldr	r2, [r7, #4]
 8001914:	68b9      	ldr	r1, [r7, #8]
 8001916:	68f8      	ldr	r0, [r7, #12]
 8001918:	f000 fa4a 	bl	8001db0 <DMA_SetConfig>
    
    /* Clear all interrupt flags at correct offset within the register */
    regs->IFCR = 0x3FU << hdma->StreamIndex;
 800191c:	68fb      	ldr	r3, [r7, #12]
 800191e:	6ddb      	ldr	r3, [r3, #92]	; 0x5c
 8001920:	223f      	movs	r2, #63	; 0x3f
 8001922:	409a      	lsls	r2, r3
 8001924:	693b      	ldr	r3, [r7, #16]
 8001926:	609a      	str	r2, [r3, #8]
    
    /* Enable Common interrupts*/
    hdma->Instance->CR  |= DMA_IT_TC | DMA_IT_TE | DMA_IT_DME;
 8001928:	68fb      	ldr	r3, [r7, #12]
 800192a:	681b      	ldr	r3, [r3, #0]
 800192c:	681a      	ldr	r2, [r3, #0]
 800192e:	68fb      	ldr	r3, [r7, #12]
 8001930:	681b      	ldr	r3, [r3, #0]
 8001932:	f042 0216 	orr.w	r2, r2, #22
 8001936:	601a      	str	r2, [r3, #0]
    
    if(hdma->XferHalfCpltCallback != NULL)
 8001938:	68fb      	ldr	r3, [r7, #12]
 800193a:	6c1b      	ldr	r3, [r3, #64]	; 0x40
 800193c:	2b00      	cmp	r3, #0
 800193e:	d007      	beq.n	8001950 <HAL_DMA_Start_IT+0x88>
    {
      hdma->Instance->CR  |= DMA_IT_HT;
 8001940:	68fb      	ldr	r3, [r7, #12]
 8001942:	681b      	ldr	r3, [r3, #0]
 8001944:	681a      	ldr	r2, [r3, #0]
 8001946:	68fb      	ldr	r3, [r7, #12]
 8001948:	681b      	ldr	r3, [r3, #0]
 800194a:	f042 0208 	orr.w	r2, r2, #8
 800194e:	601a      	str	r2, [r3, #0]
    }
    
    /* Enable the Peripheral */
    __HAL_DMA_ENABLE(hdma);
 8001950:	68fb      	ldr	r3, [r7, #12]
 8001952:	681b      	ldr	r3, [r3, #0]
 8001954:	681a      	ldr	r2, [r3, #0]
 8001956:	68fb      	ldr	r3, [r7, #12]
 8001958:	681b      	ldr	r3, [r3, #0]
 800195a:	f042 0201 	orr.w	r2, r2, #1
 800195e:	601a      	str	r2, [r3, #0]
 8001960:	e005      	b.n	800196e <HAL_DMA_Start_IT+0xa6>
  }
  else
  {
    /* Process unlocked */
    __HAL_UNLOCK(hdma);	  
 8001962:	68fb      	ldr	r3, [r7, #12]
 8001964:	2200      	movs	r2, #0
 8001966:	f883 2034 	strb.w	r2, [r3, #52]	; 0x34
    
    /* Return error status */
    status = HAL_BUSY;
 800196a:	2302      	movs	r3, #2
 800196c:	75fb      	strb	r3, [r7, #23]
  }
  
  return status;
 800196e:	7dfb      	ldrb	r3, [r7, #23]
}
 8001970:	4618      	mov	r0, r3
 8001972:	3718      	adds	r7, #24
 8001974:	46bd      	mov	sp, r7
 8001976:	bd80      	pop	{r7, pc}

08001978 <HAL_DMA_Abort>:
  *        and the Stream will be effectively disabled only after the transfer of
  *        this single data is finished.  
  * @retval HAL status
  */
HAL_StatusTypeDef HAL_DMA_Abort(DMA_HandleTypeDef *hdma)
{
 8001978:	b580      	push	{r7, lr}
 800197a:	b084      	sub	sp, #16
 800197c:	af00      	add	r7, sp, #0
 800197e:	6078      	str	r0, [r7, #4]
  /* calculate DMA base and stream number */
  DMA_Base_Registers *regs = (DMA_Base_Registers *)hdma->StreamBaseAddress;
 8001980:	687b      	ldr	r3, [r7, #4]
 8001982:	6d9b      	ldr	r3, [r3, #88]	; 0x58
 8001984:	60fb      	str	r3, [r7, #12]
  
  uint32_t tickstart = HAL_GetTick();
 8001986:	f7ff fdd3 	bl	8001530 <HAL_GetTick>
 800198a:	60b8      	str	r0, [r7, #8]
  
  if(hdma->State != HAL_DMA_STATE_BUSY)
 800198c:	687b      	ldr	r3, [r7, #4]
 800198e:	f893 3035 	ldrb.w	r3, [r3, #53]	; 0x35
 8001992:	b2db      	uxtb	r3, r3
 8001994:	2b02      	cmp	r3, #2
 8001996:	d008      	beq.n	80019aa <HAL_DMA_Abort+0x32>
  {
    hdma->ErrorCode = HAL_DMA_ERROR_NO_XFER;
 8001998:	687b      	ldr	r3, [r7, #4]
 800199a:	2280      	movs	r2, #128	; 0x80
 800199c:	655a      	str	r2, [r3, #84]	; 0x54
    
    /* Process Unlocked */
    __HAL_UNLOCK(hdma);
 800199e:	687b      	ldr	r3, [r7, #4]
 80019a0:	2200      	movs	r2, #0
 80019a2:	f883 2034 	strb.w	r2, [r3, #52]	; 0x34
    
    return HAL_ERROR;
 80019a6:	2301      	movs	r3, #1
 80019a8:	e052      	b.n	8001a50 <HAL_DMA_Abort+0xd8>
  }
  else
  {
    /* Disable all the transfer interrupts */
    hdma->Instance->CR  &= ~(DMA_IT_TC | DMA_IT_TE | DMA_IT_DME);
 80019aa:	687b      	ldr	r3, [r7, #4]
 80019ac:	681b      	ldr	r3, [r3, #0]
 80019ae:	681a      	ldr	r2, [r3, #0]
 80019b0:	687b      	ldr	r3, [r7, #4]
 80019b2:	681b      	ldr	r3, [r3, #0]
 80019b4:	f022 0216 	bic.w	r2, r2, #22
 80019b8:	601a      	str	r2, [r3, #0]
    hdma->Instance->FCR &= ~(DMA_IT_FE);
 80019ba:	687b      	ldr	r3, [r7, #4]
 80019bc:	681b      	ldr	r3, [r3, #0]
 80019be:	695a      	ldr	r2, [r3, #20]
 80019c0:	687b      	ldr	r3, [r7, #4]
 80019c2:	681b      	ldr	r3, [r3, #0]
 80019c4:	f022 0280 	bic.w	r2, r2, #128	; 0x80
 80019c8:	615a      	str	r2, [r3, #20]
    
    if((hdma->XferHalfCpltCallback != NULL) || (hdma->XferM1HalfCpltCallback != NULL))
 80019ca:	687b      	ldr	r3, [r7, #4]
 80019cc:	6c1b      	ldr	r3, [r3, #64]	; 0x40
 80019ce:	2b00      	cmp	r3, #0
 80019d0:	d103      	bne.n	80019da <HAL_DMA_Abort+0x62>
 80019d2:	687b      	ldr	r3, [r7, #4]
 80019d4:	6c9b      	ldr	r3, [r3, #72]	; 0x48
 80019d6:	2b00      	cmp	r3, #0
 80019d8:	d007      	beq.n	80019ea <HAL_DMA_Abort+0x72>
    {
      hdma->Instance->CR  &= ~(DMA_IT_HT);
 80019da:	687b      	ldr	r3, [r7, #4]
 80019dc:	681b      	ldr	r3, [r3, #0]
 80019de:	681a      	ldr	r2, [r3, #0]
 80019e0:	687b      	ldr	r3, [r7, #4]
 80019e2:	681b      	ldr	r3, [r3, #0]
 80019e4:	f022 0208 	bic.w	r2, r2, #8
 80019e8:	601a      	str	r2, [r3, #0]
    }
    
    /* Disable the stream */
    __HAL_DMA_DISABLE(hdma);
 80019ea:	687b      	ldr	r3, [r7, #4]
 80019ec:	681b      	ldr	r3, [r3, #0]
 80019ee:	681a      	ldr	r2, [r3, #0]
 80019f0:	687b      	ldr	r3, [r7, #4]
 80019f2:	681b      	ldr	r3, [r3, #0]
 80019f4:	f022 0201 	bic.w	r2, r2, #1
 80019f8:	601a      	str	r2, [r3, #0]
    
    /* Check if the DMA Stream is effectively disabled */
    while((hdma->Instance->CR & DMA_SxCR_EN) != RESET)
 80019fa:	e013      	b.n	8001a24 <HAL_DMA_Abort+0xac>
    {
      /* Check for the Timeout */
      if((HAL_GetTick() - tickstart ) > HAL_TIMEOUT_DMA_ABORT)
 80019fc:	f7ff fd98 	bl	8001530 <HAL_GetTick>
 8001a00:	4602      	mov	r2, r0
 8001a02:	68bb      	ldr	r3, [r7, #8]
 8001a04:	1ad3      	subs	r3, r2, r3
 8001a06:	2b05      	cmp	r3, #5
 8001a08:	d90c      	bls.n	8001a24 <HAL_DMA_Abort+0xac>
      {
        /* Update error code */
        hdma->ErrorCode = HAL_DMA_ERROR_TIMEOUT;
 8001a0a:	687b      	ldr	r3, [r7, #4]
 8001a0c:	2220      	movs	r2, #32
 8001a0e:	655a      	str	r2, [r3, #84]	; 0x54
        
        /* Process Unlocked */
        __HAL_UNLOCK(hdma);
 8001a10:	687b      	ldr	r3, [r7, #4]
 8001a12:	2200      	movs	r2, #0
 8001a14:	f883 2034 	strb.w	r2, [r3, #52]	; 0x34
        
        /* Change the DMA state */
        hdma->State = HAL_DMA_STATE_TIMEOUT;
 8001a18:	687b      	ldr	r3, [r7, #4]
 8001a1a:	2203      	movs	r2, #3
 8001a1c:	f883 2035 	strb.w	r2, [r3, #53]	; 0x35
        
        return HAL_TIMEOUT;
 8001a20:	2303      	movs	r3, #3
 8001a22:	e015      	b.n	8001a50 <HAL_DMA_Abort+0xd8>
    while((hdma->Instance->CR & DMA_SxCR_EN) != RESET)
 8001a24:	687b      	ldr	r3, [r7, #4]
 8001a26:	681b      	ldr	r3, [r3, #0]
 8001a28:	681b      	ldr	r3, [r3, #0]
 8001a2a:	f003 0301 	and.w	r3, r3, #1
 8001a2e:	2b00      	cmp	r3, #0
 8001a30:	d1e4      	bne.n	80019fc <HAL_DMA_Abort+0x84>
      }
    }
    
    /* Clear all interrupt flags at correct offset within the register */
    regs->IFCR = 0x3FU << hdma->StreamIndex;
 8001a32:	687b      	ldr	r3, [r7, #4]
 8001a34:	6ddb      	ldr	r3, [r3, #92]	; 0x5c
 8001a36:	223f      	movs	r2, #63	; 0x3f
 8001a38:	409a      	lsls	r2, r3
 8001a3a:	68fb      	ldr	r3, [r7, #12]
 8001a3c:	609a      	str	r2, [r3, #8]
    
    /* Process Unlocked */
    __HAL_UNLOCK(hdma);
 8001a3e:	687b      	ldr	r3, [r7, #4]
 8001a40:	2200      	movs	r2, #0
 8001a42:	f883 2034 	strb.w	r2, [r3, #52]	; 0x34
    
    /* Change the DMA state*/
    hdma->State = HAL_DMA_STATE_READY;
 8001a46:	687b      	ldr	r3, [r7, #4]
 8001a48:	2201      	movs	r2, #1
 8001a4a:	f883 2035 	strb.w	r2, [r3, #53]	; 0x35
  }
  return HAL_OK;
 8001a4e:	2300      	movs	r3, #0
}
 8001a50:	4618      	mov	r0, r3
 8001a52:	3710      	adds	r7, #16
 8001a54:	46bd      	mov	sp, r7
 8001a56:	bd80      	pop	{r7, pc}

08001a58 <HAL_DMA_Abort_IT>:
  * @param  hdma   pointer to a DMA_HandleTypeDef structure that contains
  *                 the configuration information for the specified DMA Stream.
  * @retval HAL status
  */
HAL_StatusTypeDef HAL_DMA_Abort_IT(DMA_HandleTypeDef *hdma)
{
 8001a58:	b480      	push	{r7}
 8001a5a:	b083      	sub	sp, #12
 8001a5c:	af00      	add	r7, sp, #0
 8001a5e:	6078      	str	r0, [r7, #4]
  if(hdma->State != HAL_DMA_STATE_BUSY)
 8001a60:	687b      	ldr	r3, [r7, #4]
 8001a62:	f893 3035 	ldrb.w	r3, [r3, #53]	; 0x35
 8001a66:	b2db      	uxtb	r3, r3
 8001a68:	2b02      	cmp	r3, #2
 8001a6a:	d004      	beq.n	8001a76 <HAL_DMA_Abort_IT+0x1e>
  {
    hdma->ErrorCode = HAL_DMA_ERROR_NO_XFER;
 8001a6c:	687b      	ldr	r3, [r7, #4]
 8001a6e:	2280      	movs	r2, #128	; 0x80
 8001a70:	655a      	str	r2, [r3, #84]	; 0x54
    return HAL_ERROR;
 8001a72:	2301      	movs	r3, #1
 8001a74:	e00c      	b.n	8001a90 <HAL_DMA_Abort_IT+0x38>
  }
  else
  {
    /* Set Abort State  */
    hdma->State = HAL_DMA_STATE_ABORT;
 8001a76:	687b      	ldr	r3, [r7, #4]
 8001a78:	2205      	movs	r2, #5
 8001a7a:	f883 2035 	strb.w	r2, [r3, #53]	; 0x35
    
    /* Disable the stream */
    __HAL_DMA_DISABLE(hdma);
 8001a7e:	687b      	ldr	r3, [r7, #4]
 8001a80:	681b      	ldr	r3, [r3, #0]
 8001a82:	681a      	ldr	r2, [r3, #0]
 8001a84:	687b      	ldr	r3, [r7, #4]
 8001a86:	681b      	ldr	r3, [r3, #0]
 8001a88:	f022 0201 	bic.w	r2, r2, #1
 8001a8c:	601a      	str	r2, [r3, #0]
  }

  return HAL_OK;
 8001a8e:	2300      	movs	r3, #0
}
 8001a90:	4618      	mov	r0, r3
 8001a92:	370c      	adds	r7, #12
 8001a94:	46bd      	mov	sp, r7
 8001a96:	f85d 7b04 	ldr.w	r7, [sp], #4
 8001a9a:	4770      	bx	lr

08001a9c <HAL_DMA_IRQHandler>:
  * @param  hdma pointer to a DMA_HandleTypeDef structure that contains
  *               the configuration information for the specified DMA Stream.  
  * @retval None
  */
void HAL_DMA_IRQHandler(DMA_HandleTypeDef *hdma)
{
 8001a9c:	b580      	push	{r7, lr}
 8001a9e:	b086      	sub	sp, #24
 8001aa0:	af00      	add	r7, sp, #0
 8001aa2:	6078      	str	r0, [r7, #4]
  uint32_t tmpisr;
  __IO uint32_t count = 0U;
 8001aa4:	2300      	movs	r3, #0
 8001aa6:	60bb      	str	r3, [r7, #8]
  uint32_t timeout = SystemCoreClock / 9600U;
 8001aa8:	4b92      	ldr	r3, [pc, #584]	; (8001cf4 <HAL_DMA_IRQHandler+0x258>)
 8001aaa:	681b      	ldr	r3, [r3, #0]
 8001aac:	4a92      	ldr	r2, [pc, #584]	; (8001cf8 <HAL_DMA_IRQHandler+0x25c>)
 8001aae:	fba2 2303 	umull	r2, r3, r2, r3
 8001ab2:	0a9b      	lsrs	r3, r3, #10
 8001ab4:	617b      	str	r3, [r7, #20]

  /* calculate DMA base and stream number */
  DMA_Base_Registers *regs = (DMA_Base_Registers *)hdma->StreamBaseAddress;
 8001ab6:	687b      	ldr	r3, [r7, #4]
 8001ab8:	6d9b      	ldr	r3, [r3, #88]	; 0x58
 8001aba:	613b      	str	r3, [r7, #16]

  tmpisr = regs->ISR;
 8001abc:	693b      	ldr	r3, [r7, #16]
 8001abe:	681b      	ldr	r3, [r3, #0]
 8001ac0:	60fb      	str	r3, [r7, #12]

  /* Transfer Error Interrupt management ***************************************/
  if ((tmpisr & (DMA_FLAG_TEIF0_4 << hdma->StreamIndex)) != RESET)
 8001ac2:	687b      	ldr	r3, [r7, #4]
 8001ac4:	6ddb      	ldr	r3, [r3, #92]	; 0x5c
 8001ac6:	2208      	movs	r2, #8
 8001ac8:	409a      	lsls	r2, r3
 8001aca:	68fb      	ldr	r3, [r7, #12]
 8001acc:	4013      	ands	r3, r2
 8001ace:	2b00      	cmp	r3, #0
 8001ad0:	d01a      	beq.n	8001b08 <HAL_DMA_IRQHandler+0x6c>
  {
    if(__HAL_DMA_GET_IT_SOURCE(hdma, DMA_IT_TE) != RESET)
 8001ad2:	687b      	ldr	r3, [r7, #4]
 8001ad4:	681b      	ldr	r3, [r3, #0]
 8001ad6:	681b      	ldr	r3, [r3, #0]
 8001ad8:	f003 0304 	and.w	r3, r3, #4
 8001adc:	2b00      	cmp	r3, #0
 8001ade:	d013      	beq.n	8001b08 <HAL_DMA_IRQHandler+0x6c>
    {
      /* Disable the transfer error interrupt */
      hdma->Instance->CR  &= ~(DMA_IT_TE);
 8001ae0:	687b      	ldr	r3, [r7, #4]
 8001ae2:	681b      	ldr	r3, [r3, #0]
 8001ae4:	681a      	ldr	r2, [r3, #0]
 8001ae6:	687b      	ldr	r3, [r7, #4]
 8001ae8:	681b      	ldr	r3, [r3, #0]
 8001aea:	f022 0204 	bic.w	r2, r2, #4
 8001aee:	601a      	str	r2, [r3, #0]
      
      /* Clear the transfer error flag */
      regs->IFCR = DMA_FLAG_TEIF0_4 << hdma->StreamIndex;
 8001af0:	687b      	ldr	r3, [r7, #4]
 8001af2:	6ddb      	ldr	r3, [r3, #92]	; 0x5c
 8001af4:	2208      	movs	r2, #8
 8001af6:	409a      	lsls	r2, r3
 8001af8:	693b      	ldr	r3, [r7, #16]
 8001afa:	609a      	str	r2, [r3, #8]
      
      /* Update error code */
      hdma->ErrorCode |= HAL_DMA_ERROR_TE;
 8001afc:	687b      	ldr	r3, [r7, #4]
 8001afe:	6d5b      	ldr	r3, [r3, #84]	; 0x54
 8001b00:	f043 0201 	orr.w	r2, r3, #1
 8001b04:	687b      	ldr	r3, [r7, #4]
 8001b06:	655a      	str	r2, [r3, #84]	; 0x54
    }
  }
  /* FIFO Error Interrupt management ******************************************/
  if ((tmpisr & (DMA_FLAG_FEIF0_4 << hdma->StreamIndex)) != RESET)
 8001b08:	687b      	ldr	r3, [r7, #4]
 8001b0a:	6ddb      	ldr	r3, [r3, #92]	; 0x5c
 8001b0c:	2201      	movs	r2, #1
 8001b0e:	409a      	lsls	r2, r3
 8001b10:	68fb      	ldr	r3, [r7, #12]
 8001b12:	4013      	ands	r3, r2
 8001b14:	2b00      	cmp	r3, #0
 8001b16:	d012      	beq.n	8001b3e <HAL_DMA_IRQHandler+0xa2>
  {
    if(__HAL_DMA_GET_IT_SOURCE(hdma, DMA_IT_FE) != RESET)
 8001b18:	687b      	ldr	r3, [r7, #4]
 8001b1a:	681b      	ldr	r3, [r3, #0]
 8001b1c:	695b      	ldr	r3, [r3, #20]
 8001b1e:	f003 0380 	and.w	r3, r3, #128	; 0x80
 8001b22:	2b00      	cmp	r3, #0
 8001b24:	d00b      	beq.n	8001b3e <HAL_DMA_IRQHandler+0xa2>
    {
      /* Clear the FIFO error flag */
      regs->IFCR = DMA_FLAG_FEIF0_4 << hdma->StreamIndex;
 8001b26:	687b      	ldr	r3, [r7, #4]
 8001b28:	6ddb      	ldr	r3, [r3, #92]	; 0x5c
 8001b2a:	2201      	movs	r2, #1
 8001b2c:	409a      	lsls	r2, r3
 8001b2e:	693b      	ldr	r3, [r7, #16]
 8001b30:	609a      	str	r2, [r3, #8]

      /* Update error code */
      hdma->ErrorCode |= HAL_DMA_ERROR_FE;
 8001b32:	687b      	ldr	r3, [r7, #4]
 8001b34:	6d5b      	ldr	r3, [r3, #84]	; 0x54
 8001b36:	f043 0202 	orr.w	r2, r3, #2
 8001b3a:	687b      	ldr	r3, [r7, #4]
 8001b3c:	655a      	str	r2, [r3, #84]	; 0x54
    }
  }
  /* Direct Mode Error Interrupt management ***********************************/
  if ((tmpisr & (DMA_FLAG_DMEIF0_4 << hdma->StreamIndex)) != RESET)
 8001b3e:	687b      	ldr	r3, [r7, #4]
 8001b40:	6ddb      	ldr	r3, [r3, #92]	; 0x5c
 8001b42:	2204      	movs	r2, #4
 8001b44:	409a      	lsls	r2, r3
 8001b46:	68fb      	ldr	r3, [r7, #12]
 8001b48:	4013      	ands	r3, r2
 8001b4a:	2b00      	cmp	r3, #0
 8001b4c:	d012      	beq.n	8001b74 <HAL_DMA_IRQHandler+0xd8>
  {
    if(__HAL_DMA_GET_IT_SOURCE(hdma, DMA_IT_DME) != RESET)
 8001b4e:	687b      	ldr	r3, [r7, #4]
 8001b50:	681b      	ldr	r3, [r3, #0]
 8001b52:	681b      	ldr	r3, [r3, #0]
 8001b54:	f003 0302 	and.w	r3, r3, #2
 8001b58:	2b00      	cmp	r3, #0
 8001b5a:	d00b      	beq.n	8001b74 <HAL_DMA_IRQHandler+0xd8>
    {
      /* Clear the direct mode error flag */
      regs->IFCR = DMA_FLAG_DMEIF0_4 << hdma->StreamIndex;
 8001b5c:	687b      	ldr	r3, [r7, #4]
 8001b5e:	6ddb      	ldr	r3, [r3, #92]	; 0x5c
 8001b60:	2204      	movs	r2, #4
 8001b62:	409a      	lsls	r2, r3
 8001b64:	693b      	ldr	r3, [r7, #16]
 8001b66:	609a      	str	r2, [r3, #8]

      /* Update error code */
      hdma->ErrorCode |= HAL_DMA_ERROR_DME;
 8001b68:	687b      	ldr	r3, [r7, #4]
 8001b6a:	6d5b      	ldr	r3, [r3, #84]	; 0x54
 8001b6c:	f043 0204 	orr.w	r2, r3, #4
 8001b70:	687b      	ldr	r3, [r7, #4]
 8001b72:	655a      	str	r2, [r3, #84]	; 0x54
    }
  }
  /* Half Transfer Complete Interrupt management ******************************/
  if ((tmpisr & (DMA_FLAG_HTIF0_4 << hdma->StreamIndex)) != RESET)
 8001b74:	687b      	ldr	r3, [r7, #4]
 8001b76:	6ddb      	ldr	r3, [r3, #92]	; 0x5c
 8001b78:	2210      	movs	r2, #16
 8001b7a:	409a      	lsls	r2, r3
 8001b7c:	68fb      	ldr	r3, [r7, #12]
 8001b7e:	4013      	ands	r3, r2
 8001b80:	2b00      	cmp	r3, #0
 8001b82:	d043      	beq.n	8001c0c <HAL_DMA_IRQHandler+0x170>
  {
    if(__HAL_DMA_GET_IT_SOURCE(hdma, DMA_IT_HT) != RESET)
 8001b84:	687b      	ldr	r3, [r7, #4]
 8001b86:	681b      	ldr	r3, [r3, #0]
 8001b88:	681b      	ldr	r3, [r3, #0]
 8001b8a:	f003 0308 	and.w	r3, r3, #8
 8001b8e:	2b00      	cmp	r3, #0
 8001b90:	d03c      	beq.n	8001c0c <HAL_DMA_IRQHandler+0x170>
    {
      /* Clear the half transfer complete flag */
      regs->IFCR = DMA_FLAG_HTIF0_4 << hdma->StreamIndex;
 8001b92:	687b      	ldr	r3, [r7, #4]
 8001b94:	6ddb      	ldr	r3, [r3, #92]	; 0x5c
 8001b96:	2210      	movs	r2, #16
 8001b98:	409a      	lsls	r2, r3
 8001b9a:	693b      	ldr	r3, [r7, #16]
 8001b9c:	609a      	str	r2, [r3, #8]
      
      /* Multi_Buffering mode enabled */
      if(((hdma->Instance->CR) & (uint32_t)(DMA_SxCR_DBM)) != RESET)
 8001b9e:	687b      	ldr	r3, [r7, #4]
 8001ba0:	681b      	ldr	r3, [r3, #0]
 8001ba2:	681b      	ldr	r3, [r3, #0]
 8001ba4:	f403 2380 	and.w	r3, r3, #262144	; 0x40000
 8001ba8:	2b00      	cmp	r3, #0
 8001baa:	d018      	beq.n	8001bde <HAL_DMA_IRQHandler+0x142>
      {
        /* Current memory buffer used is Memory 0 */
        if((hdma->Instance->CR & DMA_SxCR_CT) == RESET)
 8001bac:	687b      	ldr	r3, [r7, #4]
 8001bae:	681b      	ldr	r3, [r3, #0]
 8001bb0:	681b      	ldr	r3, [r3, #0]
 8001bb2:	f403 2300 	and.w	r3, r3, #524288	; 0x80000
 8001bb6:	2b00      	cmp	r3, #0
 8001bb8:	d108      	bne.n	8001bcc <HAL_DMA_IRQHandler+0x130>
        {
          if(hdma->XferHalfCpltCallback != NULL)
 8001bba:	687b      	ldr	r3, [r7, #4]
 8001bbc:	6c1b      	ldr	r3, [r3, #64]	; 0x40
 8001bbe:	2b00      	cmp	r3, #0
 8001bc0:	d024      	beq.n	8001c0c <HAL_DMA_IRQHandler+0x170>
          {
            /* Half transfer callback */
            hdma->XferHalfCpltCallback(hdma);
 8001bc2:	687b      	ldr	r3, [r7, #4]
 8001bc4:	6c1b      	ldr	r3, [r3, #64]	; 0x40
 8001bc6:	6878      	ldr	r0, [r7, #4]
 8001bc8:	4798      	blx	r3
 8001bca:	e01f      	b.n	8001c0c <HAL_DMA_IRQHandler+0x170>
          }
        }
        /* Current memory buffer used is Memory 1 */
        else
        {
          if(hdma->XferM1HalfCpltCallback != NULL)
 8001bcc:	687b      	ldr	r3, [r7, #4]
 8001bce:	6c9b      	ldr	r3, [r3, #72]	; 0x48
 8001bd0:	2b00      	cmp	r3, #0
 8001bd2:	d01b      	beq.n	8001c0c <HAL_DMA_IRQHandler+0x170>
          {
            /* Half transfer callback */
            hdma->XferM1HalfCpltCallback(hdma);
 8001bd4:	687b      	ldr	r3, [r7, #4]
 8001bd6:	6c9b      	ldr	r3, [r3, #72]	; 0x48
 8001bd8:	6878      	ldr	r0, [r7, #4]
 8001bda:	4798      	blx	r3
 8001bdc:	e016      	b.n	8001c0c <HAL_DMA_IRQHandler+0x170>
        }
      }
      else
      {
        /* Disable the half transfer interrupt if the DMA mode is not CIRCULAR */
        if((hdma->Instance->CR & DMA_SxCR_CIRC) == RESET)
 8001bde:	687b      	ldr	r3, [r7, #4]
 8001be0:	681b      	ldr	r3, [r3, #0]
 8001be2:	681b      	ldr	r3, [r3, #0]
 8001be4:	f403 7380 	and.w	r3, r3, #256	; 0x100
 8001be8:	2b00      	cmp	r3, #0
 8001bea:	d107      	bne.n	8001bfc <HAL_DMA_IRQHandler+0x160>
        {
          /* Disable the half transfer interrupt */
          hdma->Instance->CR  &= ~(DMA_IT_HT);
 8001bec:	687b      	ldr	r3, [r7, #4]
 8001bee:	681b      	ldr	r3, [r3, #0]
 8001bf0:	681a      	ldr	r2, [r3, #0]
 8001bf2:	687b      	ldr	r3, [r7, #4]
 8001bf4:	681b      	ldr	r3, [r3, #0]
 8001bf6:	f022 0208 	bic.w	r2, r2, #8
 8001bfa:	601a      	str	r2, [r3, #0]
        }
        
        if(hdma->XferHalfCpltCallback != NULL)
 8001bfc:	687b      	ldr	r3, [r7, #4]
 8001bfe:	6c1b      	ldr	r3, [r3, #64]	; 0x40
 8001c00:	2b00      	cmp	r3, #0
 8001c02:	d003      	beq.n	8001c0c <HAL_DMA_IRQHandler+0x170>
        {
          /* Half transfer callback */
          hdma->XferHalfCpltCallback(hdma);
 8001c04:	687b      	ldr	r3, [r7, #4]
 8001c06:	6c1b      	ldr	r3, [r3, #64]	; 0x40
 8001c08:	6878      	ldr	r0, [r7, #4]
 8001c0a:	4798      	blx	r3
        }
      }
    }
  }
  /* Transfer Complete Interrupt management ***********************************/
  if ((tmpisr & (DMA_FLAG_TCIF0_4 << hdma->StreamIndex)) != RESET)
 8001c0c:	687b      	ldr	r3, [r7, #4]
 8001c0e:	6ddb      	ldr	r3, [r3, #92]	; 0x5c
 8001c10:	2220      	movs	r2, #32
 8001c12:	409a      	lsls	r2, r3
 8001c14:	68fb      	ldr	r3, [r7, #12]
 8001c16:	4013      	ands	r3, r2
 8001c18:	2b00      	cmp	r3, #0
 8001c1a:	f000 808e 	beq.w	8001d3a <HAL_DMA_IRQHandler+0x29e>
  {
    if(__HAL_DMA_GET_IT_SOURCE(hdma, DMA_IT_TC) != RESET)
 8001c1e:	687b      	ldr	r3, [r7, #4]
 8001c20:	681b      	ldr	r3, [r3, #0]
 8001c22:	681b      	ldr	r3, [r3, #0]
 8001c24:	f003 0310 	and.w	r3, r3, #16
 8001c28:	2b00      	cmp	r3, #0
 8001c2a:	f000 8086 	beq.w	8001d3a <HAL_DMA_IRQHandler+0x29e>
    {
      /* Clear the transfer complete flag */
      regs->IFCR = DMA_FLAG_TCIF0_4 << hdma->StreamIndex;
 8001c2e:	687b      	ldr	r3, [r7, #4]
 8001c30:	6ddb      	ldr	r3, [r3, #92]	; 0x5c
 8001c32:	2220      	movs	r2, #32
 8001c34:	409a      	lsls	r2, r3
 8001c36:	693b      	ldr	r3, [r7, #16]
 8001c38:	609a      	str	r2, [r3, #8]
      
      if(HAL_DMA_STATE_ABORT == hdma->State)
 8001c3a:	687b      	ldr	r3, [r7, #4]
 8001c3c:	f893 3035 	ldrb.w	r3, [r3, #53]	; 0x35
 8001c40:	b2db      	uxtb	r3, r3
 8001c42:	2b05      	cmp	r3, #5
 8001c44:	d136      	bne.n	8001cb4 <HAL_DMA_IRQHandler+0x218>
      {
        /* Disable all the transfer interrupts */
        hdma->Instance->CR  &= ~(DMA_IT_TC | DMA_IT_TE | DMA_IT_DME);
 8001c46:	687b      	ldr	r3, [r7, #4]
 8001c48:	681b      	ldr	r3, [r3, #0]
 8001c4a:	681a      	ldr	r2, [r3, #0]
 8001c4c:	687b      	ldr	r3, [r7, #4]
 8001c4e:	681b      	ldr	r3, [r3, #0]
 8001c50:	f022 0216 	bic.w	r2, r2, #22
 8001c54:	601a      	str	r2, [r3, #0]
        hdma->Instance->FCR &= ~(DMA_IT_FE);
 8001c56:	687b      	ldr	r3, [r7, #4]
 8001c58:	681b      	ldr	r3, [r3, #0]
 8001c5a:	695a      	ldr	r2, [r3, #20]
 8001c5c:	687b      	ldr	r3, [r7, #4]
 8001c5e:	681b      	ldr	r3, [r3, #0]
 8001c60:	f022 0280 	bic.w	r2, r2, #128	; 0x80
 8001c64:	615a      	str	r2, [r3, #20]
        
        if((hdma->XferHalfCpltCallback != NULL) || (hdma->XferM1HalfCpltCallback != NULL))
 8001c66:	687b      	ldr	r3, [r7, #4]
 8001c68:	6c1b      	ldr	r3, [r3, #64]	; 0x40
 8001c6a:	2b00      	cmp	r3, #0
 8001c6c:	d103      	bne.n	8001c76 <HAL_DMA_IRQHandler+0x1da>
 8001c6e:	687b      	ldr	r3, [r7, #4]
 8001c70:	6c9b      	ldr	r3, [r3, #72]	; 0x48
 8001c72:	2b00      	cmp	r3, #0
 8001c74:	d007      	beq.n	8001c86 <HAL_DMA_IRQHandler+0x1ea>
        {
          hdma->Instance->CR  &= ~(DMA_IT_HT);
 8001c76:	687b      	ldr	r3, [r7, #4]
 8001c78:	681b      	ldr	r3, [r3, #0]
 8001c7a:	681a      	ldr	r2, [r3, #0]
 8001c7c:	687b      	ldr	r3, [r7, #4]
 8001c7e:	681b      	ldr	r3, [r3, #0]
 8001c80:	f022 0208 	bic.w	r2, r2, #8
 8001c84:	601a      	str	r2, [r3, #0]
        }

        /* Clear all interrupt flags at correct offset within the register */
        regs->IFCR = 0x3FU << hdma->StreamIndex;
 8001c86:	687b      	ldr	r3, [r7, #4]
 8001c88:	6ddb      	ldr	r3, [r3, #92]	; 0x5c
 8001c8a:	223f      	movs	r2, #63	; 0x3f
 8001c8c:	409a      	lsls	r2, r3
 8001c8e:	693b      	ldr	r3, [r7, #16]
 8001c90:	609a      	str	r2, [r3, #8]

        /* Process Unlocked */
        __HAL_UNLOCK(hdma);
 8001c92:	687b      	ldr	r3, [r7, #4]
 8001c94:	2200      	movs	r2, #0
 8001c96:	f883 2034 	strb.w	r2, [r3, #52]	; 0x34

        /* Change the DMA state */
        hdma->State = HAL_DMA_STATE_READY;
 8001c9a:	687b      	ldr	r3, [r7, #4]
 8001c9c:	2201      	movs	r2, #1
 8001c9e:	f883 2035 	strb.w	r2, [r3, #53]	; 0x35

        if(hdma->XferAbortCallback != NULL)
 8001ca2:	687b      	ldr	r3, [r7, #4]
 8001ca4:	6d1b      	ldr	r3, [r3, #80]	; 0x50
 8001ca6:	2b00      	cmp	r3, #0
 8001ca8:	d07d      	beq.n	8001da6 <HAL_DMA_IRQHandler+0x30a>
        {
          hdma->XferAbortCallback(hdma);
 8001caa:	687b      	ldr	r3, [r7, #4]
 8001cac:	6d1b      	ldr	r3, [r3, #80]	; 0x50
 8001cae:	6878      	ldr	r0, [r7, #4]
 8001cb0:	4798      	blx	r3
        }
        return;
 8001cb2:	e078      	b.n	8001da6 <HAL_DMA_IRQHandler+0x30a>
      }

      if(((hdma->Instance->CR) & (uint32_t)(DMA_SxCR_DBM)) != RESET)
 8001cb4:	687b      	ldr	r3, [r7, #4]
 8001cb6:	681b      	ldr	r3, [r3, #0]
 8001cb8:	681b      	ldr	r3, [r3, #0]
 8001cba:	f403 2380 	and.w	r3, r3, #262144	; 0x40000
 8001cbe:	2b00      	cmp	r3, #0
 8001cc0:	d01c      	beq.n	8001cfc <HAL_DMA_IRQHandler+0x260>
      {
        /* Current memory buffer used is Memory 0 */
        if((hdma->Instance->CR & DMA_SxCR_CT) == RESET)
 8001cc2:	687b      	ldr	r3, [r7, #4]
 8001cc4:	681b      	ldr	r3, [r3, #0]
 8001cc6:	681b      	ldr	r3, [r3, #0]
 8001cc8:	f403 2300 	and.w	r3, r3, #524288	; 0x80000
 8001ccc:	2b00      	cmp	r3, #0
 8001cce:	d108      	bne.n	8001ce2 <HAL_DMA_IRQHandler+0x246>
        {
          if(hdma->XferM1CpltCallback != NULL)
 8001cd0:	687b      	ldr	r3, [r7, #4]
 8001cd2:	6c5b      	ldr	r3, [r3, #68]	; 0x44
 8001cd4:	2b00      	cmp	r3, #0
 8001cd6:	d030      	beq.n	8001d3a <HAL_DMA_IRQHandler+0x29e>
          {
            /* Transfer complete Callback for memory1 */
            hdma->XferM1CpltCallback(hdma);
 8001cd8:	687b      	ldr	r3, [r7, #4]
 8001cda:	6c5b      	ldr	r3, [r3, #68]	; 0x44
 8001cdc:	6878      	ldr	r0, [r7, #4]
 8001cde:	4798      	blx	r3
 8001ce0:	e02b      	b.n	8001d3a <HAL_DMA_IRQHandler+0x29e>
          }
        }
        /* Current memory buffer used is Memory 1 */
        else
        {
          if(hdma->XferCpltCallback != NULL)
 8001ce2:	687b      	ldr	r3, [r7, #4]
 8001ce4:	6bdb      	ldr	r3, [r3, #60]	; 0x3c
 8001ce6:	2b00      	cmp	r3, #0
 8001ce8:	d027      	beq.n	8001d3a <HAL_DMA_IRQHandler+0x29e>
          {
            /* Transfer complete Callback for memory0 */
            hdma->XferCpltCallback(hdma);
 8001cea:	687b      	ldr	r3, [r7, #4]
 8001cec:	6bdb      	ldr	r3, [r3, #60]	; 0x3c
 8001cee:	6878      	ldr	r0, [r7, #4]
 8001cf0:	4798      	blx	r3
 8001cf2:	e022      	b.n	8001d3a <HAL_DMA_IRQHandler+0x29e>
 8001cf4:	20000020 	.word	0x20000020
 8001cf8:	1b4e81b5 	.word	0x1b4e81b5
        }
      }
      /* Disable the transfer complete interrupt if the DMA mode is not CIRCULAR */
      else
      {
        if((hdma->Instance->CR & DMA_SxCR_CIRC) == RESET)
 8001cfc:	687b      	ldr	r3, [r7, #4]
 8001cfe:	681b      	ldr	r3, [r3, #0]
 8001d00:	681b      	ldr	r3, [r3, #0]
 8001d02:	f403 7380 	and.w	r3, r3, #256	; 0x100
 8001d06:	2b00      	cmp	r3, #0
 8001d08:	d10f      	bne.n	8001d2a <HAL_DMA_IRQHandler+0x28e>
        {
          /* Disable the transfer complete interrupt */
          hdma->Instance->CR  &= ~(DMA_IT_TC);
 8001d0a:	687b      	ldr	r3, [r7, #4]
 8001d0c:	681b      	ldr	r3, [r3, #0]
 8001d0e:	681a      	ldr	r2, [r3, #0]
 8001d10:	687b      	ldr	r3, [r7, #4]
 8001d12:	681b      	ldr	r3, [r3, #0]
 8001d14:	f022 0210 	bic.w	r2, r2, #16
 8001d18:	601a      	str	r2, [r3, #0]

          /* Process Unlocked */
          __HAL_UNLOCK(hdma);
 8001d1a:	687b      	ldr	r3, [r7, #4]
 8001d1c:	2200      	movs	r2, #0
 8001d1e:	f883 2034 	strb.w	r2, [r3, #52]	; 0x34

          /* Change the DMA state */
          hdma->State = HAL_DMA_STATE_READY;
 8001d22:	687b      	ldr	r3, [r7, #4]
 8001d24:	2201      	movs	r2, #1
 8001d26:	f883 2035 	strb.w	r2, [r3, #53]	; 0x35
        }

        if(hdma->XferCpltCallback != NULL)
 8001d2a:	687b      	ldr	r3, [r7, #4]
 8001d2c:	6bdb      	ldr	r3, [r3, #60]	; 0x3c
 8001d2e:	2b00      	cmp	r3, #0
 8001d30:	d003      	beq.n	8001d3a <HAL_DMA_IRQHandler+0x29e>
        {
          /* Transfer complete callback */
          hdma->XferCpltCallback(hdma);
 8001d32:	687b      	ldr	r3, [r7, #4]
 8001d34:	6bdb      	ldr	r3, [r3, #60]	; 0x3c
 8001d36:	6878      	ldr	r0, [r7, #4]
 8001d38:	4798      	blx	r3
      }
    }
  }
  
  /* manage error case */
  if(hdma->ErrorCode != HAL_DMA_ERROR_NONE)
 8001d3a:	687b      	ldr	r3, [r7, #4]
 8001d3c:	6d5b      	ldr	r3, [r3, #84]	; 0x54
 8001d3e:	2b00      	cmp	r3, #0
 8001d40:	d032      	beq.n	8001da8 <HAL_DMA_IRQHandler+0x30c>
  {
    if((hdma->ErrorCode & HAL_DMA_ERROR_TE) != RESET)
 8001d42:	687b      	ldr	r3, [r7, #4]
 8001d44:	6d5b      	ldr	r3, [r3, #84]	; 0x54
 8001d46:	f003 0301 	and.w	r3, r3, #1
 8001d4a:	2b00      	cmp	r3, #0
 8001d4c:	d022      	beq.n	8001d94 <HAL_DMA_IRQHandler+0x2f8>
    {
      hdma->State = HAL_DMA_STATE_ABORT;
 8001d4e:	687b      	ldr	r3, [r7, #4]
 8001d50:	2205      	movs	r2, #5
 8001d52:	f883 2035 	strb.w	r2, [r3, #53]	; 0x35

      /* Disable the stream */
      __HAL_DMA_DISABLE(hdma);
 8001d56:	687b      	ldr	r3, [r7, #4]
 8001d58:	681b      	ldr	r3, [r3, #0]
 8001d5a:	681a      	ldr	r2, [r3, #0]
 8001d5c:	687b      	ldr	r3, [r7, #4]
 8001d5e:	681b      	ldr	r3, [r3, #0]
 8001d60:	f022 0201 	bic.w	r2, r2, #1
 8001d64:	601a      	str	r2, [r3, #0]

      do
      {
        if (++count > timeout)
 8001d66:	68bb      	ldr	r3, [r7, #8]
 8001d68:	3301      	adds	r3, #1
 8001d6a:	60bb      	str	r3, [r7, #8]
 8001d6c:	697a      	ldr	r2, [r7, #20]
 8001d6e:	429a      	cmp	r2, r3
 8001d70:	d307      	bcc.n	8001d82 <HAL_DMA_IRQHandler+0x2e6>
        {
          break;
        }
      }
      while((hdma->Instance->CR & DMA_SxCR_EN) != RESET);
 8001d72:	687b      	ldr	r3, [r7, #4]
 8001d74:	681b      	ldr	r3, [r3, #0]
 8001d76:	681b      	ldr	r3, [r3, #0]
 8001d78:	f003 0301 	and.w	r3, r3, #1
 8001d7c:	2b00      	cmp	r3, #0
 8001d7e:	d1f2      	bne.n	8001d66 <HAL_DMA_IRQHandler+0x2ca>
 8001d80:	e000      	b.n	8001d84 <HAL_DMA_IRQHandler+0x2e8>
          break;
 8001d82:	bf00      	nop

      /* Process Unlocked */
      __HAL_UNLOCK(hdma);
 8001d84:	687b      	ldr	r3, [r7, #4]
 8001d86:	2200      	movs	r2, #0
 8001d88:	f883 2034 	strb.w	r2, [r3, #52]	; 0x34

      /* Change the DMA state */
      hdma->State = HAL_DMA_STATE_READY;
 8001d8c:	687b      	ldr	r3, [r7, #4]
 8001d8e:	2201      	movs	r2, #1
 8001d90:	f883 2035 	strb.w	r2, [r3, #53]	; 0x35
    }

    if(hdma->XferErrorCallback != NULL)
 8001d94:	687b      	ldr	r3, [r7, #4]
 8001d96:	6cdb      	ldr	r3, [r3, #76]	; 0x4c
 8001d98:	2b00      	cmp	r3, #0
 8001d9a:	d005      	beq.n	8001da8 <HAL_DMA_IRQHandler+0x30c>
    {
      /* Transfer error callback */
      hdma->XferErrorCallback(hdma);
 8001d9c:	687b      	ldr	r3, [r7, #4]
 8001d9e:	6cdb      	ldr	r3, [r3, #76]	; 0x4c
 8001da0:	6878      	ldr	r0, [r7, #4]
 8001da2:	4798      	blx	r3
 8001da4:	e000      	b.n	8001da8 <HAL_DMA_IRQHandler+0x30c>
        return;
 8001da6:	bf00      	nop
    }
  }
}
 8001da8:	3718      	adds	r7, #24
 8001daa:	46bd      	mov	sp, r7
 8001dac:	bd80      	pop	{r7, pc}
 8001dae:	bf00      	nop

08001db0 <DMA_SetConfig>:
  * @param  DstAddress The destination memory Buffer address
  * @param  DataLength The length of data to be transferred from source to destination
  * @retval HAL status
  */
static void DMA_SetConfig(DMA_HandleTypeDef *hdma, uint32_t SrcAddress, uint32_t DstAddress, uint32_t DataLength)
{
 8001db0:	b480      	push	{r7}
 8001db2:	b085      	sub	sp, #20
 8001db4:	af00      	add	r7, sp, #0
 8001db6:	60f8      	str	r0, [r7, #12]
 8001db8:	60b9      	str	r1, [r7, #8]
 8001dba:	607a      	str	r2, [r7, #4]
 8001dbc:	603b      	str	r3, [r7, #0]
  /* Clear DBM bit */
  hdma->Instance->CR &= (uint32_t)(~DMA_SxCR_DBM);
 8001dbe:	68fb      	ldr	r3, [r7, #12]
 8001dc0:	681b      	ldr	r3, [r3, #0]
 8001dc2:	681a      	ldr	r2, [r3, #0]
 8001dc4:	68fb      	ldr	r3, [r7, #12]
 8001dc6:	681b      	ldr	r3, [r3, #0]
 8001dc8:	f422 2280 	bic.w	r2, r2, #262144	; 0x40000
 8001dcc:	601a      	str	r2, [r3, #0]

  /* Configure DMA Stream data length */
  hdma->Instance->NDTR = DataLength;
 8001dce:	68fb      	ldr	r3, [r7, #12]
 8001dd0:	681b      	ldr	r3, [r3, #0]
 8001dd2:	683a      	ldr	r2, [r7, #0]
 8001dd4:	605a      	str	r2, [r3, #4]

  /* Memory to Peripheral */
  if((hdma->Init.Direction) == DMA_MEMORY_TO_PERIPH)
 8001dd6:	68fb      	ldr	r3, [r7, #12]
 8001dd8:	689b      	ldr	r3, [r3, #8]
 8001dda:	2b40      	cmp	r3, #64	; 0x40
 8001ddc:	d108      	bne.n	8001df0 <DMA_SetConfig+0x40>
  {
    /* Configure DMA Stream destination address */
    hdma->Instance->PAR = DstAddress;
 8001dde:	68fb      	ldr	r3, [r7, #12]
 8001de0:	681b      	ldr	r3, [r3, #0]
 8001de2:	687a      	ldr	r2, [r7, #4]
 8001de4:	609a      	str	r2, [r3, #8]

    /* Configure DMA Stream source address */
    hdma->Instance->M0AR = SrcAddress;
 8001de6:	68fb      	ldr	r3, [r7, #12]
 8001de8:	681b      	ldr	r3, [r3, #0]
 8001dea:	68ba      	ldr	r2, [r7, #8]
 8001dec:	60da      	str	r2, [r3, #12]
    hdma->Instance->PAR = SrcAddress;

    /* Configure DMA Stream destination address */
    hdma->Instance->M0AR = DstAddress;
  }
}
 8001dee:	e007      	b.n	8001e00 <DMA_SetConfig+0x50>
    hdma->Instance->PAR = SrcAddress;
 8001df0:	68fb      	ldr	r3, [r7, #12]
 8001df2:	681b      	ldr	r3, [r3, #0]
 8001df4:	68ba      	ldr	r2, [r7, #8]
 8001df6:	609a      	str	r2, [r3, #8]
    hdma->Instance->M0AR = DstAddress;
 8001df8:	68fb      	ldr	r3, [r7, #12]
 8001dfa:	681b      	ldr	r3, [r3, #0]
 8001dfc:	687a      	ldr	r2, [r7, #4]
 8001dfe:	60da      	str	r2, [r3, #12]
}
 8001e00:	bf00      	nop
 8001e02:	3714      	adds	r7, #20
 8001e04:	46bd      	mov	sp, r7
 8001e06:	f85d 7b04 	ldr.w	r7, [sp], #4
 8001e0a:	4770      	bx	lr

08001e0c <DMA_CalcBaseAndBitshift>:
  * @param  hdma       pointer to a DMA_HandleTypeDef structure that contains
  *                     the configuration information for the specified DMA Stream. 
  * @retval Stream base address
  */
static uint32_t DMA_CalcBaseAndBitshift(DMA_HandleTypeDef *hdma)
{
 8001e0c:	b480      	push	{r7}
 8001e0e:	b085      	sub	sp, #20
 8001e10:	af00      	add	r7, sp, #0
 8001e12:	6078      	str	r0, [r7, #4]
  uint32_t stream_number = (((uint32_t)hdma->Instance & 0xFFU) - 16U) / 24U;
 8001e14:	687b      	ldr	r3, [r7, #4]
 8001e16:	681b      	ldr	r3, [r3, #0]
 8001e18:	b2db      	uxtb	r3, r3
 8001e1a:	3b10      	subs	r3, #16
 8001e1c:	4a14      	ldr	r2, [pc, #80]	; (8001e70 <DMA_CalcBaseAndBitshift+0x64>)
 8001e1e:	fba2 2303 	umull	r2, r3, r2, r3
 8001e22:	091b      	lsrs	r3, r3, #4
 8001e24:	60fb      	str	r3, [r7, #12]
  
  /* lookup table for necessary bitshift of flags within status registers */
  static const uint8_t flagBitshiftOffset[8U] = {0U, 6U, 16U, 22U, 0U, 6U, 16U, 22U};
  hdma->StreamIndex = flagBitshiftOffset[stream_number];
 8001e26:	4a13      	ldr	r2, [pc, #76]	; (8001e74 <DMA_CalcBaseAndBitshift+0x68>)
 8001e28:	68fb      	ldr	r3, [r7, #12]
 8001e2a:	4413      	add	r3, r2
 8001e2c:	781b      	ldrb	r3, [r3, #0]
 8001e2e:	461a      	mov	r2, r3
 8001e30:	687b      	ldr	r3, [r7, #4]
 8001e32:	65da      	str	r2, [r3, #92]	; 0x5c
  
  if (stream_number > 3U)
 8001e34:	68fb      	ldr	r3, [r7, #12]
 8001e36:	2b03      	cmp	r3, #3
 8001e38:	d909      	bls.n	8001e4e <DMA_CalcBaseAndBitshift+0x42>
  {
    /* return pointer to HISR and HIFCR */
    hdma->StreamBaseAddress = (((uint32_t)hdma->Instance & (uint32_t)(~0x3FFU)) + 4U);
 8001e3a:	687b      	ldr	r3, [r7, #4]
 8001e3c:	681b      	ldr	r3, [r3, #0]
 8001e3e:	f423 737f 	bic.w	r3, r3, #1020	; 0x3fc
 8001e42:	f023 0303 	bic.w	r3, r3, #3
 8001e46:	1d1a      	adds	r2, r3, #4
 8001e48:	687b      	ldr	r3, [r7, #4]
 8001e4a:	659a      	str	r2, [r3, #88]	; 0x58
 8001e4c:	e007      	b.n	8001e5e <DMA_CalcBaseAndBitshift+0x52>
  }
  else
  {
    /* return pointer to LISR and LIFCR */
    hdma->StreamBaseAddress = ((uint32_t)hdma->Instance & (uint32_t)(~0x3FFU));
 8001e4e:	687b      	ldr	r3, [r7, #4]
 8001e50:	681b      	ldr	r3, [r3, #0]
 8001e52:	f423 737f 	bic.w	r3, r3, #1020	; 0x3fc
 8001e56:	f023 0303 	bic.w	r3, r3, #3
 8001e5a:	687a      	ldr	r2, [r7, #4]
 8001e5c:	6593      	str	r3, [r2, #88]	; 0x58
  }
  
  return hdma->StreamBaseAddress;
 8001e5e:	687b      	ldr	r3, [r7, #4]
 8001e60:	6d9b      	ldr	r3, [r3, #88]	; 0x58
}
 8001e62:	4618      	mov	r0, r3
 8001e64:	3714      	adds	r7, #20
 8001e66:	46bd      	mov	sp, r7
 8001e68:	f85d 7b04 	ldr.w	r7, [sp], #4
 8001e6c:	4770      	bx	lr
 8001e6e:	bf00      	nop
 8001e70:	aaaaaaab 	.word	0xaaaaaaab
 8001e74:	08006304 	.word	0x08006304

08001e78 <DMA_CheckFifoParam>:
  * @param  hdma       pointer to a DMA_HandleTypeDef structure that contains
  *                     the configuration information for the specified DMA Stream. 
  * @retval HAL status
  */
static HAL_StatusTypeDef DMA_CheckFifoParam(DMA_HandleTypeDef *hdma)
{
 8001e78:	b480      	push	{r7}
 8001e7a:	b085      	sub	sp, #20
 8001e7c:	af00      	add	r7, sp, #0
 8001e7e:	6078      	str	r0, [r7, #4]
  HAL_StatusTypeDef status = HAL_OK;
 8001e80:	2300      	movs	r3, #0
 8001e82:	73fb      	strb	r3, [r7, #15]
  uint32_t tmp = hdma->Init.FIFOThreshold;
 8001e84:	687b      	ldr	r3, [r7, #4]
 8001e86:	6a9b      	ldr	r3, [r3, #40]	; 0x28
 8001e88:	60bb      	str	r3, [r7, #8]
  
  /* Memory Data size equal to Byte */
  if(hdma->Init.MemDataAlignment == DMA_MDATAALIGN_BYTE)
 8001e8a:	687b      	ldr	r3, [r7, #4]
 8001e8c:	699b      	ldr	r3, [r3, #24]
 8001e8e:	2b00      	cmp	r3, #0
 8001e90:	d11f      	bne.n	8001ed2 <DMA_CheckFifoParam+0x5a>
 8001e92:	68bb      	ldr	r3, [r7, #8]
 8001e94:	2b03      	cmp	r3, #3
 8001e96:	d856      	bhi.n	8001f46 <DMA_CheckFifoParam+0xce>
 8001e98:	a201      	add	r2, pc, #4	; (adr r2, 8001ea0 <DMA_CheckFifoParam+0x28>)
 8001e9a:	f852 f023 	ldr.w	pc, [r2, r3, lsl #2]
 8001e9e:	bf00      	nop
 8001ea0:	08001eb1 	.word	0x08001eb1
 8001ea4:	08001ec3 	.word	0x08001ec3
 8001ea8:	08001eb1 	.word	0x08001eb1
 8001eac:	08001f47 	.word	0x08001f47
  {
    switch (tmp)
    {
    case DMA_FIFO_THRESHOLD_1QUARTERFULL:
    case DMA_FIFO_THRESHOLD_3QUARTERSFULL:
      if ((hdma->Init.MemBurst & DMA_SxCR_MBURST_1) == DMA_SxCR_MBURST_1)
 8001eb0:	687b      	ldr	r3, [r7, #4]
 8001eb2:	6adb      	ldr	r3, [r3, #44]	; 0x2c
 8001eb4:	f003 7380 	and.w	r3, r3, #16777216	; 0x1000000
 8001eb8:	2b00      	cmp	r3, #0
 8001eba:	d046      	beq.n	8001f4a <DMA_CheckFifoParam+0xd2>
      {
        status = HAL_ERROR;
 8001ebc:	2301      	movs	r3, #1
 8001ebe:	73fb      	strb	r3, [r7, #15]
      }
      break;
 8001ec0:	e043      	b.n	8001f4a <DMA_CheckFifoParam+0xd2>
    case DMA_FIFO_THRESHOLD_HALFFULL:
      if (hdma->Init.MemBurst == DMA_MBURST_INC16)
 8001ec2:	687b      	ldr	r3, [r7, #4]
 8001ec4:	6adb      	ldr	r3, [r3, #44]	; 0x2c
 8001ec6:	f1b3 7fc0 	cmp.w	r3, #25165824	; 0x1800000
 8001eca:	d140      	bne.n	8001f4e <DMA_CheckFifoParam+0xd6>
      {
        status = HAL_ERROR;
 8001ecc:	2301      	movs	r3, #1
 8001ece:	73fb      	strb	r3, [r7, #15]
      }
      break;
 8001ed0:	e03d      	b.n	8001f4e <DMA_CheckFifoParam+0xd6>
      break;
    }
  }
  
  /* Memory Data size equal to Half-Word */
  else if (hdma->Init.MemDataAlignment == DMA_MDATAALIGN_HALFWORD)
 8001ed2:	687b      	ldr	r3, [r7, #4]
 8001ed4:	699b      	ldr	r3, [r3, #24]
 8001ed6:	f5b3 5f00 	cmp.w	r3, #8192	; 0x2000
 8001eda:	d121      	bne.n	8001f20 <DMA_CheckFifoParam+0xa8>
 8001edc:	68bb      	ldr	r3, [r7, #8]
 8001ede:	2b03      	cmp	r3, #3
 8001ee0:	d837      	bhi.n	8001f52 <DMA_CheckFifoParam+0xda>
 8001ee2:	a201      	add	r2, pc, #4	; (adr r2, 8001ee8 <DMA_CheckFifoParam+0x70>)
 8001ee4:	f852 f023 	ldr.w	pc, [r2, r3, lsl #2]
 8001ee8:	08001ef9 	.word	0x08001ef9
 8001eec:	08001eff 	.word	0x08001eff
 8001ef0:	08001ef9 	.word	0x08001ef9
 8001ef4:	08001f11 	.word	0x08001f11
  {
    switch (tmp)
    {
    case DMA_FIFO_THRESHOLD_1QUARTERFULL:
    case DMA_FIFO_THRESHOLD_3QUARTERSFULL:
      status = HAL_ERROR;
 8001ef8:	2301      	movs	r3, #1
 8001efa:	73fb      	strb	r3, [r7, #15]
      break;
 8001efc:	e030      	b.n	8001f60 <DMA_CheckFifoParam+0xe8>
    case DMA_FIFO_THRESHOLD_HALFFULL:
      if ((hdma->Init.MemBurst & DMA_SxCR_MBURST_1) == DMA_SxCR_MBURST_1)
 8001efe:	687b      	ldr	r3, [r7, #4]
 8001f00:	6adb      	ldr	r3, [r3, #44]	; 0x2c
 8001f02:	f003 7380 	and.w	r3, r3, #16777216	; 0x1000000
 8001f06:	2b00      	cmp	r3, #0
 8001f08:	d025      	beq.n	8001f56 <DMA_CheckFifoParam+0xde>
      {
        status = HAL_ERROR;
 8001f0a:	2301      	movs	r3, #1
 8001f0c:	73fb      	strb	r3, [r7, #15]
      }
      break;
 8001f0e:	e022      	b.n	8001f56 <DMA_CheckFifoParam+0xde>
    case DMA_FIFO_THRESHOLD_FULL:
      if (hdma->Init.MemBurst == DMA_MBURST_INC16)
 8001f10:	687b      	ldr	r3, [r7, #4]
 8001f12:	6adb      	ldr	r3, [r3, #44]	; 0x2c
 8001f14:	f1b3 7fc0 	cmp.w	r3, #25165824	; 0x1800000
 8001f18:	d11f      	bne.n	8001f5a <DMA_CheckFifoParam+0xe2>
      {
        status = HAL_ERROR;
 8001f1a:	2301      	movs	r3, #1
 8001f1c:	73fb      	strb	r3, [r7, #15]
      }
      break;   
 8001f1e:	e01c      	b.n	8001f5a <DMA_CheckFifoParam+0xe2>
  }
  
  /* Memory Data size equal to Word */
  else
  {
    switch (tmp)
 8001f20:	68bb      	ldr	r3, [r7, #8]
 8001f22:	2b02      	cmp	r3, #2
 8001f24:	d903      	bls.n	8001f2e <DMA_CheckFifoParam+0xb6>
 8001f26:	68bb      	ldr	r3, [r7, #8]
 8001f28:	2b03      	cmp	r3, #3
 8001f2a:	d003      	beq.n	8001f34 <DMA_CheckFifoParam+0xbc>
      {
        status = HAL_ERROR;
      }
      break;
    default:
      break;
 8001f2c:	e018      	b.n	8001f60 <DMA_CheckFifoParam+0xe8>
      status = HAL_ERROR;
 8001f2e:	2301      	movs	r3, #1
 8001f30:	73fb      	strb	r3, [r7, #15]
      break;
 8001f32:	e015      	b.n	8001f60 <DMA_CheckFifoParam+0xe8>
      if ((hdma->Init.MemBurst & DMA_SxCR_MBURST_1) == DMA_SxCR_MBURST_1)
 8001f34:	687b      	ldr	r3, [r7, #4]
 8001f36:	6adb      	ldr	r3, [r3, #44]	; 0x2c
 8001f38:	f003 7380 	and.w	r3, r3, #16777216	; 0x1000000
 8001f3c:	2b00      	cmp	r3, #0
 8001f3e:	d00e      	beq.n	8001f5e <DMA_CheckFifoParam+0xe6>
        status = HAL_ERROR;
 8001f40:	2301      	movs	r3, #1
 8001f42:	73fb      	strb	r3, [r7, #15]
      break;
 8001f44:	e00b      	b.n	8001f5e <DMA_CheckFifoParam+0xe6>
      break;
 8001f46:	bf00      	nop
 8001f48:	e00a      	b.n	8001f60 <DMA_CheckFifoParam+0xe8>
      break;
 8001f4a:	bf00      	nop
 8001f4c:	e008      	b.n	8001f60 <DMA_CheckFifoParam+0xe8>
      break;
 8001f4e:	bf00      	nop
 8001f50:	e006      	b.n	8001f60 <DMA_CheckFifoParam+0xe8>
      break;
 8001f52:	bf00      	nop
 8001f54:	e004      	b.n	8001f60 <DMA_CheckFifoParam+0xe8>
      break;
 8001f56:	bf00      	nop
 8001f58:	e002      	b.n	8001f60 <DMA_CheckFifoParam+0xe8>
      break;   
 8001f5a:	bf00      	nop
 8001f5c:	e000      	b.n	8001f60 <DMA_CheckFifoParam+0xe8>
      break;
 8001f5e:	bf00      	nop
    }
  } 
  
  return status; 
 8001f60:	7bfb      	ldrb	r3, [r7, #15]
}
 8001f62:	4618      	mov	r0, r3
 8001f64:	3714      	adds	r7, #20
 8001f66:	46bd      	mov	sp, r7
 8001f68:	f85d 7b04 	ldr.w	r7, [sp], #4
 8001f6c:	4770      	bx	lr
 8001f6e:	bf00      	nop

08001f70 <HAL_GPIO_Init>:
  * @param  GPIO_Init pointer to a GPIO_InitTypeDef structure that contains
  *         the configuration information for the specified GPIO peripheral.
  * @retval None
  */
void HAL_GPIO_Init(GPIO_TypeDef  *GPIOx, GPIO_InitTypeDef *GPIO_Init)
{
 8001f70:	b480      	push	{r7}
 8001f72:	b089      	sub	sp, #36	; 0x24
 8001f74:	af00      	add	r7, sp, #0
 8001f76:	6078      	str	r0, [r7, #4]
 8001f78:	6039      	str	r1, [r7, #0]
  uint32_t position;
  uint32_t ioposition = 0x00U;
 8001f7a:	2300      	movs	r3, #0
 8001f7c:	617b      	str	r3, [r7, #20]
  uint32_t iocurrent = 0x00U;
 8001f7e:	2300      	movs	r3, #0
 8001f80:	613b      	str	r3, [r7, #16]
  uint32_t temp = 0x00U;
 8001f82:	2300      	movs	r3, #0
 8001f84:	61bb      	str	r3, [r7, #24]
  assert_param(IS_GPIO_PIN(GPIO_Init->Pin));
  assert_param(IS_GPIO_MODE(GPIO_Init->Mode));
  assert_param(IS_GPIO_PULL(GPIO_Init->Pull));

  /* Configure the port pins */
  for(position = 0U; position < GPIO_NUMBER; position++)
 8001f86:	2300      	movs	r3, #0
 8001f88:	61fb      	str	r3, [r7, #28]
 8001f8a:	e16b      	b.n	8002264 <HAL_GPIO_Init+0x2f4>
  {
    /* Get the IO position */
    ioposition = 0x01U << position;
 8001f8c:	2201      	movs	r2, #1
 8001f8e:	69fb      	ldr	r3, [r7, #28]
 8001f90:	fa02 f303 	lsl.w	r3, r2, r3
 8001f94:	617b      	str	r3, [r7, #20]
    /* Get the current IO position */
    iocurrent = (uint32_t)(GPIO_Init->Pin) & ioposition;
 8001f96:	683b      	ldr	r3, [r7, #0]
 8001f98:	681b      	ldr	r3, [r3, #0]
 8001f9a:	697a      	ldr	r2, [r7, #20]
 8001f9c:	4013      	ands	r3, r2
 8001f9e:	613b      	str	r3, [r7, #16]

    if(iocurrent == ioposition)
 8001fa0:	693a      	ldr	r2, [r7, #16]
 8001fa2:	697b      	ldr	r3, [r7, #20]
 8001fa4:	429a      	cmp	r2, r3
 8001fa6:	f040 815a 	bne.w	800225e <HAL_GPIO_Init+0x2ee>
    {
      /*--------------------- GPIO Mode Configuration ------------------------*/
      /* In case of Output or Alternate function mode selection */
      if(((GPIO_Init->Mode & GPIO_MODE) == MODE_OUTPUT) || \
 8001faa:	683b      	ldr	r3, [r7, #0]
 8001fac:	685b      	ldr	r3, [r3, #4]
 8001fae:	f003 0303 	and.w	r3, r3, #3
 8001fb2:	2b01      	cmp	r3, #1
 8001fb4:	d005      	beq.n	8001fc2 <HAL_GPIO_Init+0x52>
          (GPIO_Init->Mode & GPIO_MODE) == MODE_AF)
 8001fb6:	683b      	ldr	r3, [r7, #0]
 8001fb8:	685b      	ldr	r3, [r3, #4]
 8001fba:	f003 0303 	and.w	r3, r3, #3
      if(((GPIO_Init->Mode & GPIO_MODE) == MODE_OUTPUT) || \
 8001fbe:	2b02      	cmp	r3, #2
 8001fc0:	d130      	bne.n	8002024 <HAL_GPIO_Init+0xb4>
      {
        /* Check the Speed parameter */
        assert_param(IS_GPIO_SPEED(GPIO_Init->Speed));
        /* Configure the IO Speed */
        temp = GPIOx->OSPEEDR; 
 8001fc2:	687b      	ldr	r3, [r7, #4]
 8001fc4:	689b      	ldr	r3, [r3, #8]
 8001fc6:	61bb      	str	r3, [r7, #24]
        temp &= ~(GPIO_OSPEEDER_OSPEEDR0 << (position * 2U));
 8001fc8:	69fb      	ldr	r3, [r7, #28]
 8001fca:	005b      	lsls	r3, r3, #1
 8001fcc:	2203      	movs	r2, #3
 8001fce:	fa02 f303 	lsl.w	r3, r2, r3
 8001fd2:	43db      	mvns	r3, r3
 8001fd4:	69ba      	ldr	r2, [r7, #24]
 8001fd6:	4013      	ands	r3, r2
 8001fd8:	61bb      	str	r3, [r7, #24]
        temp |= (GPIO_Init->Speed << (position * 2U));
 8001fda:	683b      	ldr	r3, [r7, #0]
 8001fdc:	68da      	ldr	r2, [r3, #12]
 8001fde:	69fb      	ldr	r3, [r7, #28]
 8001fe0:	005b      	lsls	r3, r3, #1
 8001fe2:	fa02 f303 	lsl.w	r3, r2, r3
 8001fe6:	69ba      	ldr	r2, [r7, #24]
 8001fe8:	4313      	orrs	r3, r2
 8001fea:	61bb      	str	r3, [r7, #24]
        GPIOx->OSPEEDR = temp;
 8001fec:	687b      	ldr	r3, [r7, #4]
 8001fee:	69ba      	ldr	r2, [r7, #24]
 8001ff0:	609a      	str	r2, [r3, #8]

        /* Configure the IO Output Type */
        temp = GPIOx->OTYPER;
 8001ff2:	687b      	ldr	r3, [r7, #4]
 8001ff4:	685b      	ldr	r3, [r3, #4]
 8001ff6:	61bb      	str	r3, [r7, #24]
        temp &= ~(GPIO_OTYPER_OT_0 << position) ;
 8001ff8:	2201      	movs	r2, #1
 8001ffa:	69fb      	ldr	r3, [r7, #28]
 8001ffc:	fa02 f303 	lsl.w	r3, r2, r3
 8002000:	43db      	mvns	r3, r3
 8002002:	69ba      	ldr	r2, [r7, #24]
 8002004:	4013      	ands	r3, r2
 8002006:	61bb      	str	r3, [r7, #24]
        temp |= (((GPIO_Init->Mode & GPIO_OUTPUT_TYPE) >> 4U) << position);
 8002008:	683b      	ldr	r3, [r7, #0]
 800200a:	685b      	ldr	r3, [r3, #4]
 800200c:	091b      	lsrs	r3, r3, #4
 800200e:	f003 0201 	and.w	r2, r3, #1
 8002012:	69fb      	ldr	r3, [r7, #28]
 8002014:	fa02 f303 	lsl.w	r3, r2, r3
 8002018:	69ba      	ldr	r2, [r7, #24]
 800201a:	4313      	orrs	r3, r2
 800201c:	61bb      	str	r3, [r7, #24]
        GPIOx->OTYPER = temp;
 800201e:	687b      	ldr	r3, [r7, #4]
 8002020:	69ba      	ldr	r2, [r7, #24]
 8002022:	605a      	str	r2, [r3, #4]
       }

      if((GPIO_Init->Mode & GPIO_MODE) != MODE_ANALOG)
 8002024:	683b      	ldr	r3, [r7, #0]
 8002026:	685b      	ldr	r3, [r3, #4]
 8002028:	f003 0303 	and.w	r3, r3, #3
 800202c:	2b03      	cmp	r3, #3
 800202e:	d017      	beq.n	8002060 <HAL_GPIO_Init+0xf0>
      {
        /* Activate the Pull-up or Pull down resistor for the current IO */
        temp = GPIOx->PUPDR;
 8002030:	687b      	ldr	r3, [r7, #4]
 8002032:	68db      	ldr	r3, [r3, #12]
 8002034:	61bb      	str	r3, [r7, #24]
        temp &= ~(GPIO_PUPDR_PUPDR0 << (position * 2U));
 8002036:	69fb      	ldr	r3, [r7, #28]
 8002038:	005b      	lsls	r3, r3, #1
 800203a:	2203      	movs	r2, #3
 800203c:	fa02 f303 	lsl.w	r3, r2, r3
 8002040:	43db      	mvns	r3, r3
 8002042:	69ba      	ldr	r2, [r7, #24]
 8002044:	4013      	ands	r3, r2
 8002046:	61bb      	str	r3, [r7, #24]
        temp |= ((GPIO_Init->Pull) << (position * 2U));
 8002048:	683b      	ldr	r3, [r7, #0]
 800204a:	689a      	ldr	r2, [r3, #8]
 800204c:	69fb      	ldr	r3, [r7, #28]
 800204e:	005b      	lsls	r3, r3, #1
 8002050:	fa02 f303 	lsl.w	r3, r2, r3
 8002054:	69ba      	ldr	r2, [r7, #24]
 8002056:	4313      	orrs	r3, r2
 8002058:	61bb      	str	r3, [r7, #24]
        GPIOx->PUPDR = temp;
 800205a:	687b      	ldr	r3, [r7, #4]
 800205c:	69ba      	ldr	r2, [r7, #24]
 800205e:	60da      	str	r2, [r3, #12]
      }

      /* In case of Alternate function mode selection */
      if((GPIO_Init->Mode & GPIO_MODE) == MODE_AF)
 8002060:	683b      	ldr	r3, [r7, #0]
 8002062:	685b      	ldr	r3, [r3, #4]
 8002064:	f003 0303 	and.w	r3, r3, #3
 8002068:	2b02      	cmp	r3, #2
 800206a:	d123      	bne.n	80020b4 <HAL_GPIO_Init+0x144>
      {
        /* Check the Alternate function parameter */
        assert_param(IS_GPIO_AF(GPIO_Init->Alternate));
        /* Configure Alternate function mapped with the current IO */
        temp = GPIOx->AFR[position >> 3U];
 800206c:	69fb      	ldr	r3, [r7, #28]
 800206e:	08da      	lsrs	r2, r3, #3
 8002070:	687b      	ldr	r3, [r7, #4]
 8002072:	3208      	adds	r2, #8
 8002074:	f853 3022 	ldr.w	r3, [r3, r2, lsl #2]
 8002078:	61bb      	str	r3, [r7, #24]
        temp &= ~(0xFU << ((uint32_t)(position & 0x07U) * 4U)) ;
 800207a:	69fb      	ldr	r3, [r7, #28]
 800207c:	f003 0307 	and.w	r3, r3, #7
 8002080:	009b      	lsls	r3, r3, #2
 8002082:	220f      	movs	r2, #15
 8002084:	fa02 f303 	lsl.w	r3, r2, r3
 8002088:	43db      	mvns	r3, r3
 800208a:	69ba      	ldr	r2, [r7, #24]
 800208c:	4013      	ands	r3, r2
 800208e:	61bb      	str	r3, [r7, #24]
        temp |= ((uint32_t)(GPIO_Init->Alternate) << (((uint32_t)position & 0x07U) * 4U));
 8002090:	683b      	ldr	r3, [r7, #0]
 8002092:	691a      	ldr	r2, [r3, #16]
 8002094:	69fb      	ldr	r3, [r7, #28]
 8002096:	f003 0307 	and.w	r3, r3, #7
 800209a:	009b      	lsls	r3, r3, #2
 800209c:	fa02 f303 	lsl.w	r3, r2, r3
 80020a0:	69ba      	ldr	r2, [r7, #24]
 80020a2:	4313      	orrs	r3, r2
 80020a4:	61bb      	str	r3, [r7, #24]
        GPIOx->AFR[position >> 3U] = temp;
 80020a6:	69fb      	ldr	r3, [r7, #28]
 80020a8:	08da      	lsrs	r2, r3, #3
 80020aa:	687b      	ldr	r3, [r7, #4]
 80020ac:	3208      	adds	r2, #8
 80020ae:	69b9      	ldr	r1, [r7, #24]
 80020b0:	f843 1022 	str.w	r1, [r3, r2, lsl #2]
      }

      /* Configure IO Direction mode (Input, Output, Alternate or Analog) */
      temp = GPIOx->MODER;
 80020b4:	687b      	ldr	r3, [r7, #4]
 80020b6:	681b      	ldr	r3, [r3, #0]
 80020b8:	61bb      	str	r3, [r7, #24]
      temp &= ~(GPIO_MODER_MODER0 << (position * 2U));
 80020ba:	69fb      	ldr	r3, [r7, #28]
 80020bc:	005b      	lsls	r3, r3, #1
 80020be:	2203      	movs	r2, #3
 80020c0:	fa02 f303 	lsl.w	r3, r2, r3
 80020c4:	43db      	mvns	r3, r3
 80020c6:	69ba      	ldr	r2, [r7, #24]
 80020c8:	4013      	ands	r3, r2
 80020ca:	61bb      	str	r3, [r7, #24]
      temp |= ((GPIO_Init->Mode & GPIO_MODE) << (position * 2U));
 80020cc:	683b      	ldr	r3, [r7, #0]
 80020ce:	685b      	ldr	r3, [r3, #4]
 80020d0:	f003 0203 	and.w	r2, r3, #3
 80020d4:	69fb      	ldr	r3, [r7, #28]
 80020d6:	005b      	lsls	r3, r3, #1
 80020d8:	fa02 f303 	lsl.w	r3, r2, r3
 80020dc:	69ba      	ldr	r2, [r7, #24]
 80020de:	4313      	orrs	r3, r2
 80020e0:	61bb      	str	r3, [r7, #24]
      GPIOx->MODER = temp;
 80020e2:	687b      	ldr	r3, [r7, #4]
 80020e4:	69ba      	ldr	r2, [r7, #24]
 80020e6:	601a      	str	r2, [r3, #0]

      /*--------------------- EXTI Mode Configuration ------------------------*/
      /* Configure the External Interrupt or event for the current IO */
      if((GPIO_Init->Mode & EXTI_MODE) == EXTI_MODE)
 80020e8:	683b      	ldr	r3, [r7, #0]
 80020ea:	685b      	ldr	r3, [r3, #4]
 80020ec:	f003 5380 	and.w	r3, r3, #268435456	; 0x10000000
 80020f0:	2b00      	cmp	r3, #0
 80020f2:	f000 80b4 	beq.w	800225e <HAL_GPIO_Init+0x2ee>
      {
        /* Enable SYSCFG Clock */
        __HAL_RCC_SYSCFG_CLK_ENABLE();
 80020f6:	2300      	movs	r3, #0
 80020f8:	60fb      	str	r3, [r7, #12]
 80020fa:	4b60      	ldr	r3, [pc, #384]	; (800227c <HAL_GPIO_Init+0x30c>)
 80020fc:	6c5b      	ldr	r3, [r3, #68]	; 0x44
 80020fe:	4a5f      	ldr	r2, [pc, #380]	; (800227c <HAL_GPIO_Init+0x30c>)
 8002100:	f443 4380 	orr.w	r3, r3, #16384	; 0x4000
 8002104:	6453      	str	r3, [r2, #68]	; 0x44
 8002106:	4b5d      	ldr	r3, [pc, #372]	; (800227c <HAL_GPIO_Init+0x30c>)
 8002108:	6c5b      	ldr	r3, [r3, #68]	; 0x44
 800210a:	f403 4380 	and.w	r3, r3, #16384	; 0x4000
 800210e:	60fb      	str	r3, [r7, #12]
 8002110:	68fb      	ldr	r3, [r7, #12]

        temp = SYSCFG->EXTICR[position >> 2U];
 8002112:	4a5b      	ldr	r2, [pc, #364]	; (8002280 <HAL_GPIO_Init+0x310>)
 8002114:	69fb      	ldr	r3, [r7, #28]
 8002116:	089b      	lsrs	r3, r3, #2
 8002118:	3302      	adds	r3, #2
 800211a:	f852 3023 	ldr.w	r3, [r2, r3, lsl #2]
 800211e:	61bb      	str	r3, [r7, #24]
        temp &= ~(0x0FU << (4U * (position & 0x03U)));
 8002120:	69fb      	ldr	r3, [r7, #28]
 8002122:	f003 0303 	and.w	r3, r3, #3
 8002126:	009b      	lsls	r3, r3, #2
 8002128:	220f      	movs	r2, #15
 800212a:	fa02 f303 	lsl.w	r3, r2, r3
 800212e:	43db      	mvns	r3, r3
 8002130:	69ba      	ldr	r2, [r7, #24]
 8002132:	4013      	ands	r3, r2
 8002134:	61bb      	str	r3, [r7, #24]
        temp |= ((uint32_t)(GPIO_GET_INDEX(GPIOx)) << (4U * (position & 0x03U)));
 8002136:	687b      	ldr	r3, [r7, #4]
 8002138:	4a52      	ldr	r2, [pc, #328]	; (8002284 <HAL_GPIO_Init+0x314>)
 800213a:	4293      	cmp	r3, r2
 800213c:	d02b      	beq.n	8002196 <HAL_GPIO_Init+0x226>
 800213e:	687b      	ldr	r3, [r7, #4]
 8002140:	4a51      	ldr	r2, [pc, #324]	; (8002288 <HAL_GPIO_Init+0x318>)
 8002142:	4293      	cmp	r3, r2
 8002144:	d025      	beq.n	8002192 <HAL_GPIO_Init+0x222>
 8002146:	687b      	ldr	r3, [r7, #4]
 8002148:	4a50      	ldr	r2, [pc, #320]	; (800228c <HAL_GPIO_Init+0x31c>)
 800214a:	4293      	cmp	r3, r2
 800214c:	d01f      	beq.n	800218e <HAL_GPIO_Init+0x21e>
 800214e:	687b      	ldr	r3, [r7, #4]
 8002150:	4a4f      	ldr	r2, [pc, #316]	; (8002290 <HAL_GPIO_Init+0x320>)
 8002152:	4293      	cmp	r3, r2
 8002154:	d019      	beq.n	800218a <HAL_GPIO_Init+0x21a>
 8002156:	687b      	ldr	r3, [r7, #4]
 8002158:	4a4e      	ldr	r2, [pc, #312]	; (8002294 <HAL_GPIO_Init+0x324>)
 800215a:	4293      	cmp	r3, r2
 800215c:	d013      	beq.n	8002186 <HAL_GPIO_Init+0x216>
 800215e:	687b      	ldr	r3, [r7, #4]
 8002160:	4a4d      	ldr	r2, [pc, #308]	; (8002298 <HAL_GPIO_Init+0x328>)
 8002162:	4293      	cmp	r3, r2
 8002164:	d00d      	beq.n	8002182 <HAL_GPIO_Init+0x212>
 8002166:	687b      	ldr	r3, [r7, #4]
 8002168:	4a4c      	ldr	r2, [pc, #304]	; (800229c <HAL_GPIO_Init+0x32c>)
 800216a:	4293      	cmp	r3, r2
 800216c:	d007      	beq.n	800217e <HAL_GPIO_Init+0x20e>
 800216e:	687b      	ldr	r3, [r7, #4]
 8002170:	4a4b      	ldr	r2, [pc, #300]	; (80022a0 <HAL_GPIO_Init+0x330>)
 8002172:	4293      	cmp	r3, r2
 8002174:	d101      	bne.n	800217a <HAL_GPIO_Init+0x20a>
 8002176:	2307      	movs	r3, #7
 8002178:	e00e      	b.n	8002198 <HAL_GPIO_Init+0x228>
 800217a:	2308      	movs	r3, #8
 800217c:	e00c      	b.n	8002198 <HAL_GPIO_Init+0x228>
 800217e:	2306      	movs	r3, #6
 8002180:	e00a      	b.n	8002198 <HAL_GPIO_Init+0x228>
 8002182:	2305      	movs	r3, #5
 8002184:	e008      	b.n	8002198 <HAL_GPIO_Init+0x228>
 8002186:	2304      	movs	r3, #4
 8002188:	e006      	b.n	8002198 <HAL_GPIO_Init+0x228>
 800218a:	2303      	movs	r3, #3
 800218c:	e004      	b.n	8002198 <HAL_GPIO_Init+0x228>
 800218e:	2302      	movs	r3, #2
 8002190:	e002      	b.n	8002198 <HAL_GPIO_Init+0x228>
 8002192:	2301      	movs	r3, #1
 8002194:	e000      	b.n	8002198 <HAL_GPIO_Init+0x228>
 8002196:	2300      	movs	r3, #0
 8002198:	69fa      	ldr	r2, [r7, #28]
 800219a:	f002 0203 	and.w	r2, r2, #3
 800219e:	0092      	lsls	r2, r2, #2
 80021a0:	4093      	lsls	r3, r2
 80021a2:	69ba      	ldr	r2, [r7, #24]
 80021a4:	4313      	orrs	r3, r2
 80021a6:	61bb      	str	r3, [r7, #24]
        SYSCFG->EXTICR[position >> 2U] = temp;
 80021a8:	4935      	ldr	r1, [pc, #212]	; (8002280 <HAL_GPIO_Init+0x310>)
 80021aa:	69fb      	ldr	r3, [r7, #28]
 80021ac:	089b      	lsrs	r3, r3, #2
 80021ae:	3302      	adds	r3, #2
 80021b0:	69ba      	ldr	r2, [r7, #24]
 80021b2:	f841 2023 	str.w	r2, [r1, r3, lsl #2]

        /* Clear EXTI line configuration */
        temp = EXTI->IMR;
 80021b6:	4b3b      	ldr	r3, [pc, #236]	; (80022a4 <HAL_GPIO_Init+0x334>)
 80021b8:	681b      	ldr	r3, [r3, #0]
 80021ba:	61bb      	str	r3, [r7, #24]
        temp &= ~((uint32_t)iocurrent);
 80021bc:	693b      	ldr	r3, [r7, #16]
 80021be:	43db      	mvns	r3, r3
 80021c0:	69ba      	ldr	r2, [r7, #24]
 80021c2:	4013      	ands	r3, r2
 80021c4:	61bb      	str	r3, [r7, #24]
        if((GPIO_Init->Mode & GPIO_MODE_IT) == GPIO_MODE_IT)
 80021c6:	683b      	ldr	r3, [r7, #0]
 80021c8:	685b      	ldr	r3, [r3, #4]
 80021ca:	f403 3380 	and.w	r3, r3, #65536	; 0x10000
 80021ce:	2b00      	cmp	r3, #0
 80021d0:	d003      	beq.n	80021da <HAL_GPIO_Init+0x26a>
        {
          temp |= iocurrent;
 80021d2:	69ba      	ldr	r2, [r7, #24]
 80021d4:	693b      	ldr	r3, [r7, #16]
 80021d6:	4313      	orrs	r3, r2
 80021d8:	61bb      	str	r3, [r7, #24]
        }
        EXTI->IMR = temp;
 80021da:	4a32      	ldr	r2, [pc, #200]	; (80022a4 <HAL_GPIO_Init+0x334>)
 80021dc:	69bb      	ldr	r3, [r7, #24]
 80021de:	6013      	str	r3, [r2, #0]

        temp = EXTI->EMR;
 80021e0:	4b30      	ldr	r3, [pc, #192]	; (80022a4 <HAL_GPIO_Init+0x334>)
 80021e2:	685b      	ldr	r3, [r3, #4]
 80021e4:	61bb      	str	r3, [r7, #24]
        temp &= ~((uint32_t)iocurrent);
 80021e6:	693b      	ldr	r3, [r7, #16]
 80021e8:	43db      	mvns	r3, r3
 80021ea:	69ba      	ldr	r2, [r7, #24]
 80021ec:	4013      	ands	r3, r2
 80021ee:	61bb      	str	r3, [r7, #24]
        if((GPIO_Init->Mode & GPIO_MODE_EVT) == GPIO_MODE_EVT)
 80021f0:	683b      	ldr	r3, [r7, #0]
 80021f2:	685b      	ldr	r3, [r3, #4]
 80021f4:	f403 3300 	and.w	r3, r3, #131072	; 0x20000
 80021f8:	2b00      	cmp	r3, #0
 80021fa:	d003      	beq.n	8002204 <HAL_GPIO_Init+0x294>
        {
          temp |= iocurrent;
 80021fc:	69ba      	ldr	r2, [r7, #24]
 80021fe:	693b      	ldr	r3, [r7, #16]
 8002200:	4313      	orrs	r3, r2
 8002202:	61bb      	str	r3, [r7, #24]
        }
        EXTI->EMR = temp;
 8002204:	4a27      	ldr	r2, [pc, #156]	; (80022a4 <HAL_GPIO_Init+0x334>)
 8002206:	69bb      	ldr	r3, [r7, #24]
 8002208:	6053      	str	r3, [r2, #4]

        /* Clear Rising Falling edge configuration */
        temp = EXTI->RTSR;
 800220a:	4b26      	ldr	r3, [pc, #152]	; (80022a4 <HAL_GPIO_Init+0x334>)
 800220c:	689b      	ldr	r3, [r3, #8]
 800220e:	61bb      	str	r3, [r7, #24]
        temp &= ~((uint32_t)iocurrent);
 8002210:	693b      	ldr	r3, [r7, #16]
 8002212:	43db      	mvns	r3, r3
 8002214:	69ba      	ldr	r2, [r7, #24]
 8002216:	4013      	ands	r3, r2
 8002218:	61bb      	str	r3, [r7, #24]
        if((GPIO_Init->Mode & RISING_EDGE) == RISING_EDGE)
 800221a:	683b      	ldr	r3, [r7, #0]
 800221c:	685b      	ldr	r3, [r3, #4]
 800221e:	f403 1380 	and.w	r3, r3, #1048576	; 0x100000
 8002222:	2b00      	cmp	r3, #0
 8002224:	d003      	beq.n	800222e <HAL_GPIO_Init+0x2be>
        {
          temp |= iocurrent;
 8002226:	69ba      	ldr	r2, [r7, #24]
 8002228:	693b      	ldr	r3, [r7, #16]
 800222a:	4313      	orrs	r3, r2
 800222c:	61bb      	str	r3, [r7, #24]
        }
        EXTI->RTSR = temp;
 800222e:	4a1d      	ldr	r2, [pc, #116]	; (80022a4 <HAL_GPIO_Init+0x334>)
 8002230:	69bb      	ldr	r3, [r7, #24]
 8002232:	6093      	str	r3, [r2, #8]

        temp = EXTI->FTSR;
 8002234:	4b1b      	ldr	r3, [pc, #108]	; (80022a4 <HAL_GPIO_Init+0x334>)
 8002236:	68db      	ldr	r3, [r3, #12]
 8002238:	61bb      	str	r3, [r7, #24]
        temp &= ~((uint32_t)iocurrent);
 800223a:	693b      	ldr	r3, [r7, #16]
 800223c:	43db      	mvns	r3, r3
 800223e:	69ba      	ldr	r2, [r7, #24]
 8002240:	4013      	ands	r3, r2
 8002242:	61bb      	str	r3, [r7, #24]
        if((GPIO_Init->Mode & FALLING_EDGE) == FALLING_EDGE)
 8002244:	683b      	ldr	r3, [r7, #0]
 8002246:	685b      	ldr	r3, [r3, #4]
 8002248:	f403 1300 	and.w	r3, r3, #2097152	; 0x200000
 800224c:	2b00      	cmp	r3, #0
 800224e:	d003      	beq.n	8002258 <HAL_GPIO_Init+0x2e8>
        {
          temp |= iocurrent;
 8002250:	69ba      	ldr	r2, [r7, #24]
 8002252:	693b      	ldr	r3, [r7, #16]
 8002254:	4313      	orrs	r3, r2
 8002256:	61bb      	str	r3, [r7, #24]
        }
        EXTI->FTSR = temp;
 8002258:	4a12      	ldr	r2, [pc, #72]	; (80022a4 <HAL_GPIO_Init+0x334>)
 800225a:	69bb      	ldr	r3, [r7, #24]
 800225c:	60d3      	str	r3, [r2, #12]
  for(position = 0U; position < GPIO_NUMBER; position++)
 800225e:	69fb      	ldr	r3, [r7, #28]
 8002260:	3301      	adds	r3, #1
 8002262:	61fb      	str	r3, [r7, #28]
 8002264:	69fb      	ldr	r3, [r7, #28]
 8002266:	2b0f      	cmp	r3, #15
 8002268:	f67f ae90 	bls.w	8001f8c <HAL_GPIO_Init+0x1c>
      }
    }
  }
}
 800226c:	bf00      	nop
 800226e:	bf00      	nop
 8002270:	3724      	adds	r7, #36	; 0x24
 8002272:	46bd      	mov	sp, r7
 8002274:	f85d 7b04 	ldr.w	r7, [sp], #4
 8002278:	4770      	bx	lr
 800227a:	bf00      	nop
 800227c:	40023800 	.word	0x40023800
 8002280:	40013800 	.word	0x40013800
 8002284:	40020000 	.word	0x40020000
 8002288:	40020400 	.word	0x40020400
 800228c:	40020800 	.word	0x40020800
 8002290:	40020c00 	.word	0x40020c00
 8002294:	40021000 	.word	0x40021000
 8002298:	40021400 	.word	0x40021400
 800229c:	40021800 	.word	0x40021800
 80022a0:	40021c00 	.word	0x40021c00
 80022a4:	40013c00 	.word	0x40013c00

080022a8 <HAL_GPIO_WritePin>:
  *            @arg GPIO_PIN_RESET: to clear the port pin
  *            @arg GPIO_PIN_SET: to set the port pin
  * @retval None
  */
void HAL_GPIO_WritePin(GPIO_TypeDef* GPIOx, uint16_t GPIO_Pin, GPIO_PinState PinState)
{
 80022a8:	b480      	push	{r7}
 80022aa:	b083      	sub	sp, #12
 80022ac:	af00      	add	r7, sp, #0
 80022ae:	6078      	str	r0, [r7, #4]
 80022b0:	460b      	mov	r3, r1
 80022b2:	807b      	strh	r3, [r7, #2]
 80022b4:	4613      	mov	r3, r2
 80022b6:	707b      	strb	r3, [r7, #1]
  /* Check the parameters */
  assert_param(IS_GPIO_PIN(GPIO_Pin));
  assert_param(IS_GPIO_PIN_ACTION(PinState));

  if(PinState != GPIO_PIN_RESET)
 80022b8:	787b      	ldrb	r3, [r7, #1]
 80022ba:	2b00      	cmp	r3, #0
 80022bc:	d003      	beq.n	80022c6 <HAL_GPIO_WritePin+0x1e>
  {
    GPIOx->BSRR = GPIO_Pin;
 80022be:	887a      	ldrh	r2, [r7, #2]
 80022c0:	687b      	ldr	r3, [r7, #4]
 80022c2:	619a      	str	r2, [r3, #24]
  }
  else
  {
    GPIOx->BSRR = (uint32_t)GPIO_Pin << 16U;
  }
}
 80022c4:	e003      	b.n	80022ce <HAL_GPIO_WritePin+0x26>
    GPIOx->BSRR = (uint32_t)GPIO_Pin << 16U;
 80022c6:	887b      	ldrh	r3, [r7, #2]
 80022c8:	041a      	lsls	r2, r3, #16
 80022ca:	687b      	ldr	r3, [r7, #4]
 80022cc:	619a      	str	r2, [r3, #24]
}
 80022ce:	bf00      	nop
 80022d0:	370c      	adds	r7, #12
 80022d2:	46bd      	mov	sp, r7
 80022d4:	f85d 7b04 	ldr.w	r7, [sp], #4
 80022d8:	4770      	bx	lr
	...

080022dc <HAL_RCC_OscConfig>:
  *         supported by this API. User should request a transition to HSE Off
  *         first and then HSE On or HSE Bypass.
  * @retval HAL status
  */
__weak HAL_StatusTypeDef HAL_RCC_OscConfig(RCC_OscInitTypeDef  *RCC_OscInitStruct)
{
 80022dc:	b580      	push	{r7, lr}
 80022de:	b086      	sub	sp, #24
 80022e0:	af00      	add	r7, sp, #0
 80022e2:	6078      	str	r0, [r7, #4]
  uint32_t tickstart, pll_config;

  /* Check Null pointer */
  if(RCC_OscInitStruct == NULL)
 80022e4:	687b      	ldr	r3, [r7, #4]
 80022e6:	2b00      	cmp	r3, #0
 80022e8:	d101      	bne.n	80022ee <HAL_RCC_OscConfig+0x12>
  {
    return HAL_ERROR;
 80022ea:	2301      	movs	r3, #1
 80022ec:	e264      	b.n	80027b8 <HAL_RCC_OscConfig+0x4dc>
  }

  /* Check the parameters */
  assert_param(IS_RCC_OSCILLATORTYPE(RCC_OscInitStruct->OscillatorType));
  /*------------------------------- HSE Configuration ------------------------*/
  if(((RCC_OscInitStruct->OscillatorType) & RCC_OSCILLATORTYPE_HSE) == RCC_OSCILLATORTYPE_HSE)
 80022ee:	687b      	ldr	r3, [r7, #4]
 80022f0:	681b      	ldr	r3, [r3, #0]
 80022f2:	f003 0301 	and.w	r3, r3, #1
 80022f6:	2b00      	cmp	r3, #0
 80022f8:	d075      	beq.n	80023e6 <HAL_RCC_OscConfig+0x10a>
  {
    /* Check the parameters */
    assert_param(IS_RCC_HSE(RCC_OscInitStruct->HSEState));
    /* When the HSE is used as system clock or clock source for PLL in these cases HSE will not disabled */
    if((__HAL_RCC_GET_SYSCLK_SOURCE() == RCC_CFGR_SWS_HSE) ||\
 80022fa:	4ba3      	ldr	r3, [pc, #652]	; (8002588 <HAL_RCC_OscConfig+0x2ac>)
 80022fc:	689b      	ldr	r3, [r3, #8]
 80022fe:	f003 030c 	and.w	r3, r3, #12
 8002302:	2b04      	cmp	r3, #4
 8002304:	d00c      	beq.n	8002320 <HAL_RCC_OscConfig+0x44>
      ((__HAL_RCC_GET_SYSCLK_SOURCE() == RCC_CFGR_SWS_PLL) && ((RCC->PLLCFGR & RCC_PLLCFGR_PLLSRC) == RCC_PLLCFGR_PLLSRC_HSE)))
 8002306:	4ba0      	ldr	r3, [pc, #640]	; (8002588 <HAL_RCC_OscConfig+0x2ac>)
 8002308:	689b      	ldr	r3, [r3, #8]
 800230a:	f003 030c 	and.w	r3, r3, #12
    if((__HAL_RCC_GET_SYSCLK_SOURCE() == RCC_CFGR_SWS_HSE) ||\
 800230e:	2b08      	cmp	r3, #8
 8002310:	d112      	bne.n	8002338 <HAL_RCC_OscConfig+0x5c>
      ((__HAL_RCC_GET_SYSCLK_SOURCE() == RCC_CFGR_SWS_PLL) && ((RCC->PLLCFGR & RCC_PLLCFGR_PLLSRC) == RCC_PLLCFGR_PLLSRC_HSE)))
 8002312:	4b9d      	ldr	r3, [pc, #628]	; (8002588 <HAL_RCC_OscConfig+0x2ac>)
 8002314:	685b      	ldr	r3, [r3, #4]
 8002316:	f403 0380 	and.w	r3, r3, #4194304	; 0x400000
 800231a:	f5b3 0f80 	cmp.w	r3, #4194304	; 0x400000
 800231e:	d10b      	bne.n	8002338 <HAL_RCC_OscConfig+0x5c>
    {
      if((__HAL_RCC_GET_FLAG(RCC_FLAG_HSERDY) != RESET) && (RCC_OscInitStruct->HSEState == RCC_HSE_OFF))
 8002320:	4b99      	ldr	r3, [pc, #612]	; (8002588 <HAL_RCC_OscConfig+0x2ac>)
 8002322:	681b      	ldr	r3, [r3, #0]
 8002324:	f403 3300 	and.w	r3, r3, #131072	; 0x20000
 8002328:	2b00      	cmp	r3, #0
 800232a:	d05b      	beq.n	80023e4 <HAL_RCC_OscConfig+0x108>
 800232c:	687b      	ldr	r3, [r7, #4]
 800232e:	685b      	ldr	r3, [r3, #4]
 8002330:	2b00      	cmp	r3, #0
 8002332:	d157      	bne.n	80023e4 <HAL_RCC_OscConfig+0x108>
      {
        return HAL_ERROR;
 8002334:	2301      	movs	r3, #1
 8002336:	e23f      	b.n	80027b8 <HAL_RCC_OscConfig+0x4dc>
      }
    }
    else
    {
      /* Set the new HSE configuration ---------------------------------------*/
      __HAL_RCC_HSE_CONFIG(RCC_OscInitStruct->HSEState);
 8002338:	687b      	ldr	r3, [r7, #4]
 800233a:	685b      	ldr	r3, [r3, #4]
 800233c:	f5b3 3f80 	cmp.w	r3, #65536	; 0x10000
 8002340:	d106      	bne.n	8002350 <HAL_RCC_OscConfig+0x74>
 8002342:	4b91      	ldr	r3, [pc, #580]	; (8002588 <HAL_RCC_OscConfig+0x2ac>)
 8002344:	681b      	ldr	r3, [r3, #0]
 8002346:	4a90      	ldr	r2, [pc, #576]	; (8002588 <HAL_RCC_OscConfig+0x2ac>)
 8002348:	f443 3380 	orr.w	r3, r3, #65536	; 0x10000
 800234c:	6013      	str	r3, [r2, #0]
 800234e:	e01d      	b.n	800238c <HAL_RCC_OscConfig+0xb0>
 8002350:	687b      	ldr	r3, [r7, #4]
 8002352:	685b      	ldr	r3, [r3, #4]
 8002354:	f5b3 2fa0 	cmp.w	r3, #327680	; 0x50000
 8002358:	d10c      	bne.n	8002374 <HAL_RCC_OscConfig+0x98>
 800235a:	4b8b      	ldr	r3, [pc, #556]	; (8002588 <HAL_RCC_OscConfig+0x2ac>)
 800235c:	681b      	ldr	r3, [r3, #0]
 800235e:	4a8a      	ldr	r2, [pc, #552]	; (8002588 <HAL_RCC_OscConfig+0x2ac>)
 8002360:	f443 2380 	orr.w	r3, r3, #262144	; 0x40000
 8002364:	6013      	str	r3, [r2, #0]
 8002366:	4b88      	ldr	r3, [pc, #544]	; (8002588 <HAL_RCC_OscConfig+0x2ac>)
 8002368:	681b      	ldr	r3, [r3, #0]
 800236a:	4a87      	ldr	r2, [pc, #540]	; (8002588 <HAL_RCC_OscConfig+0x2ac>)
 800236c:	f443 3380 	orr.w	r3, r3, #65536	; 0x10000
 8002370:	6013      	str	r3, [r2, #0]
 8002372:	e00b      	b.n	800238c <HAL_RCC_OscConfig+0xb0>
 8002374:	4b84      	ldr	r3, [pc, #528]	; (8002588 <HAL_RCC_OscConfig+0x2ac>)
 8002376:	681b      	ldr	r3, [r3, #0]
 8002378:	4a83      	ldr	r2, [pc, #524]	; (8002588 <HAL_RCC_OscConfig+0x2ac>)
 800237a:	f423 3380 	bic.w	r3, r3, #65536	; 0x10000
 800237e:	6013      	str	r3, [r2, #0]
 8002380:	4b81      	ldr	r3, [pc, #516]	; (8002588 <HAL_RCC_OscConfig+0x2ac>)
 8002382:	681b      	ldr	r3, [r3, #0]
 8002384:	4a80      	ldr	r2, [pc, #512]	; (8002588 <HAL_RCC_OscConfig+0x2ac>)
 8002386:	f423 2380 	bic.w	r3, r3, #262144	; 0x40000
 800238a:	6013      	str	r3, [r2, #0]

      /* Check the HSE State */
      if((RCC_OscInitStruct->HSEState) != RCC_HSE_OFF)
 800238c:	687b      	ldr	r3, [r7, #4]
 800238e:	685b      	ldr	r3, [r3, #4]
 8002390:	2b00      	cmp	r3, #0
 8002392:	d013      	beq.n	80023bc <HAL_RCC_OscConfig+0xe0>
      {
        /* Get Start Tick */
        tickstart = HAL_GetTick();
 8002394:	f7ff f8cc 	bl	8001530 <HAL_GetTick>
 8002398:	6138      	str	r0, [r7, #16]

        /* Wait till HSE is ready */
        while(__HAL_RCC_GET_FLAG(RCC_FLAG_HSERDY) == RESET)
 800239a:	e008      	b.n	80023ae <HAL_RCC_OscConfig+0xd2>
        {
          if((HAL_GetTick() - tickstart ) > HSE_TIMEOUT_VALUE)
 800239c:	f7ff f8c8 	bl	8001530 <HAL_GetTick>
 80023a0:	4602      	mov	r2, r0
 80023a2:	693b      	ldr	r3, [r7, #16]
 80023a4:	1ad3      	subs	r3, r2, r3
 80023a6:	2b64      	cmp	r3, #100	; 0x64
 80023a8:	d901      	bls.n	80023ae <HAL_RCC_OscConfig+0xd2>
          {
            return HAL_TIMEOUT;
 80023aa:	2303      	movs	r3, #3
 80023ac:	e204      	b.n	80027b8 <HAL_RCC_OscConfig+0x4dc>
        while(__HAL_RCC_GET_FLAG(RCC_FLAG_HSERDY) == RESET)
 80023ae:	4b76      	ldr	r3, [pc, #472]	; (8002588 <HAL_RCC_OscConfig+0x2ac>)
 80023b0:	681b      	ldr	r3, [r3, #0]
 80023b2:	f403 3300 	and.w	r3, r3, #131072	; 0x20000
 80023b6:	2b00      	cmp	r3, #0
 80023b8:	d0f0      	beq.n	800239c <HAL_RCC_OscConfig+0xc0>
 80023ba:	e014      	b.n	80023e6 <HAL_RCC_OscConfig+0x10a>
        }
      }
      else
      {
        /* Get Start Tick */
        tickstart = HAL_GetTick();
 80023bc:	f7ff f8b8 	bl	8001530 <HAL_GetTick>
 80023c0:	6138      	str	r0, [r7, #16]

        /* Wait till HSE is bypassed or disabled */
        while(__HAL_RCC_GET_FLAG(RCC_FLAG_HSERDY) != RESET)
 80023c2:	e008      	b.n	80023d6 <HAL_RCC_OscConfig+0xfa>
        {
          if((HAL_GetTick() - tickstart ) > HSE_TIMEOUT_VALUE)
 80023c4:	f7ff f8b4 	bl	8001530 <HAL_GetTick>
 80023c8:	4602      	mov	r2, r0
 80023ca:	693b      	ldr	r3, [r7, #16]
 80023cc:	1ad3      	subs	r3, r2, r3
 80023ce:	2b64      	cmp	r3, #100	; 0x64
 80023d0:	d901      	bls.n	80023d6 <HAL_RCC_OscConfig+0xfa>
          {
            return HAL_TIMEOUT;
 80023d2:	2303      	movs	r3, #3
 80023d4:	e1f0      	b.n	80027b8 <HAL_RCC_OscConfig+0x4dc>
        while(__HAL_RCC_GET_FLAG(RCC_FLAG_HSERDY) != RESET)
 80023d6:	4b6c      	ldr	r3, [pc, #432]	; (8002588 <HAL_RCC_OscConfig+0x2ac>)
 80023d8:	681b      	ldr	r3, [r3, #0]
 80023da:	f403 3300 	and.w	r3, r3, #131072	; 0x20000
 80023de:	2b00      	cmp	r3, #0
 80023e0:	d1f0      	bne.n	80023c4 <HAL_RCC_OscConfig+0xe8>
 80023e2:	e000      	b.n	80023e6 <HAL_RCC_OscConfig+0x10a>
      if((__HAL_RCC_GET_FLAG(RCC_FLAG_HSERDY) != RESET) && (RCC_OscInitStruct->HSEState == RCC_HSE_OFF))
 80023e4:	bf00      	nop
        }
      }
    }
  }
  /*----------------------------- HSI Configuration --------------------------*/
  if(((RCC_OscInitStruct->OscillatorType) & RCC_OSCILLATORTYPE_HSI) == RCC_OSCILLATORTYPE_HSI)
 80023e6:	687b      	ldr	r3, [r7, #4]
 80023e8:	681b      	ldr	r3, [r3, #0]
 80023ea:	f003 0302 	and.w	r3, r3, #2
 80023ee:	2b00      	cmp	r3, #0
 80023f0:	d063      	beq.n	80024ba <HAL_RCC_OscConfig+0x1de>
    /* Check the parameters */
    assert_param(IS_RCC_HSI(RCC_OscInitStruct->HSIState));
    assert_param(IS_RCC_CALIBRATION_VALUE(RCC_OscInitStruct->HSICalibrationValue));

    /* Check if HSI is used as system clock or as PLL source when PLL is selected as system clock */
    if((__HAL_RCC_GET_SYSCLK_SOURCE() == RCC_CFGR_SWS_HSI) ||\
 80023f2:	4b65      	ldr	r3, [pc, #404]	; (8002588 <HAL_RCC_OscConfig+0x2ac>)
 80023f4:	689b      	ldr	r3, [r3, #8]
 80023f6:	f003 030c 	and.w	r3, r3, #12
 80023fa:	2b00      	cmp	r3, #0
 80023fc:	d00b      	beq.n	8002416 <HAL_RCC_OscConfig+0x13a>
      ((__HAL_RCC_GET_SYSCLK_SOURCE() == RCC_CFGR_SWS_PLL) && ((RCC->PLLCFGR & RCC_PLLCFGR_PLLSRC) == RCC_PLLCFGR_PLLSRC_HSI)))
 80023fe:	4b62      	ldr	r3, [pc, #392]	; (8002588 <HAL_RCC_OscConfig+0x2ac>)
 8002400:	689b      	ldr	r3, [r3, #8]
 8002402:	f003 030c 	and.w	r3, r3, #12
    if((__HAL_RCC_GET_SYSCLK_SOURCE() == RCC_CFGR_SWS_HSI) ||\
 8002406:	2b08      	cmp	r3, #8
 8002408:	d11c      	bne.n	8002444 <HAL_RCC_OscConfig+0x168>
      ((__HAL_RCC_GET_SYSCLK_SOURCE() == RCC_CFGR_SWS_PLL) && ((RCC->PLLCFGR & RCC_PLLCFGR_PLLSRC) == RCC_PLLCFGR_PLLSRC_HSI)))
 800240a:	4b5f      	ldr	r3, [pc, #380]	; (8002588 <HAL_RCC_OscConfig+0x2ac>)
 800240c:	685b      	ldr	r3, [r3, #4]
 800240e:	f403 0380 	and.w	r3, r3, #4194304	; 0x400000
 8002412:	2b00      	cmp	r3, #0
 8002414:	d116      	bne.n	8002444 <HAL_RCC_OscConfig+0x168>
    {
      /* When HSI is used as system clock it will not disabled */
      if((__HAL_RCC_GET_FLAG(RCC_FLAG_HSIRDY) != RESET) && (RCC_OscInitStruct->HSIState != RCC_HSI_ON))
 8002416:	4b5c      	ldr	r3, [pc, #368]	; (8002588 <HAL_RCC_OscConfig+0x2ac>)
 8002418:	681b      	ldr	r3, [r3, #0]
 800241a:	f003 0302 	and.w	r3, r3, #2
 800241e:	2b00      	cmp	r3, #0
 8002420:	d005      	beq.n	800242e <HAL_RCC_OscConfig+0x152>
 8002422:	687b      	ldr	r3, [r7, #4]
 8002424:	68db      	ldr	r3, [r3, #12]
 8002426:	2b01      	cmp	r3, #1
 8002428:	d001      	beq.n	800242e <HAL_RCC_OscConfig+0x152>
      {
        return HAL_ERROR;
 800242a:	2301      	movs	r3, #1
 800242c:	e1c4      	b.n	80027b8 <HAL_RCC_OscConfig+0x4dc>
      }
      /* Otherwise, just the calibration is allowed */
      else
      {
        /* Adjusts the Internal High Speed oscillator (HSI) calibration value.*/
        __HAL_RCC_HSI_CALIBRATIONVALUE_ADJUST(RCC_OscInitStruct->HSICalibrationValue);
 800242e:	4b56      	ldr	r3, [pc, #344]	; (8002588 <HAL_RCC_OscConfig+0x2ac>)
 8002430:	681b      	ldr	r3, [r3, #0]
 8002432:	f023 02f8 	bic.w	r2, r3, #248	; 0xf8
 8002436:	687b      	ldr	r3, [r7, #4]
 8002438:	691b      	ldr	r3, [r3, #16]
 800243a:	00db      	lsls	r3, r3, #3
 800243c:	4952      	ldr	r1, [pc, #328]	; (8002588 <HAL_RCC_OscConfig+0x2ac>)
 800243e:	4313      	orrs	r3, r2
 8002440:	600b      	str	r3, [r1, #0]
      if((__HAL_RCC_GET_FLAG(RCC_FLAG_HSIRDY) != RESET) && (RCC_OscInitStruct->HSIState != RCC_HSI_ON))
 8002442:	e03a      	b.n	80024ba <HAL_RCC_OscConfig+0x1de>
      }
    }
    else
    {
      /* Check the HSI State */
      if((RCC_OscInitStruct->HSIState)!= RCC_HSI_OFF)
 8002444:	687b      	ldr	r3, [r7, #4]
 8002446:	68db      	ldr	r3, [r3, #12]
 8002448:	2b00      	cmp	r3, #0
 800244a:	d020      	beq.n	800248e <HAL_RCC_OscConfig+0x1b2>
      {
        /* Enable the Internal High Speed oscillator (HSI). */
        __HAL_RCC_HSI_ENABLE();
 800244c:	4b4f      	ldr	r3, [pc, #316]	; (800258c <HAL_RCC_OscConfig+0x2b0>)
 800244e:	2201      	movs	r2, #1
 8002450:	601a      	str	r2, [r3, #0]

        /* Get Start Tick*/
        tickstart = HAL_GetTick();
 8002452:	f7ff f86d 	bl	8001530 <HAL_GetTick>
 8002456:	6138      	str	r0, [r7, #16]

        /* Wait till HSI is ready */
        while(__HAL_RCC_GET_FLAG(RCC_FLAG_HSIRDY) == RESET)
 8002458:	e008      	b.n	800246c <HAL_RCC_OscConfig+0x190>
        {
          if((HAL_GetTick() - tickstart ) > HSI_TIMEOUT_VALUE)
 800245a:	f7ff f869 	bl	8001530 <HAL_GetTick>
 800245e:	4602      	mov	r2, r0
 8002460:	693b      	ldr	r3, [r7, #16]
 8002462:	1ad3      	subs	r3, r2, r3
 8002464:	2b02      	cmp	r3, #2
 8002466:	d901      	bls.n	800246c <HAL_RCC_OscConfig+0x190>
          {
            return HAL_TIMEOUT;
 8002468:	2303      	movs	r3, #3
 800246a:	e1a5      	b.n	80027b8 <HAL_RCC_OscConfig+0x4dc>
        while(__HAL_RCC_GET_FLAG(RCC_FLAG_HSIRDY) == RESET)
 800246c:	4b46      	ldr	r3, [pc, #280]	; (8002588 <HAL_RCC_OscConfig+0x2ac>)
 800246e:	681b      	ldr	r3, [r3, #0]
 8002470:	f003 0302 	and.w	r3, r3, #2
 8002474:	2b00      	cmp	r3, #0
 8002476:	d0f0      	beq.n	800245a <HAL_RCC_OscConfig+0x17e>
          }
        }

        /* Adjusts the Internal High Speed oscillator (HSI) calibration value. */
        __HAL_RCC_HSI_CALIBRATIONVALUE_ADJUST(RCC_OscInitStruct->HSICalibrationValue);
 8002478:	4b43      	ldr	r3, [pc, #268]	; (8002588 <HAL_RCC_OscConfig+0x2ac>)
 800247a:	681b      	ldr	r3, [r3, #0]
 800247c:	f023 02f8 	bic.w	r2, r3, #248	; 0xf8
 8002480:	687b      	ldr	r3, [r7, #4]
 8002482:	691b      	ldr	r3, [r3, #16]
 8002484:	00db      	lsls	r3, r3, #3
 8002486:	4940      	ldr	r1, [pc, #256]	; (8002588 <HAL_RCC_OscConfig+0x2ac>)
 8002488:	4313      	orrs	r3, r2
 800248a:	600b      	str	r3, [r1, #0]
 800248c:	e015      	b.n	80024ba <HAL_RCC_OscConfig+0x1de>
      }
      else
      {
        /* Disable the Internal High Speed oscillator (HSI). */
        __HAL_RCC_HSI_DISABLE();
 800248e:	4b3f      	ldr	r3, [pc, #252]	; (800258c <HAL_RCC_OscConfig+0x2b0>)
 8002490:	2200      	movs	r2, #0
 8002492:	601a      	str	r2, [r3, #0]

        /* Get Start Tick*/
        tickstart = HAL_GetTick();
 8002494:	f7ff f84c 	bl	8001530 <HAL_GetTick>
 8002498:	6138      	str	r0, [r7, #16]

        /* Wait till HSI is ready */
        while(__HAL_RCC_GET_FLAG(RCC_FLAG_HSIRDY) != RESET)
 800249a:	e008      	b.n	80024ae <HAL_RCC_OscConfig+0x1d2>
        {
          if((HAL_GetTick() - tickstart ) > HSI_TIMEOUT_VALUE)
 800249c:	f7ff f848 	bl	8001530 <HAL_GetTick>
 80024a0:	4602      	mov	r2, r0
 80024a2:	693b      	ldr	r3, [r7, #16]
 80024a4:	1ad3      	subs	r3, r2, r3
 80024a6:	2b02      	cmp	r3, #2
 80024a8:	d901      	bls.n	80024ae <HAL_RCC_OscConfig+0x1d2>
          {
            return HAL_TIMEOUT;
 80024aa:	2303      	movs	r3, #3
 80024ac:	e184      	b.n	80027b8 <HAL_RCC_OscConfig+0x4dc>
        while(__HAL_RCC_GET_FLAG(RCC_FLAG_HSIRDY) != RESET)
 80024ae:	4b36      	ldr	r3, [pc, #216]	; (8002588 <HAL_RCC_OscConfig+0x2ac>)
 80024b0:	681b      	ldr	r3, [r3, #0]
 80024b2:	f003 0302 	and.w	r3, r3, #2
 80024b6:	2b00      	cmp	r3, #0
 80024b8:	d1f0      	bne.n	800249c <HAL_RCC_OscConfig+0x1c0>
        }
      }
    }
  }
  /*------------------------------ LSI Configuration -------------------------*/
  if(((RCC_OscInitStruct->OscillatorType) & RCC_OSCILLATORTYPE_LSI) == RCC_OSCILLATORTYPE_LSI)
 80024ba:	687b      	ldr	r3, [r7, #4]
 80024bc:	681b      	ldr	r3, [r3, #0]
 80024be:	f003 0308 	and.w	r3, r3, #8
 80024c2:	2b00      	cmp	r3, #0
 80024c4:	d030      	beq.n	8002528 <HAL_RCC_OscConfig+0x24c>
  {
    /* Check the parameters */
    assert_param(IS_RCC_LSI(RCC_OscInitStruct->LSIState));

    /* Check the LSI State */
    if((RCC_OscInitStruct->LSIState)!= RCC_LSI_OFF)
 80024c6:	687b      	ldr	r3, [r7, #4]
 80024c8:	695b      	ldr	r3, [r3, #20]
 80024ca:	2b00      	cmp	r3, #0
 80024cc:	d016      	beq.n	80024fc <HAL_RCC_OscConfig+0x220>
    {
      /* Enable the Internal Low Speed oscillator (LSI). */
      __HAL_RCC_LSI_ENABLE();
 80024ce:	4b30      	ldr	r3, [pc, #192]	; (8002590 <HAL_RCC_OscConfig+0x2b4>)
 80024d0:	2201      	movs	r2, #1
 80024d2:	601a      	str	r2, [r3, #0]

      /* Get Start Tick*/
      tickstart = HAL_GetTick();
 80024d4:	f7ff f82c 	bl	8001530 <HAL_GetTick>
 80024d8:	6138      	str	r0, [r7, #16]

      /* Wait till LSI is ready */
      while(__HAL_RCC_GET_FLAG(RCC_FLAG_LSIRDY) == RESET)
 80024da:	e008      	b.n	80024ee <HAL_RCC_OscConfig+0x212>
      {
        if((HAL_GetTick() - tickstart ) > LSI_TIMEOUT_VALUE)
 80024dc:	f7ff f828 	bl	8001530 <HAL_GetTick>
 80024e0:	4602      	mov	r2, r0
 80024e2:	693b      	ldr	r3, [r7, #16]
 80024e4:	1ad3      	subs	r3, r2, r3
 80024e6:	2b02      	cmp	r3, #2
 80024e8:	d901      	bls.n	80024ee <HAL_RCC_OscConfig+0x212>
        {
          return HAL_TIMEOUT;
 80024ea:	2303      	movs	r3, #3
 80024ec:	e164      	b.n	80027b8 <HAL_RCC_OscConfig+0x4dc>
      while(__HAL_RCC_GET_FLAG(RCC_FLAG_LSIRDY) == RESET)
 80024ee:	4b26      	ldr	r3, [pc, #152]	; (8002588 <HAL_RCC_OscConfig+0x2ac>)
 80024f0:	6f5b      	ldr	r3, [r3, #116]	; 0x74
 80024f2:	f003 0302 	and.w	r3, r3, #2
 80024f6:	2b00      	cmp	r3, #0
 80024f8:	d0f0      	beq.n	80024dc <HAL_RCC_OscConfig+0x200>
 80024fa:	e015      	b.n	8002528 <HAL_RCC_OscConfig+0x24c>
      }
    }
    else
    {
      /* Disable the Internal Low Speed oscillator (LSI). */
      __HAL_RCC_LSI_DISABLE();
 80024fc:	4b24      	ldr	r3, [pc, #144]	; (8002590 <HAL_RCC_OscConfig+0x2b4>)
 80024fe:	2200      	movs	r2, #0
 8002500:	601a      	str	r2, [r3, #0]

      /* Get Start Tick */
      tickstart = HAL_GetTick();
 8002502:	f7ff f815 	bl	8001530 <HAL_GetTick>
 8002506:	6138      	str	r0, [r7, #16]

      /* Wait till LSI is ready */
      while(__HAL_RCC_GET_FLAG(RCC_FLAG_LSIRDY) != RESET)
 8002508:	e008      	b.n	800251c <HAL_RCC_OscConfig+0x240>
      {
        if((HAL_GetTick() - tickstart ) > LSI_TIMEOUT_VALUE)
 800250a:	f7ff f811 	bl	8001530 <HAL_GetTick>
 800250e:	4602      	mov	r2, r0
 8002510:	693b      	ldr	r3, [r7, #16]
 8002512:	1ad3      	subs	r3, r2, r3
 8002514:	2b02      	cmp	r3, #2
 8002516:	d901      	bls.n	800251c <HAL_RCC_OscConfig+0x240>
        {
          return HAL_TIMEOUT;
 8002518:	2303      	movs	r3, #3
 800251a:	e14d      	b.n	80027b8 <HAL_RCC_OscConfig+0x4dc>
      while(__HAL_RCC_GET_FLAG(RCC_FLAG_LSIRDY) != RESET)
 800251c:	4b1a      	ldr	r3, [pc, #104]	; (8002588 <HAL_RCC_OscConfig+0x2ac>)
 800251e:	6f5b      	ldr	r3, [r3, #116]	; 0x74
 8002520:	f003 0302 	and.w	r3, r3, #2
 8002524:	2b00      	cmp	r3, #0
 8002526:	d1f0      	bne.n	800250a <HAL_RCC_OscConfig+0x22e>
        }
      }
    }
  }
  /*------------------------------ LSE Configuration -------------------------*/
  if(((RCC_OscInitStruct->OscillatorType) & RCC_OSCILLATORTYPE_LSE) == RCC_OSCILLATORTYPE_LSE)
 8002528:	687b      	ldr	r3, [r7, #4]
 800252a:	681b      	ldr	r3, [r3, #0]
 800252c:	f003 0304 	and.w	r3, r3, #4
 8002530:	2b00      	cmp	r3, #0
 8002532:	f000 80a0 	beq.w	8002676 <HAL_RCC_OscConfig+0x39a>
  {
    FlagStatus       pwrclkchanged = RESET;
 8002536:	2300      	movs	r3, #0
 8002538:	75fb      	strb	r3, [r7, #23]
    /* Check the parameters */
    assert_param(IS_RCC_LSE(RCC_OscInitStruct->LSEState));

    /* Update LSE configuration in Backup Domain control register    */
    /* Requires to enable write access to Backup Domain of necessary */
    if(__HAL_RCC_PWR_IS_CLK_DISABLED())
 800253a:	4b13      	ldr	r3, [pc, #76]	; (8002588 <HAL_RCC_OscConfig+0x2ac>)
 800253c:	6c1b      	ldr	r3, [r3, #64]	; 0x40
 800253e:	f003 5380 	and.w	r3, r3, #268435456	; 0x10000000
 8002542:	2b00      	cmp	r3, #0
 8002544:	d10f      	bne.n	8002566 <HAL_RCC_OscConfig+0x28a>
    {
      __HAL_RCC_PWR_CLK_ENABLE();
 8002546:	2300      	movs	r3, #0
 8002548:	60bb      	str	r3, [r7, #8]
 800254a:	4b0f      	ldr	r3, [pc, #60]	; (8002588 <HAL_RCC_OscConfig+0x2ac>)
 800254c:	6c1b      	ldr	r3, [r3, #64]	; 0x40
 800254e:	4a0e      	ldr	r2, [pc, #56]	; (8002588 <HAL_RCC_OscConfig+0x2ac>)
 8002550:	f043 5380 	orr.w	r3, r3, #268435456	; 0x10000000
 8002554:	6413      	str	r3, [r2, #64]	; 0x40
 8002556:	4b0c      	ldr	r3, [pc, #48]	; (8002588 <HAL_RCC_OscConfig+0x2ac>)
 8002558:	6c1b      	ldr	r3, [r3, #64]	; 0x40
 800255a:	f003 5380 	and.w	r3, r3, #268435456	; 0x10000000
 800255e:	60bb      	str	r3, [r7, #8]
 8002560:	68bb      	ldr	r3, [r7, #8]
      pwrclkchanged = SET;
 8002562:	2301      	movs	r3, #1
 8002564:	75fb      	strb	r3, [r7, #23]
    }

    if(HAL_IS_BIT_CLR(PWR->CR, PWR_CR_DBP))
 8002566:	4b0b      	ldr	r3, [pc, #44]	; (8002594 <HAL_RCC_OscConfig+0x2b8>)
 8002568:	681b      	ldr	r3, [r3, #0]
 800256a:	f403 7380 	and.w	r3, r3, #256	; 0x100
 800256e:	2b00      	cmp	r3, #0
 8002570:	d121      	bne.n	80025b6 <HAL_RCC_OscConfig+0x2da>
    {
      /* Enable write access to Backup domain */
      SET_BIT(PWR->CR, PWR_CR_DBP);
 8002572:	4b08      	ldr	r3, [pc, #32]	; (8002594 <HAL_RCC_OscConfig+0x2b8>)
 8002574:	681b      	ldr	r3, [r3, #0]
 8002576:	4a07      	ldr	r2, [pc, #28]	; (8002594 <HAL_RCC_OscConfig+0x2b8>)
 8002578:	f443 7380 	orr.w	r3, r3, #256	; 0x100
 800257c:	6013      	str	r3, [r2, #0]

      /* Wait for Backup domain Write protection disable */
      tickstart = HAL_GetTick();
 800257e:	f7fe ffd7 	bl	8001530 <HAL_GetTick>
 8002582:	6138      	str	r0, [r7, #16]

      while(HAL_IS_BIT_CLR(PWR->CR, PWR_CR_DBP))
 8002584:	e011      	b.n	80025aa <HAL_RCC_OscConfig+0x2ce>
 8002586:	bf00      	nop
 8002588:	40023800 	.word	0x40023800
 800258c:	42470000 	.word	0x42470000
 8002590:	42470e80 	.word	0x42470e80
 8002594:	40007000 	.word	0x40007000
      {
        if((HAL_GetTick() - tickstart) > RCC_DBP_TIMEOUT_VALUE)
 8002598:	f7fe ffca 	bl	8001530 <HAL_GetTick>
 800259c:	4602      	mov	r2, r0
 800259e:	693b      	ldr	r3, [r7, #16]
 80025a0:	1ad3      	subs	r3, r2, r3
 80025a2:	2b02      	cmp	r3, #2
 80025a4:	d901      	bls.n	80025aa <HAL_RCC_OscConfig+0x2ce>
        {
          return HAL_TIMEOUT;
 80025a6:	2303      	movs	r3, #3
 80025a8:	e106      	b.n	80027b8 <HAL_RCC_OscConfig+0x4dc>
      while(HAL_IS_BIT_CLR(PWR->CR, PWR_CR_DBP))
 80025aa:	4b85      	ldr	r3, [pc, #532]	; (80027c0 <HAL_RCC_OscConfig+0x4e4>)
 80025ac:	681b      	ldr	r3, [r3, #0]
 80025ae:	f403 7380 	and.w	r3, r3, #256	; 0x100
 80025b2:	2b00      	cmp	r3, #0
 80025b4:	d0f0      	beq.n	8002598 <HAL_RCC_OscConfig+0x2bc>
        }
      }
    }

    /* Set the new LSE configuration -----------------------------------------*/
    __HAL_RCC_LSE_CONFIG(RCC_OscInitStruct->LSEState);
 80025b6:	687b      	ldr	r3, [r7, #4]
 80025b8:	689b      	ldr	r3, [r3, #8]
 80025ba:	2b01      	cmp	r3, #1
 80025bc:	d106      	bne.n	80025cc <HAL_RCC_OscConfig+0x2f0>
 80025be:	4b81      	ldr	r3, [pc, #516]	; (80027c4 <HAL_RCC_OscConfig+0x4e8>)
 80025c0:	6f1b      	ldr	r3, [r3, #112]	; 0x70
 80025c2:	4a80      	ldr	r2, [pc, #512]	; (80027c4 <HAL_RCC_OscConfig+0x4e8>)
 80025c4:	f043 0301 	orr.w	r3, r3, #1
 80025c8:	6713      	str	r3, [r2, #112]	; 0x70
 80025ca:	e01c      	b.n	8002606 <HAL_RCC_OscConfig+0x32a>
 80025cc:	687b      	ldr	r3, [r7, #4]
 80025ce:	689b      	ldr	r3, [r3, #8]
 80025d0:	2b05      	cmp	r3, #5
 80025d2:	d10c      	bne.n	80025ee <HAL_RCC_OscConfig+0x312>
 80025d4:	4b7b      	ldr	r3, [pc, #492]	; (80027c4 <HAL_RCC_OscConfig+0x4e8>)
 80025d6:	6f1b      	ldr	r3, [r3, #112]	; 0x70
 80025d8:	4a7a      	ldr	r2, [pc, #488]	; (80027c4 <HAL_RCC_OscConfig+0x4e8>)
 80025da:	f043 0304 	orr.w	r3, r3, #4
 80025de:	6713      	str	r3, [r2, #112]	; 0x70
 80025e0:	4b78      	ldr	r3, [pc, #480]	; (80027c4 <HAL_RCC_OscConfig+0x4e8>)
 80025e2:	6f1b      	ldr	r3, [r3, #112]	; 0x70
 80025e4:	4a77      	ldr	r2, [pc, #476]	; (80027c4 <HAL_RCC_OscConfig+0x4e8>)
 80025e6:	f043 0301 	orr.w	r3, r3, #1
 80025ea:	6713      	str	r3, [r2, #112]	; 0x70
 80025ec:	e00b      	b.n	8002606 <HAL_RCC_OscConfig+0x32a>
 80025ee:	4b75      	ldr	r3, [pc, #468]	; (80027c4 <HAL_RCC_OscConfig+0x4e8>)
 80025f0:	6f1b      	ldr	r3, [r3, #112]	; 0x70
 80025f2:	4a74      	ldr	r2, [pc, #464]	; (80027c4 <HAL_RCC_OscConfig+0x4e8>)
 80025f4:	f023 0301 	bic.w	r3, r3, #1
 80025f8:	6713      	str	r3, [r2, #112]	; 0x70
 80025fa:	4b72      	ldr	r3, [pc, #456]	; (80027c4 <HAL_RCC_OscConfig+0x4e8>)
 80025fc:	6f1b      	ldr	r3, [r3, #112]	; 0x70
 80025fe:	4a71      	ldr	r2, [pc, #452]	; (80027c4 <HAL_RCC_OscConfig+0x4e8>)
 8002600:	f023 0304 	bic.w	r3, r3, #4
 8002604:	6713      	str	r3, [r2, #112]	; 0x70
    /* Check the LSE State */
    if((RCC_OscInitStruct->LSEState) != RCC_LSE_OFF)
 8002606:	687b      	ldr	r3, [r7, #4]
 8002608:	689b      	ldr	r3, [r3, #8]
 800260a:	2b00      	cmp	r3, #0
 800260c:	d015      	beq.n	800263a <HAL_RCC_OscConfig+0x35e>
    {
      /* Get Start Tick*/
      tickstart = HAL_GetTick();
 800260e:	f7fe ff8f 	bl	8001530 <HAL_GetTick>
 8002612:	6138      	str	r0, [r7, #16]

      /* Wait till LSE is ready */
      while(__HAL_RCC_GET_FLAG(RCC_FLAG_LSERDY) == RESET)
 8002614:	e00a      	b.n	800262c <HAL_RCC_OscConfig+0x350>
      {
        if((HAL_GetTick() - tickstart ) > RCC_LSE_TIMEOUT_VALUE)
 8002616:	f7fe ff8b 	bl	8001530 <HAL_GetTick>
 800261a:	4602      	mov	r2, r0
 800261c:	693b      	ldr	r3, [r7, #16]
 800261e:	1ad3      	subs	r3, r2, r3
 8002620:	f241 3288 	movw	r2, #5000	; 0x1388
 8002624:	4293      	cmp	r3, r2
 8002626:	d901      	bls.n	800262c <HAL_RCC_OscConfig+0x350>
        {
          return HAL_TIMEOUT;
 8002628:	2303      	movs	r3, #3
 800262a:	e0c5      	b.n	80027b8 <HAL_RCC_OscConfig+0x4dc>
      while(__HAL_RCC_GET_FLAG(RCC_FLAG_LSERDY) == RESET)
 800262c:	4b65      	ldr	r3, [pc, #404]	; (80027c4 <HAL_RCC_OscConfig+0x4e8>)
 800262e:	6f1b      	ldr	r3, [r3, #112]	; 0x70
 8002630:	f003 0302 	and.w	r3, r3, #2
 8002634:	2b00      	cmp	r3, #0
 8002636:	d0ee      	beq.n	8002616 <HAL_RCC_OscConfig+0x33a>
 8002638:	e014      	b.n	8002664 <HAL_RCC_OscConfig+0x388>
      }
    }
    else
    {
      /* Get Start Tick */
      tickstart = HAL_GetTick();
 800263a:	f7fe ff79 	bl	8001530 <HAL_GetTick>
 800263e:	6138      	str	r0, [r7, #16]

      /* Wait till LSE is ready */
      while(__HAL_RCC_GET_FLAG(RCC_FLAG_LSERDY) != RESET)
 8002640:	e00a      	b.n	8002658 <HAL_RCC_OscConfig+0x37c>
      {
        if((HAL_GetTick() - tickstart ) > RCC_LSE_TIMEOUT_VALUE)
 8002642:	f7fe ff75 	bl	8001530 <HAL_GetTick>
 8002646:	4602      	mov	r2, r0
 8002648:	693b      	ldr	r3, [r7, #16]
 800264a:	1ad3      	subs	r3, r2, r3
 800264c:	f241 3288 	movw	r2, #5000	; 0x1388
 8002650:	4293      	cmp	r3, r2
 8002652:	d901      	bls.n	8002658 <HAL_RCC_OscConfig+0x37c>
        {
          return HAL_TIMEOUT;
 8002654:	2303      	movs	r3, #3
 8002656:	e0af      	b.n	80027b8 <HAL_RCC_OscConfig+0x4dc>
      while(__HAL_RCC_GET_FLAG(RCC_FLAG_LSERDY) != RESET)
 8002658:	4b5a      	ldr	r3, [pc, #360]	; (80027c4 <HAL_RCC_OscConfig+0x4e8>)
 800265a:	6f1b      	ldr	r3, [r3, #112]	; 0x70
 800265c:	f003 0302 	and.w	r3, r3, #2
 8002660:	2b00      	cmp	r3, #0
 8002662:	d1ee      	bne.n	8002642 <HAL_RCC_OscConfig+0x366>
        }
      }
    }

    /* Restore clock configuration if changed */
    if(pwrclkchanged == SET)
 8002664:	7dfb      	ldrb	r3, [r7, #23]
 8002666:	2b01      	cmp	r3, #1
 8002668:	d105      	bne.n	8002676 <HAL_RCC_OscConfig+0x39a>
    {
      __HAL_RCC_PWR_CLK_DISABLE();
 800266a:	4b56      	ldr	r3, [pc, #344]	; (80027c4 <HAL_RCC_OscConfig+0x4e8>)
 800266c:	6c1b      	ldr	r3, [r3, #64]	; 0x40
 800266e:	4a55      	ldr	r2, [pc, #340]	; (80027c4 <HAL_RCC_OscConfig+0x4e8>)
 8002670:	f023 5380 	bic.w	r3, r3, #268435456	; 0x10000000
 8002674:	6413      	str	r3, [r2, #64]	; 0x40
    }
  }
  /*-------------------------------- PLL Configuration -----------------------*/
  /* Check the parameters */
  assert_param(IS_RCC_PLL(RCC_OscInitStruct->PLL.PLLState));
  if ((RCC_OscInitStruct->PLL.PLLState) != RCC_PLL_NONE)
 8002676:	687b      	ldr	r3, [r7, #4]
 8002678:	699b      	ldr	r3, [r3, #24]
 800267a:	2b00      	cmp	r3, #0
 800267c:	f000 809b 	beq.w	80027b6 <HAL_RCC_OscConfig+0x4da>
  {
    /* Check if the PLL is used as system clock or not */
    if(__HAL_RCC_GET_SYSCLK_SOURCE() != RCC_CFGR_SWS_PLL)
 8002680:	4b50      	ldr	r3, [pc, #320]	; (80027c4 <HAL_RCC_OscConfig+0x4e8>)
 8002682:	689b      	ldr	r3, [r3, #8]
 8002684:	f003 030c 	and.w	r3, r3, #12
 8002688:	2b08      	cmp	r3, #8
 800268a:	d05c      	beq.n	8002746 <HAL_RCC_OscConfig+0x46a>
    {
      if((RCC_OscInitStruct->PLL.PLLState) == RCC_PLL_ON)
 800268c:	687b      	ldr	r3, [r7, #4]
 800268e:	699b      	ldr	r3, [r3, #24]
 8002690:	2b02      	cmp	r3, #2
 8002692:	d141      	bne.n	8002718 <HAL_RCC_OscConfig+0x43c>
        assert_param(IS_RCC_PLLN_VALUE(RCC_OscInitStruct->PLL.PLLN));
        assert_param(IS_RCC_PLLP_VALUE(RCC_OscInitStruct->PLL.PLLP));
        assert_param(IS_RCC_PLLQ_VALUE(RCC_OscInitStruct->PLL.PLLQ));

        /* Disable the main PLL. */
        __HAL_RCC_PLL_DISABLE();
 8002694:	4b4c      	ldr	r3, [pc, #304]	; (80027c8 <HAL_RCC_OscConfig+0x4ec>)
 8002696:	2200      	movs	r2, #0
 8002698:	601a      	str	r2, [r3, #0]

        /* Get Start Tick */
        tickstart = HAL_GetTick();
 800269a:	f7fe ff49 	bl	8001530 <HAL_GetTick>
 800269e:	6138      	str	r0, [r7, #16]

        /* Wait till PLL is ready */
        while(__HAL_RCC_GET_FLAG(RCC_FLAG_PLLRDY) != RESET)
 80026a0:	e008      	b.n	80026b4 <HAL_RCC_OscConfig+0x3d8>
        {
          if((HAL_GetTick() - tickstart ) > PLL_TIMEOUT_VALUE)
 80026a2:	f7fe ff45 	bl	8001530 <HAL_GetTick>
 80026a6:	4602      	mov	r2, r0
 80026a8:	693b      	ldr	r3, [r7, #16]
 80026aa:	1ad3      	subs	r3, r2, r3
 80026ac:	2b02      	cmp	r3, #2
 80026ae:	d901      	bls.n	80026b4 <HAL_RCC_OscConfig+0x3d8>
          {
            return HAL_TIMEOUT;
 80026b0:	2303      	movs	r3, #3
 80026b2:	e081      	b.n	80027b8 <HAL_RCC_OscConfig+0x4dc>
        while(__HAL_RCC_GET_FLAG(RCC_FLAG_PLLRDY) != RESET)
 80026b4:	4b43      	ldr	r3, [pc, #268]	; (80027c4 <HAL_RCC_OscConfig+0x4e8>)
 80026b6:	681b      	ldr	r3, [r3, #0]
 80026b8:	f003 7300 	and.w	r3, r3, #33554432	; 0x2000000
 80026bc:	2b00      	cmp	r3, #0
 80026be:	d1f0      	bne.n	80026a2 <HAL_RCC_OscConfig+0x3c6>
          }
        }

        /* Configure the main PLL clock source, multiplication and division factors. */
        WRITE_REG(RCC->PLLCFGR, (RCC_OscInitStruct->PLL.PLLSource                                            | \
 80026c0:	687b      	ldr	r3, [r7, #4]
 80026c2:	69da      	ldr	r2, [r3, #28]
 80026c4:	687b      	ldr	r3, [r7, #4]
 80026c6:	6a1b      	ldr	r3, [r3, #32]
 80026c8:	431a      	orrs	r2, r3
 80026ca:	687b      	ldr	r3, [r7, #4]
 80026cc:	6a5b      	ldr	r3, [r3, #36]	; 0x24
 80026ce:	019b      	lsls	r3, r3, #6
 80026d0:	431a      	orrs	r2, r3
 80026d2:	687b      	ldr	r3, [r7, #4]
 80026d4:	6a9b      	ldr	r3, [r3, #40]	; 0x28
 80026d6:	085b      	lsrs	r3, r3, #1
 80026d8:	3b01      	subs	r3, #1
 80026da:	041b      	lsls	r3, r3, #16
 80026dc:	431a      	orrs	r2, r3
 80026de:	687b      	ldr	r3, [r7, #4]
 80026e0:	6adb      	ldr	r3, [r3, #44]	; 0x2c
 80026e2:	061b      	lsls	r3, r3, #24
 80026e4:	4937      	ldr	r1, [pc, #220]	; (80027c4 <HAL_RCC_OscConfig+0x4e8>)
 80026e6:	4313      	orrs	r3, r2
 80026e8:	604b      	str	r3, [r1, #4]
                                 RCC_OscInitStruct->PLL.PLLM                                                 | \
                                 (RCC_OscInitStruct->PLL.PLLN << RCC_PLLCFGR_PLLN_Pos)             | \
                                 (((RCC_OscInitStruct->PLL.PLLP >> 1U) - 1U) << RCC_PLLCFGR_PLLP_Pos) | \
                                 (RCC_OscInitStruct->PLL.PLLQ << RCC_PLLCFGR_PLLQ_Pos)));
        /* Enable the main PLL. */
        __HAL_RCC_PLL_ENABLE();
 80026ea:	4b37      	ldr	r3, [pc, #220]	; (80027c8 <HAL_RCC_OscConfig+0x4ec>)
 80026ec:	2201      	movs	r2, #1
 80026ee:	601a      	str	r2, [r3, #0]

        /* Get Start Tick */
        tickstart = HAL_GetTick();
 80026f0:	f7fe ff1e 	bl	8001530 <HAL_GetTick>
 80026f4:	6138      	str	r0, [r7, #16]

        /* Wait till PLL is ready */
        while(__HAL_RCC_GET_FLAG(RCC_FLAG_PLLRDY) == RESET)
 80026f6:	e008      	b.n	800270a <HAL_RCC_OscConfig+0x42e>
        {
          if((HAL_GetTick() - tickstart ) > PLL_TIMEOUT_VALUE)
 80026f8:	f7fe ff1a 	bl	8001530 <HAL_GetTick>
 80026fc:	4602      	mov	r2, r0
 80026fe:	693b      	ldr	r3, [r7, #16]
 8002700:	1ad3      	subs	r3, r2, r3
 8002702:	2b02      	cmp	r3, #2
 8002704:	d901      	bls.n	800270a <HAL_RCC_OscConfig+0x42e>
          {
            return HAL_TIMEOUT;
 8002706:	2303      	movs	r3, #3
 8002708:	e056      	b.n	80027b8 <HAL_RCC_OscConfig+0x4dc>
        while(__HAL_RCC_GET_FLAG(RCC_FLAG_PLLRDY) == RESET)
 800270a:	4b2e      	ldr	r3, [pc, #184]	; (80027c4 <HAL_RCC_OscConfig+0x4e8>)
 800270c:	681b      	ldr	r3, [r3, #0]
 800270e:	f003 7300 	and.w	r3, r3, #33554432	; 0x2000000
 8002712:	2b00      	cmp	r3, #0
 8002714:	d0f0      	beq.n	80026f8 <HAL_RCC_OscConfig+0x41c>
 8002716:	e04e      	b.n	80027b6 <HAL_RCC_OscConfig+0x4da>
        }
      }
      else
      {
        /* Disable the main PLL. */
        __HAL_RCC_PLL_DISABLE();
 8002718:	4b2b      	ldr	r3, [pc, #172]	; (80027c8 <HAL_RCC_OscConfig+0x4ec>)
 800271a:	2200      	movs	r2, #0
 800271c:	601a      	str	r2, [r3, #0]

        /* Get Start Tick */
        tickstart = HAL_GetTick();
 800271e:	f7fe ff07 	bl	8001530 <HAL_GetTick>
 8002722:	6138      	str	r0, [r7, #16]

        /* Wait till PLL is ready */
        while(__HAL_RCC_GET_FLAG(RCC_FLAG_PLLRDY) != RESET)
 8002724:	e008      	b.n	8002738 <HAL_RCC_OscConfig+0x45c>
        {
          if((HAL_GetTick() - tickstart ) > PLL_TIMEOUT_VALUE)
 8002726:	f7fe ff03 	bl	8001530 <HAL_GetTick>
 800272a:	4602      	mov	r2, r0
 800272c:	693b      	ldr	r3, [r7, #16]
 800272e:	1ad3      	subs	r3, r2, r3
 8002730:	2b02      	cmp	r3, #2
 8002732:	d901      	bls.n	8002738 <HAL_RCC_OscConfig+0x45c>
          {
            return HAL_TIMEOUT;
 8002734:	2303      	movs	r3, #3
 8002736:	e03f      	b.n	80027b8 <HAL_RCC_OscConfig+0x4dc>
        while(__HAL_RCC_GET_FLAG(RCC_FLAG_PLLRDY) != RESET)
 8002738:	4b22      	ldr	r3, [pc, #136]	; (80027c4 <HAL_RCC_OscConfig+0x4e8>)
 800273a:	681b      	ldr	r3, [r3, #0]
 800273c:	f003 7300 	and.w	r3, r3, #33554432	; 0x2000000
 8002740:	2b00      	cmp	r3, #0
 8002742:	d1f0      	bne.n	8002726 <HAL_RCC_OscConfig+0x44a>
 8002744:	e037      	b.n	80027b6 <HAL_RCC_OscConfig+0x4da>
      }
    }
    else
    {
      /* Check if there is a request to disable the PLL used as System clock source */
      if((RCC_OscInitStruct->PLL.PLLState) == RCC_PLL_OFF)
 8002746:	687b      	ldr	r3, [r7, #4]
 8002748:	699b      	ldr	r3, [r3, #24]
 800274a:	2b01      	cmp	r3, #1
 800274c:	d101      	bne.n	8002752 <HAL_RCC_OscConfig+0x476>
      {
        return HAL_ERROR;
 800274e:	2301      	movs	r3, #1
 8002750:	e032      	b.n	80027b8 <HAL_RCC_OscConfig+0x4dc>
      }
      else
      {
        /* Do not return HAL_ERROR if request repeats the current configuration */
        pll_config = RCC->PLLCFGR;
 8002752:	4b1c      	ldr	r3, [pc, #112]	; (80027c4 <HAL_RCC_OscConfig+0x4e8>)
 8002754:	685b      	ldr	r3, [r3, #4]
 8002756:	60fb      	str	r3, [r7, #12]
            (READ_BIT(pll_config, RCC_PLLCFGR_PLLN) != (RCC_OscInitStruct->PLL.PLLN) << RCC_PLLCFGR_PLLN_Pos) ||
            (READ_BIT(pll_config, RCC_PLLCFGR_PLLP) != (((RCC_OscInitStruct->PLL.PLLP >> 1U) - 1U)) << RCC_PLLCFGR_PLLP_Pos) ||
            (READ_BIT(pll_config, RCC_PLLCFGR_PLLQ) != (RCC_OscInitStruct->PLL.PLLQ << RCC_PLLCFGR_PLLQ_Pos)) ||
            (READ_BIT(pll_config, RCC_PLLCFGR_PLLR) != (RCC_OscInitStruct->PLL.PLLR << RCC_PLLCFGR_PLLR_Pos)))
#else
        if (((RCC_OscInitStruct->PLL.PLLState) == RCC_PLL_OFF) ||
 8002758:	687b      	ldr	r3, [r7, #4]
 800275a:	699b      	ldr	r3, [r3, #24]
 800275c:	2b01      	cmp	r3, #1
 800275e:	d028      	beq.n	80027b2 <HAL_RCC_OscConfig+0x4d6>
            (READ_BIT(pll_config, RCC_PLLCFGR_PLLSRC) != RCC_OscInitStruct->PLL.PLLSource) ||
 8002760:	68fb      	ldr	r3, [r7, #12]
 8002762:	f403 0280 	and.w	r2, r3, #4194304	; 0x400000
 8002766:	687b      	ldr	r3, [r7, #4]
 8002768:	69db      	ldr	r3, [r3, #28]
        if (((RCC_OscInitStruct->PLL.PLLState) == RCC_PLL_OFF) ||
 800276a:	429a      	cmp	r2, r3
 800276c:	d121      	bne.n	80027b2 <HAL_RCC_OscConfig+0x4d6>
            (READ_BIT(pll_config, RCC_PLLCFGR_PLLM) != (RCC_OscInitStruct->PLL.PLLM) << RCC_PLLCFGR_PLLM_Pos) ||
 800276e:	68fb      	ldr	r3, [r7, #12]
 8002770:	f003 023f 	and.w	r2, r3, #63	; 0x3f
 8002774:	687b      	ldr	r3, [r7, #4]
 8002776:	6a1b      	ldr	r3, [r3, #32]
            (READ_BIT(pll_config, RCC_PLLCFGR_PLLSRC) != RCC_OscInitStruct->PLL.PLLSource) ||
 8002778:	429a      	cmp	r2, r3
 800277a:	d11a      	bne.n	80027b2 <HAL_RCC_OscConfig+0x4d6>
            (READ_BIT(pll_config, RCC_PLLCFGR_PLLN) != (RCC_OscInitStruct->PLL.PLLN) << RCC_PLLCFGR_PLLN_Pos) ||
 800277c:	68fa      	ldr	r2, [r7, #12]
 800277e:	f647 73c0 	movw	r3, #32704	; 0x7fc0
 8002782:	4013      	ands	r3, r2
 8002784:	687a      	ldr	r2, [r7, #4]
 8002786:	6a52      	ldr	r2, [r2, #36]	; 0x24
 8002788:	0192      	lsls	r2, r2, #6
            (READ_BIT(pll_config, RCC_PLLCFGR_PLLM) != (RCC_OscInitStruct->PLL.PLLM) << RCC_PLLCFGR_PLLM_Pos) ||
 800278a:	4293      	cmp	r3, r2
 800278c:	d111      	bne.n	80027b2 <HAL_RCC_OscConfig+0x4d6>
            (READ_BIT(pll_config, RCC_PLLCFGR_PLLP) != (((RCC_OscInitStruct->PLL.PLLP >> 1U) - 1U)) << RCC_PLLCFGR_PLLP_Pos) ||
 800278e:	68fb      	ldr	r3, [r7, #12]
 8002790:	f403 3240 	and.w	r2, r3, #196608	; 0x30000
 8002794:	687b      	ldr	r3, [r7, #4]
 8002796:	6a9b      	ldr	r3, [r3, #40]	; 0x28
 8002798:	085b      	lsrs	r3, r3, #1
 800279a:	3b01      	subs	r3, #1
 800279c:	041b      	lsls	r3, r3, #16
            (READ_BIT(pll_config, RCC_PLLCFGR_PLLN) != (RCC_OscInitStruct->PLL.PLLN) << RCC_PLLCFGR_PLLN_Pos) ||
 800279e:	429a      	cmp	r2, r3
 80027a0:	d107      	bne.n	80027b2 <HAL_RCC_OscConfig+0x4d6>
            (READ_BIT(pll_config, RCC_PLLCFGR_PLLQ) != (RCC_OscInitStruct->PLL.PLLQ << RCC_PLLCFGR_PLLQ_Pos)))
 80027a2:	68fb      	ldr	r3, [r7, #12]
 80027a4:	f003 6270 	and.w	r2, r3, #251658240	; 0xf000000
 80027a8:	687b      	ldr	r3, [r7, #4]
 80027aa:	6adb      	ldr	r3, [r3, #44]	; 0x2c
 80027ac:	061b      	lsls	r3, r3, #24
            (READ_BIT(pll_config, RCC_PLLCFGR_PLLP) != (((RCC_OscInitStruct->PLL.PLLP >> 1U) - 1U)) << RCC_PLLCFGR_PLLP_Pos) ||
 80027ae:	429a      	cmp	r2, r3
 80027b0:	d001      	beq.n	80027b6 <HAL_RCC_OscConfig+0x4da>
#endif
        {
          return HAL_ERROR;
 80027b2:	2301      	movs	r3, #1
 80027b4:	e000      	b.n	80027b8 <HAL_RCC_OscConfig+0x4dc>
        }
      }
    }
  }
  return HAL_OK;
 80027b6:	2300      	movs	r3, #0
}
 80027b8:	4618      	mov	r0, r3
 80027ba:	3718      	adds	r7, #24
 80027bc:	46bd      	mov	sp, r7
 80027be:	bd80      	pop	{r7, pc}
 80027c0:	40007000 	.word	0x40007000
 80027c4:	40023800 	.word	0x40023800
 80027c8:	42470060 	.word	0x42470060

080027cc <HAL_RCC_ClockConfig>:
  *         HPRE[3:0] bits to ensure that HCLK not exceed the maximum allowed frequency
  *         (for more details refer to section above "Initialization/de-initialization functions")
  * @retval None
  */
HAL_StatusTypeDef HAL_RCC_ClockConfig(RCC_ClkInitTypeDef  *RCC_ClkInitStruct, uint32_t FLatency)
{
 80027cc:	b580      	push	{r7, lr}
 80027ce:	b084      	sub	sp, #16
 80027d0:	af00      	add	r7, sp, #0
 80027d2:	6078      	str	r0, [r7, #4]
 80027d4:	6039      	str	r1, [r7, #0]
  uint32_t tickstart;

  /* Check Null pointer */
  if(RCC_ClkInitStruct == NULL)
 80027d6:	687b      	ldr	r3, [r7, #4]
 80027d8:	2b00      	cmp	r3, #0
 80027da:	d101      	bne.n	80027e0 <HAL_RCC_ClockConfig+0x14>
  {
    return HAL_ERROR;
 80027dc:	2301      	movs	r3, #1
 80027de:	e0cc      	b.n	800297a <HAL_RCC_ClockConfig+0x1ae>
  /* To correctly read data from FLASH memory, the number of wait states (LATENCY)
    must be correctly programmed according to the frequency of the CPU clock
    (HCLK) and the supply voltage of the device. */

  /* Increasing the number of wait states because of higher CPU frequency */
  if(FLatency > __HAL_FLASH_GET_LATENCY())
 80027e0:	4b68      	ldr	r3, [pc, #416]	; (8002984 <HAL_RCC_ClockConfig+0x1b8>)
 80027e2:	681b      	ldr	r3, [r3, #0]
 80027e4:	f003 0307 	and.w	r3, r3, #7
 80027e8:	683a      	ldr	r2, [r7, #0]
 80027ea:	429a      	cmp	r2, r3
 80027ec:	d90c      	bls.n	8002808 <HAL_RCC_ClockConfig+0x3c>
  {
    /* Program the new number of wait states to the LATENCY bits in the FLASH_ACR register */
    __HAL_FLASH_SET_LATENCY(FLatency);
 80027ee:	4b65      	ldr	r3, [pc, #404]	; (8002984 <HAL_RCC_ClockConfig+0x1b8>)
 80027f0:	683a      	ldr	r2, [r7, #0]
 80027f2:	b2d2      	uxtb	r2, r2
 80027f4:	701a      	strb	r2, [r3, #0]

    /* Check that the new number of wait states is taken into account to access the Flash
    memory by reading the FLASH_ACR register */
    if(__HAL_FLASH_GET_LATENCY() != FLatency)
 80027f6:	4b63      	ldr	r3, [pc, #396]	; (8002984 <HAL_RCC_ClockConfig+0x1b8>)
 80027f8:	681b      	ldr	r3, [r3, #0]
 80027fa:	f003 0307 	and.w	r3, r3, #7
 80027fe:	683a      	ldr	r2, [r7, #0]
 8002800:	429a      	cmp	r2, r3
 8002802:	d001      	beq.n	8002808 <HAL_RCC_ClockConfig+0x3c>
    {
      return HAL_ERROR;
 8002804:	2301      	movs	r3, #1
 8002806:	e0b8      	b.n	800297a <HAL_RCC_ClockConfig+0x1ae>
    }
  }

  /*-------------------------- HCLK Configuration --------------------------*/
  if(((RCC_ClkInitStruct->ClockType) & RCC_CLOCKTYPE_HCLK) == RCC_CLOCKTYPE_HCLK)
 8002808:	687b      	ldr	r3, [r7, #4]
 800280a:	681b      	ldr	r3, [r3, #0]
 800280c:	f003 0302 	and.w	r3, r3, #2
 8002810:	2b00      	cmp	r3, #0
 8002812:	d020      	beq.n	8002856 <HAL_RCC_ClockConfig+0x8a>
  {
    /* Set the highest APBx dividers in order to ensure that we do not go through
       a non-spec phase whatever we decrease or increase HCLK. */
    if(((RCC_ClkInitStruct->ClockType) & RCC_CLOCKTYPE_PCLK1) == RCC_CLOCKTYPE_PCLK1)
 8002814:	687b      	ldr	r3, [r7, #4]
 8002816:	681b      	ldr	r3, [r3, #0]
 8002818:	f003 0304 	and.w	r3, r3, #4
 800281c:	2b00      	cmp	r3, #0
 800281e:	d005      	beq.n	800282c <HAL_RCC_ClockConfig+0x60>
    {
      MODIFY_REG(RCC->CFGR, RCC_CFGR_PPRE1, RCC_HCLK_DIV16);
 8002820:	4b59      	ldr	r3, [pc, #356]	; (8002988 <HAL_RCC_ClockConfig+0x1bc>)
 8002822:	689b      	ldr	r3, [r3, #8]
 8002824:	4a58      	ldr	r2, [pc, #352]	; (8002988 <HAL_RCC_ClockConfig+0x1bc>)
 8002826:	f443 53e0 	orr.w	r3, r3, #7168	; 0x1c00
 800282a:	6093      	str	r3, [r2, #8]
    }

    if(((RCC_ClkInitStruct->ClockType) & RCC_CLOCKTYPE_PCLK2) == RCC_CLOCKTYPE_PCLK2)
 800282c:	687b      	ldr	r3, [r7, #4]
 800282e:	681b      	ldr	r3, [r3, #0]
 8002830:	f003 0308 	and.w	r3, r3, #8
 8002834:	2b00      	cmp	r3, #0
 8002836:	d005      	beq.n	8002844 <HAL_RCC_ClockConfig+0x78>
    {
      MODIFY_REG(RCC->CFGR, RCC_CFGR_PPRE2, (RCC_HCLK_DIV16 << 3));
 8002838:	4b53      	ldr	r3, [pc, #332]	; (8002988 <HAL_RCC_ClockConfig+0x1bc>)
 800283a:	689b      	ldr	r3, [r3, #8]
 800283c:	4a52      	ldr	r2, [pc, #328]	; (8002988 <HAL_RCC_ClockConfig+0x1bc>)
 800283e:	f443 4360 	orr.w	r3, r3, #57344	; 0xe000
 8002842:	6093      	str	r3, [r2, #8]
    }

    assert_param(IS_RCC_HCLK(RCC_ClkInitStruct->AHBCLKDivider));
    MODIFY_REG(RCC->CFGR, RCC_CFGR_HPRE, RCC_ClkInitStruct->AHBCLKDivider);
 8002844:	4b50      	ldr	r3, [pc, #320]	; (8002988 <HAL_RCC_ClockConfig+0x1bc>)
 8002846:	689b      	ldr	r3, [r3, #8]
 8002848:	f023 02f0 	bic.w	r2, r3, #240	; 0xf0
 800284c:	687b      	ldr	r3, [r7, #4]
 800284e:	689b      	ldr	r3, [r3, #8]
 8002850:	494d      	ldr	r1, [pc, #308]	; (8002988 <HAL_RCC_ClockConfig+0x1bc>)
 8002852:	4313      	orrs	r3, r2
 8002854:	608b      	str	r3, [r1, #8]
  }

  /*------------------------- SYSCLK Configuration ---------------------------*/
  if(((RCC_ClkInitStruct->ClockType) & RCC_CLOCKTYPE_SYSCLK) == RCC_CLOCKTYPE_SYSCLK)
 8002856:	687b      	ldr	r3, [r7, #4]
 8002858:	681b      	ldr	r3, [r3, #0]
 800285a:	f003 0301 	and.w	r3, r3, #1
 800285e:	2b00      	cmp	r3, #0
 8002860:	d044      	beq.n	80028ec <HAL_RCC_ClockConfig+0x120>
  {
    assert_param(IS_RCC_SYSCLKSOURCE(RCC_ClkInitStruct->SYSCLKSource));

    /* HSE is selected as System Clock Source */
    if(RCC_ClkInitStruct->SYSCLKSource == RCC_SYSCLKSOURCE_HSE)
 8002862:	687b      	ldr	r3, [r7, #4]
 8002864:	685b      	ldr	r3, [r3, #4]
 8002866:	2b01      	cmp	r3, #1
 8002868:	d107      	bne.n	800287a <HAL_RCC_ClockConfig+0xae>
    {
      /* Check the HSE ready flag */
      if(__HAL_RCC_GET_FLAG(RCC_FLAG_HSERDY) == RESET)
 800286a:	4b47      	ldr	r3, [pc, #284]	; (8002988 <HAL_RCC_ClockConfig+0x1bc>)
 800286c:	681b      	ldr	r3, [r3, #0]
 800286e:	f403 3300 	and.w	r3, r3, #131072	; 0x20000
 8002872:	2b00      	cmp	r3, #0
 8002874:	d119      	bne.n	80028aa <HAL_RCC_ClockConfig+0xde>
      {
        return HAL_ERROR;
 8002876:	2301      	movs	r3, #1
 8002878:	e07f      	b.n	800297a <HAL_RCC_ClockConfig+0x1ae>
      }
    }
    /* PLL is selected as System Clock Source */
    else if((RCC_ClkInitStruct->SYSCLKSource == RCC_SYSCLKSOURCE_PLLCLK)   ||
 800287a:	687b      	ldr	r3, [r7, #4]
 800287c:	685b      	ldr	r3, [r3, #4]
 800287e:	2b02      	cmp	r3, #2
 8002880:	d003      	beq.n	800288a <HAL_RCC_ClockConfig+0xbe>
            (RCC_ClkInitStruct->SYSCLKSource == RCC_SYSCLKSOURCE_PLLRCLK))
 8002882:	687b      	ldr	r3, [r7, #4]
 8002884:	685b      	ldr	r3, [r3, #4]
    else if((RCC_ClkInitStruct->SYSCLKSource == RCC_SYSCLKSOURCE_PLLCLK)   ||
 8002886:	2b03      	cmp	r3, #3
 8002888:	d107      	bne.n	800289a <HAL_RCC_ClockConfig+0xce>
    {
      /* Check the PLL ready flag */
      if(__HAL_RCC_GET_FLAG(RCC_FLAG_PLLRDY) == RESET)
 800288a:	4b3f      	ldr	r3, [pc, #252]	; (8002988 <HAL_RCC_ClockConfig+0x1bc>)
 800288c:	681b      	ldr	r3, [r3, #0]
 800288e:	f003 7300 	and.w	r3, r3, #33554432	; 0x2000000
 8002892:	2b00      	cmp	r3, #0
 8002894:	d109      	bne.n	80028aa <HAL_RCC_ClockConfig+0xde>
      {
        return HAL_ERROR;
 8002896:	2301      	movs	r3, #1
 8002898:	e06f      	b.n	800297a <HAL_RCC_ClockConfig+0x1ae>
    }
    /* HSI is selected as System Clock Source */
    else
    {
      /* Check the HSI ready flag */
      if(__HAL_RCC_GET_FLAG(RCC_FLAG_HSIRDY) == RESET)
 800289a:	4b3b      	ldr	r3, [pc, #236]	; (8002988 <HAL_RCC_ClockConfig+0x1bc>)
 800289c:	681b      	ldr	r3, [r3, #0]
 800289e:	f003 0302 	and.w	r3, r3, #2
 80028a2:	2b00      	cmp	r3, #0
 80028a4:	d101      	bne.n	80028aa <HAL_RCC_ClockConfig+0xde>
      {
        return HAL_ERROR;
 80028a6:	2301      	movs	r3, #1
 80028a8:	e067      	b.n	800297a <HAL_RCC_ClockConfig+0x1ae>
      }
    }

    __HAL_RCC_SYSCLK_CONFIG(RCC_ClkInitStruct->SYSCLKSource);
 80028aa:	4b37      	ldr	r3, [pc, #220]	; (8002988 <HAL_RCC_ClockConfig+0x1bc>)
 80028ac:	689b      	ldr	r3, [r3, #8]
 80028ae:	f023 0203 	bic.w	r2, r3, #3
 80028b2:	687b      	ldr	r3, [r7, #4]
 80028b4:	685b      	ldr	r3, [r3, #4]
 80028b6:	4934      	ldr	r1, [pc, #208]	; (8002988 <HAL_RCC_ClockConfig+0x1bc>)
 80028b8:	4313      	orrs	r3, r2
 80028ba:	608b      	str	r3, [r1, #8]

    /* Get Start Tick */
    tickstart = HAL_GetTick();
 80028bc:	f7fe fe38 	bl	8001530 <HAL_GetTick>
 80028c0:	60f8      	str	r0, [r7, #12]

    while (__HAL_RCC_GET_SYSCLK_SOURCE() != (RCC_ClkInitStruct->SYSCLKSource << RCC_CFGR_SWS_Pos))
 80028c2:	e00a      	b.n	80028da <HAL_RCC_ClockConfig+0x10e>
    {
      if ((HAL_GetTick() - tickstart) > CLOCKSWITCH_TIMEOUT_VALUE)
 80028c4:	f7fe fe34 	bl	8001530 <HAL_GetTick>
 80028c8:	4602      	mov	r2, r0
 80028ca:	68fb      	ldr	r3, [r7, #12]
 80028cc:	1ad3      	subs	r3, r2, r3
 80028ce:	f241 3288 	movw	r2, #5000	; 0x1388
 80028d2:	4293      	cmp	r3, r2
 80028d4:	d901      	bls.n	80028da <HAL_RCC_ClockConfig+0x10e>
      {
        return HAL_TIMEOUT;
 80028d6:	2303      	movs	r3, #3
 80028d8:	e04f      	b.n	800297a <HAL_RCC_ClockConfig+0x1ae>
    while (__HAL_RCC_GET_SYSCLK_SOURCE() != (RCC_ClkInitStruct->SYSCLKSource << RCC_CFGR_SWS_Pos))
 80028da:	4b2b      	ldr	r3, [pc, #172]	; (8002988 <HAL_RCC_ClockConfig+0x1bc>)
 80028dc:	689b      	ldr	r3, [r3, #8]
 80028de:	f003 020c 	and.w	r2, r3, #12
 80028e2:	687b      	ldr	r3, [r7, #4]
 80028e4:	685b      	ldr	r3, [r3, #4]
 80028e6:	009b      	lsls	r3, r3, #2
 80028e8:	429a      	cmp	r2, r3
 80028ea:	d1eb      	bne.n	80028c4 <HAL_RCC_ClockConfig+0xf8>
      }
    }
  }

  /* Decreasing the number of wait states because of lower CPU frequency */
  if(FLatency < __HAL_FLASH_GET_LATENCY())
 80028ec:	4b25      	ldr	r3, [pc, #148]	; (8002984 <HAL_RCC_ClockConfig+0x1b8>)
 80028ee:	681b      	ldr	r3, [r3, #0]
 80028f0:	f003 0307 	and.w	r3, r3, #7
 80028f4:	683a      	ldr	r2, [r7, #0]
 80028f6:	429a      	cmp	r2, r3
 80028f8:	d20c      	bcs.n	8002914 <HAL_RCC_ClockConfig+0x148>
  {
     /* Program the new number of wait states to the LATENCY bits in the FLASH_ACR register */
    __HAL_FLASH_SET_LATENCY(FLatency);
 80028fa:	4b22      	ldr	r3, [pc, #136]	; (8002984 <HAL_RCC_ClockConfig+0x1b8>)
 80028fc:	683a      	ldr	r2, [r7, #0]
 80028fe:	b2d2      	uxtb	r2, r2
 8002900:	701a      	strb	r2, [r3, #0]

    /* Check that the new number of wait states is taken into account to access the Flash
    memory by reading the FLASH_ACR register */
    if(__HAL_FLASH_GET_LATENCY() != FLatency)
 8002902:	4b20      	ldr	r3, [pc, #128]	; (8002984 <HAL_RCC_ClockConfig+0x1b8>)
 8002904:	681b      	ldr	r3, [r3, #0]
 8002906:	f003 0307 	and.w	r3, r3, #7
 800290a:	683a      	ldr	r2, [r7, #0]
 800290c:	429a      	cmp	r2, r3
 800290e:	d001      	beq.n	8002914 <HAL_RCC_ClockConfig+0x148>
    {
      return HAL_ERROR;
 8002910:	2301      	movs	r3, #1
 8002912:	e032      	b.n	800297a <HAL_RCC_ClockConfig+0x1ae>
    }
  }

  /*-------------------------- PCLK1 Configuration ---------------------------*/
  if(((RCC_ClkInitStruct->ClockType) & RCC_CLOCKTYPE_PCLK1) == RCC_CLOCKTYPE_PCLK1)
 8002914:	687b      	ldr	r3, [r7, #4]
 8002916:	681b      	ldr	r3, [r3, #0]
 8002918:	f003 0304 	and.w	r3, r3, #4
 800291c:	2b00      	cmp	r3, #0
 800291e:	d008      	beq.n	8002932 <HAL_RCC_ClockConfig+0x166>
  {
    assert_param(IS_RCC_PCLK(RCC_ClkInitStruct->APB1CLKDivider));
    MODIFY_REG(RCC->CFGR, RCC_CFGR_PPRE1, RCC_ClkInitStruct->APB1CLKDivider);
 8002920:	4b19      	ldr	r3, [pc, #100]	; (8002988 <HAL_RCC_ClockConfig+0x1bc>)
 8002922:	689b      	ldr	r3, [r3, #8]
 8002924:	f423 52e0 	bic.w	r2, r3, #7168	; 0x1c00
 8002928:	687b      	ldr	r3, [r7, #4]
 800292a:	68db      	ldr	r3, [r3, #12]
 800292c:	4916      	ldr	r1, [pc, #88]	; (8002988 <HAL_RCC_ClockConfig+0x1bc>)
 800292e:	4313      	orrs	r3, r2
 8002930:	608b      	str	r3, [r1, #8]
  }

  /*-------------------------- PCLK2 Configuration ---------------------------*/
  if(((RCC_ClkInitStruct->ClockType) & RCC_CLOCKTYPE_PCLK2) == RCC_CLOCKTYPE_PCLK2)
 8002932:	687b      	ldr	r3, [r7, #4]
 8002934:	681b      	ldr	r3, [r3, #0]
 8002936:	f003 0308 	and.w	r3, r3, #8
 800293a:	2b00      	cmp	r3, #0
 800293c:	d009      	beq.n	8002952 <HAL_RCC_ClockConfig+0x186>
  {
    assert_param(IS_RCC_PCLK(RCC_ClkInitStruct->APB2CLKDivider));
    MODIFY_REG(RCC->CFGR, RCC_CFGR_PPRE2, ((RCC_ClkInitStruct->APB2CLKDivider) << 3U));
 800293e:	4b12      	ldr	r3, [pc, #72]	; (8002988 <HAL_RCC_ClockConfig+0x1bc>)
 8002940:	689b      	ldr	r3, [r3, #8]
 8002942:	f423 4260 	bic.w	r2, r3, #57344	; 0xe000
 8002946:	687b      	ldr	r3, [r7, #4]
 8002948:	691b      	ldr	r3, [r3, #16]
 800294a:	00db      	lsls	r3, r3, #3
 800294c:	490e      	ldr	r1, [pc, #56]	; (8002988 <HAL_RCC_ClockConfig+0x1bc>)
 800294e:	4313      	orrs	r3, r2
 8002950:	608b      	str	r3, [r1, #8]
  }

  /* Update the SystemCoreClock global variable */
  SystemCoreClock = HAL_RCC_GetSysClockFreq() >> AHBPrescTable[(RCC->CFGR & RCC_CFGR_HPRE)>> RCC_CFGR_HPRE_Pos];
 8002952:	f000 f821 	bl	8002998 <HAL_RCC_GetSysClockFreq>
 8002956:	4602      	mov	r2, r0
 8002958:	4b0b      	ldr	r3, [pc, #44]	; (8002988 <HAL_RCC_ClockConfig+0x1bc>)
 800295a:	689b      	ldr	r3, [r3, #8]
 800295c:	091b      	lsrs	r3, r3, #4
 800295e:	f003 030f 	and.w	r3, r3, #15
 8002962:	490a      	ldr	r1, [pc, #40]	; (800298c <HAL_RCC_ClockConfig+0x1c0>)
 8002964:	5ccb      	ldrb	r3, [r1, r3]
 8002966:	fa22 f303 	lsr.w	r3, r2, r3
 800296a:	4a09      	ldr	r2, [pc, #36]	; (8002990 <HAL_RCC_ClockConfig+0x1c4>)
 800296c:	6013      	str	r3, [r2, #0]

  /* Configure the source of time base considering new system clocks settings */
  HAL_InitTick (uwTickPrio);
 800296e:	4b09      	ldr	r3, [pc, #36]	; (8002994 <HAL_RCC_ClockConfig+0x1c8>)
 8002970:	681b      	ldr	r3, [r3, #0]
 8002972:	4618      	mov	r0, r3
 8002974:	f7fe fd98 	bl	80014a8 <HAL_InitTick>

  return HAL_OK;
 8002978:	2300      	movs	r3, #0
}
 800297a:	4618      	mov	r0, r3
 800297c:	3710      	adds	r7, #16
 800297e:	46bd      	mov	sp, r7
 8002980:	bd80      	pop	{r7, pc}
 8002982:	bf00      	nop
 8002984:	40023c00 	.word	0x40023c00
 8002988:	40023800 	.word	0x40023800
 800298c:	080062ec 	.word	0x080062ec
 8002990:	20000020 	.word	0x20000020
 8002994:	20000024 	.word	0x20000024

08002998 <HAL_RCC_GetSysClockFreq>:
  *
  *
  * @retval SYSCLK frequency
  */
__weak uint32_t HAL_RCC_GetSysClockFreq(void)
{
 8002998:	e92d 43b0 	stmdb	sp!, {r4, r5, r7, r8, r9, lr}
 800299c:	b084      	sub	sp, #16
 800299e:	af00      	add	r7, sp, #0
  uint32_t pllm = 0U, pllvco = 0U, pllp = 0U;
 80029a0:	2300      	movs	r3, #0
 80029a2:	607b      	str	r3, [r7, #4]
 80029a4:	2300      	movs	r3, #0
 80029a6:	60fb      	str	r3, [r7, #12]
 80029a8:	2300      	movs	r3, #0
 80029aa:	603b      	str	r3, [r7, #0]
  uint32_t sysclockfreq = 0U;
 80029ac:	2300      	movs	r3, #0
 80029ae:	60bb      	str	r3, [r7, #8]

  /* Get SYSCLK source -------------------------------------------------------*/
  switch (RCC->CFGR & RCC_CFGR_SWS)
 80029b0:	4b67      	ldr	r3, [pc, #412]	; (8002b50 <HAL_RCC_GetSysClockFreq+0x1b8>)
 80029b2:	689b      	ldr	r3, [r3, #8]
 80029b4:	f003 030c 	and.w	r3, r3, #12
 80029b8:	2b08      	cmp	r3, #8
 80029ba:	d00d      	beq.n	80029d8 <HAL_RCC_GetSysClockFreq+0x40>
 80029bc:	2b08      	cmp	r3, #8
 80029be:	f200 80bd 	bhi.w	8002b3c <HAL_RCC_GetSysClockFreq+0x1a4>
 80029c2:	2b00      	cmp	r3, #0
 80029c4:	d002      	beq.n	80029cc <HAL_RCC_GetSysClockFreq+0x34>
 80029c6:	2b04      	cmp	r3, #4
 80029c8:	d003      	beq.n	80029d2 <HAL_RCC_GetSysClockFreq+0x3a>
 80029ca:	e0b7      	b.n	8002b3c <HAL_RCC_GetSysClockFreq+0x1a4>
  {
    case RCC_CFGR_SWS_HSI:  /* HSI used as system clock source */
    {
      sysclockfreq = HSI_VALUE;
 80029cc:	4b61      	ldr	r3, [pc, #388]	; (8002b54 <HAL_RCC_GetSysClockFreq+0x1bc>)
 80029ce:	60bb      	str	r3, [r7, #8]
       break;
 80029d0:	e0b7      	b.n	8002b42 <HAL_RCC_GetSysClockFreq+0x1aa>
    }
    case RCC_CFGR_SWS_HSE:  /* HSE used as system clock  source */
    {
      sysclockfreq = HSE_VALUE;
 80029d2:	4b61      	ldr	r3, [pc, #388]	; (8002b58 <HAL_RCC_GetSysClockFreq+0x1c0>)
 80029d4:	60bb      	str	r3, [r7, #8]
      break;
 80029d6:	e0b4      	b.n	8002b42 <HAL_RCC_GetSysClockFreq+0x1aa>
    }
    case RCC_CFGR_SWS_PLL:  /* PLL used as system clock  source */
    {
      /* PLL_VCO = (HSE_VALUE or HSI_VALUE / PLLM) * PLLN
      SYSCLK = PLL_VCO / PLLP */
      pllm = RCC->PLLCFGR & RCC_PLLCFGR_PLLM;
 80029d8:	4b5d      	ldr	r3, [pc, #372]	; (8002b50 <HAL_RCC_GetSysClockFreq+0x1b8>)
 80029da:	685b      	ldr	r3, [r3, #4]
 80029dc:	f003 033f 	and.w	r3, r3, #63	; 0x3f
 80029e0:	607b      	str	r3, [r7, #4]
      if(__HAL_RCC_GET_PLL_OSCSOURCE() != RCC_PLLSOURCE_HSI)
 80029e2:	4b5b      	ldr	r3, [pc, #364]	; (8002b50 <HAL_RCC_GetSysClockFreq+0x1b8>)
 80029e4:	685b      	ldr	r3, [r3, #4]
 80029e6:	f403 0380 	and.w	r3, r3, #4194304	; 0x400000
 80029ea:	2b00      	cmp	r3, #0
 80029ec:	d04d      	beq.n	8002a8a <HAL_RCC_GetSysClockFreq+0xf2>
      {
        /* HSE used as PLL clock source */
        pllvco = (uint32_t) ((((uint64_t) HSE_VALUE * ((uint64_t) ((RCC->PLLCFGR & RCC_PLLCFGR_PLLN) >> RCC_PLLCFGR_PLLN_Pos)))) / (uint64_t)pllm);
 80029ee:	4b58      	ldr	r3, [pc, #352]	; (8002b50 <HAL_RCC_GetSysClockFreq+0x1b8>)
 80029f0:	685b      	ldr	r3, [r3, #4]
 80029f2:	099b      	lsrs	r3, r3, #6
 80029f4:	461a      	mov	r2, r3
 80029f6:	f04f 0300 	mov.w	r3, #0
 80029fa:	f240 10ff 	movw	r0, #511	; 0x1ff
 80029fe:	f04f 0100 	mov.w	r1, #0
 8002a02:	ea02 0800 	and.w	r8, r2, r0
 8002a06:	ea03 0901 	and.w	r9, r3, r1
 8002a0a:	4640      	mov	r0, r8
 8002a0c:	4649      	mov	r1, r9
 8002a0e:	f04f 0200 	mov.w	r2, #0
 8002a12:	f04f 0300 	mov.w	r3, #0
 8002a16:	014b      	lsls	r3, r1, #5
 8002a18:	ea43 63d0 	orr.w	r3, r3, r0, lsr #27
 8002a1c:	0142      	lsls	r2, r0, #5
 8002a1e:	4610      	mov	r0, r2
 8002a20:	4619      	mov	r1, r3
 8002a22:	ebb0 0008 	subs.w	r0, r0, r8
 8002a26:	eb61 0109 	sbc.w	r1, r1, r9
 8002a2a:	f04f 0200 	mov.w	r2, #0
 8002a2e:	f04f 0300 	mov.w	r3, #0
 8002a32:	018b      	lsls	r3, r1, #6
 8002a34:	ea43 6390 	orr.w	r3, r3, r0, lsr #26
 8002a38:	0182      	lsls	r2, r0, #6
 8002a3a:	1a12      	subs	r2, r2, r0
 8002a3c:	eb63 0301 	sbc.w	r3, r3, r1
 8002a40:	f04f 0000 	mov.w	r0, #0
 8002a44:	f04f 0100 	mov.w	r1, #0
 8002a48:	00d9      	lsls	r1, r3, #3
 8002a4a:	ea41 7152 	orr.w	r1, r1, r2, lsr #29
 8002a4e:	00d0      	lsls	r0, r2, #3
 8002a50:	4602      	mov	r2, r0
 8002a52:	460b      	mov	r3, r1
 8002a54:	eb12 0208 	adds.w	r2, r2, r8
 8002a58:	eb43 0309 	adc.w	r3, r3, r9
 8002a5c:	f04f 0000 	mov.w	r0, #0
 8002a60:	f04f 0100 	mov.w	r1, #0
 8002a64:	0259      	lsls	r1, r3, #9
 8002a66:	ea41 51d2 	orr.w	r1, r1, r2, lsr #23
 8002a6a:	0250      	lsls	r0, r2, #9
 8002a6c:	4602      	mov	r2, r0
 8002a6e:	460b      	mov	r3, r1
 8002a70:	4610      	mov	r0, r2
 8002a72:	4619      	mov	r1, r3
 8002a74:	687b      	ldr	r3, [r7, #4]
 8002a76:	461a      	mov	r2, r3
 8002a78:	f04f 0300 	mov.w	r3, #0
 8002a7c:	f7fd fc10 	bl	80002a0 <__aeabi_uldivmod>
 8002a80:	4602      	mov	r2, r0
 8002a82:	460b      	mov	r3, r1
 8002a84:	4613      	mov	r3, r2
 8002a86:	60fb      	str	r3, [r7, #12]
 8002a88:	e04a      	b.n	8002b20 <HAL_RCC_GetSysClockFreq+0x188>
      }
      else
      {
        /* HSI used as PLL clock source */
        pllvco = (uint32_t) ((((uint64_t) HSI_VALUE * ((uint64_t) ((RCC->PLLCFGR & RCC_PLLCFGR_PLLN) >> RCC_PLLCFGR_PLLN_Pos)))) / (uint64_t)pllm);
 8002a8a:	4b31      	ldr	r3, [pc, #196]	; (8002b50 <HAL_RCC_GetSysClockFreq+0x1b8>)
 8002a8c:	685b      	ldr	r3, [r3, #4]
 8002a8e:	099b      	lsrs	r3, r3, #6
 8002a90:	461a      	mov	r2, r3
 8002a92:	f04f 0300 	mov.w	r3, #0
 8002a96:	f240 10ff 	movw	r0, #511	; 0x1ff
 8002a9a:	f04f 0100 	mov.w	r1, #0
 8002a9e:	ea02 0400 	and.w	r4, r2, r0
 8002aa2:	ea03 0501 	and.w	r5, r3, r1
 8002aa6:	4620      	mov	r0, r4
 8002aa8:	4629      	mov	r1, r5
 8002aaa:	f04f 0200 	mov.w	r2, #0
 8002aae:	f04f 0300 	mov.w	r3, #0
 8002ab2:	014b      	lsls	r3, r1, #5
 8002ab4:	ea43 63d0 	orr.w	r3, r3, r0, lsr #27
 8002ab8:	0142      	lsls	r2, r0, #5
 8002aba:	4610      	mov	r0, r2
 8002abc:	4619      	mov	r1, r3
 8002abe:	1b00      	subs	r0, r0, r4
 8002ac0:	eb61 0105 	sbc.w	r1, r1, r5
 8002ac4:	f04f 0200 	mov.w	r2, #0
 8002ac8:	f04f 0300 	mov.w	r3, #0
 8002acc:	018b      	lsls	r3, r1, #6
 8002ace:	ea43 6390 	orr.w	r3, r3, r0, lsr #26
 8002ad2:	0182      	lsls	r2, r0, #6
 8002ad4:	1a12      	subs	r2, r2, r0
 8002ad6:	eb63 0301 	sbc.w	r3, r3, r1
 8002ada:	f04f 0000 	mov.w	r0, #0
 8002ade:	f04f 0100 	mov.w	r1, #0
 8002ae2:	00d9      	lsls	r1, r3, #3
 8002ae4:	ea41 7152 	orr.w	r1, r1, r2, lsr #29
 8002ae8:	00d0      	lsls	r0, r2, #3
 8002aea:	4602      	mov	r2, r0
 8002aec:	460b      	mov	r3, r1
 8002aee:	1912      	adds	r2, r2, r4
 8002af0:	eb45 0303 	adc.w	r3, r5, r3
 8002af4:	f04f 0000 	mov.w	r0, #0
 8002af8:	f04f 0100 	mov.w	r1, #0
 8002afc:	0299      	lsls	r1, r3, #10
 8002afe:	ea41 5192 	orr.w	r1, r1, r2, lsr #22
 8002b02:	0290      	lsls	r0, r2, #10
 8002b04:	4602      	mov	r2, r0
 8002b06:	460b      	mov	r3, r1
 8002b08:	4610      	mov	r0, r2
 8002b0a:	4619      	mov	r1, r3
 8002b0c:	687b      	ldr	r3, [r7, #4]
 8002b0e:	461a      	mov	r2, r3
 8002b10:	f04f 0300 	mov.w	r3, #0
 8002b14:	f7fd fbc4 	bl	80002a0 <__aeabi_uldivmod>
 8002b18:	4602      	mov	r2, r0
 8002b1a:	460b      	mov	r3, r1
 8002b1c:	4613      	mov	r3, r2
 8002b1e:	60fb      	str	r3, [r7, #12]
      }
      pllp = ((((RCC->PLLCFGR & RCC_PLLCFGR_PLLP) >> RCC_PLLCFGR_PLLP_Pos) + 1U) *2U);
 8002b20:	4b0b      	ldr	r3, [pc, #44]	; (8002b50 <HAL_RCC_GetSysClockFreq+0x1b8>)
 8002b22:	685b      	ldr	r3, [r3, #4]
 8002b24:	0c1b      	lsrs	r3, r3, #16
 8002b26:	f003 0303 	and.w	r3, r3, #3
 8002b2a:	3301      	adds	r3, #1
 8002b2c:	005b      	lsls	r3, r3, #1
 8002b2e:	603b      	str	r3, [r7, #0]

      sysclockfreq = pllvco/pllp;
 8002b30:	68fa      	ldr	r2, [r7, #12]
 8002b32:	683b      	ldr	r3, [r7, #0]
 8002b34:	fbb2 f3f3 	udiv	r3, r2, r3
 8002b38:	60bb      	str	r3, [r7, #8]
      break;
 8002b3a:	e002      	b.n	8002b42 <HAL_RCC_GetSysClockFreq+0x1aa>
    }
    default:
    {
      sysclockfreq = HSI_VALUE;
 8002b3c:	4b05      	ldr	r3, [pc, #20]	; (8002b54 <HAL_RCC_GetSysClockFreq+0x1bc>)
 8002b3e:	60bb      	str	r3, [r7, #8]
      break;
 8002b40:	bf00      	nop
    }
  }
  return sysclockfreq;
 8002b42:	68bb      	ldr	r3, [r7, #8]
}
 8002b44:	4618      	mov	r0, r3
 8002b46:	3710      	adds	r7, #16
 8002b48:	46bd      	mov	sp, r7
 8002b4a:	e8bd 83b0 	ldmia.w	sp!, {r4, r5, r7, r8, r9, pc}
 8002b4e:	bf00      	nop
 8002b50:	40023800 	.word	0x40023800
 8002b54:	00f42400 	.word	0x00f42400
 8002b58:	007a1200 	.word	0x007a1200

08002b5c <HAL_RCC_GetHCLKFreq>:
  * @note   The SystemCoreClock CMSIS variable is used to store System Clock Frequency
  *         and updated within this function
  * @retval HCLK frequency
  */
uint32_t HAL_RCC_GetHCLKFreq(void)
{
 8002b5c:	b480      	push	{r7}
 8002b5e:	af00      	add	r7, sp, #0
  return SystemCoreClock;
 8002b60:	4b03      	ldr	r3, [pc, #12]	; (8002b70 <HAL_RCC_GetHCLKFreq+0x14>)
 8002b62:	681b      	ldr	r3, [r3, #0]
}
 8002b64:	4618      	mov	r0, r3
 8002b66:	46bd      	mov	sp, r7
 8002b68:	f85d 7b04 	ldr.w	r7, [sp], #4
 8002b6c:	4770      	bx	lr
 8002b6e:	bf00      	nop
 8002b70:	20000020 	.word	0x20000020

08002b74 <HAL_RCC_GetPCLK1Freq>:
  * @note   Each time PCLK1 changes, this function must be called to update the
  *         right PCLK1 value. Otherwise, any configuration based on this function will be incorrect.
  * @retval PCLK1 frequency
  */
uint32_t HAL_RCC_GetPCLK1Freq(void)
{
 8002b74:	b580      	push	{r7, lr}
 8002b76:	af00      	add	r7, sp, #0
  /* Get HCLK source and Compute PCLK1 frequency ---------------------------*/
  return (HAL_RCC_GetHCLKFreq() >> APBPrescTable[(RCC->CFGR & RCC_CFGR_PPRE1)>> RCC_CFGR_PPRE1_Pos]);
 8002b78:	f7ff fff0 	bl	8002b5c <HAL_RCC_GetHCLKFreq>
 8002b7c:	4602      	mov	r2, r0
 8002b7e:	4b05      	ldr	r3, [pc, #20]	; (8002b94 <HAL_RCC_GetPCLK1Freq+0x20>)
 8002b80:	689b      	ldr	r3, [r3, #8]
 8002b82:	0a9b      	lsrs	r3, r3, #10
 8002b84:	f003 0307 	and.w	r3, r3, #7
 8002b88:	4903      	ldr	r1, [pc, #12]	; (8002b98 <HAL_RCC_GetPCLK1Freq+0x24>)
 8002b8a:	5ccb      	ldrb	r3, [r1, r3]
 8002b8c:	fa22 f303 	lsr.w	r3, r2, r3
}
 8002b90:	4618      	mov	r0, r3
 8002b92:	bd80      	pop	{r7, pc}
 8002b94:	40023800 	.word	0x40023800
 8002b98:	080062fc 	.word	0x080062fc

08002b9c <HAL_RCC_GetPCLK2Freq>:
  * @note   Each time PCLK2 changes, this function must be called to update the
  *         right PCLK2 value. Otherwise, any configuration based on this function will be incorrect.
  * @retval PCLK2 frequency
  */
uint32_t HAL_RCC_GetPCLK2Freq(void)
{
 8002b9c:	b580      	push	{r7, lr}
 8002b9e:	af00      	add	r7, sp, #0
  /* Get HCLK source and Compute PCLK2 frequency ---------------------------*/
  return (HAL_RCC_GetHCLKFreq()>> APBPrescTable[(RCC->CFGR & RCC_CFGR_PPRE2)>> RCC_CFGR_PPRE2_Pos]);
 8002ba0:	f7ff ffdc 	bl	8002b5c <HAL_RCC_GetHCLKFreq>
 8002ba4:	4602      	mov	r2, r0
 8002ba6:	4b05      	ldr	r3, [pc, #20]	; (8002bbc <HAL_RCC_GetPCLK2Freq+0x20>)
 8002ba8:	689b      	ldr	r3, [r3, #8]
 8002baa:	0b5b      	lsrs	r3, r3, #13
 8002bac:	f003 0307 	and.w	r3, r3, #7
 8002bb0:	4903      	ldr	r1, [pc, #12]	; (8002bc0 <HAL_RCC_GetPCLK2Freq+0x24>)
 8002bb2:	5ccb      	ldrb	r3, [r1, r3]
 8002bb4:	fa22 f303 	lsr.w	r3, r2, r3
}
 8002bb8:	4618      	mov	r0, r3
 8002bba:	bd80      	pop	{r7, pc}
 8002bbc:	40023800 	.word	0x40023800
 8002bc0:	080062fc 	.word	0x080062fc

08002bc4 <HAL_TIM_Base_Init>:
  *         Ex: call @ref HAL_TIM_Base_DeInit() before HAL_TIM_Base_Init()
  * @param  htim TIM Base handle
  * @retval HAL status
  */
HAL_StatusTypeDef HAL_TIM_Base_Init(TIM_HandleTypeDef *htim)
{
 8002bc4:	b580      	push	{r7, lr}
 8002bc6:	b082      	sub	sp, #8
 8002bc8:	af00      	add	r7, sp, #0
 8002bca:	6078      	str	r0, [r7, #4]
  /* Check the TIM handle allocation */
  if (htim == NULL)
 8002bcc:	687b      	ldr	r3, [r7, #4]
 8002bce:	2b00      	cmp	r3, #0
 8002bd0:	d101      	bne.n	8002bd6 <HAL_TIM_Base_Init+0x12>
  {
    return HAL_ERROR;
 8002bd2:	2301      	movs	r3, #1
 8002bd4:	e041      	b.n	8002c5a <HAL_TIM_Base_Init+0x96>
  assert_param(IS_TIM_INSTANCE(htim->Instance));
  assert_param(IS_TIM_COUNTER_MODE(htim->Init.CounterMode));
  assert_param(IS_TIM_CLOCKDIVISION_DIV(htim->Init.ClockDivision));
  assert_param(IS_TIM_AUTORELOAD_PRELOAD(htim->Init.AutoReloadPreload));

  if (htim->State == HAL_TIM_STATE_RESET)
 8002bd6:	687b      	ldr	r3, [r7, #4]
 8002bd8:	f893 303d 	ldrb.w	r3, [r3, #61]	; 0x3d
 8002bdc:	b2db      	uxtb	r3, r3
 8002bde:	2b00      	cmp	r3, #0
 8002be0:	d106      	bne.n	8002bf0 <HAL_TIM_Base_Init+0x2c>
  {
    /* Allocate lock resource and initialize it */
    htim->Lock = HAL_UNLOCKED;
 8002be2:	687b      	ldr	r3, [r7, #4]
 8002be4:	2200      	movs	r2, #0
 8002be6:	f883 203c 	strb.w	r2, [r3, #60]	; 0x3c
    }
    /* Init the low level hardware : GPIO, CLOCK, NVIC */
    htim->Base_MspInitCallback(htim);
#else
    /* Init the low level hardware : GPIO, CLOCK, NVIC */
    HAL_TIM_Base_MspInit(htim);
 8002bea:	6878      	ldr	r0, [r7, #4]
 8002bec:	f7fe f9c4 	bl	8000f78 <HAL_TIM_Base_MspInit>
#endif /* USE_HAL_TIM_REGISTER_CALLBACKS */
  }

  /* Set the TIM state */
  htim->State = HAL_TIM_STATE_BUSY;
 8002bf0:	687b      	ldr	r3, [r7, #4]
 8002bf2:	2202      	movs	r2, #2
 8002bf4:	f883 203d 	strb.w	r2, [r3, #61]	; 0x3d

  /* Set the Time Base configuration */
  TIM_Base_SetConfig(htim->Instance, &htim->Init);
 8002bf8:	687b      	ldr	r3, [r7, #4]
 8002bfa:	681a      	ldr	r2, [r3, #0]
 8002bfc:	687b      	ldr	r3, [r7, #4]
 8002bfe:	3304      	adds	r3, #4
 8002c00:	4619      	mov	r1, r3
 8002c02:	4610      	mov	r0, r2
 8002c04:	f000 fd78 	bl	80036f8 <TIM_Base_SetConfig>

  /* Initialize the DMA burst operation state */
  htim->DMABurstState = HAL_DMA_BURST_STATE_READY;
 8002c08:	687b      	ldr	r3, [r7, #4]
 8002c0a:	2201      	movs	r2, #1
 8002c0c:	f883 2046 	strb.w	r2, [r3, #70]	; 0x46

  /* Initialize the TIM channels state */
  TIM_CHANNEL_STATE_SET_ALL(htim, HAL_TIM_CHANNEL_STATE_READY);
 8002c10:	687b      	ldr	r3, [r7, #4]
 8002c12:	2201      	movs	r2, #1
 8002c14:	f883 203e 	strb.w	r2, [r3, #62]	; 0x3e
 8002c18:	687b      	ldr	r3, [r7, #4]
 8002c1a:	2201      	movs	r2, #1
 8002c1c:	f883 203f 	strb.w	r2, [r3, #63]	; 0x3f
 8002c20:	687b      	ldr	r3, [r7, #4]
 8002c22:	2201      	movs	r2, #1
 8002c24:	f883 2040 	strb.w	r2, [r3, #64]	; 0x40
 8002c28:	687b      	ldr	r3, [r7, #4]
 8002c2a:	2201      	movs	r2, #1
 8002c2c:	f883 2041 	strb.w	r2, [r3, #65]	; 0x41
  TIM_CHANNEL_N_STATE_SET_ALL(htim, HAL_TIM_CHANNEL_STATE_READY);
 8002c30:	687b      	ldr	r3, [r7, #4]
 8002c32:	2201      	movs	r2, #1
 8002c34:	f883 2042 	strb.w	r2, [r3, #66]	; 0x42
 8002c38:	687b      	ldr	r3, [r7, #4]
 8002c3a:	2201      	movs	r2, #1
 8002c3c:	f883 2043 	strb.w	r2, [r3, #67]	; 0x43
 8002c40:	687b      	ldr	r3, [r7, #4]
 8002c42:	2201      	movs	r2, #1
 8002c44:	f883 2044 	strb.w	r2, [r3, #68]	; 0x44
 8002c48:	687b      	ldr	r3, [r7, #4]
 8002c4a:	2201      	movs	r2, #1
 8002c4c:	f883 2045 	strb.w	r2, [r3, #69]	; 0x45

  /* Initialize the TIM state*/
  htim->State = HAL_TIM_STATE_READY;
 8002c50:	687b      	ldr	r3, [r7, #4]
 8002c52:	2201      	movs	r2, #1
 8002c54:	f883 203d 	strb.w	r2, [r3, #61]	; 0x3d

  return HAL_OK;
 8002c58:	2300      	movs	r3, #0
}
 8002c5a:	4618      	mov	r0, r3
 8002c5c:	3708      	adds	r7, #8
 8002c5e:	46bd      	mov	sp, r7
 8002c60:	bd80      	pop	{r7, pc}
	...

08002c64 <HAL_TIM_Base_Start>:
  * @brief  Starts the TIM Base generation.
  * @param  htim TIM Base handle
  * @retval HAL status
  */
HAL_StatusTypeDef HAL_TIM_Base_Start(TIM_HandleTypeDef *htim)
{
 8002c64:	b480      	push	{r7}
 8002c66:	b085      	sub	sp, #20
 8002c68:	af00      	add	r7, sp, #0
 8002c6a:	6078      	str	r0, [r7, #4]

  /* Check the parameters */
  assert_param(IS_TIM_INSTANCE(htim->Instance));

  /* Check the TIM state */
  if (htim->State != HAL_TIM_STATE_READY)
 8002c6c:	687b      	ldr	r3, [r7, #4]
 8002c6e:	f893 303d 	ldrb.w	r3, [r3, #61]	; 0x3d
 8002c72:	b2db      	uxtb	r3, r3
 8002c74:	2b01      	cmp	r3, #1
 8002c76:	d001      	beq.n	8002c7c <HAL_TIM_Base_Start+0x18>
  {
    return HAL_ERROR;
 8002c78:	2301      	movs	r3, #1
 8002c7a:	e046      	b.n	8002d0a <HAL_TIM_Base_Start+0xa6>
  }

  /* Set the TIM state */
  htim->State = HAL_TIM_STATE_BUSY;
 8002c7c:	687b      	ldr	r3, [r7, #4]
 8002c7e:	2202      	movs	r2, #2
 8002c80:	f883 203d 	strb.w	r2, [r3, #61]	; 0x3d

  /* Enable the Peripheral, except in trigger mode where enable is automatically done with trigger */
  if (IS_TIM_SLAVE_INSTANCE(htim->Instance))
 8002c84:	687b      	ldr	r3, [r7, #4]
 8002c86:	681b      	ldr	r3, [r3, #0]
 8002c88:	4a23      	ldr	r2, [pc, #140]	; (8002d18 <HAL_TIM_Base_Start+0xb4>)
 8002c8a:	4293      	cmp	r3, r2
 8002c8c:	d022      	beq.n	8002cd4 <HAL_TIM_Base_Start+0x70>
 8002c8e:	687b      	ldr	r3, [r7, #4]
 8002c90:	681b      	ldr	r3, [r3, #0]
 8002c92:	f1b3 4f80 	cmp.w	r3, #1073741824	; 0x40000000
 8002c96:	d01d      	beq.n	8002cd4 <HAL_TIM_Base_Start+0x70>
 8002c98:	687b      	ldr	r3, [r7, #4]
 8002c9a:	681b      	ldr	r3, [r3, #0]
 8002c9c:	4a1f      	ldr	r2, [pc, #124]	; (8002d1c <HAL_TIM_Base_Start+0xb8>)
 8002c9e:	4293      	cmp	r3, r2
 8002ca0:	d018      	beq.n	8002cd4 <HAL_TIM_Base_Start+0x70>
 8002ca2:	687b      	ldr	r3, [r7, #4]
 8002ca4:	681b      	ldr	r3, [r3, #0]
 8002ca6:	4a1e      	ldr	r2, [pc, #120]	; (8002d20 <HAL_TIM_Base_Start+0xbc>)
 8002ca8:	4293      	cmp	r3, r2
 8002caa:	d013      	beq.n	8002cd4 <HAL_TIM_Base_Start+0x70>
 8002cac:	687b      	ldr	r3, [r7, #4]
 8002cae:	681b      	ldr	r3, [r3, #0]
 8002cb0:	4a1c      	ldr	r2, [pc, #112]	; (8002d24 <HAL_TIM_Base_Start+0xc0>)
 8002cb2:	4293      	cmp	r3, r2
 8002cb4:	d00e      	beq.n	8002cd4 <HAL_TIM_Base_Start+0x70>
 8002cb6:	687b      	ldr	r3, [r7, #4]
 8002cb8:	681b      	ldr	r3, [r3, #0]
 8002cba:	4a1b      	ldr	r2, [pc, #108]	; (8002d28 <HAL_TIM_Base_Start+0xc4>)
 8002cbc:	4293      	cmp	r3, r2
 8002cbe:	d009      	beq.n	8002cd4 <HAL_TIM_Base_Start+0x70>
 8002cc0:	687b      	ldr	r3, [r7, #4]
 8002cc2:	681b      	ldr	r3, [r3, #0]
 8002cc4:	4a19      	ldr	r2, [pc, #100]	; (8002d2c <HAL_TIM_Base_Start+0xc8>)
 8002cc6:	4293      	cmp	r3, r2
 8002cc8:	d004      	beq.n	8002cd4 <HAL_TIM_Base_Start+0x70>
 8002cca:	687b      	ldr	r3, [r7, #4]
 8002ccc:	681b      	ldr	r3, [r3, #0]
 8002cce:	4a18      	ldr	r2, [pc, #96]	; (8002d30 <HAL_TIM_Base_Start+0xcc>)
 8002cd0:	4293      	cmp	r3, r2
 8002cd2:	d111      	bne.n	8002cf8 <HAL_TIM_Base_Start+0x94>
  {
    tmpsmcr = htim->Instance->SMCR & TIM_SMCR_SMS;
 8002cd4:	687b      	ldr	r3, [r7, #4]
 8002cd6:	681b      	ldr	r3, [r3, #0]
 8002cd8:	689b      	ldr	r3, [r3, #8]
 8002cda:	f003 0307 	and.w	r3, r3, #7
 8002cde:	60fb      	str	r3, [r7, #12]
    if (!IS_TIM_SLAVEMODE_TRIGGER_ENABLED(tmpsmcr))
 8002ce0:	68fb      	ldr	r3, [r7, #12]
 8002ce2:	2b06      	cmp	r3, #6
 8002ce4:	d010      	beq.n	8002d08 <HAL_TIM_Base_Start+0xa4>
    {
      __HAL_TIM_ENABLE(htim);
 8002ce6:	687b      	ldr	r3, [r7, #4]
 8002ce8:	681b      	ldr	r3, [r3, #0]
 8002cea:	681a      	ldr	r2, [r3, #0]
 8002cec:	687b      	ldr	r3, [r7, #4]
 8002cee:	681b      	ldr	r3, [r3, #0]
 8002cf0:	f042 0201 	orr.w	r2, r2, #1
 8002cf4:	601a      	str	r2, [r3, #0]
    if (!IS_TIM_SLAVEMODE_TRIGGER_ENABLED(tmpsmcr))
 8002cf6:	e007      	b.n	8002d08 <HAL_TIM_Base_Start+0xa4>
    }
  }
  else
  {
    __HAL_TIM_ENABLE(htim);
 8002cf8:	687b      	ldr	r3, [r7, #4]
 8002cfa:	681b      	ldr	r3, [r3, #0]
 8002cfc:	681a      	ldr	r2, [r3, #0]
 8002cfe:	687b      	ldr	r3, [r7, #4]
 8002d00:	681b      	ldr	r3, [r3, #0]
 8002d02:	f042 0201 	orr.w	r2, r2, #1
 8002d06:	601a      	str	r2, [r3, #0]
  }

  /* Return function status */
  return HAL_OK;
 8002d08:	2300      	movs	r3, #0
}
 8002d0a:	4618      	mov	r0, r3
 8002d0c:	3714      	adds	r7, #20
 8002d0e:	46bd      	mov	sp, r7
 8002d10:	f85d 7b04 	ldr.w	r7, [sp], #4
 8002d14:	4770      	bx	lr
 8002d16:	bf00      	nop
 8002d18:	40010000 	.word	0x40010000
 8002d1c:	40000400 	.word	0x40000400
 8002d20:	40000800 	.word	0x40000800
 8002d24:	40000c00 	.word	0x40000c00
 8002d28:	40010400 	.word	0x40010400
 8002d2c:	40014000 	.word	0x40014000
 8002d30:	40001800 	.word	0x40001800

08002d34 <HAL_TIM_PWM_Init>:
  *         Ex: call @ref HAL_TIM_PWM_DeInit() before HAL_TIM_PWM_Init()
  * @param  htim TIM PWM handle
  * @retval HAL status
  */
HAL_StatusTypeDef HAL_TIM_PWM_Init(TIM_HandleTypeDef *htim)
{
 8002d34:	b580      	push	{r7, lr}
 8002d36:	b082      	sub	sp, #8
 8002d38:	af00      	add	r7, sp, #0
 8002d3a:	6078      	str	r0, [r7, #4]
  /* Check the TIM handle allocation */
  if (htim == NULL)
 8002d3c:	687b      	ldr	r3, [r7, #4]
 8002d3e:	2b00      	cmp	r3, #0
 8002d40:	d101      	bne.n	8002d46 <HAL_TIM_PWM_Init+0x12>
  {
    return HAL_ERROR;
 8002d42:	2301      	movs	r3, #1
 8002d44:	e041      	b.n	8002dca <HAL_TIM_PWM_Init+0x96>
  assert_param(IS_TIM_INSTANCE(htim->Instance));
  assert_param(IS_TIM_COUNTER_MODE(htim->Init.CounterMode));
  assert_param(IS_TIM_CLOCKDIVISION_DIV(htim->Init.ClockDivision));
  assert_param(IS_TIM_AUTORELOAD_PRELOAD(htim->Init.AutoReloadPreload));

  if (htim->State == HAL_TIM_STATE_RESET)
 8002d46:	687b      	ldr	r3, [r7, #4]
 8002d48:	f893 303d 	ldrb.w	r3, [r3, #61]	; 0x3d
 8002d4c:	b2db      	uxtb	r3, r3
 8002d4e:	2b00      	cmp	r3, #0
 8002d50:	d106      	bne.n	8002d60 <HAL_TIM_PWM_Init+0x2c>
  {
    /* Allocate lock resource and initialize it */
    htim->Lock = HAL_UNLOCKED;
 8002d52:	687b      	ldr	r3, [r7, #4]
 8002d54:	2200      	movs	r2, #0
 8002d56:	f883 203c 	strb.w	r2, [r3, #60]	; 0x3c
    }
    /* Init the low level hardware : GPIO, CLOCK, NVIC */
    htim->PWM_MspInitCallback(htim);
#else
    /* Init the low level hardware : GPIO, CLOCK, NVIC and DMA */
    HAL_TIM_PWM_MspInit(htim);
 8002d5a:	6878      	ldr	r0, [r7, #4]
 8002d5c:	f7fe f95e 	bl	800101c <HAL_TIM_PWM_MspInit>
#endif /* USE_HAL_TIM_REGISTER_CALLBACKS */
  }

  /* Set the TIM state */
  htim->State = HAL_TIM_STATE_BUSY;
 8002d60:	687b      	ldr	r3, [r7, #4]
 8002d62:	2202      	movs	r2, #2
 8002d64:	f883 203d 	strb.w	r2, [r3, #61]	; 0x3d

  /* Init the base time for the PWM */
  TIM_Base_SetConfig(htim->Instance, &htim->Init);
 8002d68:	687b      	ldr	r3, [r7, #4]
 8002d6a:	681a      	ldr	r2, [r3, #0]
 8002d6c:	687b      	ldr	r3, [r7, #4]
 8002d6e:	3304      	adds	r3, #4
 8002d70:	4619      	mov	r1, r3
 8002d72:	4610      	mov	r0, r2
 8002d74:	f000 fcc0 	bl	80036f8 <TIM_Base_SetConfig>

  /* Initialize the DMA burst operation state */
  htim->DMABurstState = HAL_DMA_BURST_STATE_READY;
 8002d78:	687b      	ldr	r3, [r7, #4]
 8002d7a:	2201      	movs	r2, #1
 8002d7c:	f883 2046 	strb.w	r2, [r3, #70]	; 0x46

  /* Initialize the TIM channels state */
  TIM_CHANNEL_STATE_SET_ALL(htim, HAL_TIM_CHANNEL_STATE_READY);
 8002d80:	687b      	ldr	r3, [r7, #4]
 8002d82:	2201      	movs	r2, #1
 8002d84:	f883 203e 	strb.w	r2, [r3, #62]	; 0x3e
 8002d88:	687b      	ldr	r3, [r7, #4]
 8002d8a:	2201      	movs	r2, #1
 8002d8c:	f883 203f 	strb.w	r2, [r3, #63]	; 0x3f
 8002d90:	687b      	ldr	r3, [r7, #4]
 8002d92:	2201      	movs	r2, #1
 8002d94:	f883 2040 	strb.w	r2, [r3, #64]	; 0x40
 8002d98:	687b      	ldr	r3, [r7, #4]
 8002d9a:	2201      	movs	r2, #1
 8002d9c:	f883 2041 	strb.w	r2, [r3, #65]	; 0x41
  TIM_CHANNEL_N_STATE_SET_ALL(htim, HAL_TIM_CHANNEL_STATE_READY);
 8002da0:	687b      	ldr	r3, [r7, #4]
 8002da2:	2201      	movs	r2, #1
 8002da4:	f883 2042 	strb.w	r2, [r3, #66]	; 0x42
 8002da8:	687b      	ldr	r3, [r7, #4]
 8002daa:	2201      	movs	r2, #1
 8002dac:	f883 2043 	strb.w	r2, [r3, #67]	; 0x43
 8002db0:	687b      	ldr	r3, [r7, #4]
 8002db2:	2201      	movs	r2, #1
 8002db4:	f883 2044 	strb.w	r2, [r3, #68]	; 0x44
 8002db8:	687b      	ldr	r3, [r7, #4]
 8002dba:	2201      	movs	r2, #1
 8002dbc:	f883 2045 	strb.w	r2, [r3, #69]	; 0x45

  /* Initialize the TIM state*/
  htim->State = HAL_TIM_STATE_READY;
 8002dc0:	687b      	ldr	r3, [r7, #4]
 8002dc2:	2201      	movs	r2, #1
 8002dc4:	f883 203d 	strb.w	r2, [r3, #61]	; 0x3d

  return HAL_OK;
 8002dc8:	2300      	movs	r3, #0
}
 8002dca:	4618      	mov	r0, r3
 8002dcc:	3708      	adds	r7, #8
 8002dce:	46bd      	mov	sp, r7
 8002dd0:	bd80      	pop	{r7, pc}
	...

08002dd4 <HAL_TIM_PWM_Start>:
  *            @arg TIM_CHANNEL_3: TIM Channel 3 selected
  *            @arg TIM_CHANNEL_4: TIM Channel 4 selected
  * @retval HAL status
  */
HAL_StatusTypeDef HAL_TIM_PWM_Start(TIM_HandleTypeDef *htim, uint32_t Channel)
{
 8002dd4:	b580      	push	{r7, lr}
 8002dd6:	b084      	sub	sp, #16
 8002dd8:	af00      	add	r7, sp, #0
 8002dda:	6078      	str	r0, [r7, #4]
 8002ddc:	6039      	str	r1, [r7, #0]

  /* Check the parameters */
  assert_param(IS_TIM_CCX_INSTANCE(htim->Instance, Channel));

  /* Check the TIM channel state */
  if (TIM_CHANNEL_STATE_GET(htim, Channel) != HAL_TIM_CHANNEL_STATE_READY)
 8002dde:	683b      	ldr	r3, [r7, #0]
 8002de0:	2b00      	cmp	r3, #0
 8002de2:	d109      	bne.n	8002df8 <HAL_TIM_PWM_Start+0x24>
 8002de4:	687b      	ldr	r3, [r7, #4]
 8002de6:	f893 303e 	ldrb.w	r3, [r3, #62]	; 0x3e
 8002dea:	b2db      	uxtb	r3, r3
 8002dec:	2b01      	cmp	r3, #1
 8002dee:	bf14      	ite	ne
 8002df0:	2301      	movne	r3, #1
 8002df2:	2300      	moveq	r3, #0
 8002df4:	b2db      	uxtb	r3, r3
 8002df6:	e022      	b.n	8002e3e <HAL_TIM_PWM_Start+0x6a>
 8002df8:	683b      	ldr	r3, [r7, #0]
 8002dfa:	2b04      	cmp	r3, #4
 8002dfc:	d109      	bne.n	8002e12 <HAL_TIM_PWM_Start+0x3e>
 8002dfe:	687b      	ldr	r3, [r7, #4]
 8002e00:	f893 303f 	ldrb.w	r3, [r3, #63]	; 0x3f
 8002e04:	b2db      	uxtb	r3, r3
 8002e06:	2b01      	cmp	r3, #1
 8002e08:	bf14      	ite	ne
 8002e0a:	2301      	movne	r3, #1
 8002e0c:	2300      	moveq	r3, #0
 8002e0e:	b2db      	uxtb	r3, r3
 8002e10:	e015      	b.n	8002e3e <HAL_TIM_PWM_Start+0x6a>
 8002e12:	683b      	ldr	r3, [r7, #0]
 8002e14:	2b08      	cmp	r3, #8
 8002e16:	d109      	bne.n	8002e2c <HAL_TIM_PWM_Start+0x58>
 8002e18:	687b      	ldr	r3, [r7, #4]
 8002e1a:	f893 3040 	ldrb.w	r3, [r3, #64]	; 0x40
 8002e1e:	b2db      	uxtb	r3, r3
 8002e20:	2b01      	cmp	r3, #1
 8002e22:	bf14      	ite	ne
 8002e24:	2301      	movne	r3, #1
 8002e26:	2300      	moveq	r3, #0
 8002e28:	b2db      	uxtb	r3, r3
 8002e2a:	e008      	b.n	8002e3e <HAL_TIM_PWM_Start+0x6a>
 8002e2c:	687b      	ldr	r3, [r7, #4]
 8002e2e:	f893 3041 	ldrb.w	r3, [r3, #65]	; 0x41
 8002e32:	b2db      	uxtb	r3, r3
 8002e34:	2b01      	cmp	r3, #1
 8002e36:	bf14      	ite	ne
 8002e38:	2301      	movne	r3, #1
 8002e3a:	2300      	moveq	r3, #0
 8002e3c:	b2db      	uxtb	r3, r3
 8002e3e:	2b00      	cmp	r3, #0
 8002e40:	d001      	beq.n	8002e46 <HAL_TIM_PWM_Start+0x72>
  {
    return HAL_ERROR;
 8002e42:	2301      	movs	r3, #1
 8002e44:	e07c      	b.n	8002f40 <HAL_TIM_PWM_Start+0x16c>
  }

  /* Set the TIM channel state */
  TIM_CHANNEL_STATE_SET(htim, Channel, HAL_TIM_CHANNEL_STATE_BUSY);
 8002e46:	683b      	ldr	r3, [r7, #0]
 8002e48:	2b00      	cmp	r3, #0
 8002e4a:	d104      	bne.n	8002e56 <HAL_TIM_PWM_Start+0x82>
 8002e4c:	687b      	ldr	r3, [r7, #4]
 8002e4e:	2202      	movs	r2, #2
 8002e50:	f883 203e 	strb.w	r2, [r3, #62]	; 0x3e
 8002e54:	e013      	b.n	8002e7e <HAL_TIM_PWM_Start+0xaa>
 8002e56:	683b      	ldr	r3, [r7, #0]
 8002e58:	2b04      	cmp	r3, #4
 8002e5a:	d104      	bne.n	8002e66 <HAL_TIM_PWM_Start+0x92>
 8002e5c:	687b      	ldr	r3, [r7, #4]
 8002e5e:	2202      	movs	r2, #2
 8002e60:	f883 203f 	strb.w	r2, [r3, #63]	; 0x3f
 8002e64:	e00b      	b.n	8002e7e <HAL_TIM_PWM_Start+0xaa>
 8002e66:	683b      	ldr	r3, [r7, #0]
 8002e68:	2b08      	cmp	r3, #8
 8002e6a:	d104      	bne.n	8002e76 <HAL_TIM_PWM_Start+0xa2>
 8002e6c:	687b      	ldr	r3, [r7, #4]
 8002e6e:	2202      	movs	r2, #2
 8002e70:	f883 2040 	strb.w	r2, [r3, #64]	; 0x40
 8002e74:	e003      	b.n	8002e7e <HAL_TIM_PWM_Start+0xaa>
 8002e76:	687b      	ldr	r3, [r7, #4]
 8002e78:	2202      	movs	r2, #2
 8002e7a:	f883 2041 	strb.w	r2, [r3, #65]	; 0x41

  /* Enable the Capture compare channel */
  TIM_CCxChannelCmd(htim->Instance, Channel, TIM_CCx_ENABLE);
 8002e7e:	687b      	ldr	r3, [r7, #4]
 8002e80:	681b      	ldr	r3, [r3, #0]
 8002e82:	2201      	movs	r2, #1
 8002e84:	6839      	ldr	r1, [r7, #0]
 8002e86:	4618      	mov	r0, r3
 8002e88:	f000 ff20 	bl	8003ccc <TIM_CCxChannelCmd>

  if (IS_TIM_BREAK_INSTANCE(htim->Instance) != RESET)
 8002e8c:	687b      	ldr	r3, [r7, #4]
 8002e8e:	681b      	ldr	r3, [r3, #0]
 8002e90:	4a2d      	ldr	r2, [pc, #180]	; (8002f48 <HAL_TIM_PWM_Start+0x174>)
 8002e92:	4293      	cmp	r3, r2
 8002e94:	d004      	beq.n	8002ea0 <HAL_TIM_PWM_Start+0xcc>
 8002e96:	687b      	ldr	r3, [r7, #4]
 8002e98:	681b      	ldr	r3, [r3, #0]
 8002e9a:	4a2c      	ldr	r2, [pc, #176]	; (8002f4c <HAL_TIM_PWM_Start+0x178>)
 8002e9c:	4293      	cmp	r3, r2
 8002e9e:	d101      	bne.n	8002ea4 <HAL_TIM_PWM_Start+0xd0>
 8002ea0:	2301      	movs	r3, #1
 8002ea2:	e000      	b.n	8002ea6 <HAL_TIM_PWM_Start+0xd2>
 8002ea4:	2300      	movs	r3, #0
 8002ea6:	2b00      	cmp	r3, #0
 8002ea8:	d007      	beq.n	8002eba <HAL_TIM_PWM_Start+0xe6>
  {
    /* Enable the main output */
    __HAL_TIM_MOE_ENABLE(htim);
 8002eaa:	687b      	ldr	r3, [r7, #4]
 8002eac:	681b      	ldr	r3, [r3, #0]
 8002eae:	6c5a      	ldr	r2, [r3, #68]	; 0x44
 8002eb0:	687b      	ldr	r3, [r7, #4]
 8002eb2:	681b      	ldr	r3, [r3, #0]
 8002eb4:	f442 4200 	orr.w	r2, r2, #32768	; 0x8000
 8002eb8:	645a      	str	r2, [r3, #68]	; 0x44
  }

  /* Enable the Peripheral, except in trigger mode where enable is automatically done with trigger */
  if (IS_TIM_SLAVE_INSTANCE(htim->Instance))
 8002eba:	687b      	ldr	r3, [r7, #4]
 8002ebc:	681b      	ldr	r3, [r3, #0]
 8002ebe:	4a22      	ldr	r2, [pc, #136]	; (8002f48 <HAL_TIM_PWM_Start+0x174>)
 8002ec0:	4293      	cmp	r3, r2
 8002ec2:	d022      	beq.n	8002f0a <HAL_TIM_PWM_Start+0x136>
 8002ec4:	687b      	ldr	r3, [r7, #4]
 8002ec6:	681b      	ldr	r3, [r3, #0]
 8002ec8:	f1b3 4f80 	cmp.w	r3, #1073741824	; 0x40000000
 8002ecc:	d01d      	beq.n	8002f0a <HAL_TIM_PWM_Start+0x136>
 8002ece:	687b      	ldr	r3, [r7, #4]
 8002ed0:	681b      	ldr	r3, [r3, #0]
 8002ed2:	4a1f      	ldr	r2, [pc, #124]	; (8002f50 <HAL_TIM_PWM_Start+0x17c>)
 8002ed4:	4293      	cmp	r3, r2
 8002ed6:	d018      	beq.n	8002f0a <HAL_TIM_PWM_Start+0x136>
 8002ed8:	687b      	ldr	r3, [r7, #4]
 8002eda:	681b      	ldr	r3, [r3, #0]
 8002edc:	4a1d      	ldr	r2, [pc, #116]	; (8002f54 <HAL_TIM_PWM_Start+0x180>)
 8002ede:	4293      	cmp	r3, r2
 8002ee0:	d013      	beq.n	8002f0a <HAL_TIM_PWM_Start+0x136>
 8002ee2:	687b      	ldr	r3, [r7, #4]
 8002ee4:	681b      	ldr	r3, [r3, #0]
 8002ee6:	4a1c      	ldr	r2, [pc, #112]	; (8002f58 <HAL_TIM_PWM_Start+0x184>)
 8002ee8:	4293      	cmp	r3, r2
 8002eea:	d00e      	beq.n	8002f0a <HAL_TIM_PWM_Start+0x136>
 8002eec:	687b      	ldr	r3, [r7, #4]
 8002eee:	681b      	ldr	r3, [r3, #0]
 8002ef0:	4a16      	ldr	r2, [pc, #88]	; (8002f4c <HAL_TIM_PWM_Start+0x178>)
 8002ef2:	4293      	cmp	r3, r2
 8002ef4:	d009      	beq.n	8002f0a <HAL_TIM_PWM_Start+0x136>
 8002ef6:	687b      	ldr	r3, [r7, #4]
 8002ef8:	681b      	ldr	r3, [r3, #0]
 8002efa:	4a18      	ldr	r2, [pc, #96]	; (8002f5c <HAL_TIM_PWM_Start+0x188>)
 8002efc:	4293      	cmp	r3, r2
 8002efe:	d004      	beq.n	8002f0a <HAL_TIM_PWM_Start+0x136>
 8002f00:	687b      	ldr	r3, [r7, #4]
 8002f02:	681b      	ldr	r3, [r3, #0]
 8002f04:	4a16      	ldr	r2, [pc, #88]	; (8002f60 <HAL_TIM_PWM_Start+0x18c>)
 8002f06:	4293      	cmp	r3, r2
 8002f08:	d111      	bne.n	8002f2e <HAL_TIM_PWM_Start+0x15a>
  {
    tmpsmcr = htim->Instance->SMCR & TIM_SMCR_SMS;
 8002f0a:	687b      	ldr	r3, [r7, #4]
 8002f0c:	681b      	ldr	r3, [r3, #0]
 8002f0e:	689b      	ldr	r3, [r3, #8]
 8002f10:	f003 0307 	and.w	r3, r3, #7
 8002f14:	60fb      	str	r3, [r7, #12]
    if (!IS_TIM_SLAVEMODE_TRIGGER_ENABLED(tmpsmcr))
 8002f16:	68fb      	ldr	r3, [r7, #12]
 8002f18:	2b06      	cmp	r3, #6
 8002f1a:	d010      	beq.n	8002f3e <HAL_TIM_PWM_Start+0x16a>
    {
      __HAL_TIM_ENABLE(htim);
 8002f1c:	687b      	ldr	r3, [r7, #4]
 8002f1e:	681b      	ldr	r3, [r3, #0]
 8002f20:	681a      	ldr	r2, [r3, #0]
 8002f22:	687b      	ldr	r3, [r7, #4]
 8002f24:	681b      	ldr	r3, [r3, #0]
 8002f26:	f042 0201 	orr.w	r2, r2, #1
 8002f2a:	601a      	str	r2, [r3, #0]
    if (!IS_TIM_SLAVEMODE_TRIGGER_ENABLED(tmpsmcr))
 8002f2c:	e007      	b.n	8002f3e <HAL_TIM_PWM_Start+0x16a>
    }
  }
  else
  {
    __HAL_TIM_ENABLE(htim);
 8002f2e:	687b      	ldr	r3, [r7, #4]
 8002f30:	681b      	ldr	r3, [r3, #0]
 8002f32:	681a      	ldr	r2, [r3, #0]
 8002f34:	687b      	ldr	r3, [r7, #4]
 8002f36:	681b      	ldr	r3, [r3, #0]
 8002f38:	f042 0201 	orr.w	r2, r2, #1
 8002f3c:	601a      	str	r2, [r3, #0]
  }

  /* Return function status */
  return HAL_OK;
 8002f3e:	2300      	movs	r3, #0
}
 8002f40:	4618      	mov	r0, r3
 8002f42:	3710      	adds	r7, #16
 8002f44:	46bd      	mov	sp, r7
 8002f46:	bd80      	pop	{r7, pc}
 8002f48:	40010000 	.word	0x40010000
 8002f4c:	40010400 	.word	0x40010400
 8002f50:	40000400 	.word	0x40000400
 8002f54:	40000800 	.word	0x40000800
 8002f58:	40000c00 	.word	0x40000c00
 8002f5c:	40014000 	.word	0x40014000
 8002f60:	40001800 	.word	0x40001800

08002f64 <HAL_TIM_PWM_Start_IT>:
  *            @arg TIM_CHANNEL_3: TIM Channel 3 selected
  *            @arg TIM_CHANNEL_4: TIM Channel 4 selected
  * @retval HAL status
  */
HAL_StatusTypeDef HAL_TIM_PWM_Start_IT(TIM_HandleTypeDef *htim, uint32_t Channel)
{
 8002f64:	b580      	push	{r7, lr}
 8002f66:	b084      	sub	sp, #16
 8002f68:	af00      	add	r7, sp, #0
 8002f6a:	6078      	str	r0, [r7, #4]
 8002f6c:	6039      	str	r1, [r7, #0]
  uint32_t tmpsmcr;
  /* Check the parameters */
  assert_param(IS_TIM_CCX_INSTANCE(htim->Instance, Channel));

  /* Check the TIM channel state */
  if (TIM_CHANNEL_STATE_GET(htim, Channel) != HAL_TIM_CHANNEL_STATE_READY)
 8002f6e:	683b      	ldr	r3, [r7, #0]
 8002f70:	2b00      	cmp	r3, #0
 8002f72:	d109      	bne.n	8002f88 <HAL_TIM_PWM_Start_IT+0x24>
 8002f74:	687b      	ldr	r3, [r7, #4]
 8002f76:	f893 303e 	ldrb.w	r3, [r3, #62]	; 0x3e
 8002f7a:	b2db      	uxtb	r3, r3
 8002f7c:	2b01      	cmp	r3, #1
 8002f7e:	bf14      	ite	ne
 8002f80:	2301      	movne	r3, #1
 8002f82:	2300      	moveq	r3, #0
 8002f84:	b2db      	uxtb	r3, r3
 8002f86:	e022      	b.n	8002fce <HAL_TIM_PWM_Start_IT+0x6a>
 8002f88:	683b      	ldr	r3, [r7, #0]
 8002f8a:	2b04      	cmp	r3, #4
 8002f8c:	d109      	bne.n	8002fa2 <HAL_TIM_PWM_Start_IT+0x3e>
 8002f8e:	687b      	ldr	r3, [r7, #4]
 8002f90:	f893 303f 	ldrb.w	r3, [r3, #63]	; 0x3f
 8002f94:	b2db      	uxtb	r3, r3
 8002f96:	2b01      	cmp	r3, #1
 8002f98:	bf14      	ite	ne
 8002f9a:	2301      	movne	r3, #1
 8002f9c:	2300      	moveq	r3, #0
 8002f9e:	b2db      	uxtb	r3, r3
 8002fa0:	e015      	b.n	8002fce <HAL_TIM_PWM_Start_IT+0x6a>
 8002fa2:	683b      	ldr	r3, [r7, #0]
 8002fa4:	2b08      	cmp	r3, #8
 8002fa6:	d109      	bne.n	8002fbc <HAL_TIM_PWM_Start_IT+0x58>
 8002fa8:	687b      	ldr	r3, [r7, #4]
 8002faa:	f893 3040 	ldrb.w	r3, [r3, #64]	; 0x40
 8002fae:	b2db      	uxtb	r3, r3
 8002fb0:	2b01      	cmp	r3, #1
 8002fb2:	bf14      	ite	ne
 8002fb4:	2301      	movne	r3, #1
 8002fb6:	2300      	moveq	r3, #0
 8002fb8:	b2db      	uxtb	r3, r3
 8002fba:	e008      	b.n	8002fce <HAL_TIM_PWM_Start_IT+0x6a>
 8002fbc:	687b      	ldr	r3, [r7, #4]
 8002fbe:	f893 3041 	ldrb.w	r3, [r3, #65]	; 0x41
 8002fc2:	b2db      	uxtb	r3, r3
 8002fc4:	2b01      	cmp	r3, #1
 8002fc6:	bf14      	ite	ne
 8002fc8:	2301      	movne	r3, #1
 8002fca:	2300      	moveq	r3, #0
 8002fcc:	b2db      	uxtb	r3, r3
 8002fce:	2b00      	cmp	r3, #0
 8002fd0:	d001      	beq.n	8002fd6 <HAL_TIM_PWM_Start_IT+0x72>
  {
    return HAL_ERROR;
 8002fd2:	2301      	movs	r3, #1
 8002fd4:	e0c2      	b.n	800315c <HAL_TIM_PWM_Start_IT+0x1f8>
  }

  /* Set the TIM channel state */
  TIM_CHANNEL_STATE_SET(htim, Channel, HAL_TIM_CHANNEL_STATE_BUSY);
 8002fd6:	683b      	ldr	r3, [r7, #0]
 8002fd8:	2b00      	cmp	r3, #0
 8002fda:	d104      	bne.n	8002fe6 <HAL_TIM_PWM_Start_IT+0x82>
 8002fdc:	687b      	ldr	r3, [r7, #4]
 8002fde:	2202      	movs	r2, #2
 8002fe0:	f883 203e 	strb.w	r2, [r3, #62]	; 0x3e
 8002fe4:	e013      	b.n	800300e <HAL_TIM_PWM_Start_IT+0xaa>
 8002fe6:	683b      	ldr	r3, [r7, #0]
 8002fe8:	2b04      	cmp	r3, #4
 8002fea:	d104      	bne.n	8002ff6 <HAL_TIM_PWM_Start_IT+0x92>
 8002fec:	687b      	ldr	r3, [r7, #4]
 8002fee:	2202      	movs	r2, #2
 8002ff0:	f883 203f 	strb.w	r2, [r3, #63]	; 0x3f
 8002ff4:	e00b      	b.n	800300e <HAL_TIM_PWM_Start_IT+0xaa>
 8002ff6:	683b      	ldr	r3, [r7, #0]
 8002ff8:	2b08      	cmp	r3, #8
 8002ffa:	d104      	bne.n	8003006 <HAL_TIM_PWM_Start_IT+0xa2>
 8002ffc:	687b      	ldr	r3, [r7, #4]
 8002ffe:	2202      	movs	r2, #2
 8003000:	f883 2040 	strb.w	r2, [r3, #64]	; 0x40
 8003004:	e003      	b.n	800300e <HAL_TIM_PWM_Start_IT+0xaa>
 8003006:	687b      	ldr	r3, [r7, #4]
 8003008:	2202      	movs	r2, #2
 800300a:	f883 2041 	strb.w	r2, [r3, #65]	; 0x41
 800300e:	683b      	ldr	r3, [r7, #0]
 8003010:	2b0c      	cmp	r3, #12
 8003012:	d841      	bhi.n	8003098 <HAL_TIM_PWM_Start_IT+0x134>
 8003014:	a201      	add	r2, pc, #4	; (adr r2, 800301c <HAL_TIM_PWM_Start_IT+0xb8>)
 8003016:	f852 f023 	ldr.w	pc, [r2, r3, lsl #2]
 800301a:	bf00      	nop
 800301c:	08003051 	.word	0x08003051
 8003020:	08003099 	.word	0x08003099
 8003024:	08003099 	.word	0x08003099
 8003028:	08003099 	.word	0x08003099
 800302c:	08003063 	.word	0x08003063
 8003030:	08003099 	.word	0x08003099
 8003034:	08003099 	.word	0x08003099
 8003038:	08003099 	.word	0x08003099
 800303c:	08003075 	.word	0x08003075
 8003040:	08003099 	.word	0x08003099
 8003044:	08003099 	.word	0x08003099
 8003048:	08003099 	.word	0x08003099
 800304c:	08003087 	.word	0x08003087
  switch (Channel)
  {
    case TIM_CHANNEL_1:
    {
      /* Enable the TIM Capture/Compare 1 interrupt */
      __HAL_TIM_ENABLE_IT(htim, TIM_IT_CC1);
 8003050:	687b      	ldr	r3, [r7, #4]
 8003052:	681b      	ldr	r3, [r3, #0]
 8003054:	68da      	ldr	r2, [r3, #12]
 8003056:	687b      	ldr	r3, [r7, #4]
 8003058:	681b      	ldr	r3, [r3, #0]
 800305a:	f042 0202 	orr.w	r2, r2, #2
 800305e:	60da      	str	r2, [r3, #12]
      break;
 8003060:	e01b      	b.n	800309a <HAL_TIM_PWM_Start_IT+0x136>
    }

    case TIM_CHANNEL_2:
    {
      /* Enable the TIM Capture/Compare 2 interrupt */
      __HAL_TIM_ENABLE_IT(htim, TIM_IT_CC2);
 8003062:	687b      	ldr	r3, [r7, #4]
 8003064:	681b      	ldr	r3, [r3, #0]
 8003066:	68da      	ldr	r2, [r3, #12]
 8003068:	687b      	ldr	r3, [r7, #4]
 800306a:	681b      	ldr	r3, [r3, #0]
 800306c:	f042 0204 	orr.w	r2, r2, #4
 8003070:	60da      	str	r2, [r3, #12]
      break;
 8003072:	e012      	b.n	800309a <HAL_TIM_PWM_Start_IT+0x136>
    }

    case TIM_CHANNEL_3:
    {
      /* Enable the TIM Capture/Compare 3 interrupt */
      __HAL_TIM_ENABLE_IT(htim, TIM_IT_CC3);
 8003074:	687b      	ldr	r3, [r7, #4]
 8003076:	681b      	ldr	r3, [r3, #0]
 8003078:	68da      	ldr	r2, [r3, #12]
 800307a:	687b      	ldr	r3, [r7, #4]
 800307c:	681b      	ldr	r3, [r3, #0]
 800307e:	f042 0208 	orr.w	r2, r2, #8
 8003082:	60da      	str	r2, [r3, #12]
      break;
 8003084:	e009      	b.n	800309a <HAL_TIM_PWM_Start_IT+0x136>
    }

    case TIM_CHANNEL_4:
    {
      /* Enable the TIM Capture/Compare 4 interrupt */
      __HAL_TIM_ENABLE_IT(htim, TIM_IT_CC4);
 8003086:	687b      	ldr	r3, [r7, #4]
 8003088:	681b      	ldr	r3, [r3, #0]
 800308a:	68da      	ldr	r2, [r3, #12]
 800308c:	687b      	ldr	r3, [r7, #4]
 800308e:	681b      	ldr	r3, [r3, #0]
 8003090:	f042 0210 	orr.w	r2, r2, #16
 8003094:	60da      	str	r2, [r3, #12]
      break;
 8003096:	e000      	b.n	800309a <HAL_TIM_PWM_Start_IT+0x136>
    }

    default:
      break;
 8003098:	bf00      	nop
  }

  /* Enable the Capture compare channel */
  TIM_CCxChannelCmd(htim->Instance, Channel, TIM_CCx_ENABLE);
 800309a:	687b      	ldr	r3, [r7, #4]
 800309c:	681b      	ldr	r3, [r3, #0]
 800309e:	2201      	movs	r2, #1
 80030a0:	6839      	ldr	r1, [r7, #0]
 80030a2:	4618      	mov	r0, r3
 80030a4:	f000 fe12 	bl	8003ccc <TIM_CCxChannelCmd>

  if (IS_TIM_BREAK_INSTANCE(htim->Instance) != RESET)
 80030a8:	687b      	ldr	r3, [r7, #4]
 80030aa:	681b      	ldr	r3, [r3, #0]
 80030ac:	4a2d      	ldr	r2, [pc, #180]	; (8003164 <HAL_TIM_PWM_Start_IT+0x200>)
 80030ae:	4293      	cmp	r3, r2
 80030b0:	d004      	beq.n	80030bc <HAL_TIM_PWM_Start_IT+0x158>
 80030b2:	687b      	ldr	r3, [r7, #4]
 80030b4:	681b      	ldr	r3, [r3, #0]
 80030b6:	4a2c      	ldr	r2, [pc, #176]	; (8003168 <HAL_TIM_PWM_Start_IT+0x204>)
 80030b8:	4293      	cmp	r3, r2
 80030ba:	d101      	bne.n	80030c0 <HAL_TIM_PWM_Start_IT+0x15c>
 80030bc:	2301      	movs	r3, #1
 80030be:	e000      	b.n	80030c2 <HAL_TIM_PWM_Start_IT+0x15e>
 80030c0:	2300      	movs	r3, #0
 80030c2:	2b00      	cmp	r3, #0
 80030c4:	d007      	beq.n	80030d6 <HAL_TIM_PWM_Start_IT+0x172>
  {
    /* Enable the main output */
    __HAL_TIM_MOE_ENABLE(htim);
 80030c6:	687b      	ldr	r3, [r7, #4]
 80030c8:	681b      	ldr	r3, [r3, #0]
 80030ca:	6c5a      	ldr	r2, [r3, #68]	; 0x44
 80030cc:	687b      	ldr	r3, [r7, #4]
 80030ce:	681b      	ldr	r3, [r3, #0]
 80030d0:	f442 4200 	orr.w	r2, r2, #32768	; 0x8000
 80030d4:	645a      	str	r2, [r3, #68]	; 0x44
  }

  /* Enable the Peripheral, except in trigger mode where enable is automatically done with trigger */
  if (IS_TIM_SLAVE_INSTANCE(htim->Instance))
 80030d6:	687b      	ldr	r3, [r7, #4]
 80030d8:	681b      	ldr	r3, [r3, #0]
 80030da:	4a22      	ldr	r2, [pc, #136]	; (8003164 <HAL_TIM_PWM_Start_IT+0x200>)
 80030dc:	4293      	cmp	r3, r2
 80030de:	d022      	beq.n	8003126 <HAL_TIM_PWM_Start_IT+0x1c2>
 80030e0:	687b      	ldr	r3, [r7, #4]
 80030e2:	681b      	ldr	r3, [r3, #0]
 80030e4:	f1b3 4f80 	cmp.w	r3, #1073741824	; 0x40000000
 80030e8:	d01d      	beq.n	8003126 <HAL_TIM_PWM_Start_IT+0x1c2>
 80030ea:	687b      	ldr	r3, [r7, #4]
 80030ec:	681b      	ldr	r3, [r3, #0]
 80030ee:	4a1f      	ldr	r2, [pc, #124]	; (800316c <HAL_TIM_PWM_Start_IT+0x208>)
 80030f0:	4293      	cmp	r3, r2
 80030f2:	d018      	beq.n	8003126 <HAL_TIM_PWM_Start_IT+0x1c2>
 80030f4:	687b      	ldr	r3, [r7, #4]
 80030f6:	681b      	ldr	r3, [r3, #0]
 80030f8:	4a1d      	ldr	r2, [pc, #116]	; (8003170 <HAL_TIM_PWM_Start_IT+0x20c>)
 80030fa:	4293      	cmp	r3, r2
 80030fc:	d013      	beq.n	8003126 <HAL_TIM_PWM_Start_IT+0x1c2>
 80030fe:	687b      	ldr	r3, [r7, #4]
 8003100:	681b      	ldr	r3, [r3, #0]
 8003102:	4a1c      	ldr	r2, [pc, #112]	; (8003174 <HAL_TIM_PWM_Start_IT+0x210>)
 8003104:	4293      	cmp	r3, r2
 8003106:	d00e      	beq.n	8003126 <HAL_TIM_PWM_Start_IT+0x1c2>
 8003108:	687b      	ldr	r3, [r7, #4]
 800310a:	681b      	ldr	r3, [r3, #0]
 800310c:	4a16      	ldr	r2, [pc, #88]	; (8003168 <HAL_TIM_PWM_Start_IT+0x204>)
 800310e:	4293      	cmp	r3, r2
 8003110:	d009      	beq.n	8003126 <HAL_TIM_PWM_Start_IT+0x1c2>
 8003112:	687b      	ldr	r3, [r7, #4]
 8003114:	681b      	ldr	r3, [r3, #0]
 8003116:	4a18      	ldr	r2, [pc, #96]	; (8003178 <HAL_TIM_PWM_Start_IT+0x214>)
 8003118:	4293      	cmp	r3, r2
 800311a:	d004      	beq.n	8003126 <HAL_TIM_PWM_Start_IT+0x1c2>
 800311c:	687b      	ldr	r3, [r7, #4]
 800311e:	681b      	ldr	r3, [r3, #0]
 8003120:	4a16      	ldr	r2, [pc, #88]	; (800317c <HAL_TIM_PWM_Start_IT+0x218>)
 8003122:	4293      	cmp	r3, r2
 8003124:	d111      	bne.n	800314a <HAL_TIM_PWM_Start_IT+0x1e6>
  {
    tmpsmcr = htim->Instance->SMCR & TIM_SMCR_SMS;
 8003126:	687b      	ldr	r3, [r7, #4]
 8003128:	681b      	ldr	r3, [r3, #0]
 800312a:	689b      	ldr	r3, [r3, #8]
 800312c:	f003 0307 	and.w	r3, r3, #7
 8003130:	60fb      	str	r3, [r7, #12]
    if (!IS_TIM_SLAVEMODE_TRIGGER_ENABLED(tmpsmcr))
 8003132:	68fb      	ldr	r3, [r7, #12]
 8003134:	2b06      	cmp	r3, #6
 8003136:	d010      	beq.n	800315a <HAL_TIM_PWM_Start_IT+0x1f6>
    {
      __HAL_TIM_ENABLE(htim);
 8003138:	687b      	ldr	r3, [r7, #4]
 800313a:	681b      	ldr	r3, [r3, #0]
 800313c:	681a      	ldr	r2, [r3, #0]
 800313e:	687b      	ldr	r3, [r7, #4]
 8003140:	681b      	ldr	r3, [r3, #0]
 8003142:	f042 0201 	orr.w	r2, r2, #1
 8003146:	601a      	str	r2, [r3, #0]
    if (!IS_TIM_SLAVEMODE_TRIGGER_ENABLED(tmpsmcr))
 8003148:	e007      	b.n	800315a <HAL_TIM_PWM_Start_IT+0x1f6>
    }
  }
  else
  {
    __HAL_TIM_ENABLE(htim);
 800314a:	687b      	ldr	r3, [r7, #4]
 800314c:	681b      	ldr	r3, [r3, #0]
 800314e:	681a      	ldr	r2, [r3, #0]
 8003150:	687b      	ldr	r3, [r7, #4]
 8003152:	681b      	ldr	r3, [r3, #0]
 8003154:	f042 0201 	orr.w	r2, r2, #1
 8003158:	601a      	str	r2, [r3, #0]
  }

  /* Return function status */
  return HAL_OK;
 800315a:	2300      	movs	r3, #0
}
 800315c:	4618      	mov	r0, r3
 800315e:	3710      	adds	r7, #16
 8003160:	46bd      	mov	sp, r7
 8003162:	bd80      	pop	{r7, pc}
 8003164:	40010000 	.word	0x40010000
 8003168:	40010400 	.word	0x40010400
 800316c:	40000400 	.word	0x40000400
 8003170:	40000800 	.word	0x40000800
 8003174:	40000c00 	.word	0x40000c00
 8003178:	40014000 	.word	0x40014000
 800317c:	40001800 	.word	0x40001800

08003180 <HAL_TIM_IRQHandler>:
  * @brief  This function handles TIM interrupts requests.
  * @param  htim TIM  handle
  * @retval None
  */
void HAL_TIM_IRQHandler(TIM_HandleTypeDef *htim)
{
 8003180:	b580      	push	{r7, lr}
 8003182:	b082      	sub	sp, #8
 8003184:	af00      	add	r7, sp, #0
 8003186:	6078      	str	r0, [r7, #4]
  /* Capture compare 1 event */
  if (__HAL_TIM_GET_FLAG(htim, TIM_FLAG_CC1) != RESET)
 8003188:	687b      	ldr	r3, [r7, #4]
 800318a:	681b      	ldr	r3, [r3, #0]
 800318c:	691b      	ldr	r3, [r3, #16]
 800318e:	f003 0302 	and.w	r3, r3, #2
 8003192:	2b02      	cmp	r3, #2
 8003194:	d122      	bne.n	80031dc <HAL_TIM_IRQHandler+0x5c>
  {
    if (__HAL_TIM_GET_IT_SOURCE(htim, TIM_IT_CC1) != RESET)
 8003196:	687b      	ldr	r3, [r7, #4]
 8003198:	681b      	ldr	r3, [r3, #0]
 800319a:	68db      	ldr	r3, [r3, #12]
 800319c:	f003 0302 	and.w	r3, r3, #2
 80031a0:	2b02      	cmp	r3, #2
 80031a2:	d11b      	bne.n	80031dc <HAL_TIM_IRQHandler+0x5c>
    {
      {
        __HAL_TIM_CLEAR_IT(htim, TIM_IT_CC1);
 80031a4:	687b      	ldr	r3, [r7, #4]
 80031a6:	681b      	ldr	r3, [r3, #0]
 80031a8:	f06f 0202 	mvn.w	r2, #2
 80031ac:	611a      	str	r2, [r3, #16]
        htim->Channel = HAL_TIM_ACTIVE_CHANNEL_1;
 80031ae:	687b      	ldr	r3, [r7, #4]
 80031b0:	2201      	movs	r2, #1
 80031b2:	771a      	strb	r2, [r3, #28]

        /* Input capture event */
        if ((htim->Instance->CCMR1 & TIM_CCMR1_CC1S) != 0x00U)
 80031b4:	687b      	ldr	r3, [r7, #4]
 80031b6:	681b      	ldr	r3, [r3, #0]
 80031b8:	699b      	ldr	r3, [r3, #24]
 80031ba:	f003 0303 	and.w	r3, r3, #3
 80031be:	2b00      	cmp	r3, #0
 80031c0:	d003      	beq.n	80031ca <HAL_TIM_IRQHandler+0x4a>
        {
#if (USE_HAL_TIM_REGISTER_CALLBACKS == 1)
          htim->IC_CaptureCallback(htim);
#else
          HAL_TIM_IC_CaptureCallback(htim);
 80031c2:	6878      	ldr	r0, [r7, #4]
 80031c4:	f000 fa7a 	bl	80036bc <HAL_TIM_IC_CaptureCallback>
 80031c8:	e005      	b.n	80031d6 <HAL_TIM_IRQHandler+0x56>
        {
#if (USE_HAL_TIM_REGISTER_CALLBACKS == 1)
          htim->OC_DelayElapsedCallback(htim);
          htim->PWM_PulseFinishedCallback(htim);
#else
          HAL_TIM_OC_DelayElapsedCallback(htim);
 80031ca:	6878      	ldr	r0, [r7, #4]
 80031cc:	f000 fa6c 	bl	80036a8 <HAL_TIM_OC_DelayElapsedCallback>
          HAL_TIM_PWM_PulseFinishedCallback(htim);
 80031d0:	6878      	ldr	r0, [r7, #4]
 80031d2:	f000 fa7d 	bl	80036d0 <HAL_TIM_PWM_PulseFinishedCallback>
#endif /* USE_HAL_TIM_REGISTER_CALLBACKS */
        }
        htim->Channel = HAL_TIM_ACTIVE_CHANNEL_CLEARED;
 80031d6:	687b      	ldr	r3, [r7, #4]
 80031d8:	2200      	movs	r2, #0
 80031da:	771a      	strb	r2, [r3, #28]
      }
    }
  }
  /* Capture compare 2 event */
  if (__HAL_TIM_GET_FLAG(htim, TIM_FLAG_CC2) != RESET)
 80031dc:	687b      	ldr	r3, [r7, #4]
 80031de:	681b      	ldr	r3, [r3, #0]
 80031e0:	691b      	ldr	r3, [r3, #16]
 80031e2:	f003 0304 	and.w	r3, r3, #4
 80031e6:	2b04      	cmp	r3, #4
 80031e8:	d122      	bne.n	8003230 <HAL_TIM_IRQHandler+0xb0>
  {
    if (__HAL_TIM_GET_IT_SOURCE(htim, TIM_IT_CC2) != RESET)
 80031ea:	687b      	ldr	r3, [r7, #4]
 80031ec:	681b      	ldr	r3, [r3, #0]
 80031ee:	68db      	ldr	r3, [r3, #12]
 80031f0:	f003 0304 	and.w	r3, r3, #4
 80031f4:	2b04      	cmp	r3, #4
 80031f6:	d11b      	bne.n	8003230 <HAL_TIM_IRQHandler+0xb0>
    {
      __HAL_TIM_CLEAR_IT(htim, TIM_IT_CC2);
 80031f8:	687b      	ldr	r3, [r7, #4]
 80031fa:	681b      	ldr	r3, [r3, #0]
 80031fc:	f06f 0204 	mvn.w	r2, #4
 8003200:	611a      	str	r2, [r3, #16]
      htim->Channel = HAL_TIM_ACTIVE_CHANNEL_2;
 8003202:	687b      	ldr	r3, [r7, #4]
 8003204:	2202      	movs	r2, #2
 8003206:	771a      	strb	r2, [r3, #28]
      /* Input capture event */
      if ((htim->Instance->CCMR1 & TIM_CCMR1_CC2S) != 0x00U)
 8003208:	687b      	ldr	r3, [r7, #4]
 800320a:	681b      	ldr	r3, [r3, #0]
 800320c:	699b      	ldr	r3, [r3, #24]
 800320e:	f403 7340 	and.w	r3, r3, #768	; 0x300
 8003212:	2b00      	cmp	r3, #0
 8003214:	d003      	beq.n	800321e <HAL_TIM_IRQHandler+0x9e>
      {
#if (USE_HAL_TIM_REGISTER_CALLBACKS == 1)
        htim->IC_CaptureCallback(htim);
#else
        HAL_TIM_IC_CaptureCallback(htim);
 8003216:	6878      	ldr	r0, [r7, #4]
 8003218:	f000 fa50 	bl	80036bc <HAL_TIM_IC_CaptureCallback>
 800321c:	e005      	b.n	800322a <HAL_TIM_IRQHandler+0xaa>
      {
#if (USE_HAL_TIM_REGISTER_CALLBACKS == 1)
        htim->OC_DelayElapsedCallback(htim);
        htim->PWM_PulseFinishedCallback(htim);
#else
        HAL_TIM_OC_DelayElapsedCallback(htim);
 800321e:	6878      	ldr	r0, [r7, #4]
 8003220:	f000 fa42 	bl	80036a8 <HAL_TIM_OC_DelayElapsedCallback>
        HAL_TIM_PWM_PulseFinishedCallback(htim);
 8003224:	6878      	ldr	r0, [r7, #4]
 8003226:	f000 fa53 	bl	80036d0 <HAL_TIM_PWM_PulseFinishedCallback>
#endif /* USE_HAL_TIM_REGISTER_CALLBACKS */
      }
      htim->Channel = HAL_TIM_ACTIVE_CHANNEL_CLEARED;
 800322a:	687b      	ldr	r3, [r7, #4]
 800322c:	2200      	movs	r2, #0
 800322e:	771a      	strb	r2, [r3, #28]
    }
  }
  /* Capture compare 3 event */
  if (__HAL_TIM_GET_FLAG(htim, TIM_FLAG_CC3) != RESET)
 8003230:	687b      	ldr	r3, [r7, #4]
 8003232:	681b      	ldr	r3, [r3, #0]
 8003234:	691b      	ldr	r3, [r3, #16]
 8003236:	f003 0308 	and.w	r3, r3, #8
 800323a:	2b08      	cmp	r3, #8
 800323c:	d122      	bne.n	8003284 <HAL_TIM_IRQHandler+0x104>
  {
    if (__HAL_TIM_GET_IT_SOURCE(htim, TIM_IT_CC3) != RESET)
 800323e:	687b      	ldr	r3, [r7, #4]
 8003240:	681b      	ldr	r3, [r3, #0]
 8003242:	68db      	ldr	r3, [r3, #12]
 8003244:	f003 0308 	and.w	r3, r3, #8
 8003248:	2b08      	cmp	r3, #8
 800324a:	d11b      	bne.n	8003284 <HAL_TIM_IRQHandler+0x104>
    {
      __HAL_TIM_CLEAR_IT(htim, TIM_IT_CC3);
 800324c:	687b      	ldr	r3, [r7, #4]
 800324e:	681b      	ldr	r3, [r3, #0]
 8003250:	f06f 0208 	mvn.w	r2, #8
 8003254:	611a      	str	r2, [r3, #16]
      htim->Channel = HAL_TIM_ACTIVE_CHANNEL_3;
 8003256:	687b      	ldr	r3, [r7, #4]
 8003258:	2204      	movs	r2, #4
 800325a:	771a      	strb	r2, [r3, #28]
      /* Input capture event */
      if ((htim->Instance->CCMR2 & TIM_CCMR2_CC3S) != 0x00U)
 800325c:	687b      	ldr	r3, [r7, #4]
 800325e:	681b      	ldr	r3, [r3, #0]
 8003260:	69db      	ldr	r3, [r3, #28]
 8003262:	f003 0303 	and.w	r3, r3, #3
 8003266:	2b00      	cmp	r3, #0
 8003268:	d003      	beq.n	8003272 <HAL_TIM_IRQHandler+0xf2>
      {
#if (USE_HAL_TIM_REGISTER_CALLBACKS == 1)
        htim->IC_CaptureCallback(htim);
#else
        HAL_TIM_IC_CaptureCallback(htim);
 800326a:	6878      	ldr	r0, [r7, #4]
 800326c:	f000 fa26 	bl	80036bc <HAL_TIM_IC_CaptureCallback>
 8003270:	e005      	b.n	800327e <HAL_TIM_IRQHandler+0xfe>
      {
#if (USE_HAL_TIM_REGISTER_CALLBACKS == 1)
        htim->OC_DelayElapsedCallback(htim);
        htim->PWM_PulseFinishedCallback(htim);
#else
        HAL_TIM_OC_DelayElapsedCallback(htim);
 8003272:	6878      	ldr	r0, [r7, #4]
 8003274:	f000 fa18 	bl	80036a8 <HAL_TIM_OC_DelayElapsedCallback>
        HAL_TIM_PWM_PulseFinishedCallback(htim);
 8003278:	6878      	ldr	r0, [r7, #4]
 800327a:	f000 fa29 	bl	80036d0 <HAL_TIM_PWM_PulseFinishedCallback>
#endif /* USE_HAL_TIM_REGISTER_CALLBACKS */
      }
      htim->Channel = HAL_TIM_ACTIVE_CHANNEL_CLEARED;
 800327e:	687b      	ldr	r3, [r7, #4]
 8003280:	2200      	movs	r2, #0
 8003282:	771a      	strb	r2, [r3, #28]
    }
  }
  /* Capture compare 4 event */
  if (__HAL_TIM_GET_FLAG(htim, TIM_FLAG_CC4) != RESET)
 8003284:	687b      	ldr	r3, [r7, #4]
 8003286:	681b      	ldr	r3, [r3, #0]
 8003288:	691b      	ldr	r3, [r3, #16]
 800328a:	f003 0310 	and.w	r3, r3, #16
 800328e:	2b10      	cmp	r3, #16
 8003290:	d122      	bne.n	80032d8 <HAL_TIM_IRQHandler+0x158>
  {
    if (__HAL_TIM_GET_IT_SOURCE(htim, TIM_IT_CC4) != RESET)
 8003292:	687b      	ldr	r3, [r7, #4]
 8003294:	681b      	ldr	r3, [r3, #0]
 8003296:	68db      	ldr	r3, [r3, #12]
 8003298:	f003 0310 	and.w	r3, r3, #16
 800329c:	2b10      	cmp	r3, #16
 800329e:	d11b      	bne.n	80032d8 <HAL_TIM_IRQHandler+0x158>
    {
      __HAL_TIM_CLEAR_IT(htim, TIM_IT_CC4);
 80032a0:	687b      	ldr	r3, [r7, #4]
 80032a2:	681b      	ldr	r3, [r3, #0]
 80032a4:	f06f 0210 	mvn.w	r2, #16
 80032a8:	611a      	str	r2, [r3, #16]
      htim->Channel = HAL_TIM_ACTIVE_CHANNEL_4;
 80032aa:	687b      	ldr	r3, [r7, #4]
 80032ac:	2208      	movs	r2, #8
 80032ae:	771a      	strb	r2, [r3, #28]
      /* Input capture event */
      if ((htim->Instance->CCMR2 & TIM_CCMR2_CC4S) != 0x00U)
 80032b0:	687b      	ldr	r3, [r7, #4]
 80032b2:	681b      	ldr	r3, [r3, #0]
 80032b4:	69db      	ldr	r3, [r3, #28]
 80032b6:	f403 7340 	and.w	r3, r3, #768	; 0x300
 80032ba:	2b00      	cmp	r3, #0
 80032bc:	d003      	beq.n	80032c6 <HAL_TIM_IRQHandler+0x146>
      {
#if (USE_HAL_TIM_REGISTER_CALLBACKS == 1)
        htim->IC_CaptureCallback(htim);
#else
        HAL_TIM_IC_CaptureCallback(htim);
 80032be:	6878      	ldr	r0, [r7, #4]
 80032c0:	f000 f9fc 	bl	80036bc <HAL_TIM_IC_CaptureCallback>
 80032c4:	e005      	b.n	80032d2 <HAL_TIM_IRQHandler+0x152>
      {
#if (USE_HAL_TIM_REGISTER_CALLBACKS == 1)
        htim->OC_DelayElapsedCallback(htim);
        htim->PWM_PulseFinishedCallback(htim);
#else
        HAL_TIM_OC_DelayElapsedCallback(htim);
 80032c6:	6878      	ldr	r0, [r7, #4]
 80032c8:	f000 f9ee 	bl	80036a8 <HAL_TIM_OC_DelayElapsedCallback>
        HAL_TIM_PWM_PulseFinishedCallback(htim);
 80032cc:	6878      	ldr	r0, [r7, #4]
 80032ce:	f000 f9ff 	bl	80036d0 <HAL_TIM_PWM_PulseFinishedCallback>
#endif /* USE_HAL_TIM_REGISTER_CALLBACKS */
      }
      htim->Channel = HAL_TIM_ACTIVE_CHANNEL_CLEARED;
 80032d2:	687b      	ldr	r3, [r7, #4]
 80032d4:	2200      	movs	r2, #0
 80032d6:	771a      	strb	r2, [r3, #28]
    }
  }
  /* TIM Update event */
  if (__HAL_TIM_GET_FLAG(htim, TIM_FLAG_UPDATE) != RESET)
 80032d8:	687b      	ldr	r3, [r7, #4]
 80032da:	681b      	ldr	r3, [r3, #0]
 80032dc:	691b      	ldr	r3, [r3, #16]
 80032de:	f003 0301 	and.w	r3, r3, #1
 80032e2:	2b01      	cmp	r3, #1
 80032e4:	d10e      	bne.n	8003304 <HAL_TIM_IRQHandler+0x184>
  {
    if (__HAL_TIM_GET_IT_SOURCE(htim, TIM_IT_UPDATE) != RESET)
 80032e6:	687b      	ldr	r3, [r7, #4]
 80032e8:	681b      	ldr	r3, [r3, #0]
 80032ea:	68db      	ldr	r3, [r3, #12]
 80032ec:	f003 0301 	and.w	r3, r3, #1
 80032f0:	2b01      	cmp	r3, #1
 80032f2:	d107      	bne.n	8003304 <HAL_TIM_IRQHandler+0x184>
    {
      __HAL_TIM_CLEAR_IT(htim, TIM_IT_UPDATE);
 80032f4:	687b      	ldr	r3, [r7, #4]
 80032f6:	681b      	ldr	r3, [r3, #0]
 80032f8:	f06f 0201 	mvn.w	r2, #1
 80032fc:	611a      	str	r2, [r3, #16]
#if (USE_HAL_TIM_REGISTER_CALLBACKS == 1)
      htim->PeriodElapsedCallback(htim);
#else
      HAL_TIM_PeriodElapsedCallback(htim);
 80032fe:	6878      	ldr	r0, [r7, #4]
 8003300:	f000 f9c8 	bl	8003694 <HAL_TIM_PeriodElapsedCallback>
#endif /* USE_HAL_TIM_REGISTER_CALLBACKS */
    }
  }
  /* TIM Break input event */
  if (__HAL_TIM_GET_FLAG(htim, TIM_FLAG_BREAK) != RESET)
 8003304:	687b      	ldr	r3, [r7, #4]
 8003306:	681b      	ldr	r3, [r3, #0]
 8003308:	691b      	ldr	r3, [r3, #16]
 800330a:	f003 0380 	and.w	r3, r3, #128	; 0x80
 800330e:	2b80      	cmp	r3, #128	; 0x80
 8003310:	d10e      	bne.n	8003330 <HAL_TIM_IRQHandler+0x1b0>
  {
    if (__HAL_TIM_GET_IT_SOURCE(htim, TIM_IT_BREAK) != RESET)
 8003312:	687b      	ldr	r3, [r7, #4]
 8003314:	681b      	ldr	r3, [r3, #0]
 8003316:	68db      	ldr	r3, [r3, #12]
 8003318:	f003 0380 	and.w	r3, r3, #128	; 0x80
 800331c:	2b80      	cmp	r3, #128	; 0x80
 800331e:	d107      	bne.n	8003330 <HAL_TIM_IRQHandler+0x1b0>
    {
      __HAL_TIM_CLEAR_IT(htim, TIM_IT_BREAK);
 8003320:	687b      	ldr	r3, [r7, #4]
 8003322:	681b      	ldr	r3, [r3, #0]
 8003324:	f06f 0280 	mvn.w	r2, #128	; 0x80
 8003328:	611a      	str	r2, [r3, #16]
#if (USE_HAL_TIM_REGISTER_CALLBACKS == 1)
      htim->BreakCallback(htim);
#else
      HAL_TIMEx_BreakCallback(htim);
 800332a:	6878      	ldr	r0, [r7, #4]
 800332c:	f000 fd7a 	bl	8003e24 <HAL_TIMEx_BreakCallback>
#endif /* USE_HAL_TIM_REGISTER_CALLBACKS */
    }
  }
  /* TIM Trigger detection event */
  if (__HAL_TIM_GET_FLAG(htim, TIM_FLAG_TRIGGER) != RESET)
 8003330:	687b      	ldr	r3, [r7, #4]
 8003332:	681b      	ldr	r3, [r3, #0]
 8003334:	691b      	ldr	r3, [r3, #16]
 8003336:	f003 0340 	and.w	r3, r3, #64	; 0x40
 800333a:	2b40      	cmp	r3, #64	; 0x40
 800333c:	d10e      	bne.n	800335c <HAL_TIM_IRQHandler+0x1dc>
  {
    if (__HAL_TIM_GET_IT_SOURCE(htim, TIM_IT_TRIGGER) != RESET)
 800333e:	687b      	ldr	r3, [r7, #4]
 8003340:	681b      	ldr	r3, [r3, #0]
 8003342:	68db      	ldr	r3, [r3, #12]
 8003344:	f003 0340 	and.w	r3, r3, #64	; 0x40
 8003348:	2b40      	cmp	r3, #64	; 0x40
 800334a:	d107      	bne.n	800335c <HAL_TIM_IRQHandler+0x1dc>
    {
      __HAL_TIM_CLEAR_IT(htim, TIM_IT_TRIGGER);
 800334c:	687b      	ldr	r3, [r7, #4]
 800334e:	681b      	ldr	r3, [r3, #0]
 8003350:	f06f 0240 	mvn.w	r2, #64	; 0x40
 8003354:	611a      	str	r2, [r3, #16]
#if (USE_HAL_TIM_REGISTER_CALLBACKS == 1)
      htim->TriggerCallback(htim);
#else
      HAL_TIM_TriggerCallback(htim);
 8003356:	6878      	ldr	r0, [r7, #4]
 8003358:	f000 f9c4 	bl	80036e4 <HAL_TIM_TriggerCallback>
#endif /* USE_HAL_TIM_REGISTER_CALLBACKS */
    }
  }
  /* TIM commutation event */
  if (__HAL_TIM_GET_FLAG(htim, TIM_FLAG_COM) != RESET)
 800335c:	687b      	ldr	r3, [r7, #4]
 800335e:	681b      	ldr	r3, [r3, #0]
 8003360:	691b      	ldr	r3, [r3, #16]
 8003362:	f003 0320 	and.w	r3, r3, #32
 8003366:	2b20      	cmp	r3, #32
 8003368:	d10e      	bne.n	8003388 <HAL_TIM_IRQHandler+0x208>
  {
    if (__HAL_TIM_GET_IT_SOURCE(htim, TIM_IT_COM) != RESET)
 800336a:	687b      	ldr	r3, [r7, #4]
 800336c:	681b      	ldr	r3, [r3, #0]
 800336e:	68db      	ldr	r3, [r3, #12]
 8003370:	f003 0320 	and.w	r3, r3, #32
 8003374:	2b20      	cmp	r3, #32
 8003376:	d107      	bne.n	8003388 <HAL_TIM_IRQHandler+0x208>
    {
      __HAL_TIM_CLEAR_IT(htim, TIM_FLAG_COM);
 8003378:	687b      	ldr	r3, [r7, #4]
 800337a:	681b      	ldr	r3, [r3, #0]
 800337c:	f06f 0220 	mvn.w	r2, #32
 8003380:	611a      	str	r2, [r3, #16]
#if (USE_HAL_TIM_REGISTER_CALLBACKS == 1)
      htim->CommutationCallback(htim);
#else
      HAL_TIMEx_CommutCallback(htim);
 8003382:	6878      	ldr	r0, [r7, #4]
 8003384:	f000 fd44 	bl	8003e10 <HAL_TIMEx_CommutCallback>
#endif /* USE_HAL_TIM_REGISTER_CALLBACKS */
    }
  }
}
 8003388:	bf00      	nop
 800338a:	3708      	adds	r7, #8
 800338c:	46bd      	mov	sp, r7
 800338e:	bd80      	pop	{r7, pc}

08003390 <HAL_TIM_PWM_ConfigChannel>:
  * @retval HAL status
  */
HAL_StatusTypeDef HAL_TIM_PWM_ConfigChannel(TIM_HandleTypeDef *htim,
                                            TIM_OC_InitTypeDef *sConfig,
                                            uint32_t Channel)
{
 8003390:	b580      	push	{r7, lr}
 8003392:	b084      	sub	sp, #16
 8003394:	af00      	add	r7, sp, #0
 8003396:	60f8      	str	r0, [r7, #12]
 8003398:	60b9      	str	r1, [r7, #8]
 800339a:	607a      	str	r2, [r7, #4]
  assert_param(IS_TIM_PWM_MODE(sConfig->OCMode));
  assert_param(IS_TIM_OC_POLARITY(sConfig->OCPolarity));
  assert_param(IS_TIM_FAST_STATE(sConfig->OCFastMode));

  /* Process Locked */
  __HAL_LOCK(htim);
 800339c:	68fb      	ldr	r3, [r7, #12]
 800339e:	f893 303c 	ldrb.w	r3, [r3, #60]	; 0x3c
 80033a2:	2b01      	cmp	r3, #1
 80033a4:	d101      	bne.n	80033aa <HAL_TIM_PWM_ConfigChannel+0x1a>
 80033a6:	2302      	movs	r3, #2
 80033a8:	e0ac      	b.n	8003504 <HAL_TIM_PWM_ConfigChannel+0x174>
 80033aa:	68fb      	ldr	r3, [r7, #12]
 80033ac:	2201      	movs	r2, #1
 80033ae:	f883 203c 	strb.w	r2, [r3, #60]	; 0x3c
 80033b2:	687b      	ldr	r3, [r7, #4]
 80033b4:	2b0c      	cmp	r3, #12
 80033b6:	f200 809f 	bhi.w	80034f8 <HAL_TIM_PWM_ConfigChannel+0x168>
 80033ba:	a201      	add	r2, pc, #4	; (adr r2, 80033c0 <HAL_TIM_PWM_ConfigChannel+0x30>)
 80033bc:	f852 f023 	ldr.w	pc, [r2, r3, lsl #2]
 80033c0:	080033f5 	.word	0x080033f5
 80033c4:	080034f9 	.word	0x080034f9
 80033c8:	080034f9 	.word	0x080034f9
 80033cc:	080034f9 	.word	0x080034f9
 80033d0:	08003435 	.word	0x08003435
 80033d4:	080034f9 	.word	0x080034f9
 80033d8:	080034f9 	.word	0x080034f9
 80033dc:	080034f9 	.word	0x080034f9
 80033e0:	08003477 	.word	0x08003477
 80033e4:	080034f9 	.word	0x080034f9
 80033e8:	080034f9 	.word	0x080034f9
 80033ec:	080034f9 	.word	0x080034f9
 80033f0:	080034b7 	.word	0x080034b7
    {
      /* Check the parameters */
      assert_param(IS_TIM_CC1_INSTANCE(htim->Instance));

      /* Configure the Channel 1 in PWM mode */
      TIM_OC1_SetConfig(htim->Instance, sConfig);
 80033f4:	68fb      	ldr	r3, [r7, #12]
 80033f6:	681b      	ldr	r3, [r3, #0]
 80033f8:	68b9      	ldr	r1, [r7, #8]
 80033fa:	4618      	mov	r0, r3
 80033fc:	f000 fa1c 	bl	8003838 <TIM_OC1_SetConfig>

      /* Set the Preload enable bit for channel1 */
      htim->Instance->CCMR1 |= TIM_CCMR1_OC1PE;
 8003400:	68fb      	ldr	r3, [r7, #12]
 8003402:	681b      	ldr	r3, [r3, #0]
 8003404:	699a      	ldr	r2, [r3, #24]
 8003406:	68fb      	ldr	r3, [r7, #12]
 8003408:	681b      	ldr	r3, [r3, #0]
 800340a:	f042 0208 	orr.w	r2, r2, #8
 800340e:	619a      	str	r2, [r3, #24]

      /* Configure the Output Fast mode */
      htim->Instance->CCMR1 &= ~TIM_CCMR1_OC1FE;
 8003410:	68fb      	ldr	r3, [r7, #12]
 8003412:	681b      	ldr	r3, [r3, #0]
 8003414:	699a      	ldr	r2, [r3, #24]
 8003416:	68fb      	ldr	r3, [r7, #12]
 8003418:	681b      	ldr	r3, [r3, #0]
 800341a:	f022 0204 	bic.w	r2, r2, #4
 800341e:	619a      	str	r2, [r3, #24]
      htim->Instance->CCMR1 |= sConfig->OCFastMode;
 8003420:	68fb      	ldr	r3, [r7, #12]
 8003422:	681b      	ldr	r3, [r3, #0]
 8003424:	6999      	ldr	r1, [r3, #24]
 8003426:	68bb      	ldr	r3, [r7, #8]
 8003428:	691a      	ldr	r2, [r3, #16]
 800342a:	68fb      	ldr	r3, [r7, #12]
 800342c:	681b      	ldr	r3, [r3, #0]
 800342e:	430a      	orrs	r2, r1
 8003430:	619a      	str	r2, [r3, #24]
      break;
 8003432:	e062      	b.n	80034fa <HAL_TIM_PWM_ConfigChannel+0x16a>
    {
      /* Check the parameters */
      assert_param(IS_TIM_CC2_INSTANCE(htim->Instance));

      /* Configure the Channel 2 in PWM mode */
      TIM_OC2_SetConfig(htim->Instance, sConfig);
 8003434:	68fb      	ldr	r3, [r7, #12]
 8003436:	681b      	ldr	r3, [r3, #0]
 8003438:	68b9      	ldr	r1, [r7, #8]
 800343a:	4618      	mov	r0, r3
 800343c:	f000 fa6c 	bl	8003918 <TIM_OC2_SetConfig>

      /* Set the Preload enable bit for channel2 */
      htim->Instance->CCMR1 |= TIM_CCMR1_OC2PE;
 8003440:	68fb      	ldr	r3, [r7, #12]
 8003442:	681b      	ldr	r3, [r3, #0]
 8003444:	699a      	ldr	r2, [r3, #24]
 8003446:	68fb      	ldr	r3, [r7, #12]
 8003448:	681b      	ldr	r3, [r3, #0]
 800344a:	f442 6200 	orr.w	r2, r2, #2048	; 0x800
 800344e:	619a      	str	r2, [r3, #24]

      /* Configure the Output Fast mode */
      htim->Instance->CCMR1 &= ~TIM_CCMR1_OC2FE;
 8003450:	68fb      	ldr	r3, [r7, #12]
 8003452:	681b      	ldr	r3, [r3, #0]
 8003454:	699a      	ldr	r2, [r3, #24]
 8003456:	68fb      	ldr	r3, [r7, #12]
 8003458:	681b      	ldr	r3, [r3, #0]
 800345a:	f422 6280 	bic.w	r2, r2, #1024	; 0x400
 800345e:	619a      	str	r2, [r3, #24]
      htim->Instance->CCMR1 |= sConfig->OCFastMode << 8U;
 8003460:	68fb      	ldr	r3, [r7, #12]
 8003462:	681b      	ldr	r3, [r3, #0]
 8003464:	6999      	ldr	r1, [r3, #24]
 8003466:	68bb      	ldr	r3, [r7, #8]
 8003468:	691b      	ldr	r3, [r3, #16]
 800346a:	021a      	lsls	r2, r3, #8
 800346c:	68fb      	ldr	r3, [r7, #12]
 800346e:	681b      	ldr	r3, [r3, #0]
 8003470:	430a      	orrs	r2, r1
 8003472:	619a      	str	r2, [r3, #24]
      break;
 8003474:	e041      	b.n	80034fa <HAL_TIM_PWM_ConfigChannel+0x16a>
    {
      /* Check the parameters */
      assert_param(IS_TIM_CC3_INSTANCE(htim->Instance));

      /* Configure the Channel 3 in PWM mode */
      TIM_OC3_SetConfig(htim->Instance, sConfig);
 8003476:	68fb      	ldr	r3, [r7, #12]
 8003478:	681b      	ldr	r3, [r3, #0]
 800347a:	68b9      	ldr	r1, [r7, #8]
 800347c:	4618      	mov	r0, r3
 800347e:	f000 fac1 	bl	8003a04 <TIM_OC3_SetConfig>

      /* Set the Preload enable bit for channel3 */
      htim->Instance->CCMR2 |= TIM_CCMR2_OC3PE;
 8003482:	68fb      	ldr	r3, [r7, #12]
 8003484:	681b      	ldr	r3, [r3, #0]
 8003486:	69da      	ldr	r2, [r3, #28]
 8003488:	68fb      	ldr	r3, [r7, #12]
 800348a:	681b      	ldr	r3, [r3, #0]
 800348c:	f042 0208 	orr.w	r2, r2, #8
 8003490:	61da      	str	r2, [r3, #28]

      /* Configure the Output Fast mode */
      htim->Instance->CCMR2 &= ~TIM_CCMR2_OC3FE;
 8003492:	68fb      	ldr	r3, [r7, #12]
 8003494:	681b      	ldr	r3, [r3, #0]
 8003496:	69da      	ldr	r2, [r3, #28]
 8003498:	68fb      	ldr	r3, [r7, #12]
 800349a:	681b      	ldr	r3, [r3, #0]
 800349c:	f022 0204 	bic.w	r2, r2, #4
 80034a0:	61da      	str	r2, [r3, #28]
      htim->Instance->CCMR2 |= sConfig->OCFastMode;
 80034a2:	68fb      	ldr	r3, [r7, #12]
 80034a4:	681b      	ldr	r3, [r3, #0]
 80034a6:	69d9      	ldr	r1, [r3, #28]
 80034a8:	68bb      	ldr	r3, [r7, #8]
 80034aa:	691a      	ldr	r2, [r3, #16]
 80034ac:	68fb      	ldr	r3, [r7, #12]
 80034ae:	681b      	ldr	r3, [r3, #0]
 80034b0:	430a      	orrs	r2, r1
 80034b2:	61da      	str	r2, [r3, #28]
      break;
 80034b4:	e021      	b.n	80034fa <HAL_TIM_PWM_ConfigChannel+0x16a>
    {
      /* Check the parameters */
      assert_param(IS_TIM_CC4_INSTANCE(htim->Instance));

      /* Configure the Channel 4 in PWM mode */
      TIM_OC4_SetConfig(htim->Instance, sConfig);
 80034b6:	68fb      	ldr	r3, [r7, #12]
 80034b8:	681b      	ldr	r3, [r3, #0]
 80034ba:	68b9      	ldr	r1, [r7, #8]
 80034bc:	4618      	mov	r0, r3
 80034be:	f000 fb15 	bl	8003aec <TIM_OC4_SetConfig>

      /* Set the Preload enable bit for channel4 */
      htim->Instance->CCMR2 |= TIM_CCMR2_OC4PE;
 80034c2:	68fb      	ldr	r3, [r7, #12]
 80034c4:	681b      	ldr	r3, [r3, #0]
 80034c6:	69da      	ldr	r2, [r3, #28]
 80034c8:	68fb      	ldr	r3, [r7, #12]
 80034ca:	681b      	ldr	r3, [r3, #0]
 80034cc:	f442 6200 	orr.w	r2, r2, #2048	; 0x800
 80034d0:	61da      	str	r2, [r3, #28]

      /* Configure the Output Fast mode */
      htim->Instance->CCMR2 &= ~TIM_CCMR2_OC4FE;
 80034d2:	68fb      	ldr	r3, [r7, #12]
 80034d4:	681b      	ldr	r3, [r3, #0]
 80034d6:	69da      	ldr	r2, [r3, #28]
 80034d8:	68fb      	ldr	r3, [r7, #12]
 80034da:	681b      	ldr	r3, [r3, #0]
 80034dc:	f422 6280 	bic.w	r2, r2, #1024	; 0x400
 80034e0:	61da      	str	r2, [r3, #28]
      htim->Instance->CCMR2 |= sConfig->OCFastMode << 8U;
 80034e2:	68fb      	ldr	r3, [r7, #12]
 80034e4:	681b      	ldr	r3, [r3, #0]
 80034e6:	69d9      	ldr	r1, [r3, #28]
 80034e8:	68bb      	ldr	r3, [r7, #8]
 80034ea:	691b      	ldr	r3, [r3, #16]
 80034ec:	021a      	lsls	r2, r3, #8
 80034ee:	68fb      	ldr	r3, [r7, #12]
 80034f0:	681b      	ldr	r3, [r3, #0]
 80034f2:	430a      	orrs	r2, r1
 80034f4:	61da      	str	r2, [r3, #28]
      break;
 80034f6:	e000      	b.n	80034fa <HAL_TIM_PWM_ConfigChannel+0x16a>
    }

    default:
      break;
 80034f8:	bf00      	nop
  }

  __HAL_UNLOCK(htim);
 80034fa:	68fb      	ldr	r3, [r7, #12]
 80034fc:	2200      	movs	r2, #0
 80034fe:	f883 203c 	strb.w	r2, [r3, #60]	; 0x3c

  return HAL_OK;
 8003502:	2300      	movs	r3, #0
}
 8003504:	4618      	mov	r0, r3
 8003506:	3710      	adds	r7, #16
 8003508:	46bd      	mov	sp, r7
 800350a:	bd80      	pop	{r7, pc}

0800350c <HAL_TIM_ConfigClockSource>:
  * @param  sClockSourceConfig pointer to a TIM_ClockConfigTypeDef structure that
  *         contains the clock source information for the TIM peripheral.
  * @retval HAL status
  */
HAL_StatusTypeDef HAL_TIM_ConfigClockSource(TIM_HandleTypeDef *htim, TIM_ClockConfigTypeDef *sClockSourceConfig)
{
 800350c:	b580      	push	{r7, lr}
 800350e:	b084      	sub	sp, #16
 8003510:	af00      	add	r7, sp, #0
 8003512:	6078      	str	r0, [r7, #4]
 8003514:	6039      	str	r1, [r7, #0]
  uint32_t tmpsmcr;

  /* Process Locked */
  __HAL_LOCK(htim);
 8003516:	687b      	ldr	r3, [r7, #4]
 8003518:	f893 303c 	ldrb.w	r3, [r3, #60]	; 0x3c
 800351c:	2b01      	cmp	r3, #1
 800351e:	d101      	bne.n	8003524 <HAL_TIM_ConfigClockSource+0x18>
 8003520:	2302      	movs	r3, #2
 8003522:	e0b3      	b.n	800368c <HAL_TIM_ConfigClockSource+0x180>
 8003524:	687b      	ldr	r3, [r7, #4]
 8003526:	2201      	movs	r2, #1
 8003528:	f883 203c 	strb.w	r2, [r3, #60]	; 0x3c

  htim->State = HAL_TIM_STATE_BUSY;
 800352c:	687b      	ldr	r3, [r7, #4]
 800352e:	2202      	movs	r2, #2
 8003530:	f883 203d 	strb.w	r2, [r3, #61]	; 0x3d

  /* Check the parameters */
  assert_param(IS_TIM_CLOCKSOURCE(sClockSourceConfig->ClockSource));

  /* Reset the SMS, TS, ECE, ETPS and ETRF bits */
  tmpsmcr = htim->Instance->SMCR;
 8003534:	687b      	ldr	r3, [r7, #4]
 8003536:	681b      	ldr	r3, [r3, #0]
 8003538:	689b      	ldr	r3, [r3, #8]
 800353a:	60fb      	str	r3, [r7, #12]
  tmpsmcr &= ~(TIM_SMCR_SMS | TIM_SMCR_TS);
 800353c:	68fb      	ldr	r3, [r7, #12]
 800353e:	f023 0377 	bic.w	r3, r3, #119	; 0x77
 8003542:	60fb      	str	r3, [r7, #12]
  tmpsmcr &= ~(TIM_SMCR_ETF | TIM_SMCR_ETPS | TIM_SMCR_ECE | TIM_SMCR_ETP);
 8003544:	68fb      	ldr	r3, [r7, #12]
 8003546:	f423 437f 	bic.w	r3, r3, #65280	; 0xff00
 800354a:	60fb      	str	r3, [r7, #12]
  htim->Instance->SMCR = tmpsmcr;
 800354c:	687b      	ldr	r3, [r7, #4]
 800354e:	681b      	ldr	r3, [r3, #0]
 8003550:	68fa      	ldr	r2, [r7, #12]
 8003552:	609a      	str	r2, [r3, #8]

  switch (sClockSourceConfig->ClockSource)
 8003554:	683b      	ldr	r3, [r7, #0]
 8003556:	681b      	ldr	r3, [r3, #0]
 8003558:	f5b3 5f00 	cmp.w	r3, #8192	; 0x2000
 800355c:	d03e      	beq.n	80035dc <HAL_TIM_ConfigClockSource+0xd0>
 800355e:	f5b3 5f00 	cmp.w	r3, #8192	; 0x2000
 8003562:	f200 8087 	bhi.w	8003674 <HAL_TIM_ConfigClockSource+0x168>
 8003566:	f5b3 5f80 	cmp.w	r3, #4096	; 0x1000
 800356a:	f000 8085 	beq.w	8003678 <HAL_TIM_ConfigClockSource+0x16c>
 800356e:	f5b3 5f80 	cmp.w	r3, #4096	; 0x1000
 8003572:	d87f      	bhi.n	8003674 <HAL_TIM_ConfigClockSource+0x168>
 8003574:	2b70      	cmp	r3, #112	; 0x70
 8003576:	d01a      	beq.n	80035ae <HAL_TIM_ConfigClockSource+0xa2>
 8003578:	2b70      	cmp	r3, #112	; 0x70
 800357a:	d87b      	bhi.n	8003674 <HAL_TIM_ConfigClockSource+0x168>
 800357c:	2b60      	cmp	r3, #96	; 0x60
 800357e:	d050      	beq.n	8003622 <HAL_TIM_ConfigClockSource+0x116>
 8003580:	2b60      	cmp	r3, #96	; 0x60
 8003582:	d877      	bhi.n	8003674 <HAL_TIM_ConfigClockSource+0x168>
 8003584:	2b50      	cmp	r3, #80	; 0x50
 8003586:	d03c      	beq.n	8003602 <HAL_TIM_ConfigClockSource+0xf6>
 8003588:	2b50      	cmp	r3, #80	; 0x50
 800358a:	d873      	bhi.n	8003674 <HAL_TIM_ConfigClockSource+0x168>
 800358c:	2b40      	cmp	r3, #64	; 0x40
 800358e:	d058      	beq.n	8003642 <HAL_TIM_ConfigClockSource+0x136>
 8003590:	2b40      	cmp	r3, #64	; 0x40
 8003592:	d86f      	bhi.n	8003674 <HAL_TIM_ConfigClockSource+0x168>
 8003594:	2b30      	cmp	r3, #48	; 0x30
 8003596:	d064      	beq.n	8003662 <HAL_TIM_ConfigClockSource+0x156>
 8003598:	2b30      	cmp	r3, #48	; 0x30
 800359a:	d86b      	bhi.n	8003674 <HAL_TIM_ConfigClockSource+0x168>
 800359c:	2b20      	cmp	r3, #32
 800359e:	d060      	beq.n	8003662 <HAL_TIM_ConfigClockSource+0x156>
 80035a0:	2b20      	cmp	r3, #32
 80035a2:	d867      	bhi.n	8003674 <HAL_TIM_ConfigClockSource+0x168>
 80035a4:	2b00      	cmp	r3, #0
 80035a6:	d05c      	beq.n	8003662 <HAL_TIM_ConfigClockSource+0x156>
 80035a8:	2b10      	cmp	r3, #16
 80035aa:	d05a      	beq.n	8003662 <HAL_TIM_ConfigClockSource+0x156>
        TIM_ITRx_SetConfig(htim->Instance, sClockSourceConfig->ClockSource);
        break;
      }

    default:
      break;
 80035ac:	e062      	b.n	8003674 <HAL_TIM_ConfigClockSource+0x168>
      TIM_ETR_SetConfig(htim->Instance,
 80035ae:	687b      	ldr	r3, [r7, #4]
 80035b0:	6818      	ldr	r0, [r3, #0]
 80035b2:	683b      	ldr	r3, [r7, #0]
 80035b4:	6899      	ldr	r1, [r3, #8]
 80035b6:	683b      	ldr	r3, [r7, #0]
 80035b8:	685a      	ldr	r2, [r3, #4]
 80035ba:	683b      	ldr	r3, [r7, #0]
 80035bc:	68db      	ldr	r3, [r3, #12]
 80035be:	f000 fb65 	bl	8003c8c <TIM_ETR_SetConfig>
      tmpsmcr = htim->Instance->SMCR;
 80035c2:	687b      	ldr	r3, [r7, #4]
 80035c4:	681b      	ldr	r3, [r3, #0]
 80035c6:	689b      	ldr	r3, [r3, #8]
 80035c8:	60fb      	str	r3, [r7, #12]
      tmpsmcr |= (TIM_SLAVEMODE_EXTERNAL1 | TIM_CLOCKSOURCE_ETRMODE1);
 80035ca:	68fb      	ldr	r3, [r7, #12]
 80035cc:	f043 0377 	orr.w	r3, r3, #119	; 0x77
 80035d0:	60fb      	str	r3, [r7, #12]
      htim->Instance->SMCR = tmpsmcr;
 80035d2:	687b      	ldr	r3, [r7, #4]
 80035d4:	681b      	ldr	r3, [r3, #0]
 80035d6:	68fa      	ldr	r2, [r7, #12]
 80035d8:	609a      	str	r2, [r3, #8]
      break;
 80035da:	e04e      	b.n	800367a <HAL_TIM_ConfigClockSource+0x16e>
      TIM_ETR_SetConfig(htim->Instance,
 80035dc:	687b      	ldr	r3, [r7, #4]
 80035de:	6818      	ldr	r0, [r3, #0]
 80035e0:	683b      	ldr	r3, [r7, #0]
 80035e2:	6899      	ldr	r1, [r3, #8]
 80035e4:	683b      	ldr	r3, [r7, #0]
 80035e6:	685a      	ldr	r2, [r3, #4]
 80035e8:	683b      	ldr	r3, [r7, #0]
 80035ea:	68db      	ldr	r3, [r3, #12]
 80035ec:	f000 fb4e 	bl	8003c8c <TIM_ETR_SetConfig>
      htim->Instance->SMCR |= TIM_SMCR_ECE;
 80035f0:	687b      	ldr	r3, [r7, #4]
 80035f2:	681b      	ldr	r3, [r3, #0]
 80035f4:	689a      	ldr	r2, [r3, #8]
 80035f6:	687b      	ldr	r3, [r7, #4]
 80035f8:	681b      	ldr	r3, [r3, #0]
 80035fa:	f442 4280 	orr.w	r2, r2, #16384	; 0x4000
 80035fe:	609a      	str	r2, [r3, #8]
      break;
 8003600:	e03b      	b.n	800367a <HAL_TIM_ConfigClockSource+0x16e>
      TIM_TI1_ConfigInputStage(htim->Instance,
 8003602:	687b      	ldr	r3, [r7, #4]
 8003604:	6818      	ldr	r0, [r3, #0]
 8003606:	683b      	ldr	r3, [r7, #0]
 8003608:	6859      	ldr	r1, [r3, #4]
 800360a:	683b      	ldr	r3, [r7, #0]
 800360c:	68db      	ldr	r3, [r3, #12]
 800360e:	461a      	mov	r2, r3
 8003610:	f000 fac2 	bl	8003b98 <TIM_TI1_ConfigInputStage>
      TIM_ITRx_SetConfig(htim->Instance, TIM_CLOCKSOURCE_TI1);
 8003614:	687b      	ldr	r3, [r7, #4]
 8003616:	681b      	ldr	r3, [r3, #0]
 8003618:	2150      	movs	r1, #80	; 0x50
 800361a:	4618      	mov	r0, r3
 800361c:	f000 fb1b 	bl	8003c56 <TIM_ITRx_SetConfig>
      break;
 8003620:	e02b      	b.n	800367a <HAL_TIM_ConfigClockSource+0x16e>
      TIM_TI2_ConfigInputStage(htim->Instance,
 8003622:	687b      	ldr	r3, [r7, #4]
 8003624:	6818      	ldr	r0, [r3, #0]
 8003626:	683b      	ldr	r3, [r7, #0]
 8003628:	6859      	ldr	r1, [r3, #4]
 800362a:	683b      	ldr	r3, [r7, #0]
 800362c:	68db      	ldr	r3, [r3, #12]
 800362e:	461a      	mov	r2, r3
 8003630:	f000 fae1 	bl	8003bf6 <TIM_TI2_ConfigInputStage>
      TIM_ITRx_SetConfig(htim->Instance, TIM_CLOCKSOURCE_TI2);
 8003634:	687b      	ldr	r3, [r7, #4]
 8003636:	681b      	ldr	r3, [r3, #0]
 8003638:	2160      	movs	r1, #96	; 0x60
 800363a:	4618      	mov	r0, r3
 800363c:	f000 fb0b 	bl	8003c56 <TIM_ITRx_SetConfig>
      break;
 8003640:	e01b      	b.n	800367a <HAL_TIM_ConfigClockSource+0x16e>
      TIM_TI1_ConfigInputStage(htim->Instance,
 8003642:	687b      	ldr	r3, [r7, #4]
 8003644:	6818      	ldr	r0, [r3, #0]
 8003646:	683b      	ldr	r3, [r7, #0]
 8003648:	6859      	ldr	r1, [r3, #4]
 800364a:	683b      	ldr	r3, [r7, #0]
 800364c:	68db      	ldr	r3, [r3, #12]
 800364e:	461a      	mov	r2, r3
 8003650:	f000 faa2 	bl	8003b98 <TIM_TI1_ConfigInputStage>
      TIM_ITRx_SetConfig(htim->Instance, TIM_CLOCKSOURCE_TI1ED);
 8003654:	687b      	ldr	r3, [r7, #4]
 8003656:	681b      	ldr	r3, [r3, #0]
 8003658:	2140      	movs	r1, #64	; 0x40
 800365a:	4618      	mov	r0, r3
 800365c:	f000 fafb 	bl	8003c56 <TIM_ITRx_SetConfig>
      break;
 8003660:	e00b      	b.n	800367a <HAL_TIM_ConfigClockSource+0x16e>
        TIM_ITRx_SetConfig(htim->Instance, sClockSourceConfig->ClockSource);
 8003662:	687b      	ldr	r3, [r7, #4]
 8003664:	681a      	ldr	r2, [r3, #0]
 8003666:	683b      	ldr	r3, [r7, #0]
 8003668:	681b      	ldr	r3, [r3, #0]
 800366a:	4619      	mov	r1, r3
 800366c:	4610      	mov	r0, r2
 800366e:	f000 faf2 	bl	8003c56 <TIM_ITRx_SetConfig>
        break;
 8003672:	e002      	b.n	800367a <HAL_TIM_ConfigClockSource+0x16e>
      break;
 8003674:	bf00      	nop
 8003676:	e000      	b.n	800367a <HAL_TIM_ConfigClockSource+0x16e>
      break;
 8003678:	bf00      	nop
  }
  htim->State = HAL_TIM_STATE_READY;
 800367a:	687b      	ldr	r3, [r7, #4]
 800367c:	2201      	movs	r2, #1
 800367e:	f883 203d 	strb.w	r2, [r3, #61]	; 0x3d

  __HAL_UNLOCK(htim);
 8003682:	687b      	ldr	r3, [r7, #4]
 8003684:	2200      	movs	r2, #0
 8003686:	f883 203c 	strb.w	r2, [r3, #60]	; 0x3c

  return HAL_OK;
 800368a:	2300      	movs	r3, #0
}
 800368c:	4618      	mov	r0, r3
 800368e:	3710      	adds	r7, #16
 8003690:	46bd      	mov	sp, r7
 8003692:	bd80      	pop	{r7, pc}

08003694 <HAL_TIM_PeriodElapsedCallback>:
  * @brief  Period elapsed callback in non-blocking mode
  * @param  htim TIM handle
  * @retval None
  */
__weak void HAL_TIM_PeriodElapsedCallback(TIM_HandleTypeDef *htim)
{
 8003694:	b480      	push	{r7}
 8003696:	b083      	sub	sp, #12
 8003698:	af00      	add	r7, sp, #0
 800369a:	6078      	str	r0, [r7, #4]
  UNUSED(htim);

  /* NOTE : This function should not be modified, when the callback is needed,
            the HAL_TIM_PeriodElapsedCallback could be implemented in the user file
   */
}
 800369c:	bf00      	nop
 800369e:	370c      	adds	r7, #12
 80036a0:	46bd      	mov	sp, r7
 80036a2:	f85d 7b04 	ldr.w	r7, [sp], #4
 80036a6:	4770      	bx	lr

080036a8 <HAL_TIM_OC_DelayElapsedCallback>:
  * @brief  Output Compare callback in non-blocking mode
  * @param  htim TIM OC handle
  * @retval None
  */
__weak void HAL_TIM_OC_DelayElapsedCallback(TIM_HandleTypeDef *htim)
{
 80036a8:	b480      	push	{r7}
 80036aa:	b083      	sub	sp, #12
 80036ac:	af00      	add	r7, sp, #0
 80036ae:	6078      	str	r0, [r7, #4]
  UNUSED(htim);

  /* NOTE : This function should not be modified, when the callback is needed,
            the HAL_TIM_OC_DelayElapsedCallback could be implemented in the user file
   */
}
 80036b0:	bf00      	nop
 80036b2:	370c      	adds	r7, #12
 80036b4:	46bd      	mov	sp, r7
 80036b6:	f85d 7b04 	ldr.w	r7, [sp], #4
 80036ba:	4770      	bx	lr

080036bc <HAL_TIM_IC_CaptureCallback>:
  * @brief  Input Capture callback in non-blocking mode
  * @param  htim TIM IC handle
  * @retval None
  */
__weak void HAL_TIM_IC_CaptureCallback(TIM_HandleTypeDef *htim)
{
 80036bc:	b480      	push	{r7}
 80036be:	b083      	sub	sp, #12
 80036c0:	af00      	add	r7, sp, #0
 80036c2:	6078      	str	r0, [r7, #4]
  UNUSED(htim);

  /* NOTE : This function should not be modified, when the callback is needed,
            the HAL_TIM_IC_CaptureCallback could be implemented in the user file
   */
}
 80036c4:	bf00      	nop
 80036c6:	370c      	adds	r7, #12
 80036c8:	46bd      	mov	sp, r7
 80036ca:	f85d 7b04 	ldr.w	r7, [sp], #4
 80036ce:	4770      	bx	lr

080036d0 <HAL_TIM_PWM_PulseFinishedCallback>:
  * @brief  PWM Pulse finished callback in non-blocking mode
  * @param  htim TIM handle
  * @retval None
  */
__weak void HAL_TIM_PWM_PulseFinishedCallback(TIM_HandleTypeDef *htim)
{
 80036d0:	b480      	push	{r7}
 80036d2:	b083      	sub	sp, #12
 80036d4:	af00      	add	r7, sp, #0
 80036d6:	6078      	str	r0, [r7, #4]
  UNUSED(htim);

  /* NOTE : This function should not be modified, when the callback is needed,
            the HAL_TIM_PWM_PulseFinishedCallback could be implemented in the user file
   */
}
 80036d8:	bf00      	nop
 80036da:	370c      	adds	r7, #12
 80036dc:	46bd      	mov	sp, r7
 80036de:	f85d 7b04 	ldr.w	r7, [sp], #4
 80036e2:	4770      	bx	lr

080036e4 <HAL_TIM_TriggerCallback>:
  * @brief  Hall Trigger detection callback in non-blocking mode
  * @param  htim TIM handle
  * @retval None
  */
__weak void HAL_TIM_TriggerCallback(TIM_HandleTypeDef *htim)
{
 80036e4:	b480      	push	{r7}
 80036e6:	b083      	sub	sp, #12
 80036e8:	af00      	add	r7, sp, #0
 80036ea:	6078      	str	r0, [r7, #4]
  UNUSED(htim);

  /* NOTE : This function should not be modified, when the callback is needed,
            the HAL_TIM_TriggerCallback could be implemented in the user file
   */
}
 80036ec:	bf00      	nop
 80036ee:	370c      	adds	r7, #12
 80036f0:	46bd      	mov	sp, r7
 80036f2:	f85d 7b04 	ldr.w	r7, [sp], #4
 80036f6:	4770      	bx	lr

080036f8 <TIM_Base_SetConfig>:
  * @param  TIMx TIM peripheral
  * @param  Structure TIM Base configuration structure
  * @retval None
  */
void TIM_Base_SetConfig(TIM_TypeDef *TIMx, TIM_Base_InitTypeDef *Structure)
{
 80036f8:	b480      	push	{r7}
 80036fa:	b085      	sub	sp, #20
 80036fc:	af00      	add	r7, sp, #0
 80036fe:	6078      	str	r0, [r7, #4]
 8003700:	6039      	str	r1, [r7, #0]
  uint32_t tmpcr1;
  tmpcr1 = TIMx->CR1;
 8003702:	687b      	ldr	r3, [r7, #4]
 8003704:	681b      	ldr	r3, [r3, #0]
 8003706:	60fb      	str	r3, [r7, #12]

  /* Set TIM Time Base Unit parameters ---------------------------------------*/
  if (IS_TIM_COUNTER_MODE_SELECT_INSTANCE(TIMx))
 8003708:	687b      	ldr	r3, [r7, #4]
 800370a:	4a40      	ldr	r2, [pc, #256]	; (800380c <TIM_Base_SetConfig+0x114>)
 800370c:	4293      	cmp	r3, r2
 800370e:	d013      	beq.n	8003738 <TIM_Base_SetConfig+0x40>
 8003710:	687b      	ldr	r3, [r7, #4]
 8003712:	f1b3 4f80 	cmp.w	r3, #1073741824	; 0x40000000
 8003716:	d00f      	beq.n	8003738 <TIM_Base_SetConfig+0x40>
 8003718:	687b      	ldr	r3, [r7, #4]
 800371a:	4a3d      	ldr	r2, [pc, #244]	; (8003810 <TIM_Base_SetConfig+0x118>)
 800371c:	4293      	cmp	r3, r2
 800371e:	d00b      	beq.n	8003738 <TIM_Base_SetConfig+0x40>
 8003720:	687b      	ldr	r3, [r7, #4]
 8003722:	4a3c      	ldr	r2, [pc, #240]	; (8003814 <TIM_Base_SetConfig+0x11c>)
 8003724:	4293      	cmp	r3, r2
 8003726:	d007      	beq.n	8003738 <TIM_Base_SetConfig+0x40>
 8003728:	687b      	ldr	r3, [r7, #4]
 800372a:	4a3b      	ldr	r2, [pc, #236]	; (8003818 <TIM_Base_SetConfig+0x120>)
 800372c:	4293      	cmp	r3, r2
 800372e:	d003      	beq.n	8003738 <TIM_Base_SetConfig+0x40>
 8003730:	687b      	ldr	r3, [r7, #4]
 8003732:	4a3a      	ldr	r2, [pc, #232]	; (800381c <TIM_Base_SetConfig+0x124>)
 8003734:	4293      	cmp	r3, r2
 8003736:	d108      	bne.n	800374a <TIM_Base_SetConfig+0x52>
  {
    /* Select the Counter Mode */
    tmpcr1 &= ~(TIM_CR1_DIR | TIM_CR1_CMS);
 8003738:	68fb      	ldr	r3, [r7, #12]
 800373a:	f023 0370 	bic.w	r3, r3, #112	; 0x70
 800373e:	60fb      	str	r3, [r7, #12]
    tmpcr1 |= Structure->CounterMode;
 8003740:	683b      	ldr	r3, [r7, #0]
 8003742:	685b      	ldr	r3, [r3, #4]
 8003744:	68fa      	ldr	r2, [r7, #12]
 8003746:	4313      	orrs	r3, r2
 8003748:	60fb      	str	r3, [r7, #12]
  }

  if (IS_TIM_CLOCK_DIVISION_INSTANCE(TIMx))
 800374a:	687b      	ldr	r3, [r7, #4]
 800374c:	4a2f      	ldr	r2, [pc, #188]	; (800380c <TIM_Base_SetConfig+0x114>)
 800374e:	4293      	cmp	r3, r2
 8003750:	d02b      	beq.n	80037aa <TIM_Base_SetConfig+0xb2>
 8003752:	687b      	ldr	r3, [r7, #4]
 8003754:	f1b3 4f80 	cmp.w	r3, #1073741824	; 0x40000000
 8003758:	d027      	beq.n	80037aa <TIM_Base_SetConfig+0xb2>
 800375a:	687b      	ldr	r3, [r7, #4]
 800375c:	4a2c      	ldr	r2, [pc, #176]	; (8003810 <TIM_Base_SetConfig+0x118>)
 800375e:	4293      	cmp	r3, r2
 8003760:	d023      	beq.n	80037aa <TIM_Base_SetConfig+0xb2>
 8003762:	687b      	ldr	r3, [r7, #4]
 8003764:	4a2b      	ldr	r2, [pc, #172]	; (8003814 <TIM_Base_SetConfig+0x11c>)
 8003766:	4293      	cmp	r3, r2
 8003768:	d01f      	beq.n	80037aa <TIM_Base_SetConfig+0xb2>
 800376a:	687b      	ldr	r3, [r7, #4]
 800376c:	4a2a      	ldr	r2, [pc, #168]	; (8003818 <TIM_Base_SetConfig+0x120>)
 800376e:	4293      	cmp	r3, r2
 8003770:	d01b      	beq.n	80037aa <TIM_Base_SetConfig+0xb2>
 8003772:	687b      	ldr	r3, [r7, #4]
 8003774:	4a29      	ldr	r2, [pc, #164]	; (800381c <TIM_Base_SetConfig+0x124>)
 8003776:	4293      	cmp	r3, r2
 8003778:	d017      	beq.n	80037aa <TIM_Base_SetConfig+0xb2>
 800377a:	687b      	ldr	r3, [r7, #4]
 800377c:	4a28      	ldr	r2, [pc, #160]	; (8003820 <TIM_Base_SetConfig+0x128>)
 800377e:	4293      	cmp	r3, r2
 8003780:	d013      	beq.n	80037aa <TIM_Base_SetConfig+0xb2>
 8003782:	687b      	ldr	r3, [r7, #4]
 8003784:	4a27      	ldr	r2, [pc, #156]	; (8003824 <TIM_Base_SetConfig+0x12c>)
 8003786:	4293      	cmp	r3, r2
 8003788:	d00f      	beq.n	80037aa <TIM_Base_SetConfig+0xb2>
 800378a:	687b      	ldr	r3, [r7, #4]
 800378c:	4a26      	ldr	r2, [pc, #152]	; (8003828 <TIM_Base_SetConfig+0x130>)
 800378e:	4293      	cmp	r3, r2
 8003790:	d00b      	beq.n	80037aa <TIM_Base_SetConfig+0xb2>
 8003792:	687b      	ldr	r3, [r7, #4]
 8003794:	4a25      	ldr	r2, [pc, #148]	; (800382c <TIM_Base_SetConfig+0x134>)
 8003796:	4293      	cmp	r3, r2
 8003798:	d007      	beq.n	80037aa <TIM_Base_SetConfig+0xb2>
 800379a:	687b      	ldr	r3, [r7, #4]
 800379c:	4a24      	ldr	r2, [pc, #144]	; (8003830 <TIM_Base_SetConfig+0x138>)
 800379e:	4293      	cmp	r3, r2
 80037a0:	d003      	beq.n	80037aa <TIM_Base_SetConfig+0xb2>
 80037a2:	687b      	ldr	r3, [r7, #4]
 80037a4:	4a23      	ldr	r2, [pc, #140]	; (8003834 <TIM_Base_SetConfig+0x13c>)
 80037a6:	4293      	cmp	r3, r2
 80037a8:	d108      	bne.n	80037bc <TIM_Base_SetConfig+0xc4>
  {
    /* Set the clock division */
    tmpcr1 &= ~TIM_CR1_CKD;
 80037aa:	68fb      	ldr	r3, [r7, #12]
 80037ac:	f423 7340 	bic.w	r3, r3, #768	; 0x300
 80037b0:	60fb      	str	r3, [r7, #12]
    tmpcr1 |= (uint32_t)Structure->ClockDivision;
 80037b2:	683b      	ldr	r3, [r7, #0]
 80037b4:	68db      	ldr	r3, [r3, #12]
 80037b6:	68fa      	ldr	r2, [r7, #12]
 80037b8:	4313      	orrs	r3, r2
 80037ba:	60fb      	str	r3, [r7, #12]
  }

  /* Set the auto-reload preload */
  MODIFY_REG(tmpcr1, TIM_CR1_ARPE, Structure->AutoReloadPreload);
 80037bc:	68fb      	ldr	r3, [r7, #12]
 80037be:	f023 0280 	bic.w	r2, r3, #128	; 0x80
 80037c2:	683b      	ldr	r3, [r7, #0]
 80037c4:	695b      	ldr	r3, [r3, #20]
 80037c6:	4313      	orrs	r3, r2
 80037c8:	60fb      	str	r3, [r7, #12]

  TIMx->CR1 = tmpcr1;
 80037ca:	687b      	ldr	r3, [r7, #4]
 80037cc:	68fa      	ldr	r2, [r7, #12]
 80037ce:	601a      	str	r2, [r3, #0]

  /* Set the Autoreload value */
  TIMx->ARR = (uint32_t)Structure->Period ;
 80037d0:	683b      	ldr	r3, [r7, #0]
 80037d2:	689a      	ldr	r2, [r3, #8]
 80037d4:	687b      	ldr	r3, [r7, #4]
 80037d6:	62da      	str	r2, [r3, #44]	; 0x2c

  /* Set the Prescaler value */
  TIMx->PSC = Structure->Prescaler;
 80037d8:	683b      	ldr	r3, [r7, #0]
 80037da:	681a      	ldr	r2, [r3, #0]
 80037dc:	687b      	ldr	r3, [r7, #4]
 80037de:	629a      	str	r2, [r3, #40]	; 0x28

  if (IS_TIM_REPETITION_COUNTER_INSTANCE(TIMx))
 80037e0:	687b      	ldr	r3, [r7, #4]
 80037e2:	4a0a      	ldr	r2, [pc, #40]	; (800380c <TIM_Base_SetConfig+0x114>)
 80037e4:	4293      	cmp	r3, r2
 80037e6:	d003      	beq.n	80037f0 <TIM_Base_SetConfig+0xf8>
 80037e8:	687b      	ldr	r3, [r7, #4]
 80037ea:	4a0c      	ldr	r2, [pc, #48]	; (800381c <TIM_Base_SetConfig+0x124>)
 80037ec:	4293      	cmp	r3, r2
 80037ee:	d103      	bne.n	80037f8 <TIM_Base_SetConfig+0x100>
  {
    /* Set the Repetition Counter value */
    TIMx->RCR = Structure->RepetitionCounter;
 80037f0:	683b      	ldr	r3, [r7, #0]
 80037f2:	691a      	ldr	r2, [r3, #16]
 80037f4:	687b      	ldr	r3, [r7, #4]
 80037f6:	631a      	str	r2, [r3, #48]	; 0x30
  }

  /* Generate an update event to reload the Prescaler
     and the repetition counter (only for advanced timer) value immediately */
  TIMx->EGR = TIM_EGR_UG;
 80037f8:	687b      	ldr	r3, [r7, #4]
 80037fa:	2201      	movs	r2, #1
 80037fc:	615a      	str	r2, [r3, #20]
}
 80037fe:	bf00      	nop
 8003800:	3714      	adds	r7, #20
 8003802:	46bd      	mov	sp, r7
 8003804:	f85d 7b04 	ldr.w	r7, [sp], #4
 8003808:	4770      	bx	lr
 800380a:	bf00      	nop
 800380c:	40010000 	.word	0x40010000
 8003810:	40000400 	.word	0x40000400
 8003814:	40000800 	.word	0x40000800
 8003818:	40000c00 	.word	0x40000c00
 800381c:	40010400 	.word	0x40010400
 8003820:	40014000 	.word	0x40014000
 8003824:	40014400 	.word	0x40014400
 8003828:	40014800 	.word	0x40014800
 800382c:	40001800 	.word	0x40001800
 8003830:	40001c00 	.word	0x40001c00
 8003834:	40002000 	.word	0x40002000

08003838 <TIM_OC1_SetConfig>:
  * @param  TIMx to select the TIM peripheral
  * @param  OC_Config The output configuration structure
  * @retval None
  */
static void TIM_OC1_SetConfig(TIM_TypeDef *TIMx, TIM_OC_InitTypeDef *OC_Config)
{
 8003838:	b480      	push	{r7}
 800383a:	b087      	sub	sp, #28
 800383c:	af00      	add	r7, sp, #0
 800383e:	6078      	str	r0, [r7, #4]
 8003840:	6039      	str	r1, [r7, #0]
  uint32_t tmpccmrx;
  uint32_t tmpccer;
  uint32_t tmpcr2;

  /* Disable the Channel 1: Reset the CC1E Bit */
  TIMx->CCER &= ~TIM_CCER_CC1E;
 8003842:	687b      	ldr	r3, [r7, #4]
 8003844:	6a1b      	ldr	r3, [r3, #32]
 8003846:	f023 0201 	bic.w	r2, r3, #1
 800384a:	687b      	ldr	r3, [r7, #4]
 800384c:	621a      	str	r2, [r3, #32]

  /* Get the TIMx CCER register value */
  tmpccer = TIMx->CCER;
 800384e:	687b      	ldr	r3, [r7, #4]
 8003850:	6a1b      	ldr	r3, [r3, #32]
 8003852:	617b      	str	r3, [r7, #20]
  /* Get the TIMx CR2 register value */
  tmpcr2 =  TIMx->CR2;
 8003854:	687b      	ldr	r3, [r7, #4]
 8003856:	685b      	ldr	r3, [r3, #4]
 8003858:	613b      	str	r3, [r7, #16]

  /* Get the TIMx CCMR1 register value */
  tmpccmrx = TIMx->CCMR1;
 800385a:	687b      	ldr	r3, [r7, #4]
 800385c:	699b      	ldr	r3, [r3, #24]
 800385e:	60fb      	str	r3, [r7, #12]

  /* Reset the Output Compare Mode Bits */
  tmpccmrx &= ~TIM_CCMR1_OC1M;
 8003860:	68fb      	ldr	r3, [r7, #12]
 8003862:	f023 0370 	bic.w	r3, r3, #112	; 0x70
 8003866:	60fb      	str	r3, [r7, #12]
  tmpccmrx &= ~TIM_CCMR1_CC1S;
 8003868:	68fb      	ldr	r3, [r7, #12]
 800386a:	f023 0303 	bic.w	r3, r3, #3
 800386e:	60fb      	str	r3, [r7, #12]
  /* Select the Output Compare Mode */
  tmpccmrx |= OC_Config->OCMode;
 8003870:	683b      	ldr	r3, [r7, #0]
 8003872:	681b      	ldr	r3, [r3, #0]
 8003874:	68fa      	ldr	r2, [r7, #12]
 8003876:	4313      	orrs	r3, r2
 8003878:	60fb      	str	r3, [r7, #12]

  /* Reset the Output Polarity level */
  tmpccer &= ~TIM_CCER_CC1P;
 800387a:	697b      	ldr	r3, [r7, #20]
 800387c:	f023 0302 	bic.w	r3, r3, #2
 8003880:	617b      	str	r3, [r7, #20]
  /* Set the Output Compare Polarity */
  tmpccer |= OC_Config->OCPolarity;
 8003882:	683b      	ldr	r3, [r7, #0]
 8003884:	689b      	ldr	r3, [r3, #8]
 8003886:	697a      	ldr	r2, [r7, #20]
 8003888:	4313      	orrs	r3, r2
 800388a:	617b      	str	r3, [r7, #20]

  if (IS_TIM_CCXN_INSTANCE(TIMx, TIM_CHANNEL_1))
 800388c:	687b      	ldr	r3, [r7, #4]
 800388e:	4a20      	ldr	r2, [pc, #128]	; (8003910 <TIM_OC1_SetConfig+0xd8>)
 8003890:	4293      	cmp	r3, r2
 8003892:	d003      	beq.n	800389c <TIM_OC1_SetConfig+0x64>
 8003894:	687b      	ldr	r3, [r7, #4]
 8003896:	4a1f      	ldr	r2, [pc, #124]	; (8003914 <TIM_OC1_SetConfig+0xdc>)
 8003898:	4293      	cmp	r3, r2
 800389a:	d10c      	bne.n	80038b6 <TIM_OC1_SetConfig+0x7e>
  {
    /* Check parameters */
    assert_param(IS_TIM_OCN_POLARITY(OC_Config->OCNPolarity));

    /* Reset the Output N Polarity level */
    tmpccer &= ~TIM_CCER_CC1NP;
 800389c:	697b      	ldr	r3, [r7, #20]
 800389e:	f023 0308 	bic.w	r3, r3, #8
 80038a2:	617b      	str	r3, [r7, #20]
    /* Set the Output N Polarity */
    tmpccer |= OC_Config->OCNPolarity;
 80038a4:	683b      	ldr	r3, [r7, #0]
 80038a6:	68db      	ldr	r3, [r3, #12]
 80038a8:	697a      	ldr	r2, [r7, #20]
 80038aa:	4313      	orrs	r3, r2
 80038ac:	617b      	str	r3, [r7, #20]
    /* Reset the Output N State */
    tmpccer &= ~TIM_CCER_CC1NE;
 80038ae:	697b      	ldr	r3, [r7, #20]
 80038b0:	f023 0304 	bic.w	r3, r3, #4
 80038b4:	617b      	str	r3, [r7, #20]
  }

  if (IS_TIM_BREAK_INSTANCE(TIMx))
 80038b6:	687b      	ldr	r3, [r7, #4]
 80038b8:	4a15      	ldr	r2, [pc, #84]	; (8003910 <TIM_OC1_SetConfig+0xd8>)
 80038ba:	4293      	cmp	r3, r2
 80038bc:	d003      	beq.n	80038c6 <TIM_OC1_SetConfig+0x8e>
 80038be:	687b      	ldr	r3, [r7, #4]
 80038c0:	4a14      	ldr	r2, [pc, #80]	; (8003914 <TIM_OC1_SetConfig+0xdc>)
 80038c2:	4293      	cmp	r3, r2
 80038c4:	d111      	bne.n	80038ea <TIM_OC1_SetConfig+0xb2>
    /* Check parameters */
    assert_param(IS_TIM_OCNIDLE_STATE(OC_Config->OCNIdleState));
    assert_param(IS_TIM_OCIDLE_STATE(OC_Config->OCIdleState));

    /* Reset the Output Compare and Output Compare N IDLE State */
    tmpcr2 &= ~TIM_CR2_OIS1;
 80038c6:	693b      	ldr	r3, [r7, #16]
 80038c8:	f423 7380 	bic.w	r3, r3, #256	; 0x100
 80038cc:	613b      	str	r3, [r7, #16]
    tmpcr2 &= ~TIM_CR2_OIS1N;
 80038ce:	693b      	ldr	r3, [r7, #16]
 80038d0:	f423 7300 	bic.w	r3, r3, #512	; 0x200
 80038d4:	613b      	str	r3, [r7, #16]
    /* Set the Output Idle state */
    tmpcr2 |= OC_Config->OCIdleState;
 80038d6:	683b      	ldr	r3, [r7, #0]
 80038d8:	695b      	ldr	r3, [r3, #20]
 80038da:	693a      	ldr	r2, [r7, #16]
 80038dc:	4313      	orrs	r3, r2
 80038de:	613b      	str	r3, [r7, #16]
    /* Set the Output N Idle state */
    tmpcr2 |= OC_Config->OCNIdleState;
 80038e0:	683b      	ldr	r3, [r7, #0]
 80038e2:	699b      	ldr	r3, [r3, #24]
 80038e4:	693a      	ldr	r2, [r7, #16]
 80038e6:	4313      	orrs	r3, r2
 80038e8:	613b      	str	r3, [r7, #16]
  }

  /* Write to TIMx CR2 */
  TIMx->CR2 = tmpcr2;
 80038ea:	687b      	ldr	r3, [r7, #4]
 80038ec:	693a      	ldr	r2, [r7, #16]
 80038ee:	605a      	str	r2, [r3, #4]

  /* Write to TIMx CCMR1 */
  TIMx->CCMR1 = tmpccmrx;
 80038f0:	687b      	ldr	r3, [r7, #4]
 80038f2:	68fa      	ldr	r2, [r7, #12]
 80038f4:	619a      	str	r2, [r3, #24]

  /* Set the Capture Compare Register value */
  TIMx->CCR1 = OC_Config->Pulse;
 80038f6:	683b      	ldr	r3, [r7, #0]
 80038f8:	685a      	ldr	r2, [r3, #4]
 80038fa:	687b      	ldr	r3, [r7, #4]
 80038fc:	635a      	str	r2, [r3, #52]	; 0x34

  /* Write to TIMx CCER */
  TIMx->CCER = tmpccer;
 80038fe:	687b      	ldr	r3, [r7, #4]
 8003900:	697a      	ldr	r2, [r7, #20]
 8003902:	621a      	str	r2, [r3, #32]
}
 8003904:	bf00      	nop
 8003906:	371c      	adds	r7, #28
 8003908:	46bd      	mov	sp, r7
 800390a:	f85d 7b04 	ldr.w	r7, [sp], #4
 800390e:	4770      	bx	lr
 8003910:	40010000 	.word	0x40010000
 8003914:	40010400 	.word	0x40010400

08003918 <TIM_OC2_SetConfig>:
  * @param  TIMx to select the TIM peripheral
  * @param  OC_Config The output configuration structure
  * @retval None
  */
void TIM_OC2_SetConfig(TIM_TypeDef *TIMx, TIM_OC_InitTypeDef *OC_Config)
{
 8003918:	b480      	push	{r7}
 800391a:	b087      	sub	sp, #28
 800391c:	af00      	add	r7, sp, #0
 800391e:	6078      	str	r0, [r7, #4]
 8003920:	6039      	str	r1, [r7, #0]
  uint32_t tmpccmrx;
  uint32_t tmpccer;
  uint32_t tmpcr2;

  /* Disable the Channel 2: Reset the CC2E Bit */
  TIMx->CCER &= ~TIM_CCER_CC2E;
 8003922:	687b      	ldr	r3, [r7, #4]
 8003924:	6a1b      	ldr	r3, [r3, #32]
 8003926:	f023 0210 	bic.w	r2, r3, #16
 800392a:	687b      	ldr	r3, [r7, #4]
 800392c:	621a      	str	r2, [r3, #32]

  /* Get the TIMx CCER register value */
  tmpccer = TIMx->CCER;
 800392e:	687b      	ldr	r3, [r7, #4]
 8003930:	6a1b      	ldr	r3, [r3, #32]
 8003932:	617b      	str	r3, [r7, #20]
  /* Get the TIMx CR2 register value */
  tmpcr2 =  TIMx->CR2;
 8003934:	687b      	ldr	r3, [r7, #4]
 8003936:	685b      	ldr	r3, [r3, #4]
 8003938:	613b      	str	r3, [r7, #16]

  /* Get the TIMx CCMR1 register value */
  tmpccmrx = TIMx->CCMR1;
 800393a:	687b      	ldr	r3, [r7, #4]
 800393c:	699b      	ldr	r3, [r3, #24]
 800393e:	60fb      	str	r3, [r7, #12]

  /* Reset the Output Compare mode and Capture/Compare selection Bits */
  tmpccmrx &= ~TIM_CCMR1_OC2M;
 8003940:	68fb      	ldr	r3, [r7, #12]
 8003942:	f423 43e0 	bic.w	r3, r3, #28672	; 0x7000
 8003946:	60fb      	str	r3, [r7, #12]
  tmpccmrx &= ~TIM_CCMR1_CC2S;
 8003948:	68fb      	ldr	r3, [r7, #12]
 800394a:	f423 7340 	bic.w	r3, r3, #768	; 0x300
 800394e:	60fb      	str	r3, [r7, #12]

  /* Select the Output Compare Mode */
  tmpccmrx |= (OC_Config->OCMode << 8U);
 8003950:	683b      	ldr	r3, [r7, #0]
 8003952:	681b      	ldr	r3, [r3, #0]
 8003954:	021b      	lsls	r3, r3, #8
 8003956:	68fa      	ldr	r2, [r7, #12]
 8003958:	4313      	orrs	r3, r2
 800395a:	60fb      	str	r3, [r7, #12]

  /* Reset the Output Polarity level */
  tmpccer &= ~TIM_CCER_CC2P;
 800395c:	697b      	ldr	r3, [r7, #20]
 800395e:	f023 0320 	bic.w	r3, r3, #32
 8003962:	617b      	str	r3, [r7, #20]
  /* Set the Output Compare Polarity */
  tmpccer |= (OC_Config->OCPolarity << 4U);
 8003964:	683b      	ldr	r3, [r7, #0]
 8003966:	689b      	ldr	r3, [r3, #8]
 8003968:	011b      	lsls	r3, r3, #4
 800396a:	697a      	ldr	r2, [r7, #20]
 800396c:	4313      	orrs	r3, r2
 800396e:	617b      	str	r3, [r7, #20]

  if (IS_TIM_CCXN_INSTANCE(TIMx, TIM_CHANNEL_2))
 8003970:	687b      	ldr	r3, [r7, #4]
 8003972:	4a22      	ldr	r2, [pc, #136]	; (80039fc <TIM_OC2_SetConfig+0xe4>)
 8003974:	4293      	cmp	r3, r2
 8003976:	d003      	beq.n	8003980 <TIM_OC2_SetConfig+0x68>
 8003978:	687b      	ldr	r3, [r7, #4]
 800397a:	4a21      	ldr	r2, [pc, #132]	; (8003a00 <TIM_OC2_SetConfig+0xe8>)
 800397c:	4293      	cmp	r3, r2
 800397e:	d10d      	bne.n	800399c <TIM_OC2_SetConfig+0x84>
  {
    assert_param(IS_TIM_OCN_POLARITY(OC_Config->OCNPolarity));

    /* Reset the Output N Polarity level */
    tmpccer &= ~TIM_CCER_CC2NP;
 8003980:	697b      	ldr	r3, [r7, #20]
 8003982:	f023 0380 	bic.w	r3, r3, #128	; 0x80
 8003986:	617b      	str	r3, [r7, #20]
    /* Set the Output N Polarity */
    tmpccer |= (OC_Config->OCNPolarity << 4U);
 8003988:	683b      	ldr	r3, [r7, #0]
 800398a:	68db      	ldr	r3, [r3, #12]
 800398c:	011b      	lsls	r3, r3, #4
 800398e:	697a      	ldr	r2, [r7, #20]
 8003990:	4313      	orrs	r3, r2
 8003992:	617b      	str	r3, [r7, #20]
    /* Reset the Output N State */
    tmpccer &= ~TIM_CCER_CC2NE;
 8003994:	697b      	ldr	r3, [r7, #20]
 8003996:	f023 0340 	bic.w	r3, r3, #64	; 0x40
 800399a:	617b      	str	r3, [r7, #20]

  }

  if (IS_TIM_BREAK_INSTANCE(TIMx))
 800399c:	687b      	ldr	r3, [r7, #4]
 800399e:	4a17      	ldr	r2, [pc, #92]	; (80039fc <TIM_OC2_SetConfig+0xe4>)
 80039a0:	4293      	cmp	r3, r2
 80039a2:	d003      	beq.n	80039ac <TIM_OC2_SetConfig+0x94>
 80039a4:	687b      	ldr	r3, [r7, #4]
 80039a6:	4a16      	ldr	r2, [pc, #88]	; (8003a00 <TIM_OC2_SetConfig+0xe8>)
 80039a8:	4293      	cmp	r3, r2
 80039aa:	d113      	bne.n	80039d4 <TIM_OC2_SetConfig+0xbc>
    /* Check parameters */
    assert_param(IS_TIM_OCNIDLE_STATE(OC_Config->OCNIdleState));
    assert_param(IS_TIM_OCIDLE_STATE(OC_Config->OCIdleState));

    /* Reset the Output Compare and Output Compare N IDLE State */
    tmpcr2 &= ~TIM_CR2_OIS2;
 80039ac:	693b      	ldr	r3, [r7, #16]
 80039ae:	f423 6380 	bic.w	r3, r3, #1024	; 0x400
 80039b2:	613b      	str	r3, [r7, #16]
    tmpcr2 &= ~TIM_CR2_OIS2N;
 80039b4:	693b      	ldr	r3, [r7, #16]
 80039b6:	f423 6300 	bic.w	r3, r3, #2048	; 0x800
 80039ba:	613b      	str	r3, [r7, #16]
    /* Set the Output Idle state */
    tmpcr2 |= (OC_Config->OCIdleState << 2U);
 80039bc:	683b      	ldr	r3, [r7, #0]
 80039be:	695b      	ldr	r3, [r3, #20]
 80039c0:	009b      	lsls	r3, r3, #2
 80039c2:	693a      	ldr	r2, [r7, #16]
 80039c4:	4313      	orrs	r3, r2
 80039c6:	613b      	str	r3, [r7, #16]
    /* Set the Output N Idle state */
    tmpcr2 |= (OC_Config->OCNIdleState << 2U);
 80039c8:	683b      	ldr	r3, [r7, #0]
 80039ca:	699b      	ldr	r3, [r3, #24]
 80039cc:	009b      	lsls	r3, r3, #2
 80039ce:	693a      	ldr	r2, [r7, #16]
 80039d0:	4313      	orrs	r3, r2
 80039d2:	613b      	str	r3, [r7, #16]
  }

  /* Write to TIMx CR2 */
  TIMx->CR2 = tmpcr2;
 80039d4:	687b      	ldr	r3, [r7, #4]
 80039d6:	693a      	ldr	r2, [r7, #16]
 80039d8:	605a      	str	r2, [r3, #4]

  /* Write to TIMx CCMR1 */
  TIMx->CCMR1 = tmpccmrx;
 80039da:	687b      	ldr	r3, [r7, #4]
 80039dc:	68fa      	ldr	r2, [r7, #12]
 80039de:	619a      	str	r2, [r3, #24]

  /* Set the Capture Compare Register value */
  TIMx->CCR2 = OC_Config->Pulse;
 80039e0:	683b      	ldr	r3, [r7, #0]
 80039e2:	685a      	ldr	r2, [r3, #4]
 80039e4:	687b      	ldr	r3, [r7, #4]
 80039e6:	639a      	str	r2, [r3, #56]	; 0x38

  /* Write to TIMx CCER */
  TIMx->CCER = tmpccer;
 80039e8:	687b      	ldr	r3, [r7, #4]
 80039ea:	697a      	ldr	r2, [r7, #20]
 80039ec:	621a      	str	r2, [r3, #32]
}
 80039ee:	bf00      	nop
 80039f0:	371c      	adds	r7, #28
 80039f2:	46bd      	mov	sp, r7
 80039f4:	f85d 7b04 	ldr.w	r7, [sp], #4
 80039f8:	4770      	bx	lr
 80039fa:	bf00      	nop
 80039fc:	40010000 	.word	0x40010000
 8003a00:	40010400 	.word	0x40010400

08003a04 <TIM_OC3_SetConfig>:
  * @param  TIMx to select the TIM peripheral
  * @param  OC_Config The output configuration structure
  * @retval None
  */
static void TIM_OC3_SetConfig(TIM_TypeDef *TIMx, TIM_OC_InitTypeDef *OC_Config)
{
 8003a04:	b480      	push	{r7}
 8003a06:	b087      	sub	sp, #28
 8003a08:	af00      	add	r7, sp, #0
 8003a0a:	6078      	str	r0, [r7, #4]
 8003a0c:	6039      	str	r1, [r7, #0]
  uint32_t tmpccmrx;
  uint32_t tmpccer;
  uint32_t tmpcr2;

  /* Disable the Channel 3: Reset the CC2E Bit */
  TIMx->CCER &= ~TIM_CCER_CC3E;
 8003a0e:	687b      	ldr	r3, [r7, #4]
 8003a10:	6a1b      	ldr	r3, [r3, #32]
 8003a12:	f423 7280 	bic.w	r2, r3, #256	; 0x100
 8003a16:	687b      	ldr	r3, [r7, #4]
 8003a18:	621a      	str	r2, [r3, #32]

  /* Get the TIMx CCER register value */
  tmpccer = TIMx->CCER;
 8003a1a:	687b      	ldr	r3, [r7, #4]
 8003a1c:	6a1b      	ldr	r3, [r3, #32]
 8003a1e:	617b      	str	r3, [r7, #20]
  /* Get the TIMx CR2 register value */
  tmpcr2 =  TIMx->CR2;
 8003a20:	687b      	ldr	r3, [r7, #4]
 8003a22:	685b      	ldr	r3, [r3, #4]
 8003a24:	613b      	str	r3, [r7, #16]

  /* Get the TIMx CCMR2 register value */
  tmpccmrx = TIMx->CCMR2;
 8003a26:	687b      	ldr	r3, [r7, #4]
 8003a28:	69db      	ldr	r3, [r3, #28]
 8003a2a:	60fb      	str	r3, [r7, #12]

  /* Reset the Output Compare mode and Capture/Compare selection Bits */
  tmpccmrx &= ~TIM_CCMR2_OC3M;
 8003a2c:	68fb      	ldr	r3, [r7, #12]
 8003a2e:	f023 0370 	bic.w	r3, r3, #112	; 0x70
 8003a32:	60fb      	str	r3, [r7, #12]
  tmpccmrx &= ~TIM_CCMR2_CC3S;
 8003a34:	68fb      	ldr	r3, [r7, #12]
 8003a36:	f023 0303 	bic.w	r3, r3, #3
 8003a3a:	60fb      	str	r3, [r7, #12]
  /* Select the Output Compare Mode */
  tmpccmrx |= OC_Config->OCMode;
 8003a3c:	683b      	ldr	r3, [r7, #0]
 8003a3e:	681b      	ldr	r3, [r3, #0]
 8003a40:	68fa      	ldr	r2, [r7, #12]
 8003a42:	4313      	orrs	r3, r2
 8003a44:	60fb      	str	r3, [r7, #12]

  /* Reset the Output Polarity level */
  tmpccer &= ~TIM_CCER_CC3P;
 8003a46:	697b      	ldr	r3, [r7, #20]
 8003a48:	f423 7300 	bic.w	r3, r3, #512	; 0x200
 8003a4c:	617b      	str	r3, [r7, #20]
  /* Set the Output Compare Polarity */
  tmpccer |= (OC_Config->OCPolarity << 8U);
 8003a4e:	683b      	ldr	r3, [r7, #0]
 8003a50:	689b      	ldr	r3, [r3, #8]
 8003a52:	021b      	lsls	r3, r3, #8
 8003a54:	697a      	ldr	r2, [r7, #20]
 8003a56:	4313      	orrs	r3, r2
 8003a58:	617b      	str	r3, [r7, #20]

  if (IS_TIM_CCXN_INSTANCE(TIMx, TIM_CHANNEL_3))
 8003a5a:	687b      	ldr	r3, [r7, #4]
 8003a5c:	4a21      	ldr	r2, [pc, #132]	; (8003ae4 <TIM_OC3_SetConfig+0xe0>)
 8003a5e:	4293      	cmp	r3, r2
 8003a60:	d003      	beq.n	8003a6a <TIM_OC3_SetConfig+0x66>
 8003a62:	687b      	ldr	r3, [r7, #4]
 8003a64:	4a20      	ldr	r2, [pc, #128]	; (8003ae8 <TIM_OC3_SetConfig+0xe4>)
 8003a66:	4293      	cmp	r3, r2
 8003a68:	d10d      	bne.n	8003a86 <TIM_OC3_SetConfig+0x82>
  {
    assert_param(IS_TIM_OCN_POLARITY(OC_Config->OCNPolarity));

    /* Reset the Output N Polarity level */
    tmpccer &= ~TIM_CCER_CC3NP;
 8003a6a:	697b      	ldr	r3, [r7, #20]
 8003a6c:	f423 6300 	bic.w	r3, r3, #2048	; 0x800
 8003a70:	617b      	str	r3, [r7, #20]
    /* Set the Output N Polarity */
    tmpccer |= (OC_Config->OCNPolarity << 8U);
 8003a72:	683b      	ldr	r3, [r7, #0]
 8003a74:	68db      	ldr	r3, [r3, #12]
 8003a76:	021b      	lsls	r3, r3, #8
 8003a78:	697a      	ldr	r2, [r7, #20]
 8003a7a:	4313      	orrs	r3, r2
 8003a7c:	617b      	str	r3, [r7, #20]
    /* Reset the Output N State */
    tmpccer &= ~TIM_CCER_CC3NE;
 8003a7e:	697b      	ldr	r3, [r7, #20]
 8003a80:	f423 6380 	bic.w	r3, r3, #1024	; 0x400
 8003a84:	617b      	str	r3, [r7, #20]
  }

  if (IS_TIM_BREAK_INSTANCE(TIMx))
 8003a86:	687b      	ldr	r3, [r7, #4]
 8003a88:	4a16      	ldr	r2, [pc, #88]	; (8003ae4 <TIM_OC3_SetConfig+0xe0>)
 8003a8a:	4293      	cmp	r3, r2
 8003a8c:	d003      	beq.n	8003a96 <TIM_OC3_SetConfig+0x92>
 8003a8e:	687b      	ldr	r3, [r7, #4]
 8003a90:	4a15      	ldr	r2, [pc, #84]	; (8003ae8 <TIM_OC3_SetConfig+0xe4>)
 8003a92:	4293      	cmp	r3, r2
 8003a94:	d113      	bne.n	8003abe <TIM_OC3_SetConfig+0xba>
    /* Check parameters */
    assert_param(IS_TIM_OCNIDLE_STATE(OC_Config->OCNIdleState));
    assert_param(IS_TIM_OCIDLE_STATE(OC_Config->OCIdleState));

    /* Reset the Output Compare and Output Compare N IDLE State */
    tmpcr2 &= ~TIM_CR2_OIS3;
 8003a96:	693b      	ldr	r3, [r7, #16]
 8003a98:	f423 5380 	bic.w	r3, r3, #4096	; 0x1000
 8003a9c:	613b      	str	r3, [r7, #16]
    tmpcr2 &= ~TIM_CR2_OIS3N;
 8003a9e:	693b      	ldr	r3, [r7, #16]
 8003aa0:	f423 5300 	bic.w	r3, r3, #8192	; 0x2000
 8003aa4:	613b      	str	r3, [r7, #16]
    /* Set the Output Idle state */
    tmpcr2 |= (OC_Config->OCIdleState << 4U);
 8003aa6:	683b      	ldr	r3, [r7, #0]
 8003aa8:	695b      	ldr	r3, [r3, #20]
 8003aaa:	011b      	lsls	r3, r3, #4
 8003aac:	693a      	ldr	r2, [r7, #16]
 8003aae:	4313      	orrs	r3, r2
 8003ab0:	613b      	str	r3, [r7, #16]
    /* Set the Output N Idle state */
    tmpcr2 |= (OC_Config->OCNIdleState << 4U);
 8003ab2:	683b      	ldr	r3, [r7, #0]
 8003ab4:	699b      	ldr	r3, [r3, #24]
 8003ab6:	011b      	lsls	r3, r3, #4
 8003ab8:	693a      	ldr	r2, [r7, #16]
 8003aba:	4313      	orrs	r3, r2
 8003abc:	613b      	str	r3, [r7, #16]
  }

  /* Write to TIMx CR2 */
  TIMx->CR2 = tmpcr2;
 8003abe:	687b      	ldr	r3, [r7, #4]
 8003ac0:	693a      	ldr	r2, [r7, #16]
 8003ac2:	605a      	str	r2, [r3, #4]

  /* Write to TIMx CCMR2 */
  TIMx->CCMR2 = tmpccmrx;
 8003ac4:	687b      	ldr	r3, [r7, #4]
 8003ac6:	68fa      	ldr	r2, [r7, #12]
 8003ac8:	61da      	str	r2, [r3, #28]

  /* Set the Capture Compare Register value */
  TIMx->CCR3 = OC_Config->Pulse;
 8003aca:	683b      	ldr	r3, [r7, #0]
 8003acc:	685a      	ldr	r2, [r3, #4]
 8003ace:	687b      	ldr	r3, [r7, #4]
 8003ad0:	63da      	str	r2, [r3, #60]	; 0x3c

  /* Write to TIMx CCER */
  TIMx->CCER = tmpccer;
 8003ad2:	687b      	ldr	r3, [r7, #4]
 8003ad4:	697a      	ldr	r2, [r7, #20]
 8003ad6:	621a      	str	r2, [r3, #32]
}
 8003ad8:	bf00      	nop
 8003ada:	371c      	adds	r7, #28
 8003adc:	46bd      	mov	sp, r7
 8003ade:	f85d 7b04 	ldr.w	r7, [sp], #4
 8003ae2:	4770      	bx	lr
 8003ae4:	40010000 	.word	0x40010000
 8003ae8:	40010400 	.word	0x40010400

08003aec <TIM_OC4_SetConfig>:
  * @param  TIMx to select the TIM peripheral
  * @param  OC_Config The output configuration structure
  * @retval None
  */
static void TIM_OC4_SetConfig(TIM_TypeDef *TIMx, TIM_OC_InitTypeDef *OC_Config)
{
 8003aec:	b480      	push	{r7}
 8003aee:	b087      	sub	sp, #28
 8003af0:	af00      	add	r7, sp, #0
 8003af2:	6078      	str	r0, [r7, #4]
 8003af4:	6039      	str	r1, [r7, #0]
  uint32_t tmpccmrx;
  uint32_t tmpccer;
  uint32_t tmpcr2;

  /* Disable the Channel 4: Reset the CC4E Bit */
  TIMx->CCER &= ~TIM_CCER_CC4E;
 8003af6:	687b      	ldr	r3, [r7, #4]
 8003af8:	6a1b      	ldr	r3, [r3, #32]
 8003afa:	f423 5280 	bic.w	r2, r3, #4096	; 0x1000
 8003afe:	687b      	ldr	r3, [r7, #4]
 8003b00:	621a      	str	r2, [r3, #32]

  /* Get the TIMx CCER register value */
  tmpccer = TIMx->CCER;
 8003b02:	687b      	ldr	r3, [r7, #4]
 8003b04:	6a1b      	ldr	r3, [r3, #32]
 8003b06:	613b      	str	r3, [r7, #16]
  /* Get the TIMx CR2 register value */
  tmpcr2 =  TIMx->CR2;
 8003b08:	687b      	ldr	r3, [r7, #4]
 8003b0a:	685b      	ldr	r3, [r3, #4]
 8003b0c:	617b      	str	r3, [r7, #20]

  /* Get the TIMx CCMR2 register value */
  tmpccmrx = TIMx->CCMR2;
 8003b0e:	687b      	ldr	r3, [r7, #4]
 8003b10:	69db      	ldr	r3, [r3, #28]
 8003b12:	60fb      	str	r3, [r7, #12]

  /* Reset the Output Compare mode and Capture/Compare selection Bits */
  tmpccmrx &= ~TIM_CCMR2_OC4M;
 8003b14:	68fb      	ldr	r3, [r7, #12]
 8003b16:	f423 43e0 	bic.w	r3, r3, #28672	; 0x7000
 8003b1a:	60fb      	str	r3, [r7, #12]
  tmpccmrx &= ~TIM_CCMR2_CC4S;
 8003b1c:	68fb      	ldr	r3, [r7, #12]
 8003b1e:	f423 7340 	bic.w	r3, r3, #768	; 0x300
 8003b22:	60fb      	str	r3, [r7, #12]

  /* Select the Output Compare Mode */
  tmpccmrx |= (OC_Config->OCMode << 8U);
 8003b24:	683b      	ldr	r3, [r7, #0]
 8003b26:	681b      	ldr	r3, [r3, #0]
 8003b28:	021b      	lsls	r3, r3, #8
 8003b2a:	68fa      	ldr	r2, [r7, #12]
 8003b2c:	4313      	orrs	r3, r2
 8003b2e:	60fb      	str	r3, [r7, #12]

  /* Reset the Output Polarity level */
  tmpccer &= ~TIM_CCER_CC4P;
 8003b30:	693b      	ldr	r3, [r7, #16]
 8003b32:	f423 5300 	bic.w	r3, r3, #8192	; 0x2000
 8003b36:	613b      	str	r3, [r7, #16]
  /* Set the Output Compare Polarity */
  tmpccer |= (OC_Config->OCPolarity << 12U);
 8003b38:	683b      	ldr	r3, [r7, #0]
 8003b3a:	689b      	ldr	r3, [r3, #8]
 8003b3c:	031b      	lsls	r3, r3, #12
 8003b3e:	693a      	ldr	r2, [r7, #16]
 8003b40:	4313      	orrs	r3, r2
 8003b42:	613b      	str	r3, [r7, #16]

  if (IS_TIM_BREAK_INSTANCE(TIMx))
 8003b44:	687b      	ldr	r3, [r7, #4]
 8003b46:	4a12      	ldr	r2, [pc, #72]	; (8003b90 <TIM_OC4_SetConfig+0xa4>)
 8003b48:	4293      	cmp	r3, r2
 8003b4a:	d003      	beq.n	8003b54 <TIM_OC4_SetConfig+0x68>
 8003b4c:	687b      	ldr	r3, [r7, #4]
 8003b4e:	4a11      	ldr	r2, [pc, #68]	; (8003b94 <TIM_OC4_SetConfig+0xa8>)
 8003b50:	4293      	cmp	r3, r2
 8003b52:	d109      	bne.n	8003b68 <TIM_OC4_SetConfig+0x7c>
  {
    /* Check parameters */
    assert_param(IS_TIM_OCIDLE_STATE(OC_Config->OCIdleState));

    /* Reset the Output Compare IDLE State */
    tmpcr2 &= ~TIM_CR2_OIS4;
 8003b54:	697b      	ldr	r3, [r7, #20]
 8003b56:	f423 4380 	bic.w	r3, r3, #16384	; 0x4000
 8003b5a:	617b      	str	r3, [r7, #20]

    /* Set the Output Idle state */
    tmpcr2 |= (OC_Config->OCIdleState << 6U);
 8003b5c:	683b      	ldr	r3, [r7, #0]
 8003b5e:	695b      	ldr	r3, [r3, #20]
 8003b60:	019b      	lsls	r3, r3, #6
 8003b62:	697a      	ldr	r2, [r7, #20]
 8003b64:	4313      	orrs	r3, r2
 8003b66:	617b      	str	r3, [r7, #20]
  }

  /* Write to TIMx CR2 */
  TIMx->CR2 = tmpcr2;
 8003b68:	687b      	ldr	r3, [r7, #4]
 8003b6a:	697a      	ldr	r2, [r7, #20]
 8003b6c:	605a      	str	r2, [r3, #4]

  /* Write to TIMx CCMR2 */
  TIMx->CCMR2 = tmpccmrx;
 8003b6e:	687b      	ldr	r3, [r7, #4]
 8003b70:	68fa      	ldr	r2, [r7, #12]
 8003b72:	61da      	str	r2, [r3, #28]

  /* Set the Capture Compare Register value */
  TIMx->CCR4 = OC_Config->Pulse;
 8003b74:	683b      	ldr	r3, [r7, #0]
 8003b76:	685a      	ldr	r2, [r3, #4]
 8003b78:	687b      	ldr	r3, [r7, #4]
 8003b7a:	641a      	str	r2, [r3, #64]	; 0x40

  /* Write to TIMx CCER */
  TIMx->CCER = tmpccer;
 8003b7c:	687b      	ldr	r3, [r7, #4]
 8003b7e:	693a      	ldr	r2, [r7, #16]
 8003b80:	621a      	str	r2, [r3, #32]
}
 8003b82:	bf00      	nop
 8003b84:	371c      	adds	r7, #28
 8003b86:	46bd      	mov	sp, r7
 8003b88:	f85d 7b04 	ldr.w	r7, [sp], #4
 8003b8c:	4770      	bx	lr
 8003b8e:	bf00      	nop
 8003b90:	40010000 	.word	0x40010000
 8003b94:	40010400 	.word	0x40010400

08003b98 <TIM_TI1_ConfigInputStage>:
  * @param  TIM_ICFilter Specifies the Input Capture Filter.
  *          This parameter must be a value between 0x00 and 0x0F.
  * @retval None
  */
static void TIM_TI1_ConfigInputStage(TIM_TypeDef *TIMx, uint32_t TIM_ICPolarity, uint32_t TIM_ICFilter)
{
 8003b98:	b480      	push	{r7}
 8003b9a:	b087      	sub	sp, #28
 8003b9c:	af00      	add	r7, sp, #0
 8003b9e:	60f8      	str	r0, [r7, #12]
 8003ba0:	60b9      	str	r1, [r7, #8]
 8003ba2:	607a      	str	r2, [r7, #4]
  uint32_t tmpccmr1;
  uint32_t tmpccer;

  /* Disable the Channel 1: Reset the CC1E Bit */
  tmpccer = TIMx->CCER;
 8003ba4:	68fb      	ldr	r3, [r7, #12]
 8003ba6:	6a1b      	ldr	r3, [r3, #32]
 8003ba8:	617b      	str	r3, [r7, #20]
  TIMx->CCER &= ~TIM_CCER_CC1E;
 8003baa:	68fb      	ldr	r3, [r7, #12]
 8003bac:	6a1b      	ldr	r3, [r3, #32]
 8003bae:	f023 0201 	bic.w	r2, r3, #1
 8003bb2:	68fb      	ldr	r3, [r7, #12]
 8003bb4:	621a      	str	r2, [r3, #32]
  tmpccmr1 = TIMx->CCMR1;
 8003bb6:	68fb      	ldr	r3, [r7, #12]
 8003bb8:	699b      	ldr	r3, [r3, #24]
 8003bba:	613b      	str	r3, [r7, #16]

  /* Set the filter */
  tmpccmr1 &= ~TIM_CCMR1_IC1F;
 8003bbc:	693b      	ldr	r3, [r7, #16]
 8003bbe:	f023 03f0 	bic.w	r3, r3, #240	; 0xf0
 8003bc2:	613b      	str	r3, [r7, #16]
  tmpccmr1 |= (TIM_ICFilter << 4U);
 8003bc4:	687b      	ldr	r3, [r7, #4]
 8003bc6:	011b      	lsls	r3, r3, #4
 8003bc8:	693a      	ldr	r2, [r7, #16]
 8003bca:	4313      	orrs	r3, r2
 8003bcc:	613b      	str	r3, [r7, #16]

  /* Select the Polarity and set the CC1E Bit */
  tmpccer &= ~(TIM_CCER_CC1P | TIM_CCER_CC1NP);
 8003bce:	697b      	ldr	r3, [r7, #20]
 8003bd0:	f023 030a 	bic.w	r3, r3, #10
 8003bd4:	617b      	str	r3, [r7, #20]
  tmpccer |= TIM_ICPolarity;
 8003bd6:	697a      	ldr	r2, [r7, #20]
 8003bd8:	68bb      	ldr	r3, [r7, #8]
 8003bda:	4313      	orrs	r3, r2
 8003bdc:	617b      	str	r3, [r7, #20]

  /* Write to TIMx CCMR1 and CCER registers */
  TIMx->CCMR1 = tmpccmr1;
 8003bde:	68fb      	ldr	r3, [r7, #12]
 8003be0:	693a      	ldr	r2, [r7, #16]
 8003be2:	619a      	str	r2, [r3, #24]
  TIMx->CCER = tmpccer;
 8003be4:	68fb      	ldr	r3, [r7, #12]
 8003be6:	697a      	ldr	r2, [r7, #20]
 8003be8:	621a      	str	r2, [r3, #32]
}
 8003bea:	bf00      	nop
 8003bec:	371c      	adds	r7, #28
 8003bee:	46bd      	mov	sp, r7
 8003bf0:	f85d 7b04 	ldr.w	r7, [sp], #4
 8003bf4:	4770      	bx	lr

08003bf6 <TIM_TI2_ConfigInputStage>:
  * @param  TIM_ICFilter Specifies the Input Capture Filter.
  *          This parameter must be a value between 0x00 and 0x0F.
  * @retval None
  */
static void TIM_TI2_ConfigInputStage(TIM_TypeDef *TIMx, uint32_t TIM_ICPolarity, uint32_t TIM_ICFilter)
{
 8003bf6:	b480      	push	{r7}
 8003bf8:	b087      	sub	sp, #28
 8003bfa:	af00      	add	r7, sp, #0
 8003bfc:	60f8      	str	r0, [r7, #12]
 8003bfe:	60b9      	str	r1, [r7, #8]
 8003c00:	607a      	str	r2, [r7, #4]
  uint32_t tmpccmr1;
  uint32_t tmpccer;

  /* Disable the Channel 2: Reset the CC2E Bit */
  TIMx->CCER &= ~TIM_CCER_CC2E;
 8003c02:	68fb      	ldr	r3, [r7, #12]
 8003c04:	6a1b      	ldr	r3, [r3, #32]
 8003c06:	f023 0210 	bic.w	r2, r3, #16
 8003c0a:	68fb      	ldr	r3, [r7, #12]
 8003c0c:	621a      	str	r2, [r3, #32]
  tmpccmr1 = TIMx->CCMR1;
 8003c0e:	68fb      	ldr	r3, [r7, #12]
 8003c10:	699b      	ldr	r3, [r3, #24]
 8003c12:	617b      	str	r3, [r7, #20]
  tmpccer = TIMx->CCER;
 8003c14:	68fb      	ldr	r3, [r7, #12]
 8003c16:	6a1b      	ldr	r3, [r3, #32]
 8003c18:	613b      	str	r3, [r7, #16]

  /* Set the filter */
  tmpccmr1 &= ~TIM_CCMR1_IC2F;
 8003c1a:	697b      	ldr	r3, [r7, #20]
 8003c1c:	f423 4370 	bic.w	r3, r3, #61440	; 0xf000
 8003c20:	617b      	str	r3, [r7, #20]
  tmpccmr1 |= (TIM_ICFilter << 12U);
 8003c22:	687b      	ldr	r3, [r7, #4]
 8003c24:	031b      	lsls	r3, r3, #12
 8003c26:	697a      	ldr	r2, [r7, #20]
 8003c28:	4313      	orrs	r3, r2
 8003c2a:	617b      	str	r3, [r7, #20]

  /* Select the Polarity and set the CC2E Bit */
  tmpccer &= ~(TIM_CCER_CC2P | TIM_CCER_CC2NP);
 8003c2c:	693b      	ldr	r3, [r7, #16]
 8003c2e:	f023 03a0 	bic.w	r3, r3, #160	; 0xa0
 8003c32:	613b      	str	r3, [r7, #16]
  tmpccer |= (TIM_ICPolarity << 4U);
 8003c34:	68bb      	ldr	r3, [r7, #8]
 8003c36:	011b      	lsls	r3, r3, #4
 8003c38:	693a      	ldr	r2, [r7, #16]
 8003c3a:	4313      	orrs	r3, r2
 8003c3c:	613b      	str	r3, [r7, #16]

  /* Write to TIMx CCMR1 and CCER registers */
  TIMx->CCMR1 = tmpccmr1 ;
 8003c3e:	68fb      	ldr	r3, [r7, #12]
 8003c40:	697a      	ldr	r2, [r7, #20]
 8003c42:	619a      	str	r2, [r3, #24]
  TIMx->CCER = tmpccer;
 8003c44:	68fb      	ldr	r3, [r7, #12]
 8003c46:	693a      	ldr	r2, [r7, #16]
 8003c48:	621a      	str	r2, [r3, #32]
}
 8003c4a:	bf00      	nop
 8003c4c:	371c      	adds	r7, #28
 8003c4e:	46bd      	mov	sp, r7
 8003c50:	f85d 7b04 	ldr.w	r7, [sp], #4
 8003c54:	4770      	bx	lr

08003c56 <TIM_ITRx_SetConfig>:
  *            @arg TIM_TS_TI2FP2: Filtered Timer Input 2
  *            @arg TIM_TS_ETRF: External Trigger input
  * @retval None
  */
static void TIM_ITRx_SetConfig(TIM_TypeDef *TIMx, uint32_t InputTriggerSource)
{
 8003c56:	b480      	push	{r7}
 8003c58:	b085      	sub	sp, #20
 8003c5a:	af00      	add	r7, sp, #0
 8003c5c:	6078      	str	r0, [r7, #4]
 8003c5e:	6039      	str	r1, [r7, #0]
  uint32_t tmpsmcr;

  /* Get the TIMx SMCR register value */
  tmpsmcr = TIMx->SMCR;
 8003c60:	687b      	ldr	r3, [r7, #4]
 8003c62:	689b      	ldr	r3, [r3, #8]
 8003c64:	60fb      	str	r3, [r7, #12]
  /* Reset the TS Bits */
  tmpsmcr &= ~TIM_SMCR_TS;
 8003c66:	68fb      	ldr	r3, [r7, #12]
 8003c68:	f023 0370 	bic.w	r3, r3, #112	; 0x70
 8003c6c:	60fb      	str	r3, [r7, #12]
  /* Set the Input Trigger source and the slave mode*/
  tmpsmcr |= (InputTriggerSource | TIM_SLAVEMODE_EXTERNAL1);
 8003c6e:	683a      	ldr	r2, [r7, #0]
 8003c70:	68fb      	ldr	r3, [r7, #12]
 8003c72:	4313      	orrs	r3, r2
 8003c74:	f043 0307 	orr.w	r3, r3, #7
 8003c78:	60fb      	str	r3, [r7, #12]
  /* Write to TIMx SMCR */
  TIMx->SMCR = tmpsmcr;
 8003c7a:	687b      	ldr	r3, [r7, #4]
 8003c7c:	68fa      	ldr	r2, [r7, #12]
 8003c7e:	609a      	str	r2, [r3, #8]
}
 8003c80:	bf00      	nop
 8003c82:	3714      	adds	r7, #20
 8003c84:	46bd      	mov	sp, r7
 8003c86:	f85d 7b04 	ldr.w	r7, [sp], #4
 8003c8a:	4770      	bx	lr

08003c8c <TIM_ETR_SetConfig>:
  *          This parameter must be a value between 0x00 and 0x0F
  * @retval None
  */
void TIM_ETR_SetConfig(TIM_TypeDef *TIMx, uint32_t TIM_ExtTRGPrescaler,
                       uint32_t TIM_ExtTRGPolarity, uint32_t ExtTRGFilter)
{
 8003c8c:	b480      	push	{r7}
 8003c8e:	b087      	sub	sp, #28
 8003c90:	af00      	add	r7, sp, #0
 8003c92:	60f8      	str	r0, [r7, #12]
 8003c94:	60b9      	str	r1, [r7, #8]
 8003c96:	607a      	str	r2, [r7, #4]
 8003c98:	603b      	str	r3, [r7, #0]
  uint32_t tmpsmcr;

  tmpsmcr = TIMx->SMCR;
 8003c9a:	68fb      	ldr	r3, [r7, #12]
 8003c9c:	689b      	ldr	r3, [r3, #8]
 8003c9e:	617b      	str	r3, [r7, #20]

  /* Reset the ETR Bits */
  tmpsmcr &= ~(TIM_SMCR_ETF | TIM_SMCR_ETPS | TIM_SMCR_ECE | TIM_SMCR_ETP);
 8003ca0:	697b      	ldr	r3, [r7, #20]
 8003ca2:	f423 437f 	bic.w	r3, r3, #65280	; 0xff00
 8003ca6:	617b      	str	r3, [r7, #20]

  /* Set the Prescaler, the Filter value and the Polarity */
  tmpsmcr |= (uint32_t)(TIM_ExtTRGPrescaler | (TIM_ExtTRGPolarity | (ExtTRGFilter << 8U)));
 8003ca8:	683b      	ldr	r3, [r7, #0]
 8003caa:	021a      	lsls	r2, r3, #8
 8003cac:	687b      	ldr	r3, [r7, #4]
 8003cae:	431a      	orrs	r2, r3
 8003cb0:	68bb      	ldr	r3, [r7, #8]
 8003cb2:	4313      	orrs	r3, r2
 8003cb4:	697a      	ldr	r2, [r7, #20]
 8003cb6:	4313      	orrs	r3, r2
 8003cb8:	617b      	str	r3, [r7, #20]

  /* Write to TIMx SMCR */
  TIMx->SMCR = tmpsmcr;
 8003cba:	68fb      	ldr	r3, [r7, #12]
 8003cbc:	697a      	ldr	r2, [r7, #20]
 8003cbe:	609a      	str	r2, [r3, #8]
}
 8003cc0:	bf00      	nop
 8003cc2:	371c      	adds	r7, #28
 8003cc4:	46bd      	mov	sp, r7
 8003cc6:	f85d 7b04 	ldr.w	r7, [sp], #4
 8003cca:	4770      	bx	lr

08003ccc <TIM_CCxChannelCmd>:
  * @param  ChannelState specifies the TIM Channel CCxE bit new state.
  *          This parameter can be: TIM_CCx_ENABLE or TIM_CCx_DISABLE.
  * @retval None
  */
void TIM_CCxChannelCmd(TIM_TypeDef *TIMx, uint32_t Channel, uint32_t ChannelState)
{
 8003ccc:	b480      	push	{r7}
 8003cce:	b087      	sub	sp, #28
 8003cd0:	af00      	add	r7, sp, #0
 8003cd2:	60f8      	str	r0, [r7, #12]
 8003cd4:	60b9      	str	r1, [r7, #8]
 8003cd6:	607a      	str	r2, [r7, #4]

  /* Check the parameters */
  assert_param(IS_TIM_CC1_INSTANCE(TIMx));
  assert_param(IS_TIM_CHANNELS(Channel));

  tmp = TIM_CCER_CC1E << (Channel & 0x1FU); /* 0x1FU = 31 bits max shift */
 8003cd8:	68bb      	ldr	r3, [r7, #8]
 8003cda:	f003 031f 	and.w	r3, r3, #31
 8003cde:	2201      	movs	r2, #1
 8003ce0:	fa02 f303 	lsl.w	r3, r2, r3
 8003ce4:	617b      	str	r3, [r7, #20]

  /* Reset the CCxE Bit */
  TIMx->CCER &= ~tmp;
 8003ce6:	68fb      	ldr	r3, [r7, #12]
 8003ce8:	6a1a      	ldr	r2, [r3, #32]
 8003cea:	697b      	ldr	r3, [r7, #20]
 8003cec:	43db      	mvns	r3, r3
 8003cee:	401a      	ands	r2, r3
 8003cf0:	68fb      	ldr	r3, [r7, #12]
 8003cf2:	621a      	str	r2, [r3, #32]

  /* Set or reset the CCxE Bit */
  TIMx->CCER |= (uint32_t)(ChannelState << (Channel & 0x1FU)); /* 0x1FU = 31 bits max shift */
 8003cf4:	68fb      	ldr	r3, [r7, #12]
 8003cf6:	6a1a      	ldr	r2, [r3, #32]
 8003cf8:	68bb      	ldr	r3, [r7, #8]
 8003cfa:	f003 031f 	and.w	r3, r3, #31
 8003cfe:	6879      	ldr	r1, [r7, #4]
 8003d00:	fa01 f303 	lsl.w	r3, r1, r3
 8003d04:	431a      	orrs	r2, r3
 8003d06:	68fb      	ldr	r3, [r7, #12]
 8003d08:	621a      	str	r2, [r3, #32]
}
 8003d0a:	bf00      	nop
 8003d0c:	371c      	adds	r7, #28
 8003d0e:	46bd      	mov	sp, r7
 8003d10:	f85d 7b04 	ldr.w	r7, [sp], #4
 8003d14:	4770      	bx	lr
	...

08003d18 <HAL_TIMEx_MasterConfigSynchronization>:
  *         mode.
  * @retval HAL status
  */
HAL_StatusTypeDef HAL_TIMEx_MasterConfigSynchronization(TIM_HandleTypeDef *htim,
                                                        TIM_MasterConfigTypeDef *sMasterConfig)
{
 8003d18:	b480      	push	{r7}
 8003d1a:	b085      	sub	sp, #20
 8003d1c:	af00      	add	r7, sp, #0
 8003d1e:	6078      	str	r0, [r7, #4]
 8003d20:	6039      	str	r1, [r7, #0]
  assert_param(IS_TIM_MASTER_INSTANCE(htim->Instance));
  assert_param(IS_TIM_TRGO_SOURCE(sMasterConfig->MasterOutputTrigger));
  assert_param(IS_TIM_MSM_STATE(sMasterConfig->MasterSlaveMode));

  /* Check input state */
  __HAL_LOCK(htim);
 8003d22:	687b      	ldr	r3, [r7, #4]
 8003d24:	f893 303c 	ldrb.w	r3, [r3, #60]	; 0x3c
 8003d28:	2b01      	cmp	r3, #1
 8003d2a:	d101      	bne.n	8003d30 <HAL_TIMEx_MasterConfigSynchronization+0x18>
 8003d2c:	2302      	movs	r3, #2
 8003d2e:	e05a      	b.n	8003de6 <HAL_TIMEx_MasterConfigSynchronization+0xce>
 8003d30:	687b      	ldr	r3, [r7, #4]
 8003d32:	2201      	movs	r2, #1
 8003d34:	f883 203c 	strb.w	r2, [r3, #60]	; 0x3c

  /* Change the handler state */
  htim->State = HAL_TIM_STATE_BUSY;
 8003d38:	687b      	ldr	r3, [r7, #4]
 8003d3a:	2202      	movs	r2, #2
 8003d3c:	f883 203d 	strb.w	r2, [r3, #61]	; 0x3d

  /* Get the TIMx CR2 register value */
  tmpcr2 = htim->Instance->CR2;
 8003d40:	687b      	ldr	r3, [r7, #4]
 8003d42:	681b      	ldr	r3, [r3, #0]
 8003d44:	685b      	ldr	r3, [r3, #4]
 8003d46:	60fb      	str	r3, [r7, #12]

  /* Get the TIMx SMCR register value */
  tmpsmcr = htim->Instance->SMCR;
 8003d48:	687b      	ldr	r3, [r7, #4]
 8003d4a:	681b      	ldr	r3, [r3, #0]
 8003d4c:	689b      	ldr	r3, [r3, #8]
 8003d4e:	60bb      	str	r3, [r7, #8]

  /* Reset the MMS Bits */
  tmpcr2 &= ~TIM_CR2_MMS;
 8003d50:	68fb      	ldr	r3, [r7, #12]
 8003d52:	f023 0370 	bic.w	r3, r3, #112	; 0x70
 8003d56:	60fb      	str	r3, [r7, #12]
  /* Select the TRGO source */
  tmpcr2 |=  sMasterConfig->MasterOutputTrigger;
 8003d58:	683b      	ldr	r3, [r7, #0]
 8003d5a:	681b      	ldr	r3, [r3, #0]
 8003d5c:	68fa      	ldr	r2, [r7, #12]
 8003d5e:	4313      	orrs	r3, r2
 8003d60:	60fb      	str	r3, [r7, #12]

  /* Update TIMx CR2 */
  htim->Instance->CR2 = tmpcr2;
 8003d62:	687b      	ldr	r3, [r7, #4]
 8003d64:	681b      	ldr	r3, [r3, #0]
 8003d66:	68fa      	ldr	r2, [r7, #12]
 8003d68:	605a      	str	r2, [r3, #4]

  if (IS_TIM_SLAVE_INSTANCE(htim->Instance))
 8003d6a:	687b      	ldr	r3, [r7, #4]
 8003d6c:	681b      	ldr	r3, [r3, #0]
 8003d6e:	4a21      	ldr	r2, [pc, #132]	; (8003df4 <HAL_TIMEx_MasterConfigSynchronization+0xdc>)
 8003d70:	4293      	cmp	r3, r2
 8003d72:	d022      	beq.n	8003dba <HAL_TIMEx_MasterConfigSynchronization+0xa2>
 8003d74:	687b      	ldr	r3, [r7, #4]
 8003d76:	681b      	ldr	r3, [r3, #0]
 8003d78:	f1b3 4f80 	cmp.w	r3, #1073741824	; 0x40000000
 8003d7c:	d01d      	beq.n	8003dba <HAL_TIMEx_MasterConfigSynchronization+0xa2>
 8003d7e:	687b      	ldr	r3, [r7, #4]
 8003d80:	681b      	ldr	r3, [r3, #0]
 8003d82:	4a1d      	ldr	r2, [pc, #116]	; (8003df8 <HAL_TIMEx_MasterConfigSynchronization+0xe0>)
 8003d84:	4293      	cmp	r3, r2
 8003d86:	d018      	beq.n	8003dba <HAL_TIMEx_MasterConfigSynchronization+0xa2>
 8003d88:	687b      	ldr	r3, [r7, #4]
 8003d8a:	681b      	ldr	r3, [r3, #0]
 8003d8c:	4a1b      	ldr	r2, [pc, #108]	; (8003dfc <HAL_TIMEx_MasterConfigSynchronization+0xe4>)
 8003d8e:	4293      	cmp	r3, r2
 8003d90:	d013      	beq.n	8003dba <HAL_TIMEx_MasterConfigSynchronization+0xa2>
 8003d92:	687b      	ldr	r3, [r7, #4]
 8003d94:	681b      	ldr	r3, [r3, #0]
 8003d96:	4a1a      	ldr	r2, [pc, #104]	; (8003e00 <HAL_TIMEx_MasterConfigSynchronization+0xe8>)
 8003d98:	4293      	cmp	r3, r2
 8003d9a:	d00e      	beq.n	8003dba <HAL_TIMEx_MasterConfigSynchronization+0xa2>
 8003d9c:	687b      	ldr	r3, [r7, #4]
 8003d9e:	681b      	ldr	r3, [r3, #0]
 8003da0:	4a18      	ldr	r2, [pc, #96]	; (8003e04 <HAL_TIMEx_MasterConfigSynchronization+0xec>)
 8003da2:	4293      	cmp	r3, r2
 8003da4:	d009      	beq.n	8003dba <HAL_TIMEx_MasterConfigSynchronization+0xa2>
 8003da6:	687b      	ldr	r3, [r7, #4]
 8003da8:	681b      	ldr	r3, [r3, #0]
 8003daa:	4a17      	ldr	r2, [pc, #92]	; (8003e08 <HAL_TIMEx_MasterConfigSynchronization+0xf0>)
 8003dac:	4293      	cmp	r3, r2
 8003dae:	d004      	beq.n	8003dba <HAL_TIMEx_MasterConfigSynchronization+0xa2>
 8003db0:	687b      	ldr	r3, [r7, #4]
 8003db2:	681b      	ldr	r3, [r3, #0]
 8003db4:	4a15      	ldr	r2, [pc, #84]	; (8003e0c <HAL_TIMEx_MasterConfigSynchronization+0xf4>)
 8003db6:	4293      	cmp	r3, r2
 8003db8:	d10c      	bne.n	8003dd4 <HAL_TIMEx_MasterConfigSynchronization+0xbc>
  {
    /* Reset the MSM Bit */
    tmpsmcr &= ~TIM_SMCR_MSM;
 8003dba:	68bb      	ldr	r3, [r7, #8]
 8003dbc:	f023 0380 	bic.w	r3, r3, #128	; 0x80
 8003dc0:	60bb      	str	r3, [r7, #8]
    /* Set master mode */
    tmpsmcr |= sMasterConfig->MasterSlaveMode;
 8003dc2:	683b      	ldr	r3, [r7, #0]
 8003dc4:	685b      	ldr	r3, [r3, #4]
 8003dc6:	68ba      	ldr	r2, [r7, #8]
 8003dc8:	4313      	orrs	r3, r2
 8003dca:	60bb      	str	r3, [r7, #8]

    /* Update TIMx SMCR */
    htim->Instance->SMCR = tmpsmcr;
 8003dcc:	687b      	ldr	r3, [r7, #4]
 8003dce:	681b      	ldr	r3, [r3, #0]
 8003dd0:	68ba      	ldr	r2, [r7, #8]
 8003dd2:	609a      	str	r2, [r3, #8]
  }

  /* Change the htim state */
  htim->State = HAL_TIM_STATE_READY;
 8003dd4:	687b      	ldr	r3, [r7, #4]
 8003dd6:	2201      	movs	r2, #1
 8003dd8:	f883 203d 	strb.w	r2, [r3, #61]	; 0x3d

  __HAL_UNLOCK(htim);
 8003ddc:	687b      	ldr	r3, [r7, #4]
 8003dde:	2200      	movs	r2, #0
 8003de0:	f883 203c 	strb.w	r2, [r3, #60]	; 0x3c

  return HAL_OK;
 8003de4:	2300      	movs	r3, #0
}
 8003de6:	4618      	mov	r0, r3
 8003de8:	3714      	adds	r7, #20
 8003dea:	46bd      	mov	sp, r7
 8003dec:	f85d 7b04 	ldr.w	r7, [sp], #4
 8003df0:	4770      	bx	lr
 8003df2:	bf00      	nop
 8003df4:	40010000 	.word	0x40010000
 8003df8:	40000400 	.word	0x40000400
 8003dfc:	40000800 	.word	0x40000800
 8003e00:	40000c00 	.word	0x40000c00
 8003e04:	40010400 	.word	0x40010400
 8003e08:	40014000 	.word	0x40014000
 8003e0c:	40001800 	.word	0x40001800

08003e10 <HAL_TIMEx_CommutCallback>:
  * @brief  Hall commutation changed callback in non-blocking mode
  * @param  htim TIM handle
  * @retval None
  */
__weak void HAL_TIMEx_CommutCallback(TIM_HandleTypeDef *htim)
{
 8003e10:	b480      	push	{r7}
 8003e12:	b083      	sub	sp, #12
 8003e14:	af00      	add	r7, sp, #0
 8003e16:	6078      	str	r0, [r7, #4]
  UNUSED(htim);

  /* NOTE : This function should not be modified, when the callback is needed,
            the HAL_TIMEx_CommutCallback could be implemented in the user file
   */
}
 8003e18:	bf00      	nop
 8003e1a:	370c      	adds	r7, #12
 8003e1c:	46bd      	mov	sp, r7
 8003e1e:	f85d 7b04 	ldr.w	r7, [sp], #4
 8003e22:	4770      	bx	lr

08003e24 <HAL_TIMEx_BreakCallback>:
  * @brief  Hall Break detection callback in non-blocking mode
  * @param  htim TIM handle
  * @retval None
  */
__weak void HAL_TIMEx_BreakCallback(TIM_HandleTypeDef *htim)
{
 8003e24:	b480      	push	{r7}
 8003e26:	b083      	sub	sp, #12
 8003e28:	af00      	add	r7, sp, #0
 8003e2a:	6078      	str	r0, [r7, #4]
  UNUSED(htim);

  /* NOTE : This function should not be modified, when the callback is needed,
            the HAL_TIMEx_BreakCallback could be implemented in the user file
   */
}
 8003e2c:	bf00      	nop
 8003e2e:	370c      	adds	r7, #12
 8003e30:	46bd      	mov	sp, r7
 8003e32:	f85d 7b04 	ldr.w	r7, [sp], #4
 8003e36:	4770      	bx	lr

08003e38 <HAL_UART_Init>:
  * @param  huart  Pointer to a UART_HandleTypeDef structure that contains
  *                the configuration information for the specified UART module.
  * @retval HAL status
  */
HAL_StatusTypeDef HAL_UART_Init(UART_HandleTypeDef *huart)
{
 8003e38:	b580      	push	{r7, lr}
 8003e3a:	b082      	sub	sp, #8
 8003e3c:	af00      	add	r7, sp, #0
 8003e3e:	6078      	str	r0, [r7, #4]
  /* Check the UART handle allocation */
  if (huart == NULL)
 8003e40:	687b      	ldr	r3, [r7, #4]
 8003e42:	2b00      	cmp	r3, #0
 8003e44:	d101      	bne.n	8003e4a <HAL_UART_Init+0x12>
  {
    return HAL_ERROR;
 8003e46:	2301      	movs	r3, #1
 8003e48:	e03f      	b.n	8003eca <HAL_UART_Init+0x92>
    assert_param(IS_UART_INSTANCE(huart->Instance));
  }
  assert_param(IS_UART_WORD_LENGTH(huart->Init.WordLength));
  assert_param(IS_UART_OVERSAMPLING(huart->Init.OverSampling));

  if (huart->gState == HAL_UART_STATE_RESET)
 8003e4a:	687b      	ldr	r3, [r7, #4]
 8003e4c:	f893 303d 	ldrb.w	r3, [r3, #61]	; 0x3d
 8003e50:	b2db      	uxtb	r3, r3
 8003e52:	2b00      	cmp	r3, #0
 8003e54:	d106      	bne.n	8003e64 <HAL_UART_Init+0x2c>
  {
    /* Allocate lock resource and initialize it */
    huart->Lock = HAL_UNLOCKED;
 8003e56:	687b      	ldr	r3, [r7, #4]
 8003e58:	2200      	movs	r2, #0
 8003e5a:	f883 203c 	strb.w	r2, [r3, #60]	; 0x3c

    /* Init the low level hardware */
    huart->MspInitCallback(huart);
#else
    /* Init the low level hardware : GPIO, CLOCK */
    HAL_UART_MspInit(huart);
 8003e5e:	6878      	ldr	r0, [r7, #4]
 8003e60:	f7fd f964 	bl	800112c <HAL_UART_MspInit>
#endif /* (USE_HAL_UART_REGISTER_CALLBACKS) */
  }

  huart->gState = HAL_UART_STATE_BUSY;
 8003e64:	687b      	ldr	r3, [r7, #4]
 8003e66:	2224      	movs	r2, #36	; 0x24
 8003e68:	f883 203d 	strb.w	r2, [r3, #61]	; 0x3d

  /* Disable the peripheral */
  __HAL_UART_DISABLE(huart);
 8003e6c:	687b      	ldr	r3, [r7, #4]
 8003e6e:	681b      	ldr	r3, [r3, #0]
 8003e70:	68da      	ldr	r2, [r3, #12]
 8003e72:	687b      	ldr	r3, [r7, #4]
 8003e74:	681b      	ldr	r3, [r3, #0]
 8003e76:	f422 5200 	bic.w	r2, r2, #8192	; 0x2000
 8003e7a:	60da      	str	r2, [r3, #12]

  /* Set the UART Communication parameters */
  UART_SetConfig(huart);
 8003e7c:	6878      	ldr	r0, [r7, #4]
 8003e7e:	f000 fe19 	bl	8004ab4 <UART_SetConfig>

  /* In asynchronous mode, the following bits must be kept cleared:
     - LINEN and CLKEN bits in the USART_CR2 register,
     - SCEN, HDSEL and IREN  bits in the USART_CR3 register.*/
  CLEAR_BIT(huart->Instance->CR2, (USART_CR2_LINEN | USART_CR2_CLKEN));
 8003e82:	687b      	ldr	r3, [r7, #4]
 8003e84:	681b      	ldr	r3, [r3, #0]
 8003e86:	691a      	ldr	r2, [r3, #16]
 8003e88:	687b      	ldr	r3, [r7, #4]
 8003e8a:	681b      	ldr	r3, [r3, #0]
 8003e8c:	f422 4290 	bic.w	r2, r2, #18432	; 0x4800
 8003e90:	611a      	str	r2, [r3, #16]
  CLEAR_BIT(huart->Instance->CR3, (USART_CR3_SCEN | USART_CR3_HDSEL | USART_CR3_IREN));
 8003e92:	687b      	ldr	r3, [r7, #4]
 8003e94:	681b      	ldr	r3, [r3, #0]
 8003e96:	695a      	ldr	r2, [r3, #20]
 8003e98:	687b      	ldr	r3, [r7, #4]
 8003e9a:	681b      	ldr	r3, [r3, #0]
 8003e9c:	f022 022a 	bic.w	r2, r2, #42	; 0x2a
 8003ea0:	615a      	str	r2, [r3, #20]

  /* Enable the peripheral */
  __HAL_UART_ENABLE(huart);
 8003ea2:	687b      	ldr	r3, [r7, #4]
 8003ea4:	681b      	ldr	r3, [r3, #0]
 8003ea6:	68da      	ldr	r2, [r3, #12]
 8003ea8:	687b      	ldr	r3, [r7, #4]
 8003eaa:	681b      	ldr	r3, [r3, #0]
 8003eac:	f442 5200 	orr.w	r2, r2, #8192	; 0x2000
 8003eb0:	60da      	str	r2, [r3, #12]

  /* Initialize the UART state */
  huart->ErrorCode = HAL_UART_ERROR_NONE;
 8003eb2:	687b      	ldr	r3, [r7, #4]
 8003eb4:	2200      	movs	r2, #0
 8003eb6:	641a      	str	r2, [r3, #64]	; 0x40
  huart->gState = HAL_UART_STATE_READY;
 8003eb8:	687b      	ldr	r3, [r7, #4]
 8003eba:	2220      	movs	r2, #32
 8003ebc:	f883 203d 	strb.w	r2, [r3, #61]	; 0x3d
  huart->RxState = HAL_UART_STATE_READY;
 8003ec0:	687b      	ldr	r3, [r7, #4]
 8003ec2:	2220      	movs	r2, #32
 8003ec4:	f883 203e 	strb.w	r2, [r3, #62]	; 0x3e

  return HAL_OK;
 8003ec8:	2300      	movs	r3, #0
}
 8003eca:	4618      	mov	r0, r3
 8003ecc:	3708      	adds	r7, #8
 8003ece:	46bd      	mov	sp, r7
 8003ed0:	bd80      	pop	{r7, pc}

08003ed2 <HAL_UART_Transmit>:
  * @param  Size  Amount of data elements (u8 or u16) to be sent
  * @param  Timeout Timeout duration
  * @retval HAL status
  */
HAL_StatusTypeDef HAL_UART_Transmit(UART_HandleTypeDef *huart, uint8_t *pData, uint16_t Size, uint32_t Timeout)
{
 8003ed2:	b580      	push	{r7, lr}
 8003ed4:	b08a      	sub	sp, #40	; 0x28
 8003ed6:	af02      	add	r7, sp, #8
 8003ed8:	60f8      	str	r0, [r7, #12]
 8003eda:	60b9      	str	r1, [r7, #8]
 8003edc:	603b      	str	r3, [r7, #0]
 8003ede:	4613      	mov	r3, r2
 8003ee0:	80fb      	strh	r3, [r7, #6]
  uint8_t  *pdata8bits;
  uint16_t *pdata16bits;
  uint32_t tickstart = 0U;
 8003ee2:	2300      	movs	r3, #0
 8003ee4:	617b      	str	r3, [r7, #20]

  /* Check that a Tx process is not already ongoing */
  if (huart->gState == HAL_UART_STATE_READY)
 8003ee6:	68fb      	ldr	r3, [r7, #12]
 8003ee8:	f893 303d 	ldrb.w	r3, [r3, #61]	; 0x3d
 8003eec:	b2db      	uxtb	r3, r3
 8003eee:	2b20      	cmp	r3, #32
 8003ef0:	d17c      	bne.n	8003fec <HAL_UART_Transmit+0x11a>
  {
    if ((pData == NULL) || (Size == 0U))
 8003ef2:	68bb      	ldr	r3, [r7, #8]
 8003ef4:	2b00      	cmp	r3, #0
 8003ef6:	d002      	beq.n	8003efe <HAL_UART_Transmit+0x2c>
 8003ef8:	88fb      	ldrh	r3, [r7, #6]
 8003efa:	2b00      	cmp	r3, #0
 8003efc:	d101      	bne.n	8003f02 <HAL_UART_Transmit+0x30>
    {
      return  HAL_ERROR;
 8003efe:	2301      	movs	r3, #1
 8003f00:	e075      	b.n	8003fee <HAL_UART_Transmit+0x11c>
    }

    /* Process Locked */
    __HAL_LOCK(huart);
 8003f02:	68fb      	ldr	r3, [r7, #12]
 8003f04:	f893 303c 	ldrb.w	r3, [r3, #60]	; 0x3c
 8003f08:	2b01      	cmp	r3, #1
 8003f0a:	d101      	bne.n	8003f10 <HAL_UART_Transmit+0x3e>
 8003f0c:	2302      	movs	r3, #2
 8003f0e:	e06e      	b.n	8003fee <HAL_UART_Transmit+0x11c>
 8003f10:	68fb      	ldr	r3, [r7, #12]
 8003f12:	2201      	movs	r2, #1
 8003f14:	f883 203c 	strb.w	r2, [r3, #60]	; 0x3c

    huart->ErrorCode = HAL_UART_ERROR_NONE;
 8003f18:	68fb      	ldr	r3, [r7, #12]
 8003f1a:	2200      	movs	r2, #0
 8003f1c:	641a      	str	r2, [r3, #64]	; 0x40
    huart->gState = HAL_UART_STATE_BUSY_TX;
 8003f1e:	68fb      	ldr	r3, [r7, #12]
 8003f20:	2221      	movs	r2, #33	; 0x21
 8003f22:	f883 203d 	strb.w	r2, [r3, #61]	; 0x3d

    /* Init tickstart for timeout management */
    tickstart = HAL_GetTick();
 8003f26:	f7fd fb03 	bl	8001530 <HAL_GetTick>
 8003f2a:	6178      	str	r0, [r7, #20]

    huart->TxXferSize = Size;
 8003f2c:	68fb      	ldr	r3, [r7, #12]
 8003f2e:	88fa      	ldrh	r2, [r7, #6]
 8003f30:	849a      	strh	r2, [r3, #36]	; 0x24
    huart->TxXferCount = Size;
 8003f32:	68fb      	ldr	r3, [r7, #12]
 8003f34:	88fa      	ldrh	r2, [r7, #6]
 8003f36:	84da      	strh	r2, [r3, #38]	; 0x26

    /* In case of 9bits/No Parity transfer, pData needs to be handled as a uint16_t pointer */
    if ((huart->Init.WordLength == UART_WORDLENGTH_9B) && (huart->Init.Parity == UART_PARITY_NONE))
 8003f38:	68fb      	ldr	r3, [r7, #12]
 8003f3a:	689b      	ldr	r3, [r3, #8]
 8003f3c:	f5b3 5f80 	cmp.w	r3, #4096	; 0x1000
 8003f40:	d108      	bne.n	8003f54 <HAL_UART_Transmit+0x82>
 8003f42:	68fb      	ldr	r3, [r7, #12]
 8003f44:	691b      	ldr	r3, [r3, #16]
 8003f46:	2b00      	cmp	r3, #0
 8003f48:	d104      	bne.n	8003f54 <HAL_UART_Transmit+0x82>
    {
      pdata8bits  = NULL;
 8003f4a:	2300      	movs	r3, #0
 8003f4c:	61fb      	str	r3, [r7, #28]
      pdata16bits = (uint16_t *) pData;
 8003f4e:	68bb      	ldr	r3, [r7, #8]
 8003f50:	61bb      	str	r3, [r7, #24]
 8003f52:	e003      	b.n	8003f5c <HAL_UART_Transmit+0x8a>
    }
    else
    {
      pdata8bits  = pData;
 8003f54:	68bb      	ldr	r3, [r7, #8]
 8003f56:	61fb      	str	r3, [r7, #28]
      pdata16bits = NULL;
 8003f58:	2300      	movs	r3, #0
 8003f5a:	61bb      	str	r3, [r7, #24]
    }

    /* Process Unlocked */
    __HAL_UNLOCK(huart);
 8003f5c:	68fb      	ldr	r3, [r7, #12]
 8003f5e:	2200      	movs	r2, #0
 8003f60:	f883 203c 	strb.w	r2, [r3, #60]	; 0x3c

    while (huart->TxXferCount > 0U)
 8003f64:	e02a      	b.n	8003fbc <HAL_UART_Transmit+0xea>
    {
      if (UART_WaitOnFlagUntilTimeout(huart, UART_FLAG_TXE, RESET, tickstart, Timeout) != HAL_OK)
 8003f66:	683b      	ldr	r3, [r7, #0]
 8003f68:	9300      	str	r3, [sp, #0]
 8003f6a:	697b      	ldr	r3, [r7, #20]
 8003f6c:	2200      	movs	r2, #0
 8003f6e:	2180      	movs	r1, #128	; 0x80
 8003f70:	68f8      	ldr	r0, [r7, #12]
 8003f72:	f000 fb9a 	bl	80046aa <UART_WaitOnFlagUntilTimeout>
 8003f76:	4603      	mov	r3, r0
 8003f78:	2b00      	cmp	r3, #0
 8003f7a:	d001      	beq.n	8003f80 <HAL_UART_Transmit+0xae>
      {
        return HAL_TIMEOUT;
 8003f7c:	2303      	movs	r3, #3
 8003f7e:	e036      	b.n	8003fee <HAL_UART_Transmit+0x11c>
      }
      if (pdata8bits == NULL)
 8003f80:	69fb      	ldr	r3, [r7, #28]
 8003f82:	2b00      	cmp	r3, #0
 8003f84:	d10b      	bne.n	8003f9e <HAL_UART_Transmit+0xcc>
      {
        huart->Instance->DR = (uint16_t)(*pdata16bits & 0x01FFU);
 8003f86:	69bb      	ldr	r3, [r7, #24]
 8003f88:	881b      	ldrh	r3, [r3, #0]
 8003f8a:	461a      	mov	r2, r3
 8003f8c:	68fb      	ldr	r3, [r7, #12]
 8003f8e:	681b      	ldr	r3, [r3, #0]
 8003f90:	f3c2 0208 	ubfx	r2, r2, #0, #9
 8003f94:	605a      	str	r2, [r3, #4]
        pdata16bits++;
 8003f96:	69bb      	ldr	r3, [r7, #24]
 8003f98:	3302      	adds	r3, #2
 8003f9a:	61bb      	str	r3, [r7, #24]
 8003f9c:	e007      	b.n	8003fae <HAL_UART_Transmit+0xdc>
      }
      else
      {
        huart->Instance->DR = (uint8_t)(*pdata8bits & 0xFFU);
 8003f9e:	69fb      	ldr	r3, [r7, #28]
 8003fa0:	781a      	ldrb	r2, [r3, #0]
 8003fa2:	68fb      	ldr	r3, [r7, #12]
 8003fa4:	681b      	ldr	r3, [r3, #0]
 8003fa6:	605a      	str	r2, [r3, #4]
        pdata8bits++;
 8003fa8:	69fb      	ldr	r3, [r7, #28]
 8003faa:	3301      	adds	r3, #1
 8003fac:	61fb      	str	r3, [r7, #28]
      }
      huart->TxXferCount--;
 8003fae:	68fb      	ldr	r3, [r7, #12]
 8003fb0:	8cdb      	ldrh	r3, [r3, #38]	; 0x26
 8003fb2:	b29b      	uxth	r3, r3
 8003fb4:	3b01      	subs	r3, #1
 8003fb6:	b29a      	uxth	r2, r3
 8003fb8:	68fb      	ldr	r3, [r7, #12]
 8003fba:	84da      	strh	r2, [r3, #38]	; 0x26
    while (huart->TxXferCount > 0U)
 8003fbc:	68fb      	ldr	r3, [r7, #12]
 8003fbe:	8cdb      	ldrh	r3, [r3, #38]	; 0x26
 8003fc0:	b29b      	uxth	r3, r3
 8003fc2:	2b00      	cmp	r3, #0
 8003fc4:	d1cf      	bne.n	8003f66 <HAL_UART_Transmit+0x94>
    }

    if (UART_WaitOnFlagUntilTimeout(huart, UART_FLAG_TC, RESET, tickstart, Timeout) != HAL_OK)
 8003fc6:	683b      	ldr	r3, [r7, #0]
 8003fc8:	9300      	str	r3, [sp, #0]
 8003fca:	697b      	ldr	r3, [r7, #20]
 8003fcc:	2200      	movs	r2, #0
 8003fce:	2140      	movs	r1, #64	; 0x40
 8003fd0:	68f8      	ldr	r0, [r7, #12]
 8003fd2:	f000 fb6a 	bl	80046aa <UART_WaitOnFlagUntilTimeout>
 8003fd6:	4603      	mov	r3, r0
 8003fd8:	2b00      	cmp	r3, #0
 8003fda:	d001      	beq.n	8003fe0 <HAL_UART_Transmit+0x10e>
    {
      return HAL_TIMEOUT;
 8003fdc:	2303      	movs	r3, #3
 8003fde:	e006      	b.n	8003fee <HAL_UART_Transmit+0x11c>
    }

    /* At end of Tx process, restore huart->gState to Ready */
    huart->gState = HAL_UART_STATE_READY;
 8003fe0:	68fb      	ldr	r3, [r7, #12]
 8003fe2:	2220      	movs	r2, #32
 8003fe4:	f883 203d 	strb.w	r2, [r3, #61]	; 0x3d

    return HAL_OK;
 8003fe8:	2300      	movs	r3, #0
 8003fea:	e000      	b.n	8003fee <HAL_UART_Transmit+0x11c>
  }
  else
  {
    return HAL_BUSY;
 8003fec:	2302      	movs	r3, #2
  }
}
 8003fee:	4618      	mov	r0, r3
 8003ff0:	3720      	adds	r7, #32
 8003ff2:	46bd      	mov	sp, r7
 8003ff4:	bd80      	pop	{r7, pc}
	...

08003ff8 <HAL_UART_Transmit_DMA>:
  * @param  pData Pointer to data buffer (u8 or u16 data elements).
  * @param  Size  Amount of data elements (u8 or u16) to be sent
  * @retval HAL status
  */
HAL_StatusTypeDef HAL_UART_Transmit_DMA(UART_HandleTypeDef *huart, uint8_t *pData, uint16_t Size)
{
 8003ff8:	b580      	push	{r7, lr}
 8003ffa:	b086      	sub	sp, #24
 8003ffc:	af00      	add	r7, sp, #0
 8003ffe:	60f8      	str	r0, [r7, #12]
 8004000:	60b9      	str	r1, [r7, #8]
 8004002:	4613      	mov	r3, r2
 8004004:	80fb      	strh	r3, [r7, #6]
  uint32_t *tmp;

  /* Check that a Tx process is not already ongoing */
  if (huart->gState == HAL_UART_STATE_READY)
 8004006:	68fb      	ldr	r3, [r7, #12]
 8004008:	f893 303d 	ldrb.w	r3, [r3, #61]	; 0x3d
 800400c:	b2db      	uxtb	r3, r3
 800400e:	2b20      	cmp	r3, #32
 8004010:	d153      	bne.n	80040ba <HAL_UART_Transmit_DMA+0xc2>
  {
    if ((pData == NULL) || (Size == 0U))
 8004012:	68bb      	ldr	r3, [r7, #8]
 8004014:	2b00      	cmp	r3, #0
 8004016:	d002      	beq.n	800401e <HAL_UART_Transmit_DMA+0x26>
 8004018:	88fb      	ldrh	r3, [r7, #6]
 800401a:	2b00      	cmp	r3, #0
 800401c:	d101      	bne.n	8004022 <HAL_UART_Transmit_DMA+0x2a>
    {
      return HAL_ERROR;
 800401e:	2301      	movs	r3, #1
 8004020:	e04c      	b.n	80040bc <HAL_UART_Transmit_DMA+0xc4>
    }

    /* Process Locked */
    __HAL_LOCK(huart);
 8004022:	68fb      	ldr	r3, [r7, #12]
 8004024:	f893 303c 	ldrb.w	r3, [r3, #60]	; 0x3c
 8004028:	2b01      	cmp	r3, #1
 800402a:	d101      	bne.n	8004030 <HAL_UART_Transmit_DMA+0x38>
 800402c:	2302      	movs	r3, #2
 800402e:	e045      	b.n	80040bc <HAL_UART_Transmit_DMA+0xc4>
 8004030:	68fb      	ldr	r3, [r7, #12]
 8004032:	2201      	movs	r2, #1
 8004034:	f883 203c 	strb.w	r2, [r3, #60]	; 0x3c

    huart->pTxBuffPtr = pData;
 8004038:	68ba      	ldr	r2, [r7, #8]
 800403a:	68fb      	ldr	r3, [r7, #12]
 800403c:	621a      	str	r2, [r3, #32]
    huart->TxXferSize = Size;
 800403e:	68fb      	ldr	r3, [r7, #12]
 8004040:	88fa      	ldrh	r2, [r7, #6]
 8004042:	849a      	strh	r2, [r3, #36]	; 0x24
    huart->TxXferCount = Size;
 8004044:	68fb      	ldr	r3, [r7, #12]
 8004046:	88fa      	ldrh	r2, [r7, #6]
 8004048:	84da      	strh	r2, [r3, #38]	; 0x26

    huart->ErrorCode = HAL_UART_ERROR_NONE;
 800404a:	68fb      	ldr	r3, [r7, #12]
 800404c:	2200      	movs	r2, #0
 800404e:	641a      	str	r2, [r3, #64]	; 0x40
    huart->gState = HAL_UART_STATE_BUSY_TX;
 8004050:	68fb      	ldr	r3, [r7, #12]
 8004052:	2221      	movs	r2, #33	; 0x21
 8004054:	f883 203d 	strb.w	r2, [r3, #61]	; 0x3d

    /* Set the UART DMA transfer complete callback */
    huart->hdmatx->XferCpltCallback = UART_DMATransmitCplt;
 8004058:	68fb      	ldr	r3, [r7, #12]
 800405a:	6b5b      	ldr	r3, [r3, #52]	; 0x34
 800405c:	4a19      	ldr	r2, [pc, #100]	; (80040c4 <HAL_UART_Transmit_DMA+0xcc>)
 800405e:	63da      	str	r2, [r3, #60]	; 0x3c

    /* Set the UART DMA Half transfer complete callback */
    huart->hdmatx->XferHalfCpltCallback = UART_DMATxHalfCplt;
 8004060:	68fb      	ldr	r3, [r7, #12]
 8004062:	6b5b      	ldr	r3, [r3, #52]	; 0x34
 8004064:	4a18      	ldr	r2, [pc, #96]	; (80040c8 <HAL_UART_Transmit_DMA+0xd0>)
 8004066:	641a      	str	r2, [r3, #64]	; 0x40

    /* Set the DMA error callback */
    huart->hdmatx->XferErrorCallback = UART_DMAError;
 8004068:	68fb      	ldr	r3, [r7, #12]
 800406a:	6b5b      	ldr	r3, [r3, #52]	; 0x34
 800406c:	4a17      	ldr	r2, [pc, #92]	; (80040cc <HAL_UART_Transmit_DMA+0xd4>)
 800406e:	64da      	str	r2, [r3, #76]	; 0x4c

    /* Set the DMA abort callback */
    huart->hdmatx->XferAbortCallback = NULL;
 8004070:	68fb      	ldr	r3, [r7, #12]
 8004072:	6b5b      	ldr	r3, [r3, #52]	; 0x34
 8004074:	2200      	movs	r2, #0
 8004076:	651a      	str	r2, [r3, #80]	; 0x50

    /* Enable the UART transmit DMA stream */
    tmp = (uint32_t *)&pData;
 8004078:	f107 0308 	add.w	r3, r7, #8
 800407c:	617b      	str	r3, [r7, #20]
    HAL_DMA_Start_IT(huart->hdmatx, *(uint32_t *)tmp, (uint32_t)&huart->Instance->DR, Size);
 800407e:	68fb      	ldr	r3, [r7, #12]
 8004080:	6b58      	ldr	r0, [r3, #52]	; 0x34
 8004082:	697b      	ldr	r3, [r7, #20]
 8004084:	6819      	ldr	r1, [r3, #0]
 8004086:	68fb      	ldr	r3, [r7, #12]
 8004088:	681b      	ldr	r3, [r3, #0]
 800408a:	3304      	adds	r3, #4
 800408c:	461a      	mov	r2, r3
 800408e:	88fb      	ldrh	r3, [r7, #6]
 8004090:	f7fd fc1a 	bl	80018c8 <HAL_DMA_Start_IT>

    /* Clear the TC flag in the SR register by writing 0 to it */
    __HAL_UART_CLEAR_FLAG(huart, UART_FLAG_TC);
 8004094:	68fb      	ldr	r3, [r7, #12]
 8004096:	681b      	ldr	r3, [r3, #0]
 8004098:	f06f 0240 	mvn.w	r2, #64	; 0x40
 800409c:	601a      	str	r2, [r3, #0]

    /* Process Unlocked */
    __HAL_UNLOCK(huart);
 800409e:	68fb      	ldr	r3, [r7, #12]
 80040a0:	2200      	movs	r2, #0
 80040a2:	f883 203c 	strb.w	r2, [r3, #60]	; 0x3c

    /* Enable the DMA transfer for transmit request by setting the DMAT bit
       in the UART CR3 register */
    SET_BIT(huart->Instance->CR3, USART_CR3_DMAT);
 80040a6:	68fb      	ldr	r3, [r7, #12]
 80040a8:	681b      	ldr	r3, [r3, #0]
 80040aa:	695a      	ldr	r2, [r3, #20]
 80040ac:	68fb      	ldr	r3, [r7, #12]
 80040ae:	681b      	ldr	r3, [r3, #0]
 80040b0:	f042 0280 	orr.w	r2, r2, #128	; 0x80
 80040b4:	615a      	str	r2, [r3, #20]

    return HAL_OK;
 80040b6:	2300      	movs	r3, #0
 80040b8:	e000      	b.n	80040bc <HAL_UART_Transmit_DMA+0xc4>
  }
  else
  {
    return HAL_BUSY;
 80040ba:	2302      	movs	r3, #2
  }
}
 80040bc:	4618      	mov	r0, r3
 80040be:	3718      	adds	r7, #24
 80040c0:	46bd      	mov	sp, r7
 80040c2:	bd80      	pop	{r7, pc}
 80040c4:	080044dd 	.word	0x080044dd
 80040c8:	0800452f 	.word	0x0800452f
 80040cc:	08004617 	.word	0x08004617

080040d0 <HAL_UART_Receive_DMA>:
  * @param  Size  Amount of data elements (u8 or u16) to be received.
  * @note   When the UART parity is enabled (PCE = 1) the received data contains the parity bit.
  * @retval HAL status
  */
HAL_StatusTypeDef HAL_UART_Receive_DMA(UART_HandleTypeDef *huart, uint8_t *pData, uint16_t Size)
{
 80040d0:	b580      	push	{r7, lr}
 80040d2:	b084      	sub	sp, #16
 80040d4:	af00      	add	r7, sp, #0
 80040d6:	60f8      	str	r0, [r7, #12]
 80040d8:	60b9      	str	r1, [r7, #8]
 80040da:	4613      	mov	r3, r2
 80040dc:	80fb      	strh	r3, [r7, #6]
  /* Check that a Rx process is not already ongoing */
  if (huart->RxState == HAL_UART_STATE_READY)
 80040de:	68fb      	ldr	r3, [r7, #12]
 80040e0:	f893 303e 	ldrb.w	r3, [r3, #62]	; 0x3e
 80040e4:	b2db      	uxtb	r3, r3
 80040e6:	2b20      	cmp	r3, #32
 80040e8:	d11d      	bne.n	8004126 <HAL_UART_Receive_DMA+0x56>
  {
    if ((pData == NULL) || (Size == 0U))
 80040ea:	68bb      	ldr	r3, [r7, #8]
 80040ec:	2b00      	cmp	r3, #0
 80040ee:	d002      	beq.n	80040f6 <HAL_UART_Receive_DMA+0x26>
 80040f0:	88fb      	ldrh	r3, [r7, #6]
 80040f2:	2b00      	cmp	r3, #0
 80040f4:	d101      	bne.n	80040fa <HAL_UART_Receive_DMA+0x2a>
    {
      return HAL_ERROR;
 80040f6:	2301      	movs	r3, #1
 80040f8:	e016      	b.n	8004128 <HAL_UART_Receive_DMA+0x58>
    }

    /* Process Locked */
    __HAL_LOCK(huart);
 80040fa:	68fb      	ldr	r3, [r7, #12]
 80040fc:	f893 303c 	ldrb.w	r3, [r3, #60]	; 0x3c
 8004100:	2b01      	cmp	r3, #1
 8004102:	d101      	bne.n	8004108 <HAL_UART_Receive_DMA+0x38>
 8004104:	2302      	movs	r3, #2
 8004106:	e00f      	b.n	8004128 <HAL_UART_Receive_DMA+0x58>
 8004108:	68fb      	ldr	r3, [r7, #12]
 800410a:	2201      	movs	r2, #1
 800410c:	f883 203c 	strb.w	r2, [r3, #60]	; 0x3c

    /* Set Reception type to Standard reception */
    huart->ReceptionType = HAL_UART_RECEPTION_STANDARD;
 8004110:	68fb      	ldr	r3, [r7, #12]
 8004112:	2200      	movs	r2, #0
 8004114:	631a      	str	r2, [r3, #48]	; 0x30

    return(UART_Start_Receive_DMA(huart, pData, Size));
 8004116:	88fb      	ldrh	r3, [r7, #6]
 8004118:	461a      	mov	r2, r3
 800411a:	68b9      	ldr	r1, [r7, #8]
 800411c:	68f8      	ldr	r0, [r7, #12]
 800411e:	f000 fb0f 	bl	8004740 <UART_Start_Receive_DMA>
 8004122:	4603      	mov	r3, r0
 8004124:	e000      	b.n	8004128 <HAL_UART_Receive_DMA+0x58>
  }
  else
  {
    return HAL_BUSY;
 8004126:	2302      	movs	r3, #2
  }
}
 8004128:	4618      	mov	r0, r3
 800412a:	3710      	adds	r7, #16
 800412c:	46bd      	mov	sp, r7
 800412e:	bd80      	pop	{r7, pc}

08004130 <HAL_UART_IRQHandler>:
  * @param  huart  Pointer to a UART_HandleTypeDef structure that contains
  *                the configuration information for the specified UART module.
  * @retval None
  */
void HAL_UART_IRQHandler(UART_HandleTypeDef *huart)
{
 8004130:	b580      	push	{r7, lr}
 8004132:	b08a      	sub	sp, #40	; 0x28
 8004134:	af00      	add	r7, sp, #0
 8004136:	6078      	str	r0, [r7, #4]
  uint32_t isrflags   = READ_REG(huart->Instance->SR);
 8004138:	687b      	ldr	r3, [r7, #4]
 800413a:	681b      	ldr	r3, [r3, #0]
 800413c:	681b      	ldr	r3, [r3, #0]
 800413e:	627b      	str	r3, [r7, #36]	; 0x24
  uint32_t cr1its     = READ_REG(huart->Instance->CR1);
 8004140:	687b      	ldr	r3, [r7, #4]
 8004142:	681b      	ldr	r3, [r3, #0]
 8004144:	68db      	ldr	r3, [r3, #12]
 8004146:	623b      	str	r3, [r7, #32]
  uint32_t cr3its     = READ_REG(huart->Instance->CR3);
 8004148:	687b      	ldr	r3, [r7, #4]
 800414a:	681b      	ldr	r3, [r3, #0]
 800414c:	695b      	ldr	r3, [r3, #20]
 800414e:	61fb      	str	r3, [r7, #28]
  uint32_t errorflags = 0x00U;
 8004150:	2300      	movs	r3, #0
 8004152:	61bb      	str	r3, [r7, #24]
  uint32_t dmarequest = 0x00U;
 8004154:	2300      	movs	r3, #0
 8004156:	617b      	str	r3, [r7, #20]

  /* If no error occurs */
  errorflags = (isrflags & (uint32_t)(USART_SR_PE | USART_SR_FE | USART_SR_ORE | USART_SR_NE));
 8004158:	6a7b      	ldr	r3, [r7, #36]	; 0x24
 800415a:	f003 030f 	and.w	r3, r3, #15
 800415e:	61bb      	str	r3, [r7, #24]
  if (errorflags == RESET)
 8004160:	69bb      	ldr	r3, [r7, #24]
 8004162:	2b00      	cmp	r3, #0
 8004164:	d10d      	bne.n	8004182 <HAL_UART_IRQHandler+0x52>
  {
    /* UART in mode Receiver -------------------------------------------------*/
    if (((isrflags & USART_SR_RXNE) != RESET) && ((cr1its & USART_CR1_RXNEIE) != RESET))
 8004166:	6a7b      	ldr	r3, [r7, #36]	; 0x24
 8004168:	f003 0320 	and.w	r3, r3, #32
 800416c:	2b00      	cmp	r3, #0
 800416e:	d008      	beq.n	8004182 <HAL_UART_IRQHandler+0x52>
 8004170:	6a3b      	ldr	r3, [r7, #32]
 8004172:	f003 0320 	and.w	r3, r3, #32
 8004176:	2b00      	cmp	r3, #0
 8004178:	d003      	beq.n	8004182 <HAL_UART_IRQHandler+0x52>
    {
      UART_Receive_IT(huart);
 800417a:	6878      	ldr	r0, [r7, #4]
 800417c:	f000 fc03 	bl	8004986 <UART_Receive_IT>
      return;
 8004180:	e17c      	b.n	800447c <HAL_UART_IRQHandler+0x34c>
    }
  }

  /* If some errors occur */
  if ((errorflags != RESET) && (((cr3its & USART_CR3_EIE) != RESET) || ((cr1its & (USART_CR1_RXNEIE | USART_CR1_PEIE)) != RESET)))
 8004182:	69bb      	ldr	r3, [r7, #24]
 8004184:	2b00      	cmp	r3, #0
 8004186:	f000 80b1 	beq.w	80042ec <HAL_UART_IRQHandler+0x1bc>
 800418a:	69fb      	ldr	r3, [r7, #28]
 800418c:	f003 0301 	and.w	r3, r3, #1
 8004190:	2b00      	cmp	r3, #0
 8004192:	d105      	bne.n	80041a0 <HAL_UART_IRQHandler+0x70>
 8004194:	6a3b      	ldr	r3, [r7, #32]
 8004196:	f403 7390 	and.w	r3, r3, #288	; 0x120
 800419a:	2b00      	cmp	r3, #0
 800419c:	f000 80a6 	beq.w	80042ec <HAL_UART_IRQHandler+0x1bc>
  {
    /* UART parity error interrupt occurred ----------------------------------*/
    if (((isrflags & USART_SR_PE) != RESET) && ((cr1its & USART_CR1_PEIE) != RESET))
 80041a0:	6a7b      	ldr	r3, [r7, #36]	; 0x24
 80041a2:	f003 0301 	and.w	r3, r3, #1
 80041a6:	2b00      	cmp	r3, #0
 80041a8:	d00a      	beq.n	80041c0 <HAL_UART_IRQHandler+0x90>
 80041aa:	6a3b      	ldr	r3, [r7, #32]
 80041ac:	f403 7380 	and.w	r3, r3, #256	; 0x100
 80041b0:	2b00      	cmp	r3, #0
 80041b2:	d005      	beq.n	80041c0 <HAL_UART_IRQHandler+0x90>
    {
      huart->ErrorCode |= HAL_UART_ERROR_PE;
 80041b4:	687b      	ldr	r3, [r7, #4]
 80041b6:	6c1b      	ldr	r3, [r3, #64]	; 0x40
 80041b8:	f043 0201 	orr.w	r2, r3, #1
 80041bc:	687b      	ldr	r3, [r7, #4]
 80041be:	641a      	str	r2, [r3, #64]	; 0x40
    }

    /* UART noise error interrupt occurred -----------------------------------*/
    if (((isrflags & USART_SR_NE) != RESET) && ((cr3its & USART_CR3_EIE) != RESET))
 80041c0:	6a7b      	ldr	r3, [r7, #36]	; 0x24
 80041c2:	f003 0304 	and.w	r3, r3, #4
 80041c6:	2b00      	cmp	r3, #0
 80041c8:	d00a      	beq.n	80041e0 <HAL_UART_IRQHandler+0xb0>
 80041ca:	69fb      	ldr	r3, [r7, #28]
 80041cc:	f003 0301 	and.w	r3, r3, #1
 80041d0:	2b00      	cmp	r3, #0
 80041d2:	d005      	beq.n	80041e0 <HAL_UART_IRQHandler+0xb0>
    {
      huart->ErrorCode |= HAL_UART_ERROR_NE;
 80041d4:	687b      	ldr	r3, [r7, #4]
 80041d6:	6c1b      	ldr	r3, [r3, #64]	; 0x40
 80041d8:	f043 0202 	orr.w	r2, r3, #2
 80041dc:	687b      	ldr	r3, [r7, #4]
 80041de:	641a      	str	r2, [r3, #64]	; 0x40
    }

    /* UART frame error interrupt occurred -----------------------------------*/
    if (((isrflags & USART_SR_FE) != RESET) && ((cr3its & USART_CR3_EIE) != RESET))
 80041e0:	6a7b      	ldr	r3, [r7, #36]	; 0x24
 80041e2:	f003 0302 	and.w	r3, r3, #2
 80041e6:	2b00      	cmp	r3, #0
 80041e8:	d00a      	beq.n	8004200 <HAL_UART_IRQHandler+0xd0>
 80041ea:	69fb      	ldr	r3, [r7, #28]
 80041ec:	f003 0301 	and.w	r3, r3, #1
 80041f0:	2b00      	cmp	r3, #0
 80041f2:	d005      	beq.n	8004200 <HAL_UART_IRQHandler+0xd0>
    {
      huart->ErrorCode |= HAL_UART_ERROR_FE;
 80041f4:	687b      	ldr	r3, [r7, #4]
 80041f6:	6c1b      	ldr	r3, [r3, #64]	; 0x40
 80041f8:	f043 0204 	orr.w	r2, r3, #4
 80041fc:	687b      	ldr	r3, [r7, #4]
 80041fe:	641a      	str	r2, [r3, #64]	; 0x40
    }

    /* UART Over-Run interrupt occurred --------------------------------------*/
    if (((isrflags & USART_SR_ORE) != RESET) && (((cr1its & USART_CR1_RXNEIE) != RESET) || ((cr3its & USART_CR3_EIE) != RESET)))
 8004200:	6a7b      	ldr	r3, [r7, #36]	; 0x24
 8004202:	f003 0308 	and.w	r3, r3, #8
 8004206:	2b00      	cmp	r3, #0
 8004208:	d00f      	beq.n	800422a <HAL_UART_IRQHandler+0xfa>
 800420a:	6a3b      	ldr	r3, [r7, #32]
 800420c:	f003 0320 	and.w	r3, r3, #32
 8004210:	2b00      	cmp	r3, #0
 8004212:	d104      	bne.n	800421e <HAL_UART_IRQHandler+0xee>
 8004214:	69fb      	ldr	r3, [r7, #28]
 8004216:	f003 0301 	and.w	r3, r3, #1
 800421a:	2b00      	cmp	r3, #0
 800421c:	d005      	beq.n	800422a <HAL_UART_IRQHandler+0xfa>
    {
      huart->ErrorCode |= HAL_UART_ERROR_ORE;
 800421e:	687b      	ldr	r3, [r7, #4]
 8004220:	6c1b      	ldr	r3, [r3, #64]	; 0x40
 8004222:	f043 0208 	orr.w	r2, r3, #8
 8004226:	687b      	ldr	r3, [r7, #4]
 8004228:	641a      	str	r2, [r3, #64]	; 0x40
    }

    /* Call UART Error Call back function if need be --------------------------*/
    if (huart->ErrorCode != HAL_UART_ERROR_NONE)
 800422a:	687b      	ldr	r3, [r7, #4]
 800422c:	6c1b      	ldr	r3, [r3, #64]	; 0x40
 800422e:	2b00      	cmp	r3, #0
 8004230:	f000 811f 	beq.w	8004472 <HAL_UART_IRQHandler+0x342>
    {
      /* UART in mode Receiver -----------------------------------------------*/
      if (((isrflags & USART_SR_RXNE) != RESET) && ((cr1its & USART_CR1_RXNEIE) != RESET))
 8004234:	6a7b      	ldr	r3, [r7, #36]	; 0x24
 8004236:	f003 0320 	and.w	r3, r3, #32
 800423a:	2b00      	cmp	r3, #0
 800423c:	d007      	beq.n	800424e <HAL_UART_IRQHandler+0x11e>
 800423e:	6a3b      	ldr	r3, [r7, #32]
 8004240:	f003 0320 	and.w	r3, r3, #32
 8004244:	2b00      	cmp	r3, #0
 8004246:	d002      	beq.n	800424e <HAL_UART_IRQHandler+0x11e>
      {
        UART_Receive_IT(huart);
 8004248:	6878      	ldr	r0, [r7, #4]
 800424a:	f000 fb9c 	bl	8004986 <UART_Receive_IT>
      }

      /* If Overrun error occurs, or if any error occurs in DMA mode reception,
         consider error as blocking */
      dmarequest = HAL_IS_BIT_SET(huart->Instance->CR3, USART_CR3_DMAR);
 800424e:	687b      	ldr	r3, [r7, #4]
 8004250:	681b      	ldr	r3, [r3, #0]
 8004252:	695b      	ldr	r3, [r3, #20]
 8004254:	f003 0340 	and.w	r3, r3, #64	; 0x40
 8004258:	2b40      	cmp	r3, #64	; 0x40
 800425a:	bf0c      	ite	eq
 800425c:	2301      	moveq	r3, #1
 800425e:	2300      	movne	r3, #0
 8004260:	b2db      	uxtb	r3, r3
 8004262:	617b      	str	r3, [r7, #20]
      if (((huart->ErrorCode & HAL_UART_ERROR_ORE) != RESET) || dmarequest)
 8004264:	687b      	ldr	r3, [r7, #4]
 8004266:	6c1b      	ldr	r3, [r3, #64]	; 0x40
 8004268:	f003 0308 	and.w	r3, r3, #8
 800426c:	2b00      	cmp	r3, #0
 800426e:	d102      	bne.n	8004276 <HAL_UART_IRQHandler+0x146>
 8004270:	697b      	ldr	r3, [r7, #20]
 8004272:	2b00      	cmp	r3, #0
 8004274:	d031      	beq.n	80042da <HAL_UART_IRQHandler+0x1aa>
      {
        /* Blocking error : transfer is aborted
           Set the UART state ready to be able to start again the process,
           Disable Rx Interrupts, and disable Rx DMA request, if ongoing */
        UART_EndRxTransfer(huart);
 8004276:	6878      	ldr	r0, [r7, #4]
 8004278:	f000 fadc 	bl	8004834 <UART_EndRxTransfer>

        /* Disable the UART DMA Rx request if enabled */
        if (HAL_IS_BIT_SET(huart->Instance->CR3, USART_CR3_DMAR))
 800427c:	687b      	ldr	r3, [r7, #4]
 800427e:	681b      	ldr	r3, [r3, #0]
 8004280:	695b      	ldr	r3, [r3, #20]
 8004282:	f003 0340 	and.w	r3, r3, #64	; 0x40
 8004286:	2b40      	cmp	r3, #64	; 0x40
 8004288:	d123      	bne.n	80042d2 <HAL_UART_IRQHandler+0x1a2>
        {
          CLEAR_BIT(huart->Instance->CR3, USART_CR3_DMAR);
 800428a:	687b      	ldr	r3, [r7, #4]
 800428c:	681b      	ldr	r3, [r3, #0]
 800428e:	695a      	ldr	r2, [r3, #20]
 8004290:	687b      	ldr	r3, [r7, #4]
 8004292:	681b      	ldr	r3, [r3, #0]
 8004294:	f022 0240 	bic.w	r2, r2, #64	; 0x40
 8004298:	615a      	str	r2, [r3, #20]

          /* Abort the UART DMA Rx stream */
          if (huart->hdmarx != NULL)
 800429a:	687b      	ldr	r3, [r7, #4]
 800429c:	6b9b      	ldr	r3, [r3, #56]	; 0x38
 800429e:	2b00      	cmp	r3, #0
 80042a0:	d013      	beq.n	80042ca <HAL_UART_IRQHandler+0x19a>
          {
            /* Set the UART DMA Abort callback :
               will lead to call HAL_UART_ErrorCallback() at end of DMA abort procedure */
            huart->hdmarx->XferAbortCallback = UART_DMAAbortOnError;
 80042a2:	687b      	ldr	r3, [r7, #4]
 80042a4:	6b9b      	ldr	r3, [r3, #56]	; 0x38
 80042a6:	4a77      	ldr	r2, [pc, #476]	; (8004484 <HAL_UART_IRQHandler+0x354>)
 80042a8:	651a      	str	r2, [r3, #80]	; 0x50
            if (HAL_DMA_Abort_IT(huart->hdmarx) != HAL_OK)
 80042aa:	687b      	ldr	r3, [r7, #4]
 80042ac:	6b9b      	ldr	r3, [r3, #56]	; 0x38
 80042ae:	4618      	mov	r0, r3
 80042b0:	f7fd fbd2 	bl	8001a58 <HAL_DMA_Abort_IT>
 80042b4:	4603      	mov	r3, r0
 80042b6:	2b00      	cmp	r3, #0
 80042b8:	d016      	beq.n	80042e8 <HAL_UART_IRQHandler+0x1b8>
            {
              /* Call Directly XferAbortCallback function in case of error */
              huart->hdmarx->XferAbortCallback(huart->hdmarx);
 80042ba:	687b      	ldr	r3, [r7, #4]
 80042bc:	6b9b      	ldr	r3, [r3, #56]	; 0x38
 80042be:	6d1b      	ldr	r3, [r3, #80]	; 0x50
 80042c0:	687a      	ldr	r2, [r7, #4]
 80042c2:	6b92      	ldr	r2, [r2, #56]	; 0x38
 80042c4:	4610      	mov	r0, r2
 80042c6:	4798      	blx	r3
        if (HAL_IS_BIT_SET(huart->Instance->CR3, USART_CR3_DMAR))
 80042c8:	e00e      	b.n	80042e8 <HAL_UART_IRQHandler+0x1b8>
#if (USE_HAL_UART_REGISTER_CALLBACKS == 1)
            /*Call registered error callback*/
            huart->ErrorCallback(huart);
#else
            /*Call legacy weak error callback*/
            HAL_UART_ErrorCallback(huart);
 80042ca:	6878      	ldr	r0, [r7, #4]
 80042cc:	f000 f8f0 	bl	80044b0 <HAL_UART_ErrorCallback>
        if (HAL_IS_BIT_SET(huart->Instance->CR3, USART_CR3_DMAR))
 80042d0:	e00a      	b.n	80042e8 <HAL_UART_IRQHandler+0x1b8>
#if (USE_HAL_UART_REGISTER_CALLBACKS == 1)
          /*Call registered error callback*/
          huart->ErrorCallback(huart);
#else
          /*Call legacy weak error callback*/
          HAL_UART_ErrorCallback(huart);
 80042d2:	6878      	ldr	r0, [r7, #4]
 80042d4:	f000 f8ec 	bl	80044b0 <HAL_UART_ErrorCallback>
        if (HAL_IS_BIT_SET(huart->Instance->CR3, USART_CR3_DMAR))
 80042d8:	e006      	b.n	80042e8 <HAL_UART_IRQHandler+0x1b8>
#if (USE_HAL_UART_REGISTER_CALLBACKS == 1)
        /*Call registered error callback*/
        huart->ErrorCallback(huart);
#else
        /*Call legacy weak error callback*/
        HAL_UART_ErrorCallback(huart);
 80042da:	6878      	ldr	r0, [r7, #4]
 80042dc:	f000 f8e8 	bl	80044b0 <HAL_UART_ErrorCallback>
#endif /* USE_HAL_UART_REGISTER_CALLBACKS */

        huart->ErrorCode = HAL_UART_ERROR_NONE;
 80042e0:	687b      	ldr	r3, [r7, #4]
 80042e2:	2200      	movs	r2, #0
 80042e4:	641a      	str	r2, [r3, #64]	; 0x40
      }
    }
    return;
 80042e6:	e0c4      	b.n	8004472 <HAL_UART_IRQHandler+0x342>
        if (HAL_IS_BIT_SET(huart->Instance->CR3, USART_CR3_DMAR))
 80042e8:	bf00      	nop
    return;
 80042ea:	e0c2      	b.n	8004472 <HAL_UART_IRQHandler+0x342>
  } /* End if some error occurs */

  /* Check current reception Mode :
     If Reception till IDLE event has been selected : */
  if (  (huart->ReceptionType == HAL_UART_RECEPTION_TOIDLE)
 80042ec:	687b      	ldr	r3, [r7, #4]
 80042ee:	6b1b      	ldr	r3, [r3, #48]	; 0x30
 80042f0:	2b01      	cmp	r3, #1
 80042f2:	f040 80a2 	bne.w	800443a <HAL_UART_IRQHandler+0x30a>
      &&((isrflags & USART_SR_IDLE) != 0U)
 80042f6:	6a7b      	ldr	r3, [r7, #36]	; 0x24
 80042f8:	f003 0310 	and.w	r3, r3, #16
 80042fc:	2b00      	cmp	r3, #0
 80042fe:	f000 809c 	beq.w	800443a <HAL_UART_IRQHandler+0x30a>
      &&((cr1its & USART_SR_IDLE) != 0U))
 8004302:	6a3b      	ldr	r3, [r7, #32]
 8004304:	f003 0310 	and.w	r3, r3, #16
 8004308:	2b00      	cmp	r3, #0
 800430a:	f000 8096 	beq.w	800443a <HAL_UART_IRQHandler+0x30a>
  {
    __HAL_UART_CLEAR_IDLEFLAG(huart);
 800430e:	2300      	movs	r3, #0
 8004310:	60fb      	str	r3, [r7, #12]
 8004312:	687b      	ldr	r3, [r7, #4]
 8004314:	681b      	ldr	r3, [r3, #0]
 8004316:	681b      	ldr	r3, [r3, #0]
 8004318:	60fb      	str	r3, [r7, #12]
 800431a:	687b      	ldr	r3, [r7, #4]
 800431c:	681b      	ldr	r3, [r3, #0]
 800431e:	685b      	ldr	r3, [r3, #4]
 8004320:	60fb      	str	r3, [r7, #12]
 8004322:	68fb      	ldr	r3, [r7, #12]

    /* Check if DMA mode is enabled in UART */
    if (HAL_IS_BIT_SET(huart->Instance->CR3, USART_CR3_DMAR))
 8004324:	687b      	ldr	r3, [r7, #4]
 8004326:	681b      	ldr	r3, [r3, #0]
 8004328:	695b      	ldr	r3, [r3, #20]
 800432a:	f003 0340 	and.w	r3, r3, #64	; 0x40
 800432e:	2b40      	cmp	r3, #64	; 0x40
 8004330:	d14f      	bne.n	80043d2 <HAL_UART_IRQHandler+0x2a2>
    {
      /* DMA mode enabled */
      /* Check received length : If all expected data are received, do nothing,
         (DMA cplt callback will be called).
         Otherwise, if at least one data has already been received, IDLE event is to be notified to user */
      uint16_t nb_remaining_rx_data = (uint16_t) __HAL_DMA_GET_COUNTER(huart->hdmarx);
 8004332:	687b      	ldr	r3, [r7, #4]
 8004334:	6b9b      	ldr	r3, [r3, #56]	; 0x38
 8004336:	681b      	ldr	r3, [r3, #0]
 8004338:	685b      	ldr	r3, [r3, #4]
 800433a:	823b      	strh	r3, [r7, #16]
      if (  (nb_remaining_rx_data > 0U)
 800433c:	8a3b      	ldrh	r3, [r7, #16]
 800433e:	2b00      	cmp	r3, #0
 8004340:	f000 8099 	beq.w	8004476 <HAL_UART_IRQHandler+0x346>
          &&(nb_remaining_rx_data < huart->RxXferSize))
 8004344:	687b      	ldr	r3, [r7, #4]
 8004346:	8d9b      	ldrh	r3, [r3, #44]	; 0x2c
 8004348:	8a3a      	ldrh	r2, [r7, #16]
 800434a:	429a      	cmp	r2, r3
 800434c:	f080 8093 	bcs.w	8004476 <HAL_UART_IRQHandler+0x346>
      {
        /* Reception is not complete */
        huart->RxXferCount = nb_remaining_rx_data;
 8004350:	687b      	ldr	r3, [r7, #4]
 8004352:	8a3a      	ldrh	r2, [r7, #16]
 8004354:	85da      	strh	r2, [r3, #46]	; 0x2e

        /* In Normal mode, end DMA xfer and HAL UART Rx process*/
        if (huart->hdmarx->Init.Mode != DMA_CIRCULAR)
 8004356:	687b      	ldr	r3, [r7, #4]
 8004358:	6b9b      	ldr	r3, [r3, #56]	; 0x38
 800435a:	69db      	ldr	r3, [r3, #28]
 800435c:	f5b3 7f80 	cmp.w	r3, #256	; 0x100
 8004360:	d02b      	beq.n	80043ba <HAL_UART_IRQHandler+0x28a>
        {
          /* Disable PE and ERR (Frame error, noise error, overrun error) interrupts */
          CLEAR_BIT(huart->Instance->CR1, USART_CR1_PEIE);
 8004362:	687b      	ldr	r3, [r7, #4]
 8004364:	681b      	ldr	r3, [r3, #0]
 8004366:	68da      	ldr	r2, [r3, #12]
 8004368:	687b      	ldr	r3, [r7, #4]
 800436a:	681b      	ldr	r3, [r3, #0]
 800436c:	f422 7280 	bic.w	r2, r2, #256	; 0x100
 8004370:	60da      	str	r2, [r3, #12]
          CLEAR_BIT(huart->Instance->CR3, USART_CR3_EIE);
 8004372:	687b      	ldr	r3, [r7, #4]
 8004374:	681b      	ldr	r3, [r3, #0]
 8004376:	695a      	ldr	r2, [r3, #20]
 8004378:	687b      	ldr	r3, [r7, #4]
 800437a:	681b      	ldr	r3, [r3, #0]
 800437c:	f022 0201 	bic.w	r2, r2, #1
 8004380:	615a      	str	r2, [r3, #20]

          /* Disable the DMA transfer for the receiver request by resetting the DMAR bit
             in the UART CR3 register */
          CLEAR_BIT(huart->Instance->CR3, USART_CR3_DMAR);
 8004382:	687b      	ldr	r3, [r7, #4]
 8004384:	681b      	ldr	r3, [r3, #0]
 8004386:	695a      	ldr	r2, [r3, #20]
 8004388:	687b      	ldr	r3, [r7, #4]
 800438a:	681b      	ldr	r3, [r3, #0]
 800438c:	f022 0240 	bic.w	r2, r2, #64	; 0x40
 8004390:	615a      	str	r2, [r3, #20]

          /* At end of Rx process, restore huart->RxState to Ready */
          huart->RxState = HAL_UART_STATE_READY;
 8004392:	687b      	ldr	r3, [r7, #4]
 8004394:	2220      	movs	r2, #32
 8004396:	f883 203e 	strb.w	r2, [r3, #62]	; 0x3e
          huart->ReceptionType = HAL_UART_RECEPTION_STANDARD;
 800439a:	687b      	ldr	r3, [r7, #4]
 800439c:	2200      	movs	r2, #0
 800439e:	631a      	str	r2, [r3, #48]	; 0x30

          CLEAR_BIT(huart->Instance->CR1, USART_CR1_IDLEIE);
 80043a0:	687b      	ldr	r3, [r7, #4]
 80043a2:	681b      	ldr	r3, [r3, #0]
 80043a4:	68da      	ldr	r2, [r3, #12]
 80043a6:	687b      	ldr	r3, [r7, #4]
 80043a8:	681b      	ldr	r3, [r3, #0]
 80043aa:	f022 0210 	bic.w	r2, r2, #16
 80043ae:	60da      	str	r2, [r3, #12]

          /* Last bytes received, so no need as the abort is immediate */
          (void)HAL_DMA_Abort(huart->hdmarx);
 80043b0:	687b      	ldr	r3, [r7, #4]
 80043b2:	6b9b      	ldr	r3, [r3, #56]	; 0x38
 80043b4:	4618      	mov	r0, r3
 80043b6:	f7fd fadf 	bl	8001978 <HAL_DMA_Abort>
#if (USE_HAL_UART_REGISTER_CALLBACKS == 1)
        /*Call registered Rx Event callback*/
        huart->RxEventCallback(huart, (huart->RxXferSize - huart->RxXferCount));
#else
        /*Call legacy weak Rx Event callback*/
        HAL_UARTEx_RxEventCallback(huart, (huart->RxXferSize - huart->RxXferCount));
 80043ba:	687b      	ldr	r3, [r7, #4]
 80043bc:	8d9a      	ldrh	r2, [r3, #44]	; 0x2c
 80043be:	687b      	ldr	r3, [r7, #4]
 80043c0:	8ddb      	ldrh	r3, [r3, #46]	; 0x2e
 80043c2:	b29b      	uxth	r3, r3
 80043c4:	1ad3      	subs	r3, r2, r3
 80043c6:	b29b      	uxth	r3, r3
 80043c8:	4619      	mov	r1, r3
 80043ca:	6878      	ldr	r0, [r7, #4]
 80043cc:	f000 f87a 	bl	80044c4 <HAL_UARTEx_RxEventCallback>
#endif
      }
      return;
 80043d0:	e051      	b.n	8004476 <HAL_UART_IRQHandler+0x346>
    else
    {
      /* DMA mode not enabled */
      /* Check received length : If all expected data are received, do nothing.
         Otherwise, if at least one data has already been received, IDLE event is to be notified to user */
      uint16_t nb_rx_data = huart->RxXferSize - huart->RxXferCount;
 80043d2:	687b      	ldr	r3, [r7, #4]
 80043d4:	8d9a      	ldrh	r2, [r3, #44]	; 0x2c
 80043d6:	687b      	ldr	r3, [r7, #4]
 80043d8:	8ddb      	ldrh	r3, [r3, #46]	; 0x2e
 80043da:	b29b      	uxth	r3, r3
 80043dc:	1ad3      	subs	r3, r2, r3
 80043de:	827b      	strh	r3, [r7, #18]
      if (  (huart->RxXferCount > 0U)
 80043e0:	687b      	ldr	r3, [r7, #4]
 80043e2:	8ddb      	ldrh	r3, [r3, #46]	; 0x2e
 80043e4:	b29b      	uxth	r3, r3
 80043e6:	2b00      	cmp	r3, #0
 80043e8:	d047      	beq.n	800447a <HAL_UART_IRQHandler+0x34a>
          &&(nb_rx_data > 0U) )
 80043ea:	8a7b      	ldrh	r3, [r7, #18]
 80043ec:	2b00      	cmp	r3, #0
 80043ee:	d044      	beq.n	800447a <HAL_UART_IRQHandler+0x34a>
      {
        /* Disable the UART Parity Error Interrupt and RXNE interrupts */
        CLEAR_BIT(huart->Instance->CR1, (USART_CR1_RXNEIE | USART_CR1_PEIE));
 80043f0:	687b      	ldr	r3, [r7, #4]
 80043f2:	681b      	ldr	r3, [r3, #0]
 80043f4:	68da      	ldr	r2, [r3, #12]
 80043f6:	687b      	ldr	r3, [r7, #4]
 80043f8:	681b      	ldr	r3, [r3, #0]
 80043fa:	f422 7290 	bic.w	r2, r2, #288	; 0x120
 80043fe:	60da      	str	r2, [r3, #12]

        /* Disable the UART Error Interrupt: (Frame error, noise error, overrun error) */
        CLEAR_BIT(huart->Instance->CR3, USART_CR3_EIE);
 8004400:	687b      	ldr	r3, [r7, #4]
 8004402:	681b      	ldr	r3, [r3, #0]
 8004404:	695a      	ldr	r2, [r3, #20]
 8004406:	687b      	ldr	r3, [r7, #4]
 8004408:	681b      	ldr	r3, [r3, #0]
 800440a:	f022 0201 	bic.w	r2, r2, #1
 800440e:	615a      	str	r2, [r3, #20]

        /* Rx process is completed, restore huart->RxState to Ready */
        huart->RxState = HAL_UART_STATE_READY;
 8004410:	687b      	ldr	r3, [r7, #4]
 8004412:	2220      	movs	r2, #32
 8004414:	f883 203e 	strb.w	r2, [r3, #62]	; 0x3e
        huart->ReceptionType = HAL_UART_RECEPTION_STANDARD;
 8004418:	687b      	ldr	r3, [r7, #4]
 800441a:	2200      	movs	r2, #0
 800441c:	631a      	str	r2, [r3, #48]	; 0x30

        CLEAR_BIT(huart->Instance->CR1, USART_CR1_IDLEIE);
 800441e:	687b      	ldr	r3, [r7, #4]
 8004420:	681b      	ldr	r3, [r3, #0]
 8004422:	68da      	ldr	r2, [r3, #12]
 8004424:	687b      	ldr	r3, [r7, #4]
 8004426:	681b      	ldr	r3, [r3, #0]
 8004428:	f022 0210 	bic.w	r2, r2, #16
 800442c:	60da      	str	r2, [r3, #12]
#if (USE_HAL_UART_REGISTER_CALLBACKS == 1)
        /*Call registered Rx complete callback*/
        huart->RxEventCallback(huart, nb_rx_data);
#else
        /*Call legacy weak Rx Event callback*/
        HAL_UARTEx_RxEventCallback(huart, nb_rx_data);
 800442e:	8a7b      	ldrh	r3, [r7, #18]
 8004430:	4619      	mov	r1, r3
 8004432:	6878      	ldr	r0, [r7, #4]
 8004434:	f000 f846 	bl	80044c4 <HAL_UARTEx_RxEventCallback>
#endif
      }
      return;
 8004438:	e01f      	b.n	800447a <HAL_UART_IRQHandler+0x34a>
    }
  }

  /* UART in mode Transmitter ------------------------------------------------*/
  if (((isrflags & USART_SR_TXE) != RESET) && ((cr1its & USART_CR1_TXEIE) != RESET))
 800443a:	6a7b      	ldr	r3, [r7, #36]	; 0x24
 800443c:	f003 0380 	and.w	r3, r3, #128	; 0x80
 8004440:	2b00      	cmp	r3, #0
 8004442:	d008      	beq.n	8004456 <HAL_UART_IRQHandler+0x326>
 8004444:	6a3b      	ldr	r3, [r7, #32]
 8004446:	f003 0380 	and.w	r3, r3, #128	; 0x80
 800444a:	2b00      	cmp	r3, #0
 800444c:	d003      	beq.n	8004456 <HAL_UART_IRQHandler+0x326>
  {
    UART_Transmit_IT(huart);
 800444e:	6878      	ldr	r0, [r7, #4]
 8004450:	f000 fa31 	bl	80048b6 <UART_Transmit_IT>
    return;
 8004454:	e012      	b.n	800447c <HAL_UART_IRQHandler+0x34c>
  }

  /* UART in mode Transmitter end --------------------------------------------*/
  if (((isrflags & USART_SR_TC) != RESET) && ((cr1its & USART_CR1_TCIE) != RESET))
 8004456:	6a7b      	ldr	r3, [r7, #36]	; 0x24
 8004458:	f003 0340 	and.w	r3, r3, #64	; 0x40
 800445c:	2b00      	cmp	r3, #0
 800445e:	d00d      	beq.n	800447c <HAL_UART_IRQHandler+0x34c>
 8004460:	6a3b      	ldr	r3, [r7, #32]
 8004462:	f003 0340 	and.w	r3, r3, #64	; 0x40
 8004466:	2b00      	cmp	r3, #0
 8004468:	d008      	beq.n	800447c <HAL_UART_IRQHandler+0x34c>
  {
    UART_EndTransmit_IT(huart);
 800446a:	6878      	ldr	r0, [r7, #4]
 800446c:	f000 fa73 	bl	8004956 <UART_EndTransmit_IT>
    return;
 8004470:	e004      	b.n	800447c <HAL_UART_IRQHandler+0x34c>
    return;
 8004472:	bf00      	nop
 8004474:	e002      	b.n	800447c <HAL_UART_IRQHandler+0x34c>
      return;
 8004476:	bf00      	nop
 8004478:	e000      	b.n	800447c <HAL_UART_IRQHandler+0x34c>
      return;
 800447a:	bf00      	nop
  }
}
 800447c:	3728      	adds	r7, #40	; 0x28
 800447e:	46bd      	mov	sp, r7
 8004480:	bd80      	pop	{r7, pc}
 8004482:	bf00      	nop
 8004484:	0800488f 	.word	0x0800488f

08004488 <HAL_UART_TxHalfCpltCallback>:
  * @param  huart  Pointer to a UART_HandleTypeDef structure that contains
  *                the configuration information for the specified UART module.
  * @retval None
  */
__weak void HAL_UART_TxHalfCpltCallback(UART_HandleTypeDef *huart)
{
 8004488:	b480      	push	{r7}
 800448a:	b083      	sub	sp, #12
 800448c:	af00      	add	r7, sp, #0
 800448e:	6078      	str	r0, [r7, #4]
  /* Prevent unused argument(s) compilation warning */
  UNUSED(huart);
  /* NOTE: This function should not be modified, when the callback is needed,
           the HAL_UART_TxHalfCpltCallback could be implemented in the user file
   */
}
 8004490:	bf00      	nop
 8004492:	370c      	adds	r7, #12
 8004494:	46bd      	mov	sp, r7
 8004496:	f85d 7b04 	ldr.w	r7, [sp], #4
 800449a:	4770      	bx	lr

0800449c <HAL_UART_RxHalfCpltCallback>:
  * @param  huart  Pointer to a UART_HandleTypeDef structure that contains
  *                the configuration information for the specified UART module.
  * @retval None
  */
__weak void HAL_UART_RxHalfCpltCallback(UART_HandleTypeDef *huart)
{
 800449c:	b480      	push	{r7}
 800449e:	b083      	sub	sp, #12
 80044a0:	af00      	add	r7, sp, #0
 80044a2:	6078      	str	r0, [r7, #4]
  /* Prevent unused argument(s) compilation warning */
  UNUSED(huart);
  /* NOTE: This function should not be modified, when the callback is needed,
           the HAL_UART_RxHalfCpltCallback could be implemented in the user file
   */
}
 80044a4:	bf00      	nop
 80044a6:	370c      	adds	r7, #12
 80044a8:	46bd      	mov	sp, r7
 80044aa:	f85d 7b04 	ldr.w	r7, [sp], #4
 80044ae:	4770      	bx	lr

080044b0 <HAL_UART_ErrorCallback>:
  * @param  huart  Pointer to a UART_HandleTypeDef structure that contains
  *                the configuration information for the specified UART module.
  * @retval None
  */
__weak void HAL_UART_ErrorCallback(UART_HandleTypeDef *huart)
{
 80044b0:	b480      	push	{r7}
 80044b2:	b083      	sub	sp, #12
 80044b4:	af00      	add	r7, sp, #0
 80044b6:	6078      	str	r0, [r7, #4]
  /* Prevent unused argument(s) compilation warning */
  UNUSED(huart);
  /* NOTE: This function should not be modified, when the callback is needed,
           the HAL_UART_ErrorCallback could be implemented in the user file
   */
}
 80044b8:	bf00      	nop
 80044ba:	370c      	adds	r7, #12
 80044bc:	46bd      	mov	sp, r7
 80044be:	f85d 7b04 	ldr.w	r7, [sp], #4
 80044c2:	4770      	bx	lr

080044c4 <HAL_UARTEx_RxEventCallback>:
  * @param  Size  Number of data available in application reception buffer (indicates a position in
  *               reception buffer until which, data are available)
  * @retval None
  */
__weak void HAL_UARTEx_RxEventCallback(UART_HandleTypeDef *huart, uint16_t Size)
{
 80044c4:	b480      	push	{r7}
 80044c6:	b083      	sub	sp, #12
 80044c8:	af00      	add	r7, sp, #0
 80044ca:	6078      	str	r0, [r7, #4]
 80044cc:	460b      	mov	r3, r1
 80044ce:	807b      	strh	r3, [r7, #2]
  UNUSED(Size);

  /* NOTE : This function should not be modified, when the callback is needed,
            the HAL_UARTEx_RxEventCallback can be implemented in the user file.
   */
}
 80044d0:	bf00      	nop
 80044d2:	370c      	adds	r7, #12
 80044d4:	46bd      	mov	sp, r7
 80044d6:	f85d 7b04 	ldr.w	r7, [sp], #4
 80044da:	4770      	bx	lr

080044dc <UART_DMATransmitCplt>:
  * @param  hdma  Pointer to a DMA_HandleTypeDef structure that contains
  *               the configuration information for the specified DMA module.
  * @retval None
  */
static void UART_DMATransmitCplt(DMA_HandleTypeDef *hdma)
{
 80044dc:	b580      	push	{r7, lr}
 80044de:	b084      	sub	sp, #16
 80044e0:	af00      	add	r7, sp, #0
 80044e2:	6078      	str	r0, [r7, #4]
  UART_HandleTypeDef *huart = (UART_HandleTypeDef *)((DMA_HandleTypeDef *)hdma)->Parent;
 80044e4:	687b      	ldr	r3, [r7, #4]
 80044e6:	6b9b      	ldr	r3, [r3, #56]	; 0x38
 80044e8:	60fb      	str	r3, [r7, #12]
  /* DMA Normal mode*/
  if ((hdma->Instance->CR & DMA_SxCR_CIRC) == 0U)
 80044ea:	687b      	ldr	r3, [r7, #4]
 80044ec:	681b      	ldr	r3, [r3, #0]
 80044ee:	681b      	ldr	r3, [r3, #0]
 80044f0:	f403 7380 	and.w	r3, r3, #256	; 0x100
 80044f4:	2b00      	cmp	r3, #0
 80044f6:	d113      	bne.n	8004520 <UART_DMATransmitCplt+0x44>
  {
    huart->TxXferCount = 0x00U;
 80044f8:	68fb      	ldr	r3, [r7, #12]
 80044fa:	2200      	movs	r2, #0
 80044fc:	84da      	strh	r2, [r3, #38]	; 0x26

    /* Disable the DMA transfer for transmit request by setting the DMAT bit
       in the UART CR3 register */
    CLEAR_BIT(huart->Instance->CR3, USART_CR3_DMAT);
 80044fe:	68fb      	ldr	r3, [r7, #12]
 8004500:	681b      	ldr	r3, [r3, #0]
 8004502:	695a      	ldr	r2, [r3, #20]
 8004504:	68fb      	ldr	r3, [r7, #12]
 8004506:	681b      	ldr	r3, [r3, #0]
 8004508:	f022 0280 	bic.w	r2, r2, #128	; 0x80
 800450c:	615a      	str	r2, [r3, #20]

    /* Enable the UART Transmit Complete Interrupt */
    SET_BIT(huart->Instance->CR1, USART_CR1_TCIE);
 800450e:	68fb      	ldr	r3, [r7, #12]
 8004510:	681b      	ldr	r3, [r3, #0]
 8004512:	68da      	ldr	r2, [r3, #12]
 8004514:	68fb      	ldr	r3, [r7, #12]
 8004516:	681b      	ldr	r3, [r3, #0]
 8004518:	f042 0240 	orr.w	r2, r2, #64	; 0x40
 800451c:	60da      	str	r2, [r3, #12]
#else
    /*Call legacy weak Tx complete callback*/
    HAL_UART_TxCpltCallback(huart);
#endif /* USE_HAL_UART_REGISTER_CALLBACKS */
  }
}
 800451e:	e002      	b.n	8004526 <UART_DMATransmitCplt+0x4a>
    HAL_UART_TxCpltCallback(huart);
 8004520:	68f8      	ldr	r0, [r7, #12]
 8004522:	f7fc ff63 	bl	80013ec <HAL_UART_TxCpltCallback>
}
 8004526:	bf00      	nop
 8004528:	3710      	adds	r7, #16
 800452a:	46bd      	mov	sp, r7
 800452c:	bd80      	pop	{r7, pc}

0800452e <UART_DMATxHalfCplt>:
  * @param  hdma  Pointer to a DMA_HandleTypeDef structure that contains
  *               the configuration information for the specified DMA module.
  * @retval None
  */
static void UART_DMATxHalfCplt(DMA_HandleTypeDef *hdma)
{
 800452e:	b580      	push	{r7, lr}
 8004530:	b084      	sub	sp, #16
 8004532:	af00      	add	r7, sp, #0
 8004534:	6078      	str	r0, [r7, #4]
  UART_HandleTypeDef *huart = (UART_HandleTypeDef *)((DMA_HandleTypeDef *)hdma)->Parent;
 8004536:	687b      	ldr	r3, [r7, #4]
 8004538:	6b9b      	ldr	r3, [r3, #56]	; 0x38
 800453a:	60fb      	str	r3, [r7, #12]
#if (USE_HAL_UART_REGISTER_CALLBACKS == 1)
  /*Call registered Tx complete callback*/
  huart->TxHalfCpltCallback(huart);
#else
  /*Call legacy weak Tx complete callback*/
  HAL_UART_TxHalfCpltCallback(huart);
 800453c:	68f8      	ldr	r0, [r7, #12]
 800453e:	f7ff ffa3 	bl	8004488 <HAL_UART_TxHalfCpltCallback>
#endif /* USE_HAL_UART_REGISTER_CALLBACKS */
}
 8004542:	bf00      	nop
 8004544:	3710      	adds	r7, #16
 8004546:	46bd      	mov	sp, r7
 8004548:	bd80      	pop	{r7, pc}

0800454a <UART_DMAReceiveCplt>:
  * @param  hdma  Pointer to a DMA_HandleTypeDef structure that contains
  *               the configuration information for the specified DMA module.
  * @retval None
  */
static void UART_DMAReceiveCplt(DMA_HandleTypeDef *hdma)
{
 800454a:	b580      	push	{r7, lr}
 800454c:	b084      	sub	sp, #16
 800454e:	af00      	add	r7, sp, #0
 8004550:	6078      	str	r0, [r7, #4]
  UART_HandleTypeDef *huart = (UART_HandleTypeDef *)((DMA_HandleTypeDef *)hdma)->Parent;
 8004552:	687b      	ldr	r3, [r7, #4]
 8004554:	6b9b      	ldr	r3, [r3, #56]	; 0x38
 8004556:	60fb      	str	r3, [r7, #12]
  /* DMA Normal mode*/
  if ((hdma->Instance->CR & DMA_SxCR_CIRC) == 0U)
 8004558:	687b      	ldr	r3, [r7, #4]
 800455a:	681b      	ldr	r3, [r3, #0]
 800455c:	681b      	ldr	r3, [r3, #0]
 800455e:	f403 7380 	and.w	r3, r3, #256	; 0x100
 8004562:	2b00      	cmp	r3, #0
 8004564:	d12a      	bne.n	80045bc <UART_DMAReceiveCplt+0x72>
  {
    huart->RxXferCount = 0U;
 8004566:	68fb      	ldr	r3, [r7, #12]
 8004568:	2200      	movs	r2, #0
 800456a:	85da      	strh	r2, [r3, #46]	; 0x2e

    /* Disable RXNE, PE and ERR (Frame error, noise error, overrun error) interrupts */
    CLEAR_BIT(huart->Instance->CR1, USART_CR1_PEIE);
 800456c:	68fb      	ldr	r3, [r7, #12]
 800456e:	681b      	ldr	r3, [r3, #0]
 8004570:	68da      	ldr	r2, [r3, #12]
 8004572:	68fb      	ldr	r3, [r7, #12]
 8004574:	681b      	ldr	r3, [r3, #0]
 8004576:	f422 7280 	bic.w	r2, r2, #256	; 0x100
 800457a:	60da      	str	r2, [r3, #12]
    CLEAR_BIT(huart->Instance->CR3, USART_CR3_EIE);
 800457c:	68fb      	ldr	r3, [r7, #12]
 800457e:	681b      	ldr	r3, [r3, #0]
 8004580:	695a      	ldr	r2, [r3, #20]
 8004582:	68fb      	ldr	r3, [r7, #12]
 8004584:	681b      	ldr	r3, [r3, #0]
 8004586:	f022 0201 	bic.w	r2, r2, #1
 800458a:	615a      	str	r2, [r3, #20]

    /* Disable the DMA transfer for the receiver request by setting the DMAR bit
       in the UART CR3 register */
    CLEAR_BIT(huart->Instance->CR3, USART_CR3_DMAR);
 800458c:	68fb      	ldr	r3, [r7, #12]
 800458e:	681b      	ldr	r3, [r3, #0]
 8004590:	695a      	ldr	r2, [r3, #20]
 8004592:	68fb      	ldr	r3, [r7, #12]
 8004594:	681b      	ldr	r3, [r3, #0]
 8004596:	f022 0240 	bic.w	r2, r2, #64	; 0x40
 800459a:	615a      	str	r2, [r3, #20]

    /* At end of Rx process, restore huart->RxState to Ready */
    huart->RxState = HAL_UART_STATE_READY;
 800459c:	68fb      	ldr	r3, [r7, #12]
 800459e:	2220      	movs	r2, #32
 80045a0:	f883 203e 	strb.w	r2, [r3, #62]	; 0x3e

    /* If Reception till IDLE event has been selected, Disable IDLE Interrupt */
    if (huart->ReceptionType == HAL_UART_RECEPTION_TOIDLE)
 80045a4:	68fb      	ldr	r3, [r7, #12]
 80045a6:	6b1b      	ldr	r3, [r3, #48]	; 0x30
 80045a8:	2b01      	cmp	r3, #1
 80045aa:	d107      	bne.n	80045bc <UART_DMAReceiveCplt+0x72>
    {
      CLEAR_BIT(huart->Instance->CR1, USART_CR1_IDLEIE);
 80045ac:	68fb      	ldr	r3, [r7, #12]
 80045ae:	681b      	ldr	r3, [r3, #0]
 80045b0:	68da      	ldr	r2, [r3, #12]
 80045b2:	68fb      	ldr	r3, [r7, #12]
 80045b4:	681b      	ldr	r3, [r3, #0]
 80045b6:	f022 0210 	bic.w	r2, r2, #16
 80045ba:	60da      	str	r2, [r3, #12]
    }
  }

  /* Check current reception Mode :
     If Reception till IDLE event has been selected : use Rx Event callback */
  if (huart->ReceptionType == HAL_UART_RECEPTION_TOIDLE)
 80045bc:	68fb      	ldr	r3, [r7, #12]
 80045be:	6b1b      	ldr	r3, [r3, #48]	; 0x30
 80045c0:	2b01      	cmp	r3, #1
 80045c2:	d106      	bne.n	80045d2 <UART_DMAReceiveCplt+0x88>
#if (USE_HAL_UART_REGISTER_CALLBACKS == 1)
    /*Call registered Rx Event callback*/
    huart->RxEventCallback(huart, huart->RxXferSize);
#else
    /*Call legacy weak Rx Event callback*/
    HAL_UARTEx_RxEventCallback(huart, huart->RxXferSize);
 80045c4:	68fb      	ldr	r3, [r7, #12]
 80045c6:	8d9b      	ldrh	r3, [r3, #44]	; 0x2c
 80045c8:	4619      	mov	r1, r3
 80045ca:	68f8      	ldr	r0, [r7, #12]
 80045cc:	f7ff ff7a 	bl	80044c4 <HAL_UARTEx_RxEventCallback>
#else
    /*Call legacy weak Rx complete callback*/
    HAL_UART_RxCpltCallback(huart);
#endif /* USE_HAL_UART_REGISTER_CALLBACKS */
  }
}
 80045d0:	e002      	b.n	80045d8 <UART_DMAReceiveCplt+0x8e>
    HAL_UART_RxCpltCallback(huart);
 80045d2:	68f8      	ldr	r0, [r7, #12]
 80045d4:	f7fc fe60 	bl	8001298 <HAL_UART_RxCpltCallback>
}
 80045d8:	bf00      	nop
 80045da:	3710      	adds	r7, #16
 80045dc:	46bd      	mov	sp, r7
 80045de:	bd80      	pop	{r7, pc}

080045e0 <UART_DMARxHalfCplt>:
  * @param  hdma  Pointer to a DMA_HandleTypeDef structure that contains
  *               the configuration information for the specified DMA module.
  * @retval None
  */
static void UART_DMARxHalfCplt(DMA_HandleTypeDef *hdma)
{
 80045e0:	b580      	push	{r7, lr}
 80045e2:	b084      	sub	sp, #16
 80045e4:	af00      	add	r7, sp, #0
 80045e6:	6078      	str	r0, [r7, #4]
  UART_HandleTypeDef *huart = (UART_HandleTypeDef *)((DMA_HandleTypeDef *)hdma)->Parent;
 80045e8:	687b      	ldr	r3, [r7, #4]
 80045ea:	6b9b      	ldr	r3, [r3, #56]	; 0x38
 80045ec:	60fb      	str	r3, [r7, #12]

  /* Check current reception Mode :
     If Reception till IDLE event has been selected : use Rx Event callback */
  if (huart->ReceptionType == HAL_UART_RECEPTION_TOIDLE)
 80045ee:	68fb      	ldr	r3, [r7, #12]
 80045f0:	6b1b      	ldr	r3, [r3, #48]	; 0x30
 80045f2:	2b01      	cmp	r3, #1
 80045f4:	d108      	bne.n	8004608 <UART_DMARxHalfCplt+0x28>
#if (USE_HAL_UART_REGISTER_CALLBACKS == 1)
    /*Call registered Rx Event callback*/
    huart->RxEventCallback(huart, huart->RxXferSize/2U);
#else
    /*Call legacy weak Rx Event callback*/
    HAL_UARTEx_RxEventCallback(huart, huart->RxXferSize/2U);
 80045f6:	68fb      	ldr	r3, [r7, #12]
 80045f8:	8d9b      	ldrh	r3, [r3, #44]	; 0x2c
 80045fa:	085b      	lsrs	r3, r3, #1
 80045fc:	b29b      	uxth	r3, r3
 80045fe:	4619      	mov	r1, r3
 8004600:	68f8      	ldr	r0, [r7, #12]
 8004602:	f7ff ff5f 	bl	80044c4 <HAL_UARTEx_RxEventCallback>
#else
    /*Call legacy weak Rx Half complete callback*/
    HAL_UART_RxHalfCpltCallback(huart);
#endif /* USE_HAL_UART_REGISTER_CALLBACKS */
  }
}
 8004606:	e002      	b.n	800460e <UART_DMARxHalfCplt+0x2e>
    HAL_UART_RxHalfCpltCallback(huart);
 8004608:	68f8      	ldr	r0, [r7, #12]
 800460a:	f7ff ff47 	bl	800449c <HAL_UART_RxHalfCpltCallback>
}
 800460e:	bf00      	nop
 8004610:	3710      	adds	r7, #16
 8004612:	46bd      	mov	sp, r7
 8004614:	bd80      	pop	{r7, pc}

08004616 <UART_DMAError>:
  * @param  hdma  Pointer to a DMA_HandleTypeDef structure that contains
  *               the configuration information for the specified DMA module.
  * @retval None
  */
static void UART_DMAError(DMA_HandleTypeDef *hdma)
{
 8004616:	b580      	push	{r7, lr}
 8004618:	b084      	sub	sp, #16
 800461a:	af00      	add	r7, sp, #0
 800461c:	6078      	str	r0, [r7, #4]
  uint32_t dmarequest = 0x00U;
 800461e:	2300      	movs	r3, #0
 8004620:	60fb      	str	r3, [r7, #12]
  UART_HandleTypeDef *huart = (UART_HandleTypeDef *)((DMA_HandleTypeDef *)hdma)->Parent;
 8004622:	687b      	ldr	r3, [r7, #4]
 8004624:	6b9b      	ldr	r3, [r3, #56]	; 0x38
 8004626:	60bb      	str	r3, [r7, #8]

  /* Stop UART DMA Tx request if ongoing */
  dmarequest = HAL_IS_BIT_SET(huart->Instance->CR3, USART_CR3_DMAT);
 8004628:	68bb      	ldr	r3, [r7, #8]
 800462a:	681b      	ldr	r3, [r3, #0]
 800462c:	695b      	ldr	r3, [r3, #20]
 800462e:	f003 0380 	and.w	r3, r3, #128	; 0x80
 8004632:	2b80      	cmp	r3, #128	; 0x80
 8004634:	bf0c      	ite	eq
 8004636:	2301      	moveq	r3, #1
 8004638:	2300      	movne	r3, #0
 800463a:	b2db      	uxtb	r3, r3
 800463c:	60fb      	str	r3, [r7, #12]
  if ((huart->gState == HAL_UART_STATE_BUSY_TX) && dmarequest)
 800463e:	68bb      	ldr	r3, [r7, #8]
 8004640:	f893 303d 	ldrb.w	r3, [r3, #61]	; 0x3d
 8004644:	b2db      	uxtb	r3, r3
 8004646:	2b21      	cmp	r3, #33	; 0x21
 8004648:	d108      	bne.n	800465c <UART_DMAError+0x46>
 800464a:	68fb      	ldr	r3, [r7, #12]
 800464c:	2b00      	cmp	r3, #0
 800464e:	d005      	beq.n	800465c <UART_DMAError+0x46>
  {
    huart->TxXferCount = 0x00U;
 8004650:	68bb      	ldr	r3, [r7, #8]
 8004652:	2200      	movs	r2, #0
 8004654:	84da      	strh	r2, [r3, #38]	; 0x26
    UART_EndTxTransfer(huart);
 8004656:	68b8      	ldr	r0, [r7, #8]
 8004658:	f000 f8d6 	bl	8004808 <UART_EndTxTransfer>
  }

  /* Stop UART DMA Rx request if ongoing */
  dmarequest = HAL_IS_BIT_SET(huart->Instance->CR3, USART_CR3_DMAR);
 800465c:	68bb      	ldr	r3, [r7, #8]
 800465e:	681b      	ldr	r3, [r3, #0]
 8004660:	695b      	ldr	r3, [r3, #20]
 8004662:	f003 0340 	and.w	r3, r3, #64	; 0x40
 8004666:	2b40      	cmp	r3, #64	; 0x40
 8004668:	bf0c      	ite	eq
 800466a:	2301      	moveq	r3, #1
 800466c:	2300      	movne	r3, #0
 800466e:	b2db      	uxtb	r3, r3
 8004670:	60fb      	str	r3, [r7, #12]
  if ((huart->RxState == HAL_UART_STATE_BUSY_RX) && dmarequest)
 8004672:	68bb      	ldr	r3, [r7, #8]
 8004674:	f893 303e 	ldrb.w	r3, [r3, #62]	; 0x3e
 8004678:	b2db      	uxtb	r3, r3
 800467a:	2b22      	cmp	r3, #34	; 0x22
 800467c:	d108      	bne.n	8004690 <UART_DMAError+0x7a>
 800467e:	68fb      	ldr	r3, [r7, #12]
 8004680:	2b00      	cmp	r3, #0
 8004682:	d005      	beq.n	8004690 <UART_DMAError+0x7a>
  {
    huart->RxXferCount = 0x00U;
 8004684:	68bb      	ldr	r3, [r7, #8]
 8004686:	2200      	movs	r2, #0
 8004688:	85da      	strh	r2, [r3, #46]	; 0x2e
    UART_EndRxTransfer(huart);
 800468a:	68b8      	ldr	r0, [r7, #8]
 800468c:	f000 f8d2 	bl	8004834 <UART_EndRxTransfer>
  }

  huart->ErrorCode |= HAL_UART_ERROR_DMA;
 8004690:	68bb      	ldr	r3, [r7, #8]
 8004692:	6c1b      	ldr	r3, [r3, #64]	; 0x40
 8004694:	f043 0210 	orr.w	r2, r3, #16
 8004698:	68bb      	ldr	r3, [r7, #8]
 800469a:	641a      	str	r2, [r3, #64]	; 0x40
#if (USE_HAL_UART_REGISTER_CALLBACKS == 1)
  /*Call registered error callback*/
  huart->ErrorCallback(huart);
#else
  /*Call legacy weak error callback*/
  HAL_UART_ErrorCallback(huart);
 800469c:	68b8      	ldr	r0, [r7, #8]
 800469e:	f7ff ff07 	bl	80044b0 <HAL_UART_ErrorCallback>
#endif /* USE_HAL_UART_REGISTER_CALLBACKS */
}
 80046a2:	bf00      	nop
 80046a4:	3710      	adds	r7, #16
 80046a6:	46bd      	mov	sp, r7
 80046a8:	bd80      	pop	{r7, pc}

080046aa <UART_WaitOnFlagUntilTimeout>:
  * @param  Tickstart Tick start value
  * @param  Timeout Timeout duration
  * @retval HAL status
  */
static HAL_StatusTypeDef UART_WaitOnFlagUntilTimeout(UART_HandleTypeDef *huart, uint32_t Flag, FlagStatus Status, uint32_t Tickstart, uint32_t Timeout)
{
 80046aa:	b580      	push	{r7, lr}
 80046ac:	b084      	sub	sp, #16
 80046ae:	af00      	add	r7, sp, #0
 80046b0:	60f8      	str	r0, [r7, #12]
 80046b2:	60b9      	str	r1, [r7, #8]
 80046b4:	603b      	str	r3, [r7, #0]
 80046b6:	4613      	mov	r3, r2
 80046b8:	71fb      	strb	r3, [r7, #7]
  /* Wait until flag is set */
  while ((__HAL_UART_GET_FLAG(huart, Flag) ? SET : RESET) == Status)
 80046ba:	e02c      	b.n	8004716 <UART_WaitOnFlagUntilTimeout+0x6c>
  {
    /* Check for the Timeout */
    if (Timeout != HAL_MAX_DELAY)
 80046bc:	69bb      	ldr	r3, [r7, #24]
 80046be:	f1b3 3fff 	cmp.w	r3, #4294967295
 80046c2:	d028      	beq.n	8004716 <UART_WaitOnFlagUntilTimeout+0x6c>
    {
      if ((Timeout == 0U) || ((HAL_GetTick() - Tickstart) > Timeout))
 80046c4:	69bb      	ldr	r3, [r7, #24]
 80046c6:	2b00      	cmp	r3, #0
 80046c8:	d007      	beq.n	80046da <UART_WaitOnFlagUntilTimeout+0x30>
 80046ca:	f7fc ff31 	bl	8001530 <HAL_GetTick>
 80046ce:	4602      	mov	r2, r0
 80046d0:	683b      	ldr	r3, [r7, #0]
 80046d2:	1ad3      	subs	r3, r2, r3
 80046d4:	69ba      	ldr	r2, [r7, #24]
 80046d6:	429a      	cmp	r2, r3
 80046d8:	d21d      	bcs.n	8004716 <UART_WaitOnFlagUntilTimeout+0x6c>
      {
        /* Disable TXE, RXNE, PE and ERR (Frame error, noise error, overrun error) interrupts for the interrupt process */
        CLEAR_BIT(huart->Instance->CR1, (USART_CR1_RXNEIE | USART_CR1_PEIE | USART_CR1_TXEIE));
 80046da:	68fb      	ldr	r3, [r7, #12]
 80046dc:	681b      	ldr	r3, [r3, #0]
 80046de:	68da      	ldr	r2, [r3, #12]
 80046e0:	68fb      	ldr	r3, [r7, #12]
 80046e2:	681b      	ldr	r3, [r3, #0]
 80046e4:	f422 72d0 	bic.w	r2, r2, #416	; 0x1a0
 80046e8:	60da      	str	r2, [r3, #12]
        CLEAR_BIT(huart->Instance->CR3, USART_CR3_EIE);
 80046ea:	68fb      	ldr	r3, [r7, #12]
 80046ec:	681b      	ldr	r3, [r3, #0]
 80046ee:	695a      	ldr	r2, [r3, #20]
 80046f0:	68fb      	ldr	r3, [r7, #12]
 80046f2:	681b      	ldr	r3, [r3, #0]
 80046f4:	f022 0201 	bic.w	r2, r2, #1
 80046f8:	615a      	str	r2, [r3, #20]

        huart->gState  = HAL_UART_STATE_READY;
 80046fa:	68fb      	ldr	r3, [r7, #12]
 80046fc:	2220      	movs	r2, #32
 80046fe:	f883 203d 	strb.w	r2, [r3, #61]	; 0x3d
        huart->RxState = HAL_UART_STATE_READY;
 8004702:	68fb      	ldr	r3, [r7, #12]
 8004704:	2220      	movs	r2, #32
 8004706:	f883 203e 	strb.w	r2, [r3, #62]	; 0x3e

        /* Process Unlocked */
        __HAL_UNLOCK(huart);
 800470a:	68fb      	ldr	r3, [r7, #12]
 800470c:	2200      	movs	r2, #0
 800470e:	f883 203c 	strb.w	r2, [r3, #60]	; 0x3c

        return HAL_TIMEOUT;
 8004712:	2303      	movs	r3, #3
 8004714:	e00f      	b.n	8004736 <UART_WaitOnFlagUntilTimeout+0x8c>
  while ((__HAL_UART_GET_FLAG(huart, Flag) ? SET : RESET) == Status)
 8004716:	68fb      	ldr	r3, [r7, #12]
 8004718:	681b      	ldr	r3, [r3, #0]
 800471a:	681a      	ldr	r2, [r3, #0]
 800471c:	68bb      	ldr	r3, [r7, #8]
 800471e:	4013      	ands	r3, r2
 8004720:	68ba      	ldr	r2, [r7, #8]
 8004722:	429a      	cmp	r2, r3
 8004724:	bf0c      	ite	eq
 8004726:	2301      	moveq	r3, #1
 8004728:	2300      	movne	r3, #0
 800472a:	b2db      	uxtb	r3, r3
 800472c:	461a      	mov	r2, r3
 800472e:	79fb      	ldrb	r3, [r7, #7]
 8004730:	429a      	cmp	r2, r3
 8004732:	d0c3      	beq.n	80046bc <UART_WaitOnFlagUntilTimeout+0x12>
      }
    }
  }
  return HAL_OK;
 8004734:	2300      	movs	r3, #0
}
 8004736:	4618      	mov	r0, r3
 8004738:	3710      	adds	r7, #16
 800473a:	46bd      	mov	sp, r7
 800473c:	bd80      	pop	{r7, pc}
	...

08004740 <UART_Start_Receive_DMA>:
  * @param  pData Pointer to data buffer (u8 or u16 data elements).
  * @param  Size  Amount of data elements (u8 or u16) to be received.
  * @retval HAL status
  */
HAL_StatusTypeDef UART_Start_Receive_DMA(UART_HandleTypeDef *huart, uint8_t *pData, uint16_t Size)
{
 8004740:	b580      	push	{r7, lr}
 8004742:	b086      	sub	sp, #24
 8004744:	af00      	add	r7, sp, #0
 8004746:	60f8      	str	r0, [r7, #12]
 8004748:	60b9      	str	r1, [r7, #8]
 800474a:	4613      	mov	r3, r2
 800474c:	80fb      	strh	r3, [r7, #6]
  uint32_t *tmp;

  huart->pRxBuffPtr = pData;
 800474e:	68ba      	ldr	r2, [r7, #8]
 8004750:	68fb      	ldr	r3, [r7, #12]
 8004752:	629a      	str	r2, [r3, #40]	; 0x28
  huart->RxXferSize = Size;
 8004754:	68fb      	ldr	r3, [r7, #12]
 8004756:	88fa      	ldrh	r2, [r7, #6]
 8004758:	859a      	strh	r2, [r3, #44]	; 0x2c

  huart->ErrorCode = HAL_UART_ERROR_NONE;
 800475a:	68fb      	ldr	r3, [r7, #12]
 800475c:	2200      	movs	r2, #0
 800475e:	641a      	str	r2, [r3, #64]	; 0x40
  huart->RxState = HAL_UART_STATE_BUSY_RX;
 8004760:	68fb      	ldr	r3, [r7, #12]
 8004762:	2222      	movs	r2, #34	; 0x22
 8004764:	f883 203e 	strb.w	r2, [r3, #62]	; 0x3e

  /* Set the UART DMA transfer complete callback */
  huart->hdmarx->XferCpltCallback = UART_DMAReceiveCplt;
 8004768:	68fb      	ldr	r3, [r7, #12]
 800476a:	6b9b      	ldr	r3, [r3, #56]	; 0x38
 800476c:	4a23      	ldr	r2, [pc, #140]	; (80047fc <UART_Start_Receive_DMA+0xbc>)
 800476e:	63da      	str	r2, [r3, #60]	; 0x3c

  /* Set the UART DMA Half transfer complete callback */
  huart->hdmarx->XferHalfCpltCallback = UART_DMARxHalfCplt;
 8004770:	68fb      	ldr	r3, [r7, #12]
 8004772:	6b9b      	ldr	r3, [r3, #56]	; 0x38
 8004774:	4a22      	ldr	r2, [pc, #136]	; (8004800 <UART_Start_Receive_DMA+0xc0>)
 8004776:	641a      	str	r2, [r3, #64]	; 0x40

  /* Set the DMA error callback */
  huart->hdmarx->XferErrorCallback = UART_DMAError;
 8004778:	68fb      	ldr	r3, [r7, #12]
 800477a:	6b9b      	ldr	r3, [r3, #56]	; 0x38
 800477c:	4a21      	ldr	r2, [pc, #132]	; (8004804 <UART_Start_Receive_DMA+0xc4>)
 800477e:	64da      	str	r2, [r3, #76]	; 0x4c

  /* Set the DMA abort callback */
  huart->hdmarx->XferAbortCallback = NULL;
 8004780:	68fb      	ldr	r3, [r7, #12]
 8004782:	6b9b      	ldr	r3, [r3, #56]	; 0x38
 8004784:	2200      	movs	r2, #0
 8004786:	651a      	str	r2, [r3, #80]	; 0x50

  /* Enable the DMA stream */
  tmp = (uint32_t *)&pData;
 8004788:	f107 0308 	add.w	r3, r7, #8
 800478c:	617b      	str	r3, [r7, #20]
  HAL_DMA_Start_IT(huart->hdmarx, (uint32_t)&huart->Instance->DR, *(uint32_t *)tmp, Size);
 800478e:	68fb      	ldr	r3, [r7, #12]
 8004790:	6b98      	ldr	r0, [r3, #56]	; 0x38
 8004792:	68fb      	ldr	r3, [r7, #12]
 8004794:	681b      	ldr	r3, [r3, #0]
 8004796:	3304      	adds	r3, #4
 8004798:	4619      	mov	r1, r3
 800479a:	697b      	ldr	r3, [r7, #20]
 800479c:	681a      	ldr	r2, [r3, #0]
 800479e:	88fb      	ldrh	r3, [r7, #6]
 80047a0:	f7fd f892 	bl	80018c8 <HAL_DMA_Start_IT>

  /* Clear the Overrun flag just before enabling the DMA Rx request: can be mandatory for the second transfer */
  __HAL_UART_CLEAR_OREFLAG(huart);
 80047a4:	2300      	movs	r3, #0
 80047a6:	613b      	str	r3, [r7, #16]
 80047a8:	68fb      	ldr	r3, [r7, #12]
 80047aa:	681b      	ldr	r3, [r3, #0]
 80047ac:	681b      	ldr	r3, [r3, #0]
 80047ae:	613b      	str	r3, [r7, #16]
 80047b0:	68fb      	ldr	r3, [r7, #12]
 80047b2:	681b      	ldr	r3, [r3, #0]
 80047b4:	685b      	ldr	r3, [r3, #4]
 80047b6:	613b      	str	r3, [r7, #16]
 80047b8:	693b      	ldr	r3, [r7, #16]

  /* Process Unlocked */
  __HAL_UNLOCK(huart);
 80047ba:	68fb      	ldr	r3, [r7, #12]
 80047bc:	2200      	movs	r2, #0
 80047be:	f883 203c 	strb.w	r2, [r3, #60]	; 0x3c

  /* Enable the UART Parity Error Interrupt */
  SET_BIT(huart->Instance->CR1, USART_CR1_PEIE);
 80047c2:	68fb      	ldr	r3, [r7, #12]
 80047c4:	681b      	ldr	r3, [r3, #0]
 80047c6:	68da      	ldr	r2, [r3, #12]
 80047c8:	68fb      	ldr	r3, [r7, #12]
 80047ca:	681b      	ldr	r3, [r3, #0]
 80047cc:	f442 7280 	orr.w	r2, r2, #256	; 0x100
 80047d0:	60da      	str	r2, [r3, #12]

  /* Enable the UART Error Interrupt: (Frame error, noise error, overrun error) */
  SET_BIT(huart->Instance->CR3, USART_CR3_EIE);
 80047d2:	68fb      	ldr	r3, [r7, #12]
 80047d4:	681b      	ldr	r3, [r3, #0]
 80047d6:	695a      	ldr	r2, [r3, #20]
 80047d8:	68fb      	ldr	r3, [r7, #12]
 80047da:	681b      	ldr	r3, [r3, #0]
 80047dc:	f042 0201 	orr.w	r2, r2, #1
 80047e0:	615a      	str	r2, [r3, #20]

  /* Enable the DMA transfer for the receiver request by setting the DMAR bit
  in the UART CR3 register */
  SET_BIT(huart->Instance->CR3, USART_CR3_DMAR);
 80047e2:	68fb      	ldr	r3, [r7, #12]
 80047e4:	681b      	ldr	r3, [r3, #0]
 80047e6:	695a      	ldr	r2, [r3, #20]
 80047e8:	68fb      	ldr	r3, [r7, #12]
 80047ea:	681b      	ldr	r3, [r3, #0]
 80047ec:	f042 0240 	orr.w	r2, r2, #64	; 0x40
 80047f0:	615a      	str	r2, [r3, #20]

  return HAL_OK;
 80047f2:	2300      	movs	r3, #0
}
 80047f4:	4618      	mov	r0, r3
 80047f6:	3718      	adds	r7, #24
 80047f8:	46bd      	mov	sp, r7
 80047fa:	bd80      	pop	{r7, pc}
 80047fc:	0800454b 	.word	0x0800454b
 8004800:	080045e1 	.word	0x080045e1
 8004804:	08004617 	.word	0x08004617

08004808 <UART_EndTxTransfer>:
  * @brief  End ongoing Tx transfer on UART peripheral (following error detection or Transmit completion).
  * @param  huart UART handle.
  * @retval None
  */
static void UART_EndTxTransfer(UART_HandleTypeDef *huart)
{
 8004808:	b480      	push	{r7}
 800480a:	b083      	sub	sp, #12
 800480c:	af00      	add	r7, sp, #0
 800480e:	6078      	str	r0, [r7, #4]
  /* Disable TXEIE and TCIE interrupts */
  CLEAR_BIT(huart->Instance->CR1, (USART_CR1_TXEIE | USART_CR1_TCIE));
 8004810:	687b      	ldr	r3, [r7, #4]
 8004812:	681b      	ldr	r3, [r3, #0]
 8004814:	68da      	ldr	r2, [r3, #12]
 8004816:	687b      	ldr	r3, [r7, #4]
 8004818:	681b      	ldr	r3, [r3, #0]
 800481a:	f022 02c0 	bic.w	r2, r2, #192	; 0xc0
 800481e:	60da      	str	r2, [r3, #12]

  /* At end of Tx process, restore huart->gState to Ready */
  huart->gState = HAL_UART_STATE_READY;
 8004820:	687b      	ldr	r3, [r7, #4]
 8004822:	2220      	movs	r2, #32
 8004824:	f883 203d 	strb.w	r2, [r3, #61]	; 0x3d
}
 8004828:	bf00      	nop
 800482a:	370c      	adds	r7, #12
 800482c:	46bd      	mov	sp, r7
 800482e:	f85d 7b04 	ldr.w	r7, [sp], #4
 8004832:	4770      	bx	lr

08004834 <UART_EndRxTransfer>:
  * @brief  End ongoing Rx transfer on UART peripheral (following error detection or Reception completion).
  * @param  huart UART handle.
  * @retval None
  */
static void UART_EndRxTransfer(UART_HandleTypeDef *huart)
{
 8004834:	b480      	push	{r7}
 8004836:	b083      	sub	sp, #12
 8004838:	af00      	add	r7, sp, #0
 800483a:	6078      	str	r0, [r7, #4]
  /* Disable RXNE, PE and ERR (Frame error, noise error, overrun error) interrupts */
  CLEAR_BIT(huart->Instance->CR1, (USART_CR1_RXNEIE | USART_CR1_PEIE));
 800483c:	687b      	ldr	r3, [r7, #4]
 800483e:	681b      	ldr	r3, [r3, #0]
 8004840:	68da      	ldr	r2, [r3, #12]
 8004842:	687b      	ldr	r3, [r7, #4]
 8004844:	681b      	ldr	r3, [r3, #0]
 8004846:	f422 7290 	bic.w	r2, r2, #288	; 0x120
 800484a:	60da      	str	r2, [r3, #12]
  CLEAR_BIT(huart->Instance->CR3, USART_CR3_EIE);
 800484c:	687b      	ldr	r3, [r7, #4]
 800484e:	681b      	ldr	r3, [r3, #0]
 8004850:	695a      	ldr	r2, [r3, #20]
 8004852:	687b      	ldr	r3, [r7, #4]
 8004854:	681b      	ldr	r3, [r3, #0]
 8004856:	f022 0201 	bic.w	r2, r2, #1
 800485a:	615a      	str	r2, [r3, #20]

  /* In case of reception waiting for IDLE event, disable also the IDLE IE interrupt source */
  if (huart->ReceptionType == HAL_UART_RECEPTION_TOIDLE)
 800485c:	687b      	ldr	r3, [r7, #4]
 800485e:	6b1b      	ldr	r3, [r3, #48]	; 0x30
 8004860:	2b01      	cmp	r3, #1
 8004862:	d107      	bne.n	8004874 <UART_EndRxTransfer+0x40>
  {
    CLEAR_BIT(huart->Instance->CR1, USART_CR1_IDLEIE);
 8004864:	687b      	ldr	r3, [r7, #4]
 8004866:	681b      	ldr	r3, [r3, #0]
 8004868:	68da      	ldr	r2, [r3, #12]
 800486a:	687b      	ldr	r3, [r7, #4]
 800486c:	681b      	ldr	r3, [r3, #0]
 800486e:	f022 0210 	bic.w	r2, r2, #16
 8004872:	60da      	str	r2, [r3, #12]
  }

  /* At end of Rx process, restore huart->RxState to Ready */
  huart->RxState = HAL_UART_STATE_READY;
 8004874:	687b      	ldr	r3, [r7, #4]
 8004876:	2220      	movs	r2, #32
 8004878:	f883 203e 	strb.w	r2, [r3, #62]	; 0x3e
  huart->ReceptionType = HAL_UART_RECEPTION_STANDARD;
 800487c:	687b      	ldr	r3, [r7, #4]
 800487e:	2200      	movs	r2, #0
 8004880:	631a      	str	r2, [r3, #48]	; 0x30
}
 8004882:	bf00      	nop
 8004884:	370c      	adds	r7, #12
 8004886:	46bd      	mov	sp, r7
 8004888:	f85d 7b04 	ldr.w	r7, [sp], #4
 800488c:	4770      	bx	lr

0800488e <UART_DMAAbortOnError>:
  * @param  hdma  Pointer to a DMA_HandleTypeDef structure that contains
  *               the configuration information for the specified DMA module.
  * @retval None
  */
static void UART_DMAAbortOnError(DMA_HandleTypeDef *hdma)
{
 800488e:	b580      	push	{r7, lr}
 8004890:	b084      	sub	sp, #16
 8004892:	af00      	add	r7, sp, #0
 8004894:	6078      	str	r0, [r7, #4]
  UART_HandleTypeDef *huart = (UART_HandleTypeDef *)((DMA_HandleTypeDef *)hdma)->Parent;
 8004896:	687b      	ldr	r3, [r7, #4]
 8004898:	6b9b      	ldr	r3, [r3, #56]	; 0x38
 800489a:	60fb      	str	r3, [r7, #12]
  huart->RxXferCount = 0x00U;
 800489c:	68fb      	ldr	r3, [r7, #12]
 800489e:	2200      	movs	r2, #0
 80048a0:	85da      	strh	r2, [r3, #46]	; 0x2e
  huart->TxXferCount = 0x00U;
 80048a2:	68fb      	ldr	r3, [r7, #12]
 80048a4:	2200      	movs	r2, #0
 80048a6:	84da      	strh	r2, [r3, #38]	; 0x26
#if (USE_HAL_UART_REGISTER_CALLBACKS == 1)
  /*Call registered error callback*/
  huart->ErrorCallback(huart);
#else
  /*Call legacy weak error callback*/
  HAL_UART_ErrorCallback(huart);
 80048a8:	68f8      	ldr	r0, [r7, #12]
 80048aa:	f7ff fe01 	bl	80044b0 <HAL_UART_ErrorCallback>
#endif /* USE_HAL_UART_REGISTER_CALLBACKS */
}
 80048ae:	bf00      	nop
 80048b0:	3710      	adds	r7, #16
 80048b2:	46bd      	mov	sp, r7
 80048b4:	bd80      	pop	{r7, pc}

080048b6 <UART_Transmit_IT>:
  * @param  huart  Pointer to a UART_HandleTypeDef structure that contains
  *                the configuration information for the specified UART module.
  * @retval HAL status
  */
static HAL_StatusTypeDef UART_Transmit_IT(UART_HandleTypeDef *huart)
{
 80048b6:	b480      	push	{r7}
 80048b8:	b085      	sub	sp, #20
 80048ba:	af00      	add	r7, sp, #0
 80048bc:	6078      	str	r0, [r7, #4]
  uint16_t *tmp;

  /* Check that a Tx process is ongoing */
  if (huart->gState == HAL_UART_STATE_BUSY_TX)
 80048be:	687b      	ldr	r3, [r7, #4]
 80048c0:	f893 303d 	ldrb.w	r3, [r3, #61]	; 0x3d
 80048c4:	b2db      	uxtb	r3, r3
 80048c6:	2b21      	cmp	r3, #33	; 0x21
 80048c8:	d13e      	bne.n	8004948 <UART_Transmit_IT+0x92>
  {
    if ((huart->Init.WordLength == UART_WORDLENGTH_9B) && (huart->Init.Parity == UART_PARITY_NONE))
 80048ca:	687b      	ldr	r3, [r7, #4]
 80048cc:	689b      	ldr	r3, [r3, #8]
 80048ce:	f5b3 5f80 	cmp.w	r3, #4096	; 0x1000
 80048d2:	d114      	bne.n	80048fe <UART_Transmit_IT+0x48>
 80048d4:	687b      	ldr	r3, [r7, #4]
 80048d6:	691b      	ldr	r3, [r3, #16]
 80048d8:	2b00      	cmp	r3, #0
 80048da:	d110      	bne.n	80048fe <UART_Transmit_IT+0x48>
    {
      tmp = (uint16_t *) huart->pTxBuffPtr;
 80048dc:	687b      	ldr	r3, [r7, #4]
 80048de:	6a1b      	ldr	r3, [r3, #32]
 80048e0:	60fb      	str	r3, [r7, #12]
      huart->Instance->DR = (uint16_t)(*tmp & (uint16_t)0x01FF);
 80048e2:	68fb      	ldr	r3, [r7, #12]
 80048e4:	881b      	ldrh	r3, [r3, #0]
 80048e6:	461a      	mov	r2, r3
 80048e8:	687b      	ldr	r3, [r7, #4]
 80048ea:	681b      	ldr	r3, [r3, #0]
 80048ec:	f3c2 0208 	ubfx	r2, r2, #0, #9
 80048f0:	605a      	str	r2, [r3, #4]
      huart->pTxBuffPtr += 2U;
 80048f2:	687b      	ldr	r3, [r7, #4]
 80048f4:	6a1b      	ldr	r3, [r3, #32]
 80048f6:	1c9a      	adds	r2, r3, #2
 80048f8:	687b      	ldr	r3, [r7, #4]
 80048fa:	621a      	str	r2, [r3, #32]
 80048fc:	e008      	b.n	8004910 <UART_Transmit_IT+0x5a>
    }
    else
    {
      huart->Instance->DR = (uint8_t)(*huart->pTxBuffPtr++ & (uint8_t)0x00FF);
 80048fe:	687b      	ldr	r3, [r7, #4]
 8004900:	6a1b      	ldr	r3, [r3, #32]
 8004902:	1c59      	adds	r1, r3, #1
 8004904:	687a      	ldr	r2, [r7, #4]
 8004906:	6211      	str	r1, [r2, #32]
 8004908:	781a      	ldrb	r2, [r3, #0]
 800490a:	687b      	ldr	r3, [r7, #4]
 800490c:	681b      	ldr	r3, [r3, #0]
 800490e:	605a      	str	r2, [r3, #4]
    }

    if (--huart->TxXferCount == 0U)
 8004910:	687b      	ldr	r3, [r7, #4]
 8004912:	8cdb      	ldrh	r3, [r3, #38]	; 0x26
 8004914:	b29b      	uxth	r3, r3
 8004916:	3b01      	subs	r3, #1
 8004918:	b29b      	uxth	r3, r3
 800491a:	687a      	ldr	r2, [r7, #4]
 800491c:	4619      	mov	r1, r3
 800491e:	84d1      	strh	r1, [r2, #38]	; 0x26
 8004920:	2b00      	cmp	r3, #0
 8004922:	d10f      	bne.n	8004944 <UART_Transmit_IT+0x8e>
    {
      /* Disable the UART Transmit Complete Interrupt */
      __HAL_UART_DISABLE_IT(huart, UART_IT_TXE);
 8004924:	687b      	ldr	r3, [r7, #4]
 8004926:	681b      	ldr	r3, [r3, #0]
 8004928:	68da      	ldr	r2, [r3, #12]
 800492a:	687b      	ldr	r3, [r7, #4]
 800492c:	681b      	ldr	r3, [r3, #0]
 800492e:	f022 0280 	bic.w	r2, r2, #128	; 0x80
 8004932:	60da      	str	r2, [r3, #12]

      /* Enable the UART Transmit Complete Interrupt */
      __HAL_UART_ENABLE_IT(huart, UART_IT_TC);
 8004934:	687b      	ldr	r3, [r7, #4]
 8004936:	681b      	ldr	r3, [r3, #0]
 8004938:	68da      	ldr	r2, [r3, #12]
 800493a:	687b      	ldr	r3, [r7, #4]
 800493c:	681b      	ldr	r3, [r3, #0]
 800493e:	f042 0240 	orr.w	r2, r2, #64	; 0x40
 8004942:	60da      	str	r2, [r3, #12]
    }
    return HAL_OK;
 8004944:	2300      	movs	r3, #0
 8004946:	e000      	b.n	800494a <UART_Transmit_IT+0x94>
  }
  else
  {
    return HAL_BUSY;
 8004948:	2302      	movs	r3, #2
  }
}
 800494a:	4618      	mov	r0, r3
 800494c:	3714      	adds	r7, #20
 800494e:	46bd      	mov	sp, r7
 8004950:	f85d 7b04 	ldr.w	r7, [sp], #4
 8004954:	4770      	bx	lr

08004956 <UART_EndTransmit_IT>:
  * @param  huart  Pointer to a UART_HandleTypeDef structure that contains
  *                the configuration information for the specified UART module.
  * @retval HAL status
  */
static HAL_StatusTypeDef UART_EndTransmit_IT(UART_HandleTypeDef *huart)
{
 8004956:	b580      	push	{r7, lr}
 8004958:	b082      	sub	sp, #8
 800495a:	af00      	add	r7, sp, #0
 800495c:	6078      	str	r0, [r7, #4]
  /* Disable the UART Transmit Complete Interrupt */
  __HAL_UART_DISABLE_IT(huart, UART_IT_TC);
 800495e:	687b      	ldr	r3, [r7, #4]
 8004960:	681b      	ldr	r3, [r3, #0]
 8004962:	68da      	ldr	r2, [r3, #12]
 8004964:	687b      	ldr	r3, [r7, #4]
 8004966:	681b      	ldr	r3, [r3, #0]
 8004968:	f022 0240 	bic.w	r2, r2, #64	; 0x40
 800496c:	60da      	str	r2, [r3, #12]

  /* Tx process is ended, restore huart->gState to Ready */
  huart->gState = HAL_UART_STATE_READY;
 800496e:	687b      	ldr	r3, [r7, #4]
 8004970:	2220      	movs	r2, #32
 8004972:	f883 203d 	strb.w	r2, [r3, #61]	; 0x3d
#if (USE_HAL_UART_REGISTER_CALLBACKS == 1)
  /*Call registered Tx complete callback*/
  huart->TxCpltCallback(huart);
#else
  /*Call legacy weak Tx complete callback*/
  HAL_UART_TxCpltCallback(huart);
 8004976:	6878      	ldr	r0, [r7, #4]
 8004978:	f7fc fd38 	bl	80013ec <HAL_UART_TxCpltCallback>
#endif /* USE_HAL_UART_REGISTER_CALLBACKS */

  return HAL_OK;
 800497c:	2300      	movs	r3, #0
}
 800497e:	4618      	mov	r0, r3
 8004980:	3708      	adds	r7, #8
 8004982:	46bd      	mov	sp, r7
 8004984:	bd80      	pop	{r7, pc}

08004986 <UART_Receive_IT>:
  * @param  huart  Pointer to a UART_HandleTypeDef structure that contains
  *                the configuration information for the specified UART module.
  * @retval HAL status
  */
static HAL_StatusTypeDef UART_Receive_IT(UART_HandleTypeDef *huart)
{
 8004986:	b580      	push	{r7, lr}
 8004988:	b084      	sub	sp, #16
 800498a:	af00      	add	r7, sp, #0
 800498c:	6078      	str	r0, [r7, #4]
  uint8_t  *pdata8bits;
  uint16_t *pdata16bits;

  /* Check that a Rx process is ongoing */
  if (huart->RxState == HAL_UART_STATE_BUSY_RX)
 800498e:	687b      	ldr	r3, [r7, #4]
 8004990:	f893 303e 	ldrb.w	r3, [r3, #62]	; 0x3e
 8004994:	b2db      	uxtb	r3, r3
 8004996:	2b22      	cmp	r3, #34	; 0x22
 8004998:	f040 8087 	bne.w	8004aaa <UART_Receive_IT+0x124>
  {
    if ((huart->Init.WordLength == UART_WORDLENGTH_9B) && (huart->Init.Parity == UART_PARITY_NONE))
 800499c:	687b      	ldr	r3, [r7, #4]
 800499e:	689b      	ldr	r3, [r3, #8]
 80049a0:	f5b3 5f80 	cmp.w	r3, #4096	; 0x1000
 80049a4:	d117      	bne.n	80049d6 <UART_Receive_IT+0x50>
 80049a6:	687b      	ldr	r3, [r7, #4]
 80049a8:	691b      	ldr	r3, [r3, #16]
 80049aa:	2b00      	cmp	r3, #0
 80049ac:	d113      	bne.n	80049d6 <UART_Receive_IT+0x50>
    {
      pdata8bits  = NULL;
 80049ae:	2300      	movs	r3, #0
 80049b0:	60fb      	str	r3, [r7, #12]
      pdata16bits = (uint16_t *) huart->pRxBuffPtr;
 80049b2:	687b      	ldr	r3, [r7, #4]
 80049b4:	6a9b      	ldr	r3, [r3, #40]	; 0x28
 80049b6:	60bb      	str	r3, [r7, #8]
      *pdata16bits = (uint16_t)(huart->Instance->DR & (uint16_t)0x01FF);
 80049b8:	687b      	ldr	r3, [r7, #4]
 80049ba:	681b      	ldr	r3, [r3, #0]
 80049bc:	685b      	ldr	r3, [r3, #4]
 80049be:	b29b      	uxth	r3, r3
 80049c0:	f3c3 0308 	ubfx	r3, r3, #0, #9
 80049c4:	b29a      	uxth	r2, r3
 80049c6:	68bb      	ldr	r3, [r7, #8]
 80049c8:	801a      	strh	r2, [r3, #0]
      huart->pRxBuffPtr += 2U;
 80049ca:	687b      	ldr	r3, [r7, #4]
 80049cc:	6a9b      	ldr	r3, [r3, #40]	; 0x28
 80049ce:	1c9a      	adds	r2, r3, #2
 80049d0:	687b      	ldr	r3, [r7, #4]
 80049d2:	629a      	str	r2, [r3, #40]	; 0x28
 80049d4:	e026      	b.n	8004a24 <UART_Receive_IT+0x9e>
    }
    else
    {
      pdata8bits = (uint8_t *) huart->pRxBuffPtr;
 80049d6:	687b      	ldr	r3, [r7, #4]
 80049d8:	6a9b      	ldr	r3, [r3, #40]	; 0x28
 80049da:	60fb      	str	r3, [r7, #12]
      pdata16bits  = NULL;
 80049dc:	2300      	movs	r3, #0
 80049de:	60bb      	str	r3, [r7, #8]

      if ((huart->Init.WordLength == UART_WORDLENGTH_9B) || ((huart->Init.WordLength == UART_WORDLENGTH_8B) && (huart->Init.Parity == UART_PARITY_NONE)))
 80049e0:	687b      	ldr	r3, [r7, #4]
 80049e2:	689b      	ldr	r3, [r3, #8]
 80049e4:	f5b3 5f80 	cmp.w	r3, #4096	; 0x1000
 80049e8:	d007      	beq.n	80049fa <UART_Receive_IT+0x74>
 80049ea:	687b      	ldr	r3, [r7, #4]
 80049ec:	689b      	ldr	r3, [r3, #8]
 80049ee:	2b00      	cmp	r3, #0
 80049f0:	d10a      	bne.n	8004a08 <UART_Receive_IT+0x82>
 80049f2:	687b      	ldr	r3, [r7, #4]
 80049f4:	691b      	ldr	r3, [r3, #16]
 80049f6:	2b00      	cmp	r3, #0
 80049f8:	d106      	bne.n	8004a08 <UART_Receive_IT+0x82>
      {
        *pdata8bits = (uint8_t)(huart->Instance->DR & (uint8_t)0x00FF);
 80049fa:	687b      	ldr	r3, [r7, #4]
 80049fc:	681b      	ldr	r3, [r3, #0]
 80049fe:	685b      	ldr	r3, [r3, #4]
 8004a00:	b2da      	uxtb	r2, r3
 8004a02:	68fb      	ldr	r3, [r7, #12]
 8004a04:	701a      	strb	r2, [r3, #0]
 8004a06:	e008      	b.n	8004a1a <UART_Receive_IT+0x94>
      }
      else
      {
        *pdata8bits = (uint8_t)(huart->Instance->DR & (uint8_t)0x007F);
 8004a08:	687b      	ldr	r3, [r7, #4]
 8004a0a:	681b      	ldr	r3, [r3, #0]
 8004a0c:	685b      	ldr	r3, [r3, #4]
 8004a0e:	b2db      	uxtb	r3, r3
 8004a10:	f003 037f 	and.w	r3, r3, #127	; 0x7f
 8004a14:	b2da      	uxtb	r2, r3
 8004a16:	68fb      	ldr	r3, [r7, #12]
 8004a18:	701a      	strb	r2, [r3, #0]
      }
      huart->pRxBuffPtr += 1U;
 8004a1a:	687b      	ldr	r3, [r7, #4]
 8004a1c:	6a9b      	ldr	r3, [r3, #40]	; 0x28
 8004a1e:	1c5a      	adds	r2, r3, #1
 8004a20:	687b      	ldr	r3, [r7, #4]
 8004a22:	629a      	str	r2, [r3, #40]	; 0x28
    }

    if (--huart->RxXferCount == 0U)
 8004a24:	687b      	ldr	r3, [r7, #4]
 8004a26:	8ddb      	ldrh	r3, [r3, #46]	; 0x2e
 8004a28:	b29b      	uxth	r3, r3
 8004a2a:	3b01      	subs	r3, #1
 8004a2c:	b29b      	uxth	r3, r3
 8004a2e:	687a      	ldr	r2, [r7, #4]
 8004a30:	4619      	mov	r1, r3
 8004a32:	85d1      	strh	r1, [r2, #46]	; 0x2e
 8004a34:	2b00      	cmp	r3, #0
 8004a36:	d136      	bne.n	8004aa6 <UART_Receive_IT+0x120>
    {
      /* Disable the UART Data Register not empty Interrupt */
      __HAL_UART_DISABLE_IT(huart, UART_IT_RXNE);
 8004a38:	687b      	ldr	r3, [r7, #4]
 8004a3a:	681b      	ldr	r3, [r3, #0]
 8004a3c:	68da      	ldr	r2, [r3, #12]
 8004a3e:	687b      	ldr	r3, [r7, #4]
 8004a40:	681b      	ldr	r3, [r3, #0]
 8004a42:	f022 0220 	bic.w	r2, r2, #32
 8004a46:	60da      	str	r2, [r3, #12]

      /* Disable the UART Parity Error Interrupt */
      __HAL_UART_DISABLE_IT(huart, UART_IT_PE);
 8004a48:	687b      	ldr	r3, [r7, #4]
 8004a4a:	681b      	ldr	r3, [r3, #0]
 8004a4c:	68da      	ldr	r2, [r3, #12]
 8004a4e:	687b      	ldr	r3, [r7, #4]
 8004a50:	681b      	ldr	r3, [r3, #0]
 8004a52:	f422 7280 	bic.w	r2, r2, #256	; 0x100
 8004a56:	60da      	str	r2, [r3, #12]

      /* Disable the UART Error Interrupt: (Frame error, noise error, overrun error) */
      __HAL_UART_DISABLE_IT(huart, UART_IT_ERR);
 8004a58:	687b      	ldr	r3, [r7, #4]
 8004a5a:	681b      	ldr	r3, [r3, #0]
 8004a5c:	695a      	ldr	r2, [r3, #20]
 8004a5e:	687b      	ldr	r3, [r7, #4]
 8004a60:	681b      	ldr	r3, [r3, #0]
 8004a62:	f022 0201 	bic.w	r2, r2, #1
 8004a66:	615a      	str	r2, [r3, #20]

      /* Rx process is completed, restore huart->RxState to Ready */
      huart->RxState = HAL_UART_STATE_READY;
 8004a68:	687b      	ldr	r3, [r7, #4]
 8004a6a:	2220      	movs	r2, #32
 8004a6c:	f883 203e 	strb.w	r2, [r3, #62]	; 0x3e

      /* Check current reception Mode :
         If Reception till IDLE event has been selected : */
      if (huart->ReceptionType == HAL_UART_RECEPTION_TOIDLE)
 8004a70:	687b      	ldr	r3, [r7, #4]
 8004a72:	6b1b      	ldr	r3, [r3, #48]	; 0x30
 8004a74:	2b01      	cmp	r3, #1
 8004a76:	d10e      	bne.n	8004a96 <UART_Receive_IT+0x110>
      {
        /* Disable IDLE interrupt */
        CLEAR_BIT(huart->Instance->CR1, USART_CR1_IDLEIE);
 8004a78:	687b      	ldr	r3, [r7, #4]
 8004a7a:	681b      	ldr	r3, [r3, #0]
 8004a7c:	68da      	ldr	r2, [r3, #12]
 8004a7e:	687b      	ldr	r3, [r7, #4]
 8004a80:	681b      	ldr	r3, [r3, #0]
 8004a82:	f022 0210 	bic.w	r2, r2, #16
 8004a86:	60da      	str	r2, [r3, #12]
#if (USE_HAL_UART_REGISTER_CALLBACKS == 1)
        /*Call registered Rx Event callback*/
        huart->RxEventCallback(huart, huart->RxXferSize);
#else
        /*Call legacy weak Rx Event callback*/
        HAL_UARTEx_RxEventCallback(huart, huart->RxXferSize);
 8004a88:	687b      	ldr	r3, [r7, #4]
 8004a8a:	8d9b      	ldrh	r3, [r3, #44]	; 0x2c
 8004a8c:	4619      	mov	r1, r3
 8004a8e:	6878      	ldr	r0, [r7, #4]
 8004a90:	f7ff fd18 	bl	80044c4 <HAL_UARTEx_RxEventCallback>
 8004a94:	e002      	b.n	8004a9c <UART_Receive_IT+0x116>
#if (USE_HAL_UART_REGISTER_CALLBACKS == 1)		  
       /*Call registered Rx complete callback*/
       huart->RxCpltCallback(huart);
#else
       /*Call legacy weak Rx complete callback*/
       HAL_UART_RxCpltCallback(huart);
 8004a96:	6878      	ldr	r0, [r7, #4]
 8004a98:	f7fc fbfe 	bl	8001298 <HAL_UART_RxCpltCallback>
#endif /* USE_HAL_UART_REGISTER_CALLBACKS */
      }
      huart->ReceptionType = HAL_UART_RECEPTION_STANDARD;
 8004a9c:	687b      	ldr	r3, [r7, #4]
 8004a9e:	2200      	movs	r2, #0
 8004aa0:	631a      	str	r2, [r3, #48]	; 0x30
      return HAL_OK;
 8004aa2:	2300      	movs	r3, #0
 8004aa4:	e002      	b.n	8004aac <UART_Receive_IT+0x126>
    }
    return HAL_OK;
 8004aa6:	2300      	movs	r3, #0
 8004aa8:	e000      	b.n	8004aac <UART_Receive_IT+0x126>
  }
  else
  {
    return HAL_BUSY;
 8004aaa:	2302      	movs	r3, #2
  }
}
 8004aac:	4618      	mov	r0, r3
 8004aae:	3710      	adds	r7, #16
 8004ab0:	46bd      	mov	sp, r7
 8004ab2:	bd80      	pop	{r7, pc}

08004ab4 <UART_SetConfig>:
  * @param  huart  Pointer to a UART_HandleTypeDef structure that contains
  *                the configuration information for the specified UART module.
  * @retval None
  */
static void UART_SetConfig(UART_HandleTypeDef *huart)
{
 8004ab4:	e92d 4ff0 	stmdb	sp!, {r4, r5, r6, r7, r8, r9, sl, fp, lr}
 8004ab8:	b09f      	sub	sp, #124	; 0x7c
 8004aba:	af00      	add	r7, sp, #0
 8004abc:	66f8      	str	r0, [r7, #108]	; 0x6c
  assert_param(IS_UART_MODE(huart->Init.Mode));

  /*-------------------------- USART CR2 Configuration -----------------------*/
  /* Configure the UART Stop Bits: Set STOP[13:12] bits
     according to huart->Init.StopBits value */
  MODIFY_REG(huart->Instance->CR2, USART_CR2_STOP, huart->Init.StopBits);
 8004abe:	6efb      	ldr	r3, [r7, #108]	; 0x6c
 8004ac0:	681b      	ldr	r3, [r3, #0]
 8004ac2:	691b      	ldr	r3, [r3, #16]
 8004ac4:	f423 5040 	bic.w	r0, r3, #12288	; 0x3000
 8004ac8:	6efb      	ldr	r3, [r7, #108]	; 0x6c
 8004aca:	68d9      	ldr	r1, [r3, #12]
 8004acc:	6efb      	ldr	r3, [r7, #108]	; 0x6c
 8004ace:	681a      	ldr	r2, [r3, #0]
 8004ad0:	ea40 0301 	orr.w	r3, r0, r1
 8004ad4:	6113      	str	r3, [r2, #16]
     Set the M bits according to huart->Init.WordLength value
     Set PCE and PS bits according to huart->Init.Parity value
     Set TE and RE bits according to huart->Init.Mode value
     Set OVER8 bit according to huart->Init.OverSampling value */

  tmpreg = (uint32_t)huart->Init.WordLength | huart->Init.Parity | huart->Init.Mode | huart->Init.OverSampling;
 8004ad6:	6efb      	ldr	r3, [r7, #108]	; 0x6c
 8004ad8:	689a      	ldr	r2, [r3, #8]
 8004ada:	6efb      	ldr	r3, [r7, #108]	; 0x6c
 8004adc:	691b      	ldr	r3, [r3, #16]
 8004ade:	431a      	orrs	r2, r3
 8004ae0:	6efb      	ldr	r3, [r7, #108]	; 0x6c
 8004ae2:	695b      	ldr	r3, [r3, #20]
 8004ae4:	431a      	orrs	r2, r3
 8004ae6:	6efb      	ldr	r3, [r7, #108]	; 0x6c
 8004ae8:	69db      	ldr	r3, [r3, #28]
 8004aea:	4313      	orrs	r3, r2
 8004aec:	673b      	str	r3, [r7, #112]	; 0x70
  MODIFY_REG(huart->Instance->CR1,
 8004aee:	6efb      	ldr	r3, [r7, #108]	; 0x6c
 8004af0:	681b      	ldr	r3, [r3, #0]
 8004af2:	68db      	ldr	r3, [r3, #12]
 8004af4:	f423 4116 	bic.w	r1, r3, #38400	; 0x9600
 8004af8:	f021 010c 	bic.w	r1, r1, #12
 8004afc:	6efb      	ldr	r3, [r7, #108]	; 0x6c
 8004afe:	681a      	ldr	r2, [r3, #0]
 8004b00:	6f3b      	ldr	r3, [r7, #112]	; 0x70
 8004b02:	430b      	orrs	r3, r1
 8004b04:	60d3      	str	r3, [r2, #12]
             (uint32_t)(USART_CR1_M | USART_CR1_PCE | USART_CR1_PS | USART_CR1_TE | USART_CR1_RE | USART_CR1_OVER8),
             tmpreg);

  /*-------------------------- USART CR3 Configuration -----------------------*/
  /* Configure the UART HFC: Set CTSE and RTSE bits according to huart->Init.HwFlowCtl value */
  MODIFY_REG(huart->Instance->CR3, (USART_CR3_RTSE | USART_CR3_CTSE), huart->Init.HwFlowCtl);
 8004b06:	6efb      	ldr	r3, [r7, #108]	; 0x6c
 8004b08:	681b      	ldr	r3, [r3, #0]
 8004b0a:	695b      	ldr	r3, [r3, #20]
 8004b0c:	f423 7040 	bic.w	r0, r3, #768	; 0x300
 8004b10:	6efb      	ldr	r3, [r7, #108]	; 0x6c
 8004b12:	6999      	ldr	r1, [r3, #24]
 8004b14:	6efb      	ldr	r3, [r7, #108]	; 0x6c
 8004b16:	681a      	ldr	r2, [r3, #0]
 8004b18:	ea40 0301 	orr.w	r3, r0, r1
 8004b1c:	6153      	str	r3, [r2, #20]
    if ((huart->Instance == USART1) || (huart->Instance == USART6) || (huart->Instance == UART9) || (huart->Instance == UART10))
    {
      pclk = HAL_RCC_GetPCLK2Freq();
    }
#elif defined(USART6)
    if ((huart->Instance == USART1) || (huart->Instance == USART6))
 8004b1e:	6efb      	ldr	r3, [r7, #108]	; 0x6c
 8004b20:	681a      	ldr	r2, [r3, #0]
 8004b22:	4bc5      	ldr	r3, [pc, #788]	; (8004e38 <UART_SetConfig+0x384>)
 8004b24:	429a      	cmp	r2, r3
 8004b26:	d004      	beq.n	8004b32 <UART_SetConfig+0x7e>
 8004b28:	6efb      	ldr	r3, [r7, #108]	; 0x6c
 8004b2a:	681a      	ldr	r2, [r3, #0]
 8004b2c:	4bc3      	ldr	r3, [pc, #780]	; (8004e3c <UART_SetConfig+0x388>)
 8004b2e:	429a      	cmp	r2, r3
 8004b30:	d103      	bne.n	8004b3a <UART_SetConfig+0x86>
    {
      pclk = HAL_RCC_GetPCLK2Freq();
 8004b32:	f7fe f833 	bl	8002b9c <HAL_RCC_GetPCLK2Freq>
 8004b36:	6778      	str	r0, [r7, #116]	; 0x74
 8004b38:	e002      	b.n	8004b40 <UART_SetConfig+0x8c>
      pclk = HAL_RCC_GetPCLK2Freq();
    }
#endif /* USART6 */
    else
    {
      pclk = HAL_RCC_GetPCLK1Freq();
 8004b3a:	f7fe f81b 	bl	8002b74 <HAL_RCC_GetPCLK1Freq>
 8004b3e:	6778      	str	r0, [r7, #116]	; 0x74
    }
  /*-------------------------- USART BRR Configuration ---------------------*/
  if (huart->Init.OverSampling == UART_OVERSAMPLING_8)
 8004b40:	6efb      	ldr	r3, [r7, #108]	; 0x6c
 8004b42:	69db      	ldr	r3, [r3, #28]
 8004b44:	f5b3 4f00 	cmp.w	r3, #32768	; 0x8000
 8004b48:	f040 80b6 	bne.w	8004cb8 <UART_SetConfig+0x204>
  {
    huart->Instance->BRR = UART_BRR_SAMPLING8(pclk, huart->Init.BaudRate);
 8004b4c:	6f7b      	ldr	r3, [r7, #116]	; 0x74
 8004b4e:	461c      	mov	r4, r3
 8004b50:	f04f 0500 	mov.w	r5, #0
 8004b54:	4622      	mov	r2, r4
 8004b56:	462b      	mov	r3, r5
 8004b58:	1891      	adds	r1, r2, r2
 8004b5a:	6439      	str	r1, [r7, #64]	; 0x40
 8004b5c:	415b      	adcs	r3, r3
 8004b5e:	647b      	str	r3, [r7, #68]	; 0x44
 8004b60:	e9d7 2310 	ldrd	r2, r3, [r7, #64]	; 0x40
 8004b64:	1912      	adds	r2, r2, r4
 8004b66:	eb45 0303 	adc.w	r3, r5, r3
 8004b6a:	f04f 0000 	mov.w	r0, #0
 8004b6e:	f04f 0100 	mov.w	r1, #0
 8004b72:	00d9      	lsls	r1, r3, #3
 8004b74:	ea41 7152 	orr.w	r1, r1, r2, lsr #29
 8004b78:	00d0      	lsls	r0, r2, #3
 8004b7a:	4602      	mov	r2, r0
 8004b7c:	460b      	mov	r3, r1
 8004b7e:	1911      	adds	r1, r2, r4
 8004b80:	6639      	str	r1, [r7, #96]	; 0x60
 8004b82:	416b      	adcs	r3, r5
 8004b84:	667b      	str	r3, [r7, #100]	; 0x64
 8004b86:	6efb      	ldr	r3, [r7, #108]	; 0x6c
 8004b88:	685b      	ldr	r3, [r3, #4]
 8004b8a:	461a      	mov	r2, r3
 8004b8c:	f04f 0300 	mov.w	r3, #0
 8004b90:	1891      	adds	r1, r2, r2
 8004b92:	63b9      	str	r1, [r7, #56]	; 0x38
 8004b94:	415b      	adcs	r3, r3
 8004b96:	63fb      	str	r3, [r7, #60]	; 0x3c
 8004b98:	e9d7 230e 	ldrd	r2, r3, [r7, #56]	; 0x38
 8004b9c:	e9d7 0118 	ldrd	r0, r1, [r7, #96]	; 0x60
 8004ba0:	f7fb fb7e 	bl	80002a0 <__aeabi_uldivmod>
 8004ba4:	4602      	mov	r2, r0
 8004ba6:	460b      	mov	r3, r1
 8004ba8:	4ba5      	ldr	r3, [pc, #660]	; (8004e40 <UART_SetConfig+0x38c>)
 8004baa:	fba3 2302 	umull	r2, r3, r3, r2
 8004bae:	095b      	lsrs	r3, r3, #5
 8004bb0:	011e      	lsls	r6, r3, #4
 8004bb2:	6f7b      	ldr	r3, [r7, #116]	; 0x74
 8004bb4:	461c      	mov	r4, r3
 8004bb6:	f04f 0500 	mov.w	r5, #0
 8004bba:	4622      	mov	r2, r4
 8004bbc:	462b      	mov	r3, r5
 8004bbe:	1891      	adds	r1, r2, r2
 8004bc0:	6339      	str	r1, [r7, #48]	; 0x30
 8004bc2:	415b      	adcs	r3, r3
 8004bc4:	637b      	str	r3, [r7, #52]	; 0x34
 8004bc6:	e9d7 230c 	ldrd	r2, r3, [r7, #48]	; 0x30
 8004bca:	1912      	adds	r2, r2, r4
 8004bcc:	eb45 0303 	adc.w	r3, r5, r3
 8004bd0:	f04f 0000 	mov.w	r0, #0
 8004bd4:	f04f 0100 	mov.w	r1, #0
 8004bd8:	00d9      	lsls	r1, r3, #3
 8004bda:	ea41 7152 	orr.w	r1, r1, r2, lsr #29
 8004bde:	00d0      	lsls	r0, r2, #3
 8004be0:	4602      	mov	r2, r0
 8004be2:	460b      	mov	r3, r1
 8004be4:	1911      	adds	r1, r2, r4
 8004be6:	65b9      	str	r1, [r7, #88]	; 0x58
 8004be8:	416b      	adcs	r3, r5
 8004bea:	65fb      	str	r3, [r7, #92]	; 0x5c
 8004bec:	6efb      	ldr	r3, [r7, #108]	; 0x6c
 8004bee:	685b      	ldr	r3, [r3, #4]
 8004bf0:	461a      	mov	r2, r3
 8004bf2:	f04f 0300 	mov.w	r3, #0
 8004bf6:	1891      	adds	r1, r2, r2
 8004bf8:	62b9      	str	r1, [r7, #40]	; 0x28
 8004bfa:	415b      	adcs	r3, r3
 8004bfc:	62fb      	str	r3, [r7, #44]	; 0x2c
 8004bfe:	e9d7 230a 	ldrd	r2, r3, [r7, #40]	; 0x28
 8004c02:	e9d7 0116 	ldrd	r0, r1, [r7, #88]	; 0x58
 8004c06:	f7fb fb4b 	bl	80002a0 <__aeabi_uldivmod>
 8004c0a:	4602      	mov	r2, r0
 8004c0c:	460b      	mov	r3, r1
 8004c0e:	4b8c      	ldr	r3, [pc, #560]	; (8004e40 <UART_SetConfig+0x38c>)
 8004c10:	fba3 1302 	umull	r1, r3, r3, r2
 8004c14:	095b      	lsrs	r3, r3, #5
 8004c16:	2164      	movs	r1, #100	; 0x64
 8004c18:	fb01 f303 	mul.w	r3, r1, r3
 8004c1c:	1ad3      	subs	r3, r2, r3
 8004c1e:	00db      	lsls	r3, r3, #3
 8004c20:	3332      	adds	r3, #50	; 0x32
 8004c22:	4a87      	ldr	r2, [pc, #540]	; (8004e40 <UART_SetConfig+0x38c>)
 8004c24:	fba2 2303 	umull	r2, r3, r2, r3
 8004c28:	095b      	lsrs	r3, r3, #5
 8004c2a:	005b      	lsls	r3, r3, #1
 8004c2c:	f403 73f8 	and.w	r3, r3, #496	; 0x1f0
 8004c30:	441e      	add	r6, r3
 8004c32:	6f7b      	ldr	r3, [r7, #116]	; 0x74
 8004c34:	4618      	mov	r0, r3
 8004c36:	f04f 0100 	mov.w	r1, #0
 8004c3a:	4602      	mov	r2, r0
 8004c3c:	460b      	mov	r3, r1
 8004c3e:	1894      	adds	r4, r2, r2
 8004c40:	623c      	str	r4, [r7, #32]
 8004c42:	415b      	adcs	r3, r3
 8004c44:	627b      	str	r3, [r7, #36]	; 0x24
 8004c46:	e9d7 2308 	ldrd	r2, r3, [r7, #32]
 8004c4a:	1812      	adds	r2, r2, r0
 8004c4c:	eb41 0303 	adc.w	r3, r1, r3
 8004c50:	f04f 0400 	mov.w	r4, #0
 8004c54:	f04f 0500 	mov.w	r5, #0
 8004c58:	00dd      	lsls	r5, r3, #3
 8004c5a:	ea45 7552 	orr.w	r5, r5, r2, lsr #29
 8004c5e:	00d4      	lsls	r4, r2, #3
 8004c60:	4622      	mov	r2, r4
 8004c62:	462b      	mov	r3, r5
 8004c64:	1814      	adds	r4, r2, r0
 8004c66:	653c      	str	r4, [r7, #80]	; 0x50
 8004c68:	414b      	adcs	r3, r1
 8004c6a:	657b      	str	r3, [r7, #84]	; 0x54
 8004c6c:	6efb      	ldr	r3, [r7, #108]	; 0x6c
 8004c6e:	685b      	ldr	r3, [r3, #4]
 8004c70:	461a      	mov	r2, r3
 8004c72:	f04f 0300 	mov.w	r3, #0
 8004c76:	1891      	adds	r1, r2, r2
 8004c78:	61b9      	str	r1, [r7, #24]
 8004c7a:	415b      	adcs	r3, r3
 8004c7c:	61fb      	str	r3, [r7, #28]
 8004c7e:	e9d7 2306 	ldrd	r2, r3, [r7, #24]
 8004c82:	e9d7 0114 	ldrd	r0, r1, [r7, #80]	; 0x50
 8004c86:	f7fb fb0b 	bl	80002a0 <__aeabi_uldivmod>
 8004c8a:	4602      	mov	r2, r0
 8004c8c:	460b      	mov	r3, r1
 8004c8e:	4b6c      	ldr	r3, [pc, #432]	; (8004e40 <UART_SetConfig+0x38c>)
 8004c90:	fba3 1302 	umull	r1, r3, r3, r2
 8004c94:	095b      	lsrs	r3, r3, #5
 8004c96:	2164      	movs	r1, #100	; 0x64
 8004c98:	fb01 f303 	mul.w	r3, r1, r3
 8004c9c:	1ad3      	subs	r3, r2, r3
 8004c9e:	00db      	lsls	r3, r3, #3
 8004ca0:	3332      	adds	r3, #50	; 0x32
 8004ca2:	4a67      	ldr	r2, [pc, #412]	; (8004e40 <UART_SetConfig+0x38c>)
 8004ca4:	fba2 2303 	umull	r2, r3, r2, r3
 8004ca8:	095b      	lsrs	r3, r3, #5
 8004caa:	f003 0207 	and.w	r2, r3, #7
 8004cae:	6efb      	ldr	r3, [r7, #108]	; 0x6c
 8004cb0:	681b      	ldr	r3, [r3, #0]
 8004cb2:	4432      	add	r2, r6
 8004cb4:	609a      	str	r2, [r3, #8]
  }
  else
  {
    huart->Instance->BRR = UART_BRR_SAMPLING16(pclk, huart->Init.BaudRate);
  }
}
 8004cb6:	e0b9      	b.n	8004e2c <UART_SetConfig+0x378>
    huart->Instance->BRR = UART_BRR_SAMPLING16(pclk, huart->Init.BaudRate);
 8004cb8:	6f7b      	ldr	r3, [r7, #116]	; 0x74
 8004cba:	461c      	mov	r4, r3
 8004cbc:	f04f 0500 	mov.w	r5, #0
 8004cc0:	4622      	mov	r2, r4
 8004cc2:	462b      	mov	r3, r5
 8004cc4:	1891      	adds	r1, r2, r2
 8004cc6:	6139      	str	r1, [r7, #16]
 8004cc8:	415b      	adcs	r3, r3
 8004cca:	617b      	str	r3, [r7, #20]
 8004ccc:	e9d7 2304 	ldrd	r2, r3, [r7, #16]
 8004cd0:	1912      	adds	r2, r2, r4
 8004cd2:	eb45 0303 	adc.w	r3, r5, r3
 8004cd6:	f04f 0000 	mov.w	r0, #0
 8004cda:	f04f 0100 	mov.w	r1, #0
 8004cde:	00d9      	lsls	r1, r3, #3
 8004ce0:	ea41 7152 	orr.w	r1, r1, r2, lsr #29
 8004ce4:	00d0      	lsls	r0, r2, #3
 8004ce6:	4602      	mov	r2, r0
 8004ce8:	460b      	mov	r3, r1
 8004cea:	eb12 0804 	adds.w	r8, r2, r4
 8004cee:	eb43 0905 	adc.w	r9, r3, r5
 8004cf2:	6efb      	ldr	r3, [r7, #108]	; 0x6c
 8004cf4:	685b      	ldr	r3, [r3, #4]
 8004cf6:	4618      	mov	r0, r3
 8004cf8:	f04f 0100 	mov.w	r1, #0
 8004cfc:	f04f 0200 	mov.w	r2, #0
 8004d00:	f04f 0300 	mov.w	r3, #0
 8004d04:	008b      	lsls	r3, r1, #2
 8004d06:	ea43 7390 	orr.w	r3, r3, r0, lsr #30
 8004d0a:	0082      	lsls	r2, r0, #2
 8004d0c:	4640      	mov	r0, r8
 8004d0e:	4649      	mov	r1, r9
 8004d10:	f7fb fac6 	bl	80002a0 <__aeabi_uldivmod>
 8004d14:	4602      	mov	r2, r0
 8004d16:	460b      	mov	r3, r1
 8004d18:	4b49      	ldr	r3, [pc, #292]	; (8004e40 <UART_SetConfig+0x38c>)
 8004d1a:	fba3 2302 	umull	r2, r3, r3, r2
 8004d1e:	095b      	lsrs	r3, r3, #5
 8004d20:	011e      	lsls	r6, r3, #4
 8004d22:	6f7b      	ldr	r3, [r7, #116]	; 0x74
 8004d24:	4618      	mov	r0, r3
 8004d26:	f04f 0100 	mov.w	r1, #0
 8004d2a:	4602      	mov	r2, r0
 8004d2c:	460b      	mov	r3, r1
 8004d2e:	1894      	adds	r4, r2, r2
 8004d30:	60bc      	str	r4, [r7, #8]
 8004d32:	415b      	adcs	r3, r3
 8004d34:	60fb      	str	r3, [r7, #12]
 8004d36:	e9d7 2302 	ldrd	r2, r3, [r7, #8]
 8004d3a:	1812      	adds	r2, r2, r0
 8004d3c:	eb41 0303 	adc.w	r3, r1, r3
 8004d40:	f04f 0400 	mov.w	r4, #0
 8004d44:	f04f 0500 	mov.w	r5, #0
 8004d48:	00dd      	lsls	r5, r3, #3
 8004d4a:	ea45 7552 	orr.w	r5, r5, r2, lsr #29
 8004d4e:	00d4      	lsls	r4, r2, #3
 8004d50:	4622      	mov	r2, r4
 8004d52:	462b      	mov	r3, r5
 8004d54:	1814      	adds	r4, r2, r0
 8004d56:	64bc      	str	r4, [r7, #72]	; 0x48
 8004d58:	414b      	adcs	r3, r1
 8004d5a:	64fb      	str	r3, [r7, #76]	; 0x4c
 8004d5c:	6efb      	ldr	r3, [r7, #108]	; 0x6c
 8004d5e:	685b      	ldr	r3, [r3, #4]
 8004d60:	4618      	mov	r0, r3
 8004d62:	f04f 0100 	mov.w	r1, #0
 8004d66:	f04f 0200 	mov.w	r2, #0
 8004d6a:	f04f 0300 	mov.w	r3, #0
 8004d6e:	008b      	lsls	r3, r1, #2
 8004d70:	ea43 7390 	orr.w	r3, r3, r0, lsr #30
 8004d74:	0082      	lsls	r2, r0, #2
 8004d76:	e9d7 0112 	ldrd	r0, r1, [r7, #72]	; 0x48
 8004d7a:	f7fb fa91 	bl	80002a0 <__aeabi_uldivmod>
 8004d7e:	4602      	mov	r2, r0
 8004d80:	460b      	mov	r3, r1
 8004d82:	4b2f      	ldr	r3, [pc, #188]	; (8004e40 <UART_SetConfig+0x38c>)
 8004d84:	fba3 1302 	umull	r1, r3, r3, r2
 8004d88:	095b      	lsrs	r3, r3, #5
 8004d8a:	2164      	movs	r1, #100	; 0x64
 8004d8c:	fb01 f303 	mul.w	r3, r1, r3
 8004d90:	1ad3      	subs	r3, r2, r3
 8004d92:	011b      	lsls	r3, r3, #4
 8004d94:	3332      	adds	r3, #50	; 0x32
 8004d96:	4a2a      	ldr	r2, [pc, #168]	; (8004e40 <UART_SetConfig+0x38c>)
 8004d98:	fba2 2303 	umull	r2, r3, r2, r3
 8004d9c:	095b      	lsrs	r3, r3, #5
 8004d9e:	f003 03f0 	and.w	r3, r3, #240	; 0xf0
 8004da2:	441e      	add	r6, r3
 8004da4:	6f7b      	ldr	r3, [r7, #116]	; 0x74
 8004da6:	4618      	mov	r0, r3
 8004da8:	f04f 0100 	mov.w	r1, #0
 8004dac:	4602      	mov	r2, r0
 8004dae:	460b      	mov	r3, r1
 8004db0:	1894      	adds	r4, r2, r2
 8004db2:	603c      	str	r4, [r7, #0]
 8004db4:	415b      	adcs	r3, r3
 8004db6:	607b      	str	r3, [r7, #4]
 8004db8:	e9d7 2300 	ldrd	r2, r3, [r7]
 8004dbc:	1812      	adds	r2, r2, r0
 8004dbe:	eb41 0303 	adc.w	r3, r1, r3
 8004dc2:	f04f 0400 	mov.w	r4, #0
 8004dc6:	f04f 0500 	mov.w	r5, #0
 8004dca:	00dd      	lsls	r5, r3, #3
 8004dcc:	ea45 7552 	orr.w	r5, r5, r2, lsr #29
 8004dd0:	00d4      	lsls	r4, r2, #3
 8004dd2:	4622      	mov	r2, r4
 8004dd4:	462b      	mov	r3, r5
 8004dd6:	eb12 0a00 	adds.w	sl, r2, r0
 8004dda:	eb43 0b01 	adc.w	fp, r3, r1
 8004dde:	6efb      	ldr	r3, [r7, #108]	; 0x6c
 8004de0:	685b      	ldr	r3, [r3, #4]
 8004de2:	4618      	mov	r0, r3
 8004de4:	f04f 0100 	mov.w	r1, #0
 8004de8:	f04f 0200 	mov.w	r2, #0
 8004dec:	f04f 0300 	mov.w	r3, #0
 8004df0:	008b      	lsls	r3, r1, #2
 8004df2:	ea43 7390 	orr.w	r3, r3, r0, lsr #30
 8004df6:	0082      	lsls	r2, r0, #2
 8004df8:	4650      	mov	r0, sl
 8004dfa:	4659      	mov	r1, fp
 8004dfc:	f7fb fa50 	bl	80002a0 <__aeabi_uldivmod>
 8004e00:	4602      	mov	r2, r0
 8004e02:	460b      	mov	r3, r1
 8004e04:	4b0e      	ldr	r3, [pc, #56]	; (8004e40 <UART_SetConfig+0x38c>)
 8004e06:	fba3 1302 	umull	r1, r3, r3, r2
 8004e0a:	095b      	lsrs	r3, r3, #5
 8004e0c:	2164      	movs	r1, #100	; 0x64
 8004e0e:	fb01 f303 	mul.w	r3, r1, r3
 8004e12:	1ad3      	subs	r3, r2, r3
 8004e14:	011b      	lsls	r3, r3, #4
 8004e16:	3332      	adds	r3, #50	; 0x32
 8004e18:	4a09      	ldr	r2, [pc, #36]	; (8004e40 <UART_SetConfig+0x38c>)
 8004e1a:	fba2 2303 	umull	r2, r3, r2, r3
 8004e1e:	095b      	lsrs	r3, r3, #5
 8004e20:	f003 020f 	and.w	r2, r3, #15
 8004e24:	6efb      	ldr	r3, [r7, #108]	; 0x6c
 8004e26:	681b      	ldr	r3, [r3, #0]
 8004e28:	4432      	add	r2, r6
 8004e2a:	609a      	str	r2, [r3, #8]
}
 8004e2c:	bf00      	nop
 8004e2e:	377c      	adds	r7, #124	; 0x7c
 8004e30:	46bd      	mov	sp, r7
 8004e32:	e8bd 8ff0 	ldmia.w	sp!, {r4, r5, r6, r7, r8, r9, sl, fp, pc}
 8004e36:	bf00      	nop
 8004e38:	40011000 	.word	0x40011000
 8004e3c:	40011400 	.word	0x40011400
 8004e40:	51eb851f 	.word	0x51eb851f

08004e44 <__errno>:
 8004e44:	4b01      	ldr	r3, [pc, #4]	; (8004e4c <__errno+0x8>)
 8004e46:	6818      	ldr	r0, [r3, #0]
 8004e48:	4770      	bx	lr
 8004e4a:	bf00      	nop
 8004e4c:	2000002c 	.word	0x2000002c

08004e50 <__libc_init_array>:
 8004e50:	b570      	push	{r4, r5, r6, lr}
 8004e52:	4d0d      	ldr	r5, [pc, #52]	; (8004e88 <__libc_init_array+0x38>)
 8004e54:	4c0d      	ldr	r4, [pc, #52]	; (8004e8c <__libc_init_array+0x3c>)
 8004e56:	1b64      	subs	r4, r4, r5
 8004e58:	10a4      	asrs	r4, r4, #2
 8004e5a:	2600      	movs	r6, #0
 8004e5c:	42a6      	cmp	r6, r4
 8004e5e:	d109      	bne.n	8004e74 <__libc_init_array+0x24>
 8004e60:	4d0b      	ldr	r5, [pc, #44]	; (8004e90 <__libc_init_array+0x40>)
 8004e62:	4c0c      	ldr	r4, [pc, #48]	; (8004e94 <__libc_init_array+0x44>)
 8004e64:	f001 fa10 	bl	8006288 <_init>
 8004e68:	1b64      	subs	r4, r4, r5
 8004e6a:	10a4      	asrs	r4, r4, #2
 8004e6c:	2600      	movs	r6, #0
 8004e6e:	42a6      	cmp	r6, r4
 8004e70:	d105      	bne.n	8004e7e <__libc_init_array+0x2e>
 8004e72:	bd70      	pop	{r4, r5, r6, pc}
 8004e74:	f855 3b04 	ldr.w	r3, [r5], #4
 8004e78:	4798      	blx	r3
 8004e7a:	3601      	adds	r6, #1
 8004e7c:	e7ee      	b.n	8004e5c <__libc_init_array+0xc>
 8004e7e:	f855 3b04 	ldr.w	r3, [r5], #4
 8004e82:	4798      	blx	r3
 8004e84:	3601      	adds	r6, #1
 8004e86:	e7f2      	b.n	8004e6e <__libc_init_array+0x1e>
 8004e88:	08006460 	.word	0x08006460
 8004e8c:	08006460 	.word	0x08006460
 8004e90:	08006460 	.word	0x08006460
 8004e94:	08006464 	.word	0x08006464

08004e98 <memset>:
 8004e98:	4402      	add	r2, r0
 8004e9a:	4603      	mov	r3, r0
 8004e9c:	4293      	cmp	r3, r2
 8004e9e:	d100      	bne.n	8004ea2 <memset+0xa>
 8004ea0:	4770      	bx	lr
 8004ea2:	f803 1b01 	strb.w	r1, [r3], #1
 8004ea6:	e7f9      	b.n	8004e9c <memset+0x4>

08004ea8 <siprintf>:
 8004ea8:	b40e      	push	{r1, r2, r3}
 8004eaa:	b500      	push	{lr}
 8004eac:	b09c      	sub	sp, #112	; 0x70
 8004eae:	ab1d      	add	r3, sp, #116	; 0x74
 8004eb0:	9002      	str	r0, [sp, #8]
 8004eb2:	9006      	str	r0, [sp, #24]
 8004eb4:	f06f 4100 	mvn.w	r1, #2147483648	; 0x80000000
 8004eb8:	4809      	ldr	r0, [pc, #36]	; (8004ee0 <siprintf+0x38>)
 8004eba:	9107      	str	r1, [sp, #28]
 8004ebc:	9104      	str	r1, [sp, #16]
 8004ebe:	4909      	ldr	r1, [pc, #36]	; (8004ee4 <siprintf+0x3c>)
 8004ec0:	f853 2b04 	ldr.w	r2, [r3], #4
 8004ec4:	9105      	str	r1, [sp, #20]
 8004ec6:	6800      	ldr	r0, [r0, #0]
 8004ec8:	9301      	str	r3, [sp, #4]
 8004eca:	a902      	add	r1, sp, #8
 8004ecc:	f000 f9a6 	bl	800521c <_svfiprintf_r>
 8004ed0:	9b02      	ldr	r3, [sp, #8]
 8004ed2:	2200      	movs	r2, #0
 8004ed4:	701a      	strb	r2, [r3, #0]
 8004ed6:	b01c      	add	sp, #112	; 0x70
 8004ed8:	f85d eb04 	ldr.w	lr, [sp], #4
 8004edc:	b003      	add	sp, #12
 8004ede:	4770      	bx	lr
 8004ee0:	2000002c 	.word	0x2000002c
 8004ee4:	ffff0208 	.word	0xffff0208

08004ee8 <strtok>:
 8004ee8:	4b16      	ldr	r3, [pc, #88]	; (8004f44 <strtok+0x5c>)
 8004eea:	b573      	push	{r0, r1, r4, r5, r6, lr}
 8004eec:	681e      	ldr	r6, [r3, #0]
 8004eee:	6db4      	ldr	r4, [r6, #88]	; 0x58
 8004ef0:	4605      	mov	r5, r0
 8004ef2:	b9fc      	cbnz	r4, 8004f34 <strtok+0x4c>
 8004ef4:	2050      	movs	r0, #80	; 0x50
 8004ef6:	9101      	str	r1, [sp, #4]
 8004ef8:	f000 f882 	bl	8005000 <malloc>
 8004efc:	9901      	ldr	r1, [sp, #4]
 8004efe:	65b0      	str	r0, [r6, #88]	; 0x58
 8004f00:	4602      	mov	r2, r0
 8004f02:	b920      	cbnz	r0, 8004f0e <strtok+0x26>
 8004f04:	4b10      	ldr	r3, [pc, #64]	; (8004f48 <strtok+0x60>)
 8004f06:	4811      	ldr	r0, [pc, #68]	; (8004f4c <strtok+0x64>)
 8004f08:	2157      	movs	r1, #87	; 0x57
 8004f0a:	f000 f849 	bl	8004fa0 <__assert_func>
 8004f0e:	e9c0 4400 	strd	r4, r4, [r0]
 8004f12:	e9c0 4402 	strd	r4, r4, [r0, #8]
 8004f16:	e9c0 4404 	strd	r4, r4, [r0, #16]
 8004f1a:	e9c0 440a 	strd	r4, r4, [r0, #40]	; 0x28
 8004f1e:	e9c0 440c 	strd	r4, r4, [r0, #48]	; 0x30
 8004f22:	e9c0 440e 	strd	r4, r4, [r0, #56]	; 0x38
 8004f26:	e9c0 4410 	strd	r4, r4, [r0, #64]	; 0x40
 8004f2a:	e9c0 4412 	strd	r4, r4, [r0, #72]	; 0x48
 8004f2e:	6184      	str	r4, [r0, #24]
 8004f30:	7704      	strb	r4, [r0, #28]
 8004f32:	6244      	str	r4, [r0, #36]	; 0x24
 8004f34:	6db2      	ldr	r2, [r6, #88]	; 0x58
 8004f36:	2301      	movs	r3, #1
 8004f38:	4628      	mov	r0, r5
 8004f3a:	b002      	add	sp, #8
 8004f3c:	e8bd 4070 	ldmia.w	sp!, {r4, r5, r6, lr}
 8004f40:	f000 b806 	b.w	8004f50 <__strtok_r>
 8004f44:	2000002c 	.word	0x2000002c
 8004f48:	08006310 	.word	0x08006310
 8004f4c:	08006327 	.word	0x08006327

08004f50 <__strtok_r>:
 8004f50:	b5f0      	push	{r4, r5, r6, r7, lr}
 8004f52:	b908      	cbnz	r0, 8004f58 <__strtok_r+0x8>
 8004f54:	6810      	ldr	r0, [r2, #0]
 8004f56:	b188      	cbz	r0, 8004f7c <__strtok_r+0x2c>
 8004f58:	4604      	mov	r4, r0
 8004f5a:	4620      	mov	r0, r4
 8004f5c:	f814 5b01 	ldrb.w	r5, [r4], #1
 8004f60:	460f      	mov	r7, r1
 8004f62:	f817 6b01 	ldrb.w	r6, [r7], #1
 8004f66:	b91e      	cbnz	r6, 8004f70 <__strtok_r+0x20>
 8004f68:	b965      	cbnz	r5, 8004f84 <__strtok_r+0x34>
 8004f6a:	6015      	str	r5, [r2, #0]
 8004f6c:	4628      	mov	r0, r5
 8004f6e:	e005      	b.n	8004f7c <__strtok_r+0x2c>
 8004f70:	42b5      	cmp	r5, r6
 8004f72:	d1f6      	bne.n	8004f62 <__strtok_r+0x12>
 8004f74:	2b00      	cmp	r3, #0
 8004f76:	d1f0      	bne.n	8004f5a <__strtok_r+0xa>
 8004f78:	6014      	str	r4, [r2, #0]
 8004f7a:	7003      	strb	r3, [r0, #0]
 8004f7c:	bdf0      	pop	{r4, r5, r6, r7, pc}
 8004f7e:	461c      	mov	r4, r3
 8004f80:	e00c      	b.n	8004f9c <__strtok_r+0x4c>
 8004f82:	b915      	cbnz	r5, 8004f8a <__strtok_r+0x3a>
 8004f84:	f814 3b01 	ldrb.w	r3, [r4], #1
 8004f88:	460e      	mov	r6, r1
 8004f8a:	f816 5b01 	ldrb.w	r5, [r6], #1
 8004f8e:	42ab      	cmp	r3, r5
 8004f90:	d1f7      	bne.n	8004f82 <__strtok_r+0x32>
 8004f92:	2b00      	cmp	r3, #0
 8004f94:	d0f3      	beq.n	8004f7e <__strtok_r+0x2e>
 8004f96:	2300      	movs	r3, #0
 8004f98:	f804 3c01 	strb.w	r3, [r4, #-1]
 8004f9c:	6014      	str	r4, [r2, #0]
 8004f9e:	e7ed      	b.n	8004f7c <__strtok_r+0x2c>

08004fa0 <__assert_func>:
 8004fa0:	b51f      	push	{r0, r1, r2, r3, r4, lr}
 8004fa2:	4614      	mov	r4, r2
 8004fa4:	461a      	mov	r2, r3
 8004fa6:	4b09      	ldr	r3, [pc, #36]	; (8004fcc <__assert_func+0x2c>)
 8004fa8:	681b      	ldr	r3, [r3, #0]
 8004faa:	4605      	mov	r5, r0
 8004fac:	68d8      	ldr	r0, [r3, #12]
 8004fae:	b14c      	cbz	r4, 8004fc4 <__assert_func+0x24>
 8004fb0:	4b07      	ldr	r3, [pc, #28]	; (8004fd0 <__assert_func+0x30>)
 8004fb2:	9100      	str	r1, [sp, #0]
 8004fb4:	e9cd 3401 	strd	r3, r4, [sp, #4]
 8004fb8:	4906      	ldr	r1, [pc, #24]	; (8004fd4 <__assert_func+0x34>)
 8004fba:	462b      	mov	r3, r5
 8004fbc:	f000 f80e 	bl	8004fdc <fiprintf>
 8004fc0:	f000 fdea 	bl	8005b98 <abort>
 8004fc4:	4b04      	ldr	r3, [pc, #16]	; (8004fd8 <__assert_func+0x38>)
 8004fc6:	461c      	mov	r4, r3
 8004fc8:	e7f3      	b.n	8004fb2 <__assert_func+0x12>
 8004fca:	bf00      	nop
 8004fcc:	2000002c 	.word	0x2000002c
 8004fd0:	08006388 	.word	0x08006388
 8004fd4:	08006395 	.word	0x08006395
 8004fd8:	080063c3 	.word	0x080063c3

08004fdc <fiprintf>:
 8004fdc:	b40e      	push	{r1, r2, r3}
 8004fde:	b503      	push	{r0, r1, lr}
 8004fe0:	4601      	mov	r1, r0
 8004fe2:	ab03      	add	r3, sp, #12
 8004fe4:	4805      	ldr	r0, [pc, #20]	; (8004ffc <fiprintf+0x20>)
 8004fe6:	f853 2b04 	ldr.w	r2, [r3], #4
 8004fea:	6800      	ldr	r0, [r0, #0]
 8004fec:	9301      	str	r3, [sp, #4]
 8004fee:	f000 fa3f 	bl	8005470 <_vfiprintf_r>
 8004ff2:	b002      	add	sp, #8
 8004ff4:	f85d eb04 	ldr.w	lr, [sp], #4
 8004ff8:	b003      	add	sp, #12
 8004ffa:	4770      	bx	lr
 8004ffc:	2000002c 	.word	0x2000002c

08005000 <malloc>:
 8005000:	4b02      	ldr	r3, [pc, #8]	; (800500c <malloc+0xc>)
 8005002:	4601      	mov	r1, r0
 8005004:	6818      	ldr	r0, [r3, #0]
 8005006:	f000 b853 	b.w	80050b0 <_malloc_r>
 800500a:	bf00      	nop
 800500c:	2000002c 	.word	0x2000002c

08005010 <_free_r>:
 8005010:	b537      	push	{r0, r1, r2, r4, r5, lr}
 8005012:	2900      	cmp	r1, #0
 8005014:	d048      	beq.n	80050a8 <_free_r+0x98>
 8005016:	f851 3c04 	ldr.w	r3, [r1, #-4]
 800501a:	9001      	str	r0, [sp, #4]
 800501c:	2b00      	cmp	r3, #0
 800501e:	f1a1 0404 	sub.w	r4, r1, #4
 8005022:	bfb8      	it	lt
 8005024:	18e4      	addlt	r4, r4, r3
 8005026:	f001 f805 	bl	8006034 <__malloc_lock>
 800502a:	4a20      	ldr	r2, [pc, #128]	; (80050ac <_free_r+0x9c>)
 800502c:	9801      	ldr	r0, [sp, #4]
 800502e:	6813      	ldr	r3, [r2, #0]
 8005030:	4615      	mov	r5, r2
 8005032:	b933      	cbnz	r3, 8005042 <_free_r+0x32>
 8005034:	6063      	str	r3, [r4, #4]
 8005036:	6014      	str	r4, [r2, #0]
 8005038:	b003      	add	sp, #12
 800503a:	e8bd 4030 	ldmia.w	sp!, {r4, r5, lr}
 800503e:	f000 bfff 	b.w	8006040 <__malloc_unlock>
 8005042:	42a3      	cmp	r3, r4
 8005044:	d90b      	bls.n	800505e <_free_r+0x4e>
 8005046:	6821      	ldr	r1, [r4, #0]
 8005048:	1862      	adds	r2, r4, r1
 800504a:	4293      	cmp	r3, r2
 800504c:	bf04      	itt	eq
 800504e:	681a      	ldreq	r2, [r3, #0]
 8005050:	685b      	ldreq	r3, [r3, #4]
 8005052:	6063      	str	r3, [r4, #4]
 8005054:	bf04      	itt	eq
 8005056:	1852      	addeq	r2, r2, r1
 8005058:	6022      	streq	r2, [r4, #0]
 800505a:	602c      	str	r4, [r5, #0]
 800505c:	e7ec      	b.n	8005038 <_free_r+0x28>
 800505e:	461a      	mov	r2, r3
 8005060:	685b      	ldr	r3, [r3, #4]
 8005062:	b10b      	cbz	r3, 8005068 <_free_r+0x58>
 8005064:	42a3      	cmp	r3, r4
 8005066:	d9fa      	bls.n	800505e <_free_r+0x4e>
 8005068:	6811      	ldr	r1, [r2, #0]
 800506a:	1855      	adds	r5, r2, r1
 800506c:	42a5      	cmp	r5, r4
 800506e:	d10b      	bne.n	8005088 <_free_r+0x78>
 8005070:	6824      	ldr	r4, [r4, #0]
 8005072:	4421      	add	r1, r4
 8005074:	1854      	adds	r4, r2, r1
 8005076:	42a3      	cmp	r3, r4
 8005078:	6011      	str	r1, [r2, #0]
 800507a:	d1dd      	bne.n	8005038 <_free_r+0x28>
 800507c:	681c      	ldr	r4, [r3, #0]
 800507e:	685b      	ldr	r3, [r3, #4]
 8005080:	6053      	str	r3, [r2, #4]
 8005082:	4421      	add	r1, r4
 8005084:	6011      	str	r1, [r2, #0]
 8005086:	e7d7      	b.n	8005038 <_free_r+0x28>
 8005088:	d902      	bls.n	8005090 <_free_r+0x80>
 800508a:	230c      	movs	r3, #12
 800508c:	6003      	str	r3, [r0, #0]
 800508e:	e7d3      	b.n	8005038 <_free_r+0x28>
 8005090:	6825      	ldr	r5, [r4, #0]
 8005092:	1961      	adds	r1, r4, r5
 8005094:	428b      	cmp	r3, r1
 8005096:	bf04      	itt	eq
 8005098:	6819      	ldreq	r1, [r3, #0]
 800509a:	685b      	ldreq	r3, [r3, #4]
 800509c:	6063      	str	r3, [r4, #4]
 800509e:	bf04      	itt	eq
 80050a0:	1949      	addeq	r1, r1, r5
 80050a2:	6021      	streq	r1, [r4, #0]
 80050a4:	6054      	str	r4, [r2, #4]
 80050a6:	e7c7      	b.n	8005038 <_free_r+0x28>
 80050a8:	b003      	add	sp, #12
 80050aa:	bd30      	pop	{r4, r5, pc}
 80050ac:	200000b4 	.word	0x200000b4

080050b0 <_malloc_r>:
 80050b0:	b5f8      	push	{r3, r4, r5, r6, r7, lr}
 80050b2:	1ccd      	adds	r5, r1, #3
 80050b4:	f025 0503 	bic.w	r5, r5, #3
 80050b8:	3508      	adds	r5, #8
 80050ba:	2d0c      	cmp	r5, #12
 80050bc:	bf38      	it	cc
 80050be:	250c      	movcc	r5, #12
 80050c0:	2d00      	cmp	r5, #0
 80050c2:	4606      	mov	r6, r0
 80050c4:	db01      	blt.n	80050ca <_malloc_r+0x1a>
 80050c6:	42a9      	cmp	r1, r5
 80050c8:	d903      	bls.n	80050d2 <_malloc_r+0x22>
 80050ca:	230c      	movs	r3, #12
 80050cc:	6033      	str	r3, [r6, #0]
 80050ce:	2000      	movs	r0, #0
 80050d0:	bdf8      	pop	{r3, r4, r5, r6, r7, pc}
 80050d2:	f000 ffaf 	bl	8006034 <__malloc_lock>
 80050d6:	4921      	ldr	r1, [pc, #132]	; (800515c <_malloc_r+0xac>)
 80050d8:	680a      	ldr	r2, [r1, #0]
 80050da:	4614      	mov	r4, r2
 80050dc:	b99c      	cbnz	r4, 8005106 <_malloc_r+0x56>
 80050de:	4f20      	ldr	r7, [pc, #128]	; (8005160 <_malloc_r+0xb0>)
 80050e0:	683b      	ldr	r3, [r7, #0]
 80050e2:	b923      	cbnz	r3, 80050ee <_malloc_r+0x3e>
 80050e4:	4621      	mov	r1, r4
 80050e6:	4630      	mov	r0, r6
 80050e8:	f000 fc86 	bl	80059f8 <_sbrk_r>
 80050ec:	6038      	str	r0, [r7, #0]
 80050ee:	4629      	mov	r1, r5
 80050f0:	4630      	mov	r0, r6
 80050f2:	f000 fc81 	bl	80059f8 <_sbrk_r>
 80050f6:	1c43      	adds	r3, r0, #1
 80050f8:	d123      	bne.n	8005142 <_malloc_r+0x92>
 80050fa:	230c      	movs	r3, #12
 80050fc:	6033      	str	r3, [r6, #0]
 80050fe:	4630      	mov	r0, r6
 8005100:	f000 ff9e 	bl	8006040 <__malloc_unlock>
 8005104:	e7e3      	b.n	80050ce <_malloc_r+0x1e>
 8005106:	6823      	ldr	r3, [r4, #0]
 8005108:	1b5b      	subs	r3, r3, r5
 800510a:	d417      	bmi.n	800513c <_malloc_r+0x8c>
 800510c:	2b0b      	cmp	r3, #11
 800510e:	d903      	bls.n	8005118 <_malloc_r+0x68>
 8005110:	6023      	str	r3, [r4, #0]
 8005112:	441c      	add	r4, r3
 8005114:	6025      	str	r5, [r4, #0]
 8005116:	e004      	b.n	8005122 <_malloc_r+0x72>
 8005118:	6863      	ldr	r3, [r4, #4]
 800511a:	42a2      	cmp	r2, r4
 800511c:	bf0c      	ite	eq
 800511e:	600b      	streq	r3, [r1, #0]
 8005120:	6053      	strne	r3, [r2, #4]
 8005122:	4630      	mov	r0, r6
 8005124:	f000 ff8c 	bl	8006040 <__malloc_unlock>
 8005128:	f104 000b 	add.w	r0, r4, #11
 800512c:	1d23      	adds	r3, r4, #4
 800512e:	f020 0007 	bic.w	r0, r0, #7
 8005132:	1ac2      	subs	r2, r0, r3
 8005134:	d0cc      	beq.n	80050d0 <_malloc_r+0x20>
 8005136:	1a1b      	subs	r3, r3, r0
 8005138:	50a3      	str	r3, [r4, r2]
 800513a:	e7c9      	b.n	80050d0 <_malloc_r+0x20>
 800513c:	4622      	mov	r2, r4
 800513e:	6864      	ldr	r4, [r4, #4]
 8005140:	e7cc      	b.n	80050dc <_malloc_r+0x2c>
 8005142:	1cc4      	adds	r4, r0, #3
 8005144:	f024 0403 	bic.w	r4, r4, #3
 8005148:	42a0      	cmp	r0, r4
 800514a:	d0e3      	beq.n	8005114 <_malloc_r+0x64>
 800514c:	1a21      	subs	r1, r4, r0
 800514e:	4630      	mov	r0, r6
 8005150:	f000 fc52 	bl	80059f8 <_sbrk_r>
 8005154:	3001      	adds	r0, #1
 8005156:	d1dd      	bne.n	8005114 <_malloc_r+0x64>
 8005158:	e7cf      	b.n	80050fa <_malloc_r+0x4a>
 800515a:	bf00      	nop
 800515c:	200000b4 	.word	0x200000b4
 8005160:	200000b8 	.word	0x200000b8

08005164 <__ssputs_r>:
 8005164:	e92d 47f0 	stmdb	sp!, {r4, r5, r6, r7, r8, r9, sl, lr}
 8005168:	688e      	ldr	r6, [r1, #8]
 800516a:	429e      	cmp	r6, r3
 800516c:	4682      	mov	sl, r0
 800516e:	460c      	mov	r4, r1
 8005170:	4690      	mov	r8, r2
 8005172:	461f      	mov	r7, r3
 8005174:	d838      	bhi.n	80051e8 <__ssputs_r+0x84>
 8005176:	898a      	ldrh	r2, [r1, #12]
 8005178:	f412 6f90 	tst.w	r2, #1152	; 0x480
 800517c:	d032      	beq.n	80051e4 <__ssputs_r+0x80>
 800517e:	6825      	ldr	r5, [r4, #0]
 8005180:	6909      	ldr	r1, [r1, #16]
 8005182:	eba5 0901 	sub.w	r9, r5, r1
 8005186:	6965      	ldr	r5, [r4, #20]
 8005188:	eb05 0545 	add.w	r5, r5, r5, lsl #1
 800518c:	eb05 75d5 	add.w	r5, r5, r5, lsr #31
 8005190:	3301      	adds	r3, #1
 8005192:	444b      	add	r3, r9
 8005194:	106d      	asrs	r5, r5, #1
 8005196:	429d      	cmp	r5, r3
 8005198:	bf38      	it	cc
 800519a:	461d      	movcc	r5, r3
 800519c:	0553      	lsls	r3, r2, #21
 800519e:	d531      	bpl.n	8005204 <__ssputs_r+0xa0>
 80051a0:	4629      	mov	r1, r5
 80051a2:	f7ff ff85 	bl	80050b0 <_malloc_r>
 80051a6:	4606      	mov	r6, r0
 80051a8:	b950      	cbnz	r0, 80051c0 <__ssputs_r+0x5c>
 80051aa:	230c      	movs	r3, #12
 80051ac:	f8ca 3000 	str.w	r3, [sl]
 80051b0:	89a3      	ldrh	r3, [r4, #12]
 80051b2:	f043 0340 	orr.w	r3, r3, #64	; 0x40
 80051b6:	81a3      	strh	r3, [r4, #12]
 80051b8:	f04f 30ff 	mov.w	r0, #4294967295
 80051bc:	e8bd 87f0 	ldmia.w	sp!, {r4, r5, r6, r7, r8, r9, sl, pc}
 80051c0:	6921      	ldr	r1, [r4, #16]
 80051c2:	464a      	mov	r2, r9
 80051c4:	f000 ff0e 	bl	8005fe4 <memcpy>
 80051c8:	89a3      	ldrh	r3, [r4, #12]
 80051ca:	f423 6390 	bic.w	r3, r3, #1152	; 0x480
 80051ce:	f043 0380 	orr.w	r3, r3, #128	; 0x80
 80051d2:	81a3      	strh	r3, [r4, #12]
 80051d4:	6126      	str	r6, [r4, #16]
 80051d6:	6165      	str	r5, [r4, #20]
 80051d8:	444e      	add	r6, r9
 80051da:	eba5 0509 	sub.w	r5, r5, r9
 80051de:	6026      	str	r6, [r4, #0]
 80051e0:	60a5      	str	r5, [r4, #8]
 80051e2:	463e      	mov	r6, r7
 80051e4:	42be      	cmp	r6, r7
 80051e6:	d900      	bls.n	80051ea <__ssputs_r+0x86>
 80051e8:	463e      	mov	r6, r7
 80051ea:	4632      	mov	r2, r6
 80051ec:	6820      	ldr	r0, [r4, #0]
 80051ee:	4641      	mov	r1, r8
 80051f0:	f000 ff06 	bl	8006000 <memmove>
 80051f4:	68a3      	ldr	r3, [r4, #8]
 80051f6:	6822      	ldr	r2, [r4, #0]
 80051f8:	1b9b      	subs	r3, r3, r6
 80051fa:	4432      	add	r2, r6
 80051fc:	60a3      	str	r3, [r4, #8]
 80051fe:	6022      	str	r2, [r4, #0]
 8005200:	2000      	movs	r0, #0
 8005202:	e7db      	b.n	80051bc <__ssputs_r+0x58>
 8005204:	462a      	mov	r2, r5
 8005206:	f000 ff21 	bl	800604c <_realloc_r>
 800520a:	4606      	mov	r6, r0
 800520c:	2800      	cmp	r0, #0
 800520e:	d1e1      	bne.n	80051d4 <__ssputs_r+0x70>
 8005210:	6921      	ldr	r1, [r4, #16]
 8005212:	4650      	mov	r0, sl
 8005214:	f7ff fefc 	bl	8005010 <_free_r>
 8005218:	e7c7      	b.n	80051aa <__ssputs_r+0x46>
	...

0800521c <_svfiprintf_r>:
 800521c:	e92d 4ff0 	stmdb	sp!, {r4, r5, r6, r7, r8, r9, sl, fp, lr}
 8005220:	4698      	mov	r8, r3
 8005222:	898b      	ldrh	r3, [r1, #12]
 8005224:	061b      	lsls	r3, r3, #24
 8005226:	b09d      	sub	sp, #116	; 0x74
 8005228:	4607      	mov	r7, r0
 800522a:	460d      	mov	r5, r1
 800522c:	4614      	mov	r4, r2
 800522e:	d50e      	bpl.n	800524e <_svfiprintf_r+0x32>
 8005230:	690b      	ldr	r3, [r1, #16]
 8005232:	b963      	cbnz	r3, 800524e <_svfiprintf_r+0x32>
 8005234:	2140      	movs	r1, #64	; 0x40
 8005236:	f7ff ff3b 	bl	80050b0 <_malloc_r>
 800523a:	6028      	str	r0, [r5, #0]
 800523c:	6128      	str	r0, [r5, #16]
 800523e:	b920      	cbnz	r0, 800524a <_svfiprintf_r+0x2e>
 8005240:	230c      	movs	r3, #12
 8005242:	603b      	str	r3, [r7, #0]
 8005244:	f04f 30ff 	mov.w	r0, #4294967295
 8005248:	e0d1      	b.n	80053ee <_svfiprintf_r+0x1d2>
 800524a:	2340      	movs	r3, #64	; 0x40
 800524c:	616b      	str	r3, [r5, #20]
 800524e:	2300      	movs	r3, #0
 8005250:	9309      	str	r3, [sp, #36]	; 0x24
 8005252:	2320      	movs	r3, #32
 8005254:	f88d 3029 	strb.w	r3, [sp, #41]	; 0x29
 8005258:	f8cd 800c 	str.w	r8, [sp, #12]
 800525c:	2330      	movs	r3, #48	; 0x30
 800525e:	f8df 81a8 	ldr.w	r8, [pc, #424]	; 8005408 <_svfiprintf_r+0x1ec>
 8005262:	f88d 302a 	strb.w	r3, [sp, #42]	; 0x2a
 8005266:	f04f 0901 	mov.w	r9, #1
 800526a:	4623      	mov	r3, r4
 800526c:	469a      	mov	sl, r3
 800526e:	f813 2b01 	ldrb.w	r2, [r3], #1
 8005272:	b10a      	cbz	r2, 8005278 <_svfiprintf_r+0x5c>
 8005274:	2a25      	cmp	r2, #37	; 0x25
 8005276:	d1f9      	bne.n	800526c <_svfiprintf_r+0x50>
 8005278:	ebba 0b04 	subs.w	fp, sl, r4
 800527c:	d00b      	beq.n	8005296 <_svfiprintf_r+0x7a>
 800527e:	465b      	mov	r3, fp
 8005280:	4622      	mov	r2, r4
 8005282:	4629      	mov	r1, r5
 8005284:	4638      	mov	r0, r7
 8005286:	f7ff ff6d 	bl	8005164 <__ssputs_r>
 800528a:	3001      	adds	r0, #1
 800528c:	f000 80aa 	beq.w	80053e4 <_svfiprintf_r+0x1c8>
 8005290:	9a09      	ldr	r2, [sp, #36]	; 0x24
 8005292:	445a      	add	r2, fp
 8005294:	9209      	str	r2, [sp, #36]	; 0x24
 8005296:	f89a 3000 	ldrb.w	r3, [sl]
 800529a:	2b00      	cmp	r3, #0
 800529c:	f000 80a2 	beq.w	80053e4 <_svfiprintf_r+0x1c8>
 80052a0:	2300      	movs	r3, #0
 80052a2:	f04f 32ff 	mov.w	r2, #4294967295
 80052a6:	e9cd 2305 	strd	r2, r3, [sp, #20]
 80052aa:	f10a 0a01 	add.w	sl, sl, #1
 80052ae:	9304      	str	r3, [sp, #16]
 80052b0:	9307      	str	r3, [sp, #28]
 80052b2:	f88d 3053 	strb.w	r3, [sp, #83]	; 0x53
 80052b6:	931a      	str	r3, [sp, #104]	; 0x68
 80052b8:	4654      	mov	r4, sl
 80052ba:	2205      	movs	r2, #5
 80052bc:	f814 1b01 	ldrb.w	r1, [r4], #1
 80052c0:	4851      	ldr	r0, [pc, #324]	; (8005408 <_svfiprintf_r+0x1ec>)
 80052c2:	f7fa ff9d 	bl	8000200 <memchr>
 80052c6:	9a04      	ldr	r2, [sp, #16]
 80052c8:	b9d8      	cbnz	r0, 8005302 <_svfiprintf_r+0xe6>
 80052ca:	06d0      	lsls	r0, r2, #27
 80052cc:	bf44      	itt	mi
 80052ce:	2320      	movmi	r3, #32
 80052d0:	f88d 3053 	strbmi.w	r3, [sp, #83]	; 0x53
 80052d4:	0711      	lsls	r1, r2, #28
 80052d6:	bf44      	itt	mi
 80052d8:	232b      	movmi	r3, #43	; 0x2b
 80052da:	f88d 3053 	strbmi.w	r3, [sp, #83]	; 0x53
 80052de:	f89a 3000 	ldrb.w	r3, [sl]
 80052e2:	2b2a      	cmp	r3, #42	; 0x2a
 80052e4:	d015      	beq.n	8005312 <_svfiprintf_r+0xf6>
 80052e6:	9a07      	ldr	r2, [sp, #28]
 80052e8:	4654      	mov	r4, sl
 80052ea:	2000      	movs	r0, #0
 80052ec:	f04f 0c0a 	mov.w	ip, #10
 80052f0:	4621      	mov	r1, r4
 80052f2:	f811 3b01 	ldrb.w	r3, [r1], #1
 80052f6:	3b30      	subs	r3, #48	; 0x30
 80052f8:	2b09      	cmp	r3, #9
 80052fa:	d94e      	bls.n	800539a <_svfiprintf_r+0x17e>
 80052fc:	b1b0      	cbz	r0, 800532c <_svfiprintf_r+0x110>
 80052fe:	9207      	str	r2, [sp, #28]
 8005300:	e014      	b.n	800532c <_svfiprintf_r+0x110>
 8005302:	eba0 0308 	sub.w	r3, r0, r8
 8005306:	fa09 f303 	lsl.w	r3, r9, r3
 800530a:	4313      	orrs	r3, r2
 800530c:	9304      	str	r3, [sp, #16]
 800530e:	46a2      	mov	sl, r4
 8005310:	e7d2      	b.n	80052b8 <_svfiprintf_r+0x9c>
 8005312:	9b03      	ldr	r3, [sp, #12]
 8005314:	1d19      	adds	r1, r3, #4
 8005316:	681b      	ldr	r3, [r3, #0]
 8005318:	9103      	str	r1, [sp, #12]
 800531a:	2b00      	cmp	r3, #0
 800531c:	bfbb      	ittet	lt
 800531e:	425b      	neglt	r3, r3
 8005320:	f042 0202 	orrlt.w	r2, r2, #2
 8005324:	9307      	strge	r3, [sp, #28]
 8005326:	9307      	strlt	r3, [sp, #28]
 8005328:	bfb8      	it	lt
 800532a:	9204      	strlt	r2, [sp, #16]
 800532c:	7823      	ldrb	r3, [r4, #0]
 800532e:	2b2e      	cmp	r3, #46	; 0x2e
 8005330:	d10c      	bne.n	800534c <_svfiprintf_r+0x130>
 8005332:	7863      	ldrb	r3, [r4, #1]
 8005334:	2b2a      	cmp	r3, #42	; 0x2a
 8005336:	d135      	bne.n	80053a4 <_svfiprintf_r+0x188>
 8005338:	9b03      	ldr	r3, [sp, #12]
 800533a:	1d1a      	adds	r2, r3, #4
 800533c:	681b      	ldr	r3, [r3, #0]
 800533e:	9203      	str	r2, [sp, #12]
 8005340:	2b00      	cmp	r3, #0
 8005342:	bfb8      	it	lt
 8005344:	f04f 33ff 	movlt.w	r3, #4294967295
 8005348:	3402      	adds	r4, #2
 800534a:	9305      	str	r3, [sp, #20]
 800534c:	f8df a0c8 	ldr.w	sl, [pc, #200]	; 8005418 <_svfiprintf_r+0x1fc>
 8005350:	7821      	ldrb	r1, [r4, #0]
 8005352:	2203      	movs	r2, #3
 8005354:	4650      	mov	r0, sl
 8005356:	f7fa ff53 	bl	8000200 <memchr>
 800535a:	b140      	cbz	r0, 800536e <_svfiprintf_r+0x152>
 800535c:	2340      	movs	r3, #64	; 0x40
 800535e:	eba0 000a 	sub.w	r0, r0, sl
 8005362:	fa03 f000 	lsl.w	r0, r3, r0
 8005366:	9b04      	ldr	r3, [sp, #16]
 8005368:	4303      	orrs	r3, r0
 800536a:	3401      	adds	r4, #1
 800536c:	9304      	str	r3, [sp, #16]
 800536e:	f814 1b01 	ldrb.w	r1, [r4], #1
 8005372:	4826      	ldr	r0, [pc, #152]	; (800540c <_svfiprintf_r+0x1f0>)
 8005374:	f88d 1028 	strb.w	r1, [sp, #40]	; 0x28
 8005378:	2206      	movs	r2, #6
 800537a:	f7fa ff41 	bl	8000200 <memchr>
 800537e:	2800      	cmp	r0, #0
 8005380:	d038      	beq.n	80053f4 <_svfiprintf_r+0x1d8>
 8005382:	4b23      	ldr	r3, [pc, #140]	; (8005410 <_svfiprintf_r+0x1f4>)
 8005384:	bb1b      	cbnz	r3, 80053ce <_svfiprintf_r+0x1b2>
 8005386:	9b03      	ldr	r3, [sp, #12]
 8005388:	3307      	adds	r3, #7
 800538a:	f023 0307 	bic.w	r3, r3, #7
 800538e:	3308      	adds	r3, #8
 8005390:	9303      	str	r3, [sp, #12]
 8005392:	9b09      	ldr	r3, [sp, #36]	; 0x24
 8005394:	4433      	add	r3, r6
 8005396:	9309      	str	r3, [sp, #36]	; 0x24
 8005398:	e767      	b.n	800526a <_svfiprintf_r+0x4e>
 800539a:	fb0c 3202 	mla	r2, ip, r2, r3
 800539e:	460c      	mov	r4, r1
 80053a0:	2001      	movs	r0, #1
 80053a2:	e7a5      	b.n	80052f0 <_svfiprintf_r+0xd4>
 80053a4:	2300      	movs	r3, #0
 80053a6:	3401      	adds	r4, #1
 80053a8:	9305      	str	r3, [sp, #20]
 80053aa:	4619      	mov	r1, r3
 80053ac:	f04f 0c0a 	mov.w	ip, #10
 80053b0:	4620      	mov	r0, r4
 80053b2:	f810 2b01 	ldrb.w	r2, [r0], #1
 80053b6:	3a30      	subs	r2, #48	; 0x30
 80053b8:	2a09      	cmp	r2, #9
 80053ba:	d903      	bls.n	80053c4 <_svfiprintf_r+0x1a8>
 80053bc:	2b00      	cmp	r3, #0
 80053be:	d0c5      	beq.n	800534c <_svfiprintf_r+0x130>
 80053c0:	9105      	str	r1, [sp, #20]
 80053c2:	e7c3      	b.n	800534c <_svfiprintf_r+0x130>
 80053c4:	fb0c 2101 	mla	r1, ip, r1, r2
 80053c8:	4604      	mov	r4, r0
 80053ca:	2301      	movs	r3, #1
 80053cc:	e7f0      	b.n	80053b0 <_svfiprintf_r+0x194>
 80053ce:	ab03      	add	r3, sp, #12
 80053d0:	9300      	str	r3, [sp, #0]
 80053d2:	462a      	mov	r2, r5
 80053d4:	4b0f      	ldr	r3, [pc, #60]	; (8005414 <_svfiprintf_r+0x1f8>)
 80053d6:	a904      	add	r1, sp, #16
 80053d8:	4638      	mov	r0, r7
 80053da:	f3af 8000 	nop.w
 80053de:	1c42      	adds	r2, r0, #1
 80053e0:	4606      	mov	r6, r0
 80053e2:	d1d6      	bne.n	8005392 <_svfiprintf_r+0x176>
 80053e4:	89ab      	ldrh	r3, [r5, #12]
 80053e6:	065b      	lsls	r3, r3, #25
 80053e8:	f53f af2c 	bmi.w	8005244 <_svfiprintf_r+0x28>
 80053ec:	9809      	ldr	r0, [sp, #36]	; 0x24
 80053ee:	b01d      	add	sp, #116	; 0x74
 80053f0:	e8bd 8ff0 	ldmia.w	sp!, {r4, r5, r6, r7, r8, r9, sl, fp, pc}
 80053f4:	ab03      	add	r3, sp, #12
 80053f6:	9300      	str	r3, [sp, #0]
 80053f8:	462a      	mov	r2, r5
 80053fa:	4b06      	ldr	r3, [pc, #24]	; (8005414 <_svfiprintf_r+0x1f8>)
 80053fc:	a904      	add	r1, sp, #16
 80053fe:	4638      	mov	r0, r7
 8005400:	f000 f9d4 	bl	80057ac <_printf_i>
 8005404:	e7eb      	b.n	80053de <_svfiprintf_r+0x1c2>
 8005406:	bf00      	nop
 8005408:	080063c4 	.word	0x080063c4
 800540c:	080063ce 	.word	0x080063ce
 8005410:	00000000 	.word	0x00000000
 8005414:	08005165 	.word	0x08005165
 8005418:	080063ca 	.word	0x080063ca

0800541c <__sfputc_r>:
 800541c:	6893      	ldr	r3, [r2, #8]
 800541e:	3b01      	subs	r3, #1
 8005420:	2b00      	cmp	r3, #0
 8005422:	b410      	push	{r4}
 8005424:	6093      	str	r3, [r2, #8]
 8005426:	da08      	bge.n	800543a <__sfputc_r+0x1e>
 8005428:	6994      	ldr	r4, [r2, #24]
 800542a:	42a3      	cmp	r3, r4
 800542c:	db01      	blt.n	8005432 <__sfputc_r+0x16>
 800542e:	290a      	cmp	r1, #10
 8005430:	d103      	bne.n	800543a <__sfputc_r+0x1e>
 8005432:	f85d 4b04 	ldr.w	r4, [sp], #4
 8005436:	f000 baef 	b.w	8005a18 <__swbuf_r>
 800543a:	6813      	ldr	r3, [r2, #0]
 800543c:	1c58      	adds	r0, r3, #1
 800543e:	6010      	str	r0, [r2, #0]
 8005440:	7019      	strb	r1, [r3, #0]
 8005442:	4608      	mov	r0, r1
 8005444:	f85d 4b04 	ldr.w	r4, [sp], #4
 8005448:	4770      	bx	lr

0800544a <__sfputs_r>:
 800544a:	b5f8      	push	{r3, r4, r5, r6, r7, lr}
 800544c:	4606      	mov	r6, r0
 800544e:	460f      	mov	r7, r1
 8005450:	4614      	mov	r4, r2
 8005452:	18d5      	adds	r5, r2, r3
 8005454:	42ac      	cmp	r4, r5
 8005456:	d101      	bne.n	800545c <__sfputs_r+0x12>
 8005458:	2000      	movs	r0, #0
 800545a:	e007      	b.n	800546c <__sfputs_r+0x22>
 800545c:	f814 1b01 	ldrb.w	r1, [r4], #1
 8005460:	463a      	mov	r2, r7
 8005462:	4630      	mov	r0, r6
 8005464:	f7ff ffda 	bl	800541c <__sfputc_r>
 8005468:	1c43      	adds	r3, r0, #1
 800546a:	d1f3      	bne.n	8005454 <__sfputs_r+0xa>
 800546c:	bdf8      	pop	{r3, r4, r5, r6, r7, pc}
	...

08005470 <_vfiprintf_r>:
 8005470:	e92d 4ff0 	stmdb	sp!, {r4, r5, r6, r7, r8, r9, sl, fp, lr}
 8005474:	460d      	mov	r5, r1
 8005476:	b09d      	sub	sp, #116	; 0x74
 8005478:	4614      	mov	r4, r2
 800547a:	4698      	mov	r8, r3
 800547c:	4606      	mov	r6, r0
 800547e:	b118      	cbz	r0, 8005488 <_vfiprintf_r+0x18>
 8005480:	6983      	ldr	r3, [r0, #24]
 8005482:	b90b      	cbnz	r3, 8005488 <_vfiprintf_r+0x18>
 8005484:	f000 fcaa 	bl	8005ddc <__sinit>
 8005488:	4b89      	ldr	r3, [pc, #548]	; (80056b0 <_vfiprintf_r+0x240>)
 800548a:	429d      	cmp	r5, r3
 800548c:	d11b      	bne.n	80054c6 <_vfiprintf_r+0x56>
 800548e:	6875      	ldr	r5, [r6, #4]
 8005490:	6e6b      	ldr	r3, [r5, #100]	; 0x64
 8005492:	07d9      	lsls	r1, r3, #31
 8005494:	d405      	bmi.n	80054a2 <_vfiprintf_r+0x32>
 8005496:	89ab      	ldrh	r3, [r5, #12]
 8005498:	059a      	lsls	r2, r3, #22
 800549a:	d402      	bmi.n	80054a2 <_vfiprintf_r+0x32>
 800549c:	6da8      	ldr	r0, [r5, #88]	; 0x58
 800549e:	f000 fd3b 	bl	8005f18 <__retarget_lock_acquire_recursive>
 80054a2:	89ab      	ldrh	r3, [r5, #12]
 80054a4:	071b      	lsls	r3, r3, #28
 80054a6:	d501      	bpl.n	80054ac <_vfiprintf_r+0x3c>
 80054a8:	692b      	ldr	r3, [r5, #16]
 80054aa:	b9eb      	cbnz	r3, 80054e8 <_vfiprintf_r+0x78>
 80054ac:	4629      	mov	r1, r5
 80054ae:	4630      	mov	r0, r6
 80054b0:	f000 fb04 	bl	8005abc <__swsetup_r>
 80054b4:	b1c0      	cbz	r0, 80054e8 <_vfiprintf_r+0x78>
 80054b6:	6e6b      	ldr	r3, [r5, #100]	; 0x64
 80054b8:	07dc      	lsls	r4, r3, #31
 80054ba:	d50e      	bpl.n	80054da <_vfiprintf_r+0x6a>
 80054bc:	f04f 30ff 	mov.w	r0, #4294967295
 80054c0:	b01d      	add	sp, #116	; 0x74
 80054c2:	e8bd 8ff0 	ldmia.w	sp!, {r4, r5, r6, r7, r8, r9, sl, fp, pc}
 80054c6:	4b7b      	ldr	r3, [pc, #492]	; (80056b4 <_vfiprintf_r+0x244>)
 80054c8:	429d      	cmp	r5, r3
 80054ca:	d101      	bne.n	80054d0 <_vfiprintf_r+0x60>
 80054cc:	68b5      	ldr	r5, [r6, #8]
 80054ce:	e7df      	b.n	8005490 <_vfiprintf_r+0x20>
 80054d0:	4b79      	ldr	r3, [pc, #484]	; (80056b8 <_vfiprintf_r+0x248>)
 80054d2:	429d      	cmp	r5, r3
 80054d4:	bf08      	it	eq
 80054d6:	68f5      	ldreq	r5, [r6, #12]
 80054d8:	e7da      	b.n	8005490 <_vfiprintf_r+0x20>
 80054da:	89ab      	ldrh	r3, [r5, #12]
 80054dc:	0598      	lsls	r0, r3, #22
 80054de:	d4ed      	bmi.n	80054bc <_vfiprintf_r+0x4c>
 80054e0:	6da8      	ldr	r0, [r5, #88]	; 0x58
 80054e2:	f000 fd1a 	bl	8005f1a <__retarget_lock_release_recursive>
 80054e6:	e7e9      	b.n	80054bc <_vfiprintf_r+0x4c>
 80054e8:	2300      	movs	r3, #0
 80054ea:	9309      	str	r3, [sp, #36]	; 0x24
 80054ec:	2320      	movs	r3, #32
 80054ee:	f88d 3029 	strb.w	r3, [sp, #41]	; 0x29
 80054f2:	f8cd 800c 	str.w	r8, [sp, #12]
 80054f6:	2330      	movs	r3, #48	; 0x30
 80054f8:	f8df 81c0 	ldr.w	r8, [pc, #448]	; 80056bc <_vfiprintf_r+0x24c>
 80054fc:	f88d 302a 	strb.w	r3, [sp, #42]	; 0x2a
 8005500:	f04f 0901 	mov.w	r9, #1
 8005504:	4623      	mov	r3, r4
 8005506:	469a      	mov	sl, r3
 8005508:	f813 2b01 	ldrb.w	r2, [r3], #1
 800550c:	b10a      	cbz	r2, 8005512 <_vfiprintf_r+0xa2>
 800550e:	2a25      	cmp	r2, #37	; 0x25
 8005510:	d1f9      	bne.n	8005506 <_vfiprintf_r+0x96>
 8005512:	ebba 0b04 	subs.w	fp, sl, r4
 8005516:	d00b      	beq.n	8005530 <_vfiprintf_r+0xc0>
 8005518:	465b      	mov	r3, fp
 800551a:	4622      	mov	r2, r4
 800551c:	4629      	mov	r1, r5
 800551e:	4630      	mov	r0, r6
 8005520:	f7ff ff93 	bl	800544a <__sfputs_r>
 8005524:	3001      	adds	r0, #1
 8005526:	f000 80aa 	beq.w	800567e <_vfiprintf_r+0x20e>
 800552a:	9a09      	ldr	r2, [sp, #36]	; 0x24
 800552c:	445a      	add	r2, fp
 800552e:	9209      	str	r2, [sp, #36]	; 0x24
 8005530:	f89a 3000 	ldrb.w	r3, [sl]
 8005534:	2b00      	cmp	r3, #0
 8005536:	f000 80a2 	beq.w	800567e <_vfiprintf_r+0x20e>
 800553a:	2300      	movs	r3, #0
 800553c:	f04f 32ff 	mov.w	r2, #4294967295
 8005540:	e9cd 2305 	strd	r2, r3, [sp, #20]
 8005544:	f10a 0a01 	add.w	sl, sl, #1
 8005548:	9304      	str	r3, [sp, #16]
 800554a:	9307      	str	r3, [sp, #28]
 800554c:	f88d 3053 	strb.w	r3, [sp, #83]	; 0x53
 8005550:	931a      	str	r3, [sp, #104]	; 0x68
 8005552:	4654      	mov	r4, sl
 8005554:	2205      	movs	r2, #5
 8005556:	f814 1b01 	ldrb.w	r1, [r4], #1
 800555a:	4858      	ldr	r0, [pc, #352]	; (80056bc <_vfiprintf_r+0x24c>)
 800555c:	f7fa fe50 	bl	8000200 <memchr>
 8005560:	9a04      	ldr	r2, [sp, #16]
 8005562:	b9d8      	cbnz	r0, 800559c <_vfiprintf_r+0x12c>
 8005564:	06d1      	lsls	r1, r2, #27
 8005566:	bf44      	itt	mi
 8005568:	2320      	movmi	r3, #32
 800556a:	f88d 3053 	strbmi.w	r3, [sp, #83]	; 0x53
 800556e:	0713      	lsls	r3, r2, #28
 8005570:	bf44      	itt	mi
 8005572:	232b      	movmi	r3, #43	; 0x2b
 8005574:	f88d 3053 	strbmi.w	r3, [sp, #83]	; 0x53
 8005578:	f89a 3000 	ldrb.w	r3, [sl]
 800557c:	2b2a      	cmp	r3, #42	; 0x2a
 800557e:	d015      	beq.n	80055ac <_vfiprintf_r+0x13c>
 8005580:	9a07      	ldr	r2, [sp, #28]
 8005582:	4654      	mov	r4, sl
 8005584:	2000      	movs	r0, #0
 8005586:	f04f 0c0a 	mov.w	ip, #10
 800558a:	4621      	mov	r1, r4
 800558c:	f811 3b01 	ldrb.w	r3, [r1], #1
 8005590:	3b30      	subs	r3, #48	; 0x30
 8005592:	2b09      	cmp	r3, #9
 8005594:	d94e      	bls.n	8005634 <_vfiprintf_r+0x1c4>
 8005596:	b1b0      	cbz	r0, 80055c6 <_vfiprintf_r+0x156>
 8005598:	9207      	str	r2, [sp, #28]
 800559a:	e014      	b.n	80055c6 <_vfiprintf_r+0x156>
 800559c:	eba0 0308 	sub.w	r3, r0, r8
 80055a0:	fa09 f303 	lsl.w	r3, r9, r3
 80055a4:	4313      	orrs	r3, r2
 80055a6:	9304      	str	r3, [sp, #16]
 80055a8:	46a2      	mov	sl, r4
 80055aa:	e7d2      	b.n	8005552 <_vfiprintf_r+0xe2>
 80055ac:	9b03      	ldr	r3, [sp, #12]
 80055ae:	1d19      	adds	r1, r3, #4
 80055b0:	681b      	ldr	r3, [r3, #0]
 80055b2:	9103      	str	r1, [sp, #12]
 80055b4:	2b00      	cmp	r3, #0
 80055b6:	bfbb      	ittet	lt
 80055b8:	425b      	neglt	r3, r3
 80055ba:	f042 0202 	orrlt.w	r2, r2, #2
 80055be:	9307      	strge	r3, [sp, #28]
 80055c0:	9307      	strlt	r3, [sp, #28]
 80055c2:	bfb8      	it	lt
 80055c4:	9204      	strlt	r2, [sp, #16]
 80055c6:	7823      	ldrb	r3, [r4, #0]
 80055c8:	2b2e      	cmp	r3, #46	; 0x2e
 80055ca:	d10c      	bne.n	80055e6 <_vfiprintf_r+0x176>
 80055cc:	7863      	ldrb	r3, [r4, #1]
 80055ce:	2b2a      	cmp	r3, #42	; 0x2a
 80055d0:	d135      	bne.n	800563e <_vfiprintf_r+0x1ce>
 80055d2:	9b03      	ldr	r3, [sp, #12]
 80055d4:	1d1a      	adds	r2, r3, #4
 80055d6:	681b      	ldr	r3, [r3, #0]
 80055d8:	9203      	str	r2, [sp, #12]
 80055da:	2b00      	cmp	r3, #0
 80055dc:	bfb8      	it	lt
 80055de:	f04f 33ff 	movlt.w	r3, #4294967295
 80055e2:	3402      	adds	r4, #2
 80055e4:	9305      	str	r3, [sp, #20]
 80055e6:	f8df a0e4 	ldr.w	sl, [pc, #228]	; 80056cc <_vfiprintf_r+0x25c>
 80055ea:	7821      	ldrb	r1, [r4, #0]
 80055ec:	2203      	movs	r2, #3
 80055ee:	4650      	mov	r0, sl
 80055f0:	f7fa fe06 	bl	8000200 <memchr>
 80055f4:	b140      	cbz	r0, 8005608 <_vfiprintf_r+0x198>
 80055f6:	2340      	movs	r3, #64	; 0x40
 80055f8:	eba0 000a 	sub.w	r0, r0, sl
 80055fc:	fa03 f000 	lsl.w	r0, r3, r0
 8005600:	9b04      	ldr	r3, [sp, #16]
 8005602:	4303      	orrs	r3, r0
 8005604:	3401      	adds	r4, #1
 8005606:	9304      	str	r3, [sp, #16]
 8005608:	f814 1b01 	ldrb.w	r1, [r4], #1
 800560c:	482c      	ldr	r0, [pc, #176]	; (80056c0 <_vfiprintf_r+0x250>)
 800560e:	f88d 1028 	strb.w	r1, [sp, #40]	; 0x28
 8005612:	2206      	movs	r2, #6
 8005614:	f7fa fdf4 	bl	8000200 <memchr>
 8005618:	2800      	cmp	r0, #0
 800561a:	d03f      	beq.n	800569c <_vfiprintf_r+0x22c>
 800561c:	4b29      	ldr	r3, [pc, #164]	; (80056c4 <_vfiprintf_r+0x254>)
 800561e:	bb1b      	cbnz	r3, 8005668 <_vfiprintf_r+0x1f8>
 8005620:	9b03      	ldr	r3, [sp, #12]
 8005622:	3307      	adds	r3, #7
 8005624:	f023 0307 	bic.w	r3, r3, #7
 8005628:	3308      	adds	r3, #8
 800562a:	9303      	str	r3, [sp, #12]
 800562c:	9b09      	ldr	r3, [sp, #36]	; 0x24
 800562e:	443b      	add	r3, r7
 8005630:	9309      	str	r3, [sp, #36]	; 0x24
 8005632:	e767      	b.n	8005504 <_vfiprintf_r+0x94>
 8005634:	fb0c 3202 	mla	r2, ip, r2, r3
 8005638:	460c      	mov	r4, r1
 800563a:	2001      	movs	r0, #1
 800563c:	e7a5      	b.n	800558a <_vfiprintf_r+0x11a>
 800563e:	2300      	movs	r3, #0
 8005640:	3401      	adds	r4, #1
 8005642:	9305      	str	r3, [sp, #20]
 8005644:	4619      	mov	r1, r3
 8005646:	f04f 0c0a 	mov.w	ip, #10
 800564a:	4620      	mov	r0, r4
 800564c:	f810 2b01 	ldrb.w	r2, [r0], #1
 8005650:	3a30      	subs	r2, #48	; 0x30
 8005652:	2a09      	cmp	r2, #9
 8005654:	d903      	bls.n	800565e <_vfiprintf_r+0x1ee>
 8005656:	2b00      	cmp	r3, #0
 8005658:	d0c5      	beq.n	80055e6 <_vfiprintf_r+0x176>
 800565a:	9105      	str	r1, [sp, #20]
 800565c:	e7c3      	b.n	80055e6 <_vfiprintf_r+0x176>
 800565e:	fb0c 2101 	mla	r1, ip, r1, r2
 8005662:	4604      	mov	r4, r0
 8005664:	2301      	movs	r3, #1
 8005666:	e7f0      	b.n	800564a <_vfiprintf_r+0x1da>
 8005668:	ab03      	add	r3, sp, #12
 800566a:	9300      	str	r3, [sp, #0]
 800566c:	462a      	mov	r2, r5
 800566e:	4b16      	ldr	r3, [pc, #88]	; (80056c8 <_vfiprintf_r+0x258>)
 8005670:	a904      	add	r1, sp, #16
 8005672:	4630      	mov	r0, r6
 8005674:	f3af 8000 	nop.w
 8005678:	4607      	mov	r7, r0
 800567a:	1c78      	adds	r0, r7, #1
 800567c:	d1d6      	bne.n	800562c <_vfiprintf_r+0x1bc>
 800567e:	6e6b      	ldr	r3, [r5, #100]	; 0x64
 8005680:	07d9      	lsls	r1, r3, #31
 8005682:	d405      	bmi.n	8005690 <_vfiprintf_r+0x220>
 8005684:	89ab      	ldrh	r3, [r5, #12]
 8005686:	059a      	lsls	r2, r3, #22
 8005688:	d402      	bmi.n	8005690 <_vfiprintf_r+0x220>
 800568a:	6da8      	ldr	r0, [r5, #88]	; 0x58
 800568c:	f000 fc45 	bl	8005f1a <__retarget_lock_release_recursive>
 8005690:	89ab      	ldrh	r3, [r5, #12]
 8005692:	065b      	lsls	r3, r3, #25
 8005694:	f53f af12 	bmi.w	80054bc <_vfiprintf_r+0x4c>
 8005698:	9809      	ldr	r0, [sp, #36]	; 0x24
 800569a:	e711      	b.n	80054c0 <_vfiprintf_r+0x50>
 800569c:	ab03      	add	r3, sp, #12
 800569e:	9300      	str	r3, [sp, #0]
 80056a0:	462a      	mov	r2, r5
 80056a2:	4b09      	ldr	r3, [pc, #36]	; (80056c8 <_vfiprintf_r+0x258>)
 80056a4:	a904      	add	r1, sp, #16
 80056a6:	4630      	mov	r0, r6
 80056a8:	f000 f880 	bl	80057ac <_printf_i>
 80056ac:	e7e4      	b.n	8005678 <_vfiprintf_r+0x208>
 80056ae:	bf00      	nop
 80056b0:	08006418 	.word	0x08006418
 80056b4:	08006438 	.word	0x08006438
 80056b8:	080063f8 	.word	0x080063f8
 80056bc:	080063c4 	.word	0x080063c4
 80056c0:	080063ce 	.word	0x080063ce
 80056c4:	00000000 	.word	0x00000000
 80056c8:	0800544b 	.word	0x0800544b
 80056cc:	080063ca 	.word	0x080063ca

080056d0 <_printf_common>:
 80056d0:	e92d 47f0 	stmdb	sp!, {r4, r5, r6, r7, r8, r9, sl, lr}
 80056d4:	4616      	mov	r6, r2
 80056d6:	4699      	mov	r9, r3
 80056d8:	688a      	ldr	r2, [r1, #8]
 80056da:	690b      	ldr	r3, [r1, #16]
 80056dc:	f8dd 8020 	ldr.w	r8, [sp, #32]
 80056e0:	4293      	cmp	r3, r2
 80056e2:	bfb8      	it	lt
 80056e4:	4613      	movlt	r3, r2
 80056e6:	6033      	str	r3, [r6, #0]
 80056e8:	f891 2043 	ldrb.w	r2, [r1, #67]	; 0x43
 80056ec:	4607      	mov	r7, r0
 80056ee:	460c      	mov	r4, r1
 80056f0:	b10a      	cbz	r2, 80056f6 <_printf_common+0x26>
 80056f2:	3301      	adds	r3, #1
 80056f4:	6033      	str	r3, [r6, #0]
 80056f6:	6823      	ldr	r3, [r4, #0]
 80056f8:	0699      	lsls	r1, r3, #26
 80056fa:	bf42      	ittt	mi
 80056fc:	6833      	ldrmi	r3, [r6, #0]
 80056fe:	3302      	addmi	r3, #2
 8005700:	6033      	strmi	r3, [r6, #0]
 8005702:	6825      	ldr	r5, [r4, #0]
 8005704:	f015 0506 	ands.w	r5, r5, #6
 8005708:	d106      	bne.n	8005718 <_printf_common+0x48>
 800570a:	f104 0a19 	add.w	sl, r4, #25
 800570e:	68e3      	ldr	r3, [r4, #12]
 8005710:	6832      	ldr	r2, [r6, #0]
 8005712:	1a9b      	subs	r3, r3, r2
 8005714:	42ab      	cmp	r3, r5
 8005716:	dc26      	bgt.n	8005766 <_printf_common+0x96>
 8005718:	f894 2043 	ldrb.w	r2, [r4, #67]	; 0x43
 800571c:	1e13      	subs	r3, r2, #0
 800571e:	6822      	ldr	r2, [r4, #0]
 8005720:	bf18      	it	ne
 8005722:	2301      	movne	r3, #1
 8005724:	0692      	lsls	r2, r2, #26
 8005726:	d42b      	bmi.n	8005780 <_printf_common+0xb0>
 8005728:	f104 0243 	add.w	r2, r4, #67	; 0x43
 800572c:	4649      	mov	r1, r9
 800572e:	4638      	mov	r0, r7
 8005730:	47c0      	blx	r8
 8005732:	3001      	adds	r0, #1
 8005734:	d01e      	beq.n	8005774 <_printf_common+0xa4>
 8005736:	6823      	ldr	r3, [r4, #0]
 8005738:	68e5      	ldr	r5, [r4, #12]
 800573a:	6832      	ldr	r2, [r6, #0]
 800573c:	f003 0306 	and.w	r3, r3, #6
 8005740:	2b04      	cmp	r3, #4
 8005742:	bf08      	it	eq
 8005744:	1aad      	subeq	r5, r5, r2
 8005746:	68a3      	ldr	r3, [r4, #8]
 8005748:	6922      	ldr	r2, [r4, #16]
 800574a:	bf0c      	ite	eq
 800574c:	ea25 75e5 	biceq.w	r5, r5, r5, asr #31
 8005750:	2500      	movne	r5, #0
 8005752:	4293      	cmp	r3, r2
 8005754:	bfc4      	itt	gt
 8005756:	1a9b      	subgt	r3, r3, r2
 8005758:	18ed      	addgt	r5, r5, r3
 800575a:	2600      	movs	r6, #0
 800575c:	341a      	adds	r4, #26
 800575e:	42b5      	cmp	r5, r6
 8005760:	d11a      	bne.n	8005798 <_printf_common+0xc8>
 8005762:	2000      	movs	r0, #0
 8005764:	e008      	b.n	8005778 <_printf_common+0xa8>
 8005766:	2301      	movs	r3, #1
 8005768:	4652      	mov	r2, sl
 800576a:	4649      	mov	r1, r9
 800576c:	4638      	mov	r0, r7
 800576e:	47c0      	blx	r8
 8005770:	3001      	adds	r0, #1
 8005772:	d103      	bne.n	800577c <_printf_common+0xac>
 8005774:	f04f 30ff 	mov.w	r0, #4294967295
 8005778:	e8bd 87f0 	ldmia.w	sp!, {r4, r5, r6, r7, r8, r9, sl, pc}
 800577c:	3501      	adds	r5, #1
 800577e:	e7c6      	b.n	800570e <_printf_common+0x3e>
 8005780:	18e1      	adds	r1, r4, r3
 8005782:	1c5a      	adds	r2, r3, #1
 8005784:	2030      	movs	r0, #48	; 0x30
 8005786:	f881 0043 	strb.w	r0, [r1, #67]	; 0x43
 800578a:	4422      	add	r2, r4
 800578c:	f894 1045 	ldrb.w	r1, [r4, #69]	; 0x45
 8005790:	f882 1043 	strb.w	r1, [r2, #67]	; 0x43
 8005794:	3302      	adds	r3, #2
 8005796:	e7c7      	b.n	8005728 <_printf_common+0x58>
 8005798:	2301      	movs	r3, #1
 800579a:	4622      	mov	r2, r4
 800579c:	4649      	mov	r1, r9
 800579e:	4638      	mov	r0, r7
 80057a0:	47c0      	blx	r8
 80057a2:	3001      	adds	r0, #1
 80057a4:	d0e6      	beq.n	8005774 <_printf_common+0xa4>
 80057a6:	3601      	adds	r6, #1
 80057a8:	e7d9      	b.n	800575e <_printf_common+0x8e>
	...

080057ac <_printf_i>:
 80057ac:	e92d 47ff 	stmdb	sp!, {r0, r1, r2, r3, r4, r5, r6, r7, r8, r9, sl, lr}
 80057b0:	460c      	mov	r4, r1
 80057b2:	4691      	mov	r9, r2
 80057b4:	7e27      	ldrb	r7, [r4, #24]
 80057b6:	990c      	ldr	r1, [sp, #48]	; 0x30
 80057b8:	2f78      	cmp	r7, #120	; 0x78
 80057ba:	4680      	mov	r8, r0
 80057bc:	469a      	mov	sl, r3
 80057be:	f104 0243 	add.w	r2, r4, #67	; 0x43
 80057c2:	d807      	bhi.n	80057d4 <_printf_i+0x28>
 80057c4:	2f62      	cmp	r7, #98	; 0x62
 80057c6:	d80a      	bhi.n	80057de <_printf_i+0x32>
 80057c8:	2f00      	cmp	r7, #0
 80057ca:	f000 80d8 	beq.w	800597e <_printf_i+0x1d2>
 80057ce:	2f58      	cmp	r7, #88	; 0x58
 80057d0:	f000 80a3 	beq.w	800591a <_printf_i+0x16e>
 80057d4:	f104 0642 	add.w	r6, r4, #66	; 0x42
 80057d8:	f884 7042 	strb.w	r7, [r4, #66]	; 0x42
 80057dc:	e03a      	b.n	8005854 <_printf_i+0xa8>
 80057de:	f1a7 0363 	sub.w	r3, r7, #99	; 0x63
 80057e2:	2b15      	cmp	r3, #21
 80057e4:	d8f6      	bhi.n	80057d4 <_printf_i+0x28>
 80057e6:	a001      	add	r0, pc, #4	; (adr r0, 80057ec <_printf_i+0x40>)
 80057e8:	f850 f023 	ldr.w	pc, [r0, r3, lsl #2]
 80057ec:	08005845 	.word	0x08005845
 80057f0:	08005859 	.word	0x08005859
 80057f4:	080057d5 	.word	0x080057d5
 80057f8:	080057d5 	.word	0x080057d5
 80057fc:	080057d5 	.word	0x080057d5
 8005800:	080057d5 	.word	0x080057d5
 8005804:	08005859 	.word	0x08005859
 8005808:	080057d5 	.word	0x080057d5
 800580c:	080057d5 	.word	0x080057d5
 8005810:	080057d5 	.word	0x080057d5
 8005814:	080057d5 	.word	0x080057d5
 8005818:	08005965 	.word	0x08005965
 800581c:	08005889 	.word	0x08005889
 8005820:	08005947 	.word	0x08005947
 8005824:	080057d5 	.word	0x080057d5
 8005828:	080057d5 	.word	0x080057d5
 800582c:	08005987 	.word	0x08005987
 8005830:	080057d5 	.word	0x080057d5
 8005834:	08005889 	.word	0x08005889
 8005838:	080057d5 	.word	0x080057d5
 800583c:	080057d5 	.word	0x080057d5
 8005840:	0800594f 	.word	0x0800594f
 8005844:	680b      	ldr	r3, [r1, #0]
 8005846:	1d1a      	adds	r2, r3, #4
 8005848:	681b      	ldr	r3, [r3, #0]
 800584a:	600a      	str	r2, [r1, #0]
 800584c:	f104 0642 	add.w	r6, r4, #66	; 0x42
 8005850:	f884 3042 	strb.w	r3, [r4, #66]	; 0x42
 8005854:	2301      	movs	r3, #1
 8005856:	e0a3      	b.n	80059a0 <_printf_i+0x1f4>
 8005858:	6825      	ldr	r5, [r4, #0]
 800585a:	6808      	ldr	r0, [r1, #0]
 800585c:	062e      	lsls	r6, r5, #24
 800585e:	f100 0304 	add.w	r3, r0, #4
 8005862:	d50a      	bpl.n	800587a <_printf_i+0xce>
 8005864:	6805      	ldr	r5, [r0, #0]
 8005866:	600b      	str	r3, [r1, #0]
 8005868:	2d00      	cmp	r5, #0
 800586a:	da03      	bge.n	8005874 <_printf_i+0xc8>
 800586c:	232d      	movs	r3, #45	; 0x2d
 800586e:	426d      	negs	r5, r5
 8005870:	f884 3043 	strb.w	r3, [r4, #67]	; 0x43
 8005874:	485e      	ldr	r0, [pc, #376]	; (80059f0 <_printf_i+0x244>)
 8005876:	230a      	movs	r3, #10
 8005878:	e019      	b.n	80058ae <_printf_i+0x102>
 800587a:	f015 0f40 	tst.w	r5, #64	; 0x40
 800587e:	6805      	ldr	r5, [r0, #0]
 8005880:	600b      	str	r3, [r1, #0]
 8005882:	bf18      	it	ne
 8005884:	b22d      	sxthne	r5, r5
 8005886:	e7ef      	b.n	8005868 <_printf_i+0xbc>
 8005888:	680b      	ldr	r3, [r1, #0]
 800588a:	6825      	ldr	r5, [r4, #0]
 800588c:	1d18      	adds	r0, r3, #4
 800588e:	6008      	str	r0, [r1, #0]
 8005890:	0628      	lsls	r0, r5, #24
 8005892:	d501      	bpl.n	8005898 <_printf_i+0xec>
 8005894:	681d      	ldr	r5, [r3, #0]
 8005896:	e002      	b.n	800589e <_printf_i+0xf2>
 8005898:	0669      	lsls	r1, r5, #25
 800589a:	d5fb      	bpl.n	8005894 <_printf_i+0xe8>
 800589c:	881d      	ldrh	r5, [r3, #0]
 800589e:	4854      	ldr	r0, [pc, #336]	; (80059f0 <_printf_i+0x244>)
 80058a0:	2f6f      	cmp	r7, #111	; 0x6f
 80058a2:	bf0c      	ite	eq
 80058a4:	2308      	moveq	r3, #8
 80058a6:	230a      	movne	r3, #10
 80058a8:	2100      	movs	r1, #0
 80058aa:	f884 1043 	strb.w	r1, [r4, #67]	; 0x43
 80058ae:	6866      	ldr	r6, [r4, #4]
 80058b0:	60a6      	str	r6, [r4, #8]
 80058b2:	2e00      	cmp	r6, #0
 80058b4:	bfa2      	ittt	ge
 80058b6:	6821      	ldrge	r1, [r4, #0]
 80058b8:	f021 0104 	bicge.w	r1, r1, #4
 80058bc:	6021      	strge	r1, [r4, #0]
 80058be:	b90d      	cbnz	r5, 80058c4 <_printf_i+0x118>
 80058c0:	2e00      	cmp	r6, #0
 80058c2:	d04d      	beq.n	8005960 <_printf_i+0x1b4>
 80058c4:	4616      	mov	r6, r2
 80058c6:	fbb5 f1f3 	udiv	r1, r5, r3
 80058ca:	fb03 5711 	mls	r7, r3, r1, r5
 80058ce:	5dc7      	ldrb	r7, [r0, r7]
 80058d0:	f806 7d01 	strb.w	r7, [r6, #-1]!
 80058d4:	462f      	mov	r7, r5
 80058d6:	42bb      	cmp	r3, r7
 80058d8:	460d      	mov	r5, r1
 80058da:	d9f4      	bls.n	80058c6 <_printf_i+0x11a>
 80058dc:	2b08      	cmp	r3, #8
 80058de:	d10b      	bne.n	80058f8 <_printf_i+0x14c>
 80058e0:	6823      	ldr	r3, [r4, #0]
 80058e2:	07df      	lsls	r7, r3, #31
 80058e4:	d508      	bpl.n	80058f8 <_printf_i+0x14c>
 80058e6:	6923      	ldr	r3, [r4, #16]
 80058e8:	6861      	ldr	r1, [r4, #4]
 80058ea:	4299      	cmp	r1, r3
 80058ec:	bfde      	ittt	le
 80058ee:	2330      	movle	r3, #48	; 0x30
 80058f0:	f806 3c01 	strble.w	r3, [r6, #-1]
 80058f4:	f106 36ff 	addle.w	r6, r6, #4294967295
 80058f8:	1b92      	subs	r2, r2, r6
 80058fa:	6122      	str	r2, [r4, #16]
 80058fc:	f8cd a000 	str.w	sl, [sp]
 8005900:	464b      	mov	r3, r9
 8005902:	aa03      	add	r2, sp, #12
 8005904:	4621      	mov	r1, r4
 8005906:	4640      	mov	r0, r8
 8005908:	f7ff fee2 	bl	80056d0 <_printf_common>
 800590c:	3001      	adds	r0, #1
 800590e:	d14c      	bne.n	80059aa <_printf_i+0x1fe>
 8005910:	f04f 30ff 	mov.w	r0, #4294967295
 8005914:	b004      	add	sp, #16
 8005916:	e8bd 87f0 	ldmia.w	sp!, {r4, r5, r6, r7, r8, r9, sl, pc}
 800591a:	4835      	ldr	r0, [pc, #212]	; (80059f0 <_printf_i+0x244>)
 800591c:	f884 7045 	strb.w	r7, [r4, #69]	; 0x45
 8005920:	6823      	ldr	r3, [r4, #0]
 8005922:	680e      	ldr	r6, [r1, #0]
 8005924:	061f      	lsls	r7, r3, #24
 8005926:	f856 5b04 	ldr.w	r5, [r6], #4
 800592a:	600e      	str	r6, [r1, #0]
 800592c:	d514      	bpl.n	8005958 <_printf_i+0x1ac>
 800592e:	07d9      	lsls	r1, r3, #31
 8005930:	bf44      	itt	mi
 8005932:	f043 0320 	orrmi.w	r3, r3, #32
 8005936:	6023      	strmi	r3, [r4, #0]
 8005938:	b91d      	cbnz	r5, 8005942 <_printf_i+0x196>
 800593a:	6823      	ldr	r3, [r4, #0]
 800593c:	f023 0320 	bic.w	r3, r3, #32
 8005940:	6023      	str	r3, [r4, #0]
 8005942:	2310      	movs	r3, #16
 8005944:	e7b0      	b.n	80058a8 <_printf_i+0xfc>
 8005946:	6823      	ldr	r3, [r4, #0]
 8005948:	f043 0320 	orr.w	r3, r3, #32
 800594c:	6023      	str	r3, [r4, #0]
 800594e:	2378      	movs	r3, #120	; 0x78
 8005950:	4828      	ldr	r0, [pc, #160]	; (80059f4 <_printf_i+0x248>)
 8005952:	f884 3045 	strb.w	r3, [r4, #69]	; 0x45
 8005956:	e7e3      	b.n	8005920 <_printf_i+0x174>
 8005958:	065e      	lsls	r6, r3, #25
 800595a:	bf48      	it	mi
 800595c:	b2ad      	uxthmi	r5, r5
 800595e:	e7e6      	b.n	800592e <_printf_i+0x182>
 8005960:	4616      	mov	r6, r2
 8005962:	e7bb      	b.n	80058dc <_printf_i+0x130>
 8005964:	680b      	ldr	r3, [r1, #0]
 8005966:	6826      	ldr	r6, [r4, #0]
 8005968:	6960      	ldr	r0, [r4, #20]
 800596a:	1d1d      	adds	r5, r3, #4
 800596c:	600d      	str	r5, [r1, #0]
 800596e:	0635      	lsls	r5, r6, #24
 8005970:	681b      	ldr	r3, [r3, #0]
 8005972:	d501      	bpl.n	8005978 <_printf_i+0x1cc>
 8005974:	6018      	str	r0, [r3, #0]
 8005976:	e002      	b.n	800597e <_printf_i+0x1d2>
 8005978:	0671      	lsls	r1, r6, #25
 800597a:	d5fb      	bpl.n	8005974 <_printf_i+0x1c8>
 800597c:	8018      	strh	r0, [r3, #0]
 800597e:	2300      	movs	r3, #0
 8005980:	6123      	str	r3, [r4, #16]
 8005982:	4616      	mov	r6, r2
 8005984:	e7ba      	b.n	80058fc <_printf_i+0x150>
 8005986:	680b      	ldr	r3, [r1, #0]
 8005988:	1d1a      	adds	r2, r3, #4
 800598a:	600a      	str	r2, [r1, #0]
 800598c:	681e      	ldr	r6, [r3, #0]
 800598e:	6862      	ldr	r2, [r4, #4]
 8005990:	2100      	movs	r1, #0
 8005992:	4630      	mov	r0, r6
 8005994:	f7fa fc34 	bl	8000200 <memchr>
 8005998:	b108      	cbz	r0, 800599e <_printf_i+0x1f2>
 800599a:	1b80      	subs	r0, r0, r6
 800599c:	6060      	str	r0, [r4, #4]
 800599e:	6863      	ldr	r3, [r4, #4]
 80059a0:	6123      	str	r3, [r4, #16]
 80059a2:	2300      	movs	r3, #0
 80059a4:	f884 3043 	strb.w	r3, [r4, #67]	; 0x43
 80059a8:	e7a8      	b.n	80058fc <_printf_i+0x150>
 80059aa:	6923      	ldr	r3, [r4, #16]
 80059ac:	4632      	mov	r2, r6
 80059ae:	4649      	mov	r1, r9
 80059b0:	4640      	mov	r0, r8
 80059b2:	47d0      	blx	sl
 80059b4:	3001      	adds	r0, #1
 80059b6:	d0ab      	beq.n	8005910 <_printf_i+0x164>
 80059b8:	6823      	ldr	r3, [r4, #0]
 80059ba:	079b      	lsls	r3, r3, #30
 80059bc:	d413      	bmi.n	80059e6 <_printf_i+0x23a>
 80059be:	68e0      	ldr	r0, [r4, #12]
 80059c0:	9b03      	ldr	r3, [sp, #12]
 80059c2:	4298      	cmp	r0, r3
 80059c4:	bfb8      	it	lt
 80059c6:	4618      	movlt	r0, r3
 80059c8:	e7a4      	b.n	8005914 <_printf_i+0x168>
 80059ca:	2301      	movs	r3, #1
 80059cc:	4632      	mov	r2, r6
 80059ce:	4649      	mov	r1, r9
 80059d0:	4640      	mov	r0, r8
 80059d2:	47d0      	blx	sl
 80059d4:	3001      	adds	r0, #1
 80059d6:	d09b      	beq.n	8005910 <_printf_i+0x164>
 80059d8:	3501      	adds	r5, #1
 80059da:	68e3      	ldr	r3, [r4, #12]
 80059dc:	9903      	ldr	r1, [sp, #12]
 80059de:	1a5b      	subs	r3, r3, r1
 80059e0:	42ab      	cmp	r3, r5
 80059e2:	dcf2      	bgt.n	80059ca <_printf_i+0x21e>
 80059e4:	e7eb      	b.n	80059be <_printf_i+0x212>
 80059e6:	2500      	movs	r5, #0
 80059e8:	f104 0619 	add.w	r6, r4, #25
 80059ec:	e7f5      	b.n	80059da <_printf_i+0x22e>
 80059ee:	bf00      	nop
 80059f0:	080063d5 	.word	0x080063d5
 80059f4:	080063e6 	.word	0x080063e6

080059f8 <_sbrk_r>:
 80059f8:	b538      	push	{r3, r4, r5, lr}
 80059fa:	4d06      	ldr	r5, [pc, #24]	; (8005a14 <_sbrk_r+0x1c>)
 80059fc:	2300      	movs	r3, #0
 80059fe:	4604      	mov	r4, r0
 8005a00:	4608      	mov	r0, r1
 8005a02:	602b      	str	r3, [r5, #0]
 8005a04:	f7fb f9be 	bl	8000d84 <_sbrk>
 8005a08:	1c43      	adds	r3, r0, #1
 8005a0a:	d102      	bne.n	8005a12 <_sbrk_r+0x1a>
 8005a0c:	682b      	ldr	r3, [r5, #0]
 8005a0e:	b103      	cbz	r3, 8005a12 <_sbrk_r+0x1a>
 8005a10:	6023      	str	r3, [r4, #0]
 8005a12:	bd38      	pop	{r3, r4, r5, pc}
 8005a14:	2001307c 	.word	0x2001307c

08005a18 <__swbuf_r>:
 8005a18:	b5f8      	push	{r3, r4, r5, r6, r7, lr}
 8005a1a:	460e      	mov	r6, r1
 8005a1c:	4614      	mov	r4, r2
 8005a1e:	4605      	mov	r5, r0
 8005a20:	b118      	cbz	r0, 8005a2a <__swbuf_r+0x12>
 8005a22:	6983      	ldr	r3, [r0, #24]
 8005a24:	b90b      	cbnz	r3, 8005a2a <__swbuf_r+0x12>
 8005a26:	f000 f9d9 	bl	8005ddc <__sinit>
 8005a2a:	4b21      	ldr	r3, [pc, #132]	; (8005ab0 <__swbuf_r+0x98>)
 8005a2c:	429c      	cmp	r4, r3
 8005a2e:	d12b      	bne.n	8005a88 <__swbuf_r+0x70>
 8005a30:	686c      	ldr	r4, [r5, #4]
 8005a32:	69a3      	ldr	r3, [r4, #24]
 8005a34:	60a3      	str	r3, [r4, #8]
 8005a36:	89a3      	ldrh	r3, [r4, #12]
 8005a38:	071a      	lsls	r2, r3, #28
 8005a3a:	d52f      	bpl.n	8005a9c <__swbuf_r+0x84>
 8005a3c:	6923      	ldr	r3, [r4, #16]
 8005a3e:	b36b      	cbz	r3, 8005a9c <__swbuf_r+0x84>
 8005a40:	6923      	ldr	r3, [r4, #16]
 8005a42:	6820      	ldr	r0, [r4, #0]
 8005a44:	1ac0      	subs	r0, r0, r3
 8005a46:	6963      	ldr	r3, [r4, #20]
 8005a48:	b2f6      	uxtb	r6, r6
 8005a4a:	4283      	cmp	r3, r0
 8005a4c:	4637      	mov	r7, r6
 8005a4e:	dc04      	bgt.n	8005a5a <__swbuf_r+0x42>
 8005a50:	4621      	mov	r1, r4
 8005a52:	4628      	mov	r0, r5
 8005a54:	f000 f92e 	bl	8005cb4 <_fflush_r>
 8005a58:	bb30      	cbnz	r0, 8005aa8 <__swbuf_r+0x90>
 8005a5a:	68a3      	ldr	r3, [r4, #8]
 8005a5c:	3b01      	subs	r3, #1
 8005a5e:	60a3      	str	r3, [r4, #8]
 8005a60:	6823      	ldr	r3, [r4, #0]
 8005a62:	1c5a      	adds	r2, r3, #1
 8005a64:	6022      	str	r2, [r4, #0]
 8005a66:	701e      	strb	r6, [r3, #0]
 8005a68:	6963      	ldr	r3, [r4, #20]
 8005a6a:	3001      	adds	r0, #1
 8005a6c:	4283      	cmp	r3, r0
 8005a6e:	d004      	beq.n	8005a7a <__swbuf_r+0x62>
 8005a70:	89a3      	ldrh	r3, [r4, #12]
 8005a72:	07db      	lsls	r3, r3, #31
 8005a74:	d506      	bpl.n	8005a84 <__swbuf_r+0x6c>
 8005a76:	2e0a      	cmp	r6, #10
 8005a78:	d104      	bne.n	8005a84 <__swbuf_r+0x6c>
 8005a7a:	4621      	mov	r1, r4
 8005a7c:	4628      	mov	r0, r5
 8005a7e:	f000 f919 	bl	8005cb4 <_fflush_r>
 8005a82:	b988      	cbnz	r0, 8005aa8 <__swbuf_r+0x90>
 8005a84:	4638      	mov	r0, r7
 8005a86:	bdf8      	pop	{r3, r4, r5, r6, r7, pc}
 8005a88:	4b0a      	ldr	r3, [pc, #40]	; (8005ab4 <__swbuf_r+0x9c>)
 8005a8a:	429c      	cmp	r4, r3
 8005a8c:	d101      	bne.n	8005a92 <__swbuf_r+0x7a>
 8005a8e:	68ac      	ldr	r4, [r5, #8]
 8005a90:	e7cf      	b.n	8005a32 <__swbuf_r+0x1a>
 8005a92:	4b09      	ldr	r3, [pc, #36]	; (8005ab8 <__swbuf_r+0xa0>)
 8005a94:	429c      	cmp	r4, r3
 8005a96:	bf08      	it	eq
 8005a98:	68ec      	ldreq	r4, [r5, #12]
 8005a9a:	e7ca      	b.n	8005a32 <__swbuf_r+0x1a>
 8005a9c:	4621      	mov	r1, r4
 8005a9e:	4628      	mov	r0, r5
 8005aa0:	f000 f80c 	bl	8005abc <__swsetup_r>
 8005aa4:	2800      	cmp	r0, #0
 8005aa6:	d0cb      	beq.n	8005a40 <__swbuf_r+0x28>
 8005aa8:	f04f 37ff 	mov.w	r7, #4294967295
 8005aac:	e7ea      	b.n	8005a84 <__swbuf_r+0x6c>
 8005aae:	bf00      	nop
 8005ab0:	08006418 	.word	0x08006418
 8005ab4:	08006438 	.word	0x08006438
 8005ab8:	080063f8 	.word	0x080063f8

08005abc <__swsetup_r>:
 8005abc:	4b32      	ldr	r3, [pc, #200]	; (8005b88 <__swsetup_r+0xcc>)
 8005abe:	b570      	push	{r4, r5, r6, lr}
 8005ac0:	681d      	ldr	r5, [r3, #0]
 8005ac2:	4606      	mov	r6, r0
 8005ac4:	460c      	mov	r4, r1
 8005ac6:	b125      	cbz	r5, 8005ad2 <__swsetup_r+0x16>
 8005ac8:	69ab      	ldr	r3, [r5, #24]
 8005aca:	b913      	cbnz	r3, 8005ad2 <__swsetup_r+0x16>
 8005acc:	4628      	mov	r0, r5
 8005ace:	f000 f985 	bl	8005ddc <__sinit>
 8005ad2:	4b2e      	ldr	r3, [pc, #184]	; (8005b8c <__swsetup_r+0xd0>)
 8005ad4:	429c      	cmp	r4, r3
 8005ad6:	d10f      	bne.n	8005af8 <__swsetup_r+0x3c>
 8005ad8:	686c      	ldr	r4, [r5, #4]
 8005ada:	89a3      	ldrh	r3, [r4, #12]
 8005adc:	f9b4 200c 	ldrsh.w	r2, [r4, #12]
 8005ae0:	0719      	lsls	r1, r3, #28
 8005ae2:	d42c      	bmi.n	8005b3e <__swsetup_r+0x82>
 8005ae4:	06dd      	lsls	r5, r3, #27
 8005ae6:	d411      	bmi.n	8005b0c <__swsetup_r+0x50>
 8005ae8:	2309      	movs	r3, #9
 8005aea:	6033      	str	r3, [r6, #0]
 8005aec:	f042 0340 	orr.w	r3, r2, #64	; 0x40
 8005af0:	81a3      	strh	r3, [r4, #12]
 8005af2:	f04f 30ff 	mov.w	r0, #4294967295
 8005af6:	e03e      	b.n	8005b76 <__swsetup_r+0xba>
 8005af8:	4b25      	ldr	r3, [pc, #148]	; (8005b90 <__swsetup_r+0xd4>)
 8005afa:	429c      	cmp	r4, r3
 8005afc:	d101      	bne.n	8005b02 <__swsetup_r+0x46>
 8005afe:	68ac      	ldr	r4, [r5, #8]
 8005b00:	e7eb      	b.n	8005ada <__swsetup_r+0x1e>
 8005b02:	4b24      	ldr	r3, [pc, #144]	; (8005b94 <__swsetup_r+0xd8>)
 8005b04:	429c      	cmp	r4, r3
 8005b06:	bf08      	it	eq
 8005b08:	68ec      	ldreq	r4, [r5, #12]
 8005b0a:	e7e6      	b.n	8005ada <__swsetup_r+0x1e>
 8005b0c:	0758      	lsls	r0, r3, #29
 8005b0e:	d512      	bpl.n	8005b36 <__swsetup_r+0x7a>
 8005b10:	6b61      	ldr	r1, [r4, #52]	; 0x34
 8005b12:	b141      	cbz	r1, 8005b26 <__swsetup_r+0x6a>
 8005b14:	f104 0344 	add.w	r3, r4, #68	; 0x44
 8005b18:	4299      	cmp	r1, r3
 8005b1a:	d002      	beq.n	8005b22 <__swsetup_r+0x66>
 8005b1c:	4630      	mov	r0, r6
 8005b1e:	f7ff fa77 	bl	8005010 <_free_r>
 8005b22:	2300      	movs	r3, #0
 8005b24:	6363      	str	r3, [r4, #52]	; 0x34
 8005b26:	89a3      	ldrh	r3, [r4, #12]
 8005b28:	f023 0324 	bic.w	r3, r3, #36	; 0x24
 8005b2c:	81a3      	strh	r3, [r4, #12]
 8005b2e:	2300      	movs	r3, #0
 8005b30:	6063      	str	r3, [r4, #4]
 8005b32:	6923      	ldr	r3, [r4, #16]
 8005b34:	6023      	str	r3, [r4, #0]
 8005b36:	89a3      	ldrh	r3, [r4, #12]
 8005b38:	f043 0308 	orr.w	r3, r3, #8
 8005b3c:	81a3      	strh	r3, [r4, #12]
 8005b3e:	6923      	ldr	r3, [r4, #16]
 8005b40:	b94b      	cbnz	r3, 8005b56 <__swsetup_r+0x9a>
 8005b42:	89a3      	ldrh	r3, [r4, #12]
 8005b44:	f403 7320 	and.w	r3, r3, #640	; 0x280
 8005b48:	f5b3 7f00 	cmp.w	r3, #512	; 0x200
 8005b4c:	d003      	beq.n	8005b56 <__swsetup_r+0x9a>
 8005b4e:	4621      	mov	r1, r4
 8005b50:	4630      	mov	r0, r6
 8005b52:	f000 fa07 	bl	8005f64 <__smakebuf_r>
 8005b56:	89a0      	ldrh	r0, [r4, #12]
 8005b58:	f9b4 200c 	ldrsh.w	r2, [r4, #12]
 8005b5c:	f010 0301 	ands.w	r3, r0, #1
 8005b60:	d00a      	beq.n	8005b78 <__swsetup_r+0xbc>
 8005b62:	2300      	movs	r3, #0
 8005b64:	60a3      	str	r3, [r4, #8]
 8005b66:	6963      	ldr	r3, [r4, #20]
 8005b68:	425b      	negs	r3, r3
 8005b6a:	61a3      	str	r3, [r4, #24]
 8005b6c:	6923      	ldr	r3, [r4, #16]
 8005b6e:	b943      	cbnz	r3, 8005b82 <__swsetup_r+0xc6>
 8005b70:	f010 0080 	ands.w	r0, r0, #128	; 0x80
 8005b74:	d1ba      	bne.n	8005aec <__swsetup_r+0x30>
 8005b76:	bd70      	pop	{r4, r5, r6, pc}
 8005b78:	0781      	lsls	r1, r0, #30
 8005b7a:	bf58      	it	pl
 8005b7c:	6963      	ldrpl	r3, [r4, #20]
 8005b7e:	60a3      	str	r3, [r4, #8]
 8005b80:	e7f4      	b.n	8005b6c <__swsetup_r+0xb0>
 8005b82:	2000      	movs	r0, #0
 8005b84:	e7f7      	b.n	8005b76 <__swsetup_r+0xba>
 8005b86:	bf00      	nop
 8005b88:	2000002c 	.word	0x2000002c
 8005b8c:	08006418 	.word	0x08006418
 8005b90:	08006438 	.word	0x08006438
 8005b94:	080063f8 	.word	0x080063f8

08005b98 <abort>:
 8005b98:	b508      	push	{r3, lr}
 8005b9a:	2006      	movs	r0, #6
 8005b9c:	f000 faa4 	bl	80060e8 <raise>
 8005ba0:	2001      	movs	r0, #1
 8005ba2:	f7fb f877 	bl	8000c94 <_exit>
	...

08005ba8 <__sflush_r>:
 8005ba8:	898a      	ldrh	r2, [r1, #12]
 8005baa:	e92d 41f0 	stmdb	sp!, {r4, r5, r6, r7, r8, lr}
 8005bae:	4605      	mov	r5, r0
 8005bb0:	0710      	lsls	r0, r2, #28
 8005bb2:	460c      	mov	r4, r1
 8005bb4:	d458      	bmi.n	8005c68 <__sflush_r+0xc0>
 8005bb6:	684b      	ldr	r3, [r1, #4]
 8005bb8:	2b00      	cmp	r3, #0
 8005bba:	dc05      	bgt.n	8005bc8 <__sflush_r+0x20>
 8005bbc:	6c0b      	ldr	r3, [r1, #64]	; 0x40
 8005bbe:	2b00      	cmp	r3, #0
 8005bc0:	dc02      	bgt.n	8005bc8 <__sflush_r+0x20>
 8005bc2:	2000      	movs	r0, #0
 8005bc4:	e8bd 81f0 	ldmia.w	sp!, {r4, r5, r6, r7, r8, pc}
 8005bc8:	6ae6      	ldr	r6, [r4, #44]	; 0x2c
 8005bca:	2e00      	cmp	r6, #0
 8005bcc:	d0f9      	beq.n	8005bc2 <__sflush_r+0x1a>
 8005bce:	2300      	movs	r3, #0
 8005bd0:	f412 5280 	ands.w	r2, r2, #4096	; 0x1000
 8005bd4:	682f      	ldr	r7, [r5, #0]
 8005bd6:	602b      	str	r3, [r5, #0]
 8005bd8:	d032      	beq.n	8005c40 <__sflush_r+0x98>
 8005bda:	6d60      	ldr	r0, [r4, #84]	; 0x54
 8005bdc:	89a3      	ldrh	r3, [r4, #12]
 8005bde:	075a      	lsls	r2, r3, #29
 8005be0:	d505      	bpl.n	8005bee <__sflush_r+0x46>
 8005be2:	6863      	ldr	r3, [r4, #4]
 8005be4:	1ac0      	subs	r0, r0, r3
 8005be6:	6b63      	ldr	r3, [r4, #52]	; 0x34
 8005be8:	b10b      	cbz	r3, 8005bee <__sflush_r+0x46>
 8005bea:	6c23      	ldr	r3, [r4, #64]	; 0x40
 8005bec:	1ac0      	subs	r0, r0, r3
 8005bee:	2300      	movs	r3, #0
 8005bf0:	4602      	mov	r2, r0
 8005bf2:	6ae6      	ldr	r6, [r4, #44]	; 0x2c
 8005bf4:	6a21      	ldr	r1, [r4, #32]
 8005bf6:	4628      	mov	r0, r5
 8005bf8:	47b0      	blx	r6
 8005bfa:	1c43      	adds	r3, r0, #1
 8005bfc:	89a3      	ldrh	r3, [r4, #12]
 8005bfe:	d106      	bne.n	8005c0e <__sflush_r+0x66>
 8005c00:	6829      	ldr	r1, [r5, #0]
 8005c02:	291d      	cmp	r1, #29
 8005c04:	d82c      	bhi.n	8005c60 <__sflush_r+0xb8>
 8005c06:	4a2a      	ldr	r2, [pc, #168]	; (8005cb0 <__sflush_r+0x108>)
 8005c08:	40ca      	lsrs	r2, r1
 8005c0a:	07d6      	lsls	r6, r2, #31
 8005c0c:	d528      	bpl.n	8005c60 <__sflush_r+0xb8>
 8005c0e:	2200      	movs	r2, #0
 8005c10:	6062      	str	r2, [r4, #4]
 8005c12:	04d9      	lsls	r1, r3, #19
 8005c14:	6922      	ldr	r2, [r4, #16]
 8005c16:	6022      	str	r2, [r4, #0]
 8005c18:	d504      	bpl.n	8005c24 <__sflush_r+0x7c>
 8005c1a:	1c42      	adds	r2, r0, #1
 8005c1c:	d101      	bne.n	8005c22 <__sflush_r+0x7a>
 8005c1e:	682b      	ldr	r3, [r5, #0]
 8005c20:	b903      	cbnz	r3, 8005c24 <__sflush_r+0x7c>
 8005c22:	6560      	str	r0, [r4, #84]	; 0x54
 8005c24:	6b61      	ldr	r1, [r4, #52]	; 0x34
 8005c26:	602f      	str	r7, [r5, #0]
 8005c28:	2900      	cmp	r1, #0
 8005c2a:	d0ca      	beq.n	8005bc2 <__sflush_r+0x1a>
 8005c2c:	f104 0344 	add.w	r3, r4, #68	; 0x44
 8005c30:	4299      	cmp	r1, r3
 8005c32:	d002      	beq.n	8005c3a <__sflush_r+0x92>
 8005c34:	4628      	mov	r0, r5
 8005c36:	f7ff f9eb 	bl	8005010 <_free_r>
 8005c3a:	2000      	movs	r0, #0
 8005c3c:	6360      	str	r0, [r4, #52]	; 0x34
 8005c3e:	e7c1      	b.n	8005bc4 <__sflush_r+0x1c>
 8005c40:	6a21      	ldr	r1, [r4, #32]
 8005c42:	2301      	movs	r3, #1
 8005c44:	4628      	mov	r0, r5
 8005c46:	47b0      	blx	r6
 8005c48:	1c41      	adds	r1, r0, #1
 8005c4a:	d1c7      	bne.n	8005bdc <__sflush_r+0x34>
 8005c4c:	682b      	ldr	r3, [r5, #0]
 8005c4e:	2b00      	cmp	r3, #0
 8005c50:	d0c4      	beq.n	8005bdc <__sflush_r+0x34>
 8005c52:	2b1d      	cmp	r3, #29
 8005c54:	d001      	beq.n	8005c5a <__sflush_r+0xb2>
 8005c56:	2b16      	cmp	r3, #22
 8005c58:	d101      	bne.n	8005c5e <__sflush_r+0xb6>
 8005c5a:	602f      	str	r7, [r5, #0]
 8005c5c:	e7b1      	b.n	8005bc2 <__sflush_r+0x1a>
 8005c5e:	89a3      	ldrh	r3, [r4, #12]
 8005c60:	f043 0340 	orr.w	r3, r3, #64	; 0x40
 8005c64:	81a3      	strh	r3, [r4, #12]
 8005c66:	e7ad      	b.n	8005bc4 <__sflush_r+0x1c>
 8005c68:	690f      	ldr	r7, [r1, #16]
 8005c6a:	2f00      	cmp	r7, #0
 8005c6c:	d0a9      	beq.n	8005bc2 <__sflush_r+0x1a>
 8005c6e:	0793      	lsls	r3, r2, #30
 8005c70:	680e      	ldr	r6, [r1, #0]
 8005c72:	bf08      	it	eq
 8005c74:	694b      	ldreq	r3, [r1, #20]
 8005c76:	600f      	str	r7, [r1, #0]
 8005c78:	bf18      	it	ne
 8005c7a:	2300      	movne	r3, #0
 8005c7c:	eba6 0807 	sub.w	r8, r6, r7
 8005c80:	608b      	str	r3, [r1, #8]
 8005c82:	f1b8 0f00 	cmp.w	r8, #0
 8005c86:	dd9c      	ble.n	8005bc2 <__sflush_r+0x1a>
 8005c88:	6a21      	ldr	r1, [r4, #32]
 8005c8a:	6aa6      	ldr	r6, [r4, #40]	; 0x28
 8005c8c:	4643      	mov	r3, r8
 8005c8e:	463a      	mov	r2, r7
 8005c90:	4628      	mov	r0, r5
 8005c92:	47b0      	blx	r6
 8005c94:	2800      	cmp	r0, #0
 8005c96:	dc06      	bgt.n	8005ca6 <__sflush_r+0xfe>
 8005c98:	89a3      	ldrh	r3, [r4, #12]
 8005c9a:	f043 0340 	orr.w	r3, r3, #64	; 0x40
 8005c9e:	81a3      	strh	r3, [r4, #12]
 8005ca0:	f04f 30ff 	mov.w	r0, #4294967295
 8005ca4:	e78e      	b.n	8005bc4 <__sflush_r+0x1c>
 8005ca6:	4407      	add	r7, r0
 8005ca8:	eba8 0800 	sub.w	r8, r8, r0
 8005cac:	e7e9      	b.n	8005c82 <__sflush_r+0xda>
 8005cae:	bf00      	nop
 8005cb0:	20400001 	.word	0x20400001

08005cb4 <_fflush_r>:
 8005cb4:	b538      	push	{r3, r4, r5, lr}
 8005cb6:	690b      	ldr	r3, [r1, #16]
 8005cb8:	4605      	mov	r5, r0
 8005cba:	460c      	mov	r4, r1
 8005cbc:	b913      	cbnz	r3, 8005cc4 <_fflush_r+0x10>
 8005cbe:	2500      	movs	r5, #0
 8005cc0:	4628      	mov	r0, r5
 8005cc2:	bd38      	pop	{r3, r4, r5, pc}
 8005cc4:	b118      	cbz	r0, 8005cce <_fflush_r+0x1a>
 8005cc6:	6983      	ldr	r3, [r0, #24]
 8005cc8:	b90b      	cbnz	r3, 8005cce <_fflush_r+0x1a>
 8005cca:	f000 f887 	bl	8005ddc <__sinit>
 8005cce:	4b14      	ldr	r3, [pc, #80]	; (8005d20 <_fflush_r+0x6c>)
 8005cd0:	429c      	cmp	r4, r3
 8005cd2:	d11b      	bne.n	8005d0c <_fflush_r+0x58>
 8005cd4:	686c      	ldr	r4, [r5, #4]
 8005cd6:	f9b4 300c 	ldrsh.w	r3, [r4, #12]
 8005cda:	2b00      	cmp	r3, #0
 8005cdc:	d0ef      	beq.n	8005cbe <_fflush_r+0xa>
 8005cde:	6e62      	ldr	r2, [r4, #100]	; 0x64
 8005ce0:	07d0      	lsls	r0, r2, #31
 8005ce2:	d404      	bmi.n	8005cee <_fflush_r+0x3a>
 8005ce4:	0599      	lsls	r1, r3, #22
 8005ce6:	d402      	bmi.n	8005cee <_fflush_r+0x3a>
 8005ce8:	6da0      	ldr	r0, [r4, #88]	; 0x58
 8005cea:	f000 f915 	bl	8005f18 <__retarget_lock_acquire_recursive>
 8005cee:	4628      	mov	r0, r5
 8005cf0:	4621      	mov	r1, r4
 8005cf2:	f7ff ff59 	bl	8005ba8 <__sflush_r>
 8005cf6:	6e63      	ldr	r3, [r4, #100]	; 0x64
 8005cf8:	07da      	lsls	r2, r3, #31
 8005cfa:	4605      	mov	r5, r0
 8005cfc:	d4e0      	bmi.n	8005cc0 <_fflush_r+0xc>
 8005cfe:	89a3      	ldrh	r3, [r4, #12]
 8005d00:	059b      	lsls	r3, r3, #22
 8005d02:	d4dd      	bmi.n	8005cc0 <_fflush_r+0xc>
 8005d04:	6da0      	ldr	r0, [r4, #88]	; 0x58
 8005d06:	f000 f908 	bl	8005f1a <__retarget_lock_release_recursive>
 8005d0a:	e7d9      	b.n	8005cc0 <_fflush_r+0xc>
 8005d0c:	4b05      	ldr	r3, [pc, #20]	; (8005d24 <_fflush_r+0x70>)
 8005d0e:	429c      	cmp	r4, r3
 8005d10:	d101      	bne.n	8005d16 <_fflush_r+0x62>
 8005d12:	68ac      	ldr	r4, [r5, #8]
 8005d14:	e7df      	b.n	8005cd6 <_fflush_r+0x22>
 8005d16:	4b04      	ldr	r3, [pc, #16]	; (8005d28 <_fflush_r+0x74>)
 8005d18:	429c      	cmp	r4, r3
 8005d1a:	bf08      	it	eq
 8005d1c:	68ec      	ldreq	r4, [r5, #12]
 8005d1e:	e7da      	b.n	8005cd6 <_fflush_r+0x22>
 8005d20:	08006418 	.word	0x08006418
 8005d24:	08006438 	.word	0x08006438
 8005d28:	080063f8 	.word	0x080063f8

08005d2c <std>:
 8005d2c:	2300      	movs	r3, #0
 8005d2e:	b510      	push	{r4, lr}
 8005d30:	4604      	mov	r4, r0
 8005d32:	e9c0 3300 	strd	r3, r3, [r0]
 8005d36:	e9c0 3304 	strd	r3, r3, [r0, #16]
 8005d3a:	6083      	str	r3, [r0, #8]
 8005d3c:	8181      	strh	r1, [r0, #12]
 8005d3e:	6643      	str	r3, [r0, #100]	; 0x64
 8005d40:	81c2      	strh	r2, [r0, #14]
 8005d42:	6183      	str	r3, [r0, #24]
 8005d44:	4619      	mov	r1, r3
 8005d46:	2208      	movs	r2, #8
 8005d48:	305c      	adds	r0, #92	; 0x5c
 8005d4a:	f7ff f8a5 	bl	8004e98 <memset>
 8005d4e:	4b05      	ldr	r3, [pc, #20]	; (8005d64 <std+0x38>)
 8005d50:	6263      	str	r3, [r4, #36]	; 0x24
 8005d52:	4b05      	ldr	r3, [pc, #20]	; (8005d68 <std+0x3c>)
 8005d54:	62a3      	str	r3, [r4, #40]	; 0x28
 8005d56:	4b05      	ldr	r3, [pc, #20]	; (8005d6c <std+0x40>)
 8005d58:	62e3      	str	r3, [r4, #44]	; 0x2c
 8005d5a:	4b05      	ldr	r3, [pc, #20]	; (8005d70 <std+0x44>)
 8005d5c:	6224      	str	r4, [r4, #32]
 8005d5e:	6323      	str	r3, [r4, #48]	; 0x30
 8005d60:	bd10      	pop	{r4, pc}
 8005d62:	bf00      	nop
 8005d64:	08006121 	.word	0x08006121
 8005d68:	08006143 	.word	0x08006143
 8005d6c:	0800617b 	.word	0x0800617b
 8005d70:	0800619f 	.word	0x0800619f

08005d74 <_cleanup_r>:
 8005d74:	4901      	ldr	r1, [pc, #4]	; (8005d7c <_cleanup_r+0x8>)
 8005d76:	f000 b8af 	b.w	8005ed8 <_fwalk_reent>
 8005d7a:	bf00      	nop
 8005d7c:	08005cb5 	.word	0x08005cb5

08005d80 <__sfmoreglue>:
 8005d80:	b570      	push	{r4, r5, r6, lr}
 8005d82:	1e4a      	subs	r2, r1, #1
 8005d84:	2568      	movs	r5, #104	; 0x68
 8005d86:	4355      	muls	r5, r2
 8005d88:	460e      	mov	r6, r1
 8005d8a:	f105 0174 	add.w	r1, r5, #116	; 0x74
 8005d8e:	f7ff f98f 	bl	80050b0 <_malloc_r>
 8005d92:	4604      	mov	r4, r0
 8005d94:	b140      	cbz	r0, 8005da8 <__sfmoreglue+0x28>
 8005d96:	2100      	movs	r1, #0
 8005d98:	e9c0 1600 	strd	r1, r6, [r0]
 8005d9c:	300c      	adds	r0, #12
 8005d9e:	60a0      	str	r0, [r4, #8]
 8005da0:	f105 0268 	add.w	r2, r5, #104	; 0x68
 8005da4:	f7ff f878 	bl	8004e98 <memset>
 8005da8:	4620      	mov	r0, r4
 8005daa:	bd70      	pop	{r4, r5, r6, pc}

08005dac <__sfp_lock_acquire>:
 8005dac:	4801      	ldr	r0, [pc, #4]	; (8005db4 <__sfp_lock_acquire+0x8>)
 8005dae:	f000 b8b3 	b.w	8005f18 <__retarget_lock_acquire_recursive>
 8005db2:	bf00      	nop
 8005db4:	20013078 	.word	0x20013078

08005db8 <__sfp_lock_release>:
 8005db8:	4801      	ldr	r0, [pc, #4]	; (8005dc0 <__sfp_lock_release+0x8>)
 8005dba:	f000 b8ae 	b.w	8005f1a <__retarget_lock_release_recursive>
 8005dbe:	bf00      	nop
 8005dc0:	20013078 	.word	0x20013078

08005dc4 <__sinit_lock_acquire>:
 8005dc4:	4801      	ldr	r0, [pc, #4]	; (8005dcc <__sinit_lock_acquire+0x8>)
 8005dc6:	f000 b8a7 	b.w	8005f18 <__retarget_lock_acquire_recursive>
 8005dca:	bf00      	nop
 8005dcc:	20013073 	.word	0x20013073

08005dd0 <__sinit_lock_release>:
 8005dd0:	4801      	ldr	r0, [pc, #4]	; (8005dd8 <__sinit_lock_release+0x8>)
 8005dd2:	f000 b8a2 	b.w	8005f1a <__retarget_lock_release_recursive>
 8005dd6:	bf00      	nop
 8005dd8:	20013073 	.word	0x20013073

08005ddc <__sinit>:
 8005ddc:	b510      	push	{r4, lr}
 8005dde:	4604      	mov	r4, r0
 8005de0:	f7ff fff0 	bl	8005dc4 <__sinit_lock_acquire>
 8005de4:	69a3      	ldr	r3, [r4, #24]
 8005de6:	b11b      	cbz	r3, 8005df0 <__sinit+0x14>
 8005de8:	e8bd 4010 	ldmia.w	sp!, {r4, lr}
 8005dec:	f7ff bff0 	b.w	8005dd0 <__sinit_lock_release>
 8005df0:	e9c4 3312 	strd	r3, r3, [r4, #72]	; 0x48
 8005df4:	6523      	str	r3, [r4, #80]	; 0x50
 8005df6:	4b13      	ldr	r3, [pc, #76]	; (8005e44 <__sinit+0x68>)
 8005df8:	4a13      	ldr	r2, [pc, #76]	; (8005e48 <__sinit+0x6c>)
 8005dfa:	681b      	ldr	r3, [r3, #0]
 8005dfc:	62a2      	str	r2, [r4, #40]	; 0x28
 8005dfe:	42a3      	cmp	r3, r4
 8005e00:	bf04      	itt	eq
 8005e02:	2301      	moveq	r3, #1
 8005e04:	61a3      	streq	r3, [r4, #24]
 8005e06:	4620      	mov	r0, r4
 8005e08:	f000 f820 	bl	8005e4c <__sfp>
 8005e0c:	6060      	str	r0, [r4, #4]
 8005e0e:	4620      	mov	r0, r4
 8005e10:	f000 f81c 	bl	8005e4c <__sfp>
 8005e14:	60a0      	str	r0, [r4, #8]
 8005e16:	4620      	mov	r0, r4
 8005e18:	f000 f818 	bl	8005e4c <__sfp>
 8005e1c:	2200      	movs	r2, #0
 8005e1e:	60e0      	str	r0, [r4, #12]
 8005e20:	2104      	movs	r1, #4
 8005e22:	6860      	ldr	r0, [r4, #4]
 8005e24:	f7ff ff82 	bl	8005d2c <std>
 8005e28:	68a0      	ldr	r0, [r4, #8]
 8005e2a:	2201      	movs	r2, #1
 8005e2c:	2109      	movs	r1, #9
 8005e2e:	f7ff ff7d 	bl	8005d2c <std>
 8005e32:	68e0      	ldr	r0, [r4, #12]
 8005e34:	2202      	movs	r2, #2
 8005e36:	2112      	movs	r1, #18
 8005e38:	f7ff ff78 	bl	8005d2c <std>
 8005e3c:	2301      	movs	r3, #1
 8005e3e:	61a3      	str	r3, [r4, #24]
 8005e40:	e7d2      	b.n	8005de8 <__sinit+0xc>
 8005e42:	bf00      	nop
 8005e44:	0800630c 	.word	0x0800630c
 8005e48:	08005d75 	.word	0x08005d75

08005e4c <__sfp>:
 8005e4c:	b5f8      	push	{r3, r4, r5, r6, r7, lr}
 8005e4e:	4607      	mov	r7, r0
 8005e50:	f7ff ffac 	bl	8005dac <__sfp_lock_acquire>
 8005e54:	4b1e      	ldr	r3, [pc, #120]	; (8005ed0 <__sfp+0x84>)
 8005e56:	681e      	ldr	r6, [r3, #0]
 8005e58:	69b3      	ldr	r3, [r6, #24]
 8005e5a:	b913      	cbnz	r3, 8005e62 <__sfp+0x16>
 8005e5c:	4630      	mov	r0, r6
 8005e5e:	f7ff ffbd 	bl	8005ddc <__sinit>
 8005e62:	3648      	adds	r6, #72	; 0x48
 8005e64:	e9d6 3401 	ldrd	r3, r4, [r6, #4]
 8005e68:	3b01      	subs	r3, #1
 8005e6a:	d503      	bpl.n	8005e74 <__sfp+0x28>
 8005e6c:	6833      	ldr	r3, [r6, #0]
 8005e6e:	b30b      	cbz	r3, 8005eb4 <__sfp+0x68>
 8005e70:	6836      	ldr	r6, [r6, #0]
 8005e72:	e7f7      	b.n	8005e64 <__sfp+0x18>
 8005e74:	f9b4 500c 	ldrsh.w	r5, [r4, #12]
 8005e78:	b9d5      	cbnz	r5, 8005eb0 <__sfp+0x64>
 8005e7a:	4b16      	ldr	r3, [pc, #88]	; (8005ed4 <__sfp+0x88>)
 8005e7c:	60e3      	str	r3, [r4, #12]
 8005e7e:	f104 0058 	add.w	r0, r4, #88	; 0x58
 8005e82:	6665      	str	r5, [r4, #100]	; 0x64
 8005e84:	f000 f847 	bl	8005f16 <__retarget_lock_init_recursive>
 8005e88:	f7ff ff96 	bl	8005db8 <__sfp_lock_release>
 8005e8c:	e9c4 5501 	strd	r5, r5, [r4, #4]
 8005e90:	e9c4 5504 	strd	r5, r5, [r4, #16]
 8005e94:	6025      	str	r5, [r4, #0]
 8005e96:	61a5      	str	r5, [r4, #24]
 8005e98:	2208      	movs	r2, #8
 8005e9a:	4629      	mov	r1, r5
 8005e9c:	f104 005c 	add.w	r0, r4, #92	; 0x5c
 8005ea0:	f7fe fffa 	bl	8004e98 <memset>
 8005ea4:	e9c4 550d 	strd	r5, r5, [r4, #52]	; 0x34
 8005ea8:	e9c4 5512 	strd	r5, r5, [r4, #72]	; 0x48
 8005eac:	4620      	mov	r0, r4
 8005eae:	bdf8      	pop	{r3, r4, r5, r6, r7, pc}
 8005eb0:	3468      	adds	r4, #104	; 0x68
 8005eb2:	e7d9      	b.n	8005e68 <__sfp+0x1c>
 8005eb4:	2104      	movs	r1, #4
 8005eb6:	4638      	mov	r0, r7
 8005eb8:	f7ff ff62 	bl	8005d80 <__sfmoreglue>
 8005ebc:	4604      	mov	r4, r0
 8005ebe:	6030      	str	r0, [r6, #0]
 8005ec0:	2800      	cmp	r0, #0
 8005ec2:	d1d5      	bne.n	8005e70 <__sfp+0x24>
 8005ec4:	f7ff ff78 	bl	8005db8 <__sfp_lock_release>
 8005ec8:	230c      	movs	r3, #12
 8005eca:	603b      	str	r3, [r7, #0]
 8005ecc:	e7ee      	b.n	8005eac <__sfp+0x60>
 8005ece:	bf00      	nop
 8005ed0:	0800630c 	.word	0x0800630c
 8005ed4:	ffff0001 	.word	0xffff0001

08005ed8 <_fwalk_reent>:
 8005ed8:	e92d 43f8 	stmdb	sp!, {r3, r4, r5, r6, r7, r8, r9, lr}
 8005edc:	4606      	mov	r6, r0
 8005ede:	4688      	mov	r8, r1
 8005ee0:	f100 0448 	add.w	r4, r0, #72	; 0x48
 8005ee4:	2700      	movs	r7, #0
 8005ee6:	e9d4 9501 	ldrd	r9, r5, [r4, #4]
 8005eea:	f1b9 0901 	subs.w	r9, r9, #1
 8005eee:	d505      	bpl.n	8005efc <_fwalk_reent+0x24>
 8005ef0:	6824      	ldr	r4, [r4, #0]
 8005ef2:	2c00      	cmp	r4, #0
 8005ef4:	d1f7      	bne.n	8005ee6 <_fwalk_reent+0xe>
 8005ef6:	4638      	mov	r0, r7
 8005ef8:	e8bd 83f8 	ldmia.w	sp!, {r3, r4, r5, r6, r7, r8, r9, pc}
 8005efc:	89ab      	ldrh	r3, [r5, #12]
 8005efe:	2b01      	cmp	r3, #1
 8005f00:	d907      	bls.n	8005f12 <_fwalk_reent+0x3a>
 8005f02:	f9b5 300e 	ldrsh.w	r3, [r5, #14]
 8005f06:	3301      	adds	r3, #1
 8005f08:	d003      	beq.n	8005f12 <_fwalk_reent+0x3a>
 8005f0a:	4629      	mov	r1, r5
 8005f0c:	4630      	mov	r0, r6
 8005f0e:	47c0      	blx	r8
 8005f10:	4307      	orrs	r7, r0
 8005f12:	3568      	adds	r5, #104	; 0x68
 8005f14:	e7e9      	b.n	8005eea <_fwalk_reent+0x12>

08005f16 <__retarget_lock_init_recursive>:
 8005f16:	4770      	bx	lr

08005f18 <__retarget_lock_acquire_recursive>:
 8005f18:	4770      	bx	lr

08005f1a <__retarget_lock_release_recursive>:
 8005f1a:	4770      	bx	lr

08005f1c <__swhatbuf_r>:
 8005f1c:	b570      	push	{r4, r5, r6, lr}
 8005f1e:	460e      	mov	r6, r1
 8005f20:	f9b1 100e 	ldrsh.w	r1, [r1, #14]
 8005f24:	2900      	cmp	r1, #0
 8005f26:	b096      	sub	sp, #88	; 0x58
 8005f28:	4614      	mov	r4, r2
 8005f2a:	461d      	mov	r5, r3
 8005f2c:	da07      	bge.n	8005f3e <__swhatbuf_r+0x22>
 8005f2e:	2300      	movs	r3, #0
 8005f30:	602b      	str	r3, [r5, #0]
 8005f32:	89b3      	ldrh	r3, [r6, #12]
 8005f34:	061a      	lsls	r2, r3, #24
 8005f36:	d410      	bmi.n	8005f5a <__swhatbuf_r+0x3e>
 8005f38:	f44f 6380 	mov.w	r3, #1024	; 0x400
 8005f3c:	e00e      	b.n	8005f5c <__swhatbuf_r+0x40>
 8005f3e:	466a      	mov	r2, sp
 8005f40:	f000 f954 	bl	80061ec <_fstat_r>
 8005f44:	2800      	cmp	r0, #0
 8005f46:	dbf2      	blt.n	8005f2e <__swhatbuf_r+0x12>
 8005f48:	9a01      	ldr	r2, [sp, #4]
 8005f4a:	f402 4270 	and.w	r2, r2, #61440	; 0xf000
 8005f4e:	f5a2 5300 	sub.w	r3, r2, #8192	; 0x2000
 8005f52:	425a      	negs	r2, r3
 8005f54:	415a      	adcs	r2, r3
 8005f56:	602a      	str	r2, [r5, #0]
 8005f58:	e7ee      	b.n	8005f38 <__swhatbuf_r+0x1c>
 8005f5a:	2340      	movs	r3, #64	; 0x40
 8005f5c:	2000      	movs	r0, #0
 8005f5e:	6023      	str	r3, [r4, #0]
 8005f60:	b016      	add	sp, #88	; 0x58
 8005f62:	bd70      	pop	{r4, r5, r6, pc}

08005f64 <__smakebuf_r>:
 8005f64:	898b      	ldrh	r3, [r1, #12]
 8005f66:	b573      	push	{r0, r1, r4, r5, r6, lr}
 8005f68:	079d      	lsls	r5, r3, #30
 8005f6a:	4606      	mov	r6, r0
 8005f6c:	460c      	mov	r4, r1
 8005f6e:	d507      	bpl.n	8005f80 <__smakebuf_r+0x1c>
 8005f70:	f104 0347 	add.w	r3, r4, #71	; 0x47
 8005f74:	6023      	str	r3, [r4, #0]
 8005f76:	6123      	str	r3, [r4, #16]
 8005f78:	2301      	movs	r3, #1
 8005f7a:	6163      	str	r3, [r4, #20]
 8005f7c:	b002      	add	sp, #8
 8005f7e:	bd70      	pop	{r4, r5, r6, pc}
 8005f80:	ab01      	add	r3, sp, #4
 8005f82:	466a      	mov	r2, sp
 8005f84:	f7ff ffca 	bl	8005f1c <__swhatbuf_r>
 8005f88:	9900      	ldr	r1, [sp, #0]
 8005f8a:	4605      	mov	r5, r0
 8005f8c:	4630      	mov	r0, r6
 8005f8e:	f7ff f88f 	bl	80050b0 <_malloc_r>
 8005f92:	b948      	cbnz	r0, 8005fa8 <__smakebuf_r+0x44>
 8005f94:	f9b4 300c 	ldrsh.w	r3, [r4, #12]
 8005f98:	059a      	lsls	r2, r3, #22
 8005f9a:	d4ef      	bmi.n	8005f7c <__smakebuf_r+0x18>
 8005f9c:	f023 0303 	bic.w	r3, r3, #3
 8005fa0:	f043 0302 	orr.w	r3, r3, #2
 8005fa4:	81a3      	strh	r3, [r4, #12]
 8005fa6:	e7e3      	b.n	8005f70 <__smakebuf_r+0xc>
 8005fa8:	4b0d      	ldr	r3, [pc, #52]	; (8005fe0 <__smakebuf_r+0x7c>)
 8005faa:	62b3      	str	r3, [r6, #40]	; 0x28
 8005fac:	89a3      	ldrh	r3, [r4, #12]
 8005fae:	6020      	str	r0, [r4, #0]
 8005fb0:	f043 0380 	orr.w	r3, r3, #128	; 0x80
 8005fb4:	81a3      	strh	r3, [r4, #12]
 8005fb6:	9b00      	ldr	r3, [sp, #0]
 8005fb8:	6163      	str	r3, [r4, #20]
 8005fba:	9b01      	ldr	r3, [sp, #4]
 8005fbc:	6120      	str	r0, [r4, #16]
 8005fbe:	b15b      	cbz	r3, 8005fd8 <__smakebuf_r+0x74>
 8005fc0:	f9b4 100e 	ldrsh.w	r1, [r4, #14]
 8005fc4:	4630      	mov	r0, r6
 8005fc6:	f000 f923 	bl	8006210 <_isatty_r>
 8005fca:	b128      	cbz	r0, 8005fd8 <__smakebuf_r+0x74>
 8005fcc:	89a3      	ldrh	r3, [r4, #12]
 8005fce:	f023 0303 	bic.w	r3, r3, #3
 8005fd2:	f043 0301 	orr.w	r3, r3, #1
 8005fd6:	81a3      	strh	r3, [r4, #12]
 8005fd8:	89a0      	ldrh	r0, [r4, #12]
 8005fda:	4305      	orrs	r5, r0
 8005fdc:	81a5      	strh	r5, [r4, #12]
 8005fde:	e7cd      	b.n	8005f7c <__smakebuf_r+0x18>
 8005fe0:	08005d75 	.word	0x08005d75

08005fe4 <memcpy>:
 8005fe4:	440a      	add	r2, r1
 8005fe6:	4291      	cmp	r1, r2
 8005fe8:	f100 33ff 	add.w	r3, r0, #4294967295
 8005fec:	d100      	bne.n	8005ff0 <memcpy+0xc>
 8005fee:	4770      	bx	lr
 8005ff0:	b510      	push	{r4, lr}
 8005ff2:	f811 4b01 	ldrb.w	r4, [r1], #1
 8005ff6:	f803 4f01 	strb.w	r4, [r3, #1]!
 8005ffa:	4291      	cmp	r1, r2
 8005ffc:	d1f9      	bne.n	8005ff2 <memcpy+0xe>
 8005ffe:	bd10      	pop	{r4, pc}

08006000 <memmove>:
 8006000:	4288      	cmp	r0, r1
 8006002:	b510      	push	{r4, lr}
 8006004:	eb01 0402 	add.w	r4, r1, r2
 8006008:	d902      	bls.n	8006010 <memmove+0x10>
 800600a:	4284      	cmp	r4, r0
 800600c:	4623      	mov	r3, r4
 800600e:	d807      	bhi.n	8006020 <memmove+0x20>
 8006010:	1e43      	subs	r3, r0, #1
 8006012:	42a1      	cmp	r1, r4
 8006014:	d008      	beq.n	8006028 <memmove+0x28>
 8006016:	f811 2b01 	ldrb.w	r2, [r1], #1
 800601a:	f803 2f01 	strb.w	r2, [r3, #1]!
 800601e:	e7f8      	b.n	8006012 <memmove+0x12>
 8006020:	4402      	add	r2, r0
 8006022:	4601      	mov	r1, r0
 8006024:	428a      	cmp	r2, r1
 8006026:	d100      	bne.n	800602a <memmove+0x2a>
 8006028:	bd10      	pop	{r4, pc}
 800602a:	f813 4d01 	ldrb.w	r4, [r3, #-1]!
 800602e:	f802 4d01 	strb.w	r4, [r2, #-1]!
 8006032:	e7f7      	b.n	8006024 <memmove+0x24>

08006034 <__malloc_lock>:
 8006034:	4801      	ldr	r0, [pc, #4]	; (800603c <__malloc_lock+0x8>)
 8006036:	f7ff bf6f 	b.w	8005f18 <__retarget_lock_acquire_recursive>
 800603a:	bf00      	nop
 800603c:	20013074 	.word	0x20013074

08006040 <__malloc_unlock>:
 8006040:	4801      	ldr	r0, [pc, #4]	; (8006048 <__malloc_unlock+0x8>)
 8006042:	f7ff bf6a 	b.w	8005f1a <__retarget_lock_release_recursive>
 8006046:	bf00      	nop
 8006048:	20013074 	.word	0x20013074

0800604c <_realloc_r>:
 800604c:	b5f8      	push	{r3, r4, r5, r6, r7, lr}
 800604e:	4607      	mov	r7, r0
 8006050:	4614      	mov	r4, r2
 8006052:	460e      	mov	r6, r1
 8006054:	b921      	cbnz	r1, 8006060 <_realloc_r+0x14>
 8006056:	e8bd 40f8 	ldmia.w	sp!, {r3, r4, r5, r6, r7, lr}
 800605a:	4611      	mov	r1, r2
 800605c:	f7ff b828 	b.w	80050b0 <_malloc_r>
 8006060:	b922      	cbnz	r2, 800606c <_realloc_r+0x20>
 8006062:	f7fe ffd5 	bl	8005010 <_free_r>
 8006066:	4625      	mov	r5, r4
 8006068:	4628      	mov	r0, r5
 800606a:	bdf8      	pop	{r3, r4, r5, r6, r7, pc}
 800606c:	f000 f8f2 	bl	8006254 <_malloc_usable_size_r>
 8006070:	42a0      	cmp	r0, r4
 8006072:	d20f      	bcs.n	8006094 <_realloc_r+0x48>
 8006074:	4621      	mov	r1, r4
 8006076:	4638      	mov	r0, r7
 8006078:	f7ff f81a 	bl	80050b0 <_malloc_r>
 800607c:	4605      	mov	r5, r0
 800607e:	2800      	cmp	r0, #0
 8006080:	d0f2      	beq.n	8006068 <_realloc_r+0x1c>
 8006082:	4631      	mov	r1, r6
 8006084:	4622      	mov	r2, r4
 8006086:	f7ff ffad 	bl	8005fe4 <memcpy>
 800608a:	4631      	mov	r1, r6
 800608c:	4638      	mov	r0, r7
 800608e:	f7fe ffbf 	bl	8005010 <_free_r>
 8006092:	e7e9      	b.n	8006068 <_realloc_r+0x1c>
 8006094:	4635      	mov	r5, r6
 8006096:	e7e7      	b.n	8006068 <_realloc_r+0x1c>

08006098 <_raise_r>:
 8006098:	291f      	cmp	r1, #31
 800609a:	b538      	push	{r3, r4, r5, lr}
 800609c:	4604      	mov	r4, r0
 800609e:	460d      	mov	r5, r1
 80060a0:	d904      	bls.n	80060ac <_raise_r+0x14>
 80060a2:	2316      	movs	r3, #22
 80060a4:	6003      	str	r3, [r0, #0]
 80060a6:	f04f 30ff 	mov.w	r0, #4294967295
 80060aa:	bd38      	pop	{r3, r4, r5, pc}
 80060ac:	6c42      	ldr	r2, [r0, #68]	; 0x44
 80060ae:	b112      	cbz	r2, 80060b6 <_raise_r+0x1e>
 80060b0:	f852 3021 	ldr.w	r3, [r2, r1, lsl #2]
 80060b4:	b94b      	cbnz	r3, 80060ca <_raise_r+0x32>
 80060b6:	4620      	mov	r0, r4
 80060b8:	f000 f830 	bl	800611c <_getpid_r>
 80060bc:	462a      	mov	r2, r5
 80060be:	4601      	mov	r1, r0
 80060c0:	4620      	mov	r0, r4
 80060c2:	e8bd 4038 	ldmia.w	sp!, {r3, r4, r5, lr}
 80060c6:	f000 b817 	b.w	80060f8 <_kill_r>
 80060ca:	2b01      	cmp	r3, #1
 80060cc:	d00a      	beq.n	80060e4 <_raise_r+0x4c>
 80060ce:	1c59      	adds	r1, r3, #1
 80060d0:	d103      	bne.n	80060da <_raise_r+0x42>
 80060d2:	2316      	movs	r3, #22
 80060d4:	6003      	str	r3, [r0, #0]
 80060d6:	2001      	movs	r0, #1
 80060d8:	e7e7      	b.n	80060aa <_raise_r+0x12>
 80060da:	2400      	movs	r4, #0
 80060dc:	f842 4025 	str.w	r4, [r2, r5, lsl #2]
 80060e0:	4628      	mov	r0, r5
 80060e2:	4798      	blx	r3
 80060e4:	2000      	movs	r0, #0
 80060e6:	e7e0      	b.n	80060aa <_raise_r+0x12>

080060e8 <raise>:
 80060e8:	4b02      	ldr	r3, [pc, #8]	; (80060f4 <raise+0xc>)
 80060ea:	4601      	mov	r1, r0
 80060ec:	6818      	ldr	r0, [r3, #0]
 80060ee:	f7ff bfd3 	b.w	8006098 <_raise_r>
 80060f2:	bf00      	nop
 80060f4:	2000002c 	.word	0x2000002c

080060f8 <_kill_r>:
 80060f8:	b538      	push	{r3, r4, r5, lr}
 80060fa:	4d07      	ldr	r5, [pc, #28]	; (8006118 <_kill_r+0x20>)
 80060fc:	2300      	movs	r3, #0
 80060fe:	4604      	mov	r4, r0
 8006100:	4608      	mov	r0, r1
 8006102:	4611      	mov	r1, r2
 8006104:	602b      	str	r3, [r5, #0]
 8006106:	f7fa fdb5 	bl	8000c74 <_kill>
 800610a:	1c43      	adds	r3, r0, #1
 800610c:	d102      	bne.n	8006114 <_kill_r+0x1c>
 800610e:	682b      	ldr	r3, [r5, #0]
 8006110:	b103      	cbz	r3, 8006114 <_kill_r+0x1c>
 8006112:	6023      	str	r3, [r4, #0]
 8006114:	bd38      	pop	{r3, r4, r5, pc}
 8006116:	bf00      	nop
 8006118:	2001307c 	.word	0x2001307c

0800611c <_getpid_r>:
 800611c:	f7fa bda2 	b.w	8000c64 <_getpid>

08006120 <__sread>:
 8006120:	b510      	push	{r4, lr}
 8006122:	460c      	mov	r4, r1
 8006124:	f9b1 100e 	ldrsh.w	r1, [r1, #14]
 8006128:	f000 f89c 	bl	8006264 <_read_r>
 800612c:	2800      	cmp	r0, #0
 800612e:	bfab      	itete	ge
 8006130:	6d63      	ldrge	r3, [r4, #84]	; 0x54
 8006132:	89a3      	ldrhlt	r3, [r4, #12]
 8006134:	181b      	addge	r3, r3, r0
 8006136:	f423 5380 	biclt.w	r3, r3, #4096	; 0x1000
 800613a:	bfac      	ite	ge
 800613c:	6563      	strge	r3, [r4, #84]	; 0x54
 800613e:	81a3      	strhlt	r3, [r4, #12]
 8006140:	bd10      	pop	{r4, pc}

08006142 <__swrite>:
 8006142:	e92d 41f0 	stmdb	sp!, {r4, r5, r6, r7, r8, lr}
 8006146:	461f      	mov	r7, r3
 8006148:	898b      	ldrh	r3, [r1, #12]
 800614a:	05db      	lsls	r3, r3, #23
 800614c:	4605      	mov	r5, r0
 800614e:	460c      	mov	r4, r1
 8006150:	4616      	mov	r6, r2
 8006152:	d505      	bpl.n	8006160 <__swrite+0x1e>
 8006154:	f9b1 100e 	ldrsh.w	r1, [r1, #14]
 8006158:	2302      	movs	r3, #2
 800615a:	2200      	movs	r2, #0
 800615c:	f000 f868 	bl	8006230 <_lseek_r>
 8006160:	89a3      	ldrh	r3, [r4, #12]
 8006162:	f9b4 100e 	ldrsh.w	r1, [r4, #14]
 8006166:	f423 5380 	bic.w	r3, r3, #4096	; 0x1000
 800616a:	81a3      	strh	r3, [r4, #12]
 800616c:	4632      	mov	r2, r6
 800616e:	463b      	mov	r3, r7
 8006170:	4628      	mov	r0, r5
 8006172:	e8bd 41f0 	ldmia.w	sp!, {r4, r5, r6, r7, r8, lr}
 8006176:	f000 b817 	b.w	80061a8 <_write_r>

0800617a <__sseek>:
 800617a:	b510      	push	{r4, lr}
 800617c:	460c      	mov	r4, r1
 800617e:	f9b1 100e 	ldrsh.w	r1, [r1, #14]
 8006182:	f000 f855 	bl	8006230 <_lseek_r>
 8006186:	1c43      	adds	r3, r0, #1
 8006188:	89a3      	ldrh	r3, [r4, #12]
 800618a:	bf15      	itete	ne
 800618c:	6560      	strne	r0, [r4, #84]	; 0x54
 800618e:	f423 5380 	biceq.w	r3, r3, #4096	; 0x1000
 8006192:	f443 5380 	orrne.w	r3, r3, #4096	; 0x1000
 8006196:	81a3      	strheq	r3, [r4, #12]
 8006198:	bf18      	it	ne
 800619a:	81a3      	strhne	r3, [r4, #12]
 800619c:	bd10      	pop	{r4, pc}

0800619e <__sclose>:
 800619e:	f9b1 100e 	ldrsh.w	r1, [r1, #14]
 80061a2:	f000 b813 	b.w	80061cc <_close_r>
	...

080061a8 <_write_r>:
 80061a8:	b538      	push	{r3, r4, r5, lr}
 80061aa:	4d07      	ldr	r5, [pc, #28]	; (80061c8 <_write_r+0x20>)
 80061ac:	4604      	mov	r4, r0
 80061ae:	4608      	mov	r0, r1
 80061b0:	4611      	mov	r1, r2
 80061b2:	2200      	movs	r2, #0
 80061b4:	602a      	str	r2, [r5, #0]
 80061b6:	461a      	mov	r2, r3
 80061b8:	f7fa fd93 	bl	8000ce2 <_write>
 80061bc:	1c43      	adds	r3, r0, #1
 80061be:	d102      	bne.n	80061c6 <_write_r+0x1e>
 80061c0:	682b      	ldr	r3, [r5, #0]
 80061c2:	b103      	cbz	r3, 80061c6 <_write_r+0x1e>
 80061c4:	6023      	str	r3, [r4, #0]
 80061c6:	bd38      	pop	{r3, r4, r5, pc}
 80061c8:	2001307c 	.word	0x2001307c

080061cc <_close_r>:
 80061cc:	b538      	push	{r3, r4, r5, lr}
 80061ce:	4d06      	ldr	r5, [pc, #24]	; (80061e8 <_close_r+0x1c>)
 80061d0:	2300      	movs	r3, #0
 80061d2:	4604      	mov	r4, r0
 80061d4:	4608      	mov	r0, r1
 80061d6:	602b      	str	r3, [r5, #0]
 80061d8:	f7fa fd9f 	bl	8000d1a <_close>
 80061dc:	1c43      	adds	r3, r0, #1
 80061de:	d102      	bne.n	80061e6 <_close_r+0x1a>
 80061e0:	682b      	ldr	r3, [r5, #0]
 80061e2:	b103      	cbz	r3, 80061e6 <_close_r+0x1a>
 80061e4:	6023      	str	r3, [r4, #0]
 80061e6:	bd38      	pop	{r3, r4, r5, pc}
 80061e8:	2001307c 	.word	0x2001307c

080061ec <_fstat_r>:
 80061ec:	b538      	push	{r3, r4, r5, lr}
 80061ee:	4d07      	ldr	r5, [pc, #28]	; (800620c <_fstat_r+0x20>)
 80061f0:	2300      	movs	r3, #0
 80061f2:	4604      	mov	r4, r0
 80061f4:	4608      	mov	r0, r1
 80061f6:	4611      	mov	r1, r2
 80061f8:	602b      	str	r3, [r5, #0]
 80061fa:	f7fa fd9a 	bl	8000d32 <_fstat>
 80061fe:	1c43      	adds	r3, r0, #1
 8006200:	d102      	bne.n	8006208 <_fstat_r+0x1c>
 8006202:	682b      	ldr	r3, [r5, #0]
 8006204:	b103      	cbz	r3, 8006208 <_fstat_r+0x1c>
 8006206:	6023      	str	r3, [r4, #0]
 8006208:	bd38      	pop	{r3, r4, r5, pc}
 800620a:	bf00      	nop
 800620c:	2001307c 	.word	0x2001307c

08006210 <_isatty_r>:
 8006210:	b538      	push	{r3, r4, r5, lr}
 8006212:	4d06      	ldr	r5, [pc, #24]	; (800622c <_isatty_r+0x1c>)
 8006214:	2300      	movs	r3, #0
 8006216:	4604      	mov	r4, r0
 8006218:	4608      	mov	r0, r1
 800621a:	602b      	str	r3, [r5, #0]
 800621c:	f7fa fd99 	bl	8000d52 <_isatty>
 8006220:	1c43      	adds	r3, r0, #1
 8006222:	d102      	bne.n	800622a <_isatty_r+0x1a>
 8006224:	682b      	ldr	r3, [r5, #0]
 8006226:	b103      	cbz	r3, 800622a <_isatty_r+0x1a>
 8006228:	6023      	str	r3, [r4, #0]
 800622a:	bd38      	pop	{r3, r4, r5, pc}
 800622c:	2001307c 	.word	0x2001307c

08006230 <_lseek_r>:
 8006230:	b538      	push	{r3, r4, r5, lr}
 8006232:	4d07      	ldr	r5, [pc, #28]	; (8006250 <_lseek_r+0x20>)
 8006234:	4604      	mov	r4, r0
 8006236:	4608      	mov	r0, r1
 8006238:	4611      	mov	r1, r2
 800623a:	2200      	movs	r2, #0
 800623c:	602a      	str	r2, [r5, #0]
 800623e:	461a      	mov	r2, r3
 8006240:	f7fa fd92 	bl	8000d68 <_lseek>
 8006244:	1c43      	adds	r3, r0, #1
 8006246:	d102      	bne.n	800624e <_lseek_r+0x1e>
 8006248:	682b      	ldr	r3, [r5, #0]
 800624a:	b103      	cbz	r3, 800624e <_lseek_r+0x1e>
 800624c:	6023      	str	r3, [r4, #0]
 800624e:	bd38      	pop	{r3, r4, r5, pc}
 8006250:	2001307c 	.word	0x2001307c

08006254 <_malloc_usable_size_r>:
 8006254:	f851 3c04 	ldr.w	r3, [r1, #-4]
 8006258:	1f18      	subs	r0, r3, #4
 800625a:	2b00      	cmp	r3, #0
 800625c:	bfbc      	itt	lt
 800625e:	580b      	ldrlt	r3, [r1, r0]
 8006260:	18c0      	addlt	r0, r0, r3
 8006262:	4770      	bx	lr

08006264 <_read_r>:
 8006264:	b538      	push	{r3, r4, r5, lr}
 8006266:	4d07      	ldr	r5, [pc, #28]	; (8006284 <_read_r+0x20>)
 8006268:	4604      	mov	r4, r0
 800626a:	4608      	mov	r0, r1
 800626c:	4611      	mov	r1, r2
 800626e:	2200      	movs	r2, #0
 8006270:	602a      	str	r2, [r5, #0]
 8006272:	461a      	mov	r2, r3
 8006274:	f7fa fd18 	bl	8000ca8 <_read>
 8006278:	1c43      	adds	r3, r0, #1
 800627a:	d102      	bne.n	8006282 <_read_r+0x1e>
 800627c:	682b      	ldr	r3, [r5, #0]
 800627e:	b103      	cbz	r3, 8006282 <_read_r+0x1e>
 8006280:	6023      	str	r3, [r4, #0]
 8006282:	bd38      	pop	{r3, r4, r5, pc}
 8006284:	2001307c 	.word	0x2001307c

08006288 <_init>:
 8006288:	b5f8      	push	{r3, r4, r5, r6, r7, lr}
 800628a:	bf00      	nop
 800628c:	bcf8      	pop	{r3, r4, r5, r6, r7}
 800628e:	bc08      	pop	{r3}
 8006290:	469e      	mov	lr, r3
 8006292:	4770      	bx	lr

08006294 <_fini>:
 8006294:	b5f8      	push	{r3, r4, r5, r6, r7, lr}
 8006296:	bf00      	nop
 8006298:	bcf8      	pop	{r3, r4, r5, r6, r7}
 800629a:	bc08      	pop	{r3}
 800629c:	469e      	mov	lr, r3
 800629e:	4770      	bx	lr
